   1                             		.file	"all_ops_resolver.cc"
   2                             		.section P,"ax"
   3                             	.Ltext0:
   4                             		.section	.text._ZNK6tflite10OpResolver12GetDelegatesEi,"axG",@progbits,_ZNK6tflite10OpResolver12Ge
   5                             		.weak	__ZNK6tflite10OpResolver12GetDelegatesEi
   7                             	__ZNK6tflite10OpResolver12GetDelegatesEi:
   8                             	.LFB6450:
   9                             		.file 1 "C:\\Users\\a5116938\\Desktop\\e2_studio_workspace\\EEMBC_final\\RX65N_Cloud_Kit\\src/tens
   1:C:\Users\a5116938\Desktop\e2_studio_workspace\EEMBC_final\RX65N_Cloud_Kit\src/tensorflow/lite/core/api\op_resolver.h **** /* Copyright 2018 The TensorFlow Authors. All Rights Reserved.
   2:C:\Users\a5116938\Desktop\e2_studio_workspace\EEMBC_final\RX65N_Cloud_Kit\src/tensorflow/lite/core/api\op_resolver.h **** 
   3:C:\Users\a5116938\Desktop\e2_studio_workspace\EEMBC_final\RX65N_Cloud_Kit\src/tensorflow/lite/core/api\op_resolver.h **** Licensed under the Apache License, Version 2.0 (the "License");
   4:C:\Users\a5116938\Desktop\e2_studio_workspace\EEMBC_final\RX65N_Cloud_Kit\src/tensorflow/lite/core/api\op_resolver.h **** you may not use this file except in compliance with the License.
   5:C:\Users\a5116938\Desktop\e2_studio_workspace\EEMBC_final\RX65N_Cloud_Kit\src/tensorflow/lite/core/api\op_resolver.h **** You may obtain a copy of the License at
   6:C:\Users\a5116938\Desktop\e2_studio_workspace\EEMBC_final\RX65N_Cloud_Kit\src/tensorflow/lite/core/api\op_resolver.h **** 
   7:C:\Users\a5116938\Desktop\e2_studio_workspace\EEMBC_final\RX65N_Cloud_Kit\src/tensorflow/lite/core/api\op_resolver.h ****     http://www.apache.org/licenses/LICENSE-2.0
   8:C:\Users\a5116938\Desktop\e2_studio_workspace\EEMBC_final\RX65N_Cloud_Kit\src/tensorflow/lite/core/api\op_resolver.h **** 
   9:C:\Users\a5116938\Desktop\e2_studio_workspace\EEMBC_final\RX65N_Cloud_Kit\src/tensorflow/lite/core/api\op_resolver.h **** Unless required by applicable law or agreed to in writing, software
  10:C:\Users\a5116938\Desktop\e2_studio_workspace\EEMBC_final\RX65N_Cloud_Kit\src/tensorflow/lite/core/api\op_resolver.h **** distributed under the License is distributed on an "AS IS" BASIS,
  11:C:\Users\a5116938\Desktop\e2_studio_workspace\EEMBC_final\RX65N_Cloud_Kit\src/tensorflow/lite/core/api\op_resolver.h **** WITHOUT WARRANTIES OR CONDITIONS OF ANY KIND, either express or implied.
  12:C:\Users\a5116938\Desktop\e2_studio_workspace\EEMBC_final\RX65N_Cloud_Kit\src/tensorflow/lite/core/api\op_resolver.h **** See the License for the specific language governing permissions and
  13:C:\Users\a5116938\Desktop\e2_studio_workspace\EEMBC_final\RX65N_Cloud_Kit\src/tensorflow/lite/core/api\op_resolver.h **** limitations under the License.
  14:C:\Users\a5116938\Desktop\e2_studio_workspace\EEMBC_final\RX65N_Cloud_Kit\src/tensorflow/lite/core/api\op_resolver.h **** ==============================================================================*/
  15:C:\Users\a5116938\Desktop\e2_studio_workspace\EEMBC_final\RX65N_Cloud_Kit\src/tensorflow/lite/core/api\op_resolver.h **** #ifndef TENSORFLOW_LITE_CORE_API_OP_RESOLVER_H_
  16:C:\Users\a5116938\Desktop\e2_studio_workspace\EEMBC_final\RX65N_Cloud_Kit\src/tensorflow/lite/core/api\op_resolver.h **** #define TENSORFLOW_LITE_CORE_API_OP_RESOLVER_H_
  17:C:\Users\a5116938\Desktop\e2_studio_workspace\EEMBC_final\RX65N_Cloud_Kit\src/tensorflow/lite/core/api\op_resolver.h **** 
  18:C:\Users\a5116938\Desktop\e2_studio_workspace\EEMBC_final\RX65N_Cloud_Kit\src/tensorflow/lite/core/api\op_resolver.h **** #include <vector>
  19:C:\Users\a5116938\Desktop\e2_studio_workspace\EEMBC_final\RX65N_Cloud_Kit\src/tensorflow/lite/core/api\op_resolver.h **** 
  20:C:\Users\a5116938\Desktop\e2_studio_workspace\EEMBC_final\RX65N_Cloud_Kit\src/tensorflow/lite/core/api\op_resolver.h **** #include "tensorflow/lite/c/common.h"
  21:C:\Users\a5116938\Desktop\e2_studio_workspace\EEMBC_final\RX65N_Cloud_Kit\src/tensorflow/lite/core/api\op_resolver.h **** #include "tensorflow/lite/core/api/error_reporter.h"
  22:C:\Users\a5116938\Desktop\e2_studio_workspace\EEMBC_final\RX65N_Cloud_Kit\src/tensorflow/lite/core/api\op_resolver.h **** #include "tensorflow/lite/schema/schema_generated.h"
  23:C:\Users\a5116938\Desktop\e2_studio_workspace\EEMBC_final\RX65N_Cloud_Kit\src/tensorflow/lite/core/api\op_resolver.h **** 
  24:C:\Users\a5116938\Desktop\e2_studio_workspace\EEMBC_final\RX65N_Cloud_Kit\src/tensorflow/lite/core/api\op_resolver.h **** namespace tflite {
  25:C:\Users\a5116938\Desktop\e2_studio_workspace\EEMBC_final\RX65N_Cloud_Kit\src/tensorflow/lite/core/api\op_resolver.h **** 
  26:C:\Users\a5116938\Desktop\e2_studio_workspace\EEMBC_final\RX65N_Cloud_Kit\src/tensorflow/lite/core/api\op_resolver.h **** /// Abstract interface that returns TfLiteRegistrations given op codes or custom
  27:C:\Users\a5116938\Desktop\e2_studio_workspace\EEMBC_final\RX65N_Cloud_Kit\src/tensorflow/lite/core/api\op_resolver.h **** /// op names. This is the mechanism that ops being referenced in the flatbuffer
  28:C:\Users\a5116938\Desktop\e2_studio_workspace\EEMBC_final\RX65N_Cloud_Kit\src/tensorflow/lite/core/api\op_resolver.h **** /// model are mapped to executable function pointers (TfLiteRegistrations).
  29:C:\Users\a5116938\Desktop\e2_studio_workspace\EEMBC_final\RX65N_Cloud_Kit\src/tensorflow/lite/core/api\op_resolver.h **** class OpResolver {
  30:C:\Users\a5116938\Desktop\e2_studio_workspace\EEMBC_final\RX65N_Cloud_Kit\src/tensorflow/lite/core/api\op_resolver.h ****  public:
  31:C:\Users\a5116938\Desktop\e2_studio_workspace\EEMBC_final\RX65N_Cloud_Kit\src/tensorflow/lite/core/api\op_resolver.h ****   /// Finds the op registration for a builtin operator by enum code.
  32:C:\Users\a5116938\Desktop\e2_studio_workspace\EEMBC_final\RX65N_Cloud_Kit\src/tensorflow/lite/core/api\op_resolver.h ****   virtual const TfLiteRegistration* FindOp(tflite::BuiltinOperator op,
  33:C:\Users\a5116938\Desktop\e2_studio_workspace\EEMBC_final\RX65N_Cloud_Kit\src/tensorflow/lite/core/api\op_resolver.h ****                                            int version) const = 0;
  34:C:\Users\a5116938\Desktop\e2_studio_workspace\EEMBC_final\RX65N_Cloud_Kit\src/tensorflow/lite/core/api\op_resolver.h ****   /// Finds the op registration of a custom operator by op name.
  35:C:\Users\a5116938\Desktop\e2_studio_workspace\EEMBC_final\RX65N_Cloud_Kit\src/tensorflow/lite/core/api\op_resolver.h ****   virtual const TfLiteRegistration* FindOp(const char* op,
  36:C:\Users\a5116938\Desktop\e2_studio_workspace\EEMBC_final\RX65N_Cloud_Kit\src/tensorflow/lite/core/api\op_resolver.h ****                                            int version) const = 0;
  37:C:\Users\a5116938\Desktop\e2_studio_workspace\EEMBC_final\RX65N_Cloud_Kit\src/tensorflow/lite/core/api\op_resolver.h **** 
  38:C:\Users\a5116938\Desktop\e2_studio_workspace\EEMBC_final\RX65N_Cloud_Kit\src/tensorflow/lite/core/api\op_resolver.h ****   // Returns optional delegates for resolving and handling ops in the flatbuffer
  39:C:\Users\a5116938\Desktop\e2_studio_workspace\EEMBC_final\RX65N_Cloud_Kit\src/tensorflow/lite/core/api\op_resolver.h ****   // model. This may be used in addition to the standard TfLiteRegistration
  40:C:\Users\a5116938\Desktop\e2_studio_workspace\EEMBC_final\RX65N_Cloud_Kit\src/tensorflow/lite/core/api\op_resolver.h ****   // lookup for graph resolution.
  41:C:\Users\a5116938\Desktop\e2_studio_workspace\EEMBC_final\RX65N_Cloud_Kit\src/tensorflow/lite/core/api\op_resolver.h ****   using TfLiteDelegatePtrVector =
  42:C:\Users\a5116938\Desktop\e2_studio_workspace\EEMBC_final\RX65N_Cloud_Kit\src/tensorflow/lite/core/api\op_resolver.h ****       std::vector<std::unique_ptr<TfLiteDelegate, void (*)(TfLiteDelegate*)>>;
  43:C:\Users\a5116938\Desktop\e2_studio_workspace\EEMBC_final\RX65N_Cloud_Kit\src/tensorflow/lite/core/api\op_resolver.h ****   virtual TfLiteDelegatePtrVector GetDelegates(int num_threads) const {
  10                             		.loc 1 43 35
  11                             	.LVL0:
  44:C:\Users\a5116938\Desktop\e2_studio_workspace\EEMBC_final\RX65N_Cloud_Kit\src/tensorflow/lite/core/api\op_resolver.h ****     return TfLiteDelegatePtrVector();
  12                             		.loc 1 44 5
  13                             	.LBB82:
  14                             	.LBB83:
  15                             	.LBB84:
  16                             	.LBB85:
  17                             		.file 2 "c:\\gcc for renesas rx 8.3.0.202004-gnurx-elf\\rx-elf\\rx-elf\\rx-elf\\include\\c++\\8.3.
   1:c:\gcc for renesas rx 8.3.0.202004-gnurx-elf\rx-elf\rx-elf\rx-elf\include\c++\8.3.0.202004-gnurx\bits\stl_vector.h **** // Vector implementation -*- C++ -*-
   2:c:\gcc for renesas rx 8.3.0.202004-gnurx-elf\rx-elf\rx-elf\rx-elf\include\c++\8.3.0.202004-gnurx\bits\stl_vector.h **** 
   3:c:\gcc for renesas rx 8.3.0.202004-gnurx-elf\rx-elf\rx-elf\rx-elf\include\c++\8.3.0.202004-gnurx\bits\stl_vector.h **** // Copyright (C) 2001-2018 Free Software Foundation, Inc.
   4:c:\gcc for renesas rx 8.3.0.202004-gnurx-elf\rx-elf\rx-elf\rx-elf\include\c++\8.3.0.202004-gnurx\bits\stl_vector.h **** //
   5:c:\gcc for renesas rx 8.3.0.202004-gnurx-elf\rx-elf\rx-elf\rx-elf\include\c++\8.3.0.202004-gnurx\bits\stl_vector.h **** // This file is part of the GNU ISO C++ Library.  This library is free
   6:c:\gcc for renesas rx 8.3.0.202004-gnurx-elf\rx-elf\rx-elf\rx-elf\include\c++\8.3.0.202004-gnurx\bits\stl_vector.h **** // software; you can redistribute it and/or modify it under the
   7:c:\gcc for renesas rx 8.3.0.202004-gnurx-elf\rx-elf\rx-elf\rx-elf\include\c++\8.3.0.202004-gnurx\bits\stl_vector.h **** // terms of the GNU General Public License as published by the
   8:c:\gcc for renesas rx 8.3.0.202004-gnurx-elf\rx-elf\rx-elf\rx-elf\include\c++\8.3.0.202004-gnurx\bits\stl_vector.h **** // Free Software Foundation; either version 3, or (at your option)
   9:c:\gcc for renesas rx 8.3.0.202004-gnurx-elf\rx-elf\rx-elf\rx-elf\include\c++\8.3.0.202004-gnurx\bits\stl_vector.h **** // any later version.
  10:c:\gcc for renesas rx 8.3.0.202004-gnurx-elf\rx-elf\rx-elf\rx-elf\include\c++\8.3.0.202004-gnurx\bits\stl_vector.h **** 
  11:c:\gcc for renesas rx 8.3.0.202004-gnurx-elf\rx-elf\rx-elf\rx-elf\include\c++\8.3.0.202004-gnurx\bits\stl_vector.h **** // This library is distributed in the hope that it will be useful,
  12:c:\gcc for renesas rx 8.3.0.202004-gnurx-elf\rx-elf\rx-elf\rx-elf\include\c++\8.3.0.202004-gnurx\bits\stl_vector.h **** // but WITHOUT ANY WARRANTY; without even the implied warranty of
  13:c:\gcc for renesas rx 8.3.0.202004-gnurx-elf\rx-elf\rx-elf\rx-elf\include\c++\8.3.0.202004-gnurx\bits\stl_vector.h **** // MERCHANTABILITY or FITNESS FOR A PARTICULAR PURPOSE.  See the
  14:c:\gcc for renesas rx 8.3.0.202004-gnurx-elf\rx-elf\rx-elf\rx-elf\include\c++\8.3.0.202004-gnurx\bits\stl_vector.h **** // GNU General Public License for more details.
  15:c:\gcc for renesas rx 8.3.0.202004-gnurx-elf\rx-elf\rx-elf\rx-elf\include\c++\8.3.0.202004-gnurx\bits\stl_vector.h **** 
  16:c:\gcc for renesas rx 8.3.0.202004-gnurx-elf\rx-elf\rx-elf\rx-elf\include\c++\8.3.0.202004-gnurx\bits\stl_vector.h **** // Under Section 7 of GPL version 3, you are granted additional
  17:c:\gcc for renesas rx 8.3.0.202004-gnurx-elf\rx-elf\rx-elf\rx-elf\include\c++\8.3.0.202004-gnurx\bits\stl_vector.h **** // permissions described in the GCC Runtime Library Exception, version
  18:c:\gcc for renesas rx 8.3.0.202004-gnurx-elf\rx-elf\rx-elf\rx-elf\include\c++\8.3.0.202004-gnurx\bits\stl_vector.h **** // 3.1, as published by the Free Software Foundation.
  19:c:\gcc for renesas rx 8.3.0.202004-gnurx-elf\rx-elf\rx-elf\rx-elf\include\c++\8.3.0.202004-gnurx\bits\stl_vector.h **** 
  20:c:\gcc for renesas rx 8.3.0.202004-gnurx-elf\rx-elf\rx-elf\rx-elf\include\c++\8.3.0.202004-gnurx\bits\stl_vector.h **** // You should have received a copy of the GNU General Public License and
  21:c:\gcc for renesas rx 8.3.0.202004-gnurx-elf\rx-elf\rx-elf\rx-elf\include\c++\8.3.0.202004-gnurx\bits\stl_vector.h **** // a copy of the GCC Runtime Library Exception along with this program;
  22:c:\gcc for renesas rx 8.3.0.202004-gnurx-elf\rx-elf\rx-elf\rx-elf\include\c++\8.3.0.202004-gnurx\bits\stl_vector.h **** // see the files COPYING3 and COPYING.RUNTIME respectively.  If not, see
  23:c:\gcc for renesas rx 8.3.0.202004-gnurx-elf\rx-elf\rx-elf\rx-elf\include\c++\8.3.0.202004-gnurx\bits\stl_vector.h **** // <http://www.gnu.org/licenses/>.
  24:c:\gcc for renesas rx 8.3.0.202004-gnurx-elf\rx-elf\rx-elf\rx-elf\include\c++\8.3.0.202004-gnurx\bits\stl_vector.h **** 
  25:c:\gcc for renesas rx 8.3.0.202004-gnurx-elf\rx-elf\rx-elf\rx-elf\include\c++\8.3.0.202004-gnurx\bits\stl_vector.h **** /*
  26:c:\gcc for renesas rx 8.3.0.202004-gnurx-elf\rx-elf\rx-elf\rx-elf\include\c++\8.3.0.202004-gnurx\bits\stl_vector.h ****  *
  27:c:\gcc for renesas rx 8.3.0.202004-gnurx-elf\rx-elf\rx-elf\rx-elf\include\c++\8.3.0.202004-gnurx\bits\stl_vector.h ****  * Copyright (c) 1994
  28:c:\gcc for renesas rx 8.3.0.202004-gnurx-elf\rx-elf\rx-elf\rx-elf\include\c++\8.3.0.202004-gnurx\bits\stl_vector.h ****  * Hewlett-Packard Company
  29:c:\gcc for renesas rx 8.3.0.202004-gnurx-elf\rx-elf\rx-elf\rx-elf\include\c++\8.3.0.202004-gnurx\bits\stl_vector.h ****  *
  30:c:\gcc for renesas rx 8.3.0.202004-gnurx-elf\rx-elf\rx-elf\rx-elf\include\c++\8.3.0.202004-gnurx\bits\stl_vector.h ****  * Permission to use, copy, modify, distribute and sell this software
  31:c:\gcc for renesas rx 8.3.0.202004-gnurx-elf\rx-elf\rx-elf\rx-elf\include\c++\8.3.0.202004-gnurx\bits\stl_vector.h ****  * and its documentation for any purpose is hereby granted without fee,
  32:c:\gcc for renesas rx 8.3.0.202004-gnurx-elf\rx-elf\rx-elf\rx-elf\include\c++\8.3.0.202004-gnurx\bits\stl_vector.h ****  * provided that the above copyright notice appear in all copies and
  33:c:\gcc for renesas rx 8.3.0.202004-gnurx-elf\rx-elf\rx-elf\rx-elf\include\c++\8.3.0.202004-gnurx\bits\stl_vector.h ****  * that both that copyright notice and this permission notice appear
  34:c:\gcc for renesas rx 8.3.0.202004-gnurx-elf\rx-elf\rx-elf\rx-elf\include\c++\8.3.0.202004-gnurx\bits\stl_vector.h ****  * in supporting documentation.  Hewlett-Packard Company makes no
  35:c:\gcc for renesas rx 8.3.0.202004-gnurx-elf\rx-elf\rx-elf\rx-elf\include\c++\8.3.0.202004-gnurx\bits\stl_vector.h ****  * representations about the suitability of this software for any
  36:c:\gcc for renesas rx 8.3.0.202004-gnurx-elf\rx-elf\rx-elf\rx-elf\include\c++\8.3.0.202004-gnurx\bits\stl_vector.h ****  * purpose.  It is provided "as is" without express or implied warranty.
  37:c:\gcc for renesas rx 8.3.0.202004-gnurx-elf\rx-elf\rx-elf\rx-elf\include\c++\8.3.0.202004-gnurx\bits\stl_vector.h ****  *
  38:c:\gcc for renesas rx 8.3.0.202004-gnurx-elf\rx-elf\rx-elf\rx-elf\include\c++\8.3.0.202004-gnurx\bits\stl_vector.h ****  *
  39:c:\gcc for renesas rx 8.3.0.202004-gnurx-elf\rx-elf\rx-elf\rx-elf\include\c++\8.3.0.202004-gnurx\bits\stl_vector.h ****  * Copyright (c) 1996
  40:c:\gcc for renesas rx 8.3.0.202004-gnurx-elf\rx-elf\rx-elf\rx-elf\include\c++\8.3.0.202004-gnurx\bits\stl_vector.h ****  * Silicon Graphics Computer Systems, Inc.
  41:c:\gcc for renesas rx 8.3.0.202004-gnurx-elf\rx-elf\rx-elf\rx-elf\include\c++\8.3.0.202004-gnurx\bits\stl_vector.h ****  *
  42:c:\gcc for renesas rx 8.3.0.202004-gnurx-elf\rx-elf\rx-elf\rx-elf\include\c++\8.3.0.202004-gnurx\bits\stl_vector.h ****  * Permission to use, copy, modify, distribute and sell this software
  43:c:\gcc for renesas rx 8.3.0.202004-gnurx-elf\rx-elf\rx-elf\rx-elf\include\c++\8.3.0.202004-gnurx\bits\stl_vector.h ****  * and its documentation for any purpose is hereby granted without fee,
  44:c:\gcc for renesas rx 8.3.0.202004-gnurx-elf\rx-elf\rx-elf\rx-elf\include\c++\8.3.0.202004-gnurx\bits\stl_vector.h ****  * provided that the above copyright notice appear in all copies and
  45:c:\gcc for renesas rx 8.3.0.202004-gnurx-elf\rx-elf\rx-elf\rx-elf\include\c++\8.3.0.202004-gnurx\bits\stl_vector.h ****  * that both that copyright notice and this permission notice appear
  46:c:\gcc for renesas rx 8.3.0.202004-gnurx-elf\rx-elf\rx-elf\rx-elf\include\c++\8.3.0.202004-gnurx\bits\stl_vector.h ****  * in supporting documentation.  Silicon Graphics makes no
  47:c:\gcc for renesas rx 8.3.0.202004-gnurx-elf\rx-elf\rx-elf\rx-elf\include\c++\8.3.0.202004-gnurx\bits\stl_vector.h ****  * representations about the suitability of this  software for any
  48:c:\gcc for renesas rx 8.3.0.202004-gnurx-elf\rx-elf\rx-elf\rx-elf\include\c++\8.3.0.202004-gnurx\bits\stl_vector.h ****  * purpose.  It is provided "as is" without express or implied warranty.
  49:c:\gcc for renesas rx 8.3.0.202004-gnurx-elf\rx-elf\rx-elf\rx-elf\include\c++\8.3.0.202004-gnurx\bits\stl_vector.h ****  */
  50:c:\gcc for renesas rx 8.3.0.202004-gnurx-elf\rx-elf\rx-elf\rx-elf\include\c++\8.3.0.202004-gnurx\bits\stl_vector.h **** 
  51:c:\gcc for renesas rx 8.3.0.202004-gnurx-elf\rx-elf\rx-elf\rx-elf\include\c++\8.3.0.202004-gnurx\bits\stl_vector.h **** /** @file bits/stl_vector.h
  52:c:\gcc for renesas rx 8.3.0.202004-gnurx-elf\rx-elf\rx-elf\rx-elf\include\c++\8.3.0.202004-gnurx\bits\stl_vector.h ****  *  This is an internal header file, included by other library headers.
  53:c:\gcc for renesas rx 8.3.0.202004-gnurx-elf\rx-elf\rx-elf\rx-elf\include\c++\8.3.0.202004-gnurx\bits\stl_vector.h ****  *  Do not attempt to use it directly. @headername{vector}
  54:c:\gcc for renesas rx 8.3.0.202004-gnurx-elf\rx-elf\rx-elf\rx-elf\include\c++\8.3.0.202004-gnurx\bits\stl_vector.h ****  */
  55:c:\gcc for renesas rx 8.3.0.202004-gnurx-elf\rx-elf\rx-elf\rx-elf\include\c++\8.3.0.202004-gnurx\bits\stl_vector.h **** 
  56:c:\gcc for renesas rx 8.3.0.202004-gnurx-elf\rx-elf\rx-elf\rx-elf\include\c++\8.3.0.202004-gnurx\bits\stl_vector.h **** #ifndef _STL_VECTOR_H
  57:c:\gcc for renesas rx 8.3.0.202004-gnurx-elf\rx-elf\rx-elf\rx-elf\include\c++\8.3.0.202004-gnurx\bits\stl_vector.h **** #define _STL_VECTOR_H 1
  58:c:\gcc for renesas rx 8.3.0.202004-gnurx-elf\rx-elf\rx-elf\rx-elf\include\c++\8.3.0.202004-gnurx\bits\stl_vector.h **** 
  59:c:\gcc for renesas rx 8.3.0.202004-gnurx-elf\rx-elf\rx-elf\rx-elf\include\c++\8.3.0.202004-gnurx\bits\stl_vector.h **** #include <bits/stl_iterator_base_funcs.h>
  60:c:\gcc for renesas rx 8.3.0.202004-gnurx-elf\rx-elf\rx-elf\rx-elf\include\c++\8.3.0.202004-gnurx\bits\stl_vector.h **** #include <bits/functexcept.h>
  61:c:\gcc for renesas rx 8.3.0.202004-gnurx-elf\rx-elf\rx-elf\rx-elf\include\c++\8.3.0.202004-gnurx\bits\stl_vector.h **** #include <bits/concept_check.h>
  62:c:\gcc for renesas rx 8.3.0.202004-gnurx-elf\rx-elf\rx-elf\rx-elf\include\c++\8.3.0.202004-gnurx\bits\stl_vector.h **** #if __cplusplus >= 201103L
  63:c:\gcc for renesas rx 8.3.0.202004-gnurx-elf\rx-elf\rx-elf\rx-elf\include\c++\8.3.0.202004-gnurx\bits\stl_vector.h **** #include <initializer_list>
  64:c:\gcc for renesas rx 8.3.0.202004-gnurx-elf\rx-elf\rx-elf\rx-elf\include\c++\8.3.0.202004-gnurx\bits\stl_vector.h **** #endif
  65:c:\gcc for renesas rx 8.3.0.202004-gnurx-elf\rx-elf\rx-elf\rx-elf\include\c++\8.3.0.202004-gnurx\bits\stl_vector.h **** 
  66:c:\gcc for renesas rx 8.3.0.202004-gnurx-elf\rx-elf\rx-elf\rx-elf\include\c++\8.3.0.202004-gnurx\bits\stl_vector.h **** #include <debug/assertions.h>
  67:c:\gcc for renesas rx 8.3.0.202004-gnurx-elf\rx-elf\rx-elf\rx-elf\include\c++\8.3.0.202004-gnurx\bits\stl_vector.h **** 
  68:c:\gcc for renesas rx 8.3.0.202004-gnurx-elf\rx-elf\rx-elf\rx-elf\include\c++\8.3.0.202004-gnurx\bits\stl_vector.h **** #if _GLIBCXX_SANITIZE_STD_ALLOCATOR && _GLIBCXX_SANITIZE_VECTOR
  69:c:\gcc for renesas rx 8.3.0.202004-gnurx-elf\rx-elf\rx-elf\rx-elf\include\c++\8.3.0.202004-gnurx\bits\stl_vector.h **** extern "C" void
  70:c:\gcc for renesas rx 8.3.0.202004-gnurx-elf\rx-elf\rx-elf\rx-elf\include\c++\8.3.0.202004-gnurx\bits\stl_vector.h **** __sanitizer_annotate_contiguous_container(const void*, const void*,
  71:c:\gcc for renesas rx 8.3.0.202004-gnurx-elf\rx-elf\rx-elf\rx-elf\include\c++\8.3.0.202004-gnurx\bits\stl_vector.h **** 					  const void*, const void*);
  72:c:\gcc for renesas rx 8.3.0.202004-gnurx-elf\rx-elf\rx-elf\rx-elf\include\c++\8.3.0.202004-gnurx\bits\stl_vector.h **** #endif
  73:c:\gcc for renesas rx 8.3.0.202004-gnurx-elf\rx-elf\rx-elf\rx-elf\include\c++\8.3.0.202004-gnurx\bits\stl_vector.h **** 
  74:c:\gcc for renesas rx 8.3.0.202004-gnurx-elf\rx-elf\rx-elf\rx-elf\include\c++\8.3.0.202004-gnurx\bits\stl_vector.h **** namespace std _GLIBCXX_VISIBILITY(default)
  75:c:\gcc for renesas rx 8.3.0.202004-gnurx-elf\rx-elf\rx-elf\rx-elf\include\c++\8.3.0.202004-gnurx\bits\stl_vector.h **** {
  76:c:\gcc for renesas rx 8.3.0.202004-gnurx-elf\rx-elf\rx-elf\rx-elf\include\c++\8.3.0.202004-gnurx\bits\stl_vector.h **** _GLIBCXX_BEGIN_NAMESPACE_VERSION
  77:c:\gcc for renesas rx 8.3.0.202004-gnurx-elf\rx-elf\rx-elf\rx-elf\include\c++\8.3.0.202004-gnurx\bits\stl_vector.h **** _GLIBCXX_BEGIN_NAMESPACE_CONTAINER
  78:c:\gcc for renesas rx 8.3.0.202004-gnurx-elf\rx-elf\rx-elf\rx-elf\include\c++\8.3.0.202004-gnurx\bits\stl_vector.h **** 
  79:c:\gcc for renesas rx 8.3.0.202004-gnurx-elf\rx-elf\rx-elf\rx-elf\include\c++\8.3.0.202004-gnurx\bits\stl_vector.h ****   /// See bits/stl_deque.h's _Deque_base for an explanation.
  80:c:\gcc for renesas rx 8.3.0.202004-gnurx-elf\rx-elf\rx-elf\rx-elf\include\c++\8.3.0.202004-gnurx\bits\stl_vector.h ****   template<typename _Tp, typename _Alloc>
  81:c:\gcc for renesas rx 8.3.0.202004-gnurx-elf\rx-elf\rx-elf\rx-elf\include\c++\8.3.0.202004-gnurx\bits\stl_vector.h ****     struct _Vector_base
  82:c:\gcc for renesas rx 8.3.0.202004-gnurx-elf\rx-elf\rx-elf\rx-elf\include\c++\8.3.0.202004-gnurx\bits\stl_vector.h ****     {
  83:c:\gcc for renesas rx 8.3.0.202004-gnurx-elf\rx-elf\rx-elf\rx-elf\include\c++\8.3.0.202004-gnurx\bits\stl_vector.h ****       typedef typename __gnu_cxx::__alloc_traits<_Alloc>::template
  84:c:\gcc for renesas rx 8.3.0.202004-gnurx-elf\rx-elf\rx-elf\rx-elf\include\c++\8.3.0.202004-gnurx\bits\stl_vector.h **** 	rebind<_Tp>::other _Tp_alloc_type;
  85:c:\gcc for renesas rx 8.3.0.202004-gnurx-elf\rx-elf\rx-elf\rx-elf\include\c++\8.3.0.202004-gnurx\bits\stl_vector.h ****       typedef typename __gnu_cxx::__alloc_traits<_Tp_alloc_type>::pointer
  86:c:\gcc for renesas rx 8.3.0.202004-gnurx-elf\rx-elf\rx-elf\rx-elf\include\c++\8.3.0.202004-gnurx\bits\stl_vector.h ****        	pointer;
  87:c:\gcc for renesas rx 8.3.0.202004-gnurx-elf\rx-elf\rx-elf\rx-elf\include\c++\8.3.0.202004-gnurx\bits\stl_vector.h **** 
  88:c:\gcc for renesas rx 8.3.0.202004-gnurx-elf\rx-elf\rx-elf\rx-elf\include\c++\8.3.0.202004-gnurx\bits\stl_vector.h ****       struct _Vector_impl
  89:c:\gcc for renesas rx 8.3.0.202004-gnurx-elf\rx-elf\rx-elf\rx-elf\include\c++\8.3.0.202004-gnurx\bits\stl_vector.h ****       : public _Tp_alloc_type
  90:c:\gcc for renesas rx 8.3.0.202004-gnurx-elf\rx-elf\rx-elf\rx-elf\include\c++\8.3.0.202004-gnurx\bits\stl_vector.h ****       {
  91:c:\gcc for renesas rx 8.3.0.202004-gnurx-elf\rx-elf\rx-elf\rx-elf\include\c++\8.3.0.202004-gnurx\bits\stl_vector.h **** 	pointer _M_start;
  92:c:\gcc for renesas rx 8.3.0.202004-gnurx-elf\rx-elf\rx-elf\rx-elf\include\c++\8.3.0.202004-gnurx\bits\stl_vector.h **** 	pointer _M_finish;
  93:c:\gcc for renesas rx 8.3.0.202004-gnurx-elf\rx-elf\rx-elf\rx-elf\include\c++\8.3.0.202004-gnurx\bits\stl_vector.h **** 	pointer _M_end_of_storage;
  94:c:\gcc for renesas rx 8.3.0.202004-gnurx-elf\rx-elf\rx-elf\rx-elf\include\c++\8.3.0.202004-gnurx\bits\stl_vector.h **** 
  95:c:\gcc for renesas rx 8.3.0.202004-gnurx-elf\rx-elf\rx-elf\rx-elf\include\c++\8.3.0.202004-gnurx\bits\stl_vector.h **** 	_Vector_impl()
  96:c:\gcc for renesas rx 8.3.0.202004-gnurx-elf\rx-elf\rx-elf\rx-elf\include\c++\8.3.0.202004-gnurx\bits\stl_vector.h **** 	: _Tp_alloc_type(), _M_start(), _M_finish(), _M_end_of_storage()
  18                             		.loc 2 96 65 is_stmt 0
  19 0000 F8 F6 00                		mov.L	#0, [r15]
  20 0003 F9 F6 01 00             		mov.L	#0, 4[r15]
  21                             	.LBE85:
  22                             	.LBE84:
  23                             	.LBE83:
  24                             	.LBE82:
  45:C:\Users\a5116938\Desktop\e2_studio_workspace\EEMBC_final\RX65N_Cloud_Kit\src/tensorflow/lite/core/api\op_resolver.h ****   }
  25                             		.loc 1 45 3
  26 0007 EF F1                   		mov.L	r15, r1
  27                             	.LVL1:
  28                             	.LBB89:
  29                             	.LBB88:
  30                             	.LBB87:
  31                             	.LBB86:
  32                             		.loc 2 96 65
  33 0009 F9 F6 02 00             		mov.L	#0, 8[r15]
  34                             	.LVL2:
  35                             	.LBE86:
  36                             	.LBE87:
  37                             	.LBE88:
  38                             	.LBE89:
  39                             		.loc 1 45 3
  40 000d 02                      		rts
  41                             	.LFE6450:
  43                             		.section	.text._ZNK6tflite22MicroMutableOpResolverILj128EE6FindOpENS_15BuiltinOperatorE,"axG",@pro
  44                             		.weak	__ZNK6tflite22MicroMutableOpResolverILj128EE6FindOpENS_15BuiltinOperatorE
  46                             	__ZNK6tflite22MicroMutableOpResolverILj128EE6FindOpENS_15BuiltinOperatorE:
  47                             	.LFB9781:
  48                             		.file 3 "C:\\Users\\a5116938\\Desktop\\e2_studio_workspace\\EEMBC_final\\RX65N_Cloud_Kit\\src/tens
   1:C:\Users\a5116938\Desktop\e2_studio_workspace\EEMBC_final\RX65N_Cloud_Kit\src/tensorflow/lite/micro\micro_mutable_op_resolver.h **** /* Copyright 2020 The TensorFlow Authors. All Rights Reserved.
   2:C:\Users\a5116938\Desktop\e2_studio_workspace\EEMBC_final\RX65N_Cloud_Kit\src/tensorflow/lite/micro\micro_mutable_op_resolver.h **** 
   3:C:\Users\a5116938\Desktop\e2_studio_workspace\EEMBC_final\RX65N_Cloud_Kit\src/tensorflow/lite/micro\micro_mutable_op_resolver.h **** Licensed under the Apache License, Version 2.0 (the "License");
   4:C:\Users\a5116938\Desktop\e2_studio_workspace\EEMBC_final\RX65N_Cloud_Kit\src/tensorflow/lite/micro\micro_mutable_op_resolver.h **** you may not use this file except in compliance with the License.
   5:C:\Users\a5116938\Desktop\e2_studio_workspace\EEMBC_final\RX65N_Cloud_Kit\src/tensorflow/lite/micro\micro_mutable_op_resolver.h **** You may obtain a copy of the License at
   6:C:\Users\a5116938\Desktop\e2_studio_workspace\EEMBC_final\RX65N_Cloud_Kit\src/tensorflow/lite/micro\micro_mutable_op_resolver.h **** 
   7:C:\Users\a5116938\Desktop\e2_studio_workspace\EEMBC_final\RX65N_Cloud_Kit\src/tensorflow/lite/micro\micro_mutable_op_resolver.h ****     http://www.apache.org/licenses/LICENSE-2.0
   8:C:\Users\a5116938\Desktop\e2_studio_workspace\EEMBC_final\RX65N_Cloud_Kit\src/tensorflow/lite/micro\micro_mutable_op_resolver.h **** 
   9:C:\Users\a5116938\Desktop\e2_studio_workspace\EEMBC_final\RX65N_Cloud_Kit\src/tensorflow/lite/micro\micro_mutable_op_resolver.h **** Unless required by applicable law or agreed to in writing, software
  10:C:\Users\a5116938\Desktop\e2_studio_workspace\EEMBC_final\RX65N_Cloud_Kit\src/tensorflow/lite/micro\micro_mutable_op_resolver.h **** distributed under the License is distributed on an "AS IS" BASIS,
  11:C:\Users\a5116938\Desktop\e2_studio_workspace\EEMBC_final\RX65N_Cloud_Kit\src/tensorflow/lite/micro\micro_mutable_op_resolver.h **** WITHOUT WARRANTIES OR CONDITIONS OF ANY KIND, either express or implied.
  12:C:\Users\a5116938\Desktop\e2_studio_workspace\EEMBC_final\RX65N_Cloud_Kit\src/tensorflow/lite/micro\micro_mutable_op_resolver.h **** See the License for the specific language governing permissions and
  13:C:\Users\a5116938\Desktop\e2_studio_workspace\EEMBC_final\RX65N_Cloud_Kit\src/tensorflow/lite/micro\micro_mutable_op_resolver.h **** limitations under the License.
  14:C:\Users\a5116938\Desktop\e2_studio_workspace\EEMBC_final\RX65N_Cloud_Kit\src/tensorflow/lite/micro\micro_mutable_op_resolver.h **** ==============================================================================*/
  15:C:\Users\a5116938\Desktop\e2_studio_workspace\EEMBC_final\RX65N_Cloud_Kit\src/tensorflow/lite/micro\micro_mutable_op_resolver.h **** #ifndef TENSORFLOW_LITE_MICRO_MICRO_MUTABLE_OP_RESOLVER_H_
  16:C:\Users\a5116938\Desktop\e2_studio_workspace\EEMBC_final\RX65N_Cloud_Kit\src/tensorflow/lite/micro\micro_mutable_op_resolver.h **** #define TENSORFLOW_LITE_MICRO_MICRO_MUTABLE_OP_RESOLVER_H_
  17:C:\Users\a5116938\Desktop\e2_studio_workspace\EEMBC_final\RX65N_Cloud_Kit\src/tensorflow/lite/micro\micro_mutable_op_resolver.h **** 
  18:C:\Users\a5116938\Desktop\e2_studio_workspace\EEMBC_final\RX65N_Cloud_Kit\src/tensorflow/lite/micro\micro_mutable_op_resolver.h **** #include <cstdio>
  19:C:\Users\a5116938\Desktop\e2_studio_workspace\EEMBC_final\RX65N_Cloud_Kit\src/tensorflow/lite/micro\micro_mutable_op_resolver.h **** #include <cstring>
  20:C:\Users\a5116938\Desktop\e2_studio_workspace\EEMBC_final\RX65N_Cloud_Kit\src/tensorflow/lite/micro\micro_mutable_op_resolver.h **** 
  21:C:\Users\a5116938\Desktop\e2_studio_workspace\EEMBC_final\RX65N_Cloud_Kit\src/tensorflow/lite/micro\micro_mutable_op_resolver.h **** #include "tensorflow/lite/c/common.h"
  22:C:\Users\a5116938\Desktop\e2_studio_workspace\EEMBC_final\RX65N_Cloud_Kit\src/tensorflow/lite/micro\micro_mutable_op_resolver.h **** #include "tensorflow/lite/core/api/error_reporter.h"
  23:C:\Users\a5116938\Desktop\e2_studio_workspace\EEMBC_final\RX65N_Cloud_Kit\src/tensorflow/lite/micro\micro_mutable_op_resolver.h **** #include "tensorflow/lite/core/api/flatbuffer_conversions.h"
  24:C:\Users\a5116938\Desktop\e2_studio_workspace\EEMBC_final\RX65N_Cloud_Kit\src/tensorflow/lite/micro\micro_mutable_op_resolver.h **** #include "tensorflow/lite/kernels/internal/compatibility.h"
  25:C:\Users\a5116938\Desktop\e2_studio_workspace\EEMBC_final\RX65N_Cloud_Kit\src/tensorflow/lite/micro\micro_mutable_op_resolver.h **** #include "tensorflow/lite/kernels/op_macros.h"
  26:C:\Users\a5116938\Desktop\e2_studio_workspace\EEMBC_final\RX65N_Cloud_Kit\src/tensorflow/lite/micro\micro_mutable_op_resolver.h **** #include "tensorflow/lite/micro/compatibility.h"
  27:C:\Users\a5116938\Desktop\e2_studio_workspace\EEMBC_final\RX65N_Cloud_Kit\src/tensorflow/lite/micro\micro_mutable_op_resolver.h **** #include "tensorflow/lite/micro/kernels/fully_connected.h"
  28:C:\Users\a5116938\Desktop\e2_studio_workspace\EEMBC_final\RX65N_Cloud_Kit\src/tensorflow/lite/micro\micro_mutable_op_resolver.h **** #include "tensorflow/lite/micro/kernels/micro_ops.h"
  29:C:\Users\a5116938\Desktop\e2_studio_workspace\EEMBC_final\RX65N_Cloud_Kit\src/tensorflow/lite/micro\micro_mutable_op_resolver.h **** #include "tensorflow/lite/micro/micro_op_resolver.h"
  30:C:\Users\a5116938\Desktop\e2_studio_workspace\EEMBC_final\RX65N_Cloud_Kit\src/tensorflow/lite/micro\micro_mutable_op_resolver.h **** #include "tensorflow/lite/schema/schema_generated.h"
  31:C:\Users\a5116938\Desktop\e2_studio_workspace\EEMBC_final\RX65N_Cloud_Kit\src/tensorflow/lite/micro\micro_mutable_op_resolver.h **** 
  32:C:\Users\a5116938\Desktop\e2_studio_workspace\EEMBC_final\RX65N_Cloud_Kit\src/tensorflow/lite/micro\micro_mutable_op_resolver.h **** namespace tflite {
  33:C:\Users\a5116938\Desktop\e2_studio_workspace\EEMBC_final\RX65N_Cloud_Kit\src/tensorflow/lite/micro\micro_mutable_op_resolver.h **** 
  34:C:\Users\a5116938\Desktop\e2_studio_workspace\EEMBC_final\RX65N_Cloud_Kit\src/tensorflow/lite/micro\micro_mutable_op_resolver.h **** template <unsigned int tOpCount>
  35:C:\Users\a5116938\Desktop\e2_studio_workspace\EEMBC_final\RX65N_Cloud_Kit\src/tensorflow/lite/micro\micro_mutable_op_resolver.h **** class MicroMutableOpResolver : public MicroOpResolver {
  36:C:\Users\a5116938\Desktop\e2_studio_workspace\EEMBC_final\RX65N_Cloud_Kit\src/tensorflow/lite/micro\micro_mutable_op_resolver.h ****  public:
  37:C:\Users\a5116938\Desktop\e2_studio_workspace\EEMBC_final\RX65N_Cloud_Kit\src/tensorflow/lite/micro\micro_mutable_op_resolver.h ****   explicit MicroMutableOpResolver(ErrorReporter* error_reporter = nullptr)
  38:C:\Users\a5116938\Desktop\e2_studio_workspace\EEMBC_final\RX65N_Cloud_Kit\src/tensorflow/lite/micro\micro_mutable_op_resolver.h ****       : error_reporter_(error_reporter) {}
  39:C:\Users\a5116938\Desktop\e2_studio_workspace\EEMBC_final\RX65N_Cloud_Kit\src/tensorflow/lite/micro\micro_mutable_op_resolver.h **** 
  40:C:\Users\a5116938\Desktop\e2_studio_workspace\EEMBC_final\RX65N_Cloud_Kit\src/tensorflow/lite/micro\micro_mutable_op_resolver.h ****   const TfLiteRegistration* FindOp(tflite::BuiltinOperator op) const override {
  49                             		.loc 3 40 29 is_stmt 1
  50                             	.LVL3:
  41:C:\Users\a5116938\Desktop\e2_studio_workspace\EEMBC_final\RX65N_Cloud_Kit\src/tensorflow/lite/micro\micro_mutable_op_resolver.h ****     if (op == BuiltinOperator_CUSTOM) return nullptr;
  51                             		.loc 3 41 5 is_stmt 0
  52 0000 75 52 20                		cmp	#32, r2
  53 0003 20 28                   		beq	.L9
  54                             	.LVL4:
  55                             	.LBB92:
  42:C:\Users\a5116938\Desktop\e2_studio_workspace\EEMBC_final\RX65N_Cloud_Kit\src/tensorflow/lite/micro\micro_mutable_op_resolver.h **** 
  43:C:\Users\a5116938\Desktop\e2_studio_workspace\EEMBC_final\RX65N_Cloud_Kit\src/tensorflow/lite/micro\micro_mutable_op_resolver.h ****     for (unsigned int i = 0; i < registrations_len_; ++i) {
  56                             		.loc 3 43 34
  57 0005 EE 1E 01 04             		mov.L	4100[r1], r14
  58                             		.loc 3 43 32
  59 0009 61 0E                   		cmp	#0, r14
  60 000b 20 20                   		beq	.L9
  61                             	.LVL5:
  62                             	.LBB93:
  44:C:\Users\a5116938\Desktop\e2_studio_workspace\EEMBC_final\RX65N_Cloud_Kit\src/tensorflow/lite/micro\micro_mutable_op_resolver.h ****       const TfLiteRegistration& registration = registrations_[i];
  45:C:\Users\a5116938\Desktop\e2_studio_workspace\EEMBC_final\RX65N_Cloud_Kit\src/tensorflow/lite/micro\micro_mutable_op_resolver.h ****       if (registration.builtin_code == op) {
  63                             		.loc 3 45 7
  64 000d A9 95                   		mov.L	24[r1], r5
  65 000f 47 25                   		cmp	r2, r5
  66 0011 20 24                   		beq	.L11
  67 0013 71 14 38                		add	#56, r1, r4
  68                             	.LBE93:
  43:C:\Users\a5116938\Desktop\e2_studio_workspace\EEMBC_final\RX65N_Cloud_Kit\src/tensorflow/lite/micro\micro_mutable_op_resolver.h ****       const TfLiteRegistration& registration = registrations_[i];
  69                             		.loc 3 43 23
  70 0016 66 05                   		mov.L	#0, r5
  71 0018 0A                      		bra	.L6
  72                             	.LVL6:
  73                             	.L7:
  74                             	.LBB94:
  75                             		.loc 3 45 24
  76 0019 71 43 E0                		add	#-32, r4, r3
  77                             		.loc 3 45 7
  78 001c EC 33                   		mov.L	[r3], r3
  79 001e 47 23                   		cmp	r2, r3
  80 0020 20 0E                   		beq	.L12
  81                             	.LVL7:
  82                             		.balign 8,3,2
  83                             	.L6:
  84 0022 71 44 20                		add	#32, r4
  85                             	.LBE94:
  43:C:\Users\a5116938\Desktop\e2_studio_workspace\EEMBC_final\RX65N_Cloud_Kit\src/tensorflow/lite/micro\micro_mutable_op_resolver.h ****       const TfLiteRegistration& registration = registrations_[i];
  86                             		.loc 3 43 5 discriminator 2
  87 0025 62 15                   		add	#1, r5
  88                             	.LVL8:
  43:C:\Users\a5116938\Desktop\e2_studio_workspace\EEMBC_final\RX65N_Cloud_Kit\src/tensorflow/lite/micro\micro_mutable_op_resolver.h ****       const TfLiteRegistration& registration = registrations_[i];
  89                             		.loc 3 43 32 discriminator 2
  90 0027 47 E5                   		cmp	r14, r5
  91 0029 21 F0                   		bne	.L7
  92                             	.LVL9:
  93                             		.balign 8,3,1
  94                             	.L9:
  95                             	.LBE92:
  41:C:\Users\a5116938\Desktop\e2_studio_workspace\EEMBC_final\RX65N_Cloud_Kit\src/tensorflow/lite/micro\micro_mutable_op_resolver.h **** 
  96                             		.loc 3 41 46
  97 002b 66 01                   		mov.L	#0, r1
  98                             	.LVL10:
  46:C:\Users\a5116938\Desktop\e2_studio_workspace\EEMBC_final\RX65N_Cloud_Kit\src/tensorflow/lite/micro\micro_mutable_op_resolver.h ****         return &registration;
  47:C:\Users\a5116938\Desktop\e2_studio_workspace\EEMBC_final\RX65N_Cloud_Kit\src/tensorflow/lite/micro\micro_mutable_op_resolver.h ****       }
  48:C:\Users\a5116938\Desktop\e2_studio_workspace\EEMBC_final\RX65N_Cloud_Kit\src/tensorflow/lite/micro\micro_mutable_op_resolver.h ****     }
  49:C:\Users\a5116938\Desktop\e2_studio_workspace\EEMBC_final\RX65N_Cloud_Kit\src/tensorflow/lite/micro\micro_mutable_op_resolver.h ****     return nullptr;
  50:C:\Users\a5116938\Desktop\e2_studio_workspace\EEMBC_final\RX65N_Cloud_Kit\src/tensorflow/lite/micro\micro_mutable_op_resolver.h ****   }
  99                             		.loc 3 50 3
 100 002d 02                      		rts
 101                             	.LVL11:
 102                             	.L12:
 103                             	.LBB96:
 104                             	.LBB95:
  44:C:\Users\a5116938\Desktop\e2_studio_workspace\EEMBC_final\RX65N_Cloud_Kit\src/tensorflow/lite/micro\micro_mutable_op_resolver.h ****       if (registration.builtin_code == op) {
 105                             		.loc 3 44 33
 106 002e 6C 55                   		shll	#5, r5
 107                             	.LVL12:
 108 0030 62 45                   		add	#4, r5
 109 0032 4B 51                   		add	r5, r1
 110                             	.LVL13:
 111 0034 02                      		rts
 112                             	.LVL14:
 113                             	.L11:
 114 0035 62 41                   		add	#4, r1
 115                             	.LVL15:
 116 0037 02                      		rts
 117                             	.LBE95:
 118                             	.LBE96:
 119                             	.LFE9781:
 121                             		.section	.text._ZN6tflite14AllOpsResolverD2Ev,"axG",@progbits,_ZN6tflite14AllOpsResolverD5Ev,comda
 122                             		.weak	__ZN6tflite14AllOpsResolverD2Ev
 124                             	__ZN6tflite14AllOpsResolverD2Ev:
 125                             	.LFB11212:
 126                             		.file 4 "C:\\Users\\a5116938\\Desktop\\e2_studio_workspace\\EEMBC_final\\RX65N_Cloud_Kit\\src/tens
   1:C:\Users\a5116938\Desktop\e2_studio_workspace\EEMBC_final\RX65N_Cloud_Kit\src/tensorflow/lite/micro\all_ops_resolver.h **** /* Copyright 2018 The TensorFlow Authors. All Rights Reserved.
   2:C:\Users\a5116938\Desktop\e2_studio_workspace\EEMBC_final\RX65N_Cloud_Kit\src/tensorflow/lite/micro\all_ops_resolver.h **** Licensed under the Apache License, Version 2.0 (the "License");
   3:C:\Users\a5116938\Desktop\e2_studio_workspace\EEMBC_final\RX65N_Cloud_Kit\src/tensorflow/lite/micro\all_ops_resolver.h **** you may not use this file except in compliance with the License.
   4:C:\Users\a5116938\Desktop\e2_studio_workspace\EEMBC_final\RX65N_Cloud_Kit\src/tensorflow/lite/micro\all_ops_resolver.h **** You may obtain a copy of the License at
   5:C:\Users\a5116938\Desktop\e2_studio_workspace\EEMBC_final\RX65N_Cloud_Kit\src/tensorflow/lite/micro\all_ops_resolver.h ****     http://www.apache.org/licenses/LICENSE-2.0
   6:C:\Users\a5116938\Desktop\e2_studio_workspace\EEMBC_final\RX65N_Cloud_Kit\src/tensorflow/lite/micro\all_ops_resolver.h **** Unless required by applicable law or agreed to in writing, software
   7:C:\Users\a5116938\Desktop\e2_studio_workspace\EEMBC_final\RX65N_Cloud_Kit\src/tensorflow/lite/micro\all_ops_resolver.h **** distributed under the License is distributed on an "AS IS" BASIS,
   8:C:\Users\a5116938\Desktop\e2_studio_workspace\EEMBC_final\RX65N_Cloud_Kit\src/tensorflow/lite/micro\all_ops_resolver.h **** WITHOUT WARRANTIES OR CONDITIONS OF ANY KIND, either express or implied.
   9:C:\Users\a5116938\Desktop\e2_studio_workspace\EEMBC_final\RX65N_Cloud_Kit\src/tensorflow/lite/micro\all_ops_resolver.h **** See the License for the specific language governing permissions and
  10:C:\Users\a5116938\Desktop\e2_studio_workspace\EEMBC_final\RX65N_Cloud_Kit\src/tensorflow/lite/micro\all_ops_resolver.h **** limitations under the License.
  11:C:\Users\a5116938\Desktop\e2_studio_workspace\EEMBC_final\RX65N_Cloud_Kit\src/tensorflow/lite/micro\all_ops_resolver.h **** ==============================================================================*/
  12:C:\Users\a5116938\Desktop\e2_studio_workspace\EEMBC_final\RX65N_Cloud_Kit\src/tensorflow/lite/micro\all_ops_resolver.h **** #ifndef TENSORFLOW_LITE_MICRO_ALL_OPS_RESOLVER_H_
  13:C:\Users\a5116938\Desktop\e2_studio_workspace\EEMBC_final\RX65N_Cloud_Kit\src/tensorflow/lite/micro\all_ops_resolver.h **** #define TENSORFLOW_LITE_MICRO_ALL_OPS_RESOLVER_H_
  14:C:\Users\a5116938\Desktop\e2_studio_workspace\EEMBC_final\RX65N_Cloud_Kit\src/tensorflow/lite/micro\all_ops_resolver.h **** 
  15:C:\Users\a5116938\Desktop\e2_studio_workspace\EEMBC_final\RX65N_Cloud_Kit\src/tensorflow/lite/micro\all_ops_resolver.h **** #include "tensorflow/lite/micro/compatibility.h"
  16:C:\Users\a5116938\Desktop\e2_studio_workspace\EEMBC_final\RX65N_Cloud_Kit\src/tensorflow/lite/micro\all_ops_resolver.h **** #include "tensorflow/lite/micro/micro_mutable_op_resolver.h"
  17:C:\Users\a5116938\Desktop\e2_studio_workspace\EEMBC_final\RX65N_Cloud_Kit\src/tensorflow/lite/micro\all_ops_resolver.h **** 
  18:C:\Users\a5116938\Desktop\e2_studio_workspace\EEMBC_final\RX65N_Cloud_Kit\src/tensorflow/lite/micro\all_ops_resolver.h **** namespace tflite {
  19:C:\Users\a5116938\Desktop\e2_studio_workspace\EEMBC_final\RX65N_Cloud_Kit\src/tensorflow/lite/micro\all_ops_resolver.h **** 
  20:C:\Users\a5116938\Desktop\e2_studio_workspace\EEMBC_final\RX65N_Cloud_Kit\src/tensorflow/lite/micro\all_ops_resolver.h **** // The magic number in the template parameter is the maximum number of ops that
  21:C:\Users\a5116938\Desktop\e2_studio_workspace\EEMBC_final\RX65N_Cloud_Kit\src/tensorflow/lite/micro\all_ops_resolver.h **** // can be added to AllOpsResolver. It can be increased if needed. And most
  22:C:\Users\a5116938\Desktop\e2_studio_workspace\EEMBC_final\RX65N_Cloud_Kit\src/tensorflow/lite/micro\all_ops_resolver.h **** // applications that care about the memory footprint will want to directly use
  23:C:\Users\a5116938\Desktop\e2_studio_workspace\EEMBC_final\RX65N_Cloud_Kit\src/tensorflow/lite/micro\all_ops_resolver.h **** // MicroMutableOpResolver and have an application specific template parameter.
  24:C:\Users\a5116938\Desktop\e2_studio_workspace\EEMBC_final\RX65N_Cloud_Kit\src/tensorflow/lite/micro\all_ops_resolver.h **** // The examples directory has sample code for this.
  25:C:\Users\a5116938\Desktop\e2_studio_workspace\EEMBC_final\RX65N_Cloud_Kit\src/tensorflow/lite/micro\all_ops_resolver.h **** class AllOpsResolver : public MicroMutableOpResolver<128> {
 127                             		.loc 4 25 7 is_stmt 1
 128                             	.LVL16:
 129                             		.loc 4 25 7 is_stmt 0
 130 0000 02                      		rts
 131                             	.LFE11212:
 133                             		.weak	__ZN6tflite14AllOpsResolverD1Ev
 134                             		.set	__ZN6tflite14AllOpsResolverD1Ev,__ZN6tflite14AllOpsResolverD2Ev
 135                             		.section	.text._ZNK6tflite22MicroMutableOpResolverILj128EE15GetOpDataParserENS_15BuiltinOperatorE,
 136                             		.weak	__ZNK6tflite22MicroMutableOpResolverILj128EE15GetOpDataParserENS_15BuiltinOperatorE
 138                             	__ZNK6tflite22MicroMutableOpResolverILj128EE15GetOpDataParserENS_15BuiltinOperatorE:
 139                             	.LFB11219:
  51:C:\Users\a5116938\Desktop\e2_studio_workspace\EEMBC_final\RX65N_Cloud_Kit\src/tensorflow/lite/micro\micro_mutable_op_resolver.h **** 
  52:C:\Users\a5116938\Desktop\e2_studio_workspace\EEMBC_final\RX65N_Cloud_Kit\src/tensorflow/lite/micro\micro_mutable_op_resolver.h ****   const TfLiteRegistration* FindOp(const char* op) const override {
  53:C:\Users\a5116938\Desktop\e2_studio_workspace\EEMBC_final\RX65N_Cloud_Kit\src/tensorflow/lite/micro\micro_mutable_op_resolver.h ****     for (unsigned int i = 0; i < registrations_len_; ++i) {
  54:C:\Users\a5116938\Desktop\e2_studio_workspace\EEMBC_final\RX65N_Cloud_Kit\src/tensorflow/lite/micro\micro_mutable_op_resolver.h ****       const TfLiteRegistration& registration = registrations_[i];
  55:C:\Users\a5116938\Desktop\e2_studio_workspace\EEMBC_final\RX65N_Cloud_Kit\src/tensorflow/lite/micro\micro_mutable_op_resolver.h ****       if ((registration.builtin_code == BuiltinOperator_CUSTOM) &&
  56:C:\Users\a5116938\Desktop\e2_studio_workspace\EEMBC_final\RX65N_Cloud_Kit\src/tensorflow/lite/micro\micro_mutable_op_resolver.h ****           (strcmp(registration.custom_name, op) == 0)) {
  57:C:\Users\a5116938\Desktop\e2_studio_workspace\EEMBC_final\RX65N_Cloud_Kit\src/tensorflow/lite/micro\micro_mutable_op_resolver.h ****         return &registration;
  58:C:\Users\a5116938\Desktop\e2_studio_workspace\EEMBC_final\RX65N_Cloud_Kit\src/tensorflow/lite/micro\micro_mutable_op_resolver.h ****       }
  59:C:\Users\a5116938\Desktop\e2_studio_workspace\EEMBC_final\RX65N_Cloud_Kit\src/tensorflow/lite/micro\micro_mutable_op_resolver.h ****     }
  60:C:\Users\a5116938\Desktop\e2_studio_workspace\EEMBC_final\RX65N_Cloud_Kit\src/tensorflow/lite/micro\micro_mutable_op_resolver.h ****     return nullptr;
  61:C:\Users\a5116938\Desktop\e2_studio_workspace\EEMBC_final\RX65N_Cloud_Kit\src/tensorflow/lite/micro\micro_mutable_op_resolver.h ****   }
  62:C:\Users\a5116938\Desktop\e2_studio_workspace\EEMBC_final\RX65N_Cloud_Kit\src/tensorflow/lite/micro\micro_mutable_op_resolver.h **** 
  63:C:\Users\a5116938\Desktop\e2_studio_workspace\EEMBC_final\RX65N_Cloud_Kit\src/tensorflow/lite/micro\micro_mutable_op_resolver.h ****   MicroOpResolver::BuiltinParseFunction GetOpDataParser(
 140                             		.loc 3 63 41 is_stmt 1
 141                             	.LVL17:
  64:C:\Users\a5116938\Desktop\e2_studio_workspace\EEMBC_final\RX65N_Cloud_Kit\src/tensorflow/lite/micro\micro_mutable_op_resolver.h ****       BuiltinOperator op) const override {
  65:C:\Users\a5116938\Desktop\e2_studio_workspace\EEMBC_final\RX65N_Cloud_Kit\src/tensorflow/lite/micro\micro_mutable_op_resolver.h ****     TFLITE_DCHECK(num_buitin_ops_ <= tOpCount);
 142                             		.loc 3 65 5 is_stmt 0
 143 0000 EE 13 02 05             		mov.L	5128[r1], r3
 144 0004 75 53 80                		cmp	#0x80, r3
 145 0007 24 2C                   		bgtu	.L23
 146                             	.LVL18:
 147                             	.LBB97:
  66:C:\Users\a5116938\Desktop\e2_studio_workspace\EEMBC_final\RX65N_Cloud_Kit\src/tensorflow/lite/micro\micro_mutable_op_resolver.h ****     for (unsigned int i = 0; i < num_buitin_ops_; ++i) {
 148                             		.loc 3 66 32
 149 0009 61 03                   		cmp	#0, r3
 150 000b 20 1D                   		beq	.L20
 151                             		.loc 3 66 23
 152 000d 66 05                   		mov.L	#0, r5
  67:C:\Users\a5116938\Desktop\e2_studio_workspace\EEMBC_final\RX65N_Cloud_Kit\src/tensorflow/lite/micro\micro_mutable_op_resolver.h ****       if (builtin_codes_[i] == op) return builtin_parsers_[i];
 153                             		.loc 3 67 7
 154 000f 06 86 12 02 04          		cmp	4104[r1].L, r2
 155 0014 20 17                   		beq	.L17
 156                             		.loc 3 67 25
 157 0016 72 1E 08 10             		add	#0x1008, r1, r14
 158 001a 08                      		bra	.L18
 159                             	.LVL19:
 160                             	.L19:
 161                             		.loc 3 67 7
 162 001b FE 65 E4                		mov.L	[r5,r14], r4
 163 001e 47 24                   		cmp	r2, r4
 164 0020 20 0B                   		beq	.L17
 165                             	.LVL20:
 166                             		.balign 8,3,1
 167                             	.L18:
  66:C:\Users\a5116938\Desktop\e2_studio_workspace\EEMBC_final\RX65N_Cloud_Kit\src/tensorflow/lite/micro\micro_mutable_op_resolver.h ****     for (unsigned int i = 0; i < num_buitin_ops_; ++i) {
 168                             		.loc 3 66 5 discriminator 2
 169 0022 62 15                   		add	#1, r5
 170                             	.LVL21:
  66:C:\Users\a5116938\Desktop\e2_studio_workspace\EEMBC_final\RX65N_Cloud_Kit\src/tensorflow/lite/micro\micro_mutable_op_resolver.h ****     for (unsigned int i = 0; i < num_buitin_ops_; ++i) {
 171                             		.loc 3 66 32 discriminator 2
 172 0024 47 53                   		cmp	r5, r3
 173 0026 21 F5                   		bne	.L19
 174                             	.LVL22:
 175                             		.balign 8,3,1
 176                             	.L20:
 177                             	.LBE97:
  68:C:\Users\a5116938\Desktop\e2_studio_workspace\EEMBC_final\RX65N_Cloud_Kit\src/tensorflow/lite/micro\micro_mutable_op_resolver.h ****     }
  69:C:\Users\a5116938\Desktop\e2_studio_workspace\EEMBC_final\RX65N_Cloud_Kit\src/tensorflow/lite/micro\micro_mutable_op_resolver.h ****     return nullptr;
 178                             		.loc 3 69 12
 179 0028 66 01                   		mov.L	#0, r1
 180                             	.LVL23:
  70:C:\Users\a5116938\Desktop\e2_studio_workspace\EEMBC_final\RX65N_Cloud_Kit\src/tensorflow/lite/micro\micro_mutable_op_resolver.h ****   }
 181                             		.loc 3 70 3
 182 002a 02                      		rts
 183                             	.LVL24:
 184                             	.L17:
 185                             	.LBB98:
  67:C:\Users\a5116938\Desktop\e2_studio_workspace\EEMBC_final\RX65N_Cloud_Kit\src/tensorflow/lite/micro\micro_mutable_op_resolver.h ****       if (builtin_codes_[i] == op) return builtin_parsers_[i];
 186                             		.loc 3 67 61 discriminator 1
 187 002b 72 55 82 04             		add	#0x482, r5
 188 002f FE 65 11                		mov.L	[r5,r1], r1
 189                             	.LVL25:
 190 0032 02                      		rts
 191                             	.LVL26:
 192                             	.L23:
 193                             	.LBE98:
  65:C:\Users\a5116938\Desktop\e2_studio_workspace\EEMBC_final\RX65N_Cloud_Kit\src/tensorflow/lite/micro\micro_mutable_op_resolver.h ****     for (unsigned int i = 0; i < num_buitin_ops_; ++i) {
 194                             		.loc 3 65 5 discriminator 1
 195 0033 05 00 00 00             		bsr	_abort
 196                             	.LVL27:
 197                             	.LFE11219:
 199 0037 03                      		.section	.text._ZNK6tflite22MicroMutableOpResolverILj128EE6FindOpEPKc,"axG",@progbits,_ZNK6tflite2
 200                             		.weak	__ZNK6tflite22MicroMutableOpResolverILj128EE6FindOpEPKc
 202                             	__ZNK6tflite22MicroMutableOpResolverILj128EE6FindOpEPKc:
 203                             	.LFB8936:
  52:C:\Users\a5116938\Desktop\e2_studio_workspace\EEMBC_final\RX65N_Cloud_Kit\src/tensorflow/lite/micro\micro_mutable_op_resolver.h ****     for (unsigned int i = 0; i < registrations_len_; ++i) {
 204                             		.loc 3 52 29 is_stmt 1
 205                             	.LVL28:
 206                             	.LBB101:
  53:C:\Users\a5116938\Desktop\e2_studio_workspace\EEMBC_final\RX65N_Cloud_Kit\src/tensorflow/lite/micro\micro_mutable_op_resolver.h ****       const TfLiteRegistration& registration = registrations_[i];
 207                             		.loc 3 53 34 is_stmt 0
 208 0000 EE 1E 01 04             		mov.L	4100[r1], r14
  53:C:\Users\a5116938\Desktop\e2_studio_workspace\EEMBC_final\RX65N_Cloud_Kit\src/tensorflow/lite/micro\micro_mutable_op_resolver.h ****       const TfLiteRegistration& registration = registrations_[i];
 209                             		.loc 3 53 32
 210 0004 61 0E                   		cmp	#0, r14
 211 0006 20 47                   		beq	.L28
 212                             	.LBE101:
  52:C:\Users\a5116938\Desktop\e2_studio_workspace\EEMBC_final\RX65N_Cloud_Kit\src/tensorflow/lite/micro\micro_mutable_op_resolver.h ****     for (unsigned int i = 0; i < registrations_len_; ++i) {
 213                             		.loc 3 52 29
 214 0008 6E 6A                   		pushm	r6-r10
 215                             	.LCFI0:
 216 000a EF 16                   		mov.L	r1, r6
 217 000c EF 27                   		mov.L	r2, r7
 218 000e 71 15 18                		add	#24, r1, r5
 219                             	.LBB104:
  53:C:\Users\a5116938\Desktop\e2_studio_workspace\EEMBC_final\RX65N_Cloud_Kit\src/tensorflow/lite/micro\micro_mutable_op_resolver.h ****       const TfLiteRegistration& registration = registrations_[i];
 220                             		.loc 3 53 23
 221 0011 66 04                   		mov.L	#0, r4
 222                             	.LBB102:
  56:C:\Users\a5116938\Desktop\e2_studio_workspace\EEMBC_final\RX65N_Cloud_Kit\src/tensorflow/lite/micro\micro_mutable_op_resolver.h ****         return &registration;
 223                             		.loc 3 56 18
 224 0013 FB A6 FF                		mov.L	#-1, r10
 225 0016 0A                      		bra	.L27
 226                             	.LVL29:
 227                             	.L26:
 228                             	.LBE102:
  53:C:\Users\a5116938\Desktop\e2_studio_workspace\EEMBC_final\RX65N_Cloud_Kit\src/tensorflow/lite/micro\micro_mutable_op_resolver.h ****       const TfLiteRegistration& registration = registrations_[i];
 229                             		.loc 3 53 5 discriminator 2
 230 0017 62 14                   		add	#1, r4
 231                             	.LVL30:
 232 0019 71 55 20                		add	#32, r5
  53:C:\Users\a5116938\Desktop\e2_studio_workspace\EEMBC_final\RX65N_Cloud_Kit\src/tensorflow/lite/micro\micro_mutable_op_resolver.h ****       const TfLiteRegistration& registration = registrations_[i];
 233                             		.loc 3 53 32 discriminator 2
 234 001c 47 E4                   		cmp	r14, r4
 235 001e 20 2A                   		beq	.L34
 236                             	.LVL31:
 237                             		.balign 8,3,1
 238                             	.L27:
 239                             	.LBB103:
  55:C:\Users\a5116938\Desktop\e2_studio_workspace\EEMBC_final\RX65N_Cloud_Kit\src/tensorflow/lite/micro\micro_mutable_op_resolver.h ****           (strcmp(registration.custom_name, op) == 0)) {
 240                             		.loc 3 55 7
 241 0020 EC 53                   		mov.L	[r5], r3
 242 0022 75 53 20                		cmp	#32, r3
 243 0025 21 F2                   		bne	.L26
  56:C:\Users\a5116938\Desktop\e2_studio_workspace\EEMBC_final\RX65N_Cloud_Kit\src/tensorflow/lite/micro\micro_mutable_op_resolver.h ****         return &registration;
 244                             		.loc 3 56 18 discriminator 1
 245 0027 ED 5F 01                		mov.L	4[r5], r15
 246 002a EF 72                   		mov.L	r7, r2
 247 002c EF A3                   		mov.L	r10, r3
 248 002e EF F1                   		mov.L	r15, r1
 249 0030 7F 83                   		scmpu		; Perform the string comparison
 250 0032 FB F6 FF                	   mov     #-1, r15      ; Set up -1 result (which cannot be created
 251                             	                        ; by the SC insn)
 252 0035 23 05                   	   bnc	   ?+		; If Carry is not set skip over
 253 0037 FC DB F1                	   scne.L  r15		; Set result based on Z flag
 254                             	?:
 255                             	
  55:C:\Users\a5116938\Desktop\e2_studio_workspace\EEMBC_final\RX65N_Cloud_Kit\src/tensorflow/lite/micro\micro_mutable_op_resolver.h ****           (strcmp(registration.custom_name, op) == 0)) {
 256                             		.loc 3 55 65 discriminator 1
 257 003a 61 0F                   		cmp	#0, r15
 258 003c 21 DB                   		bne	.L26
  54:C:\Users\a5116938\Desktop\e2_studio_workspace\EEMBC_final\RX65N_Cloud_Kit\src/tensorflow/lite/micro\micro_mutable_op_resolver.h ****       if ((registration.builtin_code == BuiltinOperator_CUSTOM) &&
 259                             		.loc 3 54 33
 260 003e 6C 54                   		shll	#5, r4
 261                             	.LVL32:
 262 0040 62 44                   		add	#4, r4
 263                             	.LVL33:
 264 0042 FF 21 46                		add	r4, r6, r1
 265                             	.LBE103:
 266                             	.LBE104:
  61:C:\Users\a5116938\Desktop\e2_studio_workspace\EEMBC_final\RX65N_Cloud_Kit\src/tensorflow/lite/micro\micro_mutable_op_resolver.h **** 
 267                             		.loc 3 61 3
 268 0045 3F 6A 05                		rtsd	#20, r6-r10
 269                             	.LVL34:
 270                             	.L34:
  60:C:\Users\a5116938\Desktop\e2_studio_workspace\EEMBC_final\RX65N_Cloud_Kit\src/tensorflow/lite/micro\micro_mutable_op_resolver.h ****   }
 271                             		.loc 3 60 12
 272 0048 66 01                   		mov.L	#0, r1
  61:C:\Users\a5116938\Desktop\e2_studio_workspace\EEMBC_final\RX65N_Cloud_Kit\src/tensorflow/lite/micro\micro_mutable_op_resolver.h **** 
 273                             		.loc 3 61 3
 274 004a 3F 6A 05                		rtsd	#20, r6-r10
 275                             	.LVL35:
 276                             	.L28:
 277                             	.LCFI1:
  60:C:\Users\a5116938\Desktop\e2_studio_workspace\EEMBC_final\RX65N_Cloud_Kit\src/tensorflow/lite/micro\micro_mutable_op_resolver.h ****   }
 278                             		.loc 3 60 12
 279 004d 66 01                   		mov.L	#0, r1
 280                             	.LVL36:
  61:C:\Users\a5116938\Desktop\e2_studio_workspace\EEMBC_final\RX65N_Cloud_Kit\src/tensorflow/lite/micro\micro_mutable_op_resolver.h **** 
 281                             		.loc 3 61 3
 282 004f 02                      		rts
 283                             	.LFE8936:
 285                             		.section	.text._ZN6tflite14AllOpsResolverD0Ev,"axG",@progbits,_ZN6tflite14AllOpsResolverD5Ev,comda
 286                             		.weak	__ZN6tflite14AllOpsResolverD0Ev
 288                             	__ZN6tflite14AllOpsResolverD0Ev:
 289                             	.LFB11214:
 290                             		.loc 4 25 7 is_stmt 1
 291                             	.LVL37:
 292                             		.loc 4 25 7 is_stmt 0
 293 0000 FB 2A 10 14             		mov.L	#0x1410, r2
 294 0004 04 00 00 00             		bra	__ZdlPvm
 295                             	.LVL38:
 296                             	.LFE11214:
 298                             		.section	.text._ZNK6tflite15MicroOpResolver6FindOpENS_15BuiltinOperatorEi,"axG",@progbits,_ZNK6tfl
 299                             		.weak	__ZNK6tflite15MicroOpResolver6FindOpENS_15BuiltinOperatorEi
 301                             	__ZNK6tflite15MicroOpResolver6FindOpENS_15BuiltinOperatorEi:
 302                             	.LFB6455:
 303                             		.file 5 "C:\\Users\\a5116938\\Desktop\\e2_studio_workspace\\EEMBC_final\\RX65N_Cloud_Kit\\src/tens
   1:C:\Users\a5116938\Desktop\e2_studio_workspace\EEMBC_final\RX65N_Cloud_Kit\src/tensorflow/lite/micro\micro_op_resolver.h **** /* Copyright 2020 The TensorFlow Authors. All Rights Reserved.
   2:C:\Users\a5116938\Desktop\e2_studio_workspace\EEMBC_final\RX65N_Cloud_Kit\src/tensorflow/lite/micro\micro_op_resolver.h **** 
   3:C:\Users\a5116938\Desktop\e2_studio_workspace\EEMBC_final\RX65N_Cloud_Kit\src/tensorflow/lite/micro\micro_op_resolver.h **** Licensed under the Apache License, Version 2.0 (the "License");
   4:C:\Users\a5116938\Desktop\e2_studio_workspace\EEMBC_final\RX65N_Cloud_Kit\src/tensorflow/lite/micro\micro_op_resolver.h **** you may not use this file except in compliance with the License.
   5:C:\Users\a5116938\Desktop\e2_studio_workspace\EEMBC_final\RX65N_Cloud_Kit\src/tensorflow/lite/micro\micro_op_resolver.h **** You may obtain a copy of the License at
   6:C:\Users\a5116938\Desktop\e2_studio_workspace\EEMBC_final\RX65N_Cloud_Kit\src/tensorflow/lite/micro\micro_op_resolver.h **** 
   7:C:\Users\a5116938\Desktop\e2_studio_workspace\EEMBC_final\RX65N_Cloud_Kit\src/tensorflow/lite/micro\micro_op_resolver.h ****     http://www.apache.org/licenses/LICENSE-2.0
   8:C:\Users\a5116938\Desktop\e2_studio_workspace\EEMBC_final\RX65N_Cloud_Kit\src/tensorflow/lite/micro\micro_op_resolver.h **** 
   9:C:\Users\a5116938\Desktop\e2_studio_workspace\EEMBC_final\RX65N_Cloud_Kit\src/tensorflow/lite/micro\micro_op_resolver.h **** Unless required by applicable law or agreed to in writing, software
  10:C:\Users\a5116938\Desktop\e2_studio_workspace\EEMBC_final\RX65N_Cloud_Kit\src/tensorflow/lite/micro\micro_op_resolver.h **** distributed under the License is distributed on an "AS IS" BASIS,
  11:C:\Users\a5116938\Desktop\e2_studio_workspace\EEMBC_final\RX65N_Cloud_Kit\src/tensorflow/lite/micro\micro_op_resolver.h **** WITHOUT WARRANTIES OR CONDITIONS OF ANY KIND, either express or implied.
  12:C:\Users\a5116938\Desktop\e2_studio_workspace\EEMBC_final\RX65N_Cloud_Kit\src/tensorflow/lite/micro\micro_op_resolver.h **** See the License for the specific language governing permissions and
  13:C:\Users\a5116938\Desktop\e2_studio_workspace\EEMBC_final\RX65N_Cloud_Kit\src/tensorflow/lite/micro\micro_op_resolver.h **** limitations under the License.
  14:C:\Users\a5116938\Desktop\e2_studio_workspace\EEMBC_final\RX65N_Cloud_Kit\src/tensorflow/lite/micro\micro_op_resolver.h **** ==============================================================================*/
  15:C:\Users\a5116938\Desktop\e2_studio_workspace\EEMBC_final\RX65N_Cloud_Kit\src/tensorflow/lite/micro\micro_op_resolver.h **** #ifndef TENSORFLOW_LITE_MICRO_MICRO_OP_RESOLVER_H_
  16:C:\Users\a5116938\Desktop\e2_studio_workspace\EEMBC_final\RX65N_Cloud_Kit\src/tensorflow/lite/micro\micro_op_resolver.h **** #define TENSORFLOW_LITE_MICRO_MICRO_OP_RESOLVER_H_
  17:C:\Users\a5116938\Desktop\e2_studio_workspace\EEMBC_final\RX65N_Cloud_Kit\src/tensorflow/lite/micro\micro_op_resolver.h **** 
  18:C:\Users\a5116938\Desktop\e2_studio_workspace\EEMBC_final\RX65N_Cloud_Kit\src/tensorflow/lite/micro\micro_op_resolver.h **** #include "tensorflow/lite/c/common.h"
  19:C:\Users\a5116938\Desktop\e2_studio_workspace\EEMBC_final\RX65N_Cloud_Kit\src/tensorflow/lite/micro\micro_op_resolver.h **** #include "tensorflow/lite/core/api/error_reporter.h"
  20:C:\Users\a5116938\Desktop\e2_studio_workspace\EEMBC_final\RX65N_Cloud_Kit\src/tensorflow/lite/micro\micro_op_resolver.h **** #include "tensorflow/lite/core/api/flatbuffer_conversions.h"
  21:C:\Users\a5116938\Desktop\e2_studio_workspace\EEMBC_final\RX65N_Cloud_Kit\src/tensorflow/lite/micro\micro_op_resolver.h **** #include "tensorflow/lite/core/api/op_resolver.h"
  22:C:\Users\a5116938\Desktop\e2_studio_workspace\EEMBC_final\RX65N_Cloud_Kit\src/tensorflow/lite/micro\micro_op_resolver.h **** #include "tensorflow/lite/schema/schema_generated.h"
  23:C:\Users\a5116938\Desktop\e2_studio_workspace\EEMBC_final\RX65N_Cloud_Kit\src/tensorflow/lite/micro\micro_op_resolver.h **** 
  24:C:\Users\a5116938\Desktop\e2_studio_workspace\EEMBC_final\RX65N_Cloud_Kit\src/tensorflow/lite/micro\micro_op_resolver.h **** namespace tflite {
  25:C:\Users\a5116938\Desktop\e2_studio_workspace\EEMBC_final\RX65N_Cloud_Kit\src/tensorflow/lite/micro\micro_op_resolver.h **** 
  26:C:\Users\a5116938\Desktop\e2_studio_workspace\EEMBC_final\RX65N_Cloud_Kit\src/tensorflow/lite/micro\micro_op_resolver.h **** // This is an interface for the OpResolver for TFLiteMicro. The differences from
  27:C:\Users\a5116938\Desktop\e2_studio_workspace\EEMBC_final\RX65N_Cloud_Kit\src/tensorflow/lite/micro\micro_op_resolver.h **** // the TFLite OpResolver base class are to:
  28:C:\Users\a5116938\Desktop\e2_studio_workspace\EEMBC_final\RX65N_Cloud_Kit\src/tensorflow/lite/micro\micro_op_resolver.h **** //  * explicitly remove support for Op versions
  29:C:\Users\a5116938\Desktop\e2_studio_workspace\EEMBC_final\RX65N_Cloud_Kit\src/tensorflow/lite/micro\micro_op_resolver.h **** //  * allow for finer grained registration of the Builtin Ops to reduce code
  30:C:\Users\a5116938\Desktop\e2_studio_workspace\EEMBC_final\RX65N_Cloud_Kit\src/tensorflow/lite/micro\micro_op_resolver.h **** //    size for TFLiteMicro.
  31:C:\Users\a5116938\Desktop\e2_studio_workspace\EEMBC_final\RX65N_Cloud_Kit\src/tensorflow/lite/micro\micro_op_resolver.h **** //
  32:C:\Users\a5116938\Desktop\e2_studio_workspace\EEMBC_final\RX65N_Cloud_Kit\src/tensorflow/lite/micro\micro_op_resolver.h **** // We need an interface class instead of directly using MicroMutableOpResolver
  33:C:\Users\a5116938\Desktop\e2_studio_workspace\EEMBC_final\RX65N_Cloud_Kit\src/tensorflow/lite/micro\micro_op_resolver.h **** // because MicroMutableOpResolver is a class template with the number of
  34:C:\Users\a5116938\Desktop\e2_studio_workspace\EEMBC_final\RX65N_Cloud_Kit\src/tensorflow/lite/micro\micro_op_resolver.h **** // registered Ops as the template parameter.
  35:C:\Users\a5116938\Desktop\e2_studio_workspace\EEMBC_final\RX65N_Cloud_Kit\src/tensorflow/lite/micro\micro_op_resolver.h **** class MicroOpResolver : public OpResolver {
  36:C:\Users\a5116938\Desktop\e2_studio_workspace\EEMBC_final\RX65N_Cloud_Kit\src/tensorflow/lite/micro\micro_op_resolver.h ****  public:
  37:C:\Users\a5116938\Desktop\e2_studio_workspace\EEMBC_final\RX65N_Cloud_Kit\src/tensorflow/lite/micro\micro_op_resolver.h ****   typedef TfLiteStatus (*BuiltinParseFunction)(const Operator* op,
  38:C:\Users\a5116938\Desktop\e2_studio_workspace\EEMBC_final\RX65N_Cloud_Kit\src/tensorflow/lite/micro\micro_op_resolver.h ****                                                ErrorReporter* error_reporter,
  39:C:\Users\a5116938\Desktop\e2_studio_workspace\EEMBC_final\RX65N_Cloud_Kit\src/tensorflow/lite/micro\micro_op_resolver.h ****                                                BuiltinDataAllocator* allocator,
  40:C:\Users\a5116938\Desktop\e2_studio_workspace\EEMBC_final\RX65N_Cloud_Kit\src/tensorflow/lite/micro\micro_op_resolver.h ****                                                void** builtin_data);
  41:C:\Users\a5116938\Desktop\e2_studio_workspace\EEMBC_final\RX65N_Cloud_Kit\src/tensorflow/lite/micro\micro_op_resolver.h **** 
  42:C:\Users\a5116938\Desktop\e2_studio_workspace\EEMBC_final\RX65N_Cloud_Kit\src/tensorflow/lite/micro\micro_op_resolver.h ****   // Returns the Op registration struct corresponding to the enum code from the
  43:C:\Users\a5116938\Desktop\e2_studio_workspace\EEMBC_final\RX65N_Cloud_Kit\src/tensorflow/lite/micro\micro_op_resolver.h ****   // flatbuffer schema. Returns nullptr if the op is not found or if op ==
  44:C:\Users\a5116938\Desktop\e2_studio_workspace\EEMBC_final\RX65N_Cloud_Kit\src/tensorflow/lite/micro\micro_op_resolver.h ****   // BuiltinOperator_CUSTOM.
  45:C:\Users\a5116938\Desktop\e2_studio_workspace\EEMBC_final\RX65N_Cloud_Kit\src/tensorflow/lite/micro\micro_op_resolver.h ****   virtual const TfLiteRegistration* FindOp(BuiltinOperator op) const = 0;
  46:C:\Users\a5116938\Desktop\e2_studio_workspace\EEMBC_final\RX65N_Cloud_Kit\src/tensorflow/lite/micro\micro_op_resolver.h **** 
  47:C:\Users\a5116938\Desktop\e2_studio_workspace\EEMBC_final\RX65N_Cloud_Kit\src/tensorflow/lite/micro\micro_op_resolver.h ****   // Returns the Op registration struct corresponding to the custom operator by
  48:C:\Users\a5116938\Desktop\e2_studio_workspace\EEMBC_final\RX65N_Cloud_Kit\src/tensorflow/lite/micro\micro_op_resolver.h ****   // name.
  49:C:\Users\a5116938\Desktop\e2_studio_workspace\EEMBC_final\RX65N_Cloud_Kit\src/tensorflow/lite/micro\micro_op_resolver.h ****   virtual const TfLiteRegistration* FindOp(const char* op) const = 0;
  50:C:\Users\a5116938\Desktop\e2_studio_workspace\EEMBC_final\RX65N_Cloud_Kit\src/tensorflow/lite/micro\micro_op_resolver.h **** 
  51:C:\Users\a5116938\Desktop\e2_studio_workspace\EEMBC_final\RX65N_Cloud_Kit\src/tensorflow/lite/micro\micro_op_resolver.h ****   // This implementation exists for compatibility with the OpResolver base class
  52:C:\Users\a5116938\Desktop\e2_studio_workspace\EEMBC_final\RX65N_Cloud_Kit\src/tensorflow/lite/micro\micro_op_resolver.h ****   // and disregards the version parameter.
  53:C:\Users\a5116938\Desktop\e2_studio_workspace\EEMBC_final\RX65N_Cloud_Kit\src/tensorflow/lite/micro\micro_op_resolver.h ****   const TfLiteRegistration* FindOp(BuiltinOperator op,
 304                             		.loc 5 53 29 is_stmt 1
 305                             	.LVL39:
  54:C:\Users\a5116938\Desktop\e2_studio_workspace\EEMBC_final\RX65N_Cloud_Kit\src/tensorflow/lite/micro\micro_op_resolver.h ****                                    int version) const final {
  55:C:\Users\a5116938\Desktop\e2_studio_workspace\EEMBC_final\RX65N_Cloud_Kit\src/tensorflow/lite/micro\micro_op_resolver.h ****     return FindOp(op);
 306                             		.loc 5 55 5
  53:C:\Users\a5116938\Desktop\e2_studio_workspace\EEMBC_final\RX65N_Cloud_Kit\src/tensorflow/lite/micro\micro_op_resolver.h ****                                    int version) const final {
 307                             		.loc 5 53 29 is_stmt 0
 308 0000 EF 15                   		mov.L	r1, r5
 309 0002 EF 23                   		mov.L	r2, r3
 310                             	.LVL40:
 311                             		.loc 5 55 21
 312 0004 EC 14                   		mov.L	[r1], r4
 313 0006 A9 4C                   		mov.L	20[r4], r4
 314 0008 74 04 00 00 00 00       		cmp	#__ZNK6tflite22MicroMutableOpResolverILj128EE6FindOpENS_15BuiltinOperatorE, r4
 315 000e 21 36                   		bne	.L37
 316                             	.LVL41:
 317                             	.LBB109:
 318                             	.LBB110:
  41:C:\Users\a5116938\Desktop\e2_studio_workspace\EEMBC_final\RX65N_Cloud_Kit\src/tensorflow/lite/micro\micro_mutable_op_resolver.h **** 
 319                             		.loc 3 41 5
 320 0010 75 52 20                		cmp	#32, r2
 321 0013 20 27                   		beq	.L44
 322                             	.LVL42:
 323                             	.LBB111:
  43:C:\Users\a5116938\Desktop\e2_studio_workspace\EEMBC_final\RX65N_Cloud_Kit\src/tensorflow/lite/micro\micro_mutable_op_resolver.h ****       const TfLiteRegistration& registration = registrations_[i];
 324                             		.loc 3 43 34
 325 0015 EE 12 01 04             		mov.L	4100[r1], r2
 326                             	.LVL43:
  43:C:\Users\a5116938\Desktop\e2_studio_workspace\EEMBC_final\RX65N_Cloud_Kit\src/tensorflow/lite/micro\micro_mutable_op_resolver.h ****       const TfLiteRegistration& registration = registrations_[i];
 327                             		.loc 3 43 32
 328 0019 61 02                   		cmp	#0, r2
 329 001b 20 1F                   		beq	.L44
 330                             	.LVL44:
 331                             	.LBB112:
  45:C:\Users\a5116938\Desktop\e2_studio_workspace\EEMBC_final\RX65N_Cloud_Kit\src/tensorflow/lite/micro\micro_mutable_op_resolver.h ****         return &registration;
 332                             		.loc 3 45 7
 333 001d 06 85 13 06             		cmp	24[r1].L, r3
 334 0021 20 26                   		beq	.L47
 335 0023 71 14 38                		add	#56, r1, r4
 336                             	.LBE112:
  43:C:\Users\a5116938\Desktop\e2_studio_workspace\EEMBC_final\RX65N_Cloud_Kit\src/tensorflow/lite/micro\micro_mutable_op_resolver.h ****       const TfLiteRegistration& registration = registrations_[i];
 337                             		.loc 3 43 23
 338 0026 66 01                   		mov.L	#0, r1
 339                             	.LVL45:
 340 0028 09                      		bra	.L40
 341                             	.LVL46:
 342                             	.L46:
 343                             	.LBB113:
  45:C:\Users\a5116938\Desktop\e2_studio_workspace\EEMBC_final\RX65N_Cloud_Kit\src/tensorflow/lite/micro\micro_mutable_op_resolver.h ****         return &registration;
 344                             		.loc 3 45 24
 345 0029 71 4E E0                		add	#-32, r4, r14
  45:C:\Users\a5116938\Desktop\e2_studio_workspace\EEMBC_final\RX65N_Cloud_Kit\src/tensorflow/lite/micro\micro_mutable_op_resolver.h ****         return &registration;
 346                             		.loc 3 45 7
 347 002c 06 84 E3                		cmp	[r14].L, r3
 348 002f 20 0E                   		beq	.L48
 349                             	.LVL47:
 350                             		.balign 8,3,2
 351                             	.L40:
 352 0031 71 44 20                		add	#32, r4
 353                             	.LBE113:
  43:C:\Users\a5116938\Desktop\e2_studio_workspace\EEMBC_final\RX65N_Cloud_Kit\src/tensorflow/lite/micro\micro_mutable_op_resolver.h ****       const TfLiteRegistration& registration = registrations_[i];
 354                             		.loc 3 43 5
 355 0034 62 11                   		add	#1, r1
 356                             	.LVL48:
  43:C:\Users\a5116938\Desktop\e2_studio_workspace\EEMBC_final\RX65N_Cloud_Kit\src/tensorflow/lite/micro\micro_mutable_op_resolver.h ****       const TfLiteRegistration& registration = registrations_[i];
 357                             		.loc 3 43 32
 358 0036 47 12                   		cmp	r1, r2
 359 0038 21 F1                   		bne	.L46
 360                             	.LVL49:
 361                             		.balign 8,3,1
 362                             	.L44:
 363                             	.LBE111:
  41:C:\Users\a5116938\Desktop\e2_studio_workspace\EEMBC_final\RX65N_Cloud_Kit\src/tensorflow/lite/micro\micro_mutable_op_resolver.h **** 
 364                             		.loc 3 41 46
 365 003a 66 01                   		mov.L	#0, r1
 366                             	.LBE110:
 367                             	.LBE109:
  56:C:\Users\a5116938\Desktop\e2_studio_workspace\EEMBC_final\RX65N_Cloud_Kit\src/tensorflow/lite/micro\micro_op_resolver.h ****   }
 368                             		.loc 5 56 3
 369 003c 02                      		rts
 370                             	.LVL50:
 371                             	.L48:
 372                             	.LBB120:
 373                             	.LBB118:
 374                             	.LBB116:
 375                             	.LBB114:
  44:C:\Users\a5116938\Desktop\e2_studio_workspace\EEMBC_final\RX65N_Cloud_Kit\src/tensorflow/lite/micro\micro_mutable_op_resolver.h ****       if (registration.builtin_code == op) {
 376                             		.loc 3 44 33
 377 003d 6C 51                   		shll	#5, r1
 378                             	.LVL51:
 379 003f 62 41                   		add	#4, r1
 380 0041 4B 51                   		add	r5, r1
 381 0043 02                      		rts
 382                             	.LVL52:
 383                             	.L37:
 384                             	.LBE114:
 385                             	.LBE116:
 386                             	.LBE118:
 387                             	.LBE120:
  55:C:\Users\a5116938\Desktop\e2_studio_workspace\EEMBC_final\RX65N_Cloud_Kit\src/tensorflow/lite/micro\micro_op_resolver.h ****   }
 388                             		.loc 5 55 18
 389 0044 7F 14                   		jsr	r4
 390                             	.LVL53:
 391 0046 02                      		rts
 392                             	.LVL54:
 393                             	.L47:
 394                             	.LBB121:
 395                             	.LBB119:
 396                             	.LBB117:
 397                             	.LBB115:
  44:C:\Users\a5116938\Desktop\e2_studio_workspace\EEMBC_final\RX65N_Cloud_Kit\src/tensorflow/lite/micro\micro_mutable_op_resolver.h ****       if (registration.builtin_code == op) {
 398                             		.loc 3 44 33
 399 0047 62 41                   		add	#4, r1
 400                             	.LVL55:
 401 0049 02                      		rts
 402                             	.LBE115:
 403                             	.LBE117:
 404                             	.LBE119:
 405                             	.LBE121:
 406                             	.LFE6455:
 408 004a 74 10 01 00 00 00       		.section	.text._ZNK6tflite15MicroOpResolver6FindOpEPKci,"axG",@progbits,_ZNK6tflite15MicroOpResolv
 409                             		.weak	__ZNK6tflite15MicroOpResolver6FindOpEPKci
 411                             	__ZNK6tflite15MicroOpResolver6FindOpEPKci:
 412                             	.LFB6456:
  57:C:\Users\a5116938\Desktop\e2_studio_workspace\EEMBC_final\RX65N_Cloud_Kit\src/tensorflow/lite/micro\micro_op_resolver.h **** 
  58:C:\Users\a5116938\Desktop\e2_studio_workspace\EEMBC_final\RX65N_Cloud_Kit\src/tensorflow/lite/micro\micro_op_resolver.h ****   // This implementation exists for compatibility with the OpResolver base class
  59:C:\Users\a5116938\Desktop\e2_studio_workspace\EEMBC_final\RX65N_Cloud_Kit\src/tensorflow/lite/micro\micro_op_resolver.h ****   // and disregards the version parameter.
  60:C:\Users\a5116938\Desktop\e2_studio_workspace\EEMBC_final\RX65N_Cloud_Kit\src/tensorflow/lite/micro\micro_op_resolver.h ****   const TfLiteRegistration* FindOp(const char* op, int version) const final {
 413                             		.loc 5 60 29 is_stmt 1
 414                             	.LVL56:
 415 0000 6E 6A                   		pushm	r6-r10
 416                             	.LCFI2:
  61:C:\Users\a5116938\Desktop\e2_studio_workspace\EEMBC_final\RX65N_Cloud_Kit\src/tensorflow/lite/micro\micro_op_resolver.h ****     return FindOp(op);
 417                             		.loc 5 61 5
 418                             		.loc 5 61 21 is_stmt 0
 419 0002 EC 17                   		mov.L	[r1], r7
 420 0004 A9 F7                   		mov.L	24[r7], r7
 421 0006 74 07 00 00 00 00       		cmp	#__ZNK6tflite22MicroMutableOpResolverILj128EE6FindOpEPKc, r7
 422 000c 21 4C                   		bne	.L50
 423 000e EF 15                   		mov.L	r1, r5
 424                             	.LVL57:
 425                             	.LBB126:
 426                             	.LBB127:
 427                             	.LBB128:
  53:C:\Users\a5116938\Desktop\e2_studio_workspace\EEMBC_final\RX65N_Cloud_Kit\src/tensorflow/lite/micro\micro_mutable_op_resolver.h ****       const TfLiteRegistration& registration = registrations_[i];
 428                             		.loc 3 53 34
 429 0010 EE 1A 01 04             		mov.L	4100[r1], r10
  53:C:\Users\a5116938\Desktop\e2_studio_workspace\EEMBC_final\RX65N_Cloud_Kit\src/tensorflow/lite/micro\micro_mutable_op_resolver.h ****       const TfLiteRegistration& registration = registrations_[i];
 430                             		.loc 3 53 32
 431 0014 61 0A                   		cmp	#0, r10
 432 0016 20 3D                   		beq	.L55
 433 0018 EF 2F                   		mov.L	r2, r15
 434 001a 71 14 18                		add	#24, r1, r4
  53:C:\Users\a5116938\Desktop\e2_studio_workspace\EEMBC_final\RX65N_Cloud_Kit\src/tensorflow/lite/micro\micro_mutable_op_resolver.h ****       const TfLiteRegistration& registration = registrations_[i];
 435                             		.loc 3 53 23
 436 001d 66 0E                   		mov.L	#0, r14
 437                             	.LBB129:
  56:C:\Users\a5116938\Desktop\e2_studio_workspace\EEMBC_final\RX65N_Cloud_Kit\src/tensorflow/lite/micro\micro_mutable_op_resolver.h ****         return &registration;
 438                             		.loc 3 56 18
 439 001f FB 66 FF                		mov.L	#-1, r6
 440 0022 0A                      		bra	.L53
 441                             	.LVL58:
 442                             	.L52:
 443                             	.LBE129:
  53:C:\Users\a5116938\Desktop\e2_studio_workspace\EEMBC_final\RX65N_Cloud_Kit\src/tensorflow/lite/micro\micro_mutable_op_resolver.h ****       const TfLiteRegistration& registration = registrations_[i];
 444                             		.loc 3 53 5
 445 0023 62 1E                   		add	#1, r14
 446                             	.LVL59:
 447 0025 71 44 20                		add	#32, r4
  53:C:\Users\a5116938\Desktop\e2_studio_workspace\EEMBC_final\RX65N_Cloud_Kit\src/tensorflow/lite/micro\micro_mutable_op_resolver.h ****       const TfLiteRegistration& registration = registrations_[i];
 448                             		.loc 3 53 32
 449 0028 47 AE                   		cmp	r10, r14
 450 002a 20 29                   		beq	.L55
 451                             	.LVL60:
 452                             		.balign 8,3,1
 453                             	.L53:
 454                             	.LBB130:
  55:C:\Users\a5116938\Desktop\e2_studio_workspace\EEMBC_final\RX65N_Cloud_Kit\src/tensorflow/lite/micro\micro_mutable_op_resolver.h ****           (strcmp(registration.custom_name, op) == 0)) {
 455                             		.loc 3 55 7
 456 002c EC 47                   		mov.L	[r4], r7
 457 002e 75 57 20                		cmp	#32, r7
 458 0031 21 F2                   		bne	.L52
  56:C:\Users\a5116938\Desktop\e2_studio_workspace\EEMBC_final\RX65N_Cloud_Kit\src/tensorflow/lite/micro\micro_mutable_op_resolver.h ****         return &registration;
 459                             		.loc 3 56 18
 460 0033 A8 4F                   		mov.L	4[r4], r7
 461 0035 EF F2                   		mov.L	r15, r2
 462 0037 EF 63                   		mov.L	r6, r3
 463 0039 EF 71                   		mov.L	r7, r1
 464 003b 7F 83                   		scmpu		; Perform the string comparison
 465 003d FB 76 FF                	   mov     #-1, r7      ; Set up -1 result (which cannot be created
 466                             	                        ; by the SC insn)
 467 0040 23 05                   	   bnc	   ?+		; If Carry is not set skip over
 468 0042 FC DB 71                	   scne.L  r7		; Set result based on Z flag
 469                             	?:
 470                             	
  55:C:\Users\a5116938\Desktop\e2_studio_workspace\EEMBC_final\RX65N_Cloud_Kit\src/tensorflow/lite/micro\micro_mutable_op_resolver.h ****           (strcmp(registration.custom_name, op) == 0)) {
 471                             		.loc 3 55 65
 472 0045 61 07                   		cmp	#0, r7
 473 0047 21 DC                   		bne	.L52
  54:C:\Users\a5116938\Desktop\e2_studio_workspace\EEMBC_final\RX65N_Cloud_Kit\src/tensorflow/lite/micro\micro_mutable_op_resolver.h ****       if ((registration.builtin_code == BuiltinOperator_CUSTOM) &&
 474                             		.loc 3 54 33
 475 0049 FD C5 E1                		shll	#5, r14, r1
 476                             	.LVL61:
 477 004c 62 41                   		add	#4, r1
 478                             	.LVL62:
 479 004e 4B 51                   		add	r5, r1
 480                             	.LVL63:
 481                             	.LBE130:
 482                             	.LBE128:
 483                             	.LBE127:
 484                             	.LBE126:
  62:C:\Users\a5116938\Desktop\e2_studio_workspace\EEMBC_final\RX65N_Cloud_Kit\src/tensorflow/lite/micro\micro_op_resolver.h ****   }
 485                             		.loc 5 62 3
 486 0050 3F 6A 05                		rtsd	#20, r6-r10
 487                             	.LVL64:
 488                             	.L55:
 489                             	.LBB132:
 490                             	.LBB131:
  60:C:\Users\a5116938\Desktop\e2_studio_workspace\EEMBC_final\RX65N_Cloud_Kit\src/tensorflow/lite/micro\micro_mutable_op_resolver.h ****   }
 491                             		.loc 3 60 12
 492 0053 66 01                   		mov.L	#0, r1
 493                             	.LBE131:
 494                             	.LBE132:
 495                             		.loc 5 62 3
 496 0055 3F 6A 05                		rtsd	#20, r6-r10
 497                             	.LVL65:
 498                             	.L50:
  61:C:\Users\a5116938\Desktop\e2_studio_workspace\EEMBC_final\RX65N_Cloud_Kit\src/tensorflow/lite/micro\micro_op_resolver.h ****   }
 499                             		.loc 5 61 18
 500 0058 7F 17                   		jsr	r7
 501                             	.LVL66:
 502                             		.loc 5 62 3
 503 005a 3F 6A 05                		rtsd	#20, r6-r10
 504                             	.LFE6456:
 506 005d FC 13 00                		.section	.text._ZN6tflite14AllOpsResolverC2Ev,"ax",@progbits
 507                             		.global	__ZN6tflite14AllOpsResolverC2Ev
 509                             	__ZN6tflite14AllOpsResolverC2Ev:
 510                             	.LFB6530:
 511                             		.file 6 "../src/tensorflow/lite/micro/all_ops_resolver.cc"
   1:../src/tensorflow/lite/micro/all_ops_resolver.cc **** /* Copyright 2018 The TensorFlow Authors. All Rights Reserved.
   2:../src/tensorflow/lite/micro/all_ops_resolver.cc **** Licensed under the Apache License, Version 2.0 (the "License");
   3:../src/tensorflow/lite/micro/all_ops_resolver.cc **** you may not use this file except in compliance with the License.
   4:../src/tensorflow/lite/micro/all_ops_resolver.cc **** You may obtain a copy of the License at
   5:../src/tensorflow/lite/micro/all_ops_resolver.cc ****     http://www.apache.org/licenses/LICENSE-2.0
   6:../src/tensorflow/lite/micro/all_ops_resolver.cc **** Unless required by applicable law or agreed to in writing, software
   7:../src/tensorflow/lite/micro/all_ops_resolver.cc **** distributed under the License is distributed on an "AS IS" BASIS,
   8:../src/tensorflow/lite/micro/all_ops_resolver.cc **** WITHOUT WARRANTIES OR CONDITIONS OF ANY KIND, either express or implied.
   9:../src/tensorflow/lite/micro/all_ops_resolver.cc **** See the License for the specific language governing permissions and
  10:../src/tensorflow/lite/micro/all_ops_resolver.cc **** limitations under the License.
  11:../src/tensorflow/lite/micro/all_ops_resolver.cc **** ==============================================================================*/
  12:../src/tensorflow/lite/micro/all_ops_resolver.cc **** 
  13:../src/tensorflow/lite/micro/all_ops_resolver.cc **** #include "tensorflow/lite/micro/all_ops_resolver.h"
  14:../src/tensorflow/lite/micro/all_ops_resolver.cc **** 
  15:../src/tensorflow/lite/micro/all_ops_resolver.cc **** #include "tensorflow/lite/micro/kernels/micro_ops.h"
  16:../src/tensorflow/lite/micro/all_ops_resolver.cc **** 
  17:../src/tensorflow/lite/micro/all_ops_resolver.cc **** namespace tflite {
  18:../src/tensorflow/lite/micro/all_ops_resolver.cc **** namespace ops {
  19:../src/tensorflow/lite/micro/all_ops_resolver.cc **** namespace micro {
  20:../src/tensorflow/lite/micro/all_ops_resolver.cc **** namespace custom {
  21:../src/tensorflow/lite/micro/all_ops_resolver.cc **** TfLiteRegistration* Register_ETHOSU();
  22:../src/tensorflow/lite/micro/all_ops_resolver.cc **** const char* GetString_ETHOSU();
  23:../src/tensorflow/lite/micro/all_ops_resolver.cc **** }  // namespace custom
  24:../src/tensorflow/lite/micro/all_ops_resolver.cc **** }  // namespace micro
  25:../src/tensorflow/lite/micro/all_ops_resolver.cc **** }  // namespace ops
  26:../src/tensorflow/lite/micro/all_ops_resolver.cc **** 
  27:../src/tensorflow/lite/micro/all_ops_resolver.cc **** AllOpsResolver::AllOpsResolver() {
 512                             		.loc 6 27 1 is_stmt 1
 513                             	.LVL67:
 514 0000 6E 6B                   		pushm	r6-r11
 515                             	.LCFI3:
 516 0002 71 00 D4                		add	#-44, r0
 517                             	.LCFI4:
 518                             		.loc 6 27 1 is_stmt 0
 519 0005 EF 17                   		mov.L	r1, r7
 520                             	.LVL68:
 521                             	.LBB708:
 522                             	.LBB709:
 523                             	.LBB710:
 524                             	.LBB711:
  71:C:\Users\a5116938\Desktop\e2_studio_workspace\EEMBC_final\RX65N_Cloud_Kit\src/tensorflow/lite/micro\micro_mutable_op_resolver.h **** 
  72:C:\Users\a5116938\Desktop\e2_studio_workspace\EEMBC_final\RX65N_Cloud_Kit\src/tensorflow/lite/micro\micro_mutable_op_resolver.h ****   // Registers a Custom Operator with the MicroOpResolver.
  73:C:\Users\a5116938\Desktop\e2_studio_workspace\EEMBC_final\RX65N_Cloud_Kit\src/tensorflow/lite/micro\micro_mutable_op_resolver.h ****   //
  74:C:\Users\a5116938\Desktop\e2_studio_workspace\EEMBC_final\RX65N_Cloud_Kit\src/tensorflow/lite/micro\micro_mutable_op_resolver.h ****   // Only the first call for a given name will be successful. i.e. if this
  75:C:\Users\a5116938\Desktop\e2_studio_workspace\EEMBC_final\RX65N_Cloud_Kit\src/tensorflow/lite/micro\micro_mutable_op_resolver.h ****   // function is called again for a previously added Custom Operator, the
  76:C:\Users\a5116938\Desktop\e2_studio_workspace\EEMBC_final\RX65N_Cloud_Kit\src/tensorflow/lite/micro\micro_mutable_op_resolver.h ****   // MicroOpResolver will be unchanged and this function will return
  77:C:\Users\a5116938\Desktop\e2_studio_workspace\EEMBC_final\RX65N_Cloud_Kit\src/tensorflow/lite/micro\micro_mutable_op_resolver.h ****   // kTfLiteError.
  78:C:\Users\a5116938\Desktop\e2_studio_workspace\EEMBC_final\RX65N_Cloud_Kit\src/tensorflow/lite/micro\micro_mutable_op_resolver.h ****   TfLiteStatus AddCustom(const char* name, TfLiteRegistration* registration) {
  79:C:\Users\a5116938\Desktop\e2_studio_workspace\EEMBC_final\RX65N_Cloud_Kit\src/tensorflow/lite/micro\micro_mutable_op_resolver.h ****     if (registrations_len_ >= tOpCount) {
  80:C:\Users\a5116938\Desktop\e2_studio_workspace\EEMBC_final\RX65N_Cloud_Kit\src/tensorflow/lite/micro\micro_mutable_op_resolver.h ****       if (error_reporter_) {
  81:C:\Users\a5116938\Desktop\e2_studio_workspace\EEMBC_final\RX65N_Cloud_Kit\src/tensorflow/lite/micro\micro_mutable_op_resolver.h ****         TF_LITE_REPORT_ERROR(
  82:C:\Users\a5116938\Desktop\e2_studio_workspace\EEMBC_final\RX65N_Cloud_Kit\src/tensorflow/lite/micro\micro_mutable_op_resolver.h ****             error_reporter_,
  83:C:\Users\a5116938\Desktop\e2_studio_workspace\EEMBC_final\RX65N_Cloud_Kit\src/tensorflow/lite/micro\micro_mutable_op_resolver.h ****             "Couldn't register custom op '%s', resolver size is too small (%d)",
  84:C:\Users\a5116938\Desktop\e2_studio_workspace\EEMBC_final\RX65N_Cloud_Kit\src/tensorflow/lite/micro\micro_mutable_op_resolver.h ****             name, tOpCount);
  85:C:\Users\a5116938\Desktop\e2_studio_workspace\EEMBC_final\RX65N_Cloud_Kit\src/tensorflow/lite/micro\micro_mutable_op_resolver.h ****       }
  86:C:\Users\a5116938\Desktop\e2_studio_workspace\EEMBC_final\RX65N_Cloud_Kit\src/tensorflow/lite/micro\micro_mutable_op_resolver.h ****       return kTfLiteError;
  87:C:\Users\a5116938\Desktop\e2_studio_workspace\EEMBC_final\RX65N_Cloud_Kit\src/tensorflow/lite/micro\micro_mutable_op_resolver.h ****     }
  88:C:\Users\a5116938\Desktop\e2_studio_workspace\EEMBC_final\RX65N_Cloud_Kit\src/tensorflow/lite/micro\micro_mutable_op_resolver.h **** 
  89:C:\Users\a5116938\Desktop\e2_studio_workspace\EEMBC_final\RX65N_Cloud_Kit\src/tensorflow/lite/micro\micro_mutable_op_resolver.h ****     if (FindOp(name) != nullptr) {
  90:C:\Users\a5116938\Desktop\e2_studio_workspace\EEMBC_final\RX65N_Cloud_Kit\src/tensorflow/lite/micro\micro_mutable_op_resolver.h ****       if (error_reporter_ != nullptr) {
  91:C:\Users\a5116938\Desktop\e2_studio_workspace\EEMBC_final\RX65N_Cloud_Kit\src/tensorflow/lite/micro\micro_mutable_op_resolver.h ****         TF_LITE_REPORT_ERROR(error_reporter_,
  92:C:\Users\a5116938\Desktop\e2_studio_workspace\EEMBC_final\RX65N_Cloud_Kit\src/tensorflow/lite/micro\micro_mutable_op_resolver.h ****                              "Calling AddCustom for the same op more than once "
  93:C:\Users\a5116938\Desktop\e2_studio_workspace\EEMBC_final\RX65N_Cloud_Kit\src/tensorflow/lite/micro\micro_mutable_op_resolver.h ****                              "is not supported (Op: %s).",
  94:C:\Users\a5116938\Desktop\e2_studio_workspace\EEMBC_final\RX65N_Cloud_Kit\src/tensorflow/lite/micro\micro_mutable_op_resolver.h ****                              name);
  95:C:\Users\a5116938\Desktop\e2_studio_workspace\EEMBC_final\RX65N_Cloud_Kit\src/tensorflow/lite/micro\micro_mutable_op_resolver.h ****       }
  96:C:\Users\a5116938\Desktop\e2_studio_workspace\EEMBC_final\RX65N_Cloud_Kit\src/tensorflow/lite/micro\micro_mutable_op_resolver.h ****       return kTfLiteError;
  97:C:\Users\a5116938\Desktop\e2_studio_workspace\EEMBC_final\RX65N_Cloud_Kit\src/tensorflow/lite/micro\micro_mutable_op_resolver.h ****     }
  98:C:\Users\a5116938\Desktop\e2_studio_workspace\EEMBC_final\RX65N_Cloud_Kit\src/tensorflow/lite/micro\micro_mutable_op_resolver.h **** 
  99:C:\Users\a5116938\Desktop\e2_studio_workspace\EEMBC_final\RX65N_Cloud_Kit\src/tensorflow/lite/micro\micro_mutable_op_resolver.h ****     TfLiteRegistration* new_registration = &registrations_[registrations_len_];
 100:C:\Users\a5116938\Desktop\e2_studio_workspace\EEMBC_final\RX65N_Cloud_Kit\src/tensorflow/lite/micro\micro_mutable_op_resolver.h ****     registrations_len_ += 1;
 101:C:\Users\a5116938\Desktop\e2_studio_workspace\EEMBC_final\RX65N_Cloud_Kit\src/tensorflow/lite/micro\micro_mutable_op_resolver.h **** 
 102:C:\Users\a5116938\Desktop\e2_studio_workspace\EEMBC_final\RX65N_Cloud_Kit\src/tensorflow/lite/micro\micro_mutable_op_resolver.h ****     *new_registration = *registration;
 103:C:\Users\a5116938\Desktop\e2_studio_workspace\EEMBC_final\RX65N_Cloud_Kit\src/tensorflow/lite/micro\micro_mutable_op_resolver.h ****     new_registration->builtin_code = BuiltinOperator_CUSTOM;
 104:C:\Users\a5116938\Desktop\e2_studio_workspace\EEMBC_final\RX65N_Cloud_Kit\src/tensorflow/lite/micro\micro_mutable_op_resolver.h ****     new_registration->custom_name = name;
 105:C:\Users\a5116938\Desktop\e2_studio_workspace\EEMBC_final\RX65N_Cloud_Kit\src/tensorflow/lite/micro\micro_mutable_op_resolver.h ****     return kTfLiteOk;
 106:C:\Users\a5116938\Desktop\e2_studio_workspace\EEMBC_final\RX65N_Cloud_Kit\src/tensorflow/lite/micro\micro_mutable_op_resolver.h ****   }
 107:C:\Users\a5116938\Desktop\e2_studio_workspace\EEMBC_final\RX65N_Cloud_Kit\src/tensorflow/lite/micro\micro_mutable_op_resolver.h **** 
 108:C:\Users\a5116938\Desktop\e2_studio_workspace\EEMBC_final\RX65N_Cloud_Kit\src/tensorflow/lite/micro\micro_mutable_op_resolver.h ****   // The Add* functions below add the various Builtin operators to the
 109:C:\Users\a5116938\Desktop\e2_studio_workspace\EEMBC_final\RX65N_Cloud_Kit\src/tensorflow/lite/micro\micro_mutable_op_resolver.h ****   // MicroMutableOpResolver object.
 110:C:\Users\a5116938\Desktop\e2_studio_workspace\EEMBC_final\RX65N_Cloud_Kit\src/tensorflow/lite/micro\micro_mutable_op_resolver.h **** 
 111:C:\Users\a5116938\Desktop\e2_studio_workspace\EEMBC_final\RX65N_Cloud_Kit\src/tensorflow/lite/micro\micro_mutable_op_resolver.h ****   TfLiteStatus AddAbs() {
 112:C:\Users\a5116938\Desktop\e2_studio_workspace\EEMBC_final\RX65N_Cloud_Kit\src/tensorflow/lite/micro\micro_mutable_op_resolver.h ****     return AddBuiltin(BuiltinOperator_ABS, tflite::ops::micro::Register_ABS(),
 525                             		.loc 3 112 76
 526 0007 66 CF                   		mov.L	#12, r15
 527 0009 4B 0F                   		add	r0, r15
 528                             	.LBE711:
 529                             	.LBE710:
 530                             	.LBE709:
 531                             	.LBB2068:
 532                             	.LBB2069:
  38:C:\Users\a5116938\Desktop\e2_studio_workspace\EEMBC_final\RX65N_Cloud_Kit\src/tensorflow/lite/micro\micro_mutable_op_resolver.h **** 
 533                             		.loc 3 38 39
 534 000b FA 16 01 04 00          		mov.L	#0, 4100[r1]
 535 0010 FA 16 02 05 00          		mov.L	#0, 5128[r1]
 536 0015 FA 16 03 05 00          		mov.L	#0, 5132[r1]
 537                             	.LVL69:
 538                             	.LBE2069:
 539                             	.LBE2068:
 540                             		.loc 6 27 32
 541 001a F8 12 00 00 00 00       		mov.L	#__ZTVN6tflite14AllOpsResolverE+8, [r1]
 542                             	.LBB2070:
  28:../src/tensorflow/lite/micro/all_ops_resolver.cc ****   // Please keep this list of Builtin Operators in alphabetical order.
  29:../src/tensorflow/lite/micro/all_ops_resolver.cc ****   AddAbs();
 543                             		.loc 6 29 3 is_stmt 1
 544                             	.LVL70:
 545                             	.LBB732:
 546                             	.LBB728:
 547                             		.loc 3 112 76 is_stmt 0
 548 0020 05 00 00 00             		bsr	__ZN6tflite3ops5micro12Register_ABSEv
 549                             	.LVL71:
 550                             	.LBB712:
 551                             	.LBB713:
 552                             	.LBB714:
 553                             	.LBB715:
  43:C:\Users\a5116938\Desktop\e2_studio_workspace\EEMBC_final\RX65N_Cloud_Kit\src/tensorflow/lite/micro\micro_mutable_op_resolver.h ****       const TfLiteRegistration& registration = registrations_[i];
 554                             		.loc 3 43 34
 555 0024 EE 75 01 04             		mov.L	4100[r7], r5
  43:C:\Users\a5116938\Desktop\e2_studio_workspace\EEMBC_final\RX65N_Cloud_Kit\src/tensorflow/lite/micro\micro_mutable_op_resolver.h ****       const TfLiteRegistration& registration = registrations_[i];
 556                             		.loc 3 43 32
 557 0028 61 05                   		cmp	#0, r5
 558 002a 3A 1B 25                		beq	.L515
 559                             	.LVL72:
 560                             	.LBB716:
  45:C:\Users\a5116938\Desktop\e2_studio_workspace\EEMBC_final\RX65N_Cloud_Kit\src/tensorflow/lite/micro\micro_mutable_op_resolver.h ****         return &registration;
 561                             		.loc 3 45 7
 562 002d ED 7A 06                		mov.L	24[r7], r10
 563 0030 75 5A 65                		cmp	#0x65, r10
 564 0033 3A 18 19                		beq	.L59
 565 0036 71 73 38                		add	#56, r7, r3
 566                             	.LBE716:
  43:C:\Users\a5116938\Desktop\e2_studio_workspace\EEMBC_final\RX65N_Cloud_Kit\src/tensorflow/lite/micro\micro_mutable_op_resolver.h ****       const TfLiteRegistration& registration = registrations_[i];
 567                             		.loc 3 43 23
 568 0039 66 04                   		mov.L	#0, r4
 569 003b 2E 0D                   		bra	.L60
 570                             	.LVL73:
 571                             	.L1081:
 572                             	.LBB717:
  45:C:\Users\a5116938\Desktop\e2_studio_workspace\EEMBC_final\RX65N_Cloud_Kit\src/tensorflow/lite/micro\micro_mutable_op_resolver.h ****         return &registration;
 573                             		.loc 3 45 24
 574 003d 71 3A E0                		add	#-32, r3, r10
  45:C:\Users\a5116938\Desktop\e2_studio_workspace\EEMBC_final\RX65N_Cloud_Kit\src/tensorflow/lite/micro\micro_mutable_op_resolver.h ****         return &registration;
 575                             		.loc 3 45 7
 576 0040 EC AA                   		mov.L	[r10], r10
 577 0042 75 5A 65                		cmp	#0x65, r10
 578 0045 3A 06 19                		beq	.L59
 579                             	.LVL74:
 580                             		.balign 8,3,2
 581                             	.L60:
 582 0048 71 33 20                		add	#32, r3
 583                             	.LBE717:
  43:C:\Users\a5116938\Desktop\e2_studio_workspace\EEMBC_final\RX65N_Cloud_Kit\src/tensorflow/lite/micro\micro_mutable_op_resolver.h ****       const TfLiteRegistration& registration = registrations_[i];
 584                             		.loc 3 43 5
 585 004b 62 14                   		add	#1, r4
 586                             	.LVL75:
  43:C:\Users\a5116938\Desktop\e2_studio_workspace\EEMBC_final\RX65N_Cloud_Kit\src/tensorflow/lite/micro\micro_mutable_op_resolver.h ****       const TfLiteRegistration& registration = registrations_[i];
 587                             		.loc 3 43 32
 588 004d 47 54                   		cmp	r5, r4
 589 004f 21 EE                   		bne	.L1081
 590                             	.LVL76:
 591                             	.LBE715:
 592                             	.LBE714:
 113:C:\Users\a5116938\Desktop\e2_studio_workspace\EEMBC_final\RX65N_Cloud_Kit\src/tensorflow/lite/micro\micro_mutable_op_resolver.h ****                       ParseAbs);
 114:C:\Users\a5116938\Desktop\e2_studio_workspace\EEMBC_final\RX65N_Cloud_Kit\src/tensorflow/lite/micro\micro_mutable_op_resolver.h ****   }
 115:C:\Users\a5116938\Desktop\e2_studio_workspace\EEMBC_final\RX65N_Cloud_Kit\src/tensorflow/lite/micro\micro_mutable_op_resolver.h **** 
 116:C:\Users\a5116938\Desktop\e2_studio_workspace\EEMBC_final\RX65N_Cloud_Kit\src/tensorflow/lite/micro\micro_mutable_op_resolver.h ****   TfLiteStatus AddAdd() {
 117:C:\Users\a5116938\Desktop\e2_studio_workspace\EEMBC_final\RX65N_Cloud_Kit\src/tensorflow/lite/micro\micro_mutable_op_resolver.h ****     return AddBuiltin(BuiltinOperator_ADD, tflite::ops::micro::Register_ADD(),
 118:C:\Users\a5116938\Desktop\e2_studio_workspace\EEMBC_final\RX65N_Cloud_Kit\src/tensorflow/lite/micro\micro_mutable_op_resolver.h ****                       ParseAdd);
 119:C:\Users\a5116938\Desktop\e2_studio_workspace\EEMBC_final\RX65N_Cloud_Kit\src/tensorflow/lite/micro\micro_mutable_op_resolver.h ****   }
 120:C:\Users\a5116938\Desktop\e2_studio_workspace\EEMBC_final\RX65N_Cloud_Kit\src/tensorflow/lite/micro\micro_mutable_op_resolver.h **** 
 121:C:\Users\a5116938\Desktop\e2_studio_workspace\EEMBC_final\RX65N_Cloud_Kit\src/tensorflow/lite/micro\micro_mutable_op_resolver.h ****   TfLiteStatus AddArgMax() {
 122:C:\Users\a5116938\Desktop\e2_studio_workspace\EEMBC_final\RX65N_Cloud_Kit\src/tensorflow/lite/micro\micro_mutable_op_resolver.h ****     return AddBuiltin(BuiltinOperator_ARG_MAX,
 123:C:\Users\a5116938\Desktop\e2_studio_workspace\EEMBC_final\RX65N_Cloud_Kit\src/tensorflow/lite/micro\micro_mutable_op_resolver.h ****                       tflite::ops::micro::Register_ARG_MAX(), ParseArgMax);
 124:C:\Users\a5116938\Desktop\e2_studio_workspace\EEMBC_final\RX65N_Cloud_Kit\src/tensorflow/lite/micro\micro_mutable_op_resolver.h ****   }
 125:C:\Users\a5116938\Desktop\e2_studio_workspace\EEMBC_final\RX65N_Cloud_Kit\src/tensorflow/lite/micro\micro_mutable_op_resolver.h **** 
 126:C:\Users\a5116938\Desktop\e2_studio_workspace\EEMBC_final\RX65N_Cloud_Kit\src/tensorflow/lite/micro\micro_mutable_op_resolver.h ****   TfLiteStatus AddArgMin() {
 127:C:\Users\a5116938\Desktop\e2_studio_workspace\EEMBC_final\RX65N_Cloud_Kit\src/tensorflow/lite/micro\micro_mutable_op_resolver.h ****     return AddBuiltin(BuiltinOperator_ARG_MIN,
 128:C:\Users\a5116938\Desktop\e2_studio_workspace\EEMBC_final\RX65N_Cloud_Kit\src/tensorflow/lite/micro\micro_mutable_op_resolver.h ****                       tflite::ops::micro::Register_ARG_MIN(), ParseArgMin);
 129:C:\Users\a5116938\Desktop\e2_studio_workspace\EEMBC_final\RX65N_Cloud_Kit\src/tensorflow/lite/micro\micro_mutable_op_resolver.h ****   }
 130:C:\Users\a5116938\Desktop\e2_studio_workspace\EEMBC_final\RX65N_Cloud_Kit\src/tensorflow/lite/micro\micro_mutable_op_resolver.h **** 
 131:C:\Users\a5116938\Desktop\e2_studio_workspace\EEMBC_final\RX65N_Cloud_Kit\src/tensorflow/lite/micro\micro_mutable_op_resolver.h ****   TfLiteStatus AddAveragePool2D() {
 132:C:\Users\a5116938\Desktop\e2_studio_workspace\EEMBC_final\RX65N_Cloud_Kit\src/tensorflow/lite/micro\micro_mutable_op_resolver.h ****     return AddBuiltin(BuiltinOperator_AVERAGE_POOL_2D,
 133:C:\Users\a5116938\Desktop\e2_studio_workspace\EEMBC_final\RX65N_Cloud_Kit\src/tensorflow/lite/micro\micro_mutable_op_resolver.h ****                       tflite::ops::micro::Register_AVERAGE_POOL_2D(),
 134:C:\Users\a5116938\Desktop\e2_studio_workspace\EEMBC_final\RX65N_Cloud_Kit\src/tensorflow/lite/micro\micro_mutable_op_resolver.h ****                       ParsePool);
 135:C:\Users\a5116938\Desktop\e2_studio_workspace\EEMBC_final\RX65N_Cloud_Kit\src/tensorflow/lite/micro\micro_mutable_op_resolver.h ****   }
 136:C:\Users\a5116938\Desktop\e2_studio_workspace\EEMBC_final\RX65N_Cloud_Kit\src/tensorflow/lite/micro\micro_mutable_op_resolver.h **** 
 137:C:\Users\a5116938\Desktop\e2_studio_workspace\EEMBC_final\RX65N_Cloud_Kit\src/tensorflow/lite/micro\micro_mutable_op_resolver.h ****   TfLiteStatus AddCeil() {
 138:C:\Users\a5116938\Desktop\e2_studio_workspace\EEMBC_final\RX65N_Cloud_Kit\src/tensorflow/lite/micro\micro_mutable_op_resolver.h ****     return AddBuiltin(BuiltinOperator_CEIL, tflite::ops::micro::Register_CEIL(),
 139:C:\Users\a5116938\Desktop\e2_studio_workspace\EEMBC_final\RX65N_Cloud_Kit\src/tensorflow/lite/micro\micro_mutable_op_resolver.h ****                       ParseCeil);
 140:C:\Users\a5116938\Desktop\e2_studio_workspace\EEMBC_final\RX65N_Cloud_Kit\src/tensorflow/lite/micro\micro_mutable_op_resolver.h ****   }
 141:C:\Users\a5116938\Desktop\e2_studio_workspace\EEMBC_final\RX65N_Cloud_Kit\src/tensorflow/lite/micro\micro_mutable_op_resolver.h **** 
 142:C:\Users\a5116938\Desktop\e2_studio_workspace\EEMBC_final\RX65N_Cloud_Kit\src/tensorflow/lite/micro\micro_mutable_op_resolver.h ****   TfLiteStatus AddCircularBuffer() {
 143:C:\Users\a5116938\Desktop\e2_studio_workspace\EEMBC_final\RX65N_Cloud_Kit\src/tensorflow/lite/micro\micro_mutable_op_resolver.h ****     return AddCustom("CIRCULAR_BUFFER",
 144:C:\Users\a5116938\Desktop\e2_studio_workspace\EEMBC_final\RX65N_Cloud_Kit\src/tensorflow/lite/micro\micro_mutable_op_resolver.h ****                      tflite::ops::micro::Register_CIRCULAR_BUFFER());
 145:C:\Users\a5116938\Desktop\e2_studio_workspace\EEMBC_final\RX65N_Cloud_Kit\src/tensorflow/lite/micro\micro_mutable_op_resolver.h ****   }
 146:C:\Users\a5116938\Desktop\e2_studio_workspace\EEMBC_final\RX65N_Cloud_Kit\src/tensorflow/lite/micro\micro_mutable_op_resolver.h **** 
 147:C:\Users\a5116938\Desktop\e2_studio_workspace\EEMBC_final\RX65N_Cloud_Kit\src/tensorflow/lite/micro\micro_mutable_op_resolver.h ****   TfLiteStatus AddConcatenation() {
 148:C:\Users\a5116938\Desktop\e2_studio_workspace\EEMBC_final\RX65N_Cloud_Kit\src/tensorflow/lite/micro\micro_mutable_op_resolver.h ****     return AddBuiltin(BuiltinOperator_CONCATENATION,
 149:C:\Users\a5116938\Desktop\e2_studio_workspace\EEMBC_final\RX65N_Cloud_Kit\src/tensorflow/lite/micro\micro_mutable_op_resolver.h ****                       tflite::ops::micro::Register_CONCATENATION(),
 150:C:\Users\a5116938\Desktop\e2_studio_workspace\EEMBC_final\RX65N_Cloud_Kit\src/tensorflow/lite/micro\micro_mutable_op_resolver.h ****                       ParseConcatenation);
 151:C:\Users\a5116938\Desktop\e2_studio_workspace\EEMBC_final\RX65N_Cloud_Kit\src/tensorflow/lite/micro\micro_mutable_op_resolver.h ****   }
 152:C:\Users\a5116938\Desktop\e2_studio_workspace\EEMBC_final\RX65N_Cloud_Kit\src/tensorflow/lite/micro\micro_mutable_op_resolver.h **** 
 153:C:\Users\a5116938\Desktop\e2_studio_workspace\EEMBC_final\RX65N_Cloud_Kit\src/tensorflow/lite/micro\micro_mutable_op_resolver.h ****   TfLiteStatus AddConv2D() {
 154:C:\Users\a5116938\Desktop\e2_studio_workspace\EEMBC_final\RX65N_Cloud_Kit\src/tensorflow/lite/micro\micro_mutable_op_resolver.h ****     return AddBuiltin(BuiltinOperator_CONV_2D, Register_CONV_2D(), ParseConv2D);
 155:C:\Users\a5116938\Desktop\e2_studio_workspace\EEMBC_final\RX65N_Cloud_Kit\src/tensorflow/lite/micro\micro_mutable_op_resolver.h ****   }
 156:C:\Users\a5116938\Desktop\e2_studio_workspace\EEMBC_final\RX65N_Cloud_Kit\src/tensorflow/lite/micro\micro_mutable_op_resolver.h **** 
 157:C:\Users\a5116938\Desktop\e2_studio_workspace\EEMBC_final\RX65N_Cloud_Kit\src/tensorflow/lite/micro\micro_mutable_op_resolver.h ****   TfLiteStatus AddCos() {
 158:C:\Users\a5116938\Desktop\e2_studio_workspace\EEMBC_final\RX65N_Cloud_Kit\src/tensorflow/lite/micro\micro_mutable_op_resolver.h ****     return AddBuiltin(BuiltinOperator_COS, tflite::ops::micro::Register_COS(),
 159:C:\Users\a5116938\Desktop\e2_studio_workspace\EEMBC_final\RX65N_Cloud_Kit\src/tensorflow/lite/micro\micro_mutable_op_resolver.h ****                       ParseCos);
 160:C:\Users\a5116938\Desktop\e2_studio_workspace\EEMBC_final\RX65N_Cloud_Kit\src/tensorflow/lite/micro\micro_mutable_op_resolver.h ****   }
 161:C:\Users\a5116938\Desktop\e2_studio_workspace\EEMBC_final\RX65N_Cloud_Kit\src/tensorflow/lite/micro\micro_mutable_op_resolver.h **** 
 162:C:\Users\a5116938\Desktop\e2_studio_workspace\EEMBC_final\RX65N_Cloud_Kit\src/tensorflow/lite/micro\micro_mutable_op_resolver.h ****   TfLiteStatus AddDepthwiseConv2D() {
 163:C:\Users\a5116938\Desktop\e2_studio_workspace\EEMBC_final\RX65N_Cloud_Kit\src/tensorflow/lite/micro\micro_mutable_op_resolver.h ****     return AddBuiltin(BuiltinOperator_DEPTHWISE_CONV_2D,
 164:C:\Users\a5116938\Desktop\e2_studio_workspace\EEMBC_final\RX65N_Cloud_Kit\src/tensorflow/lite/micro\micro_mutable_op_resolver.h ****                       Register_DEPTHWISE_CONV_2D(), ParseDepthwiseConv2D);
 165:C:\Users\a5116938\Desktop\e2_studio_workspace\EEMBC_final\RX65N_Cloud_Kit\src/tensorflow/lite/micro\micro_mutable_op_resolver.h ****   }
 166:C:\Users\a5116938\Desktop\e2_studio_workspace\EEMBC_final\RX65N_Cloud_Kit\src/tensorflow/lite/micro\micro_mutable_op_resolver.h **** 
 167:C:\Users\a5116938\Desktop\e2_studio_workspace\EEMBC_final\RX65N_Cloud_Kit\src/tensorflow/lite/micro\micro_mutable_op_resolver.h ****   TfLiteStatus AddDequantize() {
 168:C:\Users\a5116938\Desktop\e2_studio_workspace\EEMBC_final\RX65N_Cloud_Kit\src/tensorflow/lite/micro\micro_mutable_op_resolver.h ****     return AddBuiltin(BuiltinOperator_DEQUANTIZE,
 169:C:\Users\a5116938\Desktop\e2_studio_workspace\EEMBC_final\RX65N_Cloud_Kit\src/tensorflow/lite/micro\micro_mutable_op_resolver.h ****                       tflite::ops::micro::Register_DEQUANTIZE(),
 170:C:\Users\a5116938\Desktop\e2_studio_workspace\EEMBC_final\RX65N_Cloud_Kit\src/tensorflow/lite/micro\micro_mutable_op_resolver.h ****                       ParseDequantize);
 171:C:\Users\a5116938\Desktop\e2_studio_workspace\EEMBC_final\RX65N_Cloud_Kit\src/tensorflow/lite/micro\micro_mutable_op_resolver.h ****   }
 172:C:\Users\a5116938\Desktop\e2_studio_workspace\EEMBC_final\RX65N_Cloud_Kit\src/tensorflow/lite/micro\micro_mutable_op_resolver.h **** 
 173:C:\Users\a5116938\Desktop\e2_studio_workspace\EEMBC_final\RX65N_Cloud_Kit\src/tensorflow/lite/micro\micro_mutable_op_resolver.h ****   TfLiteStatus AddEqual() {
 174:C:\Users\a5116938\Desktop\e2_studio_workspace\EEMBC_final\RX65N_Cloud_Kit\src/tensorflow/lite/micro\micro_mutable_op_resolver.h ****     return AddBuiltin(BuiltinOperator_EQUAL,
 175:C:\Users\a5116938\Desktop\e2_studio_workspace\EEMBC_final\RX65N_Cloud_Kit\src/tensorflow/lite/micro\micro_mutable_op_resolver.h ****                       tflite::ops::micro::Register_EQUAL(), ParseEqual);
 176:C:\Users\a5116938\Desktop\e2_studio_workspace\EEMBC_final\RX65N_Cloud_Kit\src/tensorflow/lite/micro\micro_mutable_op_resolver.h ****   }
 177:C:\Users\a5116938\Desktop\e2_studio_workspace\EEMBC_final\RX65N_Cloud_Kit\src/tensorflow/lite/micro\micro_mutable_op_resolver.h **** 
 178:C:\Users\a5116938\Desktop\e2_studio_workspace\EEMBC_final\RX65N_Cloud_Kit\src/tensorflow/lite/micro\micro_mutable_op_resolver.h ****   TfLiteStatus AddFloor() {
 179:C:\Users\a5116938\Desktop\e2_studio_workspace\EEMBC_final\RX65N_Cloud_Kit\src/tensorflow/lite/micro\micro_mutable_op_resolver.h ****     return AddBuiltin(BuiltinOperator_FLOOR,
 180:C:\Users\a5116938\Desktop\e2_studio_workspace\EEMBC_final\RX65N_Cloud_Kit\src/tensorflow/lite/micro\micro_mutable_op_resolver.h ****                       tflite::ops::micro::Register_FLOOR(), ParseFloor);
 181:C:\Users\a5116938\Desktop\e2_studio_workspace\EEMBC_final\RX65N_Cloud_Kit\src/tensorflow/lite/micro\micro_mutable_op_resolver.h ****   }
 182:C:\Users\a5116938\Desktop\e2_studio_workspace\EEMBC_final\RX65N_Cloud_Kit\src/tensorflow/lite/micro\micro_mutable_op_resolver.h **** 
 183:C:\Users\a5116938\Desktop\e2_studio_workspace\EEMBC_final\RX65N_Cloud_Kit\src/tensorflow/lite/micro\micro_mutable_op_resolver.h ****   TfLiteStatus AddFullyConnected(
 184:C:\Users\a5116938\Desktop\e2_studio_workspace\EEMBC_final\RX65N_Cloud_Kit\src/tensorflow/lite/micro\micro_mutable_op_resolver.h ****       const TfLiteRegistration& registration = Register_FULLY_CONNECTED()) {
 185:C:\Users\a5116938\Desktop\e2_studio_workspace\EEMBC_final\RX65N_Cloud_Kit\src/tensorflow/lite/micro\micro_mutable_op_resolver.h ****     return AddBuiltin(BuiltinOperator_FULLY_CONNECTED, registration,
 186:C:\Users\a5116938\Desktop\e2_studio_workspace\EEMBC_final\RX65N_Cloud_Kit\src/tensorflow/lite/micro\micro_mutable_op_resolver.h ****                       ParseFullyConnected);
 187:C:\Users\a5116938\Desktop\e2_studio_workspace\EEMBC_final\RX65N_Cloud_Kit\src/tensorflow/lite/micro\micro_mutable_op_resolver.h ****   }
 188:C:\Users\a5116938\Desktop\e2_studio_workspace\EEMBC_final\RX65N_Cloud_Kit\src/tensorflow/lite/micro\micro_mutable_op_resolver.h **** 
 189:C:\Users\a5116938\Desktop\e2_studio_workspace\EEMBC_final\RX65N_Cloud_Kit\src/tensorflow/lite/micro\micro_mutable_op_resolver.h ****   TfLiteStatus AddGreater() {
 190:C:\Users\a5116938\Desktop\e2_studio_workspace\EEMBC_final\RX65N_Cloud_Kit\src/tensorflow/lite/micro\micro_mutable_op_resolver.h ****     return AddBuiltin(BuiltinOperator_GREATER,
 191:C:\Users\a5116938\Desktop\e2_studio_workspace\EEMBC_final\RX65N_Cloud_Kit\src/tensorflow/lite/micro\micro_mutable_op_resolver.h ****                       tflite::ops::micro::Register_GREATER(), ParseGreater);
 192:C:\Users\a5116938\Desktop\e2_studio_workspace\EEMBC_final\RX65N_Cloud_Kit\src/tensorflow/lite/micro\micro_mutable_op_resolver.h ****   }
 193:C:\Users\a5116938\Desktop\e2_studio_workspace\EEMBC_final\RX65N_Cloud_Kit\src/tensorflow/lite/micro\micro_mutable_op_resolver.h **** 
 194:C:\Users\a5116938\Desktop\e2_studio_workspace\EEMBC_final\RX65N_Cloud_Kit\src/tensorflow/lite/micro\micro_mutable_op_resolver.h ****   TfLiteStatus AddGreaterEqual() {
 195:C:\Users\a5116938\Desktop\e2_studio_workspace\EEMBC_final\RX65N_Cloud_Kit\src/tensorflow/lite/micro\micro_mutable_op_resolver.h ****     return AddBuiltin(BuiltinOperator_GREATER_EQUAL,
 196:C:\Users\a5116938\Desktop\e2_studio_workspace\EEMBC_final\RX65N_Cloud_Kit\src/tensorflow/lite/micro\micro_mutable_op_resolver.h ****                       tflite::ops::micro::Register_GREATER_EQUAL(),
 197:C:\Users\a5116938\Desktop\e2_studio_workspace\EEMBC_final\RX65N_Cloud_Kit\src/tensorflow/lite/micro\micro_mutable_op_resolver.h ****                       ParseGreaterEqual);
 198:C:\Users\a5116938\Desktop\e2_studio_workspace\EEMBC_final\RX65N_Cloud_Kit\src/tensorflow/lite/micro\micro_mutable_op_resolver.h ****   }
 199:C:\Users\a5116938\Desktop\e2_studio_workspace\EEMBC_final\RX65N_Cloud_Kit\src/tensorflow/lite/micro\micro_mutable_op_resolver.h **** 
 200:C:\Users\a5116938\Desktop\e2_studio_workspace\EEMBC_final\RX65N_Cloud_Kit\src/tensorflow/lite/micro\micro_mutable_op_resolver.h ****   TfLiteStatus AddHardSwish() {
 201:C:\Users\a5116938\Desktop\e2_studio_workspace\EEMBC_final\RX65N_Cloud_Kit\src/tensorflow/lite/micro\micro_mutable_op_resolver.h ****     return AddBuiltin(BuiltinOperator_HARD_SWISH,
 202:C:\Users\a5116938\Desktop\e2_studio_workspace\EEMBC_final\RX65N_Cloud_Kit\src/tensorflow/lite/micro\micro_mutable_op_resolver.h ****                       tflite::ops::micro::Register_HARD_SWISH(),
 203:C:\Users\a5116938\Desktop\e2_studio_workspace\EEMBC_final\RX65N_Cloud_Kit\src/tensorflow/lite/micro\micro_mutable_op_resolver.h ****                       ParseHardSwish);
 204:C:\Users\a5116938\Desktop\e2_studio_workspace\EEMBC_final\RX65N_Cloud_Kit\src/tensorflow/lite/micro\micro_mutable_op_resolver.h ****   }
 205:C:\Users\a5116938\Desktop\e2_studio_workspace\EEMBC_final\RX65N_Cloud_Kit\src/tensorflow/lite/micro\micro_mutable_op_resolver.h **** 
 206:C:\Users\a5116938\Desktop\e2_studio_workspace\EEMBC_final\RX65N_Cloud_Kit\src/tensorflow/lite/micro\micro_mutable_op_resolver.h ****   TfLiteStatus AddL2Normalization() {
 207:C:\Users\a5116938\Desktop\e2_studio_workspace\EEMBC_final\RX65N_Cloud_Kit\src/tensorflow/lite/micro\micro_mutable_op_resolver.h ****     return AddBuiltin(BuiltinOperator_L2_NORMALIZATION,
 208:C:\Users\a5116938\Desktop\e2_studio_workspace\EEMBC_final\RX65N_Cloud_Kit\src/tensorflow/lite/micro\micro_mutable_op_resolver.h ****                       tflite::ops::micro::Register_L2_NORMALIZATION(),
 209:C:\Users\a5116938\Desktop\e2_studio_workspace\EEMBC_final\RX65N_Cloud_Kit\src/tensorflow/lite/micro\micro_mutable_op_resolver.h ****                       ParseL2Normalization);
 210:C:\Users\a5116938\Desktop\e2_studio_workspace\EEMBC_final\RX65N_Cloud_Kit\src/tensorflow/lite/micro\micro_mutable_op_resolver.h ****   }
 211:C:\Users\a5116938\Desktop\e2_studio_workspace\EEMBC_final\RX65N_Cloud_Kit\src/tensorflow/lite/micro\micro_mutable_op_resolver.h **** 
 212:C:\Users\a5116938\Desktop\e2_studio_workspace\EEMBC_final\RX65N_Cloud_Kit\src/tensorflow/lite/micro\micro_mutable_op_resolver.h ****   TfLiteStatus AddLess() {
 213:C:\Users\a5116938\Desktop\e2_studio_workspace\EEMBC_final\RX65N_Cloud_Kit\src/tensorflow/lite/micro\micro_mutable_op_resolver.h ****     return AddBuiltin(BuiltinOperator_LESS, tflite::ops::micro::Register_LESS(),
 214:C:\Users\a5116938\Desktop\e2_studio_workspace\EEMBC_final\RX65N_Cloud_Kit\src/tensorflow/lite/micro\micro_mutable_op_resolver.h ****                       ParseLess);
 215:C:\Users\a5116938\Desktop\e2_studio_workspace\EEMBC_final\RX65N_Cloud_Kit\src/tensorflow/lite/micro\micro_mutable_op_resolver.h ****   }
 216:C:\Users\a5116938\Desktop\e2_studio_workspace\EEMBC_final\RX65N_Cloud_Kit\src/tensorflow/lite/micro\micro_mutable_op_resolver.h **** 
 217:C:\Users\a5116938\Desktop\e2_studio_workspace\EEMBC_final\RX65N_Cloud_Kit\src/tensorflow/lite/micro\micro_mutable_op_resolver.h ****   TfLiteStatus AddLessEqual() {
 218:C:\Users\a5116938\Desktop\e2_studio_workspace\EEMBC_final\RX65N_Cloud_Kit\src/tensorflow/lite/micro\micro_mutable_op_resolver.h ****     return AddBuiltin(BuiltinOperator_LESS_EQUAL,
 219:C:\Users\a5116938\Desktop\e2_studio_workspace\EEMBC_final\RX65N_Cloud_Kit\src/tensorflow/lite/micro\micro_mutable_op_resolver.h ****                       tflite::ops::micro::Register_LESS_EQUAL(),
 220:C:\Users\a5116938\Desktop\e2_studio_workspace\EEMBC_final\RX65N_Cloud_Kit\src/tensorflow/lite/micro\micro_mutable_op_resolver.h ****                       ParseLessEqual);
 221:C:\Users\a5116938\Desktop\e2_studio_workspace\EEMBC_final\RX65N_Cloud_Kit\src/tensorflow/lite/micro\micro_mutable_op_resolver.h ****   }
 222:C:\Users\a5116938\Desktop\e2_studio_workspace\EEMBC_final\RX65N_Cloud_Kit\src/tensorflow/lite/micro\micro_mutable_op_resolver.h **** 
 223:C:\Users\a5116938\Desktop\e2_studio_workspace\EEMBC_final\RX65N_Cloud_Kit\src/tensorflow/lite/micro\micro_mutable_op_resolver.h ****   TfLiteStatus AddLog() {
 224:C:\Users\a5116938\Desktop\e2_studio_workspace\EEMBC_final\RX65N_Cloud_Kit\src/tensorflow/lite/micro\micro_mutable_op_resolver.h ****     return AddBuiltin(BuiltinOperator_LOG, tflite::ops::micro::Register_LOG(),
 225:C:\Users\a5116938\Desktop\e2_studio_workspace\EEMBC_final\RX65N_Cloud_Kit\src/tensorflow/lite/micro\micro_mutable_op_resolver.h ****                       ParseLog);
 226:C:\Users\a5116938\Desktop\e2_studio_workspace\EEMBC_final\RX65N_Cloud_Kit\src/tensorflow/lite/micro\micro_mutable_op_resolver.h ****   }
 227:C:\Users\a5116938\Desktop\e2_studio_workspace\EEMBC_final\RX65N_Cloud_Kit\src/tensorflow/lite/micro\micro_mutable_op_resolver.h **** 
 228:C:\Users\a5116938\Desktop\e2_studio_workspace\EEMBC_final\RX65N_Cloud_Kit\src/tensorflow/lite/micro\micro_mutable_op_resolver.h ****   TfLiteStatus AddLogicalAnd() {
 229:C:\Users\a5116938\Desktop\e2_studio_workspace\EEMBC_final\RX65N_Cloud_Kit\src/tensorflow/lite/micro\micro_mutable_op_resolver.h ****     return AddBuiltin(BuiltinOperator_LOGICAL_AND,
 230:C:\Users\a5116938\Desktop\e2_studio_workspace\EEMBC_final\RX65N_Cloud_Kit\src/tensorflow/lite/micro\micro_mutable_op_resolver.h ****                       tflite::ops::micro::Register_LOGICAL_AND(),
 231:C:\Users\a5116938\Desktop\e2_studio_workspace\EEMBC_final\RX65N_Cloud_Kit\src/tensorflow/lite/micro\micro_mutable_op_resolver.h ****                       ParseLogicalAnd);
 232:C:\Users\a5116938\Desktop\e2_studio_workspace\EEMBC_final\RX65N_Cloud_Kit\src/tensorflow/lite/micro\micro_mutable_op_resolver.h ****   }
 233:C:\Users\a5116938\Desktop\e2_studio_workspace\EEMBC_final\RX65N_Cloud_Kit\src/tensorflow/lite/micro\micro_mutable_op_resolver.h **** 
 234:C:\Users\a5116938\Desktop\e2_studio_workspace\EEMBC_final\RX65N_Cloud_Kit\src/tensorflow/lite/micro\micro_mutable_op_resolver.h ****   TfLiteStatus AddLogicalNot() {
 235:C:\Users\a5116938\Desktop\e2_studio_workspace\EEMBC_final\RX65N_Cloud_Kit\src/tensorflow/lite/micro\micro_mutable_op_resolver.h ****     return AddBuiltin(BuiltinOperator_LOGICAL_NOT,
 236:C:\Users\a5116938\Desktop\e2_studio_workspace\EEMBC_final\RX65N_Cloud_Kit\src/tensorflow/lite/micro\micro_mutable_op_resolver.h ****                       tflite::ops::micro::Register_LOGICAL_NOT(),
 237:C:\Users\a5116938\Desktop\e2_studio_workspace\EEMBC_final\RX65N_Cloud_Kit\src/tensorflow/lite/micro\micro_mutable_op_resolver.h ****                       ParseLogicalNot);
 238:C:\Users\a5116938\Desktop\e2_studio_workspace\EEMBC_final\RX65N_Cloud_Kit\src/tensorflow/lite/micro\micro_mutable_op_resolver.h ****   }
 239:C:\Users\a5116938\Desktop\e2_studio_workspace\EEMBC_final\RX65N_Cloud_Kit\src/tensorflow/lite/micro\micro_mutable_op_resolver.h **** 
 240:C:\Users\a5116938\Desktop\e2_studio_workspace\EEMBC_final\RX65N_Cloud_Kit\src/tensorflow/lite/micro\micro_mutable_op_resolver.h ****   TfLiteStatus AddLogicalOr() {
 241:C:\Users\a5116938\Desktop\e2_studio_workspace\EEMBC_final\RX65N_Cloud_Kit\src/tensorflow/lite/micro\micro_mutable_op_resolver.h ****     return AddBuiltin(BuiltinOperator_LOGICAL_OR,
 242:C:\Users\a5116938\Desktop\e2_studio_workspace\EEMBC_final\RX65N_Cloud_Kit\src/tensorflow/lite/micro\micro_mutable_op_resolver.h ****                       tflite::ops::micro::Register_LOGICAL_OR(),
 243:C:\Users\a5116938\Desktop\e2_studio_workspace\EEMBC_final\RX65N_Cloud_Kit\src/tensorflow/lite/micro\micro_mutable_op_resolver.h ****                       ParseLogicalOr);
 244:C:\Users\a5116938\Desktop\e2_studio_workspace\EEMBC_final\RX65N_Cloud_Kit\src/tensorflow/lite/micro\micro_mutable_op_resolver.h ****   }
 245:C:\Users\a5116938\Desktop\e2_studio_workspace\EEMBC_final\RX65N_Cloud_Kit\src/tensorflow/lite/micro\micro_mutable_op_resolver.h **** 
 246:C:\Users\a5116938\Desktop\e2_studio_workspace\EEMBC_final\RX65N_Cloud_Kit\src/tensorflow/lite/micro\micro_mutable_op_resolver.h ****   TfLiteStatus AddLogistic() {
 247:C:\Users\a5116938\Desktop\e2_studio_workspace\EEMBC_final\RX65N_Cloud_Kit\src/tensorflow/lite/micro\micro_mutable_op_resolver.h ****     return AddBuiltin(BuiltinOperator_LOGISTIC,
 248:C:\Users\a5116938\Desktop\e2_studio_workspace\EEMBC_final\RX65N_Cloud_Kit\src/tensorflow/lite/micro\micro_mutable_op_resolver.h ****                       tflite::ops::micro::Register_LOGISTIC(), ParseLogistic);
 249:C:\Users\a5116938\Desktop\e2_studio_workspace\EEMBC_final\RX65N_Cloud_Kit\src/tensorflow/lite/micro\micro_mutable_op_resolver.h ****   }
 250:C:\Users\a5116938\Desktop\e2_studio_workspace\EEMBC_final\RX65N_Cloud_Kit\src/tensorflow/lite/micro\micro_mutable_op_resolver.h **** 
 251:C:\Users\a5116938\Desktop\e2_studio_workspace\EEMBC_final\RX65N_Cloud_Kit\src/tensorflow/lite/micro\micro_mutable_op_resolver.h ****   TfLiteStatus AddMaximum() {
 252:C:\Users\a5116938\Desktop\e2_studio_workspace\EEMBC_final\RX65N_Cloud_Kit\src/tensorflow/lite/micro\micro_mutable_op_resolver.h ****     return AddBuiltin(BuiltinOperator_MAXIMUM,
 253:C:\Users\a5116938\Desktop\e2_studio_workspace\EEMBC_final\RX65N_Cloud_Kit\src/tensorflow/lite/micro\micro_mutable_op_resolver.h ****                       tflite::ops::micro::Register_MAXIMUM(), ParseMaximum);
 254:C:\Users\a5116938\Desktop\e2_studio_workspace\EEMBC_final\RX65N_Cloud_Kit\src/tensorflow/lite/micro\micro_mutable_op_resolver.h ****   }
 255:C:\Users\a5116938\Desktop\e2_studio_workspace\EEMBC_final\RX65N_Cloud_Kit\src/tensorflow/lite/micro\micro_mutable_op_resolver.h **** 
 256:C:\Users\a5116938\Desktop\e2_studio_workspace\EEMBC_final\RX65N_Cloud_Kit\src/tensorflow/lite/micro\micro_mutable_op_resolver.h ****   TfLiteStatus AddMaxPool2D() {
 257:C:\Users\a5116938\Desktop\e2_studio_workspace\EEMBC_final\RX65N_Cloud_Kit\src/tensorflow/lite/micro\micro_mutable_op_resolver.h ****     return AddBuiltin(BuiltinOperator_MAX_POOL_2D,
 258:C:\Users\a5116938\Desktop\e2_studio_workspace\EEMBC_final\RX65N_Cloud_Kit\src/tensorflow/lite/micro\micro_mutable_op_resolver.h ****                       tflite::ops::micro::Register_MAX_POOL_2D(), ParsePool);
 259:C:\Users\a5116938\Desktop\e2_studio_workspace\EEMBC_final\RX65N_Cloud_Kit\src/tensorflow/lite/micro\micro_mutable_op_resolver.h ****   }
 260:C:\Users\a5116938\Desktop\e2_studio_workspace\EEMBC_final\RX65N_Cloud_Kit\src/tensorflow/lite/micro\micro_mutable_op_resolver.h **** 
 261:C:\Users\a5116938\Desktop\e2_studio_workspace\EEMBC_final\RX65N_Cloud_Kit\src/tensorflow/lite/micro\micro_mutable_op_resolver.h ****   TfLiteStatus AddMean() {
 262:C:\Users\a5116938\Desktop\e2_studio_workspace\EEMBC_final\RX65N_Cloud_Kit\src/tensorflow/lite/micro\micro_mutable_op_resolver.h ****     return AddBuiltin(BuiltinOperator_MEAN, tflite::ops::micro::Register_MEAN(),
 263:C:\Users\a5116938\Desktop\e2_studio_workspace\EEMBC_final\RX65N_Cloud_Kit\src/tensorflow/lite/micro\micro_mutable_op_resolver.h ****                       ParseReducer);
 264:C:\Users\a5116938\Desktop\e2_studio_workspace\EEMBC_final\RX65N_Cloud_Kit\src/tensorflow/lite/micro\micro_mutable_op_resolver.h ****   }
 265:C:\Users\a5116938\Desktop\e2_studio_workspace\EEMBC_final\RX65N_Cloud_Kit\src/tensorflow/lite/micro\micro_mutable_op_resolver.h **** 
 266:C:\Users\a5116938\Desktop\e2_studio_workspace\EEMBC_final\RX65N_Cloud_Kit\src/tensorflow/lite/micro\micro_mutable_op_resolver.h ****   TfLiteStatus AddMinimum() {
 267:C:\Users\a5116938\Desktop\e2_studio_workspace\EEMBC_final\RX65N_Cloud_Kit\src/tensorflow/lite/micro\micro_mutable_op_resolver.h ****     return AddBuiltin(BuiltinOperator_MINIMUM,
 268:C:\Users\a5116938\Desktop\e2_studio_workspace\EEMBC_final\RX65N_Cloud_Kit\src/tensorflow/lite/micro\micro_mutable_op_resolver.h ****                       tflite::ops::micro::Register_MINIMUM(), ParseMinimum);
 269:C:\Users\a5116938\Desktop\e2_studio_workspace\EEMBC_final\RX65N_Cloud_Kit\src/tensorflow/lite/micro\micro_mutable_op_resolver.h ****   }
 270:C:\Users\a5116938\Desktop\e2_studio_workspace\EEMBC_final\RX65N_Cloud_Kit\src/tensorflow/lite/micro\micro_mutable_op_resolver.h **** 
 271:C:\Users\a5116938\Desktop\e2_studio_workspace\EEMBC_final\RX65N_Cloud_Kit\src/tensorflow/lite/micro\micro_mutable_op_resolver.h ****   TfLiteStatus AddMul() {
 272:C:\Users\a5116938\Desktop\e2_studio_workspace\EEMBC_final\RX65N_Cloud_Kit\src/tensorflow/lite/micro\micro_mutable_op_resolver.h ****     return AddBuiltin(BuiltinOperator_MUL, tflite::ops::micro::Register_MUL(),
 273:C:\Users\a5116938\Desktop\e2_studio_workspace\EEMBC_final\RX65N_Cloud_Kit\src/tensorflow/lite/micro\micro_mutable_op_resolver.h ****                       ParseMul);
 274:C:\Users\a5116938\Desktop\e2_studio_workspace\EEMBC_final\RX65N_Cloud_Kit\src/tensorflow/lite/micro\micro_mutable_op_resolver.h ****   }
 275:C:\Users\a5116938\Desktop\e2_studio_workspace\EEMBC_final\RX65N_Cloud_Kit\src/tensorflow/lite/micro\micro_mutable_op_resolver.h **** 
 276:C:\Users\a5116938\Desktop\e2_studio_workspace\EEMBC_final\RX65N_Cloud_Kit\src/tensorflow/lite/micro\micro_mutable_op_resolver.h ****   TfLiteStatus AddNeg() {
 277:C:\Users\a5116938\Desktop\e2_studio_workspace\EEMBC_final\RX65N_Cloud_Kit\src/tensorflow/lite/micro\micro_mutable_op_resolver.h ****     return AddBuiltin(BuiltinOperator_NEG, tflite::ops::micro::Register_NEG(),
 278:C:\Users\a5116938\Desktop\e2_studio_workspace\EEMBC_final\RX65N_Cloud_Kit\src/tensorflow/lite/micro\micro_mutable_op_resolver.h ****                       ParseNeg);
 279:C:\Users\a5116938\Desktop\e2_studio_workspace\EEMBC_final\RX65N_Cloud_Kit\src/tensorflow/lite/micro\micro_mutable_op_resolver.h ****   }
 280:C:\Users\a5116938\Desktop\e2_studio_workspace\EEMBC_final\RX65N_Cloud_Kit\src/tensorflow/lite/micro\micro_mutable_op_resolver.h **** 
 281:C:\Users\a5116938\Desktop\e2_studio_workspace\EEMBC_final\RX65N_Cloud_Kit\src/tensorflow/lite/micro\micro_mutable_op_resolver.h ****   TfLiteStatus AddNotEqual() {
 282:C:\Users\a5116938\Desktop\e2_studio_workspace\EEMBC_final\RX65N_Cloud_Kit\src/tensorflow/lite/micro\micro_mutable_op_resolver.h ****     return AddBuiltin(BuiltinOperator_NOT_EQUAL,
 283:C:\Users\a5116938\Desktop\e2_studio_workspace\EEMBC_final\RX65N_Cloud_Kit\src/tensorflow/lite/micro\micro_mutable_op_resolver.h ****                       tflite::ops::micro::Register_NOT_EQUAL(), ParseNotEqual);
 284:C:\Users\a5116938\Desktop\e2_studio_workspace\EEMBC_final\RX65N_Cloud_Kit\src/tensorflow/lite/micro\micro_mutable_op_resolver.h ****   }
 285:C:\Users\a5116938\Desktop\e2_studio_workspace\EEMBC_final\RX65N_Cloud_Kit\src/tensorflow/lite/micro\micro_mutable_op_resolver.h **** 
 286:C:\Users\a5116938\Desktop\e2_studio_workspace\EEMBC_final\RX65N_Cloud_Kit\src/tensorflow/lite/micro\micro_mutable_op_resolver.h ****   TfLiteStatus AddPack() {
 287:C:\Users\a5116938\Desktop\e2_studio_workspace\EEMBC_final\RX65N_Cloud_Kit\src/tensorflow/lite/micro\micro_mutable_op_resolver.h ****     return AddBuiltin(BuiltinOperator_PACK, tflite::ops::micro::Register_PACK(),
 288:C:\Users\a5116938\Desktop\e2_studio_workspace\EEMBC_final\RX65N_Cloud_Kit\src/tensorflow/lite/micro\micro_mutable_op_resolver.h ****                       ParsePack);
 289:C:\Users\a5116938\Desktop\e2_studio_workspace\EEMBC_final\RX65N_Cloud_Kit\src/tensorflow/lite/micro\micro_mutable_op_resolver.h ****   }
 290:C:\Users\a5116938\Desktop\e2_studio_workspace\EEMBC_final\RX65N_Cloud_Kit\src/tensorflow/lite/micro\micro_mutable_op_resolver.h **** 
 291:C:\Users\a5116938\Desktop\e2_studio_workspace\EEMBC_final\RX65N_Cloud_Kit\src/tensorflow/lite/micro\micro_mutable_op_resolver.h ****   TfLiteStatus AddPad() {
 292:C:\Users\a5116938\Desktop\e2_studio_workspace\EEMBC_final\RX65N_Cloud_Kit\src/tensorflow/lite/micro\micro_mutable_op_resolver.h ****     return AddBuiltin(BuiltinOperator_PAD, tflite::ops::micro::Register_PAD(),
 293:C:\Users\a5116938\Desktop\e2_studio_workspace\EEMBC_final\RX65N_Cloud_Kit\src/tensorflow/lite/micro\micro_mutable_op_resolver.h ****                       ParsePad);
 294:C:\Users\a5116938\Desktop\e2_studio_workspace\EEMBC_final\RX65N_Cloud_Kit\src/tensorflow/lite/micro\micro_mutable_op_resolver.h ****   }
 295:C:\Users\a5116938\Desktop\e2_studio_workspace\EEMBC_final\RX65N_Cloud_Kit\src/tensorflow/lite/micro\micro_mutable_op_resolver.h **** 
 296:C:\Users\a5116938\Desktop\e2_studio_workspace\EEMBC_final\RX65N_Cloud_Kit\src/tensorflow/lite/micro\micro_mutable_op_resolver.h ****   TfLiteStatus AddPadV2() {
 297:C:\Users\a5116938\Desktop\e2_studio_workspace\EEMBC_final\RX65N_Cloud_Kit\src/tensorflow/lite/micro\micro_mutable_op_resolver.h ****     return AddBuiltin(BuiltinOperator_PADV2,
 298:C:\Users\a5116938\Desktop\e2_studio_workspace\EEMBC_final\RX65N_Cloud_Kit\src/tensorflow/lite/micro\micro_mutable_op_resolver.h ****                       tflite::ops::micro::Register_PADV2(), ParsePadV2);
 299:C:\Users\a5116938\Desktop\e2_studio_workspace\EEMBC_final\RX65N_Cloud_Kit\src/tensorflow/lite/micro\micro_mutable_op_resolver.h ****   }
 300:C:\Users\a5116938\Desktop\e2_studio_workspace\EEMBC_final\RX65N_Cloud_Kit\src/tensorflow/lite/micro\micro_mutable_op_resolver.h **** 
 301:C:\Users\a5116938\Desktop\e2_studio_workspace\EEMBC_final\RX65N_Cloud_Kit\src/tensorflow/lite/micro\micro_mutable_op_resolver.h ****   TfLiteStatus AddPrelu() {
 302:C:\Users\a5116938\Desktop\e2_studio_workspace\EEMBC_final\RX65N_Cloud_Kit\src/tensorflow/lite/micro\micro_mutable_op_resolver.h ****     return AddBuiltin(BuiltinOperator_PRELU,
 303:C:\Users\a5116938\Desktop\e2_studio_workspace\EEMBC_final\RX65N_Cloud_Kit\src/tensorflow/lite/micro\micro_mutable_op_resolver.h ****                       tflite::ops::micro::Register_PRELU(), ParsePrelu);
 304:C:\Users\a5116938\Desktop\e2_studio_workspace\EEMBC_final\RX65N_Cloud_Kit\src/tensorflow/lite/micro\micro_mutable_op_resolver.h ****   }
 305:C:\Users\a5116938\Desktop\e2_studio_workspace\EEMBC_final\RX65N_Cloud_Kit\src/tensorflow/lite/micro\micro_mutable_op_resolver.h **** 
 306:C:\Users\a5116938\Desktop\e2_studio_workspace\EEMBC_final\RX65N_Cloud_Kit\src/tensorflow/lite/micro\micro_mutable_op_resolver.h ****   TfLiteStatus AddQuantize() {
 307:C:\Users\a5116938\Desktop\e2_studio_workspace\EEMBC_final\RX65N_Cloud_Kit\src/tensorflow/lite/micro\micro_mutable_op_resolver.h ****     return AddBuiltin(BuiltinOperator_QUANTIZE, Register_QUANTIZE(),
 308:C:\Users\a5116938\Desktop\e2_studio_workspace\EEMBC_final\RX65N_Cloud_Kit\src/tensorflow/lite/micro\micro_mutable_op_resolver.h ****                       ParseQuantize);
 309:C:\Users\a5116938\Desktop\e2_studio_workspace\EEMBC_final\RX65N_Cloud_Kit\src/tensorflow/lite/micro\micro_mutable_op_resolver.h ****   }
 310:C:\Users\a5116938\Desktop\e2_studio_workspace\EEMBC_final\RX65N_Cloud_Kit\src/tensorflow/lite/micro\micro_mutable_op_resolver.h **** 
 311:C:\Users\a5116938\Desktop\e2_studio_workspace\EEMBC_final\RX65N_Cloud_Kit\src/tensorflow/lite/micro\micro_mutable_op_resolver.h ****   TfLiteStatus AddReduceMax() {
 312:C:\Users\a5116938\Desktop\e2_studio_workspace\EEMBC_final\RX65N_Cloud_Kit\src/tensorflow/lite/micro\micro_mutable_op_resolver.h ****     return AddBuiltin(BuiltinOperator_REDUCE_MAX,
 313:C:\Users\a5116938\Desktop\e2_studio_workspace\EEMBC_final\RX65N_Cloud_Kit\src/tensorflow/lite/micro\micro_mutable_op_resolver.h ****                       tflite::ops::micro::Register_REDUCE_MAX(), ParseReducer);
 314:C:\Users\a5116938\Desktop\e2_studio_workspace\EEMBC_final\RX65N_Cloud_Kit\src/tensorflow/lite/micro\micro_mutable_op_resolver.h ****   }
 315:C:\Users\a5116938\Desktop\e2_studio_workspace\EEMBC_final\RX65N_Cloud_Kit\src/tensorflow/lite/micro\micro_mutable_op_resolver.h **** 
 316:C:\Users\a5116938\Desktop\e2_studio_workspace\EEMBC_final\RX65N_Cloud_Kit\src/tensorflow/lite/micro\micro_mutable_op_resolver.h ****   TfLiteStatus AddRelu() {
 317:C:\Users\a5116938\Desktop\e2_studio_workspace\EEMBC_final\RX65N_Cloud_Kit\src/tensorflow/lite/micro\micro_mutable_op_resolver.h ****     return AddBuiltin(BuiltinOperator_RELU, tflite::ops::micro::Register_RELU(),
 318:C:\Users\a5116938\Desktop\e2_studio_workspace\EEMBC_final\RX65N_Cloud_Kit\src/tensorflow/lite/micro\micro_mutable_op_resolver.h ****                       ParseRelu);
 319:C:\Users\a5116938\Desktop\e2_studio_workspace\EEMBC_final\RX65N_Cloud_Kit\src/tensorflow/lite/micro\micro_mutable_op_resolver.h ****   }
 320:C:\Users\a5116938\Desktop\e2_studio_workspace\EEMBC_final\RX65N_Cloud_Kit\src/tensorflow/lite/micro\micro_mutable_op_resolver.h **** 
 321:C:\Users\a5116938\Desktop\e2_studio_workspace\EEMBC_final\RX65N_Cloud_Kit\src/tensorflow/lite/micro\micro_mutable_op_resolver.h ****   TfLiteStatus AddRelu6() {
 322:C:\Users\a5116938\Desktop\e2_studio_workspace\EEMBC_final\RX65N_Cloud_Kit\src/tensorflow/lite/micro\micro_mutable_op_resolver.h ****     return AddBuiltin(BuiltinOperator_RELU6,
 323:C:\Users\a5116938\Desktop\e2_studio_workspace\EEMBC_final\RX65N_Cloud_Kit\src/tensorflow/lite/micro\micro_mutable_op_resolver.h ****                       tflite::ops::micro::Register_RELU6(), ParseRelu6);
 324:C:\Users\a5116938\Desktop\e2_studio_workspace\EEMBC_final\RX65N_Cloud_Kit\src/tensorflow/lite/micro\micro_mutable_op_resolver.h ****   }
 325:C:\Users\a5116938\Desktop\e2_studio_workspace\EEMBC_final\RX65N_Cloud_Kit\src/tensorflow/lite/micro\micro_mutable_op_resolver.h **** 
 326:C:\Users\a5116938\Desktop\e2_studio_workspace\EEMBC_final\RX65N_Cloud_Kit\src/tensorflow/lite/micro\micro_mutable_op_resolver.h ****   TfLiteStatus AddReshape() {
 327:C:\Users\a5116938\Desktop\e2_studio_workspace\EEMBC_final\RX65N_Cloud_Kit\src/tensorflow/lite/micro\micro_mutable_op_resolver.h ****     return AddBuiltin(BuiltinOperator_RESHAPE,
 328:C:\Users\a5116938\Desktop\e2_studio_workspace\EEMBC_final\RX65N_Cloud_Kit\src/tensorflow/lite/micro\micro_mutable_op_resolver.h ****                       tflite::ops::micro::Register_RESHAPE(), ParseReshape);
 329:C:\Users\a5116938\Desktop\e2_studio_workspace\EEMBC_final\RX65N_Cloud_Kit\src/tensorflow/lite/micro\micro_mutable_op_resolver.h ****   }
 330:C:\Users\a5116938\Desktop\e2_studio_workspace\EEMBC_final\RX65N_Cloud_Kit\src/tensorflow/lite/micro\micro_mutable_op_resolver.h **** 
 331:C:\Users\a5116938\Desktop\e2_studio_workspace\EEMBC_final\RX65N_Cloud_Kit\src/tensorflow/lite/micro\micro_mutable_op_resolver.h ****   TfLiteStatus AddResizeNearestNeighbor() {
 332:C:\Users\a5116938\Desktop\e2_studio_workspace\EEMBC_final\RX65N_Cloud_Kit\src/tensorflow/lite/micro\micro_mutable_op_resolver.h ****     return AddBuiltin(BuiltinOperator_RESIZE_NEAREST_NEIGHBOR,
 333:C:\Users\a5116938\Desktop\e2_studio_workspace\EEMBC_final\RX65N_Cloud_Kit\src/tensorflow/lite/micro\micro_mutable_op_resolver.h ****                       tflite::ops::micro::Register_RESIZE_NEAREST_NEIGHBOR(),
 334:C:\Users\a5116938\Desktop\e2_studio_workspace\EEMBC_final\RX65N_Cloud_Kit\src/tensorflow/lite/micro\micro_mutable_op_resolver.h ****                       ParseResizeNearestNeighbor);
 335:C:\Users\a5116938\Desktop\e2_studio_workspace\EEMBC_final\RX65N_Cloud_Kit\src/tensorflow/lite/micro\micro_mutable_op_resolver.h ****   }
 336:C:\Users\a5116938\Desktop\e2_studio_workspace\EEMBC_final\RX65N_Cloud_Kit\src/tensorflow/lite/micro\micro_mutable_op_resolver.h **** 
 337:C:\Users\a5116938\Desktop\e2_studio_workspace\EEMBC_final\RX65N_Cloud_Kit\src/tensorflow/lite/micro\micro_mutable_op_resolver.h ****   TfLiteStatus AddRound() {
 338:C:\Users\a5116938\Desktop\e2_studio_workspace\EEMBC_final\RX65N_Cloud_Kit\src/tensorflow/lite/micro\micro_mutable_op_resolver.h ****     return AddBuiltin(BuiltinOperator_ROUND,
 339:C:\Users\a5116938\Desktop\e2_studio_workspace\EEMBC_final\RX65N_Cloud_Kit\src/tensorflow/lite/micro\micro_mutable_op_resolver.h ****                       tflite::ops::micro::Register_ROUND(), ParseRound);
 340:C:\Users\a5116938\Desktop\e2_studio_workspace\EEMBC_final\RX65N_Cloud_Kit\src/tensorflow/lite/micro\micro_mutable_op_resolver.h ****   }
 341:C:\Users\a5116938\Desktop\e2_studio_workspace\EEMBC_final\RX65N_Cloud_Kit\src/tensorflow/lite/micro\micro_mutable_op_resolver.h **** 
 342:C:\Users\a5116938\Desktop\e2_studio_workspace\EEMBC_final\RX65N_Cloud_Kit\src/tensorflow/lite/micro\micro_mutable_op_resolver.h ****   TfLiteStatus AddRsqrt() {
 343:C:\Users\a5116938\Desktop\e2_studio_workspace\EEMBC_final\RX65N_Cloud_Kit\src/tensorflow/lite/micro\micro_mutable_op_resolver.h ****     return AddBuiltin(BuiltinOperator_RSQRT,
 344:C:\Users\a5116938\Desktop\e2_studio_workspace\EEMBC_final\RX65N_Cloud_Kit\src/tensorflow/lite/micro\micro_mutable_op_resolver.h ****                       tflite::ops::micro::Register_RSQRT(), ParseRsqrt);
 345:C:\Users\a5116938\Desktop\e2_studio_workspace\EEMBC_final\RX65N_Cloud_Kit\src/tensorflow/lite/micro\micro_mutable_op_resolver.h ****   }
 346:C:\Users\a5116938\Desktop\e2_studio_workspace\EEMBC_final\RX65N_Cloud_Kit\src/tensorflow/lite/micro\micro_mutable_op_resolver.h **** 
 347:C:\Users\a5116938\Desktop\e2_studio_workspace\EEMBC_final\RX65N_Cloud_Kit\src/tensorflow/lite/micro\micro_mutable_op_resolver.h ****   TfLiteStatus AddShape() {
 348:C:\Users\a5116938\Desktop\e2_studio_workspace\EEMBC_final\RX65N_Cloud_Kit\src/tensorflow/lite/micro\micro_mutable_op_resolver.h ****     return AddBuiltin(BuiltinOperator_SHAPE, Register_SHAPE(), ParseShape);
 349:C:\Users\a5116938\Desktop\e2_studio_workspace\EEMBC_final\RX65N_Cloud_Kit\src/tensorflow/lite/micro\micro_mutable_op_resolver.h ****   }
 350:C:\Users\a5116938\Desktop\e2_studio_workspace\EEMBC_final\RX65N_Cloud_Kit\src/tensorflow/lite/micro\micro_mutable_op_resolver.h **** 
 351:C:\Users\a5116938\Desktop\e2_studio_workspace\EEMBC_final\RX65N_Cloud_Kit\src/tensorflow/lite/micro\micro_mutable_op_resolver.h ****   TfLiteStatus AddSin() {
 352:C:\Users\a5116938\Desktop\e2_studio_workspace\EEMBC_final\RX65N_Cloud_Kit\src/tensorflow/lite/micro\micro_mutable_op_resolver.h ****     return AddBuiltin(BuiltinOperator_SIN, tflite::ops::micro::Register_SIN(),
 353:C:\Users\a5116938\Desktop\e2_studio_workspace\EEMBC_final\RX65N_Cloud_Kit\src/tensorflow/lite/micro\micro_mutable_op_resolver.h ****                       ParseSin);
 354:C:\Users\a5116938\Desktop\e2_studio_workspace\EEMBC_final\RX65N_Cloud_Kit\src/tensorflow/lite/micro\micro_mutable_op_resolver.h ****   }
 355:C:\Users\a5116938\Desktop\e2_studio_workspace\EEMBC_final\RX65N_Cloud_Kit\src/tensorflow/lite/micro\micro_mutable_op_resolver.h **** 
 356:C:\Users\a5116938\Desktop\e2_studio_workspace\EEMBC_final\RX65N_Cloud_Kit\src/tensorflow/lite/micro\micro_mutable_op_resolver.h ****   TfLiteStatus AddSoftmax() {
 357:C:\Users\a5116938\Desktop\e2_studio_workspace\EEMBC_final\RX65N_Cloud_Kit\src/tensorflow/lite/micro\micro_mutable_op_resolver.h ****     return AddBuiltin(BuiltinOperator_SOFTMAX, Register_SOFTMAX(),
 358:C:\Users\a5116938\Desktop\e2_studio_workspace\EEMBC_final\RX65N_Cloud_Kit\src/tensorflow/lite/micro\micro_mutable_op_resolver.h ****                       ParseSoftmax);
 359:C:\Users\a5116938\Desktop\e2_studio_workspace\EEMBC_final\RX65N_Cloud_Kit\src/tensorflow/lite/micro\micro_mutable_op_resolver.h ****   }
 360:C:\Users\a5116938\Desktop\e2_studio_workspace\EEMBC_final\RX65N_Cloud_Kit\src/tensorflow/lite/micro\micro_mutable_op_resolver.h **** 
 361:C:\Users\a5116938\Desktop\e2_studio_workspace\EEMBC_final\RX65N_Cloud_Kit\src/tensorflow/lite/micro\micro_mutable_op_resolver.h ****   TfLiteStatus AddSplit() {
 362:C:\Users\a5116938\Desktop\e2_studio_workspace\EEMBC_final\RX65N_Cloud_Kit\src/tensorflow/lite/micro\micro_mutable_op_resolver.h ****     return AddBuiltin(BuiltinOperator_SPLIT,
 363:C:\Users\a5116938\Desktop\e2_studio_workspace\EEMBC_final\RX65N_Cloud_Kit\src/tensorflow/lite/micro\micro_mutable_op_resolver.h ****                       tflite::ops::micro::Register_SPLIT(), ParseSplit);
 364:C:\Users\a5116938\Desktop\e2_studio_workspace\EEMBC_final\RX65N_Cloud_Kit\src/tensorflow/lite/micro\micro_mutable_op_resolver.h ****   }
 365:C:\Users\a5116938\Desktop\e2_studio_workspace\EEMBC_final\RX65N_Cloud_Kit\src/tensorflow/lite/micro\micro_mutable_op_resolver.h **** 
 366:C:\Users\a5116938\Desktop\e2_studio_workspace\EEMBC_final\RX65N_Cloud_Kit\src/tensorflow/lite/micro\micro_mutable_op_resolver.h ****   TfLiteStatus AddSplitV() {
 367:C:\Users\a5116938\Desktop\e2_studio_workspace\EEMBC_final\RX65N_Cloud_Kit\src/tensorflow/lite/micro\micro_mutable_op_resolver.h ****     return AddBuiltin(BuiltinOperator_SPLIT_V,
 368:C:\Users\a5116938\Desktop\e2_studio_workspace\EEMBC_final\RX65N_Cloud_Kit\src/tensorflow/lite/micro\micro_mutable_op_resolver.h ****                       tflite::ops::micro::Register_SPLIT_V(), ParseSplitV);
 369:C:\Users\a5116938\Desktop\e2_studio_workspace\EEMBC_final\RX65N_Cloud_Kit\src/tensorflow/lite/micro\micro_mutable_op_resolver.h ****   }
 370:C:\Users\a5116938\Desktop\e2_studio_workspace\EEMBC_final\RX65N_Cloud_Kit\src/tensorflow/lite/micro\micro_mutable_op_resolver.h **** 
 371:C:\Users\a5116938\Desktop\e2_studio_workspace\EEMBC_final\RX65N_Cloud_Kit\src/tensorflow/lite/micro\micro_mutable_op_resolver.h ****   TfLiteStatus AddSqrt() {
 372:C:\Users\a5116938\Desktop\e2_studio_workspace\EEMBC_final\RX65N_Cloud_Kit\src/tensorflow/lite/micro\micro_mutable_op_resolver.h ****     return AddBuiltin(BuiltinOperator_SQRT, tflite::ops::micro::Register_SQRT(),
 373:C:\Users\a5116938\Desktop\e2_studio_workspace\EEMBC_final\RX65N_Cloud_Kit\src/tensorflow/lite/micro\micro_mutable_op_resolver.h ****                       ParseSqrt);
 374:C:\Users\a5116938\Desktop\e2_studio_workspace\EEMBC_final\RX65N_Cloud_Kit\src/tensorflow/lite/micro\micro_mutable_op_resolver.h ****   }
 375:C:\Users\a5116938\Desktop\e2_studio_workspace\EEMBC_final\RX65N_Cloud_Kit\src/tensorflow/lite/micro\micro_mutable_op_resolver.h **** 
 376:C:\Users\a5116938\Desktop\e2_studio_workspace\EEMBC_final\RX65N_Cloud_Kit\src/tensorflow/lite/micro\micro_mutable_op_resolver.h ****   TfLiteStatus AddSquare() {
 377:C:\Users\a5116938\Desktop\e2_studio_workspace\EEMBC_final\RX65N_Cloud_Kit\src/tensorflow/lite/micro\micro_mutable_op_resolver.h ****     return AddBuiltin(BuiltinOperator_SQUARE,
 378:C:\Users\a5116938\Desktop\e2_studio_workspace\EEMBC_final\RX65N_Cloud_Kit\src/tensorflow/lite/micro\micro_mutable_op_resolver.h ****                       tflite::ops::micro::Register_SQUARE(), ParseSquare);
 379:C:\Users\a5116938\Desktop\e2_studio_workspace\EEMBC_final\RX65N_Cloud_Kit\src/tensorflow/lite/micro\micro_mutable_op_resolver.h ****   }
 380:C:\Users\a5116938\Desktop\e2_studio_workspace\EEMBC_final\RX65N_Cloud_Kit\src/tensorflow/lite/micro\micro_mutable_op_resolver.h **** 
 381:C:\Users\a5116938\Desktop\e2_studio_workspace\EEMBC_final\RX65N_Cloud_Kit\src/tensorflow/lite/micro\micro_mutable_op_resolver.h ****   TfLiteStatus AddStridedSlice() {
 382:C:\Users\a5116938\Desktop\e2_studio_workspace\EEMBC_final\RX65N_Cloud_Kit\src/tensorflow/lite/micro\micro_mutable_op_resolver.h ****     return AddBuiltin(BuiltinOperator_STRIDED_SLICE,
 383:C:\Users\a5116938\Desktop\e2_studio_workspace\EEMBC_final\RX65N_Cloud_Kit\src/tensorflow/lite/micro\micro_mutable_op_resolver.h ****                       tflite::ops::micro::Register_STRIDED_SLICE(),
 384:C:\Users\a5116938\Desktop\e2_studio_workspace\EEMBC_final\RX65N_Cloud_Kit\src/tensorflow/lite/micro\micro_mutable_op_resolver.h ****                       ParseStridedSlice);
 385:C:\Users\a5116938\Desktop\e2_studio_workspace\EEMBC_final\RX65N_Cloud_Kit\src/tensorflow/lite/micro\micro_mutable_op_resolver.h ****   }
 386:C:\Users\a5116938\Desktop\e2_studio_workspace\EEMBC_final\RX65N_Cloud_Kit\src/tensorflow/lite/micro\micro_mutable_op_resolver.h **** 
 387:C:\Users\a5116938\Desktop\e2_studio_workspace\EEMBC_final\RX65N_Cloud_Kit\src/tensorflow/lite/micro\micro_mutable_op_resolver.h ****   TfLiteStatus AddSub() {
 388:C:\Users\a5116938\Desktop\e2_studio_workspace\EEMBC_final\RX65N_Cloud_Kit\src/tensorflow/lite/micro\micro_mutable_op_resolver.h ****     return AddBuiltin(BuiltinOperator_SUB, tflite::ops::micro::Register_SUB(),
 389:C:\Users\a5116938\Desktop\e2_studio_workspace\EEMBC_final\RX65N_Cloud_Kit\src/tensorflow/lite/micro\micro_mutable_op_resolver.h ****                       ParseSub);
 390:C:\Users\a5116938\Desktop\e2_studio_workspace\EEMBC_final\RX65N_Cloud_Kit\src/tensorflow/lite/micro\micro_mutable_op_resolver.h ****   }
 391:C:\Users\a5116938\Desktop\e2_studio_workspace\EEMBC_final\RX65N_Cloud_Kit\src/tensorflow/lite/micro\micro_mutable_op_resolver.h **** 
 392:C:\Users\a5116938\Desktop\e2_studio_workspace\EEMBC_final\RX65N_Cloud_Kit\src/tensorflow/lite/micro\micro_mutable_op_resolver.h ****   TfLiteStatus AddSvdf() {
 393:C:\Users\a5116938\Desktop\e2_studio_workspace\EEMBC_final\RX65N_Cloud_Kit\src/tensorflow/lite/micro\micro_mutable_op_resolver.h ****     return AddBuiltin(BuiltinOperator_SVDF, Register_SVDF(), ParseSvdf);
 394:C:\Users\a5116938\Desktop\e2_studio_workspace\EEMBC_final\RX65N_Cloud_Kit\src/tensorflow/lite/micro\micro_mutable_op_resolver.h ****   }
 395:C:\Users\a5116938\Desktop\e2_studio_workspace\EEMBC_final\RX65N_Cloud_Kit\src/tensorflow/lite/micro\micro_mutable_op_resolver.h **** 
 396:C:\Users\a5116938\Desktop\e2_studio_workspace\EEMBC_final\RX65N_Cloud_Kit\src/tensorflow/lite/micro\micro_mutable_op_resolver.h ****   TfLiteStatus AddTanh() {
 397:C:\Users\a5116938\Desktop\e2_studio_workspace\EEMBC_final\RX65N_Cloud_Kit\src/tensorflow/lite/micro\micro_mutable_op_resolver.h ****     return AddBuiltin(BuiltinOperator_TANH, tflite::ops::micro::Register_TANH(),
 398:C:\Users\a5116938\Desktop\e2_studio_workspace\EEMBC_final\RX65N_Cloud_Kit\src/tensorflow/lite/micro\micro_mutable_op_resolver.h ****                       ParseTanh);
 399:C:\Users\a5116938\Desktop\e2_studio_workspace\EEMBC_final\RX65N_Cloud_Kit\src/tensorflow/lite/micro\micro_mutable_op_resolver.h ****   }
 400:C:\Users\a5116938\Desktop\e2_studio_workspace\EEMBC_final\RX65N_Cloud_Kit\src/tensorflow/lite/micro\micro_mutable_op_resolver.h **** 
 401:C:\Users\a5116938\Desktop\e2_studio_workspace\EEMBC_final\RX65N_Cloud_Kit\src/tensorflow/lite/micro\micro_mutable_op_resolver.h ****   TfLiteStatus AddUnpack() {
 402:C:\Users\a5116938\Desktop\e2_studio_workspace\EEMBC_final\RX65N_Cloud_Kit\src/tensorflow/lite/micro\micro_mutable_op_resolver.h ****     return AddBuiltin(BuiltinOperator_UNPACK,
 403:C:\Users\a5116938\Desktop\e2_studio_workspace\EEMBC_final\RX65N_Cloud_Kit\src/tensorflow/lite/micro\micro_mutable_op_resolver.h ****                       tflite::ops::micro::Register_UNPACK(), ParseUnpack);
 404:C:\Users\a5116938\Desktop\e2_studio_workspace\EEMBC_final\RX65N_Cloud_Kit\src/tensorflow/lite/micro\micro_mutable_op_resolver.h ****   }
 405:C:\Users\a5116938\Desktop\e2_studio_workspace\EEMBC_final\RX65N_Cloud_Kit\src/tensorflow/lite/micro\micro_mutable_op_resolver.h **** 
 406:C:\Users\a5116938\Desktop\e2_studio_workspace\EEMBC_final\RX65N_Cloud_Kit\src/tensorflow/lite/micro\micro_mutable_op_resolver.h ****   unsigned int GetRegistrationLength() { return registrations_len_; }
 407:C:\Users\a5116938\Desktop\e2_studio_workspace\EEMBC_final\RX65N_Cloud_Kit\src/tensorflow/lite/micro\micro_mutable_op_resolver.h **** 
 408:C:\Users\a5116938\Desktop\e2_studio_workspace\EEMBC_final\RX65N_Cloud_Kit\src/tensorflow/lite/micro\micro_mutable_op_resolver.h ****  private:
 409:C:\Users\a5116938\Desktop\e2_studio_workspace\EEMBC_final\RX65N_Cloud_Kit\src/tensorflow/lite/micro\micro_mutable_op_resolver.h ****   TF_LITE_REMOVE_VIRTUAL_DELETE
 410:C:\Users\a5116938\Desktop\e2_studio_workspace\EEMBC_final\RX65N_Cloud_Kit\src/tensorflow/lite/micro\micro_mutable_op_resolver.h **** 
 411:C:\Users\a5116938\Desktop\e2_studio_workspace\EEMBC_final\RX65N_Cloud_Kit\src/tensorflow/lite/micro\micro_mutable_op_resolver.h ****   TfLiteStatus AddBuiltin(tflite::BuiltinOperator op,
 412:C:\Users\a5116938\Desktop\e2_studio_workspace\EEMBC_final\RX65N_Cloud_Kit\src/tensorflow/lite/micro\micro_mutable_op_resolver.h ****                           const TfLiteRegistration& registration,
 413:C:\Users\a5116938\Desktop\e2_studio_workspace\EEMBC_final\RX65N_Cloud_Kit\src/tensorflow/lite/micro\micro_mutable_op_resolver.h ****                           MicroOpResolver::BuiltinParseFunction parser) {
 414:C:\Users\a5116938\Desktop\e2_studio_workspace\EEMBC_final\RX65N_Cloud_Kit\src/tensorflow/lite/micro\micro_mutable_op_resolver.h ****     if (op == BuiltinOperator_CUSTOM) {
 415:C:\Users\a5116938\Desktop\e2_studio_workspace\EEMBC_final\RX65N_Cloud_Kit\src/tensorflow/lite/micro\micro_mutable_op_resolver.h ****       if (error_reporter_ != nullptr) {
 416:C:\Users\a5116938\Desktop\e2_studio_workspace\EEMBC_final\RX65N_Cloud_Kit\src/tensorflow/lite/micro\micro_mutable_op_resolver.h ****         TF_LITE_REPORT_ERROR(error_reporter_,
 417:C:\Users\a5116938\Desktop\e2_studio_workspace\EEMBC_final\RX65N_Cloud_Kit\src/tensorflow/lite/micro\micro_mutable_op_resolver.h ****                              "Invalid parameter BuiltinOperator_CUSTOM to the "
 418:C:\Users\a5116938\Desktop\e2_studio_workspace\EEMBC_final\RX65N_Cloud_Kit\src/tensorflow/lite/micro\micro_mutable_op_resolver.h ****                              "AddBuiltin function.");
 419:C:\Users\a5116938\Desktop\e2_studio_workspace\EEMBC_final\RX65N_Cloud_Kit\src/tensorflow/lite/micro\micro_mutable_op_resolver.h ****       }
 420:C:\Users\a5116938\Desktop\e2_studio_workspace\EEMBC_final\RX65N_Cloud_Kit\src/tensorflow/lite/micro\micro_mutable_op_resolver.h ****       return kTfLiteError;
 421:C:\Users\a5116938\Desktop\e2_studio_workspace\EEMBC_final\RX65N_Cloud_Kit\src/tensorflow/lite/micro\micro_mutable_op_resolver.h ****     }
 422:C:\Users\a5116938\Desktop\e2_studio_workspace\EEMBC_final\RX65N_Cloud_Kit\src/tensorflow/lite/micro\micro_mutable_op_resolver.h **** 
 423:C:\Users\a5116938\Desktop\e2_studio_workspace\EEMBC_final\RX65N_Cloud_Kit\src/tensorflow/lite/micro\micro_mutable_op_resolver.h ****     if (FindOp(op) != nullptr) {
 424:C:\Users\a5116938\Desktop\e2_studio_workspace\EEMBC_final\RX65N_Cloud_Kit\src/tensorflow/lite/micro\micro_mutable_op_resolver.h ****       if (error_reporter_ != nullptr) {
 425:C:\Users\a5116938\Desktop\e2_studio_workspace\EEMBC_final\RX65N_Cloud_Kit\src/tensorflow/lite/micro\micro_mutable_op_resolver.h ****         TF_LITE_REPORT_ERROR(error_reporter_,
 426:C:\Users\a5116938\Desktop\e2_studio_workspace\EEMBC_final\RX65N_Cloud_Kit\src/tensorflow/lite/micro\micro_mutable_op_resolver.h ****                              "Calling AddBuiltin with the same op more than "
 427:C:\Users\a5116938\Desktop\e2_studio_workspace\EEMBC_final\RX65N_Cloud_Kit\src/tensorflow/lite/micro\micro_mutable_op_resolver.h ****                              "once is not supported (Op: #%d).",
 428:C:\Users\a5116938\Desktop\e2_studio_workspace\EEMBC_final\RX65N_Cloud_Kit\src/tensorflow/lite/micro\micro_mutable_op_resolver.h ****                              op);
 429:C:\Users\a5116938\Desktop\e2_studio_workspace\EEMBC_final\RX65N_Cloud_Kit\src/tensorflow/lite/micro\micro_mutable_op_resolver.h ****       }
 430:C:\Users\a5116938\Desktop\e2_studio_workspace\EEMBC_final\RX65N_Cloud_Kit\src/tensorflow/lite/micro\micro_mutable_op_resolver.h ****       return kTfLiteError;
 431:C:\Users\a5116938\Desktop\e2_studio_workspace\EEMBC_final\RX65N_Cloud_Kit\src/tensorflow/lite/micro\micro_mutable_op_resolver.h ****     }
 432:C:\Users\a5116938\Desktop\e2_studio_workspace\EEMBC_final\RX65N_Cloud_Kit\src/tensorflow/lite/micro\micro_mutable_op_resolver.h **** 
 433:C:\Users\a5116938\Desktop\e2_studio_workspace\EEMBC_final\RX65N_Cloud_Kit\src/tensorflow/lite/micro\micro_mutable_op_resolver.h ****     if (registrations_len_ >= tOpCount) {
 593                             		.loc 3 433 5
 594 0051 75 55 80                		cmp	#0x80, r5
 595 0054 3A 18 23                		beq	.L514
 596 0057 71 54 01                		add	#1, r5, r4
 597                             		.balign 8,3,1
 598                             	.L58:
 434:C:\Users\a5116938\Desktop\e2_studio_workspace\EEMBC_final\RX65N_Cloud_Kit\src/tensorflow/lite/micro\micro_mutable_op_resolver.h ****       if (error_reporter_) {
 435:C:\Users\a5116938\Desktop\e2_studio_workspace\EEMBC_final\RX65N_Cloud_Kit\src/tensorflow/lite/micro\micro_mutable_op_resolver.h ****         TF_LITE_REPORT_ERROR(error_reporter_,
 436:C:\Users\a5116938\Desktop\e2_studio_workspace\EEMBC_final\RX65N_Cloud_Kit\src/tensorflow/lite/micro\micro_mutable_op_resolver.h ****                              "Couldn't register builtin op #%d, resolver size "
 437:C:\Users\a5116938\Desktop\e2_studio_workspace\EEMBC_final\RX65N_Cloud_Kit\src/tensorflow/lite/micro\micro_mutable_op_resolver.h ****                              "is too small (%d).",
 438:C:\Users\a5116938\Desktop\e2_studio_workspace\EEMBC_final\RX65N_Cloud_Kit\src/tensorflow/lite/micro\micro_mutable_op_resolver.h ****                              op, tOpCount);
 439:C:\Users\a5116938\Desktop\e2_studio_workspace\EEMBC_final\RX65N_Cloud_Kit\src/tensorflow/lite/micro\micro_mutable_op_resolver.h ****       }
 440:C:\Users\a5116938\Desktop\e2_studio_workspace\EEMBC_final\RX65N_Cloud_Kit\src/tensorflow/lite/micro\micro_mutable_op_resolver.h ****       return kTfLiteError;
 441:C:\Users\a5116938\Desktop\e2_studio_workspace\EEMBC_final\RX65N_Cloud_Kit\src/tensorflow/lite/micro\micro_mutable_op_resolver.h ****     }
 442:C:\Users\a5116938\Desktop\e2_studio_workspace\EEMBC_final\RX65N_Cloud_Kit\src/tensorflow/lite/micro\micro_mutable_op_resolver.h **** 
 443:C:\Users\a5116938\Desktop\e2_studio_workspace\EEMBC_final\RX65N_Cloud_Kit\src/tensorflow/lite/micro\micro_mutable_op_resolver.h ****     registrations_[registrations_len_] = registration;
 599                             		.loc 3 443 5
 600 005a 6C 55                   		shll	#5, r5
 601 005c 66 C2                   		mov.L	#12, r2
 602 005e 4B 02                   		add	r0, r2
 603 0060 4B 75                   		add	r7, r5
 604 0062 75 43 20                		mov.L	#32, r3
 605 0065 71 51 04                		add	#4, r5, r1
 606 0068 7F 8F                   		smovf
 444:C:\Users\a5116938\Desktop\e2_studio_workspace\EEMBC_final\RX65N_Cloud_Kit\src/tensorflow/lite/micro\micro_mutable_op_resolver.h ****     // Strictly speaking, the builtin_code is not necessary for TFLM but filling
 445:C:\Users\a5116938\Desktop\e2_studio_workspace\EEMBC_final\RX65N_Cloud_Kit\src/tensorflow/lite/micro\micro_mutable_op_resolver.h ****     // it in regardless.
 446:C:\Users\a5116938\Desktop\e2_studio_workspace\EEMBC_final\RX65N_Cloud_Kit\src/tensorflow/lite/micro\micro_mutable_op_resolver.h ****     registrations_[registrations_len_].builtin_code = op;
 447:C:\Users\a5116938\Desktop\e2_studio_workspace\EEMBC_final\RX65N_Cloud_Kit\src/tensorflow/lite/micro\micro_mutable_op_resolver.h ****     registrations_len_++;
 448:C:\Users\a5116938\Desktop\e2_studio_workspace\EEMBC_final\RX65N_Cloud_Kit\src/tensorflow/lite/micro\micro_mutable_op_resolver.h **** 
 449:C:\Users\a5116938\Desktop\e2_studio_workspace\EEMBC_final\RX65N_Cloud_Kit\src/tensorflow/lite/micro\micro_mutable_op_resolver.h ****     builtin_codes_[num_buitin_ops_] = op;
 607                             		.loc 3 449 20
 608 006a EE 7A 02 05             		mov.L	5128[r7], r10
 446:C:\Users\a5116938\Desktop\e2_studio_workspace\EEMBC_final\RX65N_Cloud_Kit\src/tensorflow/lite/micro\micro_mutable_op_resolver.h ****     registrations_len_++;
 609                             		.loc 3 446 5
 610 006e 3E 56 65                		mov.L	#0x65, 24[r5]
 611 0071 FD C2 A5                		shll	#2, r10, r5
 612 0074 4B 75                   		add	r7, r5
 450:C:\Users\a5116938\Desktop\e2_studio_workspace\EEMBC_final\RX65N_Cloud_Kit\src/tensorflow/lite/micro\micro_mutable_op_resolver.h ****     builtin_parsers_[num_buitin_ops_] = parser;
 451:C:\Users\a5116938\Desktop\e2_studio_workspace\EEMBC_final\RX65N_Cloud_Kit\src/tensorflow/lite/micro\micro_mutable_op_resolver.h ****     num_buitin_ops_++;
 613                             		.loc 3 451 5
 614 0076 62 1A                   		add	#1, r10
 447:C:\Users\a5116938\Desktop\e2_studio_workspace\EEMBC_final\RX65N_Cloud_Kit\src/tensorflow/lite/micro\micro_mutable_op_resolver.h **** 
 615                             		.loc 3 447 5
 616 0078 EB 74 01 04             		mov.L	r4, 4100[r7]
 449:C:\Users\a5116938\Desktop\e2_studio_workspace\EEMBC_final\RX65N_Cloud_Kit\src/tensorflow/lite/micro\micro_mutable_op_resolver.h ****     builtin_parsers_[num_buitin_ops_] = parser;
 617                             		.loc 3 449 5
 618 007c FA 56 02 04 65          		mov.L	#0x65, 4104[r5]
 450:C:\Users\a5116938\Desktop\e2_studio_workspace\EEMBC_final\RX65N_Cloud_Kit\src/tensorflow/lite/micro\micro_mutable_op_resolver.h ****     builtin_parsers_[num_buitin_ops_] = parser;
 619                             		.loc 3 450 5
 620 0081 FA 52 82 04 00 00 00 00 		mov.L	#__ZN6tflite8ParseAbsEPKNS_8OperatorEPNS_13ErrorReporterEPNS_20BuiltinDataAllocatorEPPv, 461
 621                             		.loc 3 451 5
 622 0089 EB 7A 02 05             		mov.L	r10, 5128[r7]
 623                             		.balign 8,3,1
 624                             	.L63:
 625                             	.LVL77:
 626                             	.LBE713:
 627                             	.LBE712:
 628                             	.LBE728:
 629                             	.LBE732:
  30:../src/tensorflow/lite/micro/all_ops_resolver.cc ****   AddAdd();
 630                             		.loc 6 30 3 is_stmt 1
 631                             	.LBB733:
 632                             	.LBB734:
 117:C:\Users\a5116938\Desktop\e2_studio_workspace\EEMBC_final\RX65N_Cloud_Kit\src/tensorflow/lite/micro\micro_mutable_op_resolver.h ****                       ParseAdd);
 633                             		.loc 3 117 76 is_stmt 0
 634 008d 66 CF                   		mov.L	#12, r15
 635 008f 4B 0F                   		add	r0, r15
 636 0091 05 00 00 00             		bsr	__ZN6tflite3ops5micro12Register_ADDEv
 637                             	.LVL78:
 638                             	.LBB735:
 639                             	.LBB736:
 640                             	.LBB737:
 641                             	.LBB738:
  43:C:\Users\a5116938\Desktop\e2_studio_workspace\EEMBC_final\RX65N_Cloud_Kit\src/tensorflow/lite/micro\micro_mutable_op_resolver.h ****       const TfLiteRegistration& registration = registrations_[i];
 642                             		.loc 3 43 34
 643 0095 EE 75 01 04             		mov.L	4100[r7], r5
  43:C:\Users\a5116938\Desktop\e2_studio_workspace\EEMBC_final\RX65N_Cloud_Kit\src/tensorflow/lite/micro\micro_mutable_op_resolver.h ****       const TfLiteRegistration& registration = registrations_[i];
 644                             		.loc 3 43 32
 645 0099 61 05                   		cmp	#0, r5
 646 009b 3A 78 24                		beq	.L516
 647                             	.LVL79:
 648                             	.LBB739:
  45:C:\Users\a5116938\Desktop\e2_studio_workspace\EEMBC_final\RX65N_Cloud_Kit\src/tensorflow/lite/micro\micro_mutable_op_resolver.h ****         return &registration;
 649                             		.loc 3 45 7
 650 009e ED 7A 06                		mov.L	24[r7], r10
 651 00a1 61 0A                   		cmp	#0, r10
 652 00a3 3A C1 18                		beq	.L65
 653 00a6 71 73 38                		add	#56, r7, r3
 654                             	.LBE739:
  43:C:\Users\a5116938\Desktop\e2_studio_workspace\EEMBC_final\RX65N_Cloud_Kit\src/tensorflow/lite/micro\micro_mutable_op_resolver.h ****       const TfLiteRegistration& registration = registrations_[i];
 655                             		.loc 3 43 23
 656 00a9 66 04                   		mov.L	#0, r4
 657 00ab 2E 0D                   		bra	.L66
 658                             	.LVL80:
 659                             	.L1082:
 660                             	.LBB740:
  45:C:\Users\a5116938\Desktop\e2_studio_workspace\EEMBC_final\RX65N_Cloud_Kit\src/tensorflow/lite/micro\micro_mutable_op_resolver.h ****         return &registration;
 661                             		.loc 3 45 24
 662 00ad 71 3A E0                		add	#-32, r3, r10
  45:C:\Users\a5116938\Desktop\e2_studio_workspace\EEMBC_final\RX65N_Cloud_Kit\src/tensorflow/lite/micro\micro_mutable_op_resolver.h ****         return &registration;
 663                             		.loc 3 45 7
 664 00b0 EC AA                   		mov.L	[r10], r10
 665 00b2 61 0A                   		cmp	#0, r10
 666 00b4 3A B0 18                		beq	.L65
 667                             	.LVL81:
 668 00b7 03                      		.balign 8,3,2
 669                             	.L66:
 670 00b8 71 33 20                		add	#32, r3
 671                             	.LBE740:
  43:C:\Users\a5116938\Desktop\e2_studio_workspace\EEMBC_final\RX65N_Cloud_Kit\src/tensorflow/lite/micro\micro_mutable_op_resolver.h ****       const TfLiteRegistration& registration = registrations_[i];
 672                             		.loc 3 43 5
 673 00bb 62 14                   		add	#1, r4
 674                             	.LVL82:
  43:C:\Users\a5116938\Desktop\e2_studio_workspace\EEMBC_final\RX65N_Cloud_Kit\src/tensorflow/lite/micro\micro_mutable_op_resolver.h ****       const TfLiteRegistration& registration = registrations_[i];
 675                             		.loc 3 43 32
 676 00bd 47 54                   		cmp	r5, r4
 677 00bf 21 EE                   		bne	.L1082
 678                             	.LVL83:
 679                             	.LBE738:
 680                             	.LBE737:
 433:C:\Users\a5116938\Desktop\e2_studio_workspace\EEMBC_final\RX65N_Cloud_Kit\src/tensorflow/lite/micro\micro_mutable_op_resolver.h ****       if (error_reporter_) {
 681                             		.loc 3 433 5
 682 00c1 75 55 80                		cmp	#0x80, r5
 683 00c4 3A C3 22                		beq	.L511
 684 00c7 71 54 01                		add	#1, r5, r4
 685                             		.balign 8,3,1
 686                             	.L64:
 443:C:\Users\a5116938\Desktop\e2_studio_workspace\EEMBC_final\RX65N_Cloud_Kit\src/tensorflow/lite/micro\micro_mutable_op_resolver.h ****     // Strictly speaking, the builtin_code is not necessary for TFLM but filling
 687                             		.loc 3 443 5
 688 00ca 6C 55                   		shll	#5, r5
 689 00cc 66 C2                   		mov.L	#12, r2
 690 00ce 4B 02                   		add	r0, r2
 691 00d0 4B 75                   		add	r7, r5
 692 00d2 75 43 20                		mov.L	#32, r3
 693 00d5 71 51 04                		add	#4, r5, r1
 694 00d8 7F 8F                   		smovf
 449:C:\Users\a5116938\Desktop\e2_studio_workspace\EEMBC_final\RX65N_Cloud_Kit\src/tensorflow/lite/micro\micro_mutable_op_resolver.h ****     builtin_parsers_[num_buitin_ops_] = parser;
 695                             		.loc 3 449 20
 696 00da EE 7A 02 05             		mov.L	5128[r7], r10
 446:C:\Users\a5116938\Desktop\e2_studio_workspace\EEMBC_final\RX65N_Cloud_Kit\src/tensorflow/lite/micro\micro_mutable_op_resolver.h ****     registrations_len_++;
 697                             		.loc 3 446 5
 698 00de 3E 56 00                		mov.L	#0, 24[r5]
 699 00e1 FD C2 A5                		shll	#2, r10, r5
 700 00e4 4B 75                   		add	r7, r5
 701                             		.loc 3 451 5
 702 00e6 62 1A                   		add	#1, r10
 447:C:\Users\a5116938\Desktop\e2_studio_workspace\EEMBC_final\RX65N_Cloud_Kit\src/tensorflow/lite/micro\micro_mutable_op_resolver.h **** 
 703                             		.loc 3 447 5
 704 00e8 EB 74 01 04             		mov.L	r4, 4100[r7]
 449:C:\Users\a5116938\Desktop\e2_studio_workspace\EEMBC_final\RX65N_Cloud_Kit\src/tensorflow/lite/micro\micro_mutable_op_resolver.h ****     builtin_parsers_[num_buitin_ops_] = parser;
 705                             		.loc 3 449 5
 706 00ec FA 56 02 04 00          		mov.L	#0, 4104[r5]
 450:C:\Users\a5116938\Desktop\e2_studio_workspace\EEMBC_final\RX65N_Cloud_Kit\src/tensorflow/lite/micro\micro_mutable_op_resolver.h ****     num_buitin_ops_++;
 707                             		.loc 3 450 5
 708 00f1 FA 52 82 04 00 00 00 00 		mov.L	#__ZN6tflite8ParseAddEPKNS_8OperatorEPNS_13ErrorReporterEPNS_20BuiltinDataAllocatorEPPv, 461
 709                             		.loc 3 451 5
 710 00f9 EB 7A 02 05             		mov.L	r10, 5128[r7]
 711                             		.balign 8,3,1
 712                             	.L69:
 713                             	.LVL84:
 714                             	.LBE736:
 715                             	.LBE735:
 716                             	.LBE734:
 717                             	.LBE733:
  31:../src/tensorflow/lite/micro/all_ops_resolver.cc ****   AddArgMax();
 718                             		.loc 6 31 3 is_stmt 1
 719                             	.LBB754:
 720                             	.LBB755:
 123:C:\Users\a5116938\Desktop\e2_studio_workspace\EEMBC_final\RX65N_Cloud_Kit\src/tensorflow/lite/micro\micro_mutable_op_resolver.h ****   }
 721                             		.loc 3 123 59 is_stmt 0
 722 00fd 66 CF                   		mov.L	#12, r15
 723 00ff 4B 0F                   		add	r0, r15
 724 0101 05 00 00 00             		bsr	__ZN6tflite3ops5micro16Register_ARG_MAXEv
 725                             	.LVL85:
 726                             	.LBB756:
 727                             	.LBB757:
 728                             	.LBB758:
 729                             	.LBB759:
  43:C:\Users\a5116938\Desktop\e2_studio_workspace\EEMBC_final\RX65N_Cloud_Kit\src/tensorflow/lite/micro\micro_mutable_op_resolver.h ****       const TfLiteRegistration& registration = registrations_[i];
 730                             		.loc 3 43 34
 731 0105 EE 75 01 04             		mov.L	4100[r7], r5
  43:C:\Users\a5116938\Desktop\e2_studio_workspace\EEMBC_final\RX65N_Cloud_Kit\src/tensorflow/lite/micro\micro_mutable_op_resolver.h ****       const TfLiteRegistration& registration = registrations_[i];
 732                             		.loc 3 43 32
 733 0109 61 05                   		cmp	#0, r5
 734 010b 3A 26 24                		beq	.L517
 735                             	.LVL86:
 736                             	.LBB760:
  45:C:\Users\a5116938\Desktop\e2_studio_workspace\EEMBC_final\RX65N_Cloud_Kit\src/tensorflow/lite/micro\micro_mutable_op_resolver.h ****         return &registration;
 737                             		.loc 3 45 7
 738 010e ED 7A 06                		mov.L	24[r7], r10
 739 0111 75 5A 38                		cmp	#56, r10
 740 0114 3A 69 18                		beq	.L71
 741 0117 71 73 38                		add	#56, r7, r3
 742                             	.LBE760:
  43:C:\Users\a5116938\Desktop\e2_studio_workspace\EEMBC_final\RX65N_Cloud_Kit\src/tensorflow/lite/micro\micro_mutable_op_resolver.h ****       const TfLiteRegistration& registration = registrations_[i];
 743                             		.loc 3 43 23
 744 011a 66 04                   		mov.L	#0, r4
 745 011c 2E 0D                   		bra	.L72
 746                             	.LVL87:
 747                             	.L1083:
 748                             	.LBB761:
  45:C:\Users\a5116938\Desktop\e2_studio_workspace\EEMBC_final\RX65N_Cloud_Kit\src/tensorflow/lite/micro\micro_mutable_op_resolver.h ****         return &registration;
 749                             		.loc 3 45 24
 750 011e 71 3A E0                		add	#-32, r3, r10
  45:C:\Users\a5116938\Desktop\e2_studio_workspace\EEMBC_final\RX65N_Cloud_Kit\src/tensorflow/lite/micro\micro_mutable_op_resolver.h ****         return &registration;
 751                             		.loc 3 45 7
 752 0121 EC AA                   		mov.L	[r10], r10
 753 0123 75 5A 38                		cmp	#56, r10
 754 0126 3A 57 18                		beq	.L71
 755                             	.LVL88:
 756                             		.balign 8,3,2
 757                             	.L72:
 758 0129 71 33 20                		add	#32, r3
 759                             	.LBE761:
  43:C:\Users\a5116938\Desktop\e2_studio_workspace\EEMBC_final\RX65N_Cloud_Kit\src/tensorflow/lite/micro\micro_mutable_op_resolver.h ****       const TfLiteRegistration& registration = registrations_[i];
 760                             		.loc 3 43 5
 761 012c 62 14                   		add	#1, r4
 762                             	.LVL89:
  43:C:\Users\a5116938\Desktop\e2_studio_workspace\EEMBC_final\RX65N_Cloud_Kit\src/tensorflow/lite/micro\micro_mutable_op_resolver.h ****       const TfLiteRegistration& registration = registrations_[i];
 763                             		.loc 3 43 32
 764 012e 47 54                   		cmp	r5, r4
 765 0130 21 EE                   		bne	.L1083
 766                             	.LVL90:
 767                             	.LBE759:
 768                             	.LBE758:
 433:C:\Users\a5116938\Desktop\e2_studio_workspace\EEMBC_final\RX65N_Cloud_Kit\src/tensorflow/lite/micro\micro_mutable_op_resolver.h ****       if (error_reporter_) {
 769                             		.loc 3 433 5
 770 0132 75 55 80                		cmp	#0x80, r5
 771 0135 3A 6D 22                		beq	.L510
 772 0138 71 54 01                		add	#1, r5, r4
 773                             		.balign 8,3,1
 774                             	.L70:
 443:C:\Users\a5116938\Desktop\e2_studio_workspace\EEMBC_final\RX65N_Cloud_Kit\src/tensorflow/lite/micro\micro_mutable_op_resolver.h ****     // Strictly speaking, the builtin_code is not necessary for TFLM but filling
 775                             		.loc 3 443 5
 776 013b 6C 55                   		shll	#5, r5
 777 013d 66 C2                   		mov.L	#12, r2
 778 013f 4B 02                   		add	r0, r2
 779 0141 4B 75                   		add	r7, r5
 780 0143 75 43 20                		mov.L	#32, r3
 781 0146 71 51 04                		add	#4, r5, r1
 782 0149 7F 8F                   		smovf
 449:C:\Users\a5116938\Desktop\e2_studio_workspace\EEMBC_final\RX65N_Cloud_Kit\src/tensorflow/lite/micro\micro_mutable_op_resolver.h ****     builtin_parsers_[num_buitin_ops_] = parser;
 783                             		.loc 3 449 20
 784 014b EE 7A 02 05             		mov.L	5128[r7], r10
 446:C:\Users\a5116938\Desktop\e2_studio_workspace\EEMBC_final\RX65N_Cloud_Kit\src/tensorflow/lite/micro\micro_mutable_op_resolver.h ****     registrations_len_++;
 785                             		.loc 3 446 5
 786 014f 3E 56 38                		mov.L	#56, 24[r5]
 787 0152 FD C2 A5                		shll	#2, r10, r5
 788 0155 4B 75                   		add	r7, r5
 789                             		.loc 3 451 5
 790 0157 62 1A                   		add	#1, r10
 447:C:\Users\a5116938\Desktop\e2_studio_workspace\EEMBC_final\RX65N_Cloud_Kit\src/tensorflow/lite/micro\micro_mutable_op_resolver.h **** 
 791                             		.loc 3 447 5
 792 0159 EB 74 01 04             		mov.L	r4, 4100[r7]
 449:C:\Users\a5116938\Desktop\e2_studio_workspace\EEMBC_final\RX65N_Cloud_Kit\src/tensorflow/lite/micro\micro_mutable_op_resolver.h ****     builtin_parsers_[num_buitin_ops_] = parser;
 793                             		.loc 3 449 5
 794 015d FA 56 02 04 38          		mov.L	#56, 4104[r5]
 450:C:\Users\a5116938\Desktop\e2_studio_workspace\EEMBC_final\RX65N_Cloud_Kit\src/tensorflow/lite/micro\micro_mutable_op_resolver.h ****     num_buitin_ops_++;
 795                             		.loc 3 450 5
 796 0162 FA 52 82 04 00 00 00 00 		mov.L	#__ZN6tflite11ParseArgMaxEPKNS_8OperatorEPNS_13ErrorReporterEPNS_20BuiltinDataAllocatorEPPv,
 797                             		.loc 3 451 5
 798 016a EB 7A 02 05             		mov.L	r10, 5128[r7]
 799                             		.balign 8,3,1
 800                             	.L75:
 801                             	.LVL91:
 802                             	.LBE757:
 803                             	.LBE756:
 804                             	.LBE755:
 805                             	.LBE754:
  32:../src/tensorflow/lite/micro/all_ops_resolver.cc ****   AddArgMin();
 806                             		.loc 6 32 3 is_stmt 1
 807                             	.LBB775:
 808                             	.LBB776:
 128:C:\Users\a5116938\Desktop\e2_studio_workspace\EEMBC_final\RX65N_Cloud_Kit\src/tensorflow/lite/micro\micro_mutable_op_resolver.h ****   }
 809                             		.loc 3 128 59 is_stmt 0
 810 016e 66 CF                   		mov.L	#12, r15
 811 0170 4B 0F                   		add	r0, r15
 812 0172 05 00 00 00             		bsr	__ZN6tflite3ops5micro16Register_ARG_MINEv
 813                             	.LVL92:
 814                             	.LBB777:
 815                             	.LBB778:
 816                             	.LBB779:
 817                             	.LBB780:
  43:C:\Users\a5116938\Desktop\e2_studio_workspace\EEMBC_final\RX65N_Cloud_Kit\src/tensorflow/lite/micro\micro_mutable_op_resolver.h ****       const TfLiteRegistration& registration = registrations_[i];
 818                             		.loc 3 43 34
 819 0176 EE 75 01 04             		mov.L	4100[r7], r5
  43:C:\Users\a5116938\Desktop\e2_studio_workspace\EEMBC_final\RX65N_Cloud_Kit\src/tensorflow/lite/micro\micro_mutable_op_resolver.h ****       const TfLiteRegistration& registration = registrations_[i];
 820                             		.loc 3 43 32
 821 017a 61 05                   		cmp	#0, r5
 822 017c 3A 92 23                		beq	.L518
 823                             	.LVL93:
 824                             	.LBB781:
  45:C:\Users\a5116938\Desktop\e2_studio_workspace\EEMBC_final\RX65N_Cloud_Kit\src/tensorflow/lite/micro\micro_mutable_op_resolver.h ****         return &registration;
 825                             		.loc 3 45 7
 826 017f ED 7A 06                		mov.L	24[r7], r10
 827 0182 75 5A 4F                		cmp	#0x4f, r10
 828 0185 3A 11 18                		beq	.L77
 829 0188 71 73 38                		add	#56, r7, r3
 830                             	.LBE781:
  43:C:\Users\a5116938\Desktop\e2_studio_workspace\EEMBC_final\RX65N_Cloud_Kit\src/tensorflow/lite/micro\micro_mutable_op_resolver.h ****       const TfLiteRegistration& registration = registrations_[i];
 831                             		.loc 3 43 23
 832 018b 66 04                   		mov.L	#0, r4
 833 018d 2E 0D                   		bra	.L78
 834                             	.LVL94:
 835                             	.L1084:
 836                             	.LBB782:
  45:C:\Users\a5116938\Desktop\e2_studio_workspace\EEMBC_final\RX65N_Cloud_Kit\src/tensorflow/lite/micro\micro_mutable_op_resolver.h ****         return &registration;
 837                             		.loc 3 45 24
 838 018f 71 3A E0                		add	#-32, r3, r10
  45:C:\Users\a5116938\Desktop\e2_studio_workspace\EEMBC_final\RX65N_Cloud_Kit\src/tensorflow/lite/micro\micro_mutable_op_resolver.h ****         return &registration;
 839                             		.loc 3 45 7
 840 0192 EC AA                   		mov.L	[r10], r10
 841 0194 75 5A 4F                		cmp	#0x4f, r10
 842 0197 3A FF 17                		beq	.L77
 843                             	.LVL95:
 844                             		.balign 8,3,2
 845                             	.L78:
 846 019a 71 33 20                		add	#32, r3
 847                             	.LBE782:
  43:C:\Users\a5116938\Desktop\e2_studio_workspace\EEMBC_final\RX65N_Cloud_Kit\src/tensorflow/lite/micro\micro_mutable_op_resolver.h ****       const TfLiteRegistration& registration = registrations_[i];
 848                             		.loc 3 43 5
 849 019d 62 14                   		add	#1, r4
 850                             	.LVL96:
  43:C:\Users\a5116938\Desktop\e2_studio_workspace\EEMBC_final\RX65N_Cloud_Kit\src/tensorflow/lite/micro\micro_mutable_op_resolver.h ****       const TfLiteRegistration& registration = registrations_[i];
 851                             		.loc 3 43 32
 852 019f 47 54                   		cmp	r5, r4
 853 01a1 21 EE                   		bne	.L1084
 854                             	.LVL97:
 855                             	.LBE780:
 856                             	.LBE779:
 433:C:\Users\a5116938\Desktop\e2_studio_workspace\EEMBC_final\RX65N_Cloud_Kit\src/tensorflow/lite/micro\micro_mutable_op_resolver.h ****       if (error_reporter_) {
 857                             		.loc 3 433 5
 858 01a3 75 55 80                		cmp	#0x80, r5
 859 01a6 3A 17 22                		beq	.L508
 860 01a9 71 54 01                		add	#1, r5, r4
 861                             		.balign 8,3,1
 862                             	.L76:
 443:C:\Users\a5116938\Desktop\e2_studio_workspace\EEMBC_final\RX65N_Cloud_Kit\src/tensorflow/lite/micro\micro_mutable_op_resolver.h ****     // Strictly speaking, the builtin_code is not necessary for TFLM but filling
 863                             		.loc 3 443 5
 864 01ac 6C 55                   		shll	#5, r5
 865 01ae 66 C2                   		mov.L	#12, r2
 866 01b0 4B 02                   		add	r0, r2
 867 01b2 4B 75                   		add	r7, r5
 868 01b4 75 43 20                		mov.L	#32, r3
 869 01b7 71 51 04                		add	#4, r5, r1
 870 01ba 7F 8F                   		smovf
 449:C:\Users\a5116938\Desktop\e2_studio_workspace\EEMBC_final\RX65N_Cloud_Kit\src/tensorflow/lite/micro\micro_mutable_op_resolver.h ****     builtin_parsers_[num_buitin_ops_] = parser;
 871                             		.loc 3 449 20
 872 01bc EE 7A 02 05             		mov.L	5128[r7], r10
 446:C:\Users\a5116938\Desktop\e2_studio_workspace\EEMBC_final\RX65N_Cloud_Kit\src/tensorflow/lite/micro\micro_mutable_op_resolver.h ****     registrations_len_++;
 873                             		.loc 3 446 5
 874 01c0 3E 56 4F                		mov.L	#0x4f, 24[r5]
 875 01c3 FD C2 A5                		shll	#2, r10, r5
 876 01c6 4B 75                   		add	r7, r5
 877                             		.loc 3 451 5
 878 01c8 62 1A                   		add	#1, r10
 447:C:\Users\a5116938\Desktop\e2_studio_workspace\EEMBC_final\RX65N_Cloud_Kit\src/tensorflow/lite/micro\micro_mutable_op_resolver.h **** 
 879                             		.loc 3 447 5
 880 01ca EB 74 01 04             		mov.L	r4, 4100[r7]
 449:C:\Users\a5116938\Desktop\e2_studio_workspace\EEMBC_final\RX65N_Cloud_Kit\src/tensorflow/lite/micro\micro_mutable_op_resolver.h ****     builtin_parsers_[num_buitin_ops_] = parser;
 881                             		.loc 3 449 5
 882 01ce FA 56 02 04 4F          		mov.L	#0x4f, 4104[r5]
 450:C:\Users\a5116938\Desktop\e2_studio_workspace\EEMBC_final\RX65N_Cloud_Kit\src/tensorflow/lite/micro\micro_mutable_op_resolver.h ****     num_buitin_ops_++;
 883                             		.loc 3 450 5
 884 01d3 FA 52 82 04 00 00 00 00 		mov.L	#__ZN6tflite11ParseArgMinEPKNS_8OperatorEPNS_13ErrorReporterEPNS_20BuiltinDataAllocatorEPPv,
 885                             		.loc 3 451 5
 886 01db EB 7A 02 05             		mov.L	r10, 5128[r7]
 887 01df 03                      		.balign 8,3,1
 888                             	.L81:
 889                             	.LVL98:
 890                             	.LBE778:
 891                             	.LBE777:
 892                             	.LBE776:
 893                             	.LBE775:
  33:../src/tensorflow/lite/micro/all_ops_resolver.cc ****   AddAveragePool2D();
 894                             		.loc 6 33 3 is_stmt 1
 895                             	.LBB796:
 896                             	.LBB797:
 133:C:\Users\a5116938\Desktop\e2_studio_workspace\EEMBC_final\RX65N_Cloud_Kit\src/tensorflow/lite/micro\micro_mutable_op_resolver.h ****                       ParsePool);
 897                             		.loc 3 133 67 is_stmt 0
 898 01e0 66 CF                   		mov.L	#12, r15
 899 01e2 4B 0F                   		add	r0, r15
 900 01e4 05 00 00 00             		bsr	__ZN6tflite3ops5micro24Register_AVERAGE_POOL_2DEv
 901                             	.LVL99:
 902                             	.LBB798:
 903                             	.LBB799:
 904                             	.LBB800:
 905                             	.LBB801:
  43:C:\Users\a5116938\Desktop\e2_studio_workspace\EEMBC_final\RX65N_Cloud_Kit\src/tensorflow/lite/micro\micro_mutable_op_resolver.h ****       const TfLiteRegistration& registration = registrations_[i];
 906                             		.loc 3 43 34
 907 01e8 EE 75 01 04             		mov.L	4100[r7], r5
  43:C:\Users\a5116938\Desktop\e2_studio_workspace\EEMBC_final\RX65N_Cloud_Kit\src/tensorflow/lite/micro\micro_mutable_op_resolver.h ****       const TfLiteRegistration& registration = registrations_[i];
 908                             		.loc 3 43 32
 909 01ec 61 05                   		cmp	#0, r5
 910 01ee 3A CF 23                		beq	.L519
 911                             	.LVL100:
 912                             	.LBB802:
  45:C:\Users\a5116938\Desktop\e2_studio_workspace\EEMBC_final\RX65N_Cloud_Kit\src/tensorflow/lite/micro\micro_mutable_op_resolver.h ****         return &registration;
 913                             		.loc 3 45 7
 914 01f1 ED 7A 06                		mov.L	24[r7], r10
 915 01f4 61 1A                   		cmp	#1, r10
 916 01f6 3A B9 17                		beq	.L83
 917 01f9 71 73 38                		add	#56, r7, r3
 918                             	.LBE802:
  43:C:\Users\a5116938\Desktop\e2_studio_workspace\EEMBC_final\RX65N_Cloud_Kit\src/tensorflow/lite/micro\micro_mutable_op_resolver.h ****       const TfLiteRegistration& registration = registrations_[i];
 919                             		.loc 3 43 23
 920 01fc 66 04                   		mov.L	#0, r4
 921 01fe 2E 0C                   		bra	.L84
 922                             	.LVL101:
 923                             	.L1085:
 924                             	.LBB803:
  45:C:\Users\a5116938\Desktop\e2_studio_workspace\EEMBC_final\RX65N_Cloud_Kit\src/tensorflow/lite/micro\micro_mutable_op_resolver.h ****         return &registration;
 925                             		.loc 3 45 24
 926 0200 71 3A E0                		add	#-32, r3, r10
  45:C:\Users\a5116938\Desktop\e2_studio_workspace\EEMBC_final\RX65N_Cloud_Kit\src/tensorflow/lite/micro\micro_mutable_op_resolver.h ****         return &registration;
 927                             		.loc 3 45 7
 928 0203 EC AA                   		mov.L	[r10], r10
 929 0205 61 1A                   		cmp	#1, r10
 930 0207 3A A8 17                		beq	.L83
 931                             	.LVL102:
 932                             		.balign 8,3,2
 933                             	.L84:
 934 020a 71 33 20                		add	#32, r3
 935                             	.LBE803:
  43:C:\Users\a5116938\Desktop\e2_studio_workspace\EEMBC_final\RX65N_Cloud_Kit\src/tensorflow/lite/micro\micro_mutable_op_resolver.h ****       const TfLiteRegistration& registration = registrations_[i];
 936                             		.loc 3 43 5
 937 020d 62 14                   		add	#1, r4
 938                             	.LVL103:
  43:C:\Users\a5116938\Desktop\e2_studio_workspace\EEMBC_final\RX65N_Cloud_Kit\src/tensorflow/lite/micro\micro_mutable_op_resolver.h ****       const TfLiteRegistration& registration = registrations_[i];
 939                             		.loc 3 43 32
 940 020f 47 54                   		cmp	r5, r4
 941 0211 21 EF                   		bne	.L1085
 942                             	.LVL104:
 943                             	.LBE801:
 944                             	.LBE800:
 433:C:\Users\a5116938\Desktop\e2_studio_workspace\EEMBC_final\RX65N_Cloud_Kit\src/tensorflow/lite/micro\micro_mutable_op_resolver.h ****       if (error_reporter_) {
 945                             		.loc 3 433 5
 946 0213 75 55 80                		cmp	#0x80, r5
 947 0216 3A C2 21                		beq	.L505
 948 0219 71 54 01                		add	#1, r5, r4
 949                             		.balign 8,3,1
 950                             	.L82:
 443:C:\Users\a5116938\Desktop\e2_studio_workspace\EEMBC_final\RX65N_Cloud_Kit\src/tensorflow/lite/micro\micro_mutable_op_resolver.h ****     // Strictly speaking, the builtin_code is not necessary for TFLM but filling
 951                             		.loc 3 443 5
 952 021c 6C 55                   		shll	#5, r5
 953 021e 66 C2                   		mov.L	#12, r2
 954 0220 4B 02                   		add	r0, r2
 955 0222 4B 75                   		add	r7, r5
 956 0224 75 43 20                		mov.L	#32, r3
 957 0227 71 51 04                		add	#4, r5, r1
 958 022a 7F 8F                   		smovf
 449:C:\Users\a5116938\Desktop\e2_studio_workspace\EEMBC_final\RX65N_Cloud_Kit\src/tensorflow/lite/micro\micro_mutable_op_resolver.h ****     builtin_parsers_[num_buitin_ops_] = parser;
 959                             		.loc 3 449 20
 960 022c EE 7A 02 05             		mov.L	5128[r7], r10
 446:C:\Users\a5116938\Desktop\e2_studio_workspace\EEMBC_final\RX65N_Cloud_Kit\src/tensorflow/lite/micro\micro_mutable_op_resolver.h ****     registrations_len_++;
 961                             		.loc 3 446 5
 962 0230 3E 56 01                		mov.L	#1, 24[r5]
 963 0233 FD C2 A5                		shll	#2, r10, r5
 964 0236 4B 75                   		add	r7, r5
 965                             		.loc 3 451 5
 966 0238 62 1A                   		add	#1, r10
 447:C:\Users\a5116938\Desktop\e2_studio_workspace\EEMBC_final\RX65N_Cloud_Kit\src/tensorflow/lite/micro\micro_mutable_op_resolver.h **** 
 967                             		.loc 3 447 5
 968 023a EB 74 01 04             		mov.L	r4, 4100[r7]
 449:C:\Users\a5116938\Desktop\e2_studio_workspace\EEMBC_final\RX65N_Cloud_Kit\src/tensorflow/lite/micro\micro_mutable_op_resolver.h ****     builtin_parsers_[num_buitin_ops_] = parser;
 969                             		.loc 3 449 5
 970 023e FA 56 02 04 01          		mov.L	#1, 4104[r5]
 450:C:\Users\a5116938\Desktop\e2_studio_workspace\EEMBC_final\RX65N_Cloud_Kit\src/tensorflow/lite/micro\micro_mutable_op_resolver.h ****     num_buitin_ops_++;
 971                             		.loc 3 450 5
 972 0243 FA 52 82 04 00 00 00 00 		mov.L	#__ZN6tflite9ParsePoolEPKNS_8OperatorEPNS_13ErrorReporterEPNS_20BuiltinDataAllocatorEPPv, 46
 973                             		.loc 3 451 5
 974 024b EB 7A 02 05             		mov.L	r10, 5128[r7]
 975 024f 03                      		.balign 8,3,1
 976                             	.L87:
 977                             	.LVL105:
 978                             	.LBE799:
 979                             	.LBE798:
 980                             	.LBE797:
 981                             	.LBE796:
  34:../src/tensorflow/lite/micro/all_ops_resolver.cc ****   AddCeil();
 982                             		.loc 6 34 3 is_stmt 1
 983                             	.LBB817:
 984                             	.LBB818:
 138:C:\Users\a5116938\Desktop\e2_studio_workspace\EEMBC_final\RX65N_Cloud_Kit\src/tensorflow/lite/micro\micro_mutable_op_resolver.h ****                       ParseCeil);
 985                             		.loc 3 138 78 is_stmt 0
 986 0250 66 CF                   		mov.L	#12, r15
 987 0252 4B 0F                   		add	r0, r15
 988 0254 05 00 00 00             		bsr	__ZN6tflite3ops5micro13Register_CEILEv
 989                             	.LVL106:
 990                             	.LBB819:
 991                             	.LBB820:
 992                             	.LBB821:
 993                             	.LBB822:
  43:C:\Users\a5116938\Desktop\e2_studio_workspace\EEMBC_final\RX65N_Cloud_Kit\src/tensorflow/lite/micro\micro_mutable_op_resolver.h ****       const TfLiteRegistration& registration = registrations_[i];
 994                             		.loc 3 43 34
 995 0258 EE 75 01 04             		mov.L	4100[r7], r5
  43:C:\Users\a5116938\Desktop\e2_studio_workspace\EEMBC_final\RX65N_Cloud_Kit\src/tensorflow/lite/micro\micro_mutable_op_resolver.h ****       const TfLiteRegistration& registration = registrations_[i];
 996                             		.loc 3 43 32
 997 025c 61 05                   		cmp	#0, r5
 998 025e 3A C4 22                		beq	.L520
 999                             	.LVL107:
 1000                             	.LBB823:
  45:C:\Users\a5116938\Desktop\e2_studio_workspace\EEMBC_final\RX65N_Cloud_Kit\src/tensorflow/lite/micro\micro_mutable_op_resolver.h ****         return &registration;
 1001                             		.loc 3 45 7
 1002 0261 ED 7A 06                		mov.L	24[r7], r10
 1003 0264 75 5A 68                		cmp	#0x68, r10
 1004 0267 3A 61 17                		beq	.L89
 1005 026a 71 73 38                		add	#56, r7, r3
 1006                             	.LBE823:
  43:C:\Users\a5116938\Desktop\e2_studio_workspace\EEMBC_final\RX65N_Cloud_Kit\src/tensorflow/lite/micro\micro_mutable_op_resolver.h ****       const TfLiteRegistration& registration = registrations_[i];
 1007                             		.loc 3 43 23
 1008 026d 66 04                   		mov.L	#0, r4
 1009 026f 2E 0D                   		bra	.L90
 1010                             	.LVL108:
 1011                             	.L1086:
 1012                             	.LBB824:
  45:C:\Users\a5116938\Desktop\e2_studio_workspace\EEMBC_final\RX65N_Cloud_Kit\src/tensorflow/lite/micro\micro_mutable_op_resolver.h ****         return &registration;
 1013                             		.loc 3 45 24
 1014 0271 71 3A E0                		add	#-32, r3, r10
  45:C:\Users\a5116938\Desktop\e2_studio_workspace\EEMBC_final\RX65N_Cloud_Kit\src/tensorflow/lite/micro\micro_mutable_op_resolver.h ****         return &registration;
 1015                             		.loc 3 45 7
 1016 0274 EC AA                   		mov.L	[r10], r10
 1017 0276 75 5A 68                		cmp	#0x68, r10
 1018 0279 3A 4F 17                		beq	.L89
 1019                             	.LVL109:
 1020                             		.balign 8,3,2
 1021                             	.L90:
 1022 027c 71 33 20                		add	#32, r3
 1023                             	.LBE824:
  43:C:\Users\a5116938\Desktop\e2_studio_workspace\EEMBC_final\RX65N_Cloud_Kit\src/tensorflow/lite/micro\micro_mutable_op_resolver.h ****       const TfLiteRegistration& registration = registrations_[i];
 1024                             		.loc 3 43 5
 1025 027f 62 14                   		add	#1, r4
 1026                             	.LVL110:
  43:C:\Users\a5116938\Desktop\e2_studio_workspace\EEMBC_final\RX65N_Cloud_Kit\src/tensorflow/lite/micro\micro_mutable_op_resolver.h ****       const TfLiteRegistration& registration = registrations_[i];
 1027                             		.loc 3 43 32
 1028 0281 47 54                   		cmp	r5, r4
 1029 0283 21 EE                   		bne	.L1086
 1030                             	.LVL111:
 1031                             	.LBE822:
 1032                             	.LBE821:
 433:C:\Users\a5116938\Desktop\e2_studio_workspace\EEMBC_final\RX65N_Cloud_Kit\src/tensorflow/lite/micro\micro_mutable_op_resolver.h ****       if (error_reporter_) {
 1033                             		.loc 3 433 5
 1034 0285 75 55 80                		cmp	#0x80, r5
 1035 0288 3A 6B 21                		beq	.L504
 1036 028b 71 54 01                		add	#1, r5, r4
 1037                             		.balign 8,3,1
 1038                             	.L88:
 443:C:\Users\a5116938\Desktop\e2_studio_workspace\EEMBC_final\RX65N_Cloud_Kit\src/tensorflow/lite/micro\micro_mutable_op_resolver.h ****     // Strictly speaking, the builtin_code is not necessary for TFLM but filling
 1039                             		.loc 3 443 5
 1040 028e 6C 55                   		shll	#5, r5
 1041 0290 66 C2                   		mov.L	#12, r2
 1042 0292 4B 02                   		add	r0, r2
 1043 0294 4B 75                   		add	r7, r5
 1044 0296 75 43 20                		mov.L	#32, r3
 1045 0299 71 51 04                		add	#4, r5, r1
 1046 029c 7F 8F                   		smovf
 449:C:\Users\a5116938\Desktop\e2_studio_workspace\EEMBC_final\RX65N_Cloud_Kit\src/tensorflow/lite/micro\micro_mutable_op_resolver.h ****     builtin_parsers_[num_buitin_ops_] = parser;
 1047                             		.loc 3 449 20
 1048 029e EE 7A 02 05             		mov.L	5128[r7], r10
 446:C:\Users\a5116938\Desktop\e2_studio_workspace\EEMBC_final\RX65N_Cloud_Kit\src/tensorflow/lite/micro\micro_mutable_op_resolver.h ****     registrations_len_++;
 1049                             		.loc 3 446 5
 1050 02a2 3E 56 68                		mov.L	#0x68, 24[r5]
 1051 02a5 FD C2 A5                		shll	#2, r10, r5
 1052 02a8 4B 75                   		add	r7, r5
 1053                             		.loc 3 451 5
 1054 02aa 62 1A                   		add	#1, r10
 447:C:\Users\a5116938\Desktop\e2_studio_workspace\EEMBC_final\RX65N_Cloud_Kit\src/tensorflow/lite/micro\micro_mutable_op_resolver.h **** 
 1055                             		.loc 3 447 5
 1056 02ac EB 74 01 04             		mov.L	r4, 4100[r7]
 449:C:\Users\a5116938\Desktop\e2_studio_workspace\EEMBC_final\RX65N_Cloud_Kit\src/tensorflow/lite/micro\micro_mutable_op_resolver.h ****     builtin_parsers_[num_buitin_ops_] = parser;
 1057                             		.loc 3 449 5
 1058 02b0 FA 56 02 04 68          		mov.L	#0x68, 4104[r5]
 450:C:\Users\a5116938\Desktop\e2_studio_workspace\EEMBC_final\RX65N_Cloud_Kit\src/tensorflow/lite/micro\micro_mutable_op_resolver.h ****     num_buitin_ops_++;
 1059                             		.loc 3 450 5
 1060 02b5 FA 52 82 04 00 00 00 00 		mov.L	#__ZN6tflite9ParseCeilEPKNS_8OperatorEPNS_13ErrorReporterEPNS_20BuiltinDataAllocatorEPPv, 46
 1061                             		.loc 3 451 5
 1062 02bd EB 7A 02 05             		mov.L	r10, 5128[r7]
 1063                             		.balign 8,3,1
 1064                             	.L93:
 1065                             	.LVL112:
 1066                             	.LBE820:
 1067                             	.LBE819:
 1068                             	.LBE818:
 1069                             	.LBE817:
  35:../src/tensorflow/lite/micro/all_ops_resolver.cc ****   AddConcatenation();
 1070                             		.loc 6 35 3 is_stmt 1
 1071                             	.LBB838:
 1072                             	.LBB839:
 149:C:\Users\a5116938\Desktop\e2_studio_workspace\EEMBC_final\RX65N_Cloud_Kit\src/tensorflow/lite/micro\micro_mutable_op_resolver.h ****                       ParseConcatenation);
 1073                             		.loc 3 149 65 is_stmt 0
 1074 02c1 66 CF                   		mov.L	#12, r15
 1075 02c3 4B 0F                   		add	r0, r15
 1076 02c5 05 00 00 00             		bsr	__ZN6tflite3ops5micro22Register_CONCATENATIONEv
 1077                             	.LVL113:
 1078                             	.LBB840:
 1079                             	.LBB841:
 1080                             	.LBB842:
 1081                             	.LBB843:
  43:C:\Users\a5116938\Desktop\e2_studio_workspace\EEMBC_final\RX65N_Cloud_Kit\src/tensorflow/lite/micro\micro_mutable_op_resolver.h ****       const TfLiteRegistration& registration = registrations_[i];
 1082                             		.loc 3 43 34
 1083 02c9 EE 75 01 04             		mov.L	4100[r7], r5
  43:C:\Users\a5116938\Desktop\e2_studio_workspace\EEMBC_final\RX65N_Cloud_Kit\src/tensorflow/lite/micro\micro_mutable_op_resolver.h ****       const TfLiteRegistration& registration = registrations_[i];
 1084                             		.loc 3 43 32
 1085 02cd 61 05                   		cmp	#0, r5
 1086 02cf 3A 0C 23                		beq	.L521
 1087                             	.LVL114:
 1088                             	.LBB844:
  45:C:\Users\a5116938\Desktop\e2_studio_workspace\EEMBC_final\RX65N_Cloud_Kit\src/tensorflow/lite/micro\micro_mutable_op_resolver.h ****         return &registration;
 1089                             		.loc 3 45 7
 1090 02d2 ED 7A 06                		mov.L	24[r7], r10
 1091 02d5 61 2A                   		cmp	#2, r10
 1092 02d7 3A 0A 17                		beq	.L95
 1093 02da 71 73 38                		add	#56, r7, r3
 1094                             	.LBE844:
  43:C:\Users\a5116938\Desktop\e2_studio_workspace\EEMBC_final\RX65N_Cloud_Kit\src/tensorflow/lite/micro\micro_mutable_op_resolver.h ****       const TfLiteRegistration& registration = registrations_[i];
 1095                             		.loc 3 43 23
 1096 02dd 66 04                   		mov.L	#0, r4
 1097 02df 2E 0C                   		bra	.L96
 1098                             	.LVL115:
 1099                             	.L1087:
 1100                             	.LBB845:
  45:C:\Users\a5116938\Desktop\e2_studio_workspace\EEMBC_final\RX65N_Cloud_Kit\src/tensorflow/lite/micro\micro_mutable_op_resolver.h ****         return &registration;
 1101                             		.loc 3 45 24
 1102 02e1 71 3A E0                		add	#-32, r3, r10
  45:C:\Users\a5116938\Desktop\e2_studio_workspace\EEMBC_final\RX65N_Cloud_Kit\src/tensorflow/lite/micro\micro_mutable_op_resolver.h ****         return &registration;
 1103                             		.loc 3 45 7
 1104 02e4 EC AA                   		mov.L	[r10], r10
 1105 02e6 61 2A                   		cmp	#2, r10
 1106 02e8 3A F9 16                		beq	.L95
 1107                             	.LVL116:
 1108                             		.balign 8,3,2
 1109                             	.L96:
 1110 02eb 71 33 20                		add	#32, r3
 1111                             	.LBE845:
  43:C:\Users\a5116938\Desktop\e2_studio_workspace\EEMBC_final\RX65N_Cloud_Kit\src/tensorflow/lite/micro\micro_mutable_op_resolver.h ****       const TfLiteRegistration& registration = registrations_[i];
 1112                             		.loc 3 43 5
 1113 02ee 62 14                   		add	#1, r4
 1114                             	.LVL117:
  43:C:\Users\a5116938\Desktop\e2_studio_workspace\EEMBC_final\RX65N_Cloud_Kit\src/tensorflow/lite/micro\micro_mutable_op_resolver.h ****       const TfLiteRegistration& registration = registrations_[i];
 1115                             		.loc 3 43 32
 1116 02f0 47 54                   		cmp	r5, r4
 1117 02f2 21 EF                   		bne	.L1087
 1118                             	.LVL118:
 1119                             	.LBE843:
 1120                             	.LBE842:
 433:C:\Users\a5116938\Desktop\e2_studio_workspace\EEMBC_final\RX65N_Cloud_Kit\src/tensorflow/lite/micro\micro_mutable_op_resolver.h ****       if (error_reporter_) {
 1121                             		.loc 3 433 5
 1122 02f4 75 55 80                		cmp	#0x80, r5
 1123 02f7 3A 17 21                		beq	.L502
 1124 02fa 71 54 01                		add	#1, r5, r4
 1125                             		.balign 8,3,1
 1126                             	.L94:
 443:C:\Users\a5116938\Desktop\e2_studio_workspace\EEMBC_final\RX65N_Cloud_Kit\src/tensorflow/lite/micro\micro_mutable_op_resolver.h ****     // Strictly speaking, the builtin_code is not necessary for TFLM but filling
 1127                             		.loc 3 443 5
 1128 02fd 6C 55                   		shll	#5, r5
 1129 02ff 66 C2                   		mov.L	#12, r2
 1130 0301 4B 02                   		add	r0, r2
 1131 0303 4B 75                   		add	r7, r5
 1132 0305 75 43 20                		mov.L	#32, r3
 1133 0308 71 51 04                		add	#4, r5, r1
 1134 030b 7F 8F                   		smovf
 449:C:\Users\a5116938\Desktop\e2_studio_workspace\EEMBC_final\RX65N_Cloud_Kit\src/tensorflow/lite/micro\micro_mutable_op_resolver.h ****     builtin_parsers_[num_buitin_ops_] = parser;
 1135                             		.loc 3 449 20
 1136 030d EE 7A 02 05             		mov.L	5128[r7], r10
 446:C:\Users\a5116938\Desktop\e2_studio_workspace\EEMBC_final\RX65N_Cloud_Kit\src/tensorflow/lite/micro\micro_mutable_op_resolver.h ****     registrations_len_++;
 1137                             		.loc 3 446 5
 1138 0311 3E 56 02                		mov.L	#2, 24[r5]
 1139 0314 FD C2 A5                		shll	#2, r10, r5
 1140 0317 4B 75                   		add	r7, r5
 1141                             		.loc 3 451 5
 1142 0319 62 1A                   		add	#1, r10
 447:C:\Users\a5116938\Desktop\e2_studio_workspace\EEMBC_final\RX65N_Cloud_Kit\src/tensorflow/lite/micro\micro_mutable_op_resolver.h **** 
 1143                             		.loc 3 447 5
 1144 031b EB 74 01 04             		mov.L	r4, 4100[r7]
 449:C:\Users\a5116938\Desktop\e2_studio_workspace\EEMBC_final\RX65N_Cloud_Kit\src/tensorflow/lite/micro\micro_mutable_op_resolver.h ****     builtin_parsers_[num_buitin_ops_] = parser;
 1145                             		.loc 3 449 5
 1146 031f FA 56 02 04 02          		mov.L	#2, 4104[r5]
 450:C:\Users\a5116938\Desktop\e2_studio_workspace\EEMBC_final\RX65N_Cloud_Kit\src/tensorflow/lite/micro\micro_mutable_op_resolver.h ****     num_buitin_ops_++;
 1147                             		.loc 3 450 5
 1148 0324 FA 52 82 04 00 00 00 00 		mov.L	#__ZN6tflite18ParseConcatenationEPKNS_8OperatorEPNS_13ErrorReporterEPNS_20BuiltinDataAllocat
 1149                             		.loc 3 451 5
 1150 032c EB 7A 02 05             		mov.L	r10, 5128[r7]
 1151                             		.balign 8,3,1
 1152                             	.L99:
 1153                             	.LVL119:
 1154                             	.LBE841:
 1155                             	.LBE840:
 1156                             	.LBE839:
 1157                             	.LBE838:
  36:../src/tensorflow/lite/micro/all_ops_resolver.cc ****   AddConv2D();
 1158                             		.loc 6 36 3 is_stmt 1
 1159                             	.LBB859:
 1160                             	.LBB860:
 154:C:\Users\a5116938\Desktop\e2_studio_workspace\EEMBC_final\RX65N_Cloud_Kit\src/tensorflow/lite/micro\micro_mutable_op_resolver.h ****   }
 1161                             		.loc 3 154 64 is_stmt 0
 1162 0330 66 CF                   		mov.L	#12, r15
 1163 0332 4B 0F                   		add	r0, r15
 1164 0334 05 00 00 00             		bsr	__ZN6tflite16Register_CONV_2DEv
 1165                             	.LVL120:
 1166                             	.LBB861:
 1167                             	.LBB862:
 1168                             	.LBB863:
 1169                             	.LBB864:
  43:C:\Users\a5116938\Desktop\e2_studio_workspace\EEMBC_final\RX65N_Cloud_Kit\src/tensorflow/lite/micro\micro_mutable_op_resolver.h ****       const TfLiteRegistration& registration = registrations_[i];
 1170                             		.loc 3 43 34
 1171 0338 EE 75 01 04             		mov.L	4100[r7], r5
  43:C:\Users\a5116938\Desktop\e2_studio_workspace\EEMBC_final\RX65N_Cloud_Kit\src/tensorflow/lite/micro\micro_mutable_op_resolver.h ****       const TfLiteRegistration& registration = registrations_[i];
 1172                             		.loc 3 43 32
 1173 033c 61 05                   		cmp	#0, r5
 1174 033e 3A A2 22                		beq	.L522
 1175                             	.LVL121:
 1176                             	.LBB865:
  45:C:\Users\a5116938\Desktop\e2_studio_workspace\EEMBC_final\RX65N_Cloud_Kit\src/tensorflow/lite/micro\micro_mutable_op_resolver.h ****         return &registration;
 1177                             		.loc 3 45 7
 1178 0341 ED 7A 06                		mov.L	24[r7], r10
 1179 0344 61 3A                   		cmp	#3, r10
 1180 0346 3A B4 16                		beq	.L101
 1181 0349 71 73 38                		add	#56, r7, r3
 1182                             	.LBE865:
  43:C:\Users\a5116938\Desktop\e2_studio_workspace\EEMBC_final\RX65N_Cloud_Kit\src/tensorflow/lite/micro\micro_mutable_op_resolver.h ****       const TfLiteRegistration& registration = registrations_[i];
 1183                             		.loc 3 43 23
 1184 034c 66 04                   		mov.L	#0, r4
 1185 034e 2E 0C                   		bra	.L102
 1186                             	.LVL122:
 1187                             	.L1088:
 1188                             	.LBB866:
  45:C:\Users\a5116938\Desktop\e2_studio_workspace\EEMBC_final\RX65N_Cloud_Kit\src/tensorflow/lite/micro\micro_mutable_op_resolver.h ****         return &registration;
 1189                             		.loc 3 45 24
 1190 0350 71 3A E0                		add	#-32, r3, r10
  45:C:\Users\a5116938\Desktop\e2_studio_workspace\EEMBC_final\RX65N_Cloud_Kit\src/tensorflow/lite/micro\micro_mutable_op_resolver.h ****         return &registration;
 1191                             		.loc 3 45 7
 1192 0353 EC AA                   		mov.L	[r10], r10
 1193 0355 61 3A                   		cmp	#3, r10
 1194 0357 3A A3 16                		beq	.L101
 1195                             	.LVL123:
 1196                             		.balign 8,3,2
 1197                             	.L102:
 1198 035a 71 33 20                		add	#32, r3
 1199                             	.LBE866:
  43:C:\Users\a5116938\Desktop\e2_studio_workspace\EEMBC_final\RX65N_Cloud_Kit\src/tensorflow/lite/micro\micro_mutable_op_resolver.h ****       const TfLiteRegistration& registration = registrations_[i];
 1200                             		.loc 3 43 5
 1201 035d 62 14                   		add	#1, r4
 1202                             	.LVL124:
  43:C:\Users\a5116938\Desktop\e2_studio_workspace\EEMBC_final\RX65N_Cloud_Kit\src/tensorflow/lite/micro\micro_mutable_op_resolver.h ****       const TfLiteRegistration& registration = registrations_[i];
 1203                             		.loc 3 43 32
 1204 035f 47 54                   		cmp	r5, r4
 1205 0361 21 EF                   		bne	.L1088
 1206                             	.LVL125:
 1207                             	.LBE864:
 1208                             	.LBE863:
 433:C:\Users\a5116938\Desktop\e2_studio_workspace\EEMBC_final\RX65N_Cloud_Kit\src/tensorflow/lite/micro\micro_mutable_op_resolver.h ****       if (error_reporter_) {
 1209                             		.loc 3 433 5
 1210 0363 75 55 80                		cmp	#0x80, r5
 1211 0366 3A C3 20                		beq	.L500
 1212 0369 71 54 01                		add	#1, r5, r4
 1213                             		.balign 8,3,1
 1214                             	.L100:
 443:C:\Users\a5116938\Desktop\e2_studio_workspace\EEMBC_final\RX65N_Cloud_Kit\src/tensorflow/lite/micro\micro_mutable_op_resolver.h ****     // Strictly speaking, the builtin_code is not necessary for TFLM but filling
 1215                             		.loc 3 443 5
 1216 036c 6C 55                   		shll	#5, r5
 1217 036e 66 C2                   		mov.L	#12, r2
 1218 0370 4B 02                   		add	r0, r2
 1219 0372 4B 75                   		add	r7, r5
 1220 0374 75 43 20                		mov.L	#32, r3
 1221 0377 71 51 04                		add	#4, r5, r1
 1222 037a 7F 8F                   		smovf
 449:C:\Users\a5116938\Desktop\e2_studio_workspace\EEMBC_final\RX65N_Cloud_Kit\src/tensorflow/lite/micro\micro_mutable_op_resolver.h ****     builtin_parsers_[num_buitin_ops_] = parser;
 1223                             		.loc 3 449 20
 1224 037c EE 7A 02 05             		mov.L	5128[r7], r10
 446:C:\Users\a5116938\Desktop\e2_studio_workspace\EEMBC_final\RX65N_Cloud_Kit\src/tensorflow/lite/micro\micro_mutable_op_resolver.h ****     registrations_len_++;
 1225                             		.loc 3 446 5
 1226 0380 3E 56 03                		mov.L	#3, 24[r5]
 1227 0383 FD C2 A5                		shll	#2, r10, r5
 1228 0386 4B 75                   		add	r7, r5
 1229                             		.loc 3 451 5
 1230 0388 62 1A                   		add	#1, r10
 447:C:\Users\a5116938\Desktop\e2_studio_workspace\EEMBC_final\RX65N_Cloud_Kit\src/tensorflow/lite/micro\micro_mutable_op_resolver.h **** 
 1231                             		.loc 3 447 5
 1232 038a EB 74 01 04             		mov.L	r4, 4100[r7]
 449:C:\Users\a5116938\Desktop\e2_studio_workspace\EEMBC_final\RX65N_Cloud_Kit\src/tensorflow/lite/micro\micro_mutable_op_resolver.h ****     builtin_parsers_[num_buitin_ops_] = parser;
 1233                             		.loc 3 449 5
 1234 038e FA 56 02 04 03          		mov.L	#3, 4104[r5]
 450:C:\Users\a5116938\Desktop\e2_studio_workspace\EEMBC_final\RX65N_Cloud_Kit\src/tensorflow/lite/micro\micro_mutable_op_resolver.h ****     num_buitin_ops_++;
 1235                             		.loc 3 450 5
 1236 0393 FA 52 82 04 00 00 00 00 		mov.L	#__ZN6tflite11ParseConv2DEPKNS_8OperatorEPNS_13ErrorReporterEPNS_20BuiltinDataAllocatorEPPv,
 1237                             		.loc 3 451 5
 1238 039b EB 7A 02 05             		mov.L	r10, 5128[r7]
 1239 039f 03                      		.balign 8,3,1
 1240                             	.L105:
 1241                             	.LVL126:
 1242                             	.LBE862:
 1243                             	.LBE861:
 1244                             	.LBE860:
 1245                             	.LBE859:
  37:../src/tensorflow/lite/micro/all_ops_resolver.cc ****   AddCos();
 1246                             		.loc 6 37 3 is_stmt 1
 1247                             	.LBB880:
 1248                             	.LBB881:
 158:C:\Users\a5116938\Desktop\e2_studio_workspace\EEMBC_final\RX65N_Cloud_Kit\src/tensorflow/lite/micro\micro_mutable_op_resolver.h ****                       ParseCos);
 1249                             		.loc 3 158 76 is_stmt 0
 1250 03a0 66 CF                   		mov.L	#12, r15
 1251 03a2 4B 0F                   		add	r0, r15
 1252 03a4 05 00 00 00             		bsr	__ZN6tflite3ops5micro12Register_COSEv
 1253                             	.LVL127:
 1254                             	.LBB882:
 1255                             	.LBB883:
 1256                             	.LBB884:
 1257                             	.LBB885:
  43:C:\Users\a5116938\Desktop\e2_studio_workspace\EEMBC_final\RX65N_Cloud_Kit\src/tensorflow/lite/micro\micro_mutable_op_resolver.h ****       const TfLiteRegistration& registration = registrations_[i];
 1258                             		.loc 3 43 34
 1259 03a8 EE 75 01 04             		mov.L	4100[r7], r5
  43:C:\Users\a5116938\Desktop\e2_studio_workspace\EEMBC_final\RX65N_Cloud_Kit\src/tensorflow/lite/micro\micro_mutable_op_resolver.h ****       const TfLiteRegistration& registration = registrations_[i];
 1260                             		.loc 3 43 32
 1261 03ac 61 05                   		cmp	#0, r5
 1262 03ae 3A 41 22                		beq	.L523
 1263                             	.LVL128:
 1264                             	.LBB886:
  45:C:\Users\a5116938\Desktop\e2_studio_workspace\EEMBC_final\RX65N_Cloud_Kit\src/tensorflow/lite/micro\micro_mutable_op_resolver.h ****         return &registration;
 1265                             		.loc 3 45 7
 1266 03b1 ED 7A 06                		mov.L	24[r7], r10
 1267 03b4 75 5A 6C                		cmp	#0x6c, r10
 1268 03b7 3A 5C 16                		beq	.L107
 1269 03ba 71 73 38                		add	#56, r7, r3
 1270                             	.LBE886:
  43:C:\Users\a5116938\Desktop\e2_studio_workspace\EEMBC_final\RX65N_Cloud_Kit\src/tensorflow/lite/micro\micro_mutable_op_resolver.h ****       const TfLiteRegistration& registration = registrations_[i];
 1271                             		.loc 3 43 23
 1272 03bd 66 04                   		mov.L	#0, r4
 1273 03bf 2E 0D                   		bra	.L108
 1274                             	.LVL129:
 1275                             	.L1089:
 1276                             	.LBB887:
  45:C:\Users\a5116938\Desktop\e2_studio_workspace\EEMBC_final\RX65N_Cloud_Kit\src/tensorflow/lite/micro\micro_mutable_op_resolver.h ****         return &registration;
 1277                             		.loc 3 45 24
 1278 03c1 71 3A E0                		add	#-32, r3, r10
  45:C:\Users\a5116938\Desktop\e2_studio_workspace\EEMBC_final\RX65N_Cloud_Kit\src/tensorflow/lite/micro\micro_mutable_op_resolver.h ****         return &registration;
 1279                             		.loc 3 45 7
 1280 03c4 EC AA                   		mov.L	[r10], r10
 1281 03c6 75 5A 6C                		cmp	#0x6c, r10
 1282 03c9 3A 4A 16                		beq	.L107
 1283                             	.LVL130:
 1284                             		.balign 8,3,2
 1285                             	.L108:
 1286 03cc 71 33 20                		add	#32, r3
 1287                             	.LBE887:
  43:C:\Users\a5116938\Desktop\e2_studio_workspace\EEMBC_final\RX65N_Cloud_Kit\src/tensorflow/lite/micro\micro_mutable_op_resolver.h ****       const TfLiteRegistration& registration = registrations_[i];
 1288                             		.loc 3 43 5
 1289 03cf 62 14                   		add	#1, r4
 1290                             	.LVL131:
  43:C:\Users\a5116938\Desktop\e2_studio_workspace\EEMBC_final\RX65N_Cloud_Kit\src/tensorflow/lite/micro\micro_mutable_op_resolver.h ****       const TfLiteRegistration& registration = registrations_[i];
 1291                             		.loc 3 43 32
 1292 03d1 47 54                   		cmp	r5, r4
 1293 03d3 21 EE                   		bne	.L1089
 1294                             	.LVL132:
 1295                             	.LBE885:
 1296                             	.LBE884:
 433:C:\Users\a5116938\Desktop\e2_studio_workspace\EEMBC_final\RX65N_Cloud_Kit\src/tensorflow/lite/micro\micro_mutable_op_resolver.h ****       if (error_reporter_) {
 1297                             		.loc 3 433 5
 1298 03d5 75 55 80                		cmp	#0x80, r5
 1299 03d8 3A 6C 20                		beq	.L497
 1300 03db 71 54 01                		add	#1, r5, r4
 1301                             		.balign 8,3,1
 1302                             	.L106:
 443:C:\Users\a5116938\Desktop\e2_studio_workspace\EEMBC_final\RX65N_Cloud_Kit\src/tensorflow/lite/micro\micro_mutable_op_resolver.h ****     // Strictly speaking, the builtin_code is not necessary for TFLM but filling
 1303                             		.loc 3 443 5
 1304 03de 6C 55                   		shll	#5, r5
 1305 03e0 66 C2                   		mov.L	#12, r2
 1306 03e2 4B 02                   		add	r0, r2
 1307 03e4 4B 75                   		add	r7, r5
 1308 03e6 75 43 20                		mov.L	#32, r3
 1309 03e9 71 51 04                		add	#4, r5, r1
 1310 03ec 7F 8F                   		smovf
 449:C:\Users\a5116938\Desktop\e2_studio_workspace\EEMBC_final\RX65N_Cloud_Kit\src/tensorflow/lite/micro\micro_mutable_op_resolver.h ****     builtin_parsers_[num_buitin_ops_] = parser;
 1311                             		.loc 3 449 20
 1312 03ee EE 7A 02 05             		mov.L	5128[r7], r10
 446:C:\Users\a5116938\Desktop\e2_studio_workspace\EEMBC_final\RX65N_Cloud_Kit\src/tensorflow/lite/micro\micro_mutable_op_resolver.h ****     registrations_len_++;
 1313                             		.loc 3 446 5
 1314 03f2 3E 56 6C                		mov.L	#0x6c, 24[r5]
 1315 03f5 FD C2 A5                		shll	#2, r10, r5
 1316 03f8 4B 75                   		add	r7, r5
 1317                             		.loc 3 451 5
 1318 03fa 62 1A                   		add	#1, r10
 447:C:\Users\a5116938\Desktop\e2_studio_workspace\EEMBC_final\RX65N_Cloud_Kit\src/tensorflow/lite/micro\micro_mutable_op_resolver.h **** 
 1319                             		.loc 3 447 5
 1320 03fc EB 74 01 04             		mov.L	r4, 4100[r7]
 449:C:\Users\a5116938\Desktop\e2_studio_workspace\EEMBC_final\RX65N_Cloud_Kit\src/tensorflow/lite/micro\micro_mutable_op_resolver.h ****     builtin_parsers_[num_buitin_ops_] = parser;
 1321                             		.loc 3 449 5
 1322 0400 FA 56 02 04 6C          		mov.L	#0x6c, 4104[r5]
 450:C:\Users\a5116938\Desktop\e2_studio_workspace\EEMBC_final\RX65N_Cloud_Kit\src/tensorflow/lite/micro\micro_mutable_op_resolver.h ****     num_buitin_ops_++;
 1323                             		.loc 3 450 5
 1324 0405 FA 52 82 04 00 00 00 00 		mov.L	#__ZN6tflite8ParseCosEPKNS_8OperatorEPNS_13ErrorReporterEPNS_20BuiltinDataAllocatorEPPv, 461
 1325                             		.loc 3 451 5
 1326 040d EB 7A 02 05             		mov.L	r10, 5128[r7]
 1327                             		.balign 8,3,1
 1328                             	.L111:
 1329                             	.LVL133:
 1330                             	.LBE883:
 1331                             	.LBE882:
 1332                             	.LBE881:
 1333                             	.LBE880:
  38:../src/tensorflow/lite/micro/all_ops_resolver.cc ****   AddDepthwiseConv2D();
 1334                             		.loc 6 38 3 is_stmt 1
 1335                             	.LBB901:
 1336                             	.LBB902:
 164:C:\Users\a5116938\Desktop\e2_studio_workspace\EEMBC_final\RX65N_Cloud_Kit\src/tensorflow/lite/micro\micro_mutable_op_resolver.h ****   }
 1337                             		.loc 3 164 49 is_stmt 0
 1338 0411 66 CF                   		mov.L	#12, r15
 1339 0413 4B 0F                   		add	r0, r15
 1340 0415 05 00 00 00             		bsr	__ZN6tflite26Register_DEPTHWISE_CONV_2DEv
 1341                             	.LVL134:
 1342                             	.LBB903:
 1343                             	.LBB904:
 1344                             	.LBB905:
 1345                             	.LBB906:
  43:C:\Users\a5116938\Desktop\e2_studio_workspace\EEMBC_final\RX65N_Cloud_Kit\src/tensorflow/lite/micro\micro_mutable_op_resolver.h ****       const TfLiteRegistration& registration = registrations_[i];
 1346                             		.loc 3 43 34
 1347 0419 EE 75 01 04             		mov.L	4100[r7], r5
  43:C:\Users\a5116938\Desktop\e2_studio_workspace\EEMBC_final\RX65N_Cloud_Kit\src/tensorflow/lite/micro\micro_mutable_op_resolver.h ****       const TfLiteRegistration& registration = registrations_[i];
 1348                             		.loc 3 43 32
 1349 041d 61 05                   		cmp	#0, r5
 1350 041f 3A D5 21                		beq	.L524
 1351                             	.LVL135:
 1352                             	.LBB907:
  45:C:\Users\a5116938\Desktop\e2_studio_workspace\EEMBC_final\RX65N_Cloud_Kit\src/tensorflow/lite/micro\micro_mutable_op_resolver.h ****         return &registration;
 1353                             		.loc 3 45 7
 1354 0422 ED 7A 06                		mov.L	24[r7], r10
 1355 0425 61 4A                   		cmp	#4, r10
 1356 0427 3A 05 16                		beq	.L113
 1357 042a 71 73 38                		add	#56, r7, r3
 1358                             	.LBE907:
  43:C:\Users\a5116938\Desktop\e2_studio_workspace\EEMBC_final\RX65N_Cloud_Kit\src/tensorflow/lite/micro\micro_mutable_op_resolver.h ****       const TfLiteRegistration& registration = registrations_[i];
 1359                             		.loc 3 43 23
 1360 042d 66 04                   		mov.L	#0, r4
 1361 042f 2E 0C                   		bra	.L114
 1362                             	.LVL136:
 1363                             	.L1090:
 1364                             	.LBB908:
  45:C:\Users\a5116938\Desktop\e2_studio_workspace\EEMBC_final\RX65N_Cloud_Kit\src/tensorflow/lite/micro\micro_mutable_op_resolver.h ****         return &registration;
 1365                             		.loc 3 45 24
 1366 0431 71 3A E0                		add	#-32, r3, r10
  45:C:\Users\a5116938\Desktop\e2_studio_workspace\EEMBC_final\RX65N_Cloud_Kit\src/tensorflow/lite/micro\micro_mutable_op_resolver.h ****         return &registration;
 1367                             		.loc 3 45 7
 1368 0434 EC AA                   		mov.L	[r10], r10
 1369 0436 61 4A                   		cmp	#4, r10
 1370 0438 3A F4 15                		beq	.L113
 1371                             	.LVL137:
 1372                             		.balign 8,3,2
 1373                             	.L114:
 1374 043b 71 33 20                		add	#32, r3
 1375                             	.LBE908:
  43:C:\Users\a5116938\Desktop\e2_studio_workspace\EEMBC_final\RX65N_Cloud_Kit\src/tensorflow/lite/micro\micro_mutable_op_resolver.h ****       const TfLiteRegistration& registration = registrations_[i];
 1376                             		.loc 3 43 5
 1377 043e 62 14                   		add	#1, r4
 1378                             	.LVL138:
  43:C:\Users\a5116938\Desktop\e2_studio_workspace\EEMBC_final\RX65N_Cloud_Kit\src/tensorflow/lite/micro\micro_mutable_op_resolver.h ****       const TfLiteRegistration& registration = registrations_[i];
 1379                             		.loc 3 43 32
 1380 0440 47 54                   		cmp	r5, r4
 1381 0442 21 EF                   		bne	.L1090
 1382                             	.LVL139:
 1383                             	.LBE906:
 1384                             	.LBE905:
 433:C:\Users\a5116938\Desktop\e2_studio_workspace\EEMBC_final\RX65N_Cloud_Kit\src/tensorflow/lite/micro\micro_mutable_op_resolver.h ****       if (error_reporter_) {
 1385                             		.loc 3 433 5
 1386 0444 75 55 80                		cmp	#0x80, r5
 1387 0447 3A 18 20                		beq	.L496
 1388 044a 71 54 01                		add	#1, r5, r4
 1389                             		.balign 8,3,1
 1390                             	.L112:
 443:C:\Users\a5116938\Desktop\e2_studio_workspace\EEMBC_final\RX65N_Cloud_Kit\src/tensorflow/lite/micro\micro_mutable_op_resolver.h ****     // Strictly speaking, the builtin_code is not necessary for TFLM but filling
 1391                             		.loc 3 443 5
 1392 044d 6C 55                   		shll	#5, r5
 1393 044f 66 C2                   		mov.L	#12, r2
 1394 0451 4B 02                   		add	r0, r2
 1395 0453 4B 75                   		add	r7, r5
 1396 0455 75 43 20                		mov.L	#32, r3
 1397 0458 71 51 04                		add	#4, r5, r1
 1398 045b 7F 8F                   		smovf
 449:C:\Users\a5116938\Desktop\e2_studio_workspace\EEMBC_final\RX65N_Cloud_Kit\src/tensorflow/lite/micro\micro_mutable_op_resolver.h ****     builtin_parsers_[num_buitin_ops_] = parser;
 1399                             		.loc 3 449 20
 1400 045d EE 7A 02 05             		mov.L	5128[r7], r10
 446:C:\Users\a5116938\Desktop\e2_studio_workspace\EEMBC_final\RX65N_Cloud_Kit\src/tensorflow/lite/micro\micro_mutable_op_resolver.h ****     registrations_len_++;
 1401                             		.loc 3 446 5
 1402 0461 3E 56 04                		mov.L	#4, 24[r5]
 1403 0464 FD C2 A5                		shll	#2, r10, r5
 1404 0467 4B 75                   		add	r7, r5
 1405                             		.loc 3 451 5
 1406 0469 62 1A                   		add	#1, r10
 447:C:\Users\a5116938\Desktop\e2_studio_workspace\EEMBC_final\RX65N_Cloud_Kit\src/tensorflow/lite/micro\micro_mutable_op_resolver.h **** 
 1407                             		.loc 3 447 5
 1408 046b EB 74 01 04             		mov.L	r4, 4100[r7]
 449:C:\Users\a5116938\Desktop\e2_studio_workspace\EEMBC_final\RX65N_Cloud_Kit\src/tensorflow/lite/micro\micro_mutable_op_resolver.h ****     builtin_parsers_[num_buitin_ops_] = parser;
 1409                             		.loc 3 449 5
 1410 046f FA 56 02 04 04          		mov.L	#4, 4104[r5]
 450:C:\Users\a5116938\Desktop\e2_studio_workspace\EEMBC_final\RX65N_Cloud_Kit\src/tensorflow/lite/micro\micro_mutable_op_resolver.h ****     num_buitin_ops_++;
 1411                             		.loc 3 450 5
 1412 0474 FA 52 82 04 00 00 00 00 		mov.L	#__ZN6tflite20ParseDepthwiseConv2DEPKNS_8OperatorEPNS_13ErrorReporterEPNS_20BuiltinDataAlloc
 1413                             		.loc 3 451 5
 1414 047c EB 7A 02 05             		mov.L	r10, 5128[r7]
 1415                             		.balign 8,3,1
 1416                             	.L117:
 1417                             	.LVL140:
 1418                             	.LBE904:
 1419                             	.LBE903:
 1420                             	.LBE902:
 1421                             	.LBE901:
  39:../src/tensorflow/lite/micro/all_ops_resolver.cc ****   AddDequantize();
 1422                             		.loc 6 39 3 is_stmt 1
 1423                             	.LBB922:
 1424                             	.LBB923:
 169:C:\Users\a5116938\Desktop\e2_studio_workspace\EEMBC_final\RX65N_Cloud_Kit\src/tensorflow/lite/micro\micro_mutable_op_resolver.h ****                       ParseDequantize);
 1425                             		.loc 3 169 62 is_stmt 0
 1426 0480 66 CF                   		mov.L	#12, r15
 1427 0482 4B 0F                   		add	r0, r15
 1428 0484 05 00 00 00             		bsr	__ZN6tflite3ops5micro19Register_DEQUANTIZEEv
 1429                             	.LVL141:
 1430                             	.LBB924:
 1431                             	.LBB925:
 1432                             	.LBB926:
 1433                             	.LBB927:
  43:C:\Users\a5116938\Desktop\e2_studio_workspace\EEMBC_final\RX65N_Cloud_Kit\src/tensorflow/lite/micro\micro_mutable_op_resolver.h ****       const TfLiteRegistration& registration = registrations_[i];
 1434                             		.loc 3 43 34
 1435 0488 EE 75 01 04             		mov.L	4100[r7], r5
  43:C:\Users\a5116938\Desktop\e2_studio_workspace\EEMBC_final\RX65N_Cloud_Kit\src/tensorflow/lite/micro\micro_mutable_op_resolver.h ****       const TfLiteRegistration& registration = registrations_[i];
 1436                             		.loc 3 43 32
 1437 048c 61 05                   		cmp	#0, r5
 1438 048e 3A 43 21                		beq	.L525
 1439                             	.LVL142:
 1440                             	.LBB928:
  45:C:\Users\a5116938\Desktop\e2_studio_workspace\EEMBC_final\RX65N_Cloud_Kit\src/tensorflow/lite/micro\micro_mutable_op_resolver.h ****         return &registration;
 1441                             		.loc 3 45 7
 1442 0491 ED 7A 06                		mov.L	24[r7], r10
 1443 0494 61 6A                   		cmp	#6, r10
 1444 0496 3A AF 15                		beq	.L119
 1445 0499 71 73 38                		add	#56, r7, r3
 1446                             	.LBE928:
  43:C:\Users\a5116938\Desktop\e2_studio_workspace\EEMBC_final\RX65N_Cloud_Kit\src/tensorflow/lite/micro\micro_mutable_op_resolver.h ****       const TfLiteRegistration& registration = registrations_[i];
 1447                             		.loc 3 43 23
 1448 049c 66 04                   		mov.L	#0, r4
 1449 049e 2E 0C                   		bra	.L120
 1450                             	.LVL143:
 1451                             	.L1091:
 1452                             	.LBB929:
  45:C:\Users\a5116938\Desktop\e2_studio_workspace\EEMBC_final\RX65N_Cloud_Kit\src/tensorflow/lite/micro\micro_mutable_op_resolver.h ****         return &registration;
 1453                             		.loc 3 45 24
 1454 04a0 71 3A E0                		add	#-32, r3, r10
  45:C:\Users\a5116938\Desktop\e2_studio_workspace\EEMBC_final\RX65N_Cloud_Kit\src/tensorflow/lite/micro\micro_mutable_op_resolver.h ****         return &registration;
 1455                             		.loc 3 45 7
 1456 04a3 EC AA                   		mov.L	[r10], r10
 1457 04a5 61 6A                   		cmp	#6, r10
 1458 04a7 3A 9E 15                		beq	.L119
 1459                             	.LVL144:
 1460                             		.balign 8,3,2
 1461                             	.L120:
 1462 04aa 71 33 20                		add	#32, r3
 1463                             	.LBE929:
  43:C:\Users\a5116938\Desktop\e2_studio_workspace\EEMBC_final\RX65N_Cloud_Kit\src/tensorflow/lite/micro\micro_mutable_op_resolver.h ****       const TfLiteRegistration& registration = registrations_[i];
 1464                             		.loc 3 43 5
 1465 04ad 62 14                   		add	#1, r4
 1466                             	.LVL145:
  43:C:\Users\a5116938\Desktop\e2_studio_workspace\EEMBC_final\RX65N_Cloud_Kit\src/tensorflow/lite/micro\micro_mutable_op_resolver.h ****       const TfLiteRegistration& registration = registrations_[i];
 1467                             		.loc 3 43 32
 1468 04af 47 54                   		cmp	r5, r4
 1469 04b1 21 EF                   		bne	.L1091
 1470                             	.LVL146:
 1471                             	.LBE927:
 1472                             	.LBE926:
 433:C:\Users\a5116938\Desktop\e2_studio_workspace\EEMBC_final\RX65N_Cloud_Kit\src/tensorflow/lite/micro\micro_mutable_op_resolver.h ****       if (error_reporter_) {
 1473                             		.loc 3 433 5
 1474 04b3 75 55 80                		cmp	#0x80, r5
 1475 04b6 3A C4 1F                		beq	.L494
 1476 04b9 71 54 01                		add	#1, r5, r4
 1477                             		.balign 8,3,1
 1478                             	.L118:
 443:C:\Users\a5116938\Desktop\e2_studio_workspace\EEMBC_final\RX65N_Cloud_Kit\src/tensorflow/lite/micro\micro_mutable_op_resolver.h ****     // Strictly speaking, the builtin_code is not necessary for TFLM but filling
 1479                             		.loc 3 443 5
 1480 04bc 6C 55                   		shll	#5, r5
 1481 04be 66 C2                   		mov.L	#12, r2
 1482 04c0 4B 02                   		add	r0, r2
 1483 04c2 4B 75                   		add	r7, r5
 1484 04c4 75 43 20                		mov.L	#32, r3
 1485 04c7 71 51 04                		add	#4, r5, r1
 1486 04ca 7F 8F                   		smovf
 449:C:\Users\a5116938\Desktop\e2_studio_workspace\EEMBC_final\RX65N_Cloud_Kit\src/tensorflow/lite/micro\micro_mutable_op_resolver.h ****     builtin_parsers_[num_buitin_ops_] = parser;
 1487                             		.loc 3 449 20
 1488 04cc EE 7A 02 05             		mov.L	5128[r7], r10
 446:C:\Users\a5116938\Desktop\e2_studio_workspace\EEMBC_final\RX65N_Cloud_Kit\src/tensorflow/lite/micro\micro_mutable_op_resolver.h ****     registrations_len_++;
 1489                             		.loc 3 446 5
 1490 04d0 3E 56 06                		mov.L	#6, 24[r5]
 1491 04d3 FD C2 A5                		shll	#2, r10, r5
 1492 04d6 4B 75                   		add	r7, r5
 1493                             		.loc 3 451 5
 1494 04d8 62 1A                   		add	#1, r10
 447:C:\Users\a5116938\Desktop\e2_studio_workspace\EEMBC_final\RX65N_Cloud_Kit\src/tensorflow/lite/micro\micro_mutable_op_resolver.h **** 
 1495                             		.loc 3 447 5
 1496 04da EB 74 01 04             		mov.L	r4, 4100[r7]
 449:C:\Users\a5116938\Desktop\e2_studio_workspace\EEMBC_final\RX65N_Cloud_Kit\src/tensorflow/lite/micro\micro_mutable_op_resolver.h ****     builtin_parsers_[num_buitin_ops_] = parser;
 1497                             		.loc 3 449 5
 1498 04de FA 56 02 04 06          		mov.L	#6, 4104[r5]
 450:C:\Users\a5116938\Desktop\e2_studio_workspace\EEMBC_final\RX65N_Cloud_Kit\src/tensorflow/lite/micro\micro_mutable_op_resolver.h ****     num_buitin_ops_++;
 1499                             		.loc 3 450 5
 1500 04e3 FA 52 82 04 00 00 00 00 		mov.L	#__ZN6tflite15ParseDequantizeEPKNS_8OperatorEPNS_13ErrorReporterEPNS_20BuiltinDataAllocatorE
 1501                             		.loc 3 451 5
 1502 04eb EB 7A 02 05             		mov.L	r10, 5128[r7]
 1503 04ef 03                      		.balign 8,3,1
 1504                             	.L123:
 1505                             	.LVL147:
 1506                             	.LBE925:
 1507                             	.LBE924:
 1508                             	.LBE923:
 1509                             	.LBE922:
  40:../src/tensorflow/lite/micro/all_ops_resolver.cc ****   AddEqual();
 1510                             		.loc 6 40 3 is_stmt 1
 1511                             	.LBB943:
 1512                             	.LBB944:
 175:C:\Users\a5116938\Desktop\e2_studio_workspace\EEMBC_final\RX65N_Cloud_Kit\src/tensorflow/lite/micro\micro_mutable_op_resolver.h ****   }
 1513                             		.loc 3 175 57 is_stmt 0
 1514 04f0 66 CF                   		mov.L	#12, r15
 1515 04f2 4B 0F                   		add	r0, r15
 1516 04f4 05 00 00 00             		bsr	__ZN6tflite3ops5micro14Register_EQUALEv
 1517                             	.LVL148:
 1518                             	.LBB945:
 1519                             	.LBB946:
 1520                             	.LBB947:
 1521                             	.LBB948:
  43:C:\Users\a5116938\Desktop\e2_studio_workspace\EEMBC_final\RX65N_Cloud_Kit\src/tensorflow/lite/micro\micro_mutable_op_resolver.h ****       const TfLiteRegistration& registration = registrations_[i];
 1522                             		.loc 3 43 34
 1523 04f8 EE 75 01 04             		mov.L	4100[r7], r5
  43:C:\Users\a5116938\Desktop\e2_studio_workspace\EEMBC_final\RX65N_Cloud_Kit\src/tensorflow/lite/micro\micro_mutable_op_resolver.h ****       const TfLiteRegistration& registration = registrations_[i];
 1524                             		.loc 3 43 32
 1525 04fc 61 05                   		cmp	#0, r5
 1526 04fe 3A EC 20                		beq	.L526
 1527                             	.LVL149:
 1528                             	.LBB949:
  45:C:\Users\a5116938\Desktop\e2_studio_workspace\EEMBC_final\RX65N_Cloud_Kit\src/tensorflow/lite/micro\micro_mutable_op_resolver.h ****         return &registration;
 1529                             		.loc 3 45 7
 1530 0501 ED 7A 06                		mov.L	24[r7], r10
 1531 0504 75 5A 47                		cmp	#0x47, r10
 1532 0507 3A 57 15                		beq	.L125
 1533 050a 71 73 38                		add	#56, r7, r3
 1534                             	.LBE949:
  43:C:\Users\a5116938\Desktop\e2_studio_workspace\EEMBC_final\RX65N_Cloud_Kit\src/tensorflow/lite/micro\micro_mutable_op_resolver.h ****       const TfLiteRegistration& registration = registrations_[i];
 1535                             		.loc 3 43 23
 1536 050d 66 04                   		mov.L	#0, r4
 1537 050f 2E 0D                   		bra	.L126
 1538                             	.LVL150:
 1539                             	.L1092:
 1540                             	.LBB950:
  45:C:\Users\a5116938\Desktop\e2_studio_workspace\EEMBC_final\RX65N_Cloud_Kit\src/tensorflow/lite/micro\micro_mutable_op_resolver.h ****         return &registration;
 1541                             		.loc 3 45 24
 1542 0511 71 3A E0                		add	#-32, r3, r10
  45:C:\Users\a5116938\Desktop\e2_studio_workspace\EEMBC_final\RX65N_Cloud_Kit\src/tensorflow/lite/micro\micro_mutable_op_resolver.h ****         return &registration;
 1543                             		.loc 3 45 7
 1544 0514 EC AA                   		mov.L	[r10], r10
 1545 0516 75 5A 47                		cmp	#0x47, r10
 1546 0519 3A 45 15                		beq	.L125
 1547                             	.LVL151:
 1548                             		.balign 8,3,2
 1549                             	.L126:
 1550 051c 71 33 20                		add	#32, r3
 1551                             	.LBE950:
  43:C:\Users\a5116938\Desktop\e2_studio_workspace\EEMBC_final\RX65N_Cloud_Kit\src/tensorflow/lite/micro\micro_mutable_op_resolver.h ****       const TfLiteRegistration& registration = registrations_[i];
 1552                             		.loc 3 43 5
 1553 051f 62 14                   		add	#1, r4
 1554                             	.LVL152:
  43:C:\Users\a5116938\Desktop\e2_studio_workspace\EEMBC_final\RX65N_Cloud_Kit\src/tensorflow/lite/micro\micro_mutable_op_resolver.h ****       const TfLiteRegistration& registration = registrations_[i];
 1555                             		.loc 3 43 32
 1556 0521 47 54                   		cmp	r5, r4
 1557 0523 21 EE                   		bne	.L1092
 1558                             	.LVL153:
 1559                             	.LBE948:
 1560                             	.LBE947:
 433:C:\Users\a5116938\Desktop\e2_studio_workspace\EEMBC_final\RX65N_Cloud_Kit\src/tensorflow/lite/micro\micro_mutable_op_resolver.h ****       if (error_reporter_) {
 1561                             		.loc 3 433 5
 1562 0525 75 55 80                		cmp	#0x80, r5
 1563 0528 3A 6D 1F                		beq	.L491
 1564 052b 71 54 01                		add	#1, r5, r4
 1565                             		.balign 8,3,1
 1566                             	.L124:
 443:C:\Users\a5116938\Desktop\e2_studio_workspace\EEMBC_final\RX65N_Cloud_Kit\src/tensorflow/lite/micro\micro_mutable_op_resolver.h ****     // Strictly speaking, the builtin_code is not necessary for TFLM but filling
 1567                             		.loc 3 443 5
 1568 052e 6C 55                   		shll	#5, r5
 1569 0530 66 C2                   		mov.L	#12, r2
 1570 0532 4B 02                   		add	r0, r2
 1571 0534 4B 75                   		add	r7, r5
 1572 0536 75 43 20                		mov.L	#32, r3
 1573 0539 71 51 04                		add	#4, r5, r1
 1574 053c 7F 8F                   		smovf
 449:C:\Users\a5116938\Desktop\e2_studio_workspace\EEMBC_final\RX65N_Cloud_Kit\src/tensorflow/lite/micro\micro_mutable_op_resolver.h ****     builtin_parsers_[num_buitin_ops_] = parser;
 1575                             		.loc 3 449 20
 1576 053e EE 7A 02 05             		mov.L	5128[r7], r10
 446:C:\Users\a5116938\Desktop\e2_studio_workspace\EEMBC_final\RX65N_Cloud_Kit\src/tensorflow/lite/micro\micro_mutable_op_resolver.h ****     registrations_len_++;
 1577                             		.loc 3 446 5
 1578 0542 3E 56 47                		mov.L	#0x47, 24[r5]
 1579 0545 FD C2 A5                		shll	#2, r10, r5
 1580 0548 4B 75                   		add	r7, r5
 1581                             		.loc 3 451 5
 1582 054a 62 1A                   		add	#1, r10
 447:C:\Users\a5116938\Desktop\e2_studio_workspace\EEMBC_final\RX65N_Cloud_Kit\src/tensorflow/lite/micro\micro_mutable_op_resolver.h **** 
 1583                             		.loc 3 447 5
 1584 054c EB 74 01 04             		mov.L	r4, 4100[r7]
 449:C:\Users\a5116938\Desktop\e2_studio_workspace\EEMBC_final\RX65N_Cloud_Kit\src/tensorflow/lite/micro\micro_mutable_op_resolver.h ****     builtin_parsers_[num_buitin_ops_] = parser;
 1585                             		.loc 3 449 5
 1586 0550 FA 56 02 04 47          		mov.L	#0x47, 4104[r5]
 450:C:\Users\a5116938\Desktop\e2_studio_workspace\EEMBC_final\RX65N_Cloud_Kit\src/tensorflow/lite/micro\micro_mutable_op_resolver.h ****     num_buitin_ops_++;
 1587                             		.loc 3 450 5
 1588 0555 FA 52 82 04 00 00 00 00 		mov.L	#__ZN6tflite10ParseEqualEPKNS_8OperatorEPNS_13ErrorReporterEPNS_20BuiltinDataAllocatorEPPv, 
 1589                             		.loc 3 451 5
 1590 055d EB 7A 02 05             		mov.L	r10, 5128[r7]
 1591                             		.balign 8,3,1
 1592                             	.L129:
 1593                             	.LVL154:
 1594                             	.LBE946:
 1595                             	.LBE945:
 1596                             	.LBE944:
 1597                             	.LBE943:
  41:../src/tensorflow/lite/micro/all_ops_resolver.cc ****   AddFloor();
 1598                             		.loc 6 41 3 is_stmt 1
 1599                             	.LBB964:
 1600                             	.LBB965:
 180:C:\Users\a5116938\Desktop\e2_studio_workspace\EEMBC_final\RX65N_Cloud_Kit\src/tensorflow/lite/micro\micro_mutable_op_resolver.h ****   }
 1601                             		.loc 3 180 57 is_stmt 0
 1602 0561 66 CF                   		mov.L	#12, r15
 1603 0563 4B 0F                   		add	r0, r15
 1604 0565 05 00 00 00             		bsr	__ZN6tflite3ops5micro14Register_FLOOREv
 1605                             	.LVL155:
 1606                             	.LBB966:
 1607                             	.LBB967:
 1608                             	.LBB968:
 1609                             	.LBB969:
  43:C:\Users\a5116938\Desktop\e2_studio_workspace\EEMBC_final\RX65N_Cloud_Kit\src/tensorflow/lite/micro\micro_mutable_op_resolver.h ****       const TfLiteRegistration& registration = registrations_[i];
 1610                             		.loc 3 43 34
 1611 0569 EE 75 01 04             		mov.L	4100[r7], r5
  43:C:\Users\a5116938\Desktop\e2_studio_workspace\EEMBC_final\RX65N_Cloud_Kit\src/tensorflow/lite/micro\micro_mutable_op_resolver.h ****       const TfLiteRegistration& registration = registrations_[i];
 1612                             		.loc 3 43 32
 1613 056d 61 05                   		cmp	#0, r5
 1614 056f 3A 8A 20                		beq	.L527
 1615                             	.LVL156:
 1616                             	.LBB970:
  45:C:\Users\a5116938\Desktop\e2_studio_workspace\EEMBC_final\RX65N_Cloud_Kit\src/tensorflow/lite/micro\micro_mutable_op_resolver.h ****         return &registration;
 1617                             		.loc 3 45 7
 1618 0572 ED 7A 06                		mov.L	24[r7], r10
 1619 0575 61 8A                   		cmp	#8, r10
 1620 0577 3A 00 15                		beq	.L131
 1621 057a 71 73 38                		add	#56, r7, r3
 1622                             	.LBE970:
  43:C:\Users\a5116938\Desktop\e2_studio_workspace\EEMBC_final\RX65N_Cloud_Kit\src/tensorflow/lite/micro\micro_mutable_op_resolver.h ****       const TfLiteRegistration& registration = registrations_[i];
 1623                             		.loc 3 43 23
 1624 057d 66 04                   		mov.L	#0, r4
 1625 057f 2E 0C                   		bra	.L132
 1626                             	.LVL157:
 1627                             	.L1093:
 1628                             	.LBB971:
  45:C:\Users\a5116938\Desktop\e2_studio_workspace\EEMBC_final\RX65N_Cloud_Kit\src/tensorflow/lite/micro\micro_mutable_op_resolver.h ****         return &registration;
 1629                             		.loc 3 45 24
 1630 0581 71 3A E0                		add	#-32, r3, r10
  45:C:\Users\a5116938\Desktop\e2_studio_workspace\EEMBC_final\RX65N_Cloud_Kit\src/tensorflow/lite/micro\micro_mutable_op_resolver.h ****         return &registration;
 1631                             		.loc 3 45 7
 1632 0584 EC AA                   		mov.L	[r10], r10
 1633 0586 61 8A                   		cmp	#8, r10
 1634 0588 3A EF 14                		beq	.L131
 1635                             	.LVL158:
 1636                             		.balign 8,3,2
 1637                             	.L132:
 1638 058b 71 33 20                		add	#32, r3
 1639                             	.LBE971:
  43:C:\Users\a5116938\Desktop\e2_studio_workspace\EEMBC_final\RX65N_Cloud_Kit\src/tensorflow/lite/micro\micro_mutable_op_resolver.h ****       const TfLiteRegistration& registration = registrations_[i];
 1640                             		.loc 3 43 5
 1641 058e 62 14                   		add	#1, r4
 1642                             	.LVL159:
  43:C:\Users\a5116938\Desktop\e2_studio_workspace\EEMBC_final\RX65N_Cloud_Kit\src/tensorflow/lite/micro\micro_mutable_op_resolver.h ****       const TfLiteRegistration& registration = registrations_[i];
 1643                             		.loc 3 43 32
 1644 0590 47 54                   		cmp	r5, r4
 1645 0592 21 EF                   		bne	.L1093
 1646                             	.LVL160:
 1647                             	.LBE969:
 1648                             	.LBE968:
 433:C:\Users\a5116938\Desktop\e2_studio_workspace\EEMBC_final\RX65N_Cloud_Kit\src/tensorflow/lite/micro\micro_mutable_op_resolver.h ****       if (error_reporter_) {
 1649                             		.loc 3 433 5
 1650 0594 75 55 80                		cmp	#0x80, r5
 1651 0597 3A 19 1F                		beq	.L490
 1652 059a 71 54 01                		add	#1, r5, r4
 1653                             		.balign 8,3,1
 1654                             	.L130:
 443:C:\Users\a5116938\Desktop\e2_studio_workspace\EEMBC_final\RX65N_Cloud_Kit\src/tensorflow/lite/micro\micro_mutable_op_resolver.h ****     // Strictly speaking, the builtin_code is not necessary for TFLM but filling
 1655                             		.loc 3 443 5
 1656 059d 6C 55                   		shll	#5, r5
 1657 059f 66 C2                   		mov.L	#12, r2
 1658 05a1 4B 02                   		add	r0, r2
 1659 05a3 4B 75                   		add	r7, r5
 1660 05a5 75 43 20                		mov.L	#32, r3
 1661 05a8 71 51 04                		add	#4, r5, r1
 1662 05ab 7F 8F                   		smovf
 449:C:\Users\a5116938\Desktop\e2_studio_workspace\EEMBC_final\RX65N_Cloud_Kit\src/tensorflow/lite/micro\micro_mutable_op_resolver.h ****     builtin_parsers_[num_buitin_ops_] = parser;
 1663                             		.loc 3 449 20
 1664 05ad EE 7A 02 05             		mov.L	5128[r7], r10
 446:C:\Users\a5116938\Desktop\e2_studio_workspace\EEMBC_final\RX65N_Cloud_Kit\src/tensorflow/lite/micro\micro_mutable_op_resolver.h ****     registrations_len_++;
 1665                             		.loc 3 446 5
 1666 05b1 3E 56 08                		mov.L	#8, 24[r5]
 1667 05b4 FD C2 A5                		shll	#2, r10, r5
 1668 05b7 4B 75                   		add	r7, r5
 1669                             		.loc 3 451 5
 1670 05b9 62 1A                   		add	#1, r10
 447:C:\Users\a5116938\Desktop\e2_studio_workspace\EEMBC_final\RX65N_Cloud_Kit\src/tensorflow/lite/micro\micro_mutable_op_resolver.h **** 
 1671                             		.loc 3 447 5
 1672 05bb EB 74 01 04             		mov.L	r4, 4100[r7]
 449:C:\Users\a5116938\Desktop\e2_studio_workspace\EEMBC_final\RX65N_Cloud_Kit\src/tensorflow/lite/micro\micro_mutable_op_resolver.h ****     builtin_parsers_[num_buitin_ops_] = parser;
 1673                             		.loc 3 449 5
 1674 05bf FA 56 02 04 08          		mov.L	#8, 4104[r5]
 450:C:\Users\a5116938\Desktop\e2_studio_workspace\EEMBC_final\RX65N_Cloud_Kit\src/tensorflow/lite/micro\micro_mutable_op_resolver.h ****     num_buitin_ops_++;
 1675                             		.loc 3 450 5
 1676 05c4 FA 52 82 04 00 00 00 00 		mov.L	#__ZN6tflite10ParseFloorEPKNS_8OperatorEPNS_13ErrorReporterEPNS_20BuiltinDataAllocatorEPPv, 
 1677                             		.loc 3 451 5
 1678 05cc EB 7A 02 05             		mov.L	r10, 5128[r7]
 1679                             		.balign 8,3,1
 1680                             	.L135:
 1681                             	.LVL161:
 1682                             	.LBE967:
 1683                             	.LBE966:
 1684                             	.LBE965:
 1685                             	.LBE964:
  42:../src/tensorflow/lite/micro/all_ops_resolver.cc ****   AddFullyConnected();
 1686                             		.loc 6 42 3 is_stmt 1
 1687                             		.loc 6 42 21 is_stmt 0
 1688 05d0 66 CF                   		mov.L	#12, r15
 1689 05d2 4B 0F                   		add	r0, r15
 1690 05d4 05 00 00 00             		bsr	__ZN6tflite24Register_FULLY_CONNECTEDEv
 1691                             	.LVL162:
 1692                             	.LBB985:
 1693                             	.LBB986:
 1694                             	.LBB987:
 1695                             	.LBB988:
 1696                             	.LBB989:
 1697                             	.LBB990:
  43:C:\Users\a5116938\Desktop\e2_studio_workspace\EEMBC_final\RX65N_Cloud_Kit\src/tensorflow/lite/micro\micro_mutable_op_resolver.h ****       const TfLiteRegistration& registration = registrations_[i];
 1698                             		.loc 3 43 34
 1699 05d8 EE 75 01 04             		mov.L	4100[r7], r5
  43:C:\Users\a5116938\Desktop\e2_studio_workspace\EEMBC_final\RX65N_Cloud_Kit\src/tensorflow/lite/micro\micro_mutable_op_resolver.h ****       const TfLiteRegistration& registration = registrations_[i];
 1700                             		.loc 3 43 32
 1701 05dc 61 05                   		cmp	#0, r5
 1702 05de 3A F8 1F                		beq	.L528
 1703                             	.LVL163:
 1704                             	.LBB991:
  45:C:\Users\a5116938\Desktop\e2_studio_workspace\EEMBC_final\RX65N_Cloud_Kit\src/tensorflow/lite/micro\micro_mutable_op_resolver.h ****         return &registration;
 1705                             		.loc 3 45 7
 1706 05e1 ED 7A 06                		mov.L	24[r7], r10
 1707 05e4 61 9A                   		cmp	#9, r10
 1708 05e6 3A AA 14                		beq	.L137
 1709 05e9 71 73 38                		add	#56, r7, r3
 1710                             	.LBE991:
  43:C:\Users\a5116938\Desktop\e2_studio_workspace\EEMBC_final\RX65N_Cloud_Kit\src/tensorflow/lite/micro\micro_mutable_op_resolver.h ****       const TfLiteRegistration& registration = registrations_[i];
 1711                             		.loc 3 43 23
 1712 05ec 66 04                   		mov.L	#0, r4
 1713 05ee 2E 0C                   		bra	.L138
 1714                             	.LVL164:
 1715                             	.L1094:
 1716                             	.LBB992:
  45:C:\Users\a5116938\Desktop\e2_studio_workspace\EEMBC_final\RX65N_Cloud_Kit\src/tensorflow/lite/micro\micro_mutable_op_resolver.h ****         return &registration;
 1717                             		.loc 3 45 24
 1718 05f0 71 3A E0                		add	#-32, r3, r10
  45:C:\Users\a5116938\Desktop\e2_studio_workspace\EEMBC_final\RX65N_Cloud_Kit\src/tensorflow/lite/micro\micro_mutable_op_resolver.h ****         return &registration;
 1719                             		.loc 3 45 7
 1720 05f3 EC AA                   		mov.L	[r10], r10
 1721 05f5 61 9A                   		cmp	#9, r10
 1722 05f7 3A 99 14                		beq	.L137
 1723                             	.LVL165:
 1724                             		.balign 8,3,2
 1725                             	.L138:
 1726 05fa 71 33 20                		add	#32, r3
 1727                             	.LBE992:
  43:C:\Users\a5116938\Desktop\e2_studio_workspace\EEMBC_final\RX65N_Cloud_Kit\src/tensorflow/lite/micro\micro_mutable_op_resolver.h ****       const TfLiteRegistration& registration = registrations_[i];
 1728                             		.loc 3 43 5
 1729 05fd 62 14                   		add	#1, r4
 1730                             	.LVL166:
  43:C:\Users\a5116938\Desktop\e2_studio_workspace\EEMBC_final\RX65N_Cloud_Kit\src/tensorflow/lite/micro\micro_mutable_op_resolver.h ****       const TfLiteRegistration& registration = registrations_[i];
 1731                             		.loc 3 43 32
 1732 05ff 47 54                   		cmp	r5, r4
 1733 0601 21 EF                   		bne	.L1094
 1734                             	.LVL167:
 1735                             	.LBE990:
 1736                             	.LBE989:
 433:C:\Users\a5116938\Desktop\e2_studio_workspace\EEMBC_final\RX65N_Cloud_Kit\src/tensorflow/lite/micro\micro_mutable_op_resolver.h ****       if (error_reporter_) {
 1737                             		.loc 3 433 5
 1738 0603 75 55 80                		cmp	#0x80, r5
 1739 0606 3A C5 1E                		beq	.L488
 1740 0609 71 54 01                		add	#1, r5, r4
 1741                             		.balign 8,3,1
 1742                             	.L136:
 443:C:\Users\a5116938\Desktop\e2_studio_workspace\EEMBC_final\RX65N_Cloud_Kit\src/tensorflow/lite/micro\micro_mutable_op_resolver.h ****     // Strictly speaking, the builtin_code is not necessary for TFLM but filling
 1743                             		.loc 3 443 5
 1744 060c 6C 55                   		shll	#5, r5
 1745 060e 66 C2                   		mov.L	#12, r2
 1746 0610 4B 02                   		add	r0, r2
 1747 0612 4B 75                   		add	r7, r5
 1748 0614 75 43 20                		mov.L	#32, r3
 1749 0617 71 51 04                		add	#4, r5, r1
 1750 061a 7F 8F                   		smovf
 449:C:\Users\a5116938\Desktop\e2_studio_workspace\EEMBC_final\RX65N_Cloud_Kit\src/tensorflow/lite/micro\micro_mutable_op_resolver.h ****     builtin_parsers_[num_buitin_ops_] = parser;
 1751                             		.loc 3 449 20
 1752 061c EE 7A 02 05             		mov.L	5128[r7], r10
 446:C:\Users\a5116938\Desktop\e2_studio_workspace\EEMBC_final\RX65N_Cloud_Kit\src/tensorflow/lite/micro\micro_mutable_op_resolver.h ****     registrations_len_++;
 1753                             		.loc 3 446 5
 1754 0620 3E 56 09                		mov.L	#9, 24[r5]
 1755 0623 FD C2 A5                		shll	#2, r10, r5
 1756 0626 4B 75                   		add	r7, r5
 1757                             		.loc 3 451 5
 1758 0628 62 1A                   		add	#1, r10
 447:C:\Users\a5116938\Desktop\e2_studio_workspace\EEMBC_final\RX65N_Cloud_Kit\src/tensorflow/lite/micro\micro_mutable_op_resolver.h **** 
 1759                             		.loc 3 447 5
 1760 062a EB 74 01 04             		mov.L	r4, 4100[r7]
 449:C:\Users\a5116938\Desktop\e2_studio_workspace\EEMBC_final\RX65N_Cloud_Kit\src/tensorflow/lite/micro\micro_mutable_op_resolver.h ****     builtin_parsers_[num_buitin_ops_] = parser;
 1761                             		.loc 3 449 5
 1762 062e FA 56 02 04 09          		mov.L	#9, 4104[r5]
 450:C:\Users\a5116938\Desktop\e2_studio_workspace\EEMBC_final\RX65N_Cloud_Kit\src/tensorflow/lite/micro\micro_mutable_op_resolver.h ****     num_buitin_ops_++;
 1763                             		.loc 3 450 5
 1764 0633 FA 52 82 04 00 00 00 00 		mov.L	#__ZN6tflite19ParseFullyConnectedEPKNS_8OperatorEPNS_13ErrorReporterEPNS_20BuiltinDataAlloca
 1765                             		.loc 3 451 5
 1766 063b EB 7A 02 05             		mov.L	r10, 5128[r7]
 1767 063f 03                      		.balign 8,3,1
 1768                             	.L141:
 1769                             	.LVL168:
 1770                             	.LBE988:
 1771                             	.LBE987:
 1772                             	.LBE986:
 1773                             	.LBE985:
  43:../src/tensorflow/lite/micro/all_ops_resolver.cc ****   AddGreater();
 1774                             		.loc 6 43 3 is_stmt 1
 1775                             	.LBB1006:
 1776                             	.LBB1007:
 191:C:\Users\a5116938\Desktop\e2_studio_workspace\EEMBC_final\RX65N_Cloud_Kit\src/tensorflow/lite/micro\micro_mutable_op_resolver.h ****   }
 1777                             		.loc 3 191 59 is_stmt 0
 1778 0640 66 CF                   		mov.L	#12, r15
 1779 0642 4B 0F                   		add	r0, r15
 1780 0644 05 00 00 00             		bsr	__ZN6tflite3ops5micro16Register_GREATEREv
 1781                             	.LVL169:
 1782                             	.LBB1008:
 1783                             	.LBB1009:
 1784                             	.LBB1010:
 1785                             	.LBB1011:
  43:C:\Users\a5116938\Desktop\e2_studio_workspace\EEMBC_final\RX65N_Cloud_Kit\src/tensorflow/lite/micro\micro_mutable_op_resolver.h ****       const TfLiteRegistration& registration = registrations_[i];
 1786                             		.loc 3 43 34
 1787 0648 EE 75 01 04             		mov.L	4100[r7], r5
  43:C:\Users\a5116938\Desktop\e2_studio_workspace\EEMBC_final\RX65N_Cloud_Kit\src/tensorflow/lite/micro\micro_mutable_op_resolver.h ****       const TfLiteRegistration& registration = registrations_[i];
 1788                             		.loc 3 43 32
 1789 064c 61 05                   		cmp	#0, r5
 1790 064e 3A 15 1F                		beq	.L529
 1791                             	.LVL170:
 1792                             	.LBB1012:
  45:C:\Users\a5116938\Desktop\e2_studio_workspace\EEMBC_final\RX65N_Cloud_Kit\src/tensorflow/lite/micro\micro_mutable_op_resolver.h ****         return &registration;
 1793                             		.loc 3 45 7
 1794 0651 ED 7A 06                		mov.L	24[r7], r10
 1795 0654 75 5A 3D                		cmp	#61, r10
 1796 0657 3A 52 14                		beq	.L143
 1797 065a 71 73 38                		add	#56, r7, r3
 1798                             	.LBE1012:
  43:C:\Users\a5116938\Desktop\e2_studio_workspace\EEMBC_final\RX65N_Cloud_Kit\src/tensorflow/lite/micro\micro_mutable_op_resolver.h ****       const TfLiteRegistration& registration = registrations_[i];
 1799                             		.loc 3 43 23
 1800 065d 66 04                   		mov.L	#0, r4
 1801 065f 2E 0D                   		bra	.L144
 1802                             	.LVL171:
 1803                             	.L1095:
 1804                             	.LBB1013:
  45:C:\Users\a5116938\Desktop\e2_studio_workspace\EEMBC_final\RX65N_Cloud_Kit\src/tensorflow/lite/micro\micro_mutable_op_resolver.h ****         return &registration;
 1805                             		.loc 3 45 24
 1806 0661 71 3A E0                		add	#-32, r3, r10
  45:C:\Users\a5116938\Desktop\e2_studio_workspace\EEMBC_final\RX65N_Cloud_Kit\src/tensorflow/lite/micro\micro_mutable_op_resolver.h ****         return &registration;
 1807                             		.loc 3 45 7
 1808 0664 EC AA                   		mov.L	[r10], r10
 1809 0666 75 5A 3D                		cmp	#61, r10
 1810 0669 3A 40 14                		beq	.L143
 1811                             	.LVL172:
 1812                             		.balign 8,3,2
 1813                             	.L144:
 1814 066c 71 33 20                		add	#32, r3
 1815                             	.LBE1013:
  43:C:\Users\a5116938\Desktop\e2_studio_workspace\EEMBC_final\RX65N_Cloud_Kit\src/tensorflow/lite/micro\micro_mutable_op_resolver.h ****       const TfLiteRegistration& registration = registrations_[i];
 1816                             		.loc 3 43 5
 1817 066f 62 14                   		add	#1, r4
 1818                             	.LVL173:
  43:C:\Users\a5116938\Desktop\e2_studio_workspace\EEMBC_final\RX65N_Cloud_Kit\src/tensorflow/lite/micro\micro_mutable_op_resolver.h ****       const TfLiteRegistration& registration = registrations_[i];
 1819                             		.loc 3 43 32
 1820 0671 47 54                   		cmp	r5, r4
 1821 0673 21 EE                   		bne	.L1095
 1822                             	.LVL174:
 1823                             	.LBE1011:
 1824                             	.LBE1010:
 433:C:\Users\a5116938\Desktop\e2_studio_workspace\EEMBC_final\RX65N_Cloud_Kit\src/tensorflow/lite/micro\micro_mutable_op_resolver.h ****       if (error_reporter_) {
 1825                             		.loc 3 433 5
 1826 0675 75 55 80                		cmp	#0x80, r5
 1827 0678 3A 86 18                		beq	.L486
 1828 067b 71 54 01                		add	#1, r5, r4
 1829                             		.balign 8,3,1
 1830                             	.L142:
 443:C:\Users\a5116938\Desktop\e2_studio_workspace\EEMBC_final\RX65N_Cloud_Kit\src/tensorflow/lite/micro\micro_mutable_op_resolver.h ****     // Strictly speaking, the builtin_code is not necessary for TFLM but filling
 1831                             		.loc 3 443 5
 1832 067e 6C 55                   		shll	#5, r5
 1833 0680 66 C2                   		mov.L	#12, r2
 1834 0682 4B 02                   		add	r0, r2
 1835 0684 4B 75                   		add	r7, r5
 1836 0686 75 43 20                		mov.L	#32, r3
 1837 0689 71 51 04                		add	#4, r5, r1
 1838 068c 7F 8F                   		smovf
 449:C:\Users\a5116938\Desktop\e2_studio_workspace\EEMBC_final\RX65N_Cloud_Kit\src/tensorflow/lite/micro\micro_mutable_op_resolver.h ****     builtin_parsers_[num_buitin_ops_] = parser;
 1839                             		.loc 3 449 20
 1840 068e EE 7A 02 05             		mov.L	5128[r7], r10
 446:C:\Users\a5116938\Desktop\e2_studio_workspace\EEMBC_final\RX65N_Cloud_Kit\src/tensorflow/lite/micro\micro_mutable_op_resolver.h ****     registrations_len_++;
 1841                             		.loc 3 446 5
 1842 0692 3E 56 3D                		mov.L	#61, 24[r5]
 1843 0695 FD C2 A5                		shll	#2, r10, r5
 1844 0698 4B 75                   		add	r7, r5
 1845                             		.loc 3 451 5
 1846 069a 62 1A                   		add	#1, r10
 447:C:\Users\a5116938\Desktop\e2_studio_workspace\EEMBC_final\RX65N_Cloud_Kit\src/tensorflow/lite/micro\micro_mutable_op_resolver.h **** 
 1847                             		.loc 3 447 5
 1848 069c EB 74 01 04             		mov.L	r4, 4100[r7]
 449:C:\Users\a5116938\Desktop\e2_studio_workspace\EEMBC_final\RX65N_Cloud_Kit\src/tensorflow/lite/micro\micro_mutable_op_resolver.h ****     builtin_parsers_[num_buitin_ops_] = parser;
 1849                             		.loc 3 449 5
 1850 06a0 FA 56 02 04 3D          		mov.L	#61, 4104[r5]
 450:C:\Users\a5116938\Desktop\e2_studio_workspace\EEMBC_final\RX65N_Cloud_Kit\src/tensorflow/lite/micro\micro_mutable_op_resolver.h ****     num_buitin_ops_++;
 1851                             		.loc 3 450 5
 1852 06a5 FA 52 82 04 00 00 00 00 		mov.L	#__ZN6tflite12ParseGreaterEPKNS_8OperatorEPNS_13ErrorReporterEPNS_20BuiltinDataAllocatorEPPv
 1853                             		.loc 3 451 5
 1854 06ad EB 7A 02 05             		mov.L	r10, 5128[r7]
 1855                             		.balign 8,3,1
 1856                             	.L147:
 1857                             	.LVL175:
 1858                             	.LBE1009:
 1859                             	.LBE1008:
 1860                             	.LBE1007:
 1861                             	.LBE1006:
  44:../src/tensorflow/lite/micro/all_ops_resolver.cc ****   AddGreaterEqual();
 1862                             		.loc 6 44 3 is_stmt 1
 1863                             	.LBB1027:
 1864                             	.LBB1028:
 196:C:\Users\a5116938\Desktop\e2_studio_workspace\EEMBC_final\RX65N_Cloud_Kit\src/tensorflow/lite/micro\micro_mutable_op_resolver.h ****                       ParseGreaterEqual);
 1865                             		.loc 3 196 65 is_stmt 0
 1866 06b1 66 CF                   		mov.L	#12, r15
 1867 06b3 4B 0F                   		add	r0, r15
 1868 06b5 05 00 00 00             		bsr	__ZN6tflite3ops5micro22Register_GREATER_EQUALEv
 1869                             	.LVL176:
 1870                             	.LBB1029:
 1871                             	.LBB1030:
 1872                             	.LBB1031:
 1873                             	.LBB1032:
  43:C:\Users\a5116938\Desktop\e2_studio_workspace\EEMBC_final\RX65N_Cloud_Kit\src/tensorflow/lite/micro\micro_mutable_op_resolver.h ****       const TfLiteRegistration& registration = registrations_[i];
 1874                             		.loc 3 43 34
 1875 06b9 EE 75 01 04             		mov.L	4100[r7], r5
  43:C:\Users\a5116938\Desktop\e2_studio_workspace\EEMBC_final\RX65N_Cloud_Kit\src/tensorflow/lite/micro\micro_mutable_op_resolver.h ****       const TfLiteRegistration& registration = registrations_[i];
 1876                             		.loc 3 43 32
 1877 06bd 61 05                   		cmp	#0, r5
 1878 06bf 3A A9 1E                		beq	.L530
 1879                             	.LVL177:
 1880                             	.LBB1033:
  45:C:\Users\a5116938\Desktop\e2_studio_workspace\EEMBC_final\RX65N_Cloud_Kit\src/tensorflow/lite/micro\micro_mutable_op_resolver.h ****         return &registration;
 1881                             		.loc 3 45 7
 1882 06c2 ED 7A 06                		mov.L	24[r7], r10
 1883 06c5 75 5A 3E                		cmp	#62, r10
 1884 06c8 3A FA 13                		beq	.L149
 1885 06cb 71 73 38                		add	#56, r7, r3
 1886                             	.LBE1033:
  43:C:\Users\a5116938\Desktop\e2_studio_workspace\EEMBC_final\RX65N_Cloud_Kit\src/tensorflow/lite/micro\micro_mutable_op_resolver.h ****       const TfLiteRegistration& registration = registrations_[i];
 1887                             		.loc 3 43 23
 1888 06ce 66 04                   		mov.L	#0, r4
 1889 06d0 2E 0D                   		bra	.L150
 1890                             	.LVL178:
 1891                             	.L1096:
 1892                             	.LBB1034:
  45:C:\Users\a5116938\Desktop\e2_studio_workspace\EEMBC_final\RX65N_Cloud_Kit\src/tensorflow/lite/micro\micro_mutable_op_resolver.h ****         return &registration;
 1893                             		.loc 3 45 24
 1894 06d2 71 3A E0                		add	#-32, r3, r10
  45:C:\Users\a5116938\Desktop\e2_studio_workspace\EEMBC_final\RX65N_Cloud_Kit\src/tensorflow/lite/micro\micro_mutable_op_resolver.h ****         return &registration;
 1895                             		.loc 3 45 7
 1896 06d5 EC AA                   		mov.L	[r10], r10
 1897 06d7 75 5A 3E                		cmp	#62, r10
 1898 06da 3A E8 13                		beq	.L149
 1899                             	.LVL179:
 1900                             		.balign 8,3,2
 1901                             	.L150:
 1902 06dd 71 33 20                		add	#32, r3
 1903                             	.LBE1034:
  43:C:\Users\a5116938\Desktop\e2_studio_workspace\EEMBC_final\RX65N_Cloud_Kit\src/tensorflow/lite/micro\micro_mutable_op_resolver.h ****       const TfLiteRegistration& registration = registrations_[i];
 1904                             		.loc 3 43 5
 1905 06e0 62 14                   		add	#1, r4
 1906                             	.LVL180:
  43:C:\Users\a5116938\Desktop\e2_studio_workspace\EEMBC_final\RX65N_Cloud_Kit\src/tensorflow/lite/micro\micro_mutable_op_resolver.h ****       const TfLiteRegistration& registration = registrations_[i];
 1907                             		.loc 3 43 32
 1908 06e2 47 54                   		cmp	r5, r4
 1909 06e4 21 EE                   		bne	.L1096
 1910                             	.LVL181:
 1911                             	.LBE1032:
 1912                             	.LBE1031:
 433:C:\Users\a5116938\Desktop\e2_studio_workspace\EEMBC_final\RX65N_Cloud_Kit\src/tensorflow/lite/micro\micro_mutable_op_resolver.h ****       if (error_reporter_) {
 1913                             		.loc 3 433 5
 1914 06e6 75 55 80                		cmp	#0x80, r5
 1915 06e9 3A 30 18                		beq	.L483
 1916 06ec 71 54 01                		add	#1, r5, r4
 1917 06ef 03                      		.balign 8,3,1
 1918                             	.L148:
 443:C:\Users\a5116938\Desktop\e2_studio_workspace\EEMBC_final\RX65N_Cloud_Kit\src/tensorflow/lite/micro\micro_mutable_op_resolver.h ****     // Strictly speaking, the builtin_code is not necessary for TFLM but filling
 1919                             		.loc 3 443 5
 1920 06f0 6C 55                   		shll	#5, r5
 1921 06f2 66 C2                   		mov.L	#12, r2
 1922 06f4 4B 02                   		add	r0, r2
 1923 06f6 4B 75                   		add	r7, r5
 1924 06f8 75 43 20                		mov.L	#32, r3
 1925 06fb 71 51 04                		add	#4, r5, r1
 1926 06fe 7F 8F                   		smovf
 449:C:\Users\a5116938\Desktop\e2_studio_workspace\EEMBC_final\RX65N_Cloud_Kit\src/tensorflow/lite/micro\micro_mutable_op_resolver.h ****     builtin_parsers_[num_buitin_ops_] = parser;
 1927                             		.loc 3 449 20
 1928 0700 EE 7A 02 05             		mov.L	5128[r7], r10
 446:C:\Users\a5116938\Desktop\e2_studio_workspace\EEMBC_final\RX65N_Cloud_Kit\src/tensorflow/lite/micro\micro_mutable_op_resolver.h ****     registrations_len_++;
 1929                             		.loc 3 446 5
 1930 0704 3E 56 3E                		mov.L	#62, 24[r5]
 1931 0707 FD C2 A5                		shll	#2, r10, r5
 1932 070a 4B 75                   		add	r7, r5
 1933                             		.loc 3 451 5
 1934 070c 62 1A                   		add	#1, r10
 447:C:\Users\a5116938\Desktop\e2_studio_workspace\EEMBC_final\RX65N_Cloud_Kit\src/tensorflow/lite/micro\micro_mutable_op_resolver.h **** 
 1935                             		.loc 3 447 5
 1936 070e EB 74 01 04             		mov.L	r4, 4100[r7]
 449:C:\Users\a5116938\Desktop\e2_studio_workspace\EEMBC_final\RX65N_Cloud_Kit\src/tensorflow/lite/micro\micro_mutable_op_resolver.h ****     builtin_parsers_[num_buitin_ops_] = parser;
 1937                             		.loc 3 449 5
 1938 0712 FA 56 02 04 3E          		mov.L	#62, 4104[r5]
 450:C:\Users\a5116938\Desktop\e2_studio_workspace\EEMBC_final\RX65N_Cloud_Kit\src/tensorflow/lite/micro\micro_mutable_op_resolver.h ****     num_buitin_ops_++;
 1939                             		.loc 3 450 5
 1940 0717 FA 52 82 04 00 00 00 00 		mov.L	#__ZN6tflite17ParseGreaterEqualEPKNS_8OperatorEPNS_13ErrorReporterEPNS_20BuiltinDataAllocato
 1941                             		.loc 3 451 5
 1942 071f EB 7A 02 05             		mov.L	r10, 5128[r7]
 1943                             		.balign 8,3,1
 1944                             	.L153:
 1945                             	.LVL182:
 1946                             	.LBE1030:
 1947                             	.LBE1029:
 1948                             	.LBE1028:
 1949                             	.LBE1027:
  45:../src/tensorflow/lite/micro/all_ops_resolver.cc ****   AddHardSwish();
 1950                             		.loc 6 45 3 is_stmt 1
 1951                             	.LBB1048:
 1952                             	.LBB1049:
 202:C:\Users\a5116938\Desktop\e2_studio_workspace\EEMBC_final\RX65N_Cloud_Kit\src/tensorflow/lite/micro\micro_mutable_op_resolver.h ****                       ParseHardSwish);
 1953                             		.loc 3 202 62 is_stmt 0
 1954 0723 66 CF                   		mov.L	#12, r15
 1955 0725 4B 0F                   		add	r0, r15
 1956 0727 05 00 00 00             		bsr	__ZN6tflite3ops5micro19Register_HARD_SWISHEv
 1957                             	.LVL183:
 1958                             	.LBB1050:
 1959                             	.LBB1051:
 1960                             	.LBB1052:
 1961                             	.LBB1053:
  43:C:\Users\a5116938\Desktop\e2_studio_workspace\EEMBC_final\RX65N_Cloud_Kit\src/tensorflow/lite/micro\micro_mutable_op_resolver.h ****       const TfLiteRegistration& registration = registrations_[i];
 1962                             		.loc 3 43 34
 1963 072b EE 75 01 04             		mov.L	4100[r7], r5
  43:C:\Users\a5116938\Desktop\e2_studio_workspace\EEMBC_final\RX65N_Cloud_Kit\src/tensorflow/lite/micro\micro_mutable_op_resolver.h ****       const TfLiteRegistration& registration = registrations_[i];
 1964                             		.loc 3 43 32
 1965 072f 61 05                   		cmp	#0, r5
 1966 0731 3A E7 1D                		beq	.L531
 1967                             	.LVL184:
 1968                             	.LBB1054:
  45:C:\Users\a5116938\Desktop\e2_studio_workspace\EEMBC_final\RX65N_Cloud_Kit\src/tensorflow/lite/micro\micro_mutable_op_resolver.h ****         return &registration;
 1969                             		.loc 3 45 7
 1970 0734 ED 7A 06                		mov.L	24[r7], r10
 1971 0737 75 5A 75                		cmp	#0x75, r10
 1972 073a 3A A1 13                		beq	.L155
 1973 073d 71 73 38                		add	#56, r7, r3
 1974                             	.LBE1054:
  43:C:\Users\a5116938\Desktop\e2_studio_workspace\EEMBC_final\RX65N_Cloud_Kit\src/tensorflow/lite/micro\micro_mutable_op_resolver.h ****       const TfLiteRegistration& registration = registrations_[i];
 1975                             		.loc 3 43 23
 1976 0740 66 04                   		mov.L	#0, r4
 1977 0742 2E 0E                   		bra	.L156
 1978                             	.LVL185:
 1979                             	.L1097:
 1980                             	.LBB1055:
  45:C:\Users\a5116938\Desktop\e2_studio_workspace\EEMBC_final\RX65N_Cloud_Kit\src/tensorflow/lite/micro\micro_mutable_op_resolver.h ****         return &registration;
 1981                             		.loc 3 45 24
 1982 0744 71 3A E0                		add	#-32, r3, r10
  45:C:\Users\a5116938\Desktop\e2_studio_workspace\EEMBC_final\RX65N_Cloud_Kit\src/tensorflow/lite/micro\micro_mutable_op_resolver.h ****         return &registration;
 1983                             		.loc 3 45 7
 1984 0747 EC AA                   		mov.L	[r10], r10
 1985 0749 75 5A 75                		cmp	#0x75, r10
 1986 074c 3A 8F 13                		beq	.L155
 1987                             	.LVL186:
 1988 074f 03                      		.balign 8,3,2
 1989                             	.L156:
 1990 0750 71 33 20                		add	#32, r3
 1991                             	.LBE1055:
  43:C:\Users\a5116938\Desktop\e2_studio_workspace\EEMBC_final\RX65N_Cloud_Kit\src/tensorflow/lite/micro\micro_mutable_op_resolver.h ****       const TfLiteRegistration& registration = registrations_[i];
 1992                             		.loc 3 43 5
 1993 0753 62 14                   		add	#1, r4
 1994                             	.LVL187:
  43:C:\Users\a5116938\Desktop\e2_studio_workspace\EEMBC_final\RX65N_Cloud_Kit\src/tensorflow/lite/micro\micro_mutable_op_resolver.h ****       const TfLiteRegistration& registration = registrations_[i];
 1995                             		.loc 3 43 32
 1996 0755 47 54                   		cmp	r5, r4
 1997 0757 21 ED                   		bne	.L1097
 1998                             	.LVL188:
 1999                             	.LBE1053:
 2000                             	.LBE1052:
 433:C:\Users\a5116938\Desktop\e2_studio_workspace\EEMBC_final\RX65N_Cloud_Kit\src/tensorflow/lite/micro\micro_mutable_op_resolver.h ****       if (error_reporter_) {
 2001                             		.loc 3 433 5
 2002 0759 75 55 80                		cmp	#0x80, r5
 2003 075c 3A D8 17                		beq	.L482
 2004 075f 71 54 01                		add	#1, r5, r4
 2005                             		.balign 8,3,1
 2006                             	.L154:
 443:C:\Users\a5116938\Desktop\e2_studio_workspace\EEMBC_final\RX65N_Cloud_Kit\src/tensorflow/lite/micro\micro_mutable_op_resolver.h ****     // Strictly speaking, the builtin_code is not necessary for TFLM but filling
 2007                             		.loc 3 443 5
 2008 0762 6C 55                   		shll	#5, r5
 2009 0764 66 C2                   		mov.L	#12, r2
 2010 0766 4B 02                   		add	r0, r2
 2011 0768 4B 75                   		add	r7, r5
 2012 076a 75 43 20                		mov.L	#32, r3
 2013 076d 71 51 04                		add	#4, r5, r1
 2014 0770 7F 8F                   		smovf
 449:C:\Users\a5116938\Desktop\e2_studio_workspace\EEMBC_final\RX65N_Cloud_Kit\src/tensorflow/lite/micro\micro_mutable_op_resolver.h ****     builtin_parsers_[num_buitin_ops_] = parser;
 2015                             		.loc 3 449 20
 2016 0772 EE 7A 02 05             		mov.L	5128[r7], r10
 446:C:\Users\a5116938\Desktop\e2_studio_workspace\EEMBC_final\RX65N_Cloud_Kit\src/tensorflow/lite/micro\micro_mutable_op_resolver.h ****     registrations_len_++;
 2017                             		.loc 3 446 5
 2018 0776 3E 56 75                		mov.L	#0x75, 24[r5]
 2019 0779 FD C2 A5                		shll	#2, r10, r5
 2020 077c 4B 75                   		add	r7, r5
 2021                             		.loc 3 451 5
 2022 077e 62 1A                   		add	#1, r10
 447:C:\Users\a5116938\Desktop\e2_studio_workspace\EEMBC_final\RX65N_Cloud_Kit\src/tensorflow/lite/micro\micro_mutable_op_resolver.h **** 
 2023                             		.loc 3 447 5
 2024 0780 EB 74 01 04             		mov.L	r4, 4100[r7]
 449:C:\Users\a5116938\Desktop\e2_studio_workspace\EEMBC_final\RX65N_Cloud_Kit\src/tensorflow/lite/micro\micro_mutable_op_resolver.h ****     builtin_parsers_[num_buitin_ops_] = parser;
 2025                             		.loc 3 449 5
 2026 0784 FA 56 02 04 75          		mov.L	#0x75, 4104[r5]
 450:C:\Users\a5116938\Desktop\e2_studio_workspace\EEMBC_final\RX65N_Cloud_Kit\src/tensorflow/lite/micro\micro_mutable_op_resolver.h ****     num_buitin_ops_++;
 2027                             		.loc 3 450 5
 2028 0789 FA 52 82 04 00 00 00 00 		mov.L	#__ZN6tflite14ParseHardSwishEPKNS_8OperatorEPNS_13ErrorReporterEPNS_20BuiltinDataAllocatorEP
 2029                             		.loc 3 451 5
 2030 0791 EB 7A 02 05             		mov.L	r10, 5128[r7]
 2031                             		.balign 8,3,1
 2032                             	.L159:
 2033                             	.LVL189:
 2034                             	.LBE1051:
 2035                             	.LBE1050:
 2036                             	.LBE1049:
 2037                             	.LBE1048:
  46:../src/tensorflow/lite/micro/all_ops_resolver.cc ****   AddL2Normalization();
 2038                             		.loc 6 46 3 is_stmt 1
 2039                             	.LBB1069:
 2040                             	.LBB1070:
 208:C:\Users\a5116938\Desktop\e2_studio_workspace\EEMBC_final\RX65N_Cloud_Kit\src/tensorflow/lite/micro\micro_mutable_op_resolver.h ****                       ParseL2Normalization);
 2041                             		.loc 3 208 68 is_stmt 0
 2042 0795 66 CF                   		mov.L	#12, r15
 2043 0797 4B 0F                   		add	r0, r15
 2044 0799 05 00 00 00             		bsr	__ZN6tflite3ops5micro25Register_L2_NORMALIZATIONEv
 2045                             	.LVL190:
 2046                             	.LBB1071:
 2047                             	.LBB1072:
 2048                             	.LBB1073:
 2049                             	.LBB1074:
  43:C:\Users\a5116938\Desktop\e2_studio_workspace\EEMBC_final\RX65N_Cloud_Kit\src/tensorflow/lite/micro\micro_mutable_op_resolver.h ****       const TfLiteRegistration& registration = registrations_[i];
 2050                             		.loc 3 43 34
 2051 079d EE 75 01 04             		mov.L	4100[r7], r5
  43:C:\Users\a5116938\Desktop\e2_studio_workspace\EEMBC_final\RX65N_Cloud_Kit\src/tensorflow/lite/micro\micro_mutable_op_resolver.h ****       const TfLiteRegistration& registration = registrations_[i];
 2052                             		.loc 3 43 32
 2053 07a1 61 05                   		cmp	#0, r5
 2054 07a3 3A D9 1D                		beq	.L532
 2055                             	.LVL191:
 2056                             	.LBB1075:
  45:C:\Users\a5116938\Desktop\e2_studio_workspace\EEMBC_final\RX65N_Cloud_Kit\src/tensorflow/lite/micro\micro_mutable_op_resolver.h ****         return &registration;
 2057                             		.loc 3 45 7
 2058 07a6 ED 7A 06                		mov.L	24[r7], r10
 2059 07a9 61 BA                   		cmp	#11, r10
 2060 07ab 3A 49 13                		beq	.L161
 2061 07ae 71 73 38                		add	#56, r7, r3
 2062                             	.LBE1075:
  43:C:\Users\a5116938\Desktop\e2_studio_workspace\EEMBC_final\RX65N_Cloud_Kit\src/tensorflow/lite/micro\micro_mutable_op_resolver.h ****       const TfLiteRegistration& registration = registrations_[i];
 2063                             		.loc 3 43 23
 2064 07b1 66 04                   		mov.L	#0, r4
 2065 07b3 2E 0D                   		bra	.L162
 2066                             	.LVL192:
 2067                             	.L1098:
 2068                             	.LBB1076:
  45:C:\Users\a5116938\Desktop\e2_studio_workspace\EEMBC_final\RX65N_Cloud_Kit\src/tensorflow/lite/micro\micro_mutable_op_resolver.h ****         return &registration;
 2069                             		.loc 3 45 24
 2070 07b5 71 3A E0                		add	#-32, r3, r10
  45:C:\Users\a5116938\Desktop\e2_studio_workspace\EEMBC_final\RX65N_Cloud_Kit\src/tensorflow/lite/micro\micro_mutable_op_resolver.h ****         return &registration;
 2071                             		.loc 3 45 7
 2072 07b8 EC AA                   		mov.L	[r10], r10
 2073 07ba 61 BA                   		cmp	#11, r10
 2074 07bc 3A 38 13                		beq	.L161
 2075                             	.LVL193:
 2076 07bf 03                      		.balign 8,3,2
 2077                             	.L162:
 2078 07c0 71 33 20                		add	#32, r3
 2079                             	.LBE1076:
  43:C:\Users\a5116938\Desktop\e2_studio_workspace\EEMBC_final\RX65N_Cloud_Kit\src/tensorflow/lite/micro\micro_mutable_op_resolver.h ****       const TfLiteRegistration& registration = registrations_[i];
 2080                             		.loc 3 43 5
 2081 07c3 62 14                   		add	#1, r4
 2082                             	.LVL194:
  43:C:\Users\a5116938\Desktop\e2_studio_workspace\EEMBC_final\RX65N_Cloud_Kit\src/tensorflow/lite/micro\micro_mutable_op_resolver.h ****       const TfLiteRegistration& registration = registrations_[i];
 2083                             		.loc 3 43 32
 2084 07c5 47 54                   		cmp	r5, r4
 2085 07c7 21 EE                   		bne	.L1098
 2086                             	.LVL195:
 2087                             	.LBE1074:
 2088                             	.LBE1073:
 433:C:\Users\a5116938\Desktop\e2_studio_workspace\EEMBC_final\RX65N_Cloud_Kit\src/tensorflow/lite/micro\micro_mutable_op_resolver.h ****       if (error_reporter_) {
 2089                             		.loc 3 433 5
 2090 07c9 75 55 80                		cmp	#0x80, r5
 2091 07cc 3A 83 17                		beq	.L480
 2092 07cf 71 54 01                		add	#1, r5, r4
 2093                             		.balign 8,3,1
 2094                             	.L160:
 443:C:\Users\a5116938\Desktop\e2_studio_workspace\EEMBC_final\RX65N_Cloud_Kit\src/tensorflow/lite/micro\micro_mutable_op_resolver.h ****     // Strictly speaking, the builtin_code is not necessary for TFLM but filling
 2095                             		.loc 3 443 5
 2096 07d2 6C 55                   		shll	#5, r5
 2097 07d4 66 C2                   		mov.L	#12, r2
 2098 07d6 4B 02                   		add	r0, r2
 2099 07d8 4B 75                   		add	r7, r5
 2100 07da 75 43 20                		mov.L	#32, r3
 2101 07dd 71 51 04                		add	#4, r5, r1
 2102 07e0 7F 8F                   		smovf
 449:C:\Users\a5116938\Desktop\e2_studio_workspace\EEMBC_final\RX65N_Cloud_Kit\src/tensorflow/lite/micro\micro_mutable_op_resolver.h ****     builtin_parsers_[num_buitin_ops_] = parser;
 2103                             		.loc 3 449 20
 2104 07e2 EE 7A 02 05             		mov.L	5128[r7], r10
 446:C:\Users\a5116938\Desktop\e2_studio_workspace\EEMBC_final\RX65N_Cloud_Kit\src/tensorflow/lite/micro\micro_mutable_op_resolver.h ****     registrations_len_++;
 2105                             		.loc 3 446 5
 2106 07e6 3E 56 0B                		mov.L	#11, 24[r5]
 2107 07e9 FD C2 A5                		shll	#2, r10, r5
 2108 07ec 4B 75                   		add	r7, r5
 2109                             		.loc 3 451 5
 2110 07ee 62 1A                   		add	#1, r10
 447:C:\Users\a5116938\Desktop\e2_studio_workspace\EEMBC_final\RX65N_Cloud_Kit\src/tensorflow/lite/micro\micro_mutable_op_resolver.h **** 
 2111                             		.loc 3 447 5
 2112 07f0 EB 74 01 04             		mov.L	r4, 4100[r7]
 449:C:\Users\a5116938\Desktop\e2_studio_workspace\EEMBC_final\RX65N_Cloud_Kit\src/tensorflow/lite/micro\micro_mutable_op_resolver.h ****     builtin_parsers_[num_buitin_ops_] = parser;
 2113                             		.loc 3 449 5
 2114 07f4 FA 56 02 04 0B          		mov.L	#11, 4104[r5]
 450:C:\Users\a5116938\Desktop\e2_studio_workspace\EEMBC_final\RX65N_Cloud_Kit\src/tensorflow/lite/micro\micro_mutable_op_resolver.h ****     num_buitin_ops_++;
 2115                             		.loc 3 450 5
 2116 07f9 FA 52 82 04 00 00 00 00 		mov.L	#__ZN6tflite20ParseL2NormalizationEPKNS_8OperatorEPNS_13ErrorReporterEPNS_20BuiltinDataAlloc
 2117                             		.loc 3 451 5
 2118 0801 EB 7A 02 05             		mov.L	r10, 5128[r7]
 2119                             		.balign 8,3,1
 2120                             	.L165:
 2121                             	.LVL196:
 2122                             	.LBE1072:
 2123                             	.LBE1071:
 2124                             	.LBE1070:
 2125                             	.LBE1069:
  47:../src/tensorflow/lite/micro/all_ops_resolver.cc ****   AddLess();
 2126                             		.loc 6 47 3 is_stmt 1
 2127                             	.LBB1090:
 2128                             	.LBB1091:
 213:C:\Users\a5116938\Desktop\e2_studio_workspace\EEMBC_final\RX65N_Cloud_Kit\src/tensorflow/lite/micro\micro_mutable_op_resolver.h ****                       ParseLess);
 2129                             		.loc 3 213 78 is_stmt 0
 2130 0805 66 CF                   		mov.L	#12, r15
 2131 0807 4B 0F                   		add	r0, r15
 2132 0809 05 00 00 00             		bsr	__ZN6tflite3ops5micro13Register_LESSEv
 2133                             	.LVL197:
 2134                             	.LBB1092:
 2135                             	.LBB1093:
 2136                             	.LBB1094:
 2137                             	.LBB1095:
  43:C:\Users\a5116938\Desktop\e2_studio_workspace\EEMBC_final\RX65N_Cloud_Kit\src/tensorflow/lite/micro\micro_mutable_op_resolver.h ****       const TfLiteRegistration& registration = registrations_[i];
 2138                             		.loc 3 43 34
 2139 080d EE 75 01 04             		mov.L	4100[r7], r5
  43:C:\Users\a5116938\Desktop\e2_studio_workspace\EEMBC_final\RX65N_Cloud_Kit\src/tensorflow/lite/micro\micro_mutable_op_resolver.h ****       const TfLiteRegistration& registration = registrations_[i];
 2140                             		.loc 3 43 32
 2141 0811 61 05                   		cmp	#0, r5
 2142 0813 3A E2 1C                		beq	.L533
 2143                             	.LVL198:
 2144                             	.LBB1096:
  45:C:\Users\a5116938\Desktop\e2_studio_workspace\EEMBC_final\RX65N_Cloud_Kit\src/tensorflow/lite/micro\micro_mutable_op_resolver.h ****         return &registration;
 2145                             		.loc 3 45 7
 2146 0816 ED 7A 06                		mov.L	24[r7], r10
 2147 0819 75 5A 3A                		cmp	#58, r10
 2148 081c 3A F1 12                		beq	.L167
 2149 081f 71 73 38                		add	#56, r7, r3
 2150                             	.LBE1096:
  43:C:\Users\a5116938\Desktop\e2_studio_workspace\EEMBC_final\RX65N_Cloud_Kit\src/tensorflow/lite/micro\micro_mutable_op_resolver.h ****       const TfLiteRegistration& registration = registrations_[i];
 2151                             		.loc 3 43 23
 2152 0822 66 04                   		mov.L	#0, r4
 2153 0824 2E 0D                   		bra	.L168
 2154                             	.LVL199:
 2155                             	.L1099:
 2156                             	.LBB1097:
  45:C:\Users\a5116938\Desktop\e2_studio_workspace\EEMBC_final\RX65N_Cloud_Kit\src/tensorflow/lite/micro\micro_mutable_op_resolver.h ****         return &registration;
 2157                             		.loc 3 45 24
 2158 0826 71 3A E0                		add	#-32, r3, r10
  45:C:\Users\a5116938\Desktop\e2_studio_workspace\EEMBC_final\RX65N_Cloud_Kit\src/tensorflow/lite/micro\micro_mutable_op_resolver.h ****         return &registration;
 2159                             		.loc 3 45 7
 2160 0829 EC AA                   		mov.L	[r10], r10
 2161 082b 75 5A 3A                		cmp	#58, r10
 2162 082e 3A DF 12                		beq	.L167
 2163                             	.LVL200:
 2164                             		.balign 8,3,2
 2165                             	.L168:
 2166 0831 71 33 20                		add	#32, r3
 2167                             	.LBE1097:
  43:C:\Users\a5116938\Desktop\e2_studio_workspace\EEMBC_final\RX65N_Cloud_Kit\src/tensorflow/lite/micro\micro_mutable_op_resolver.h ****       const TfLiteRegistration& registration = registrations_[i];
 2168                             		.loc 3 43 5
 2169 0834 62 14                   		add	#1, r4
 2170                             	.LVL201:
  43:C:\Users\a5116938\Desktop\e2_studio_workspace\EEMBC_final\RX65N_Cloud_Kit\src/tensorflow/lite/micro\micro_mutable_op_resolver.h ****       const TfLiteRegistration& registration = registrations_[i];
 2171                             		.loc 3 43 32
 2172 0836 47 54                   		cmp	r5, r4
 2173 0838 21 EE                   		bne	.L1099
 2174                             	.LVL202:
 2175                             	.LBE1095:
 2176                             	.LBE1094:
 433:C:\Users\a5116938\Desktop\e2_studio_workspace\EEMBC_final\RX65N_Cloud_Kit\src/tensorflow/lite/micro\micro_mutable_op_resolver.h ****       if (error_reporter_) {
 2177                             		.loc 3 433 5
 2178 083a 75 55 80                		cmp	#0x80, r5
 2179 083d 3A 2D 17                		beq	.L477
 2180 0840 71 54 01                		add	#1, r5, r4
 2181                             		.balign 8,3,1
 2182                             	.L166:
 443:C:\Users\a5116938\Desktop\e2_studio_workspace\EEMBC_final\RX65N_Cloud_Kit\src/tensorflow/lite/micro\micro_mutable_op_resolver.h ****     // Strictly speaking, the builtin_code is not necessary for TFLM but filling
 2183                             		.loc 3 443 5
 2184 0843 6C 55                   		shll	#5, r5
 2185 0845 66 C2                   		mov.L	#12, r2
 2186 0847 4B 02                   		add	r0, r2
 2187 0849 4B 75                   		add	r7, r5
 2188 084b 75 43 20                		mov.L	#32, r3
 2189 084e 71 51 04                		add	#4, r5, r1
 2190 0851 7F 8F                   		smovf
 449:C:\Users\a5116938\Desktop\e2_studio_workspace\EEMBC_final\RX65N_Cloud_Kit\src/tensorflow/lite/micro\micro_mutable_op_resolver.h ****     builtin_parsers_[num_buitin_ops_] = parser;
 2191                             		.loc 3 449 20
 2192 0853 EE 7A 02 05             		mov.L	5128[r7], r10
 446:C:\Users\a5116938\Desktop\e2_studio_workspace\EEMBC_final\RX65N_Cloud_Kit\src/tensorflow/lite/micro\micro_mutable_op_resolver.h ****     registrations_len_++;
 2193                             		.loc 3 446 5
 2194 0857 3E 56 3A                		mov.L	#58, 24[r5]
 2195 085a FD C2 A5                		shll	#2, r10, r5
 2196 085d 4B 75                   		add	r7, r5
 2197                             		.loc 3 451 5
 2198 085f 62 1A                   		add	#1, r10
 447:C:\Users\a5116938\Desktop\e2_studio_workspace\EEMBC_final\RX65N_Cloud_Kit\src/tensorflow/lite/micro\micro_mutable_op_resolver.h **** 
 2199                             		.loc 3 447 5
 2200 0861 EB 74 01 04             		mov.L	r4, 4100[r7]
 449:C:\Users\a5116938\Desktop\e2_studio_workspace\EEMBC_final\RX65N_Cloud_Kit\src/tensorflow/lite/micro\micro_mutable_op_resolver.h ****     builtin_parsers_[num_buitin_ops_] = parser;
 2201                             		.loc 3 449 5
 2202 0865 FA 56 02 04 3A          		mov.L	#58, 4104[r5]
 450:C:\Users\a5116938\Desktop\e2_studio_workspace\EEMBC_final\RX65N_Cloud_Kit\src/tensorflow/lite/micro\micro_mutable_op_resolver.h ****     num_buitin_ops_++;
 2203                             		.loc 3 450 5
 2204 086a FA 52 82 04 00 00 00 00 		mov.L	#__ZN6tflite9ParseLessEPKNS_8OperatorEPNS_13ErrorReporterEPNS_20BuiltinDataAllocatorEPPv, 46
 2205                             		.loc 3 451 5
 2206 0872 EB 7A 02 05             		mov.L	r10, 5128[r7]
 2207                             		.balign 8,3,1
 2208                             	.L171:
 2209                             	.LVL203:
 2210                             	.LBE1093:
 2211                             	.LBE1092:
 2212                             	.LBE1091:
 2213                             	.LBE1090:
  48:../src/tensorflow/lite/micro/all_ops_resolver.cc ****   AddLessEqual();
 2214                             		.loc 6 48 3 is_stmt 1
 2215                             	.LBB1111:
 2216                             	.LBB1112:
 219:C:\Users\a5116938\Desktop\e2_studio_workspace\EEMBC_final\RX65N_Cloud_Kit\src/tensorflow/lite/micro\micro_mutable_op_resolver.h ****                       ParseLessEqual);
 2217                             		.loc 3 219 62 is_stmt 0
 2218 0876 66 CF                   		mov.L	#12, r15
 2219 0878 4B 0F                   		add	r0, r15
 2220 087a 05 00 00 00             		bsr	__ZN6tflite3ops5micro19Register_LESS_EQUALEv
 2221                             	.LVL204:
 2222                             	.LBB1113:
 2223                             	.LBB1114:
 2224                             	.LBB1115:
 2225                             	.LBB1116:
  43:C:\Users\a5116938\Desktop\e2_studio_workspace\EEMBC_final\RX65N_Cloud_Kit\src/tensorflow/lite/micro\micro_mutable_op_resolver.h ****       const TfLiteRegistration& registration = registrations_[i];
 2226                             		.loc 3 43 34
 2227 087e EE 75 01 04             		mov.L	4100[r7], r5
  43:C:\Users\a5116938\Desktop\e2_studio_workspace\EEMBC_final\RX65N_Cloud_Kit\src/tensorflow/lite/micro\micro_mutable_op_resolver.h ****       const TfLiteRegistration& registration = registrations_[i];
 2228                             		.loc 3 43 32
 2229 0882 61 05                   		cmp	#0, r5
 2230 0884 3A EE 1C                		beq	.L534
 2231                             	.LVL205:
 2232                             	.LBB1117:
  45:C:\Users\a5116938\Desktop\e2_studio_workspace\EEMBC_final\RX65N_Cloud_Kit\src/tensorflow/lite/micro\micro_mutable_op_resolver.h ****         return &registration;
 2233                             		.loc 3 45 7
 2234 0887 ED 7A 06                		mov.L	24[r7], r10
 2235 088a 75 5A 3F                		cmp	#63, r10
 2236 088d 3A 99 12                		beq	.L173
 2237 0890 71 73 38                		add	#56, r7, r3
 2238                             	.LBE1117:
  43:C:\Users\a5116938\Desktop\e2_studio_workspace\EEMBC_final\RX65N_Cloud_Kit\src/tensorflow/lite/micro\micro_mutable_op_resolver.h ****       const TfLiteRegistration& registration = registrations_[i];
 2239                             		.loc 3 43 23
 2240 0893 66 04                   		mov.L	#0, r4
 2241 0895 2E 0D                   		bra	.L174
 2242                             	.LVL206:
 2243                             	.L1100:
 2244                             	.LBB1118:
  45:C:\Users\a5116938\Desktop\e2_studio_workspace\EEMBC_final\RX65N_Cloud_Kit\src/tensorflow/lite/micro\micro_mutable_op_resolver.h ****         return &registration;
 2245                             		.loc 3 45 24
 2246 0897 71 3A E0                		add	#-32, r3, r10
  45:C:\Users\a5116938\Desktop\e2_studio_workspace\EEMBC_final\RX65N_Cloud_Kit\src/tensorflow/lite/micro\micro_mutable_op_resolver.h ****         return &registration;
 2247                             		.loc 3 45 7
 2248 089a EC AA                   		mov.L	[r10], r10
 2249 089c 75 5A 3F                		cmp	#63, r10
 2250 089f 3A 87 12                		beq	.L173
 2251                             	.LVL207:
 2252                             		.balign 8,3,2
 2253                             	.L174:
 2254 08a2 71 33 20                		add	#32, r3
 2255                             	.LBE1118:
  43:C:\Users\a5116938\Desktop\e2_studio_workspace\EEMBC_final\RX65N_Cloud_Kit\src/tensorflow/lite/micro\micro_mutable_op_resolver.h ****       const TfLiteRegistration& registration = registrations_[i];
 2256                             		.loc 3 43 5
 2257 08a5 62 14                   		add	#1, r4
 2258                             	.LVL208:
  43:C:\Users\a5116938\Desktop\e2_studio_workspace\EEMBC_final\RX65N_Cloud_Kit\src/tensorflow/lite/micro\micro_mutable_op_resolver.h ****       const TfLiteRegistration& registration = registrations_[i];
 2259                             		.loc 3 43 32
 2260 08a7 47 54                   		cmp	r5, r4
 2261 08a9 21 EE                   		bne	.L1100
 2262                             	.LVL209:
 2263                             	.LBE1116:
 2264                             	.LBE1115:
 433:C:\Users\a5116938\Desktop\e2_studio_workspace\EEMBC_final\RX65N_Cloud_Kit\src/tensorflow/lite/micro\micro_mutable_op_resolver.h ****       if (error_reporter_) {
 2265                             		.loc 3 433 5
 2266 08ab 75 55 80                		cmp	#0x80, r5
 2267 08ae 3A D7 16                		beq	.L476
 2268 08b1 71 54 01                		add	#1, r5, r4
 2269                             		.balign 8,3,1
 2270                             	.L172:
 443:C:\Users\a5116938\Desktop\e2_studio_workspace\EEMBC_final\RX65N_Cloud_Kit\src/tensorflow/lite/micro\micro_mutable_op_resolver.h ****     // Strictly speaking, the builtin_code is not necessary for TFLM but filling
 2271                             		.loc 3 443 5
 2272 08b4 6C 55                   		shll	#5, r5
 2273 08b6 66 C2                   		mov.L	#12, r2
 2274 08b8 4B 02                   		add	r0, r2
 2275 08ba 4B 75                   		add	r7, r5
 2276 08bc 75 43 20                		mov.L	#32, r3
 2277 08bf 71 51 04                		add	#4, r5, r1
 2278 08c2 7F 8F                   		smovf
 449:C:\Users\a5116938\Desktop\e2_studio_workspace\EEMBC_final\RX65N_Cloud_Kit\src/tensorflow/lite/micro\micro_mutable_op_resolver.h ****     builtin_parsers_[num_buitin_ops_] = parser;
 2279                             		.loc 3 449 20
 2280 08c4 EE 7A 02 05             		mov.L	5128[r7], r10
 446:C:\Users\a5116938\Desktop\e2_studio_workspace\EEMBC_final\RX65N_Cloud_Kit\src/tensorflow/lite/micro\micro_mutable_op_resolver.h ****     registrations_len_++;
 2281                             		.loc 3 446 5
 2282 08c8 3E 56 3F                		mov.L	#63, 24[r5]
 2283 08cb FD C2 A5                		shll	#2, r10, r5
 2284 08ce 4B 75                   		add	r7, r5
 2285                             		.loc 3 451 5
 2286 08d0 62 1A                   		add	#1, r10
 447:C:\Users\a5116938\Desktop\e2_studio_workspace\EEMBC_final\RX65N_Cloud_Kit\src/tensorflow/lite/micro\micro_mutable_op_resolver.h **** 
 2287                             		.loc 3 447 5
 2288 08d2 EB 74 01 04             		mov.L	r4, 4100[r7]
 449:C:\Users\a5116938\Desktop\e2_studio_workspace\EEMBC_final\RX65N_Cloud_Kit\src/tensorflow/lite/micro\micro_mutable_op_resolver.h ****     builtin_parsers_[num_buitin_ops_] = parser;
 2289                             		.loc 3 449 5
 2290 08d6 FA 56 02 04 3F          		mov.L	#63, 4104[r5]
 450:C:\Users\a5116938\Desktop\e2_studio_workspace\EEMBC_final\RX65N_Cloud_Kit\src/tensorflow/lite/micro\micro_mutable_op_resolver.h ****     num_buitin_ops_++;
 2291                             		.loc 3 450 5
 2292 08db FA 52 82 04 00 00 00 00 		mov.L	#__ZN6tflite14ParseLessEqualEPKNS_8OperatorEPNS_13ErrorReporterEPNS_20BuiltinDataAllocatorEP
 2293                             		.loc 3 451 5
 2294 08e3 EB 7A 02 05             		mov.L	r10, 5128[r7]
 2295 08e7 03                      		.balign 8,3,1
 2296                             	.L177:
 2297                             	.LVL210:
 2298                             	.LBE1114:
 2299                             	.LBE1113:
 2300                             	.LBE1112:
 2301                             	.LBE1111:
  49:../src/tensorflow/lite/micro/all_ops_resolver.cc ****   AddLog();
 2302                             		.loc 6 49 3 is_stmt 1
 2303                             	.LBB1132:
 2304                             	.LBB1133:
 224:C:\Users\a5116938\Desktop\e2_studio_workspace\EEMBC_final\RX65N_Cloud_Kit\src/tensorflow/lite/micro\micro_mutable_op_resolver.h ****                       ParseLog);
 2305                             		.loc 3 224 76 is_stmt 0
 2306 08e8 66 CF                   		mov.L	#12, r15
 2307 08ea 4B 0F                   		add	r0, r15
 2308 08ec 05 00 00 00             		bsr	__ZN6tflite3ops5micro12Register_LOGEv
 2309                             	.LVL211:
 2310                             	.LBB1134:
 2311                             	.LBB1135:
 2312                             	.LBB1136:
 2313                             	.LBB1137:
  43:C:\Users\a5116938\Desktop\e2_studio_workspace\EEMBC_final\RX65N_Cloud_Kit\src/tensorflow/lite/micro\micro_mutable_op_resolver.h ****       const TfLiteRegistration& registration = registrations_[i];
 2314                             		.loc 3 43 34
 2315 08f0 EE 75 01 04             		mov.L	4100[r7], r5
  43:C:\Users\a5116938\Desktop\e2_studio_workspace\EEMBC_final\RX65N_Cloud_Kit\src/tensorflow/lite/micro\micro_mutable_op_resolver.h ****       const TfLiteRegistration& registration = registrations_[i];
 2316                             		.loc 3 43 32
 2317 08f4 61 05                   		cmp	#0, r5
 2318 08f6 3A 81 1C                		beq	.L535
 2319                             	.LVL212:
 2320                             	.LBB1138:
  45:C:\Users\a5116938\Desktop\e2_studio_workspace\EEMBC_final\RX65N_Cloud_Kit\src/tensorflow/lite/micro\micro_mutable_op_resolver.h ****         return &registration;
 2321                             		.loc 3 45 7
 2322 08f9 ED 7A 06                		mov.L	24[r7], r10
 2323 08fc 75 5A 49                		cmp	#0x49, r10
 2324 08ff 3A 40 12                		beq	.L179
 2325 0902 71 73 38                		add	#56, r7, r3
 2326                             	.LBE1138:
  43:C:\Users\a5116938\Desktop\e2_studio_workspace\EEMBC_final\RX65N_Cloud_Kit\src/tensorflow/lite/micro\micro_mutable_op_resolver.h ****       const TfLiteRegistration& registration = registrations_[i];
 2327                             		.loc 3 43 23
 2328 0905 66 04                   		mov.L	#0, r4
 2329 0907 2E 0D                   		bra	.L180
 2330                             	.LVL213:
 2331                             	.L1101:
 2332                             	.LBB1139:
  45:C:\Users\a5116938\Desktop\e2_studio_workspace\EEMBC_final\RX65N_Cloud_Kit\src/tensorflow/lite/micro\micro_mutable_op_resolver.h ****         return &registration;
 2333                             		.loc 3 45 24
 2334 0909 71 3A E0                		add	#-32, r3, r10
  45:C:\Users\a5116938\Desktop\e2_studio_workspace\EEMBC_final\RX65N_Cloud_Kit\src/tensorflow/lite/micro\micro_mutable_op_resolver.h ****         return &registration;
 2335                             		.loc 3 45 7
 2336 090c EC AA                   		mov.L	[r10], r10
 2337 090e 75 5A 49                		cmp	#0x49, r10
 2338 0911 3A 2E 12                		beq	.L179
 2339                             	.LVL214:
 2340                             		.balign 8,3,2
 2341                             	.L180:
 2342 0914 71 33 20                		add	#32, r3
 2343                             	.LBE1139:
  43:C:\Users\a5116938\Desktop\e2_studio_workspace\EEMBC_final\RX65N_Cloud_Kit\src/tensorflow/lite/micro\micro_mutable_op_resolver.h ****       const TfLiteRegistration& registration = registrations_[i];
 2344                             		.loc 3 43 5
 2345 0917 62 14                   		add	#1, r4
 2346                             	.LVL215:
  43:C:\Users\a5116938\Desktop\e2_studio_workspace\EEMBC_final\RX65N_Cloud_Kit\src/tensorflow/lite/micro\micro_mutable_op_resolver.h ****       const TfLiteRegistration& registration = registrations_[i];
 2347                             		.loc 3 43 32
 2348 0919 47 54                   		cmp	r5, r4
 2349 091b 21 EE                   		bne	.L1101
 2350                             	.LVL216:
 2351                             	.LBE1137:
 2352                             	.LBE1136:
 433:C:\Users\a5116938\Desktop\e2_studio_workspace\EEMBC_final\RX65N_Cloud_Kit\src/tensorflow/lite/micro\micro_mutable_op_resolver.h ****       if (error_reporter_) {
 2353                             		.loc 3 433 5
 2354 091d 75 55 80                		cmp	#0x80, r5
 2355 0920 3A 80 16                		beq	.L474
 2356 0923 71 54 01                		add	#1, r5, r4
 2357                             		.balign 8,3,1
 2358                             	.L178:
 443:C:\Users\a5116938\Desktop\e2_studio_workspace\EEMBC_final\RX65N_Cloud_Kit\src/tensorflow/lite/micro\micro_mutable_op_resolver.h ****     // Strictly speaking, the builtin_code is not necessary for TFLM but filling
 2359                             		.loc 3 443 5
 2360 0926 6C 55                   		shll	#5, r5
 2361 0928 66 C2                   		mov.L	#12, r2
 2362 092a 4B 02                   		add	r0, r2
 2363 092c 4B 75                   		add	r7, r5
 2364 092e 75 43 20                		mov.L	#32, r3
 2365 0931 71 51 04                		add	#4, r5, r1
 2366 0934 7F 8F                   		smovf
 449:C:\Users\a5116938\Desktop\e2_studio_workspace\EEMBC_final\RX65N_Cloud_Kit\src/tensorflow/lite/micro\micro_mutable_op_resolver.h ****     builtin_parsers_[num_buitin_ops_] = parser;
 2367                             		.loc 3 449 20
 2368 0936 EE 7A 02 05             		mov.L	5128[r7], r10
 446:C:\Users\a5116938\Desktop\e2_studio_workspace\EEMBC_final\RX65N_Cloud_Kit\src/tensorflow/lite/micro\micro_mutable_op_resolver.h ****     registrations_len_++;
 2369                             		.loc 3 446 5
 2370 093a 3E 56 49                		mov.L	#0x49, 24[r5]
 2371 093d FD C2 A5                		shll	#2, r10, r5
 2372 0940 4B 75                   		add	r7, r5
 2373                             		.loc 3 451 5
 2374 0942 62 1A                   		add	#1, r10
 447:C:\Users\a5116938\Desktop\e2_studio_workspace\EEMBC_final\RX65N_Cloud_Kit\src/tensorflow/lite/micro\micro_mutable_op_resolver.h **** 
 2375                             		.loc 3 447 5
 2376 0944 EB 74 01 04             		mov.L	r4, 4100[r7]
 449:C:\Users\a5116938\Desktop\e2_studio_workspace\EEMBC_final\RX65N_Cloud_Kit\src/tensorflow/lite/micro\micro_mutable_op_resolver.h ****     builtin_parsers_[num_buitin_ops_] = parser;
 2377                             		.loc 3 449 5
 2378 0948 FA 56 02 04 49          		mov.L	#0x49, 4104[r5]
 450:C:\Users\a5116938\Desktop\e2_studio_workspace\EEMBC_final\RX65N_Cloud_Kit\src/tensorflow/lite/micro\micro_mutable_op_resolver.h ****     num_buitin_ops_++;
 2379                             		.loc 3 450 5
 2380 094d FA 52 82 04 00 00 00 00 		mov.L	#__ZN6tflite8ParseLogEPKNS_8OperatorEPNS_13ErrorReporterEPNS_20BuiltinDataAllocatorEPPv, 461
 2381                             		.loc 3 451 5
 2382 0955 EB 7A 02 05             		mov.L	r10, 5128[r7]
 2383                             		.balign 8,3,1
 2384                             	.L183:
 2385                             	.LVL217:
 2386                             	.LBE1135:
 2387                             	.LBE1134:
 2388                             	.LBE1133:
 2389                             	.LBE1132:
  50:../src/tensorflow/lite/micro/all_ops_resolver.cc ****   AddLogicalAnd();
 2390                             		.loc 6 50 3 is_stmt 1
 2391                             	.LBB1153:
 2392                             	.LBB1154:
 230:C:\Users\a5116938\Desktop\e2_studio_workspace\EEMBC_final\RX65N_Cloud_Kit\src/tensorflow/lite/micro\micro_mutable_op_resolver.h ****                       ParseLogicalAnd);
 2393                             		.loc 3 230 63 is_stmt 0
 2394 0959 66 CF                   		mov.L	#12, r15
 2395 095b 4B 0F                   		add	r0, r15
 2396 095d 05 00 00 00             		bsr	__ZN6tflite3ops5micro20Register_LOGICAL_ANDEv
 2397                             	.LVL218:
 2398                             	.LBB1155:
 2399                             	.LBB1156:
 2400                             	.LBB1157:
 2401                             	.LBB1158:
  43:C:\Users\a5116938\Desktop\e2_studio_workspace\EEMBC_final\RX65N_Cloud_Kit\src/tensorflow/lite/micro\micro_mutable_op_resolver.h ****       const TfLiteRegistration& registration = registrations_[i];
 2402                             		.loc 3 43 34
 2403 0961 EE 75 01 04             		mov.L	4100[r7], r5
  43:C:\Users\a5116938\Desktop\e2_studio_workspace\EEMBC_final\RX65N_Cloud_Kit\src/tensorflow/lite/micro\micro_mutable_op_resolver.h ****       const TfLiteRegistration& registration = registrations_[i];
 2404                             		.loc 3 43 32
 2405 0965 61 05                   		cmp	#0, r5
 2406 0967 3A F7 1B                		beq	.L536
 2407                             	.LVL219:
 2408                             	.LBB1159:
  45:C:\Users\a5116938\Desktop\e2_studio_workspace\EEMBC_final\RX65N_Cloud_Kit\src/tensorflow/lite/micro\micro_mutable_op_resolver.h ****         return &registration;
 2409                             		.loc 3 45 7
 2410 096a ED 7A 06                		mov.L	24[r7], r10
 2411 096d 75 5A 56                		cmp	#0x56, r10
 2412 0970 3A E8 11                		beq	.L185
 2413 0973 71 73 38                		add	#56, r7, r3
 2414                             	.LBE1159:
  43:C:\Users\a5116938\Desktop\e2_studio_workspace\EEMBC_final\RX65N_Cloud_Kit\src/tensorflow/lite/micro\micro_mutable_op_resolver.h ****       const TfLiteRegistration& registration = registrations_[i];
 2415                             		.loc 3 43 23
 2416 0976 66 04                   		mov.L	#0, r4
 2417 0978 2E 0D                   		bra	.L186
 2418                             	.LVL220:
 2419                             	.L1102:
 2420                             	.LBB1160:
  45:C:\Users\a5116938\Desktop\e2_studio_workspace\EEMBC_final\RX65N_Cloud_Kit\src/tensorflow/lite/micro\micro_mutable_op_resolver.h ****         return &registration;
 2421                             		.loc 3 45 24
 2422 097a 71 3A E0                		add	#-32, r3, r10
  45:C:\Users\a5116938\Desktop\e2_studio_workspace\EEMBC_final\RX65N_Cloud_Kit\src/tensorflow/lite/micro\micro_mutable_op_resolver.h ****         return &registration;
 2423                             		.loc 3 45 7
 2424 097d EC AA                   		mov.L	[r10], r10
 2425 097f 75 5A 56                		cmp	#0x56, r10
 2426 0982 3A D6 11                		beq	.L185
 2427                             	.LVL221:
 2428                             		.balign 8,3,2
 2429                             	.L186:
 2430 0985 71 33 20                		add	#32, r3
 2431                             	.LBE1160:
  43:C:\Users\a5116938\Desktop\e2_studio_workspace\EEMBC_final\RX65N_Cloud_Kit\src/tensorflow/lite/micro\micro_mutable_op_resolver.h ****       const TfLiteRegistration& registration = registrations_[i];
 2432                             		.loc 3 43 5
 2433 0988 62 14                   		add	#1, r4
 2434                             	.LVL222:
  43:C:\Users\a5116938\Desktop\e2_studio_workspace\EEMBC_final\RX65N_Cloud_Kit\src/tensorflow/lite/micro\micro_mutable_op_resolver.h ****       const TfLiteRegistration& registration = registrations_[i];
 2435                             		.loc 3 43 32
 2436 098a 47 54                   		cmp	r5, r4
 2437 098c 21 EE                   		bne	.L1102
 2438                             	.LVL223:
 2439                             	.LBE1158:
 2440                             	.LBE1157:
 433:C:\Users\a5116938\Desktop\e2_studio_workspace\EEMBC_final\RX65N_Cloud_Kit\src/tensorflow/lite/micro\micro_mutable_op_resolver.h ****       if (error_reporter_) {
 2441                             		.loc 3 433 5
 2442 098e 75 55 80                		cmp	#0x80, r5
 2443 0991 3A 2A 16                		beq	.L472
 2444 0994 71 54 01                		add	#1, r5, r4
 2445 0997 03                      		.balign 8,3,1
 2446                             	.L184:
 443:C:\Users\a5116938\Desktop\e2_studio_workspace\EEMBC_final\RX65N_Cloud_Kit\src/tensorflow/lite/micro\micro_mutable_op_resolver.h ****     // Strictly speaking, the builtin_code is not necessary for TFLM but filling
 2447                             		.loc 3 443 5
 2448 0998 6C 55                   		shll	#5, r5
 2449 099a 66 C2                   		mov.L	#12, r2
 2450 099c 4B 02                   		add	r0, r2
 2451 099e 4B 75                   		add	r7, r5
 2452 09a0 75 43 20                		mov.L	#32, r3
 2453 09a3 71 51 04                		add	#4, r5, r1
 2454 09a6 7F 8F                   		smovf
 449:C:\Users\a5116938\Desktop\e2_studio_workspace\EEMBC_final\RX65N_Cloud_Kit\src/tensorflow/lite/micro\micro_mutable_op_resolver.h ****     builtin_parsers_[num_buitin_ops_] = parser;
 2455                             		.loc 3 449 20
 2456 09a8 EE 7A 02 05             		mov.L	5128[r7], r10
 446:C:\Users\a5116938\Desktop\e2_studio_workspace\EEMBC_final\RX65N_Cloud_Kit\src/tensorflow/lite/micro\micro_mutable_op_resolver.h ****     registrations_len_++;
 2457                             		.loc 3 446 5
 2458 09ac 3E 56 56                		mov.L	#0x56, 24[r5]
 2459 09af FD C2 A5                		shll	#2, r10, r5
 2460 09b2 4B 75                   		add	r7, r5
 2461                             		.loc 3 451 5
 2462 09b4 62 1A                   		add	#1, r10
 447:C:\Users\a5116938\Desktop\e2_studio_workspace\EEMBC_final\RX65N_Cloud_Kit\src/tensorflow/lite/micro\micro_mutable_op_resolver.h **** 
 2463                             		.loc 3 447 5
 2464 09b6 EB 74 01 04             		mov.L	r4, 4100[r7]
 449:C:\Users\a5116938\Desktop\e2_studio_workspace\EEMBC_final\RX65N_Cloud_Kit\src/tensorflow/lite/micro\micro_mutable_op_resolver.h ****     builtin_parsers_[num_buitin_ops_] = parser;
 2465                             		.loc 3 449 5
 2466 09ba FA 56 02 04 56          		mov.L	#0x56, 4104[r5]
 450:C:\Users\a5116938\Desktop\e2_studio_workspace\EEMBC_final\RX65N_Cloud_Kit\src/tensorflow/lite/micro\micro_mutable_op_resolver.h ****     num_buitin_ops_++;
 2467                             		.loc 3 450 5
 2468 09bf FA 52 82 04 00 00 00 00 		mov.L	#__ZN6tflite15ParseLogicalAndEPKNS_8OperatorEPNS_13ErrorReporterEPNS_20BuiltinDataAllocatorE
 2469                             		.loc 3 451 5
 2470 09c7 EB 7A 02 05             		mov.L	r10, 5128[r7]
 2471                             		.balign 8,3,1
 2472                             	.L189:
 2473                             	.LVL224:
 2474                             	.LBE1156:
 2475                             	.LBE1155:
 2476                             	.LBE1154:
 2477                             	.LBE1153:
  51:../src/tensorflow/lite/micro/all_ops_resolver.cc ****   AddLogicalNot();
 2478                             		.loc 6 51 3 is_stmt 1
 2479                             	.LBB1174:
 2480                             	.LBB1175:
 236:C:\Users\a5116938\Desktop\e2_studio_workspace\EEMBC_final\RX65N_Cloud_Kit\src/tensorflow/lite/micro\micro_mutable_op_resolver.h ****                       ParseLogicalNot);
 2481                             		.loc 3 236 63 is_stmt 0
 2482 09cb 66 CF                   		mov.L	#12, r15
 2483 09cd 4B 0F                   		add	r0, r15
 2484 09cf 05 00 00 00             		bsr	__ZN6tflite3ops5micro20Register_LOGICAL_NOTEv
 2485                             	.LVL225:
 2486                             	.LBB1176:
 2487                             	.LBB1177:
 2488                             	.LBB1178:
 2489                             	.LBB1179:
  43:C:\Users\a5116938\Desktop\e2_studio_workspace\EEMBC_final\RX65N_Cloud_Kit\src/tensorflow/lite/micro\micro_mutable_op_resolver.h ****       const TfLiteRegistration& registration = registrations_[i];
 2490                             		.loc 3 43 34
 2491 09d3 EE 75 01 04             		mov.L	4100[r7], r5
  43:C:\Users\a5116938\Desktop\e2_studio_workspace\EEMBC_final\RX65N_Cloud_Kit\src/tensorflow/lite/micro\micro_mutable_op_resolver.h ****       const TfLiteRegistration& registration = registrations_[i];
 2492                             		.loc 3 43 32
 2493 09d7 61 05                   		cmp	#0, r5
 2494 09d9 3A 26 1B                		beq	.L537
 2495                             	.LVL226:
 2496                             	.LBB1180:
  45:C:\Users\a5116938\Desktop\e2_studio_workspace\EEMBC_final\RX65N_Cloud_Kit\src/tensorflow/lite/micro\micro_mutable_op_resolver.h ****         return &registration;
 2497                             		.loc 3 45 7
 2498 09dc ED 7A 06                		mov.L	24[r7], r10
 2499 09df 75 5A 57                		cmp	#0x57, r10
 2500 09e2 3A 8F 11                		beq	.L191
 2501 09e5 71 73 38                		add	#56, r7, r3
 2502                             	.LBE1180:
  43:C:\Users\a5116938\Desktop\e2_studio_workspace\EEMBC_final\RX65N_Cloud_Kit\src/tensorflow/lite/micro\micro_mutable_op_resolver.h ****       const TfLiteRegistration& registration = registrations_[i];
 2503                             		.loc 3 43 23
 2504 09e8 66 04                   		mov.L	#0, r4
 2505 09ea 2E 0E                   		bra	.L192
 2506                             	.LVL227:
 2507                             	.L1103:
 2508                             	.LBB1181:
  45:C:\Users\a5116938\Desktop\e2_studio_workspace\EEMBC_final\RX65N_Cloud_Kit\src/tensorflow/lite/micro\micro_mutable_op_resolver.h ****         return &registration;
 2509                             		.loc 3 45 24
 2510 09ec 71 3A E0                		add	#-32, r3, r10
  45:C:\Users\a5116938\Desktop\e2_studio_workspace\EEMBC_final\RX65N_Cloud_Kit\src/tensorflow/lite/micro\micro_mutable_op_resolver.h ****         return &registration;
 2511                             		.loc 3 45 7
 2512 09ef EC AA                   		mov.L	[r10], r10
 2513 09f1 75 5A 57                		cmp	#0x57, r10
 2514 09f4 3A 7D 11                		beq	.L191
 2515                             	.LVL228:
 2516 09f7 03                      		.balign 8,3,2
 2517                             	.L192:
 2518 09f8 71 33 20                		add	#32, r3
 2519                             	.LBE1181:
  43:C:\Users\a5116938\Desktop\e2_studio_workspace\EEMBC_final\RX65N_Cloud_Kit\src/tensorflow/lite/micro\micro_mutable_op_resolver.h ****       const TfLiteRegistration& registration = registrations_[i];
 2520                             		.loc 3 43 5
 2521 09fb 62 14                   		add	#1, r4
 2522                             	.LVL229:
  43:C:\Users\a5116938\Desktop\e2_studio_workspace\EEMBC_final\RX65N_Cloud_Kit\src/tensorflow/lite/micro\micro_mutable_op_resolver.h ****       const TfLiteRegistration& registration = registrations_[i];
 2523                             		.loc 3 43 32
 2524 09fd 47 54                   		cmp	r5, r4
 2525 09ff 21 ED                   		bne	.L1103
 2526                             	.LVL230:
 2527                             	.LBE1179:
 2528                             	.LBE1178:
 433:C:\Users\a5116938\Desktop\e2_studio_workspace\EEMBC_final\RX65N_Cloud_Kit\src/tensorflow/lite/micro\micro_mutable_op_resolver.h ****       if (error_reporter_) {
 2529                             		.loc 3 433 5
 2530 0a01 75 55 80                		cmp	#0x80, r5
 2531 0a04 3A D2 15                		beq	.L469
 2532 0a07 71 54 01                		add	#1, r5, r4
 2533                             		.balign 8,3,1
 2534                             	.L190:
 443:C:\Users\a5116938\Desktop\e2_studio_workspace\EEMBC_final\RX65N_Cloud_Kit\src/tensorflow/lite/micro\micro_mutable_op_resolver.h ****     // Strictly speaking, the builtin_code is not necessary for TFLM but filling
 2535                             		.loc 3 443 5
 2536 0a0a 6C 55                   		shll	#5, r5
 2537 0a0c 66 C2                   		mov.L	#12, r2
 2538 0a0e 4B 02                   		add	r0, r2
 2539 0a10 4B 75                   		add	r7, r5
 2540 0a12 75 43 20                		mov.L	#32, r3
 2541 0a15 71 51 04                		add	#4, r5, r1
 2542 0a18 7F 8F                   		smovf
 449:C:\Users\a5116938\Desktop\e2_studio_workspace\EEMBC_final\RX65N_Cloud_Kit\src/tensorflow/lite/micro\micro_mutable_op_resolver.h ****     builtin_parsers_[num_buitin_ops_] = parser;
 2543                             		.loc 3 449 20
 2544 0a1a EE 7A 02 05             		mov.L	5128[r7], r10
 446:C:\Users\a5116938\Desktop\e2_studio_workspace\EEMBC_final\RX65N_Cloud_Kit\src/tensorflow/lite/micro\micro_mutable_op_resolver.h ****     registrations_len_++;
 2545                             		.loc 3 446 5
 2546 0a1e 3E 56 57                		mov.L	#0x57, 24[r5]
 2547 0a21 FD C2 A5                		shll	#2, r10, r5
 2548 0a24 4B 75                   		add	r7, r5
 2549                             		.loc 3 451 5
 2550 0a26 62 1A                   		add	#1, r10
 447:C:\Users\a5116938\Desktop\e2_studio_workspace\EEMBC_final\RX65N_Cloud_Kit\src/tensorflow/lite/micro\micro_mutable_op_resolver.h **** 
 2551                             		.loc 3 447 5
 2552 0a28 EB 74 01 04             		mov.L	r4, 4100[r7]
 449:C:\Users\a5116938\Desktop\e2_studio_workspace\EEMBC_final\RX65N_Cloud_Kit\src/tensorflow/lite/micro\micro_mutable_op_resolver.h ****     builtin_parsers_[num_buitin_ops_] = parser;
 2553                             		.loc 3 449 5
 2554 0a2c FA 56 02 04 57          		mov.L	#0x57, 4104[r5]
 450:C:\Users\a5116938\Desktop\e2_studio_workspace\EEMBC_final\RX65N_Cloud_Kit\src/tensorflow/lite/micro\micro_mutable_op_resolver.h ****     num_buitin_ops_++;
 2555                             		.loc 3 450 5
 2556 0a31 FA 52 82 04 00 00 00 00 		mov.L	#__ZN6tflite15ParseLogicalNotEPKNS_8OperatorEPNS_13ErrorReporterEPNS_20BuiltinDataAllocatorE
 2557                             		.loc 3 451 5
 2558 0a39 EB 7A 02 05             		mov.L	r10, 5128[r7]
 2559                             		.balign 8,3,1
 2560                             	.L195:
 2561                             	.LVL231:
 2562                             	.LBE1177:
 2563                             	.LBE1176:
 2564                             	.LBE1175:
 2565                             	.LBE1174:
  52:../src/tensorflow/lite/micro/all_ops_resolver.cc ****   AddLogicalOr();
 2566                             		.loc 6 52 3 is_stmt 1
 2567                             	.LBB1195:
 2568                             	.LBB1196:
 242:C:\Users\a5116938\Desktop\e2_studio_workspace\EEMBC_final\RX65N_Cloud_Kit\src/tensorflow/lite/micro\micro_mutable_op_resolver.h ****                       ParseLogicalOr);
 2569                             		.loc 3 242 62 is_stmt 0
 2570 0a3d 66 CF                   		mov.L	#12, r15
 2571 0a3f 4B 0F                   		add	r0, r15
 2572 0a41 05 00 00 00             		bsr	__ZN6tflite3ops5micro19Register_LOGICAL_OREv
 2573                             	.LVL232:
 2574                             	.LBB1197:
 2575                             	.LBB1198:
 2576                             	.LBB1199:
 2577                             	.LBB1200:
  43:C:\Users\a5116938\Desktop\e2_studio_workspace\EEMBC_final\RX65N_Cloud_Kit\src/tensorflow/lite/micro\micro_mutable_op_resolver.h ****       const TfLiteRegistration& registration = registrations_[i];
 2578                             		.loc 3 43 34
 2579 0a45 EE 75 01 04             		mov.L	4100[r7], r5
  43:C:\Users\a5116938\Desktop\e2_studio_workspace\EEMBC_final\RX65N_Cloud_Kit\src/tensorflow/lite/micro\micro_mutable_op_resolver.h ****       const TfLiteRegistration& registration = registrations_[i];
 2580                             		.loc 3 43 32
 2581 0a49 61 05                   		cmp	#0, r5
 2582 0a4b 3A B9 1A                		beq	.L538
 2583                             	.LVL233:
 2584                             	.LBB1201:
  45:C:\Users\a5116938\Desktop\e2_studio_workspace\EEMBC_final\RX65N_Cloud_Kit\src/tensorflow/lite/micro\micro_mutable_op_resolver.h ****         return &registration;
 2585                             		.loc 3 45 7
 2586 0a4e ED 7A 06                		mov.L	24[r7], r10
 2587 0a51 75 5A 54                		cmp	#0x54, r10
 2588 0a54 3A 36 11                		beq	.L197
 2589 0a57 71 73 38                		add	#56, r7, r3
 2590                             	.LBE1201:
  43:C:\Users\a5116938\Desktop\e2_studio_workspace\EEMBC_final\RX65N_Cloud_Kit\src/tensorflow/lite/micro\micro_mutable_op_resolver.h ****       const TfLiteRegistration& registration = registrations_[i];
 2591                             		.loc 3 43 23
 2592 0a5a 66 04                   		mov.L	#0, r4
 2593 0a5c 2E 0D                   		bra	.L198
 2594                             	.LVL234:
 2595                             	.L1104:
 2596                             	.LBB1202:
  45:C:\Users\a5116938\Desktop\e2_studio_workspace\EEMBC_final\RX65N_Cloud_Kit\src/tensorflow/lite/micro\micro_mutable_op_resolver.h ****         return &registration;
 2597                             		.loc 3 45 24
 2598 0a5e 71 3A E0                		add	#-32, r3, r10
  45:C:\Users\a5116938\Desktop\e2_studio_workspace\EEMBC_final\RX65N_Cloud_Kit\src/tensorflow/lite/micro\micro_mutable_op_resolver.h ****         return &registration;
 2599                             		.loc 3 45 7
 2600 0a61 EC AA                   		mov.L	[r10], r10
 2601 0a63 75 5A 54                		cmp	#0x54, r10
 2602 0a66 3A 24 11                		beq	.L197
 2603                             	.LVL235:
 2604                             		.balign 8,3,2
 2605                             	.L198:
 2606 0a69 71 33 20                		add	#32, r3
 2607                             	.LBE1202:
  43:C:\Users\a5116938\Desktop\e2_studio_workspace\EEMBC_final\RX65N_Cloud_Kit\src/tensorflow/lite/micro\micro_mutable_op_resolver.h ****       const TfLiteRegistration& registration = registrations_[i];
 2608                             		.loc 3 43 5
 2609 0a6c 62 14                   		add	#1, r4
 2610                             	.LVL236:
  43:C:\Users\a5116938\Desktop\e2_studio_workspace\EEMBC_final\RX65N_Cloud_Kit\src/tensorflow/lite/micro\micro_mutable_op_resolver.h ****       const TfLiteRegistration& registration = registrations_[i];
 2611                             		.loc 3 43 32
 2612 0a6e 47 54                   		cmp	r5, r4
 2613 0a70 21 EE                   		bne	.L1104
 2614                             	.LVL237:
 2615                             	.LBE1200:
 2616                             	.LBE1199:
 433:C:\Users\a5116938\Desktop\e2_studio_workspace\EEMBC_final\RX65N_Cloud_Kit\src/tensorflow/lite/micro\micro_mutable_op_resolver.h ****       if (error_reporter_) {
 2617                             		.loc 3 433 5
 2618 0a72 75 55 80                		cmp	#0x80, r5
 2619 0a75 3A 7C 15                		beq	.L468
 2620 0a78 71 54 01                		add	#1, r5, r4
 2621                             		.balign 8,3,1
 2622                             	.L196:
 443:C:\Users\a5116938\Desktop\e2_studio_workspace\EEMBC_final\RX65N_Cloud_Kit\src/tensorflow/lite/micro\micro_mutable_op_resolver.h ****     // Strictly speaking, the builtin_code is not necessary for TFLM but filling
 2623                             		.loc 3 443 5
 2624 0a7b 6C 55                   		shll	#5, r5
 2625 0a7d 66 C2                   		mov.L	#12, r2
 2626 0a7f 4B 02                   		add	r0, r2
 2627 0a81 4B 75                   		add	r7, r5
 2628 0a83 75 43 20                		mov.L	#32, r3
 2629 0a86 71 51 04                		add	#4, r5, r1
 2630 0a89 7F 8F                   		smovf
 449:C:\Users\a5116938\Desktop\e2_studio_workspace\EEMBC_final\RX65N_Cloud_Kit\src/tensorflow/lite/micro\micro_mutable_op_resolver.h ****     builtin_parsers_[num_buitin_ops_] = parser;
 2631                             		.loc 3 449 20
 2632 0a8b EE 7A 02 05             		mov.L	5128[r7], r10
 446:C:\Users\a5116938\Desktop\e2_studio_workspace\EEMBC_final\RX65N_Cloud_Kit\src/tensorflow/lite/micro\micro_mutable_op_resolver.h ****     registrations_len_++;
 2633                             		.loc 3 446 5
 2634 0a8f 3E 56 54                		mov.L	#0x54, 24[r5]
 2635 0a92 FD C2 A5                		shll	#2, r10, r5
 2636 0a95 4B 75                   		add	r7, r5
 2637                             		.loc 3 451 5
 2638 0a97 62 1A                   		add	#1, r10
 447:C:\Users\a5116938\Desktop\e2_studio_workspace\EEMBC_final\RX65N_Cloud_Kit\src/tensorflow/lite/micro\micro_mutable_op_resolver.h **** 
 2639                             		.loc 3 447 5
 2640 0a99 EB 74 01 04             		mov.L	r4, 4100[r7]
 449:C:\Users\a5116938\Desktop\e2_studio_workspace\EEMBC_final\RX65N_Cloud_Kit\src/tensorflow/lite/micro\micro_mutable_op_resolver.h ****     builtin_parsers_[num_buitin_ops_] = parser;
 2641                             		.loc 3 449 5
 2642 0a9d FA 56 02 04 54          		mov.L	#0x54, 4104[r5]
 450:C:\Users\a5116938\Desktop\e2_studio_workspace\EEMBC_final\RX65N_Cloud_Kit\src/tensorflow/lite/micro\micro_mutable_op_resolver.h ****     num_buitin_ops_++;
 2643                             		.loc 3 450 5
 2644 0aa2 FA 52 82 04 00 00 00 00 		mov.L	#__ZN6tflite14ParseLogicalOrEPKNS_8OperatorEPNS_13ErrorReporterEPNS_20BuiltinDataAllocatorEP
 2645                             		.loc 3 451 5
 2646 0aaa EB 7A 02 05             		mov.L	r10, 5128[r7]
 2647                             		.balign 8,3,1
 2648                             	.L201:
 2649                             	.LVL238:
 2650                             	.LBE1198:
 2651                             	.LBE1197:
 2652                             	.LBE1196:
 2653                             	.LBE1195:
  53:../src/tensorflow/lite/micro/all_ops_resolver.cc ****   AddLogistic();
 2654                             		.loc 6 53 3 is_stmt 1
 2655                             	.LBB1216:
 2656                             	.LBB1217:
 248:C:\Users\a5116938\Desktop\e2_studio_workspace\EEMBC_final\RX65N_Cloud_Kit\src/tensorflow/lite/micro\micro_mutable_op_resolver.h ****   }
 2657                             		.loc 3 248 60 is_stmt 0
 2658 0aae 66 CF                   		mov.L	#12, r15
 2659 0ab0 4B 0F                   		add	r0, r15
 2660 0ab2 05 00 00 00             		bsr	__ZN6tflite3ops5micro17Register_LOGISTICEv
 2661                             	.LVL239:
 2662                             	.LBB1218:
 2663                             	.LBB1219:
 2664                             	.LBB1220:
 2665                             	.LBB1221:
  43:C:\Users\a5116938\Desktop\e2_studio_workspace\EEMBC_final\RX65N_Cloud_Kit\src/tensorflow/lite/micro\micro_mutable_op_resolver.h ****       const TfLiteRegistration& registration = registrations_[i];
 2666                             		.loc 3 43 34
 2667 0ab6 EE 75 01 04             		mov.L	4100[r7], r5
  43:C:\Users\a5116938\Desktop\e2_studio_workspace\EEMBC_final\RX65N_Cloud_Kit\src/tensorflow/lite/micro\micro_mutable_op_resolver.h ****       const TfLiteRegistration& registration = registrations_[i];
 2668                             		.loc 3 43 32
 2669 0aba 61 05                   		cmp	#0, r5
 2670 0abc 3A C5 1A                		beq	.L539
 2671                             	.LVL240:
 2672                             	.LBB1222:
  45:C:\Users\a5116938\Desktop\e2_studio_workspace\EEMBC_final\RX65N_Cloud_Kit\src/tensorflow/lite/micro\micro_mutable_op_resolver.h ****         return &registration;
 2673                             		.loc 3 45 7
 2674 0abf ED 7A 06                		mov.L	24[r7], r10
 2675 0ac2 61 EA                   		cmp	#14, r10
 2676 0ac4 3A DF 10                		beq	.L203
 2677 0ac7 71 73 38                		add	#56, r7, r3
 2678                             	.LBE1222:
  43:C:\Users\a5116938\Desktop\e2_studio_workspace\EEMBC_final\RX65N_Cloud_Kit\src/tensorflow/lite/micro\micro_mutable_op_resolver.h ****       const TfLiteRegistration& registration = registrations_[i];
 2679                             		.loc 3 43 23
 2680 0aca 66 04                   		mov.L	#0, r4
 2681 0acc 2E 0C                   		bra	.L204
 2682                             	.LVL241:
 2683                             	.L1105:
 2684                             	.LBB1223:
  45:C:\Users\a5116938\Desktop\e2_studio_workspace\EEMBC_final\RX65N_Cloud_Kit\src/tensorflow/lite/micro\micro_mutable_op_resolver.h ****         return &registration;
 2685                             		.loc 3 45 24
 2686 0ace 71 3A E0                		add	#-32, r3, r10
  45:C:\Users\a5116938\Desktop\e2_studio_workspace\EEMBC_final\RX65N_Cloud_Kit\src/tensorflow/lite/micro\micro_mutable_op_resolver.h ****         return &registration;
 2687                             		.loc 3 45 7
 2688 0ad1 EC AA                   		mov.L	[r10], r10
 2689 0ad3 61 EA                   		cmp	#14, r10
 2690 0ad5 3A CE 10                		beq	.L203
 2691                             	.LVL242:
 2692                             		.balign 8,3,2
 2693                             	.L204:
 2694 0ad8 71 33 20                		add	#32, r3
 2695                             	.LBE1223:
  43:C:\Users\a5116938\Desktop\e2_studio_workspace\EEMBC_final\RX65N_Cloud_Kit\src/tensorflow/lite/micro\micro_mutable_op_resolver.h ****       const TfLiteRegistration& registration = registrations_[i];
 2696                             		.loc 3 43 5
 2697 0adb 62 14                   		add	#1, r4
 2698                             	.LVL243:
  43:C:\Users\a5116938\Desktop\e2_studio_workspace\EEMBC_final\RX65N_Cloud_Kit\src/tensorflow/lite/micro\micro_mutable_op_resolver.h ****       const TfLiteRegistration& registration = registrations_[i];
 2699                             		.loc 3 43 32
 2700 0add 47 54                   		cmp	r5, r4
 2701 0adf 21 EF                   		bne	.L1105
 2702                             	.LVL244:
 2703                             	.LBE1221:
 2704                             	.LBE1220:
 433:C:\Users\a5116938\Desktop\e2_studio_workspace\EEMBC_final\RX65N_Cloud_Kit\src/tensorflow/lite/micro\micro_mutable_op_resolver.h ****       if (error_reporter_) {
 2705                             		.loc 3 433 5
 2706 0ae1 75 55 80                		cmp	#0x80, r5
 2707 0ae4 3A 28 15                		beq	.L466
 2708 0ae7 71 54 01                		add	#1, r5, r4
 2709                             		.balign 8,3,1
 2710                             	.L202:
 443:C:\Users\a5116938\Desktop\e2_studio_workspace\EEMBC_final\RX65N_Cloud_Kit\src/tensorflow/lite/micro\micro_mutable_op_resolver.h ****     // Strictly speaking, the builtin_code is not necessary for TFLM but filling
 2711                             		.loc 3 443 5
 2712 0aea 6C 55                   		shll	#5, r5
 2713 0aec 66 C2                   		mov.L	#12, r2
 2714 0aee 4B 02                   		add	r0, r2
 2715 0af0 4B 75                   		add	r7, r5
 2716 0af2 75 43 20                		mov.L	#32, r3
 2717 0af5 71 51 04                		add	#4, r5, r1
 2718 0af8 7F 8F                   		smovf
 449:C:\Users\a5116938\Desktop\e2_studio_workspace\EEMBC_final\RX65N_Cloud_Kit\src/tensorflow/lite/micro\micro_mutable_op_resolver.h ****     builtin_parsers_[num_buitin_ops_] = parser;
 2719                             		.loc 3 449 20
 2720 0afa EE 7A 02 05             		mov.L	5128[r7], r10
 446:C:\Users\a5116938\Desktop\e2_studio_workspace\EEMBC_final\RX65N_Cloud_Kit\src/tensorflow/lite/micro\micro_mutable_op_resolver.h ****     registrations_len_++;
 2721                             		.loc 3 446 5
 2722 0afe 3E 56 0E                		mov.L	#14, 24[r5]
 2723 0b01 FD C2 A5                		shll	#2, r10, r5
 2724 0b04 4B 75                   		add	r7, r5
 2725                             		.loc 3 451 5
 2726 0b06 62 1A                   		add	#1, r10
 447:C:\Users\a5116938\Desktop\e2_studio_workspace\EEMBC_final\RX65N_Cloud_Kit\src/tensorflow/lite/micro\micro_mutable_op_resolver.h **** 
 2727                             		.loc 3 447 5
 2728 0b08 EB 74 01 04             		mov.L	r4, 4100[r7]
 449:C:\Users\a5116938\Desktop\e2_studio_workspace\EEMBC_final\RX65N_Cloud_Kit\src/tensorflow/lite/micro\micro_mutable_op_resolver.h ****     builtin_parsers_[num_buitin_ops_] = parser;
 2729                             		.loc 3 449 5
 2730 0b0c FA 56 02 04 0E          		mov.L	#14, 4104[r5]
 450:C:\Users\a5116938\Desktop\e2_studio_workspace\EEMBC_final\RX65N_Cloud_Kit\src/tensorflow/lite/micro\micro_mutable_op_resolver.h ****     num_buitin_ops_++;
 2731                             		.loc 3 450 5
 2732 0b11 FA 52 82 04 00 00 00 00 		mov.L	#__ZN6tflite13ParseLogisticEPKNS_8OperatorEPNS_13ErrorReporterEPNS_20BuiltinDataAllocatorEPP
 2733                             		.loc 3 451 5
 2734 0b19 EB 7A 02 05             		mov.L	r10, 5128[r7]
 2735                             		.balign 8,3,1
 2736                             	.L207:
 2737                             	.LVL245:
 2738                             	.LBE1219:
 2739                             	.LBE1218:
 2740                             	.LBE1217:
 2741                             	.LBE1216:
  54:../src/tensorflow/lite/micro/all_ops_resolver.cc ****   AddMaximum();
 2742                             		.loc 6 54 3 is_stmt 1
 2743                             	.LBB1237:
 2744                             	.LBB1238:
 253:C:\Users\a5116938\Desktop\e2_studio_workspace\EEMBC_final\RX65N_Cloud_Kit\src/tensorflow/lite/micro\micro_mutable_op_resolver.h ****   }
 2745                             		.loc 3 253 59 is_stmt 0
 2746 0b1d 66 CF                   		mov.L	#12, r15
 2747 0b1f 4B 0F                   		add	r0, r15
 2748 0b21 05 00 00 00             		bsr	__ZN6tflite3ops5micro16Register_MAXIMUMEv
 2749                             	.LVL246:
 2750                             	.LBB1239:
 2751                             	.LBB1240:
 2752                             	.LBB1241:
 2753                             	.LBB1242:
  43:C:\Users\a5116938\Desktop\e2_studio_workspace\EEMBC_final\RX65N_Cloud_Kit\src/tensorflow/lite/micro\micro_mutable_op_resolver.h ****       const TfLiteRegistration& registration = registrations_[i];
 2754                             		.loc 3 43 34
 2755 0b25 EE 75 01 04             		mov.L	4100[r7], r5
  43:C:\Users\a5116938\Desktop\e2_studio_workspace\EEMBC_final\RX65N_Cloud_Kit\src/tensorflow/lite/micro\micro_mutable_op_resolver.h ****       const TfLiteRegistration& registration = registrations_[i];
 2756                             		.loc 3 43 32
 2757 0b29 61 05                   		cmp	#0, r5
 2758 0b2b 3A C5 19                		beq	.L540
 2759                             	.LVL247:
 2760                             	.LBB1243:
  45:C:\Users\a5116938\Desktop\e2_studio_workspace\EEMBC_final\RX65N_Cloud_Kit\src/tensorflow/lite/micro\micro_mutable_op_resolver.h ****         return &registration;
 2761                             		.loc 3 45 7
 2762 0b2e ED 7A 06                		mov.L	24[r7], r10
 2763 0b31 75 5A 37                		cmp	#55, r10
 2764 0b34 3A 88 10                		beq	.L209
 2765 0b37 71 73 38                		add	#56, r7, r3
 2766                             	.LBE1243:
  43:C:\Users\a5116938\Desktop\e2_studio_workspace\EEMBC_final\RX65N_Cloud_Kit\src/tensorflow/lite/micro\micro_mutable_op_resolver.h ****       const TfLiteRegistration& registration = registrations_[i];
 2767                             		.loc 3 43 23
 2768 0b3a 66 04                   		mov.L	#0, r4
 2769 0b3c 2E 0D                   		bra	.L210
 2770                             	.LVL248:
 2771                             	.L1106:
 2772                             	.LBB1244:
  45:C:\Users\a5116938\Desktop\e2_studio_workspace\EEMBC_final\RX65N_Cloud_Kit\src/tensorflow/lite/micro\micro_mutable_op_resolver.h ****         return &registration;
 2773                             		.loc 3 45 24
 2774 0b3e 71 3A E0                		add	#-32, r3, r10
  45:C:\Users\a5116938\Desktop\e2_studio_workspace\EEMBC_final\RX65N_Cloud_Kit\src/tensorflow/lite/micro\micro_mutable_op_resolver.h ****         return &registration;
 2775                             		.loc 3 45 7
 2776 0b41 EC AA                   		mov.L	[r10], r10
 2777 0b43 75 5A 37                		cmp	#55, r10
 2778 0b46 3A 76 10                		beq	.L209
 2779                             	.LVL249:
 2780                             		.balign 8,3,2
 2781                             	.L210:
 2782 0b49 71 33 20                		add	#32, r3
 2783                             	.LBE1244:
  43:C:\Users\a5116938\Desktop\e2_studio_workspace\EEMBC_final\RX65N_Cloud_Kit\src/tensorflow/lite/micro\micro_mutable_op_resolver.h ****       const TfLiteRegistration& registration = registrations_[i];
 2784                             		.loc 3 43 5
 2785 0b4c 62 14                   		add	#1, r4
 2786                             	.LVL250:
  43:C:\Users\a5116938\Desktop\e2_studio_workspace\EEMBC_final\RX65N_Cloud_Kit\src/tensorflow/lite/micro\micro_mutable_op_resolver.h ****       const TfLiteRegistration& registration = registrations_[i];
 2787                             		.loc 3 43 32
 2788 0b4e 47 54                   		cmp	r5, r4
 2789 0b50 21 EE                   		bne	.L1106
 2790                             	.LVL251:
 2791                             	.LBE1242:
 2792                             	.LBE1241:
 433:C:\Users\a5116938\Desktop\e2_studio_workspace\EEMBC_final\RX65N_Cloud_Kit\src/tensorflow/lite/micro\micro_mutable_op_resolver.h ****       if (error_reporter_) {
 2793                             		.loc 3 433 5
 2794 0b52 75 55 80                		cmp	#0x80, r5
 2795 0b55 3A D2 14                		beq	.L463
 2796 0b58 71 54 01                		add	#1, r5, r4
 2797                             		.balign 8,3,1
 2798                             	.L208:
 443:C:\Users\a5116938\Desktop\e2_studio_workspace\EEMBC_final\RX65N_Cloud_Kit\src/tensorflow/lite/micro\micro_mutable_op_resolver.h ****     // Strictly speaking, the builtin_code is not necessary for TFLM but filling
 2799                             		.loc 3 443 5
 2800 0b5b 6C 55                   		shll	#5, r5
 2801 0b5d 66 C2                   		mov.L	#12, r2
 2802 0b5f 4B 02                   		add	r0, r2
 2803 0b61 4B 75                   		add	r7, r5
 2804 0b63 75 43 20                		mov.L	#32, r3
 2805 0b66 71 51 04                		add	#4, r5, r1
 2806 0b69 7F 8F                   		smovf
 449:C:\Users\a5116938\Desktop\e2_studio_workspace\EEMBC_final\RX65N_Cloud_Kit\src/tensorflow/lite/micro\micro_mutable_op_resolver.h ****     builtin_parsers_[num_buitin_ops_] = parser;
 2807                             		.loc 3 449 20
 2808 0b6b EE 7A 02 05             		mov.L	5128[r7], r10
 446:C:\Users\a5116938\Desktop\e2_studio_workspace\EEMBC_final\RX65N_Cloud_Kit\src/tensorflow/lite/micro\micro_mutable_op_resolver.h ****     registrations_len_++;
 2809                             		.loc 3 446 5
 2810 0b6f 3E 56 37                		mov.L	#55, 24[r5]
 2811 0b72 FD C2 A5                		shll	#2, r10, r5
 2812 0b75 4B 75                   		add	r7, r5
 2813                             		.loc 3 451 5
 2814 0b77 62 1A                   		add	#1, r10
 447:C:\Users\a5116938\Desktop\e2_studio_workspace\EEMBC_final\RX65N_Cloud_Kit\src/tensorflow/lite/micro\micro_mutable_op_resolver.h **** 
 2815                             		.loc 3 447 5
 2816 0b79 EB 74 01 04             		mov.L	r4, 4100[r7]
 449:C:\Users\a5116938\Desktop\e2_studio_workspace\EEMBC_final\RX65N_Cloud_Kit\src/tensorflow/lite/micro\micro_mutable_op_resolver.h ****     builtin_parsers_[num_buitin_ops_] = parser;
 2817                             		.loc 3 449 5
 2818 0b7d FA 56 02 04 37          		mov.L	#55, 4104[r5]
 450:C:\Users\a5116938\Desktop\e2_studio_workspace\EEMBC_final\RX65N_Cloud_Kit\src/tensorflow/lite/micro\micro_mutable_op_resolver.h ****     num_buitin_ops_++;
 2819                             		.loc 3 450 5
 2820 0b82 FA 52 82 04 00 00 00 00 		mov.L	#__ZN6tflite12ParseMaximumEPKNS_8OperatorEPNS_13ErrorReporterEPNS_20BuiltinDataAllocatorEPPv
 2821                             		.loc 3 451 5
 2822 0b8a EB 7A 02 05             		mov.L	r10, 5128[r7]
 2823                             		.balign 8,3,1
 2824                             	.L213:
 2825                             	.LVL252:
 2826                             	.LBE1240:
 2827                             	.LBE1239:
 2828                             	.LBE1238:
 2829                             	.LBE1237:
  55:../src/tensorflow/lite/micro/all_ops_resolver.cc ****   AddMaxPool2D();
 2830                             		.loc 6 55 3 is_stmt 1
 2831                             	.LBB1258:
 2832                             	.LBB1259:
 258:C:\Users\a5116938\Desktop\e2_studio_workspace\EEMBC_final\RX65N_Cloud_Kit\src/tensorflow/lite/micro\micro_mutable_op_resolver.h ****   }
 2833                             		.loc 3 258 63 is_stmt 0
 2834 0b8e 66 CF                   		mov.L	#12, r15
 2835 0b90 4B 0F                   		add	r0, r15
 2836 0b92 05 00 00 00             		bsr	__ZN6tflite3ops5micro20Register_MAX_POOL_2DEv
 2837                             	.LVL253:
 2838                             	.LBB1260:
 2839                             	.LBB1261:
 2840                             	.LBB1262:
 2841                             	.LBB1263:
  43:C:\Users\a5116938\Desktop\e2_studio_workspace\EEMBC_final\RX65N_Cloud_Kit\src/tensorflow/lite/micro\micro_mutable_op_resolver.h ****       const TfLiteRegistration& registration = registrations_[i];
 2842                             		.loc 3 43 34
 2843 0b96 EE 75 01 04             		mov.L	4100[r7], r5
  43:C:\Users\a5116938\Desktop\e2_studio_workspace\EEMBC_final\RX65N_Cloud_Kit\src/tensorflow/lite/micro\micro_mutable_op_resolver.h ****       const TfLiteRegistration& registration = registrations_[i];
 2844                             		.loc 3 43 32
 2845 0b9a 61 05                   		cmp	#0, r5
 2846 0b9c 3A 6D 19                		beq	.L541
 2847                             	.LVL254:
 2848                             	.LBB1264:
  45:C:\Users\a5116938\Desktop\e2_studio_workspace\EEMBC_final\RX65N_Cloud_Kit\src/tensorflow/lite/micro\micro_mutable_op_resolver.h ****         return &registration;
 2849                             		.loc 3 45 7
 2850 0b9f ED 7A 06                		mov.L	24[r7], r10
 2851 0ba2 75 5A 11                		cmp	#17, r10
 2852 0ba5 3A 30 10                		beq	.L215
 2853 0ba8 71 73 38                		add	#56, r7, r3
 2854                             	.LBE1264:
  43:C:\Users\a5116938\Desktop\e2_studio_workspace\EEMBC_final\RX65N_Cloud_Kit\src/tensorflow/lite/micro\micro_mutable_op_resolver.h ****       const TfLiteRegistration& registration = registrations_[i];
 2855                             		.loc 3 43 23
 2856 0bab 66 04                   		mov.L	#0, r4
 2857 0bad 2E 0D                   		bra	.L216
 2858                             	.LVL255:
 2859                             	.L1107:
 2860                             	.LBB1265:
  45:C:\Users\a5116938\Desktop\e2_studio_workspace\EEMBC_final\RX65N_Cloud_Kit\src/tensorflow/lite/micro\micro_mutable_op_resolver.h ****         return &registration;
 2861                             		.loc 3 45 24
 2862 0baf 71 3A E0                		add	#-32, r3, r10
  45:C:\Users\a5116938\Desktop\e2_studio_workspace\EEMBC_final\RX65N_Cloud_Kit\src/tensorflow/lite/micro\micro_mutable_op_resolver.h ****         return &registration;
 2863                             		.loc 3 45 7
 2864 0bb2 EC AA                   		mov.L	[r10], r10
 2865 0bb4 75 5A 11                		cmp	#17, r10
 2866 0bb7 3A 1E 10                		beq	.L215
 2867                             	.LVL256:
 2868                             		.balign 8,3,2
 2869                             	.L216:
 2870 0bba 71 33 20                		add	#32, r3
 2871                             	.LBE1265:
  43:C:\Users\a5116938\Desktop\e2_studio_workspace\EEMBC_final\RX65N_Cloud_Kit\src/tensorflow/lite/micro\micro_mutable_op_resolver.h ****       const TfLiteRegistration& registration = registrations_[i];
 2872                             		.loc 3 43 5
 2873 0bbd 62 14                   		add	#1, r4
 2874                             	.LVL257:
  43:C:\Users\a5116938\Desktop\e2_studio_workspace\EEMBC_final\RX65N_Cloud_Kit\src/tensorflow/lite/micro\micro_mutable_op_resolver.h ****       const TfLiteRegistration& registration = registrations_[i];
 2875                             		.loc 3 43 32
 2876 0bbf 47 54                   		cmp	r5, r4
 2877 0bc1 21 EE                   		bne	.L1107
 2878                             	.LVL258:
 2879                             	.LBE1263:
 2880                             	.LBE1262:
 433:C:\Users\a5116938\Desktop\e2_studio_workspace\EEMBC_final\RX65N_Cloud_Kit\src/tensorflow/lite/micro\micro_mutable_op_resolver.h ****       if (error_reporter_) {
 2881                             		.loc 3 433 5
 2882 0bc3 75 55 80                		cmp	#0x80, r5
 2883 0bc6 3A 7C 14                		beq	.L462
 2884 0bc9 71 54 01                		add	#1, r5, r4
 2885                             		.balign 8,3,1
 2886                             	.L214:
 443:C:\Users\a5116938\Desktop\e2_studio_workspace\EEMBC_final\RX65N_Cloud_Kit\src/tensorflow/lite/micro\micro_mutable_op_resolver.h ****     // Strictly speaking, the builtin_code is not necessary for TFLM but filling
 2887                             		.loc 3 443 5
 2888 0bcc 6C 55                   		shll	#5, r5
 2889 0bce 66 C2                   		mov.L	#12, r2
 2890 0bd0 4B 02                   		add	r0, r2
 2891 0bd2 4B 75                   		add	r7, r5
 2892 0bd4 75 43 20                		mov.L	#32, r3
 2893 0bd7 71 51 04                		add	#4, r5, r1
 2894 0bda 7F 8F                   		smovf
 449:C:\Users\a5116938\Desktop\e2_studio_workspace\EEMBC_final\RX65N_Cloud_Kit\src/tensorflow/lite/micro\micro_mutable_op_resolver.h ****     builtin_parsers_[num_buitin_ops_] = parser;
 2895                             		.loc 3 449 20
 2896 0bdc EE 7A 02 05             		mov.L	5128[r7], r10
 446:C:\Users\a5116938\Desktop\e2_studio_workspace\EEMBC_final\RX65N_Cloud_Kit\src/tensorflow/lite/micro\micro_mutable_op_resolver.h ****     registrations_len_++;
 2897                             		.loc 3 446 5
 2898 0be0 3E 56 11                		mov.L	#17, 24[r5]
 2899 0be3 FD C2 A5                		shll	#2, r10, r5
 2900 0be6 4B 75                   		add	r7, r5
 2901                             		.loc 3 451 5
 2902 0be8 62 1A                   		add	#1, r10
 447:C:\Users\a5116938\Desktop\e2_studio_workspace\EEMBC_final\RX65N_Cloud_Kit\src/tensorflow/lite/micro\micro_mutable_op_resolver.h **** 
 2903                             		.loc 3 447 5
 2904 0bea EB 74 01 04             		mov.L	r4, 4100[r7]
 449:C:\Users\a5116938\Desktop\e2_studio_workspace\EEMBC_final\RX65N_Cloud_Kit\src/tensorflow/lite/micro\micro_mutable_op_resolver.h ****     builtin_parsers_[num_buitin_ops_] = parser;
 2905                             		.loc 3 449 5
 2906 0bee FA 56 02 04 11          		mov.L	#17, 4104[r5]
 450:C:\Users\a5116938\Desktop\e2_studio_workspace\EEMBC_final\RX65N_Cloud_Kit\src/tensorflow/lite/micro\micro_mutable_op_resolver.h ****     num_buitin_ops_++;
 2907                             		.loc 3 450 5
 2908 0bf3 FA 52 82 04 00 00 00 00 		mov.L	#__ZN6tflite9ParsePoolEPKNS_8OperatorEPNS_13ErrorReporterEPNS_20BuiltinDataAllocatorEPPv, 46
 2909                             		.loc 3 451 5
 2910 0bfb EB 7A 02 05             		mov.L	r10, 5128[r7]
 2911 0bff 03                      		.balign 8,3,1
 2912                             	.L219:
 2913                             	.LVL259:
 2914                             	.LBE1261:
 2915                             	.LBE1260:
 2916                             	.LBE1259:
 2917                             	.LBE1258:
  56:../src/tensorflow/lite/micro/all_ops_resolver.cc ****   AddMean();
 2918                             		.loc 6 56 3 is_stmt 1
 2919                             	.LBB1279:
 2920                             	.LBB1280:
 262:C:\Users\a5116938\Desktop\e2_studio_workspace\EEMBC_final\RX65N_Cloud_Kit\src/tensorflow/lite/micro\micro_mutable_op_resolver.h ****                       ParseReducer);
 2921                             		.loc 3 262 78 is_stmt 0
 2922 0c00 66 CF                   		mov.L	#12, r15
 2923 0c02 4B 0F                   		add	r0, r15
 2924 0c04 05 00 00 00             		bsr	__ZN6tflite3ops5micro13Register_MEANEv
 2925                             	.LVL260:
 2926                             	.LBB1281:
 2927                             	.LBB1282:
 2928                             	.LBB1283:
 2929                             	.LBB1284:
  43:C:\Users\a5116938\Desktop\e2_studio_workspace\EEMBC_final\RX65N_Cloud_Kit\src/tensorflow/lite/micro\micro_mutable_op_resolver.h ****       const TfLiteRegistration& registration = registrations_[i];
 2930                             		.loc 3 43 34
 2931 0c08 EE 75 01 04             		mov.L	4100[r7], r5
  43:C:\Users\a5116938\Desktop\e2_studio_workspace\EEMBC_final\RX65N_Cloud_Kit\src/tensorflow/lite/micro\micro_mutable_op_resolver.h ****       const TfLiteRegistration& registration = registrations_[i];
 2932                             		.loc 3 43 32
 2933 0c0c 61 05                   		cmp	#0, r5
 2934 0c0e 3A D8 18                		beq	.L542
 2935                             	.LVL261:
 2936                             	.LBB1285:
  45:C:\Users\a5116938\Desktop\e2_studio_workspace\EEMBC_final\RX65N_Cloud_Kit\src/tensorflow/lite/micro\micro_mutable_op_resolver.h ****         return &registration;
 2937                             		.loc 3 45 7
 2938 0c11 ED 7A 06                		mov.L	24[r7], r10
 2939 0c14 75 5A 28                		cmp	#40, r10
 2940 0c17 3A D7 0F                		beq	.L221
 2941 0c1a 71 73 38                		add	#56, r7, r3
 2942                             	.LBE1285:
  43:C:\Users\a5116938\Desktop\e2_studio_workspace\EEMBC_final\RX65N_Cloud_Kit\src/tensorflow/lite/micro\micro_mutable_op_resolver.h ****       const TfLiteRegistration& registration = registrations_[i];
 2943                             		.loc 3 43 23
 2944 0c1d 66 04                   		mov.L	#0, r4
 2945 0c1f 2E 0D                   		bra	.L222
 2946                             	.LVL262:
 2947                             	.L1108:
 2948                             	.LBB1286:
  45:C:\Users\a5116938\Desktop\e2_studio_workspace\EEMBC_final\RX65N_Cloud_Kit\src/tensorflow/lite/micro\micro_mutable_op_resolver.h ****         return &registration;
 2949                             		.loc 3 45 24
 2950 0c21 71 3A E0                		add	#-32, r3, r10
  45:C:\Users\a5116938\Desktop\e2_studio_workspace\EEMBC_final\RX65N_Cloud_Kit\src/tensorflow/lite/micro\micro_mutable_op_resolver.h ****         return &registration;
 2951                             		.loc 3 45 7
 2952 0c24 EC AA                   		mov.L	[r10], r10
 2953 0c26 75 5A 28                		cmp	#40, r10
 2954 0c29 3A C5 0F                		beq	.L221
 2955                             	.LVL263:
 2956                             		.balign 8,3,2
 2957                             	.L222:
 2958 0c2c 71 33 20                		add	#32, r3
 2959                             	.LBE1286:
  43:C:\Users\a5116938\Desktop\e2_studio_workspace\EEMBC_final\RX65N_Cloud_Kit\src/tensorflow/lite/micro\micro_mutable_op_resolver.h ****       const TfLiteRegistration& registration = registrations_[i];
 2960                             		.loc 3 43 5
 2961 0c2f 62 14                   		add	#1, r4
 2962                             	.LVL264:
  43:C:\Users\a5116938\Desktop\e2_studio_workspace\EEMBC_final\RX65N_Cloud_Kit\src/tensorflow/lite/micro\micro_mutable_op_resolver.h ****       const TfLiteRegistration& registration = registrations_[i];
 2963                             		.loc 3 43 32
 2964 0c31 47 54                   		cmp	r5, r4
 2965 0c33 21 EE                   		bne	.L1108
 2966                             	.LVL265:
 2967                             	.LBE1284:
 2968                             	.LBE1283:
 433:C:\Users\a5116938\Desktop\e2_studio_workspace\EEMBC_final\RX65N_Cloud_Kit\src/tensorflow/lite/micro\micro_mutable_op_resolver.h ****       if (error_reporter_) {
 2969                             		.loc 3 433 5
 2970 0c35 75 55 80                		cmp	#0x80, r5
 2971 0c38 3A 25 14                		beq	.L460
 2972 0c3b 71 54 01                		add	#1, r5, r4
 2973                             		.balign 8,3,1
 2974                             	.L220:
 443:C:\Users\a5116938\Desktop\e2_studio_workspace\EEMBC_final\RX65N_Cloud_Kit\src/tensorflow/lite/micro\micro_mutable_op_resolver.h ****     // Strictly speaking, the builtin_code is not necessary for TFLM but filling
 2975                             		.loc 3 443 5
 2976 0c3e 6C 55                   		shll	#5, r5
 2977 0c40 66 C2                   		mov.L	#12, r2
 2978 0c42 4B 02                   		add	r0, r2
 2979 0c44 4B 75                   		add	r7, r5
 2980 0c46 75 43 20                		mov.L	#32, r3
 2981 0c49 71 51 04                		add	#4, r5, r1
 2982 0c4c 7F 8F                   		smovf
 449:C:\Users\a5116938\Desktop\e2_studio_workspace\EEMBC_final\RX65N_Cloud_Kit\src/tensorflow/lite/micro\micro_mutable_op_resolver.h ****     builtin_parsers_[num_buitin_ops_] = parser;
 2983                             		.loc 3 449 20
 2984 0c4e EE 7A 02 05             		mov.L	5128[r7], r10
 446:C:\Users\a5116938\Desktop\e2_studio_workspace\EEMBC_final\RX65N_Cloud_Kit\src/tensorflow/lite/micro\micro_mutable_op_resolver.h ****     registrations_len_++;
 2985                             		.loc 3 446 5
 2986 0c52 3E 56 28                		mov.L	#40, 24[r5]
 2987 0c55 FD C2 A5                		shll	#2, r10, r5
 2988 0c58 4B 75                   		add	r7, r5
 2989                             		.loc 3 451 5
 2990 0c5a 62 1A                   		add	#1, r10
 447:C:\Users\a5116938\Desktop\e2_studio_workspace\EEMBC_final\RX65N_Cloud_Kit\src/tensorflow/lite/micro\micro_mutable_op_resolver.h **** 
 2991                             		.loc 3 447 5
 2992 0c5c EB 74 01 04             		mov.L	r4, 4100[r7]
 449:C:\Users\a5116938\Desktop\e2_studio_workspace\EEMBC_final\RX65N_Cloud_Kit\src/tensorflow/lite/micro\micro_mutable_op_resolver.h ****     builtin_parsers_[num_buitin_ops_] = parser;
 2993                             		.loc 3 449 5
 2994 0c60 FA 56 02 04 28          		mov.L	#40, 4104[r5]
 450:C:\Users\a5116938\Desktop\e2_studio_workspace\EEMBC_final\RX65N_Cloud_Kit\src/tensorflow/lite/micro\micro_mutable_op_resolver.h ****     num_buitin_ops_++;
 2995                             		.loc 3 450 5
 2996 0c65 FA 52 82 04 00 00 00 00 		mov.L	#__ZN6tflite12ParseReducerEPKNS_8OperatorEPNS_13ErrorReporterEPNS_20BuiltinDataAllocatorEPPv
 2997                             		.loc 3 451 5
 2998 0c6d EB 7A 02 05             		mov.L	r10, 5128[r7]
 2999                             		.balign 8,3,1
 3000                             	.L225:
 3001                             	.LVL266:
 3002                             	.LBE1282:
 3003                             	.LBE1281:
 3004                             	.LBE1280:
 3005                             	.LBE1279:
  57:../src/tensorflow/lite/micro/all_ops_resolver.cc ****   AddMinimum();
 3006                             		.loc 6 57 3 is_stmt 1
 3007                             	.LBB1300:
 3008                             	.LBB1301:
 268:C:\Users\a5116938\Desktop\e2_studio_workspace\EEMBC_final\RX65N_Cloud_Kit\src/tensorflow/lite/micro\micro_mutable_op_resolver.h ****   }
 3009                             		.loc 3 268 59 is_stmt 0
 3010 0c71 66 CF                   		mov.L	#12, r15
 3011 0c73 4B 0F                   		add	r0, r15
 3012 0c75 05 00 00 00             		bsr	__ZN6tflite3ops5micro16Register_MINIMUMEv
 3013                             	.LVL267:
 3014                             	.LBB1302:
 3015                             	.LBB1303:
 3016                             	.LBB1304:
 3017                             	.LBB1305:
  43:C:\Users\a5116938\Desktop\e2_studio_workspace\EEMBC_final\RX65N_Cloud_Kit\src/tensorflow/lite/micro\micro_mutable_op_resolver.h ****       const TfLiteRegistration& registration = registrations_[i];
 3018                             		.loc 3 43 34
 3019 0c79 EE 75 01 04             		mov.L	4100[r7], r5
  43:C:\Users\a5116938\Desktop\e2_studio_workspace\EEMBC_final\RX65N_Cloud_Kit\src/tensorflow/lite/micro\micro_mutable_op_resolver.h ****       const TfLiteRegistration& registration = registrations_[i];
 3020                             		.loc 3 43 32
 3021 0c7d 61 05                   		cmp	#0, r5
 3022 0c7f 3A 6C 18                		beq	.L543
 3023                             	.LVL268:
 3024                             	.LBB1306:
  45:C:\Users\a5116938\Desktop\e2_studio_workspace\EEMBC_final\RX65N_Cloud_Kit\src/tensorflow/lite/micro\micro_mutable_op_resolver.h ****         return &registration;
 3025                             		.loc 3 45 7
 3026 0c82 ED 7A 06                		mov.L	24[r7], r10
 3027 0c85 75 5A 39                		cmp	#57, r10
 3028 0c88 3A 7F 0F                		beq	.L227
 3029 0c8b 71 73 38                		add	#56, r7, r3
 3030                             	.LBE1306:
  43:C:\Users\a5116938\Desktop\e2_studio_workspace\EEMBC_final\RX65N_Cloud_Kit\src/tensorflow/lite/micro\micro_mutable_op_resolver.h ****       const TfLiteRegistration& registration = registrations_[i];
 3031                             		.loc 3 43 23
 3032 0c8e 66 04                   		mov.L	#0, r4
 3033 0c90 2E 0D                   		bra	.L228
 3034                             	.LVL269:
 3035                             	.L1109:
 3036                             	.LBB1307:
  45:C:\Users\a5116938\Desktop\e2_studio_workspace\EEMBC_final\RX65N_Cloud_Kit\src/tensorflow/lite/micro\micro_mutable_op_resolver.h ****         return &registration;
 3037                             		.loc 3 45 24
 3038 0c92 71 3A E0                		add	#-32, r3, r10
  45:C:\Users\a5116938\Desktop\e2_studio_workspace\EEMBC_final\RX65N_Cloud_Kit\src/tensorflow/lite/micro\micro_mutable_op_resolver.h ****         return &registration;
 3039                             		.loc 3 45 7
 3040 0c95 EC AA                   		mov.L	[r10], r10
 3041 0c97 75 5A 39                		cmp	#57, r10
 3042 0c9a 3A 6D 0F                		beq	.L227
 3043                             	.LVL270:
 3044                             		.balign 8,3,2
 3045                             	.L228:
 3046 0c9d 71 33 20                		add	#32, r3
 3047                             	.LBE1307:
  43:C:\Users\a5116938\Desktop\e2_studio_workspace\EEMBC_final\RX65N_Cloud_Kit\src/tensorflow/lite/micro\micro_mutable_op_resolver.h ****       const TfLiteRegistration& registration = registrations_[i];
 3048                             		.loc 3 43 5
 3049 0ca0 62 14                   		add	#1, r4
 3050                             	.LVL271:
  43:C:\Users\a5116938\Desktop\e2_studio_workspace\EEMBC_final\RX65N_Cloud_Kit\src/tensorflow/lite/micro\micro_mutable_op_resolver.h ****       const TfLiteRegistration& registration = registrations_[i];
 3051                             		.loc 3 43 32
 3052 0ca2 47 54                   		cmp	r5, r4
 3053 0ca4 21 EE                   		bne	.L1109
 3054                             	.LVL272:
 3055                             	.LBE1305:
 3056                             	.LBE1304:
 433:C:\Users\a5116938\Desktop\e2_studio_workspace\EEMBC_final\RX65N_Cloud_Kit\src/tensorflow/lite/micro\micro_mutable_op_resolver.h ****       if (error_reporter_) {
 3057                             		.loc 3 433 5
 3058 0ca6 75 55 80                		cmp	#0x80, r5
 3059 0ca9 3A CF 13                		beq	.L458
 3060 0cac 71 54 01                		add	#1, r5, r4
 3061 0caf 03                      		.balign 8,3,1
 3062                             	.L226:
 443:C:\Users\a5116938\Desktop\e2_studio_workspace\EEMBC_final\RX65N_Cloud_Kit\src/tensorflow/lite/micro\micro_mutable_op_resolver.h ****     // Strictly speaking, the builtin_code is not necessary for TFLM but filling
 3063                             		.loc 3 443 5
 3064 0cb0 6C 55                   		shll	#5, r5
 3065 0cb2 66 C2                   		mov.L	#12, r2
 3066 0cb4 4B 02                   		add	r0, r2
 3067 0cb6 4B 75                   		add	r7, r5
 3068 0cb8 75 43 20                		mov.L	#32, r3
 3069 0cbb 71 51 04                		add	#4, r5, r1
 3070 0cbe 7F 8F                   		smovf
 449:C:\Users\a5116938\Desktop\e2_studio_workspace\EEMBC_final\RX65N_Cloud_Kit\src/tensorflow/lite/micro\micro_mutable_op_resolver.h ****     builtin_parsers_[num_buitin_ops_] = parser;
 3071                             		.loc 3 449 20
 3072 0cc0 EE 7A 02 05             		mov.L	5128[r7], r10
 446:C:\Users\a5116938\Desktop\e2_studio_workspace\EEMBC_final\RX65N_Cloud_Kit\src/tensorflow/lite/micro\micro_mutable_op_resolver.h ****     registrations_len_++;
 3073                             		.loc 3 446 5
 3074 0cc4 3E 56 39                		mov.L	#57, 24[r5]
 3075 0cc7 FD C2 A5                		shll	#2, r10, r5
 3076 0cca 4B 75                   		add	r7, r5
 3077                             		.loc 3 451 5
 3078 0ccc 62 1A                   		add	#1, r10
 447:C:\Users\a5116938\Desktop\e2_studio_workspace\EEMBC_final\RX65N_Cloud_Kit\src/tensorflow/lite/micro\micro_mutable_op_resolver.h **** 
 3079                             		.loc 3 447 5
 3080 0cce EB 74 01 04             		mov.L	r4, 4100[r7]
 449:C:\Users\a5116938\Desktop\e2_studio_workspace\EEMBC_final\RX65N_Cloud_Kit\src/tensorflow/lite/micro\micro_mutable_op_resolver.h ****     builtin_parsers_[num_buitin_ops_] = parser;
 3081                             		.loc 3 449 5
 3082 0cd2 FA 56 02 04 39          		mov.L	#57, 4104[r5]
 450:C:\Users\a5116938\Desktop\e2_studio_workspace\EEMBC_final\RX65N_Cloud_Kit\src/tensorflow/lite/micro\micro_mutable_op_resolver.h ****     num_buitin_ops_++;
 3083                             		.loc 3 450 5
 3084 0cd7 FA 52 82 04 00 00 00 00 		mov.L	#__ZN6tflite12ParseMinimumEPKNS_8OperatorEPNS_13ErrorReporterEPNS_20BuiltinDataAllocatorEPPv
 3085                             		.loc 3 451 5
 3086 0cdf EB 7A 02 05             		mov.L	r10, 5128[r7]
 3087                             		.balign 8,3,1
 3088                             	.L231:
 3089                             	.LVL273:
 3090                             	.LBE1303:
 3091                             	.LBE1302:
 3092                             	.LBE1301:
 3093                             	.LBE1300:
  58:../src/tensorflow/lite/micro/all_ops_resolver.cc ****   AddMul();
 3094                             		.loc 6 58 3 is_stmt 1
 3095                             	.LBB1321:
 3096                             	.LBB1322:
 272:C:\Users\a5116938\Desktop\e2_studio_workspace\EEMBC_final\RX65N_Cloud_Kit\src/tensorflow/lite/micro\micro_mutable_op_resolver.h ****                       ParseMul);
 3097                             		.loc 3 272 76 is_stmt 0
 3098 0ce3 66 CF                   		mov.L	#12, r15
 3099 0ce5 4B 0F                   		add	r0, r15
 3100 0ce7 05 00 00 00             		bsr	__ZN6tflite3ops5micro12Register_MULEv
 3101                             	.LVL274:
 3102                             	.LBB1323:
 3103                             	.LBB1324:
 3104                             	.LBB1325:
 3105                             	.LBB1326:
  43:C:\Users\a5116938\Desktop\e2_studio_workspace\EEMBC_final\RX65N_Cloud_Kit\src/tensorflow/lite/micro\micro_mutable_op_resolver.h ****       const TfLiteRegistration& registration = registrations_[i];
 3106                             		.loc 3 43 34
 3107 0ceb EE 75 01 04             		mov.L	4100[r7], r5
  43:C:\Users\a5116938\Desktop\e2_studio_workspace\EEMBC_final\RX65N_Cloud_Kit\src/tensorflow/lite/micro\micro_mutable_op_resolver.h ****       const TfLiteRegistration& registration = registrations_[i];
 3108                             		.loc 3 43 32
 3109 0cef 61 05                   		cmp	#0, r5
 3110 0cf1 3A 09 18                		beq	.L544
 3111                             	.LVL275:
 3112                             	.LBB1327:
  45:C:\Users\a5116938\Desktop\e2_studio_workspace\EEMBC_final\RX65N_Cloud_Kit\src/tensorflow/lite/micro\micro_mutable_op_resolver.h ****         return &registration;
 3113                             		.loc 3 45 7
 3114 0cf4 ED 7A 06                		mov.L	24[r7], r10
 3115 0cf7 75 5A 12                		cmp	#18, r10
 3116 0cfa 3A 26 0F                		beq	.L233
 3117 0cfd 71 73 38                		add	#56, r7, r3
 3118                             	.LBE1327:
  43:C:\Users\a5116938\Desktop\e2_studio_workspace\EEMBC_final\RX65N_Cloud_Kit\src/tensorflow/lite/micro\micro_mutable_op_resolver.h ****       const TfLiteRegistration& registration = registrations_[i];
 3119                             		.loc 3 43 23
 3120 0d00 66 04                   		mov.L	#0, r4
 3121 0d02 2E 0E                   		bra	.L234
 3122                             	.LVL276:
 3123                             	.L1110:
 3124                             	.LBB1328:
  45:C:\Users\a5116938\Desktop\e2_studio_workspace\EEMBC_final\RX65N_Cloud_Kit\src/tensorflow/lite/micro\micro_mutable_op_resolver.h ****         return &registration;
 3125                             		.loc 3 45 24
 3126 0d04 71 3A E0                		add	#-32, r3, r10
  45:C:\Users\a5116938\Desktop\e2_studio_workspace\EEMBC_final\RX65N_Cloud_Kit\src/tensorflow/lite/micro\micro_mutable_op_resolver.h ****         return &registration;
 3127                             		.loc 3 45 7
 3128 0d07 EC AA                   		mov.L	[r10], r10
 3129 0d09 75 5A 12                		cmp	#18, r10
 3130 0d0c 3A 14 0F                		beq	.L233
 3131                             	.LVL277:
 3132 0d0f 03                      		.balign 8,3,2
 3133                             	.L234:
 3134 0d10 71 33 20                		add	#32, r3
 3135                             	.LBE1328:
  43:C:\Users\a5116938\Desktop\e2_studio_workspace\EEMBC_final\RX65N_Cloud_Kit\src/tensorflow/lite/micro\micro_mutable_op_resolver.h ****       const TfLiteRegistration& registration = registrations_[i];
 3136                             		.loc 3 43 5
 3137 0d13 62 14                   		add	#1, r4
 3138                             	.LVL278:
  43:C:\Users\a5116938\Desktop\e2_studio_workspace\EEMBC_final\RX65N_Cloud_Kit\src/tensorflow/lite/micro\micro_mutable_op_resolver.h ****       const TfLiteRegistration& registration = registrations_[i];
 3139                             		.loc 3 43 32
 3140 0d15 47 54                   		cmp	r5, r4
 3141 0d17 21 ED                   		bne	.L1110
 3142                             	.LVL279:
 3143                             	.LBE1326:
 3144                             	.LBE1325:
 433:C:\Users\a5116938\Desktop\e2_studio_workspace\EEMBC_final\RX65N_Cloud_Kit\src/tensorflow/lite/micro\micro_mutable_op_resolver.h ****       if (error_reporter_) {
 3145                             		.loc 3 433 5
 3146 0d19 75 55 80                		cmp	#0x80, r5
 3147 0d1c 3A 77 13                		beq	.L455
 3148 0d1f 71 54 01                		add	#1, r5, r4
 3149                             		.balign 8,3,1
 3150                             	.L232:
 443:C:\Users\a5116938\Desktop\e2_studio_workspace\EEMBC_final\RX65N_Cloud_Kit\src/tensorflow/lite/micro\micro_mutable_op_resolver.h ****     // Strictly speaking, the builtin_code is not necessary for TFLM but filling
 3151                             		.loc 3 443 5
 3152 0d22 6C 55                   		shll	#5, r5
 3153 0d24 66 C2                   		mov.L	#12, r2
 3154 0d26 4B 02                   		add	r0, r2
 3155 0d28 4B 75                   		add	r7, r5
 3156 0d2a 75 43 20                		mov.L	#32, r3
 3157 0d2d 71 51 04                		add	#4, r5, r1
 3158 0d30 7F 8F                   		smovf
 449:C:\Users\a5116938\Desktop\e2_studio_workspace\EEMBC_final\RX65N_Cloud_Kit\src/tensorflow/lite/micro\micro_mutable_op_resolver.h ****     builtin_parsers_[num_buitin_ops_] = parser;
 3159                             		.loc 3 449 20
 3160 0d32 EE 7A 02 05             		mov.L	5128[r7], r10
 446:C:\Users\a5116938\Desktop\e2_studio_workspace\EEMBC_final\RX65N_Cloud_Kit\src/tensorflow/lite/micro\micro_mutable_op_resolver.h ****     registrations_len_++;
 3161                             		.loc 3 446 5
 3162 0d36 3E 56 12                		mov.L	#18, 24[r5]
 3163 0d39 FD C2 A5                		shll	#2, r10, r5
 3164 0d3c 4B 75                   		add	r7, r5
 3165                             		.loc 3 451 5
 3166 0d3e 62 1A                   		add	#1, r10
 447:C:\Users\a5116938\Desktop\e2_studio_workspace\EEMBC_final\RX65N_Cloud_Kit\src/tensorflow/lite/micro\micro_mutable_op_resolver.h **** 
 3167                             		.loc 3 447 5
 3168 0d40 EB 74 01 04             		mov.L	r4, 4100[r7]
 449:C:\Users\a5116938\Desktop\e2_studio_workspace\EEMBC_final\RX65N_Cloud_Kit\src/tensorflow/lite/micro\micro_mutable_op_resolver.h ****     builtin_parsers_[num_buitin_ops_] = parser;
 3169                             		.loc 3 449 5
 3170 0d44 FA 56 02 04 12          		mov.L	#18, 4104[r5]
 450:C:\Users\a5116938\Desktop\e2_studio_workspace\EEMBC_final\RX65N_Cloud_Kit\src/tensorflow/lite/micro\micro_mutable_op_resolver.h ****     num_buitin_ops_++;
 3171                             		.loc 3 450 5
 3172 0d49 FA 52 82 04 00 00 00 00 		mov.L	#__ZN6tflite8ParseMulEPKNS_8OperatorEPNS_13ErrorReporterEPNS_20BuiltinDataAllocatorEPPv, 461
 3173                             		.loc 3 451 5
 3174 0d51 EB 7A 02 05             		mov.L	r10, 5128[r7]
 3175                             		.balign 8,3,1
 3176                             	.L237:
 3177                             	.LVL280:
 3178                             	.LBE1324:
 3179                             	.LBE1323:
 3180                             	.LBE1322:
 3181                             	.LBE1321:
  59:../src/tensorflow/lite/micro/all_ops_resolver.cc ****   AddNeg();
 3182                             		.loc 6 59 3 is_stmt 1
 3183                             	.LBB1342:
 3184                             	.LBB1343:
 277:C:\Users\a5116938\Desktop\e2_studio_workspace\EEMBC_final\RX65N_Cloud_Kit\src/tensorflow/lite/micro\micro_mutable_op_resolver.h ****                       ParseNeg);
 3185                             		.loc 3 277 76 is_stmt 0
 3186 0d55 66 CF                   		mov.L	#12, r15
 3187 0d57 4B 0F                   		add	r0, r15
 3188 0d59 05 00 00 00             		bsr	__ZN6tflite3ops5micro12Register_NEGEv
 3189                             	.LVL281:
 3190                             	.LBB1344:
 3191                             	.LBB1345:
 3192                             	.LBB1346:
 3193                             	.LBB1347:
  43:C:\Users\a5116938\Desktop\e2_studio_workspace\EEMBC_final\RX65N_Cloud_Kit\src/tensorflow/lite/micro\micro_mutable_op_resolver.h ****       const TfLiteRegistration& registration = registrations_[i];
 3194                             		.loc 3 43 34
 3195 0d5d EE 75 01 04             		mov.L	4100[r7], r5
  43:C:\Users\a5116938\Desktop\e2_studio_workspace\EEMBC_final\RX65N_Cloud_Kit\src/tensorflow/lite/micro\micro_mutable_op_resolver.h ****       const TfLiteRegistration& registration = registrations_[i];
 3196                             		.loc 3 43 32
 3197 0d61 61 05                   		cmp	#0, r5
 3198 0d63 3A D8 17                		beq	.L545
 3199                             	.LVL282:
 3200                             	.LBB1348:
  45:C:\Users\a5116938\Desktop\e2_studio_workspace\EEMBC_final\RX65N_Cloud_Kit\src/tensorflow/lite/micro\micro_mutable_op_resolver.h ****         return &registration;
 3201                             		.loc 3 45 7
 3202 0d66 ED 7A 06                		mov.L	24[r7], r10
 3203 0d69 75 5A 3B                		cmp	#59, r10
 3204 0d6c 3A CD 0E                		beq	.L239
 3205 0d6f 71 73 38                		add	#56, r7, r3
 3206                             	.LBE1348:
  43:C:\Users\a5116938\Desktop\e2_studio_workspace\EEMBC_final\RX65N_Cloud_Kit\src/tensorflow/lite/micro\micro_mutable_op_resolver.h ****       const TfLiteRegistration& registration = registrations_[i];
 3207                             		.loc 3 43 23
 3208 0d72 66 04                   		mov.L	#0, r4
 3209 0d74 2E 0D                   		bra	.L240
 3210                             	.LVL283:
 3211                             	.L1111:
 3212                             	.LBB1349:
  45:C:\Users\a5116938\Desktop\e2_studio_workspace\EEMBC_final\RX65N_Cloud_Kit\src/tensorflow/lite/micro\micro_mutable_op_resolver.h ****         return &registration;
 3213                             		.loc 3 45 24
 3214 0d76 71 3A E0                		add	#-32, r3, r10
  45:C:\Users\a5116938\Desktop\e2_studio_workspace\EEMBC_final\RX65N_Cloud_Kit\src/tensorflow/lite/micro\micro_mutable_op_resolver.h ****         return &registration;
 3215                             		.loc 3 45 7
 3216 0d79 EC AA                   		mov.L	[r10], r10
 3217 0d7b 75 5A 3B                		cmp	#59, r10
 3218 0d7e 3A BB 0E                		beq	.L239
 3219                             	.LVL284:
 3220                             		.balign 8,3,2
 3221                             	.L240:
 3222 0d81 71 33 20                		add	#32, r3
 3223                             	.LBE1349:
  43:C:\Users\a5116938\Desktop\e2_studio_workspace\EEMBC_final\RX65N_Cloud_Kit\src/tensorflow/lite/micro\micro_mutable_op_resolver.h ****       const TfLiteRegistration& registration = registrations_[i];
 3224                             		.loc 3 43 5
 3225 0d84 62 14                   		add	#1, r4
 3226                             	.LVL285:
  43:C:\Users\a5116938\Desktop\e2_studio_workspace\EEMBC_final\RX65N_Cloud_Kit\src/tensorflow/lite/micro\micro_mutable_op_resolver.h ****       const TfLiteRegistration& registration = registrations_[i];
 3227                             		.loc 3 43 32
 3228 0d86 47 54                   		cmp	r5, r4
 3229 0d88 21 EE                   		bne	.L1111
 3230                             	.LVL286:
 3231                             	.LBE1347:
 3232                             	.LBE1346:
 433:C:\Users\a5116938\Desktop\e2_studio_workspace\EEMBC_final\RX65N_Cloud_Kit\src/tensorflow/lite/micro\micro_mutable_op_resolver.h ****       if (error_reporter_) {
 3233                             		.loc 3 433 5
 3234 0d8a 75 55 80                		cmp	#0x80, r5
 3235 0d8d 3A 21 13                		beq	.L454
 3236 0d90 71 54 01                		add	#1, r5, r4
 3237                             		.balign 8,3,1
 3238                             	.L238:
 443:C:\Users\a5116938\Desktop\e2_studio_workspace\EEMBC_final\RX65N_Cloud_Kit\src/tensorflow/lite/micro\micro_mutable_op_resolver.h ****     // Strictly speaking, the builtin_code is not necessary for TFLM but filling
 3239                             		.loc 3 443 5
 3240 0d93 6C 55                   		shll	#5, r5
 3241 0d95 66 C2                   		mov.L	#12, r2
 3242 0d97 4B 02                   		add	r0, r2
 3243 0d99 4B 75                   		add	r7, r5
 3244 0d9b 75 43 20                		mov.L	#32, r3
 3245 0d9e 71 51 04                		add	#4, r5, r1
 3246 0da1 7F 8F                   		smovf
 449:C:\Users\a5116938\Desktop\e2_studio_workspace\EEMBC_final\RX65N_Cloud_Kit\src/tensorflow/lite/micro\micro_mutable_op_resolver.h ****     builtin_parsers_[num_buitin_ops_] = parser;
 3247                             		.loc 3 449 20
 3248 0da3 EE 7A 02 05             		mov.L	5128[r7], r10
 446:C:\Users\a5116938\Desktop\e2_studio_workspace\EEMBC_final\RX65N_Cloud_Kit\src/tensorflow/lite/micro\micro_mutable_op_resolver.h ****     registrations_len_++;
 3249                             		.loc 3 446 5
 3250 0da7 3E 56 3B                		mov.L	#59, 24[r5]
 3251 0daa FD C2 A5                		shll	#2, r10, r5
 3252 0dad 4B 75                   		add	r7, r5
 3253                             		.loc 3 451 5
 3254 0daf 62 1A                   		add	#1, r10
 447:C:\Users\a5116938\Desktop\e2_studio_workspace\EEMBC_final\RX65N_Cloud_Kit\src/tensorflow/lite/micro\micro_mutable_op_resolver.h **** 
 3255                             		.loc 3 447 5
 3256 0db1 EB 74 01 04             		mov.L	r4, 4100[r7]
 449:C:\Users\a5116938\Desktop\e2_studio_workspace\EEMBC_final\RX65N_Cloud_Kit\src/tensorflow/lite/micro\micro_mutable_op_resolver.h ****     builtin_parsers_[num_buitin_ops_] = parser;
 3257                             		.loc 3 449 5
 3258 0db5 FA 56 02 04 3B          		mov.L	#59, 4104[r5]
 450:C:\Users\a5116938\Desktop\e2_studio_workspace\EEMBC_final\RX65N_Cloud_Kit\src/tensorflow/lite/micro\micro_mutable_op_resolver.h ****     num_buitin_ops_++;
 3259                             		.loc 3 450 5
 3260 0dba FA 52 82 04 00 00 00 00 		mov.L	#__ZN6tflite8ParseNegEPKNS_8OperatorEPNS_13ErrorReporterEPNS_20BuiltinDataAllocatorEPPv, 461
 3261                             		.loc 3 451 5
 3262 0dc2 EB 7A 02 05             		mov.L	r10, 5128[r7]
 3263                             		.balign 8,3,1
 3264                             	.L243:
 3265                             	.LVL287:
 3266                             	.LBE1345:
 3267                             	.LBE1344:
 3268                             	.LBE1343:
 3269                             	.LBE1342:
  60:../src/tensorflow/lite/micro/all_ops_resolver.cc ****   AddNotEqual();
 3270                             		.loc 6 60 3 is_stmt 1
 3271                             	.LBB1363:
 3272                             	.LBB1364:
 283:C:\Users\a5116938\Desktop\e2_studio_workspace\EEMBC_final\RX65N_Cloud_Kit\src/tensorflow/lite/micro\micro_mutable_op_resolver.h ****   }
 3273                             		.loc 3 283 61 is_stmt 0
 3274 0dc6 66 CF                   		mov.L	#12, r15
 3275 0dc8 4B 0F                   		add	r0, r15
 3276 0dca 05 00 00 00             		bsr	__ZN6tflite3ops5micro18Register_NOT_EQUALEv
 3277                             	.LVL288:
 3278                             	.LBB1365:
 3279                             	.LBB1366:
 3280                             	.LBB1367:
 3281                             	.LBB1368:
  43:C:\Users\a5116938\Desktop\e2_studio_workspace\EEMBC_final\RX65N_Cloud_Kit\src/tensorflow/lite/micro\micro_mutable_op_resolver.h ****       const TfLiteRegistration& registration = registrations_[i];
 3282                             		.loc 3 43 34
 3283 0dce EE 75 01 04             		mov.L	4100[r7], r5
  43:C:\Users\a5116938\Desktop\e2_studio_workspace\EEMBC_final\RX65N_Cloud_Kit\src/tensorflow/lite/micro\micro_mutable_op_resolver.h ****       const TfLiteRegistration& registration = registrations_[i];
 3284                             		.loc 3 43 32
 3285 0dd2 61 05                   		cmp	#0, r5
 3286 0dd4 3A 6C 17                		beq	.L546
 3287                             	.LVL289:
 3288                             	.LBB1369:
  45:C:\Users\a5116938\Desktop\e2_studio_workspace\EEMBC_final\RX65N_Cloud_Kit\src/tensorflow/lite/micro\micro_mutable_op_resolver.h ****         return &registration;
 3289                             		.loc 3 45 7
 3290 0dd7 ED 7A 06                		mov.L	24[r7], r10
 3291 0dda 75 5A 48                		cmp	#0x48, r10
 3292 0ddd 3A 75 0E                		beq	.L245
 3293 0de0 71 73 38                		add	#56, r7, r3
 3294                             	.LBE1369:
  43:C:\Users\a5116938\Desktop\e2_studio_workspace\EEMBC_final\RX65N_Cloud_Kit\src/tensorflow/lite/micro\micro_mutable_op_resolver.h ****       const TfLiteRegistration& registration = registrations_[i];
 3295                             		.loc 3 43 23
 3296 0de3 66 04                   		mov.L	#0, r4
 3297 0de5 2E 0D                   		bra	.L246
 3298                             	.LVL290:
 3299                             	.L1112:
 3300                             	.LBB1370:
  45:C:\Users\a5116938\Desktop\e2_studio_workspace\EEMBC_final\RX65N_Cloud_Kit\src/tensorflow/lite/micro\micro_mutable_op_resolver.h ****         return &registration;
 3301                             		.loc 3 45 24
 3302 0de7 71 3A E0                		add	#-32, r3, r10
  45:C:\Users\a5116938\Desktop\e2_studio_workspace\EEMBC_final\RX65N_Cloud_Kit\src/tensorflow/lite/micro\micro_mutable_op_resolver.h ****         return &registration;
 3303                             		.loc 3 45 7
 3304 0dea EC AA                   		mov.L	[r10], r10
 3305 0dec 75 5A 48                		cmp	#0x48, r10
 3306 0def 3A 63 0E                		beq	.L245
 3307                             	.LVL291:
 3308                             		.balign 8,3,2
 3309                             	.L246:
 3310 0df2 71 33 20                		add	#32, r3
 3311                             	.LBE1370:
  43:C:\Users\a5116938\Desktop\e2_studio_workspace\EEMBC_final\RX65N_Cloud_Kit\src/tensorflow/lite/micro\micro_mutable_op_resolver.h ****       const TfLiteRegistration& registration = registrations_[i];
 3312                             		.loc 3 43 5
 3313 0df5 62 14                   		add	#1, r4
 3314                             	.LVL292:
  43:C:\Users\a5116938\Desktop\e2_studio_workspace\EEMBC_final\RX65N_Cloud_Kit\src/tensorflow/lite/micro\micro_mutable_op_resolver.h ****       const TfLiteRegistration& registration = registrations_[i];
 3315                             		.loc 3 43 32
 3316 0df7 47 54                   		cmp	r5, r4
 3317 0df9 21 EE                   		bne	.L1112
 3318                             	.LVL293:
 3319                             	.LBE1368:
 3320                             	.LBE1367:
 433:C:\Users\a5116938\Desktop\e2_studio_workspace\EEMBC_final\RX65N_Cloud_Kit\src/tensorflow/lite/micro\micro_mutable_op_resolver.h ****       if (error_reporter_) {
 3321                             		.loc 3 433 5
 3322 0dfb 75 55 80                		cmp	#0x80, r5
 3323 0dfe 3A CB 12                		beq	.L452
 3324 0e01 71 54 01                		add	#1, r5, r4
 3325                             		.balign 8,3,1
 3326                             	.L244:
 443:C:\Users\a5116938\Desktop\e2_studio_workspace\EEMBC_final\RX65N_Cloud_Kit\src/tensorflow/lite/micro\micro_mutable_op_resolver.h ****     // Strictly speaking, the builtin_code is not necessary for TFLM but filling
 3327                             		.loc 3 443 5
 3328 0e04 6C 55                   		shll	#5, r5
 3329 0e06 66 C2                   		mov.L	#12, r2
 3330 0e08 4B 02                   		add	r0, r2
 3331 0e0a 4B 75                   		add	r7, r5
 3332 0e0c 75 43 20                		mov.L	#32, r3
 3333 0e0f 71 51 04                		add	#4, r5, r1
 3334 0e12 7F 8F                   		smovf
 449:C:\Users\a5116938\Desktop\e2_studio_workspace\EEMBC_final\RX65N_Cloud_Kit\src/tensorflow/lite/micro\micro_mutable_op_resolver.h ****     builtin_parsers_[num_buitin_ops_] = parser;
 3335                             		.loc 3 449 20
 3336 0e14 EE 7A 02 05             		mov.L	5128[r7], r10
 446:C:\Users\a5116938\Desktop\e2_studio_workspace\EEMBC_final\RX65N_Cloud_Kit\src/tensorflow/lite/micro\micro_mutable_op_resolver.h ****     registrations_len_++;
 3337                             		.loc 3 446 5
 3338 0e18 3E 56 48                		mov.L	#0x48, 24[r5]
 3339 0e1b FD C2 A5                		shll	#2, r10, r5
 3340 0e1e 4B 75                   		add	r7, r5
 3341                             		.loc 3 451 5
 3342 0e20 62 1A                   		add	#1, r10
 447:C:\Users\a5116938\Desktop\e2_studio_workspace\EEMBC_final\RX65N_Cloud_Kit\src/tensorflow/lite/micro\micro_mutable_op_resolver.h **** 
 3343                             		.loc 3 447 5
 3344 0e22 EB 74 01 04             		mov.L	r4, 4100[r7]
 449:C:\Users\a5116938\Desktop\e2_studio_workspace\EEMBC_final\RX65N_Cloud_Kit\src/tensorflow/lite/micro\micro_mutable_op_resolver.h ****     builtin_parsers_[num_buitin_ops_] = parser;
 3345                             		.loc 3 449 5
 3346 0e26 FA 56 02 04 48          		mov.L	#0x48, 4104[r5]
 450:C:\Users\a5116938\Desktop\e2_studio_workspace\EEMBC_final\RX65N_Cloud_Kit\src/tensorflow/lite/micro\micro_mutable_op_resolver.h ****     num_buitin_ops_++;
 3347                             		.loc 3 450 5
 3348 0e2b FA 52 82 04 00 00 00 00 		mov.L	#__ZN6tflite13ParseNotEqualEPKNS_8OperatorEPNS_13ErrorReporterEPNS_20BuiltinDataAllocatorEPP
 3349                             		.loc 3 451 5
 3350 0e33 EB 7A 02 05             		mov.L	r10, 5128[r7]
 3351 0e37 03                      		.balign 8,3,1
 3352                             	.L249:
 3353                             	.LVL294:
 3354                             	.LBE1366:
 3355                             	.LBE1365:
 3356                             	.LBE1364:
 3357                             	.LBE1363:
  61:../src/tensorflow/lite/micro/all_ops_resolver.cc ****   AddPack();
 3358                             		.loc 6 61 3 is_stmt 1
 3359                             	.LBB1384:
 3360                             	.LBB1385:
 287:C:\Users\a5116938\Desktop\e2_studio_workspace\EEMBC_final\RX65N_Cloud_Kit\src/tensorflow/lite/micro\micro_mutable_op_resolver.h ****                       ParsePack);
 3361                             		.loc 3 287 78 is_stmt 0
 3362 0e38 66 CF                   		mov.L	#12, r15
 3363 0e3a 4B 0F                   		add	r0, r15
 3364 0e3c 05 00 00 00             		bsr	__ZN6tflite3ops5micro13Register_PACKEv
 3365                             	.LVL295:
 3366                             	.LBB1386:
 3367                             	.LBB1387:
 3368                             	.LBB1388:
 3369                             	.LBB1389:
  43:C:\Users\a5116938\Desktop\e2_studio_workspace\EEMBC_final\RX65N_Cloud_Kit\src/tensorflow/lite/micro\micro_mutable_op_resolver.h ****       const TfLiteRegistration& registration = registrations_[i];
 3370                             		.loc 3 43 34
 3371 0e40 EE 75 01 04             		mov.L	4100[r7], r5
  43:C:\Users\a5116938\Desktop\e2_studio_workspace\EEMBC_final\RX65N_Cloud_Kit\src/tensorflow/lite/micro\micro_mutable_op_resolver.h ****       const TfLiteRegistration& registration = registrations_[i];
 3372                             		.loc 3 43 32
 3373 0e44 61 05                   		cmp	#0, r5
 3374 0e46 3A D7 16                		beq	.L547
 3375                             	.LVL296:
 3376                             	.LBB1390:
  45:C:\Users\a5116938\Desktop\e2_studio_workspace\EEMBC_final\RX65N_Cloud_Kit\src/tensorflow/lite/micro\micro_mutable_op_resolver.h ****         return &registration;
 3377                             		.loc 3 45 7
 3378 0e49 ED 7A 06                		mov.L	24[r7], r10
 3379 0e4c 75 5A 53                		cmp	#0x53, r10
 3380 0e4f 3A 1C 0E                		beq	.L251
 3381 0e52 71 73 38                		add	#56, r7, r3
 3382                             	.LBE1390:
  43:C:\Users\a5116938\Desktop\e2_studio_workspace\EEMBC_final\RX65N_Cloud_Kit\src/tensorflow/lite/micro\micro_mutable_op_resolver.h ****       const TfLiteRegistration& registration = registrations_[i];
 3383                             		.loc 3 43 23
 3384 0e55 66 04                   		mov.L	#0, r4
 3385 0e57 2E 0D                   		bra	.L252
 3386                             	.LVL297:
 3387                             	.L1113:
 3388                             	.LBB1391:
  45:C:\Users\a5116938\Desktop\e2_studio_workspace\EEMBC_final\RX65N_Cloud_Kit\src/tensorflow/lite/micro\micro_mutable_op_resolver.h ****         return &registration;
 3389                             		.loc 3 45 24
 3390 0e59 71 3A E0                		add	#-32, r3, r10
  45:C:\Users\a5116938\Desktop\e2_studio_workspace\EEMBC_final\RX65N_Cloud_Kit\src/tensorflow/lite/micro\micro_mutable_op_resolver.h ****         return &registration;
 3391                             		.loc 3 45 7
 3392 0e5c EC AA                   		mov.L	[r10], r10
 3393 0e5e 75 5A 53                		cmp	#0x53, r10
 3394 0e61 3A 0A 0E                		beq	.L251
 3395                             	.LVL298:
 3396                             		.balign 8,3,2
 3397                             	.L252:
 3398 0e64 71 33 20                		add	#32, r3
 3399                             	.LBE1391:
  43:C:\Users\a5116938\Desktop\e2_studio_workspace\EEMBC_final\RX65N_Cloud_Kit\src/tensorflow/lite/micro\micro_mutable_op_resolver.h ****       const TfLiteRegistration& registration = registrations_[i];
 3400                             		.loc 3 43 5
 3401 0e67 62 14                   		add	#1, r4
 3402                             	.LVL299:
  43:C:\Users\a5116938\Desktop\e2_studio_workspace\EEMBC_final\RX65N_Cloud_Kit\src/tensorflow/lite/micro\micro_mutable_op_resolver.h ****       const TfLiteRegistration& registration = registrations_[i];
 3403                             		.loc 3 43 32
 3404 0e69 47 54                   		cmp	r5, r4
 3405 0e6b 21 EE                   		bne	.L1113
 3406                             	.LVL300:
 3407                             	.LBE1389:
 3408                             	.LBE1388:
 433:C:\Users\a5116938\Desktop\e2_studio_workspace\EEMBC_final\RX65N_Cloud_Kit\src/tensorflow/lite/micro\micro_mutable_op_resolver.h ****       if (error_reporter_) {
 3409                             		.loc 3 433 5
 3410 0e6d 75 55 80                		cmp	#0x80, r5
 3411 0e70 3A 74 12                		beq	.L449
 3412 0e73 71 54 01                		add	#1, r5, r4
 3413                             		.balign 8,3,1
 3414                             	.L250:
 443:C:\Users\a5116938\Desktop\e2_studio_workspace\EEMBC_final\RX65N_Cloud_Kit\src/tensorflow/lite/micro\micro_mutable_op_resolver.h ****     // Strictly speaking, the builtin_code is not necessary for TFLM but filling
 3415                             		.loc 3 443 5
 3416 0e76 6C 55                   		shll	#5, r5
 3417 0e78 66 C2                   		mov.L	#12, r2
 3418 0e7a 4B 02                   		add	r0, r2
 3419 0e7c 4B 75                   		add	r7, r5
 3420 0e7e 75 43 20                		mov.L	#32, r3
 3421 0e81 71 51 04                		add	#4, r5, r1
 3422 0e84 7F 8F                   		smovf
 449:C:\Users\a5116938\Desktop\e2_studio_workspace\EEMBC_final\RX65N_Cloud_Kit\src/tensorflow/lite/micro\micro_mutable_op_resolver.h ****     builtin_parsers_[num_buitin_ops_] = parser;
 3423                             		.loc 3 449 20
 3424 0e86 EE 7A 02 05             		mov.L	5128[r7], r10
 446:C:\Users\a5116938\Desktop\e2_studio_workspace\EEMBC_final\RX65N_Cloud_Kit\src/tensorflow/lite/micro\micro_mutable_op_resolver.h ****     registrations_len_++;
 3425                             		.loc 3 446 5
 3426 0e8a 3E 56 53                		mov.L	#0x53, 24[r5]
 3427 0e8d FD C2 A5                		shll	#2, r10, r5
 3428 0e90 4B 75                   		add	r7, r5
 3429                             		.loc 3 451 5
 3430 0e92 62 1A                   		add	#1, r10
 447:C:\Users\a5116938\Desktop\e2_studio_workspace\EEMBC_final\RX65N_Cloud_Kit\src/tensorflow/lite/micro\micro_mutable_op_resolver.h **** 
 3431                             		.loc 3 447 5
 3432 0e94 EB 74 01 04             		mov.L	r4, 4100[r7]
 449:C:\Users\a5116938\Desktop\e2_studio_workspace\EEMBC_final\RX65N_Cloud_Kit\src/tensorflow/lite/micro\micro_mutable_op_resolver.h ****     builtin_parsers_[num_buitin_ops_] = parser;
 3433                             		.loc 3 449 5
 3434 0e98 FA 56 02 04 53          		mov.L	#0x53, 4104[r5]
 450:C:\Users\a5116938\Desktop\e2_studio_workspace\EEMBC_final\RX65N_Cloud_Kit\src/tensorflow/lite/micro\micro_mutable_op_resolver.h ****     num_buitin_ops_++;
 3435                             		.loc 3 450 5
 3436 0e9d FA 52 82 04 00 00 00 00 		mov.L	#__ZN6tflite9ParsePackEPKNS_8OperatorEPNS_13ErrorReporterEPNS_20BuiltinDataAllocatorEPPv, 46
 3437                             		.loc 3 451 5
 3438 0ea5 EB 7A 02 05             		mov.L	r10, 5128[r7]
 3439                             		.balign 8,3,1
 3440                             	.L255:
 3441                             	.LVL301:
 3442                             	.LBE1387:
 3443                             	.LBE1386:
 3444                             	.LBE1385:
 3445                             	.LBE1384:
  62:../src/tensorflow/lite/micro/all_ops_resolver.cc ****   AddPad();
 3446                             		.loc 6 62 3 is_stmt 1
 3447                             	.LBB1405:
 3448                             	.LBB1406:
 292:C:\Users\a5116938\Desktop\e2_studio_workspace\EEMBC_final\RX65N_Cloud_Kit\src/tensorflow/lite/micro\micro_mutable_op_resolver.h ****                       ParsePad);
 3449                             		.loc 3 292 76 is_stmt 0
 3450 0ea9 66 CF                   		mov.L	#12, r15
 3451 0eab 4B 0F                   		add	r0, r15
 3452 0ead 05 00 00 00             		bsr	__ZN6tflite3ops5micro12Register_PADEv
 3453                             	.LVL302:
 3454                             	.LBB1407:
 3455                             	.LBB1408:
 3456                             	.LBB1409:
 3457                             	.LBB1410:
  43:C:\Users\a5116938\Desktop\e2_studio_workspace\EEMBC_final\RX65N_Cloud_Kit\src/tensorflow/lite/micro\micro_mutable_op_resolver.h ****       const TfLiteRegistration& registration = registrations_[i];
 3458                             		.loc 3 43 34
 3459 0eb1 EE 75 01 04             		mov.L	4100[r7], r5
  43:C:\Users\a5116938\Desktop\e2_studio_workspace\EEMBC_final\RX65N_Cloud_Kit\src/tensorflow/lite/micro\micro_mutable_op_resolver.h ****       const TfLiteRegistration& registration = registrations_[i];
 3460                             		.loc 3 43 32
 3461 0eb5 61 05                   		cmp	#0, r5
 3462 0eb7 3A 9D 16                		beq	.L548
 3463                             	.LVL303:
 3464                             	.LBB1411:
  45:C:\Users\a5116938\Desktop\e2_studio_workspace\EEMBC_final\RX65N_Cloud_Kit\src/tensorflow/lite/micro\micro_mutable_op_resolver.h ****         return &registration;
 3465                             		.loc 3 45 7
 3466 0eba ED 7A 06                		mov.L	24[r7], r10
 3467 0ebd 75 5A 22                		cmp	#34, r10
 3468 0ec0 3A C4 0D                		beq	.L257
 3469 0ec3 71 73 38                		add	#56, r7, r3
 3470                             	.LBE1411:
  43:C:\Users\a5116938\Desktop\e2_studio_workspace\EEMBC_final\RX65N_Cloud_Kit\src/tensorflow/lite/micro\micro_mutable_op_resolver.h ****       const TfLiteRegistration& registration = registrations_[i];
 3471                             		.loc 3 43 23
 3472 0ec6 66 04                   		mov.L	#0, r4
 3473 0ec8 2E 0D                   		bra	.L258
 3474                             	.LVL304:
 3475                             	.L1114:
 3476                             	.LBB1412:
  45:C:\Users\a5116938\Desktop\e2_studio_workspace\EEMBC_final\RX65N_Cloud_Kit\src/tensorflow/lite/micro\micro_mutable_op_resolver.h ****         return &registration;
 3477                             		.loc 3 45 24
 3478 0eca 71 3A E0                		add	#-32, r3, r10
  45:C:\Users\a5116938\Desktop\e2_studio_workspace\EEMBC_final\RX65N_Cloud_Kit\src/tensorflow/lite/micro\micro_mutable_op_resolver.h ****         return &registration;
 3479                             		.loc 3 45 7
 3480 0ecd EC AA                   		mov.L	[r10], r10
 3481 0ecf 75 5A 22                		cmp	#34, r10
 3482 0ed2 3A B2 0D                		beq	.L257
 3483                             	.LVL305:
 3484                             		.balign 8,3,2
 3485                             	.L258:
 3486 0ed5 71 33 20                		add	#32, r3
 3487                             	.LBE1412:
  43:C:\Users\a5116938\Desktop\e2_studio_workspace\EEMBC_final\RX65N_Cloud_Kit\src/tensorflow/lite/micro\micro_mutable_op_resolver.h ****       const TfLiteRegistration& registration = registrations_[i];
 3488                             		.loc 3 43 5
 3489 0ed8 62 14                   		add	#1, r4
 3490                             	.LVL306:
  43:C:\Users\a5116938\Desktop\e2_studio_workspace\EEMBC_final\RX65N_Cloud_Kit\src/tensorflow/lite/micro\micro_mutable_op_resolver.h ****       const TfLiteRegistration& registration = registrations_[i];
 3491                             		.loc 3 43 32
 3492 0eda 47 54                   		cmp	r5, r4
 3493 0edc 21 EE                   		bne	.L1114
 3494                             	.LVL307:
 3495                             	.LBE1410:
 3496                             	.LBE1409:
 433:C:\Users\a5116938\Desktop\e2_studio_workspace\EEMBC_final\RX65N_Cloud_Kit\src/tensorflow/lite/micro\micro_mutable_op_resolver.h ****       if (error_reporter_) {
 3497                             		.loc 3 433 5
 3498 0ede 75 55 80                		cmp	#0x80, r5
 3499 0ee1 3A 1E 12                		beq	.L448
 3500 0ee4 71 54 01                		add	#1, r5, r4
 3501 0ee7 03                      		.balign 8,3,1
 3502                             	.L256:
 443:C:\Users\a5116938\Desktop\e2_studio_workspace\EEMBC_final\RX65N_Cloud_Kit\src/tensorflow/lite/micro\micro_mutable_op_resolver.h ****     // Strictly speaking, the builtin_code is not necessary for TFLM but filling
 3503                             		.loc 3 443 5
 3504 0ee8 6C 55                   		shll	#5, r5
 3505 0eea 66 C2                   		mov.L	#12, r2
 3506 0eec 4B 02                   		add	r0, r2
 3507 0eee 4B 75                   		add	r7, r5
 3508 0ef0 75 43 20                		mov.L	#32, r3
 3509 0ef3 71 51 04                		add	#4, r5, r1
 3510 0ef6 7F 8F                   		smovf
 449:C:\Users\a5116938\Desktop\e2_studio_workspace\EEMBC_final\RX65N_Cloud_Kit\src/tensorflow/lite/micro\micro_mutable_op_resolver.h ****     builtin_parsers_[num_buitin_ops_] = parser;
 3511                             		.loc 3 449 20
 3512 0ef8 EE 7A 02 05             		mov.L	5128[r7], r10
 446:C:\Users\a5116938\Desktop\e2_studio_workspace\EEMBC_final\RX65N_Cloud_Kit\src/tensorflow/lite/micro\micro_mutable_op_resolver.h ****     registrations_len_++;
 3513                             		.loc 3 446 5
 3514 0efc 3E 56 22                		mov.L	#34, 24[r5]
 3515 0eff FD C2 A5                		shll	#2, r10, r5
 3516 0f02 4B 75                   		add	r7, r5
 3517                             		.loc 3 451 5
 3518 0f04 62 1A                   		add	#1, r10
 447:C:\Users\a5116938\Desktop\e2_studio_workspace\EEMBC_final\RX65N_Cloud_Kit\src/tensorflow/lite/micro\micro_mutable_op_resolver.h **** 
 3519                             		.loc 3 447 5
 3520 0f06 EB 74 01 04             		mov.L	r4, 4100[r7]
 449:C:\Users\a5116938\Desktop\e2_studio_workspace\EEMBC_final\RX65N_Cloud_Kit\src/tensorflow/lite/micro\micro_mutable_op_resolver.h ****     builtin_parsers_[num_buitin_ops_] = parser;
 3521                             		.loc 3 449 5
 3522 0f0a FA 56 02 04 22          		mov.L	#34, 4104[r5]
 450:C:\Users\a5116938\Desktop\e2_studio_workspace\EEMBC_final\RX65N_Cloud_Kit\src/tensorflow/lite/micro\micro_mutable_op_resolver.h ****     num_buitin_ops_++;
 3523                             		.loc 3 450 5
 3524 0f0f FA 52 82 04 00 00 00 00 		mov.L	#__ZN6tflite8ParsePadEPKNS_8OperatorEPNS_13ErrorReporterEPNS_20BuiltinDataAllocatorEPPv, 461
 3525                             		.loc 3 451 5
 3526 0f17 EB 7A 02 05             		mov.L	r10, 5128[r7]
 3527                             		.balign 8,3,1
 3528                             	.L261:
 3529                             	.LVL308:
 3530                             	.LBE1408:
 3531                             	.LBE1407:
 3532                             	.LBE1406:
 3533                             	.LBE1405:
  63:../src/tensorflow/lite/micro/all_ops_resolver.cc ****   AddPadV2();
 3534                             		.loc 6 63 3 is_stmt 1
 3535                             	.LBB1426:
 3536                             	.LBB1427:
 298:C:\Users\a5116938\Desktop\e2_studio_workspace\EEMBC_final\RX65N_Cloud_Kit\src/tensorflow/lite/micro\micro_mutable_op_resolver.h ****   }
 3537                             		.loc 3 298 57 is_stmt 0
 3538 0f1b 66 CF                   		mov.L	#12, r15
 3539 0f1d 4B 0F                   		add	r0, r15
 3540 0f1f 05 00 00 00             		bsr	__ZN6tflite3ops5micro14Register_PADV2Ev
 3541                             	.LVL309:
 3542                             	.LBB1428:
 3543                             	.LBB1429:
 3544                             	.LBB1430:
 3545                             	.LBB1431:
  43:C:\Users\a5116938\Desktop\e2_studio_workspace\EEMBC_final\RX65N_Cloud_Kit\src/tensorflow/lite/micro\micro_mutable_op_resolver.h ****       const TfLiteRegistration& registration = registrations_[i];
 3546                             		.loc 3 43 34
 3547 0f23 EE 75 01 04             		mov.L	4100[r7], r5
  43:C:\Users\a5116938\Desktop\e2_studio_workspace\EEMBC_final\RX65N_Cloud_Kit\src/tensorflow/lite/micro\micro_mutable_op_resolver.h ****       const TfLiteRegistration& registration = registrations_[i];
 3548                             		.loc 3 43 32
 3549 0f27 61 05                   		cmp	#0, r5
 3550 0f29 3A 44 16                		beq	.L549
 3551                             	.LVL310:
 3552                             	.LBB1432:
  45:C:\Users\a5116938\Desktop\e2_studio_workspace\EEMBC_final\RX65N_Cloud_Kit\src/tensorflow/lite/micro\micro_mutable_op_resolver.h ****         return &registration;
 3553                             		.loc 3 45 7
 3554 0f2c ED 7A 06                		mov.L	24[r7], r10
 3555 0f2f 75 5A 3C                		cmp	#60, r10
 3556 0f32 3A 6B 0D                		beq	.L263
 3557 0f35 71 73 38                		add	#56, r7, r3
 3558                             	.LBE1432:
  43:C:\Users\a5116938\Desktop\e2_studio_workspace\EEMBC_final\RX65N_Cloud_Kit\src/tensorflow/lite/micro\micro_mutable_op_resolver.h ****       const TfLiteRegistration& registration = registrations_[i];
 3559                             		.loc 3 43 23
 3560 0f38 66 04                   		mov.L	#0, r4
 3561 0f3a 2E 0E                   		bra	.L264
 3562                             	.LVL311:
 3563                             	.L1115:
 3564                             	.LBB1433:
  45:C:\Users\a5116938\Desktop\e2_studio_workspace\EEMBC_final\RX65N_Cloud_Kit\src/tensorflow/lite/micro\micro_mutable_op_resolver.h ****         return &registration;
 3565                             		.loc 3 45 24
 3566 0f3c 71 3A E0                		add	#-32, r3, r10
  45:C:\Users\a5116938\Desktop\e2_studio_workspace\EEMBC_final\RX65N_Cloud_Kit\src/tensorflow/lite/micro\micro_mutable_op_resolver.h ****         return &registration;
 3567                             		.loc 3 45 7
 3568 0f3f EC AA                   		mov.L	[r10], r10
 3569 0f41 75 5A 3C                		cmp	#60, r10
 3570 0f44 3A 59 0D                		beq	.L263
 3571                             	.LVL312:
 3572 0f47 03                      		.balign 8,3,2
 3573                             	.L264:
 3574 0f48 71 33 20                		add	#32, r3
 3575                             	.LBE1433:
  43:C:\Users\a5116938\Desktop\e2_studio_workspace\EEMBC_final\RX65N_Cloud_Kit\src/tensorflow/lite/micro\micro_mutable_op_resolver.h ****       const TfLiteRegistration& registration = registrations_[i];
 3576                             		.loc 3 43 5
 3577 0f4b 62 14                   		add	#1, r4
 3578                             	.LVL313:
  43:C:\Users\a5116938\Desktop\e2_studio_workspace\EEMBC_final\RX65N_Cloud_Kit\src/tensorflow/lite/micro\micro_mutable_op_resolver.h ****       const TfLiteRegistration& registration = registrations_[i];
 3579                             		.loc 3 43 32
 3580 0f4d 47 54                   		cmp	r5, r4
 3581 0f4f 21 ED                   		bne	.L1115
 3582                             	.LVL314:
 3583                             	.LBE1431:
 3584                             	.LBE1430:
 433:C:\Users\a5116938\Desktop\e2_studio_workspace\EEMBC_final\RX65N_Cloud_Kit\src/tensorflow/lite/micro\micro_mutable_op_resolver.h ****       if (error_reporter_) {
 3585                             		.loc 3 433 5
 3586 0f51 75 55 80                		cmp	#0x80, r5
 3587 0f54 3A C6 11                		beq	.L446
 3588 0f57 71 54 01                		add	#1, r5, r4
 3589                             		.balign 8,3,1
 3590                             	.L262:
 443:C:\Users\a5116938\Desktop\e2_studio_workspace\EEMBC_final\RX65N_Cloud_Kit\src/tensorflow/lite/micro\micro_mutable_op_resolver.h ****     // Strictly speaking, the builtin_code is not necessary for TFLM but filling
 3591                             		.loc 3 443 5
 3592 0f5a 6C 55                   		shll	#5, r5
 3593 0f5c 66 C2                   		mov.L	#12, r2
 3594 0f5e 4B 02                   		add	r0, r2
 3595 0f60 4B 75                   		add	r7, r5
 3596 0f62 75 43 20                		mov.L	#32, r3
 3597 0f65 71 51 04                		add	#4, r5, r1
 3598 0f68 7F 8F                   		smovf
 449:C:\Users\a5116938\Desktop\e2_studio_workspace\EEMBC_final\RX65N_Cloud_Kit\src/tensorflow/lite/micro\micro_mutable_op_resolver.h ****     builtin_parsers_[num_buitin_ops_] = parser;
 3599                             		.loc 3 449 20
 3600 0f6a EE 7A 02 05             		mov.L	5128[r7], r10
 446:C:\Users\a5116938\Desktop\e2_studio_workspace\EEMBC_final\RX65N_Cloud_Kit\src/tensorflow/lite/micro\micro_mutable_op_resolver.h ****     registrations_len_++;
 3601                             		.loc 3 446 5
 3602 0f6e 3E 56 3C                		mov.L	#60, 24[r5]
 3603 0f71 FD C2 A5                		shll	#2, r10, r5
 3604 0f74 4B 75                   		add	r7, r5
 3605                             		.loc 3 451 5
 3606 0f76 62 1A                   		add	#1, r10
 447:C:\Users\a5116938\Desktop\e2_studio_workspace\EEMBC_final\RX65N_Cloud_Kit\src/tensorflow/lite/micro\micro_mutable_op_resolver.h **** 
 3607                             		.loc 3 447 5
 3608 0f78 EB 74 01 04             		mov.L	r4, 4100[r7]
 449:C:\Users\a5116938\Desktop\e2_studio_workspace\EEMBC_final\RX65N_Cloud_Kit\src/tensorflow/lite/micro\micro_mutable_op_resolver.h ****     builtin_parsers_[num_buitin_ops_] = parser;
 3609                             		.loc 3 449 5
 3610 0f7c FA 56 02 04 3C          		mov.L	#60, 4104[r5]
 450:C:\Users\a5116938\Desktop\e2_studio_workspace\EEMBC_final\RX65N_Cloud_Kit\src/tensorflow/lite/micro\micro_mutable_op_resolver.h ****     num_buitin_ops_++;
 3611                             		.loc 3 450 5
 3612 0f81 FA 52 82 04 00 00 00 00 		mov.L	#__ZN6tflite10ParsePadV2EPKNS_8OperatorEPNS_13ErrorReporterEPNS_20BuiltinDataAllocatorEPPv, 
 3613                             		.loc 3 451 5
 3614 0f89 EB 7A 02 05             		mov.L	r10, 5128[r7]
 3615                             		.balign 8,3,1
 3616                             	.L267:
 3617                             	.LVL315:
 3618                             	.LBE1429:
 3619                             	.LBE1428:
 3620                             	.LBE1427:
 3621                             	.LBE1426:
  64:../src/tensorflow/lite/micro/all_ops_resolver.cc ****   AddPrelu();
 3622                             		.loc 6 64 3 is_stmt 1
 3623                             	.LBB1447:
 3624                             	.LBB1448:
 303:C:\Users\a5116938\Desktop\e2_studio_workspace\EEMBC_final\RX65N_Cloud_Kit\src/tensorflow/lite/micro\micro_mutable_op_resolver.h ****   }
 3625                             		.loc 3 303 57 is_stmt 0
 3626 0f8d 66 CF                   		mov.L	#12, r15
 3627 0f8f 4B 0F                   		add	r0, r15
 3628 0f91 05 00 00 00             		bsr	__ZN6tflite3ops5micro14Register_PRELUEv
 3629                             	.LVL316:
 3630                             	.LBB1449:
 3631                             	.LBB1450:
 3632                             	.LBB1451:
 3633                             	.LBB1452:
  43:C:\Users\a5116938\Desktop\e2_studio_workspace\EEMBC_final\RX65N_Cloud_Kit\src/tensorflow/lite/micro\micro_mutable_op_resolver.h ****       const TfLiteRegistration& registration = registrations_[i];
 3634                             		.loc 3 43 34
 3635 0f95 EE 75 01 04             		mov.L	4100[r7], r5
  43:C:\Users\a5116938\Desktop\e2_studio_workspace\EEMBC_final\RX65N_Cloud_Kit\src/tensorflow/lite/micro\micro_mutable_op_resolver.h ****       const TfLiteRegistration& registration = registrations_[i];
 3636                             		.loc 3 43 32
 3637 0f99 61 05                   		cmp	#0, r5
 3638 0f9b 3A AF 15                		beq	.L550
 3639                             	.LVL317:
 3640                             	.LBB1453:
  45:C:\Users\a5116938\Desktop\e2_studio_workspace\EEMBC_final\RX65N_Cloud_Kit\src/tensorflow/lite/micro\micro_mutable_op_resolver.h ****         return &registration;
 3641                             		.loc 3 45 7
 3642 0f9e ED 7A 06                		mov.L	24[r7], r10
 3643 0fa1 75 5A 36                		cmp	#54, r10
 3644 0fa4 3A 12 0D                		beq	.L269
 3645 0fa7 71 73 38                		add	#56, r7, r3
 3646                             	.LBE1453:
  43:C:\Users\a5116938\Desktop\e2_studio_workspace\EEMBC_final\RX65N_Cloud_Kit\src/tensorflow/lite/micro\micro_mutable_op_resolver.h ****       const TfLiteRegistration& registration = registrations_[i];
 3647                             		.loc 3 43 23
 3648 0faa 66 04                   		mov.L	#0, r4
 3649 0fac 2E 0D                   		bra	.L270
 3650                             	.LVL318:
 3651                             	.L1116:
 3652                             	.LBB1454:
  45:C:\Users\a5116938\Desktop\e2_studio_workspace\EEMBC_final\RX65N_Cloud_Kit\src/tensorflow/lite/micro\micro_mutable_op_resolver.h ****         return &registration;
 3653                             		.loc 3 45 24
 3654 0fae 71 3A E0                		add	#-32, r3, r10
  45:C:\Users\a5116938\Desktop\e2_studio_workspace\EEMBC_final\RX65N_Cloud_Kit\src/tensorflow/lite/micro\micro_mutable_op_resolver.h ****         return &registration;
 3655                             		.loc 3 45 7
 3656 0fb1 EC AA                   		mov.L	[r10], r10
 3657 0fb3 75 5A 36                		cmp	#54, r10
 3658 0fb6 3A 00 0D                		beq	.L269
 3659                             	.LVL319:
 3660                             		.balign 8,3,2
 3661                             	.L270:
 3662 0fb9 71 33 20                		add	#32, r3
 3663                             	.LBE1454:
  43:C:\Users\a5116938\Desktop\e2_studio_workspace\EEMBC_final\RX65N_Cloud_Kit\src/tensorflow/lite/micro\micro_mutable_op_resolver.h ****       const TfLiteRegistration& registration = registrations_[i];
 3664                             		.loc 3 43 5
 3665 0fbc 62 14                   		add	#1, r4
 3666                             	.LVL320:
  43:C:\Users\a5116938\Desktop\e2_studio_workspace\EEMBC_final\RX65N_Cloud_Kit\src/tensorflow/lite/micro\micro_mutable_op_resolver.h ****       const TfLiteRegistration& registration = registrations_[i];
 3667                             		.loc 3 43 32
 3668 0fbe 47 54                   		cmp	r5, r4
 3669 0fc0 21 EE                   		bne	.L1116
 3670                             	.LVL321:
 3671                             	.LBE1452:
 3672                             	.LBE1451:
 433:C:\Users\a5116938\Desktop\e2_studio_workspace\EEMBC_final\RX65N_Cloud_Kit\src/tensorflow/lite/micro\micro_mutable_op_resolver.h ****       if (error_reporter_) {
 3673                             		.loc 3 433 5
 3674 0fc2 75 55 80                		cmp	#0x80, r5
 3675 0fc5 3A 70 11                		beq	.L444
 3676 0fc8 71 54 01                		add	#1, r5, r4
 3677                             		.balign 8,3,1
 3678                             	.L268:
 443:C:\Users\a5116938\Desktop\e2_studio_workspace\EEMBC_final\RX65N_Cloud_Kit\src/tensorflow/lite/micro\micro_mutable_op_resolver.h ****     // Strictly speaking, the builtin_code is not necessary for TFLM but filling
 3679                             		.loc 3 443 5
 3680 0fcb 6C 55                   		shll	#5, r5
 3681 0fcd 66 C2                   		mov.L	#12, r2
 3682 0fcf 4B 02                   		add	r0, r2
 3683 0fd1 4B 75                   		add	r7, r5
 3684 0fd3 75 43 20                		mov.L	#32, r3
 3685 0fd6 71 51 04                		add	#4, r5, r1
 3686 0fd9 7F 8F                   		smovf
 449:C:\Users\a5116938\Desktop\e2_studio_workspace\EEMBC_final\RX65N_Cloud_Kit\src/tensorflow/lite/micro\micro_mutable_op_resolver.h ****     builtin_parsers_[num_buitin_ops_] = parser;
 3687                             		.loc 3 449 20
 3688 0fdb EE 7A 02 05             		mov.L	5128[r7], r10
 446:C:\Users\a5116938\Desktop\e2_studio_workspace\EEMBC_final\RX65N_Cloud_Kit\src/tensorflow/lite/micro\micro_mutable_op_resolver.h ****     registrations_len_++;
 3689                             		.loc 3 446 5
 3690 0fdf 3E 56 36                		mov.L	#54, 24[r5]
 3691 0fe2 FD C2 A5                		shll	#2, r10, r5
 3692 0fe5 4B 75                   		add	r7, r5
 3693                             		.loc 3 451 5
 3694 0fe7 62 1A                   		add	#1, r10
 447:C:\Users\a5116938\Desktop\e2_studio_workspace\EEMBC_final\RX65N_Cloud_Kit\src/tensorflow/lite/micro\micro_mutable_op_resolver.h **** 
 3695                             		.loc 3 447 5
 3696 0fe9 EB 74 01 04             		mov.L	r4, 4100[r7]
 449:C:\Users\a5116938\Desktop\e2_studio_workspace\EEMBC_final\RX65N_Cloud_Kit\src/tensorflow/lite/micro\micro_mutable_op_resolver.h ****     builtin_parsers_[num_buitin_ops_] = parser;
 3697                             		.loc 3 449 5
 3698 0fed FA 56 02 04 36          		mov.L	#54, 4104[r5]
 450:C:\Users\a5116938\Desktop\e2_studio_workspace\EEMBC_final\RX65N_Cloud_Kit\src/tensorflow/lite/micro\micro_mutable_op_resolver.h ****     num_buitin_ops_++;
 3699                             		.loc 3 450 5
 3700 0ff2 FA 52 82 04 00 00 00 00 		mov.L	#__ZN6tflite10ParsePreluEPKNS_8OperatorEPNS_13ErrorReporterEPNS_20BuiltinDataAllocatorEPPv, 
 3701                             		.loc 3 451 5
 3702 0ffa EB 7A 02 05             		mov.L	r10, 5128[r7]
 3703                             		.balign 8,3,1
 3704                             	.L273:
 3705                             	.LVL322:
 3706                             	.LBE1450:
 3707                             	.LBE1449:
 3708                             	.LBE1448:
 3709                             	.LBE1447:
  65:../src/tensorflow/lite/micro/all_ops_resolver.cc ****   AddQuantize();
 3710                             		.loc 6 65 3 is_stmt 1
 3711                             	.LBB1468:
 3712                             	.LBB1469:
 307:C:\Users\a5116938\Desktop\e2_studio_workspace\EEMBC_final\RX65N_Cloud_Kit\src/tensorflow/lite/micro\micro_mutable_op_resolver.h ****                       ParseQuantize);
 3713                             		.loc 3 307 66 is_stmt 0
 3714 0ffe 66 CF                   		mov.L	#12, r15
 3715 1000 4B 0F                   		add	r0, r15
 3716 1002 05 00 00 00             		bsr	__ZN6tflite17Register_QUANTIZEEv
 3717                             	.LVL323:
 3718                             	.LBB1470:
 3719                             	.LBB1471:
 3720                             	.LBB1472:
 3721                             	.LBB1473:
  43:C:\Users\a5116938\Desktop\e2_studio_workspace\EEMBC_final\RX65N_Cloud_Kit\src/tensorflow/lite/micro\micro_mutable_op_resolver.h ****       const TfLiteRegistration& registration = registrations_[i];
 3722                             		.loc 3 43 34
 3723 1006 EE 75 01 04             		mov.L	4100[r7], r5
  43:C:\Users\a5116938\Desktop\e2_studio_workspace\EEMBC_final\RX65N_Cloud_Kit\src/tensorflow/lite/micro\micro_mutable_op_resolver.h ****       const TfLiteRegistration& registration = registrations_[i];
 3724                             		.loc 3 43 32
 3725 100a 61 05                   		cmp	#0, r5
 3726 100c 3A 43 15                		beq	.L551
 3727                             	.LVL324:
 3728                             	.LBB1474:
  45:C:\Users\a5116938\Desktop\e2_studio_workspace\EEMBC_final\RX65N_Cloud_Kit\src/tensorflow/lite/micro\micro_mutable_op_resolver.h ****         return &registration;
 3729                             		.loc 3 45 7
 3730 100f ED 7A 06                		mov.L	24[r7], r10
 3731 1012 75 5A 72                		cmp	#0x72, r10
 3732 1015 3A BA 0C                		beq	.L275
 3733 1018 71 73 38                		add	#56, r7, r3
 3734                             	.LBE1474:
  43:C:\Users\a5116938\Desktop\e2_studio_workspace\EEMBC_final\RX65N_Cloud_Kit\src/tensorflow/lite/micro\micro_mutable_op_resolver.h ****       const TfLiteRegistration& registration = registrations_[i];
 3735                             		.loc 3 43 23
 3736 101b 66 04                   		mov.L	#0, r4
 3737 101d 2E 0D                   		bra	.L276
 3738                             	.LVL325:
 3739                             	.L1117:
 3740                             	.LBB1475:
  45:C:\Users\a5116938\Desktop\e2_studio_workspace\EEMBC_final\RX65N_Cloud_Kit\src/tensorflow/lite/micro\micro_mutable_op_resolver.h ****         return &registration;
 3741                             		.loc 3 45 24
 3742 101f 71 3A E0                		add	#-32, r3, r10
  45:C:\Users\a5116938\Desktop\e2_studio_workspace\EEMBC_final\RX65N_Cloud_Kit\src/tensorflow/lite/micro\micro_mutable_op_resolver.h ****         return &registration;
 3743                             		.loc 3 45 7
 3744 1022 EC AA                   		mov.L	[r10], r10
 3745 1024 75 5A 72                		cmp	#0x72, r10
 3746 1027 3A A8 0C                		beq	.L275
 3747                             	.LVL326:
 3748                             		.balign 8,3,2
 3749                             	.L276:
 3750 102a 71 33 20                		add	#32, r3
 3751                             	.LBE1475:
  43:C:\Users\a5116938\Desktop\e2_studio_workspace\EEMBC_final\RX65N_Cloud_Kit\src/tensorflow/lite/micro\micro_mutable_op_resolver.h ****       const TfLiteRegistration& registration = registrations_[i];
 3752                             		.loc 3 43 5
 3753 102d 62 14                   		add	#1, r4
 3754                             	.LVL327:
  43:C:\Users\a5116938\Desktop\e2_studio_workspace\EEMBC_final\RX65N_Cloud_Kit\src/tensorflow/lite/micro\micro_mutable_op_resolver.h ****       const TfLiteRegistration& registration = registrations_[i];
 3755                             		.loc 3 43 32
 3756 102f 47 54                   		cmp	r5, r4
 3757 1031 21 EE                   		bne	.L1117
 3758                             	.LVL328:
 3759                             	.LBE1473:
 3760                             	.LBE1472:
 433:C:\Users\a5116938\Desktop\e2_studio_workspace\EEMBC_final\RX65N_Cloud_Kit\src/tensorflow/lite/micro\micro_mutable_op_resolver.h ****       if (error_reporter_) {
 3761                             		.loc 3 433 5
 3762 1033 75 55 80                		cmp	#0x80, r5
 3763 1036 3A 1A 11                		beq	.L441
 3764 1039 71 54 01                		add	#1, r5, r4
 3765                             		.balign 8,3,1
 3766                             	.L274:
 443:C:\Users\a5116938\Desktop\e2_studio_workspace\EEMBC_final\RX65N_Cloud_Kit\src/tensorflow/lite/micro\micro_mutable_op_resolver.h ****     // Strictly speaking, the builtin_code is not necessary for TFLM but filling
 3767                             		.loc 3 443 5
 3768 103c 6C 55                   		shll	#5, r5
 3769 103e 66 C2                   		mov.L	#12, r2
 3770 1040 4B 02                   		add	r0, r2
 3771 1042 4B 75                   		add	r7, r5
 3772 1044 75 43 20                		mov.L	#32, r3
 3773 1047 71 51 04                		add	#4, r5, r1
 3774 104a 7F 8F                   		smovf
 449:C:\Users\a5116938\Desktop\e2_studio_workspace\EEMBC_final\RX65N_Cloud_Kit\src/tensorflow/lite/micro\micro_mutable_op_resolver.h ****     builtin_parsers_[num_buitin_ops_] = parser;
 3775                             		.loc 3 449 20
 3776 104c EE 7A 02 05             		mov.L	5128[r7], r10
 446:C:\Users\a5116938\Desktop\e2_studio_workspace\EEMBC_final\RX65N_Cloud_Kit\src/tensorflow/lite/micro\micro_mutable_op_resolver.h ****     registrations_len_++;
 3777                             		.loc 3 446 5
 3778 1050 3E 56 72                		mov.L	#0x72, 24[r5]
 3779 1053 FD C2 A5                		shll	#2, r10, r5
 3780 1056 4B 75                   		add	r7, r5
 3781                             		.loc 3 451 5
 3782 1058 62 1A                   		add	#1, r10
 447:C:\Users\a5116938\Desktop\e2_studio_workspace\EEMBC_final\RX65N_Cloud_Kit\src/tensorflow/lite/micro\micro_mutable_op_resolver.h **** 
 3783                             		.loc 3 447 5
 3784 105a EB 74 01 04             		mov.L	r4, 4100[r7]
 449:C:\Users\a5116938\Desktop\e2_studio_workspace\EEMBC_final\RX65N_Cloud_Kit\src/tensorflow/lite/micro\micro_mutable_op_resolver.h ****     builtin_parsers_[num_buitin_ops_] = parser;
 3785                             		.loc 3 449 5
 3786 105e FA 56 02 04 72          		mov.L	#0x72, 4104[r5]
 450:C:\Users\a5116938\Desktop\e2_studio_workspace\EEMBC_final\RX65N_Cloud_Kit\src/tensorflow/lite/micro\micro_mutable_op_resolver.h ****     num_buitin_ops_++;
 3787                             		.loc 3 450 5
 3788 1063 FA 52 82 04 00 00 00 00 		mov.L	#__ZN6tflite13ParseQuantizeEPKNS_8OperatorEPNS_13ErrorReporterEPNS_20BuiltinDataAllocatorEPP
 3789                             		.loc 3 451 5
 3790 106b EB 7A 02 05             		mov.L	r10, 5128[r7]
 3791 106f 03                      		.balign 8,3,1
 3792                             	.L279:
 3793                             	.LVL329:
 3794                             	.LBE1471:
 3795                             	.LBE1470:
 3796                             	.LBE1469:
 3797                             	.LBE1468:
  66:../src/tensorflow/lite/micro/all_ops_resolver.cc ****   AddReduceMax();
 3798                             		.loc 6 66 3 is_stmt 1
 3799                             	.LBB1489:
 3800                             	.LBB1490:
 313:C:\Users\a5116938\Desktop\e2_studio_workspace\EEMBC_final\RX65N_Cloud_Kit\src/tensorflow/lite/micro\micro_mutable_op_resolver.h ****   }
 3801                             		.loc 3 313 62 is_stmt 0
 3802 1070 66 CF                   		mov.L	#12, r15
 3803 1072 4B 0F                   		add	r0, r15
 3804 1074 05 00 00 00             		bsr	__ZN6tflite3ops5micro19Register_REDUCE_MAXEv
 3805                             	.LVL330:
 3806                             	.LBB1491:
 3807                             	.LBB1492:
 3808                             	.LBB1493:
 3809                             	.LBB1494:
  43:C:\Users\a5116938\Desktop\e2_studio_workspace\EEMBC_final\RX65N_Cloud_Kit\src/tensorflow/lite/micro\micro_mutable_op_resolver.h ****       const TfLiteRegistration& registration = registrations_[i];
 3810                             		.loc 3 43 34
 3811 1078 EE 75 01 04             		mov.L	4100[r7], r5
  43:C:\Users\a5116938\Desktop\e2_studio_workspace\EEMBC_final\RX65N_Cloud_Kit\src/tensorflow/lite/micro\micro_mutable_op_resolver.h ****       const TfLiteRegistration& registration = registrations_[i];
 3812                             		.loc 3 43 32
 3813 107c 61 05                   		cmp	#0, r5
 3814 107e 3A B8 14                		beq	.L552
 3815                             	.LVL331:
 3816                             	.LBB1495:
  45:C:\Users\a5116938\Desktop\e2_studio_workspace\EEMBC_final\RX65N_Cloud_Kit\src/tensorflow/lite/micro\micro_mutable_op_resolver.h ****         return &registration;
 3817                             		.loc 3 45 7
 3818 1081 ED 7A 06                		mov.L	24[r7], r10
 3819 1084 75 5A 52                		cmp	#0x52, r10
 3820 1087 3A 61 0C                		beq	.L281
 3821 108a 71 73 38                		add	#56, r7, r3
 3822                             	.LBE1495:
  43:C:\Users\a5116938\Desktop\e2_studio_workspace\EEMBC_final\RX65N_Cloud_Kit\src/tensorflow/lite/micro\micro_mutable_op_resolver.h ****       const TfLiteRegistration& registration = registrations_[i];
 3823                             		.loc 3 43 23
 3824 108d 66 04                   		mov.L	#0, r4
 3825 108f 2E 0D                   		bra	.L282
 3826                             	.LVL332:
 3827                             	.L1118:
 3828                             	.LBB1496:
  45:C:\Users\a5116938\Desktop\e2_studio_workspace\EEMBC_final\RX65N_Cloud_Kit\src/tensorflow/lite/micro\micro_mutable_op_resolver.h ****         return &registration;
 3829                             		.loc 3 45 24
 3830 1091 71 3A E0                		add	#-32, r3, r10
  45:C:\Users\a5116938\Desktop\e2_studio_workspace\EEMBC_final\RX65N_Cloud_Kit\src/tensorflow/lite/micro\micro_mutable_op_resolver.h ****         return &registration;
 3831                             		.loc 3 45 7
 3832 1094 EC AA                   		mov.L	[r10], r10
 3833 1096 75 5A 52                		cmp	#0x52, r10
 3834 1099 3A 4F 0C                		beq	.L281
 3835                             	.LVL333:
 3836                             		.balign 8,3,2
 3837                             	.L282:
 3838 109c 71 33 20                		add	#32, r3
 3839                             	.LBE1496:
  43:C:\Users\a5116938\Desktop\e2_studio_workspace\EEMBC_final\RX65N_Cloud_Kit\src/tensorflow/lite/micro\micro_mutable_op_resolver.h ****       const TfLiteRegistration& registration = registrations_[i];
 3840                             		.loc 3 43 5
 3841 109f 62 14                   		add	#1, r4
 3842                             	.LVL334:
  43:C:\Users\a5116938\Desktop\e2_studio_workspace\EEMBC_final\RX65N_Cloud_Kit\src/tensorflow/lite/micro\micro_mutable_op_resolver.h ****       const TfLiteRegistration& registration = registrations_[i];
 3843                             		.loc 3 43 32
 3844 10a1 47 54                   		cmp	r5, r4
 3845 10a3 21 EE                   		bne	.L1118
 3846                             	.LVL335:
 3847                             	.LBE1494:
 3848                             	.LBE1493:
 433:C:\Users\a5116938\Desktop\e2_studio_workspace\EEMBC_final\RX65N_Cloud_Kit\src/tensorflow/lite/micro\micro_mutable_op_resolver.h ****       if (error_reporter_) {
 3849                             		.loc 3 433 5
 3850 10a5 75 55 80                		cmp	#0x80, r5
 3851 10a8 3A C3 10                		beq	.L440
 3852 10ab 71 54 01                		add	#1, r5, r4
 3853                             		.balign 8,3,1
 3854                             	.L280:
 443:C:\Users\a5116938\Desktop\e2_studio_workspace\EEMBC_final\RX65N_Cloud_Kit\src/tensorflow/lite/micro\micro_mutable_op_resolver.h ****     // Strictly speaking, the builtin_code is not necessary for TFLM but filling
 3855                             		.loc 3 443 5
 3856 10ae 6C 55                   		shll	#5, r5
 3857 10b0 66 C2                   		mov.L	#12, r2
 3858 10b2 4B 02                   		add	r0, r2
 3859 10b4 4B 75                   		add	r7, r5
 3860 10b6 75 43 20                		mov.L	#32, r3
 3861 10b9 71 51 04                		add	#4, r5, r1
 3862 10bc 7F 8F                   		smovf
 449:C:\Users\a5116938\Desktop\e2_studio_workspace\EEMBC_final\RX65N_Cloud_Kit\src/tensorflow/lite/micro\micro_mutable_op_resolver.h ****     builtin_parsers_[num_buitin_ops_] = parser;
 3863                             		.loc 3 449 20
 3864 10be EE 7A 02 05             		mov.L	5128[r7], r10
 446:C:\Users\a5116938\Desktop\e2_studio_workspace\EEMBC_final\RX65N_Cloud_Kit\src/tensorflow/lite/micro\micro_mutable_op_resolver.h ****     registrations_len_++;
 3865                             		.loc 3 446 5
 3866 10c2 3E 56 52                		mov.L	#0x52, 24[r5]
 3867 10c5 FD C2 A5                		shll	#2, r10, r5
 3868 10c8 4B 75                   		add	r7, r5
 3869                             		.loc 3 451 5
 3870 10ca 62 1A                   		add	#1, r10
 447:C:\Users\a5116938\Desktop\e2_studio_workspace\EEMBC_final\RX65N_Cloud_Kit\src/tensorflow/lite/micro\micro_mutable_op_resolver.h **** 
 3871                             		.loc 3 447 5
 3872 10cc EB 74 01 04             		mov.L	r4, 4100[r7]
 449:C:\Users\a5116938\Desktop\e2_studio_workspace\EEMBC_final\RX65N_Cloud_Kit\src/tensorflow/lite/micro\micro_mutable_op_resolver.h ****     builtin_parsers_[num_buitin_ops_] = parser;
 3873                             		.loc 3 449 5
 3874 10d0 FA 56 02 04 52          		mov.L	#0x52, 4104[r5]
 450:C:\Users\a5116938\Desktop\e2_studio_workspace\EEMBC_final\RX65N_Cloud_Kit\src/tensorflow/lite/micro\micro_mutable_op_resolver.h ****     num_buitin_ops_++;
 3875                             		.loc 3 450 5
 3876 10d5 FA 52 82 04 00 00 00 00 		mov.L	#__ZN6tflite12ParseReducerEPKNS_8OperatorEPNS_13ErrorReporterEPNS_20BuiltinDataAllocatorEPPv
 3877                             		.loc 3 451 5
 3878 10dd EB 7A 02 05             		mov.L	r10, 5128[r7]
 3879                             		.balign 8,3,1
 3880                             	.L285:
 3881                             	.LVL336:
 3882                             	.LBE1492:
 3883                             	.LBE1491:
 3884                             	.LBE1490:
 3885                             	.LBE1489:
  67:../src/tensorflow/lite/micro/all_ops_resolver.cc ****   AddRelu();
 3886                             		.loc 6 67 3 is_stmt 1
 3887                             	.LBB1510:
 3888                             	.LBB1511:
 317:C:\Users\a5116938\Desktop\e2_studio_workspace\EEMBC_final\RX65N_Cloud_Kit\src/tensorflow/lite/micro\micro_mutable_op_resolver.h ****                       ParseRelu);
 3889                             		.loc 3 317 78 is_stmt 0
 3890 10e1 66 CF                   		mov.L	#12, r15
 3891 10e3 4B 0F                   		add	r0, r15
 3892 10e5 05 00 00 00             		bsr	__ZN6tflite3ops5micro13Register_RELUEv
 3893                             	.LVL337:
 3894                             	.LBB1512:
 3895                             	.LBB1513:
 3896                             	.LBB1514:
 3897                             	.LBB1515:
  43:C:\Users\a5116938\Desktop\e2_studio_workspace\EEMBC_final\RX65N_Cloud_Kit\src/tensorflow/lite/micro\micro_mutable_op_resolver.h ****       const TfLiteRegistration& registration = registrations_[i];
 3898                             		.loc 3 43 34
 3899 10e9 EE 75 01 04             		mov.L	4100[r7], r5
  43:C:\Users\a5116938\Desktop\e2_studio_workspace\EEMBC_final\RX65N_Cloud_Kit\src/tensorflow/lite/micro\micro_mutable_op_resolver.h ****       const TfLiteRegistration& registration = registrations_[i];
 3900                             		.loc 3 43 32
 3901 10ed 61 05                   		cmp	#0, r5
 3902 10ef 3A B0 14                		beq	.L553
 3903                             	.LVL338:
 3904                             	.LBB1516:
  45:C:\Users\a5116938\Desktop\e2_studio_workspace\EEMBC_final\RX65N_Cloud_Kit\src/tensorflow/lite/micro\micro_mutable_op_resolver.h ****         return &registration;
 3905                             		.loc 3 45 7
 3906 10f2 ED 7A 06                		mov.L	24[r7], r10
 3907 10f5 75 5A 13                		cmp	#19, r10
 3908 10f8 3A 09 0C                		beq	.L287
 3909 10fb 71 73 38                		add	#56, r7, r3
 3910                             	.LBE1516:
  43:C:\Users\a5116938\Desktop\e2_studio_workspace\EEMBC_final\RX65N_Cloud_Kit\src/tensorflow/lite/micro\micro_mutable_op_resolver.h ****       const TfLiteRegistration& registration = registrations_[i];
 3911                             		.loc 3 43 23
 3912 10fe 66 04                   		mov.L	#0, r4
 3913 1100 2E 0D                   		bra	.L288
 3914                             	.LVL339:
 3915                             	.L1119:
 3916                             	.LBB1517:
  45:C:\Users\a5116938\Desktop\e2_studio_workspace\EEMBC_final\RX65N_Cloud_Kit\src/tensorflow/lite/micro\micro_mutable_op_resolver.h ****         return &registration;
 3917                             		.loc 3 45 24
 3918 1102 71 3A E0                		add	#-32, r3, r10
  45:C:\Users\a5116938\Desktop\e2_studio_workspace\EEMBC_final\RX65N_Cloud_Kit\src/tensorflow/lite/micro\micro_mutable_op_resolver.h ****         return &registration;
 3919                             		.loc 3 45 7
 3920 1105 EC AA                   		mov.L	[r10], r10
 3921 1107 75 5A 13                		cmp	#19, r10
 3922 110a 3A F7 0B                		beq	.L287
 3923                             	.LVL340:
 3924                             		.balign 8,3,2
 3925                             	.L288:
 3926 110d 71 33 20                		add	#32, r3
 3927                             	.LBE1517:
  43:C:\Users\a5116938\Desktop\e2_studio_workspace\EEMBC_final\RX65N_Cloud_Kit\src/tensorflow/lite/micro\micro_mutable_op_resolver.h ****       const TfLiteRegistration& registration = registrations_[i];
 3928                             		.loc 3 43 5
 3929 1110 62 14                   		add	#1, r4
 3930                             	.LVL341:
  43:C:\Users\a5116938\Desktop\e2_studio_workspace\EEMBC_final\RX65N_Cloud_Kit\src/tensorflow/lite/micro\micro_mutable_op_resolver.h ****       const TfLiteRegistration& registration = registrations_[i];
 3931                             		.loc 3 43 32
 3932 1112 47 45                   		cmp	r4, r5
 3933 1114 21 EE                   		bne	.L1119
 3934                             	.LVL342:
 3935                             	.LBE1515:
 3936                             	.LBE1514:
 433:C:\Users\a5116938\Desktop\e2_studio_workspace\EEMBC_final\RX65N_Cloud_Kit\src/tensorflow/lite/micro\micro_mutable_op_resolver.h ****       if (error_reporter_) {
 3937                             		.loc 3 433 5
 3938 1116 75 55 80                		cmp	#0x80, r5
 3939 1119 3A 6D 10                		beq	.L438
 3940 111c 71 54 01                		add	#1, r5, r4
 3941 111f 03                      		.balign 8,3,1
 3942                             	.L286:
 443:C:\Users\a5116938\Desktop\e2_studio_workspace\EEMBC_final\RX65N_Cloud_Kit\src/tensorflow/lite/micro\micro_mutable_op_resolver.h ****     // Strictly speaking, the builtin_code is not necessary for TFLM but filling
 3943                             		.loc 3 443 5
 3944 1120 6C 55                   		shll	#5, r5
 3945 1122 66 C2                   		mov.L	#12, r2
 3946 1124 4B 02                   		add	r0, r2
 3947 1126 4B 75                   		add	r7, r5
 3948 1128 75 43 20                		mov.L	#32, r3
 3949 112b 71 51 04                		add	#4, r5, r1
 3950 112e 7F 8F                   		smovf
 449:C:\Users\a5116938\Desktop\e2_studio_workspace\EEMBC_final\RX65N_Cloud_Kit\src/tensorflow/lite/micro\micro_mutable_op_resolver.h ****     builtin_parsers_[num_buitin_ops_] = parser;
 3951                             		.loc 3 449 20
 3952 1130 EE 7A 02 05             		mov.L	5128[r7], r10
 446:C:\Users\a5116938\Desktop\e2_studio_workspace\EEMBC_final\RX65N_Cloud_Kit\src/tensorflow/lite/micro\micro_mutable_op_resolver.h ****     registrations_len_++;
 3953                             		.loc 3 446 5
 3954 1134 3E 56 13                		mov.L	#19, 24[r5]
 3955 1137 FD C2 A5                		shll	#2, r10, r5
 3956 113a 4B 75                   		add	r7, r5
 3957                             		.loc 3 451 5
 3958 113c 62 1A                   		add	#1, r10
 447:C:\Users\a5116938\Desktop\e2_studio_workspace\EEMBC_final\RX65N_Cloud_Kit\src/tensorflow/lite/micro\micro_mutable_op_resolver.h **** 
 3959                             		.loc 3 447 5
 3960 113e EB 74 01 04             		mov.L	r4, 4100[r7]
 449:C:\Users\a5116938\Desktop\e2_studio_workspace\EEMBC_final\RX65N_Cloud_Kit\src/tensorflow/lite/micro\micro_mutable_op_resolver.h ****     builtin_parsers_[num_buitin_ops_] = parser;
 3961                             		.loc 3 449 5
 3962 1142 FA 56 02 04 13          		mov.L	#19, 4104[r5]
 450:C:\Users\a5116938\Desktop\e2_studio_workspace\EEMBC_final\RX65N_Cloud_Kit\src/tensorflow/lite/micro\micro_mutable_op_resolver.h ****     num_buitin_ops_++;
 3963                             		.loc 3 450 5
 3964 1147 FA 52 82 04 00 00 00 00 		mov.L	#__ZN6tflite9ParseReluEPKNS_8OperatorEPNS_13ErrorReporterEPNS_20BuiltinDataAllocatorEPPv, 46
 3965                             		.loc 3 451 5
 3966 114f EB 7A 02 05             		mov.L	r10, 5128[r7]
 3967                             		.balign 8,3,1
 3968                             	.L291:
 3969                             	.LVL343:
 3970                             	.LBE1513:
 3971                             	.LBE1512:
 3972                             	.LBE1511:
 3973                             	.LBE1510:
  68:../src/tensorflow/lite/micro/all_ops_resolver.cc ****   AddRelu6();
 3974                             		.loc 6 68 3 is_stmt 1
 3975                             	.LBB1531:
 3976                             	.LBB1532:
 323:C:\Users\a5116938\Desktop\e2_studio_workspace\EEMBC_final\RX65N_Cloud_Kit\src/tensorflow/lite/micro\micro_mutable_op_resolver.h ****   }
 3977                             		.loc 3 323 57 is_stmt 0
 3978 1153 66 CF                   		mov.L	#12, r15
 3979 1155 4B 0F                   		add	r0, r15
 3980 1157 05 00 00 00             		bsr	__ZN6tflite3ops5micro14Register_RELU6Ev
 3981                             	.LVL344:
 3982                             	.LBB1533:
 3983                             	.LBB1534:
 3984                             	.LBB1535:
 3985                             	.LBB1536:
  43:C:\Users\a5116938\Desktop\e2_studio_workspace\EEMBC_final\RX65N_Cloud_Kit\src/tensorflow/lite/micro\micro_mutable_op_resolver.h ****       const TfLiteRegistration& registration = registrations_[i];
 3986                             		.loc 3 43 34
 3987 115b EE 75 01 04             		mov.L	4100[r7], r5
  43:C:\Users\a5116938\Desktop\e2_studio_workspace\EEMBC_final\RX65N_Cloud_Kit\src/tensorflow/lite/micro\micro_mutable_op_resolver.h ****       const TfLiteRegistration& registration = registrations_[i];
 3988                             		.loc 3 43 32
 3989 115f 61 05                   		cmp	#0, r5
 3990 1161 3A 43 14                		beq	.L554
 3991                             	.LVL345:
 3992                             	.LBB1537:
  45:C:\Users\a5116938\Desktop\e2_studio_workspace\EEMBC_final\RX65N_Cloud_Kit\src/tensorflow/lite/micro\micro_mutable_op_resolver.h ****         return &registration;
 3993                             		.loc 3 45 7
 3994 1164 ED 7A 06                		mov.L	24[r7], r10
 3995 1167 75 5A 15                		cmp	#21, r10
 3996 116a 3A B0 0B                		beq	.L293
 3997 116d 71 73 38                		add	#56, r7, r3
 3998                             	.LBE1537:
  43:C:\Users\a5116938\Desktop\e2_studio_workspace\EEMBC_final\RX65N_Cloud_Kit\src/tensorflow/lite/micro\micro_mutable_op_resolver.h ****       const TfLiteRegistration& registration = registrations_[i];
 3999                             		.loc 3 43 23
 4000 1170 66 04                   		mov.L	#0, r4
 4001 1172 2E 0E                   		bra	.L294
 4002                             	.LVL346:
 4003                             	.L1120:
 4004                             	.LBB1538:
  45:C:\Users\a5116938\Desktop\e2_studio_workspace\EEMBC_final\RX65N_Cloud_Kit\src/tensorflow/lite/micro\micro_mutable_op_resolver.h ****         return &registration;
 4005                             		.loc 3 45 24
 4006 1174 71 3A E0                		add	#-32, r3, r10
  45:C:\Users\a5116938\Desktop\e2_studio_workspace\EEMBC_final\RX65N_Cloud_Kit\src/tensorflow/lite/micro\micro_mutable_op_resolver.h ****         return &registration;
 4007                             		.loc 3 45 7
 4008 1177 EC AA                   		mov.L	[r10], r10
 4009 1179 75 5A 15                		cmp	#21, r10
 4010 117c 3A 9E 0B                		beq	.L293
 4011                             	.LVL347:
 4012 117f 03                      		.balign 8,3,2
 4013                             	.L294:
 4014 1180 71 33 20                		add	#32, r3
 4015                             	.LBE1538:
  43:C:\Users\a5116938\Desktop\e2_studio_workspace\EEMBC_final\RX65N_Cloud_Kit\src/tensorflow/lite/micro\micro_mutable_op_resolver.h ****       const TfLiteRegistration& registration = registrations_[i];
 4016                             		.loc 3 43 5
 4017 1183 62 14                   		add	#1, r4
 4018                             	.LVL348:
  43:C:\Users\a5116938\Desktop\e2_studio_workspace\EEMBC_final\RX65N_Cloud_Kit\src/tensorflow/lite/micro\micro_mutable_op_resolver.h ****       const TfLiteRegistration& registration = registrations_[i];
 4019                             		.loc 3 43 32
 4020 1185 47 45                   		cmp	r4, r5
 4021 1187 21 ED                   		bne	.L1120
 4022                             	.LVL349:
 4023                             	.LBE1536:
 4024                             	.LBE1535:
 433:C:\Users\a5116938\Desktop\e2_studio_workspace\EEMBC_final\RX65N_Cloud_Kit\src/tensorflow/lite/micro\micro_mutable_op_resolver.h ****       if (error_reporter_) {
 4025                             		.loc 3 433 5
 4026 1189 75 55 80                		cmp	#0x80, r5
 4027 118c 3A 15 10                		beq	.L435
 4028 118f 71 54 01                		add	#1, r5, r4
 4029                             		.balign 8,3,1
 4030                             	.L292:
 443:C:\Users\a5116938\Desktop\e2_studio_workspace\EEMBC_final\RX65N_Cloud_Kit\src/tensorflow/lite/micro\micro_mutable_op_resolver.h ****     // Strictly speaking, the builtin_code is not necessary for TFLM but filling
 4031                             		.loc 3 443 5
 4032 1192 6C 55                   		shll	#5, r5
 4033 1194 66 C2                   		mov.L	#12, r2
 4034 1196 4B 02                   		add	r0, r2
 4035 1198 4B 75                   		add	r7, r5
 4036 119a 75 43 20                		mov.L	#32, r3
 4037 119d 71 51 04                		add	#4, r5, r1
 4038 11a0 7F 8F                   		smovf
 449:C:\Users\a5116938\Desktop\e2_studio_workspace\EEMBC_final\RX65N_Cloud_Kit\src/tensorflow/lite/micro\micro_mutable_op_resolver.h ****     builtin_parsers_[num_buitin_ops_] = parser;
 4039                             		.loc 3 449 20
 4040 11a2 EE 7A 02 05             		mov.L	5128[r7], r10
 446:C:\Users\a5116938\Desktop\e2_studio_workspace\EEMBC_final\RX65N_Cloud_Kit\src/tensorflow/lite/micro\micro_mutable_op_resolver.h ****     registrations_len_++;
 4041                             		.loc 3 446 5
 4042 11a6 3E 56 15                		mov.L	#21, 24[r5]
 4043 11a9 FD C2 A5                		shll	#2, r10, r5
 4044 11ac 4B 75                   		add	r7, r5
 4045                             		.loc 3 451 5
 4046 11ae 62 1A                   		add	#1, r10
 447:C:\Users\a5116938\Desktop\e2_studio_workspace\EEMBC_final\RX65N_Cloud_Kit\src/tensorflow/lite/micro\micro_mutable_op_resolver.h **** 
 4047                             		.loc 3 447 5
 4048 11b0 EB 74 01 04             		mov.L	r4, 4100[r7]
 449:C:\Users\a5116938\Desktop\e2_studio_workspace\EEMBC_final\RX65N_Cloud_Kit\src/tensorflow/lite/micro\micro_mutable_op_resolver.h ****     builtin_parsers_[num_buitin_ops_] = parser;
 4049                             		.loc 3 449 5
 4050 11b4 FA 56 02 04 15          		mov.L	#21, 4104[r5]
 450:C:\Users\a5116938\Desktop\e2_studio_workspace\EEMBC_final\RX65N_Cloud_Kit\src/tensorflow/lite/micro\micro_mutable_op_resolver.h ****     num_buitin_ops_++;
 4051                             		.loc 3 450 5
 4052 11b9 FA 52 82 04 00 00 00 00 		mov.L	#__ZN6tflite10ParseRelu6EPKNS_8OperatorEPNS_13ErrorReporterEPNS_20BuiltinDataAllocatorEPPv, 
 4053                             		.loc 3 451 5
 4054 11c1 EB 7A 02 05             		mov.L	r10, 5128[r7]
 4055                             		.balign 8,3,1
 4056                             	.L297:
 4057                             	.LVL350:
 4058                             	.LBE1534:
 4059                             	.LBE1533:
 4060                             	.LBE1532:
 4061                             	.LBE1531:
  69:../src/tensorflow/lite/micro/all_ops_resolver.cc ****   AddReshape();
 4062                             		.loc 6 69 3 is_stmt 1
 4063                             	.LBB1552:
 4064                             	.LBB1553:
 328:C:\Users\a5116938\Desktop\e2_studio_workspace\EEMBC_final\RX65N_Cloud_Kit\src/tensorflow/lite/micro\micro_mutable_op_resolver.h ****   }
 4065                             		.loc 3 328 59 is_stmt 0
 4066 11c5 66 CF                   		mov.L	#12, r15
 4067 11c7 4B 0F                   		add	r0, r15
 4068 11c9 05 00 00 00             		bsr	__ZN6tflite3ops5micro16Register_RESHAPEEv
 4069                             	.LVL351:
 4070                             	.LBB1554:
 4071                             	.LBB1555:
 4072                             	.LBB1556:
 4073                             	.LBB1557:
  43:C:\Users\a5116938\Desktop\e2_studio_workspace\EEMBC_final\RX65N_Cloud_Kit\src/tensorflow/lite/micro\micro_mutable_op_resolver.h ****       const TfLiteRegistration& registration = registrations_[i];
 4074                             		.loc 3 43 34
 4075 11cd EE 75 01 04             		mov.L	4100[r7], r5
  43:C:\Users\a5116938\Desktop\e2_studio_workspace\EEMBC_final\RX65N_Cloud_Kit\src/tensorflow/lite/micro\micro_mutable_op_resolver.h ****       const TfLiteRegistration& registration = registrations_[i];
 4076                             		.loc 3 43 32
 4077 11d1 61 05                   		cmp	#0, r5
 4078 11d3 3A 86 13                		beq	.L555
 4079                             	.LVL352:
 4080                             	.LBB1558:
  45:C:\Users\a5116938\Desktop\e2_studio_workspace\EEMBC_final\RX65N_Cloud_Kit\src/tensorflow/lite/micro\micro_mutable_op_resolver.h ****         return &registration;
 4081                             		.loc 3 45 7
 4082 11d6 ED 7A 06                		mov.L	24[r7], r10
 4083 11d9 75 5A 16                		cmp	#22, r10
 4084 11dc 3A 57 0B                		beq	.L299
 4085 11df 71 73 38                		add	#56, r7, r3
 4086                             	.LBE1558:
  43:C:\Users\a5116938\Desktop\e2_studio_workspace\EEMBC_final\RX65N_Cloud_Kit\src/tensorflow/lite/micro\micro_mutable_op_resolver.h ****       const TfLiteRegistration& registration = registrations_[i];
 4087                             		.loc 3 43 23
 4088 11e2 66 04                   		mov.L	#0, r4
 4089 11e4 2E 0D                   		bra	.L300
 4090                             	.LVL353:
 4091                             	.L1121:
 4092                             	.LBB1559:
  45:C:\Users\a5116938\Desktop\e2_studio_workspace\EEMBC_final\RX65N_Cloud_Kit\src/tensorflow/lite/micro\micro_mutable_op_resolver.h ****         return &registration;
 4093                             		.loc 3 45 24
 4094 11e6 71 3A E0                		add	#-32, r3, r10
  45:C:\Users\a5116938\Desktop\e2_studio_workspace\EEMBC_final\RX65N_Cloud_Kit\src/tensorflow/lite/micro\micro_mutable_op_resolver.h ****         return &registration;
 4095                             		.loc 3 45 7
 4096 11e9 EC AA                   		mov.L	[r10], r10
 4097 11eb 75 5A 16                		cmp	#22, r10
 4098 11ee 3A 45 0B                		beq	.L299
 4099                             	.LVL354:
 4100                             		.balign 8,3,2
 4101                             	.L300:
 4102 11f1 71 33 20                		add	#32, r3
 4103                             	.LBE1559:
  43:C:\Users\a5116938\Desktop\e2_studio_workspace\EEMBC_final\RX65N_Cloud_Kit\src/tensorflow/lite/micro\micro_mutable_op_resolver.h ****       const TfLiteRegistration& registration = registrations_[i];
 4104                             		.loc 3 43 5
 4105 11f4 62 14                   		add	#1, r4
 4106                             	.LVL355:
  43:C:\Users\a5116938\Desktop\e2_studio_workspace\EEMBC_final\RX65N_Cloud_Kit\src/tensorflow/lite/micro\micro_mutable_op_resolver.h ****       const TfLiteRegistration& registration = registrations_[i];
 4107                             		.loc 3 43 32
 4108 11f6 47 45                   		cmp	r4, r5
 4109 11f8 21 EE                   		bne	.L1121
 4110                             	.LVL356:
 4111                             	.LBE1557:
 4112                             	.LBE1556:
 433:C:\Users\a5116938\Desktop\e2_studio_workspace\EEMBC_final\RX65N_Cloud_Kit\src/tensorflow/lite/micro\micro_mutable_op_resolver.h ****       if (error_reporter_) {
 4113                             		.loc 3 433 5
 4114 11fa 75 55 80                		cmp	#0x80, r5
 4115 11fd 3A BF 0F                		beq	.L434
 4116 1200 71 54 01                		add	#1, r5, r4
 4117                             		.balign 8,3,1
 4118                             	.L298:
 443:C:\Users\a5116938\Desktop\e2_studio_workspace\EEMBC_final\RX65N_Cloud_Kit\src/tensorflow/lite/micro\micro_mutable_op_resolver.h ****     // Strictly speaking, the builtin_code is not necessary for TFLM but filling
 4119                             		.loc 3 443 5
 4120 1203 6C 55                   		shll	#5, r5
 4121 1205 66 C2                   		mov.L	#12, r2
 4122 1207 4B 02                   		add	r0, r2
 4123 1209 4B 75                   		add	r7, r5
 4124 120b 75 43 20                		mov.L	#32, r3
 4125 120e 71 51 04                		add	#4, r5, r1
 4126 1211 7F 8F                   		smovf
 449:C:\Users\a5116938\Desktop\e2_studio_workspace\EEMBC_final\RX65N_Cloud_Kit\src/tensorflow/lite/micro\micro_mutable_op_resolver.h ****     builtin_parsers_[num_buitin_ops_] = parser;
 4127                             		.loc 3 449 20
 4128 1213 EE 7A 02 05             		mov.L	5128[r7], r10
 446:C:\Users\a5116938\Desktop\e2_studio_workspace\EEMBC_final\RX65N_Cloud_Kit\src/tensorflow/lite/micro\micro_mutable_op_resolver.h ****     registrations_len_++;
 4129                             		.loc 3 446 5
 4130 1217 3E 56 16                		mov.L	#22, 24[r5]
 4131 121a FD C2 A5                		shll	#2, r10, r5
 4132 121d 4B 75                   		add	r7, r5
 4133                             		.loc 3 451 5
 4134 121f 62 1A                   		add	#1, r10
 447:C:\Users\a5116938\Desktop\e2_studio_workspace\EEMBC_final\RX65N_Cloud_Kit\src/tensorflow/lite/micro\micro_mutable_op_resolver.h **** 
 4135                             		.loc 3 447 5
 4136 1221 EB 74 01 04             		mov.L	r4, 4100[r7]
 449:C:\Users\a5116938\Desktop\e2_studio_workspace\EEMBC_final\RX65N_Cloud_Kit\src/tensorflow/lite/micro\micro_mutable_op_resolver.h ****     builtin_parsers_[num_buitin_ops_] = parser;
 4137                             		.loc 3 449 5
 4138 1225 FA 56 02 04 16          		mov.L	#22, 4104[r5]
 450:C:\Users\a5116938\Desktop\e2_studio_workspace\EEMBC_final\RX65N_Cloud_Kit\src/tensorflow/lite/micro\micro_mutable_op_resolver.h ****     num_buitin_ops_++;
 4139                             		.loc 3 450 5
 4140 122a FA 52 82 04 00 00 00 00 		mov.L	#__ZN6tflite12ParseReshapeEPKNS_8OperatorEPNS_13ErrorReporterEPNS_20BuiltinDataAllocatorEPPv
 4141                             		.loc 3 451 5
 4142 1232 EB 7A 02 05             		mov.L	r10, 5128[r7]
 4143                             		.balign 8,3,1
 4144                             	.L303:
 4145                             	.LVL357:
 4146                             	.LBE1555:
 4147                             	.LBE1554:
 4148                             	.LBE1553:
 4149                             	.LBE1552:
  70:../src/tensorflow/lite/micro/all_ops_resolver.cc ****   AddResizeNearestNeighbor();
 4150                             		.loc 6 70 3 is_stmt 1
 4151                             	.LBB1573:
 4152                             	.LBB1574:
 333:C:\Users\a5116938\Desktop\e2_studio_workspace\EEMBC_final\RX65N_Cloud_Kit\src/tensorflow/lite/micro\micro_mutable_op_resolver.h ****                       ParseResizeNearestNeighbor);
 4153                             		.loc 3 333 75 is_stmt 0
 4154 1236 66 CF                   		mov.L	#12, r15
 4155 1238 4B 0F                   		add	r0, r15
 4156 123a 05 00 00 00             		bsr	__ZN6tflite3ops5micro32Register_RESIZE_NEAREST_NEIGHBOREv
 4157                             	.LVL358:
 4158                             	.LBB1575:
 4159                             	.LBB1576:
 4160                             	.LBB1577:
 4161                             	.LBB1578:
  43:C:\Users\a5116938\Desktop\e2_studio_workspace\EEMBC_final\RX65N_Cloud_Kit\src/tensorflow/lite/micro\micro_mutable_op_resolver.h ****       const TfLiteRegistration& registration = registrations_[i];
 4162                             		.loc 3 43 34
 4163 123e EE 75 01 04             		mov.L	4100[r7], r5
  43:C:\Users\a5116938\Desktop\e2_studio_workspace\EEMBC_final\RX65N_Cloud_Kit\src/tensorflow/lite/micro\micro_mutable_op_resolver.h ****       const TfLiteRegistration& registration = registrations_[i];
 4164                             		.loc 3 43 32
 4165 1242 61 05                   		cmp	#0, r5
 4166 1244 3A 4C 13                		beq	.L556
 4167                             	.LVL359:
 4168                             	.LBB1579:
  45:C:\Users\a5116938\Desktop\e2_studio_workspace\EEMBC_final\RX65N_Cloud_Kit\src/tensorflow/lite/micro\micro_mutable_op_resolver.h ****         return &registration;
 4169                             		.loc 3 45 7
 4170 1247 ED 7A 06                		mov.L	24[r7], r10
 4171 124a 75 5A 61                		cmp	#0x61, r10
 4172 124d 3A FF 0A                		beq	.L305
 4173 1250 71 73 38                		add	#56, r7, r3
 4174                             	.LBE1579:
  43:C:\Users\a5116938\Desktop\e2_studio_workspace\EEMBC_final\RX65N_Cloud_Kit\src/tensorflow/lite/micro\micro_mutable_op_resolver.h ****       const TfLiteRegistration& registration = registrations_[i];
 4175                             		.loc 3 43 23
 4176 1253 66 04                   		mov.L	#0, r4
 4177 1255 2E 0D                   		bra	.L306
 4178                             	.LVL360:
 4179                             	.L1122:
 4180                             	.LBB1580:
  45:C:\Users\a5116938\Desktop\e2_studio_workspace\EEMBC_final\RX65N_Cloud_Kit\src/tensorflow/lite/micro\micro_mutable_op_resolver.h ****         return &registration;
 4181                             		.loc 3 45 24
 4182 1257 71 3A E0                		add	#-32, r3, r10
  45:C:\Users\a5116938\Desktop\e2_studio_workspace\EEMBC_final\RX65N_Cloud_Kit\src/tensorflow/lite/micro\micro_mutable_op_resolver.h ****         return &registration;
 4183                             		.loc 3 45 7
 4184 125a EC AA                   		mov.L	[r10], r10
 4185 125c 75 5A 61                		cmp	#0x61, r10
 4186 125f 3A ED 0A                		beq	.L305
 4187                             	.LVL361:
 4188                             		.balign 8,3,2
 4189                             	.L306:
 4190 1262 71 33 20                		add	#32, r3
 4191                             	.LBE1580:
  43:C:\Users\a5116938\Desktop\e2_studio_workspace\EEMBC_final\RX65N_Cloud_Kit\src/tensorflow/lite/micro\micro_mutable_op_resolver.h ****       const TfLiteRegistration& registration = registrations_[i];
 4192                             		.loc 3 43 5
 4193 1265 62 14                   		add	#1, r4
 4194                             	.LVL362:
  43:C:\Users\a5116938\Desktop\e2_studio_workspace\EEMBC_final\RX65N_Cloud_Kit\src/tensorflow/lite/micro\micro_mutable_op_resolver.h ****       const TfLiteRegistration& registration = registrations_[i];
 4195                             		.loc 3 43 32
 4196 1267 47 45                   		cmp	r4, r5
 4197 1269 21 EE                   		bne	.L1122
 4198                             	.LVL363:
 4199                             	.LBE1578:
 4200                             	.LBE1577:
 433:C:\Users\a5116938\Desktop\e2_studio_workspace\EEMBC_final\RX65N_Cloud_Kit\src/tensorflow/lite/micro\micro_mutable_op_resolver.h ****       if (error_reporter_) {
 4201                             		.loc 3 433 5
 4202 126b 75 55 80                		cmp	#0x80, r5
 4203 126e 3A 69 0F                		beq	.L432
 4204 1271 71 54 01                		add	#1, r5, r4
 4205                             		.balign 8,3,1
 4206                             	.L304:
 443:C:\Users\a5116938\Desktop\e2_studio_workspace\EEMBC_final\RX65N_Cloud_Kit\src/tensorflow/lite/micro\micro_mutable_op_resolver.h ****     // Strictly speaking, the builtin_code is not necessary for TFLM but filling
 4207                             		.loc 3 443 5
 4208 1274 6C 55                   		shll	#5, r5
 4209 1276 66 C2                   		mov.L	#12, r2
 4210 1278 4B 02                   		add	r0, r2
 4211 127a 4B 75                   		add	r7, r5
 4212 127c 75 43 20                		mov.L	#32, r3
 4213 127f 71 51 04                		add	#4, r5, r1
 4214 1282 7F 8F                   		smovf
 449:C:\Users\a5116938\Desktop\e2_studio_workspace\EEMBC_final\RX65N_Cloud_Kit\src/tensorflow/lite/micro\micro_mutable_op_resolver.h ****     builtin_parsers_[num_buitin_ops_] = parser;
 4215                             		.loc 3 449 20
 4216 1284 EE 7A 02 05             		mov.L	5128[r7], r10
 446:C:\Users\a5116938\Desktop\e2_studio_workspace\EEMBC_final\RX65N_Cloud_Kit\src/tensorflow/lite/micro\micro_mutable_op_resolver.h ****     registrations_len_++;
 4217                             		.loc 3 446 5
 4218 1288 3E 56 61                		mov.L	#0x61, 24[r5]
 4219 128b FD C2 A5                		shll	#2, r10, r5
 4220 128e 4B 75                   		add	r7, r5
 4221                             		.loc 3 451 5
 4222 1290 62 1A                   		add	#1, r10
 447:C:\Users\a5116938\Desktop\e2_studio_workspace\EEMBC_final\RX65N_Cloud_Kit\src/tensorflow/lite/micro\micro_mutable_op_resolver.h **** 
 4223                             		.loc 3 447 5
 4224 1292 EB 74 01 04             		mov.L	r4, 4100[r7]
 449:C:\Users\a5116938\Desktop\e2_studio_workspace\EEMBC_final\RX65N_Cloud_Kit\src/tensorflow/lite/micro\micro_mutable_op_resolver.h ****     builtin_parsers_[num_buitin_ops_] = parser;
 4225                             		.loc 3 449 5
 4226 1296 FA 56 02 04 61          		mov.L	#0x61, 4104[r5]
 450:C:\Users\a5116938\Desktop\e2_studio_workspace\EEMBC_final\RX65N_Cloud_Kit\src/tensorflow/lite/micro\micro_mutable_op_resolver.h ****     num_buitin_ops_++;
 4227                             		.loc 3 450 5
 4228 129b FA 52 82 04 00 00 00 00 		mov.L	#__ZN6tflite26ParseResizeNearestNeighborEPKNS_8OperatorEPNS_13ErrorReporterEPNS_20BuiltinDat
 4229                             		.loc 3 451 5
 4230 12a3 EB 7A 02 05             		mov.L	r10, 5128[r7]
 4231 12a7 03                      		.balign 8,3,1
 4232                             	.L309:
 4233                             	.LVL364:
 4234                             	.LBE1576:
 4235                             	.LBE1575:
 4236                             	.LBE1574:
 4237                             	.LBE1573:
  71:../src/tensorflow/lite/micro/all_ops_resolver.cc ****   AddRound();
 4238                             		.loc 6 71 3 is_stmt 1
 4239                             	.LBB1594:
 4240                             	.LBB1595:
 339:C:\Users\a5116938\Desktop\e2_studio_workspace\EEMBC_final\RX65N_Cloud_Kit\src/tensorflow/lite/micro\micro_mutable_op_resolver.h ****   }
 4241                             		.loc 3 339 57 is_stmt 0
 4242 12a8 66 CF                   		mov.L	#12, r15
 4243 12aa 4B 0F                   		add	r0, r15
 4244 12ac 05 00 00 00             		bsr	__ZN6tflite3ops5micro14Register_ROUNDEv
 4245                             	.LVL365:
 4246                             	.LBB1596:
 4247                             	.LBB1597:
 4248                             	.LBB1598:
 4249                             	.LBB1599:
  43:C:\Users\a5116938\Desktop\e2_studio_workspace\EEMBC_final\RX65N_Cloud_Kit\src/tensorflow/lite/micro\micro_mutable_op_resolver.h ****       const TfLiteRegistration& registration = registrations_[i];
 4250                             		.loc 3 43 34
 4251 12b0 EE 75 01 04             		mov.L	4100[r7], r5
  43:C:\Users\a5116938\Desktop\e2_studio_workspace\EEMBC_final\RX65N_Cloud_Kit\src/tensorflow/lite/micro\micro_mutable_op_resolver.h ****       const TfLiteRegistration& registration = registrations_[i];
 4252                             		.loc 3 43 32
 4253 12b4 61 05                   		cmp	#0, r5
 4254 12b6 3A F3 12                		beq	.L557
 4255                             	.LVL366:
 4256                             	.LBB1600:
  45:C:\Users\a5116938\Desktop\e2_studio_workspace\EEMBC_final\RX65N_Cloud_Kit\src/tensorflow/lite/micro\micro_mutable_op_resolver.h ****         return &registration;
 4257                             		.loc 3 45 7
 4258 12b9 ED 7A 06                		mov.L	24[r7], r10
 4259 12bc 75 5A 74                		cmp	#0x74, r10
 4260 12bf 3A A6 0A                		beq	.L311
 4261 12c2 71 73 38                		add	#56, r7, r3
 4262                             	.LBE1600:
  43:C:\Users\a5116938\Desktop\e2_studio_workspace\EEMBC_final\RX65N_Cloud_Kit\src/tensorflow/lite/micro\micro_mutable_op_resolver.h ****       const TfLiteRegistration& registration = registrations_[i];
 4263                             		.loc 3 43 23
 4264 12c5 66 04                   		mov.L	#0, r4
 4265 12c7 2E 0D                   		bra	.L312
 4266                             	.LVL367:
 4267                             	.L1123:
 4268                             	.LBB1601:
  45:C:\Users\a5116938\Desktop\e2_studio_workspace\EEMBC_final\RX65N_Cloud_Kit\src/tensorflow/lite/micro\micro_mutable_op_resolver.h ****         return &registration;
 4269                             		.loc 3 45 24
 4270 12c9 71 3A E0                		add	#-32, r3, r10
  45:C:\Users\a5116938\Desktop\e2_studio_workspace\EEMBC_final\RX65N_Cloud_Kit\src/tensorflow/lite/micro\micro_mutable_op_resolver.h ****         return &registration;
 4271                             		.loc 3 45 7
 4272 12cc EC AA                   		mov.L	[r10], r10
 4273 12ce 75 5A 74                		cmp	#0x74, r10
 4274 12d1 3A 94 0A                		beq	.L311
 4275                             	.LVL368:
 4276                             		.balign 8,3,2
 4277                             	.L312:
 4278 12d4 71 33 20                		add	#32, r3
 4279                             	.LBE1601:
  43:C:\Users\a5116938\Desktop\e2_studio_workspace\EEMBC_final\RX65N_Cloud_Kit\src/tensorflow/lite/micro\micro_mutable_op_resolver.h ****       const TfLiteRegistration& registration = registrations_[i];
 4280                             		.loc 3 43 5
 4281 12d7 62 14                   		add	#1, r4
 4282                             	.LVL369:
  43:C:\Users\a5116938\Desktop\e2_studio_workspace\EEMBC_final\RX65N_Cloud_Kit\src/tensorflow/lite/micro\micro_mutable_op_resolver.h ****       const TfLiteRegistration& registration = registrations_[i];
 4283                             		.loc 3 43 32
 4284 12d9 47 45                   		cmp	r4, r5
 4285 12db 21 EE                   		bne	.L1123
 4286                             	.LVL370:
 4287                             	.LBE1599:
 4288                             	.LBE1598:
 433:C:\Users\a5116938\Desktop\e2_studio_workspace\EEMBC_final\RX65N_Cloud_Kit\src/tensorflow/lite/micro\micro_mutable_op_resolver.h ****       if (error_reporter_) {
 4289                             		.loc 3 433 5
 4290 12dd 75 55 80                		cmp	#0x80, r5
 4291 12e0 3A 12 0F                		beq	.L430
 4292 12e3 71 54 01                		add	#1, r5, r4
 4293                             		.balign 8,3,1
 4294                             	.L310:
 443:C:\Users\a5116938\Desktop\e2_studio_workspace\EEMBC_final\RX65N_Cloud_Kit\src/tensorflow/lite/micro\micro_mutable_op_resolver.h ****     // Strictly speaking, the builtin_code is not necessary for TFLM but filling
 4295                             		.loc 3 443 5
 4296 12e6 6C 55                   		shll	#5, r5
 4297 12e8 66 C2                   		mov.L	#12, r2
 4298 12ea 4B 02                   		add	r0, r2
 4299 12ec 4B 75                   		add	r7, r5
 4300 12ee 75 43 20                		mov.L	#32, r3
 4301 12f1 71 51 04                		add	#4, r5, r1
 4302 12f4 7F 8F                   		smovf
 449:C:\Users\a5116938\Desktop\e2_studio_workspace\EEMBC_final\RX65N_Cloud_Kit\src/tensorflow/lite/micro\micro_mutable_op_resolver.h ****     builtin_parsers_[num_buitin_ops_] = parser;
 4303                             		.loc 3 449 20
 4304 12f6 EE 7A 02 05             		mov.L	5128[r7], r10
 446:C:\Users\a5116938\Desktop\e2_studio_workspace\EEMBC_final\RX65N_Cloud_Kit\src/tensorflow/lite/micro\micro_mutable_op_resolver.h ****     registrations_len_++;
 4305                             		.loc 3 446 5
 4306 12fa 3E 56 74                		mov.L	#0x74, 24[r5]
 4307 12fd FD C2 A5                		shll	#2, r10, r5
 4308 1300 4B 75                   		add	r7, r5
 4309                             		.loc 3 451 5
 4310 1302 62 1A                   		add	#1, r10
 447:C:\Users\a5116938\Desktop\e2_studio_workspace\EEMBC_final\RX65N_Cloud_Kit\src/tensorflow/lite/micro\micro_mutable_op_resolver.h **** 
 4311                             		.loc 3 447 5
 4312 1304 EB 74 01 04             		mov.L	r4, 4100[r7]
 449:C:\Users\a5116938\Desktop\e2_studio_workspace\EEMBC_final\RX65N_Cloud_Kit\src/tensorflow/lite/micro\micro_mutable_op_resolver.h ****     builtin_parsers_[num_buitin_ops_] = parser;
 4313                             		.loc 3 449 5
 4314 1308 FA 56 02 04 74          		mov.L	#0x74, 4104[r5]
 450:C:\Users\a5116938\Desktop\e2_studio_workspace\EEMBC_final\RX65N_Cloud_Kit\src/tensorflow/lite/micro\micro_mutable_op_resolver.h ****     num_buitin_ops_++;
 4315                             		.loc 3 450 5
 4316 130d FA 52 82 04 00 00 00 00 		mov.L	#__ZN6tflite10ParseRoundEPKNS_8OperatorEPNS_13ErrorReporterEPNS_20BuiltinDataAllocatorEPPv, 
 4317                             		.loc 3 451 5
 4318 1315 EB 7A 02 05             		mov.L	r10, 5128[r7]
 4319                             		.balign 8,3,1
 4320                             	.L315:
 4321                             	.LVL371:
 4322                             	.LBE1597:
 4323                             	.LBE1596:
 4324                             	.LBE1595:
 4325                             	.LBE1594:
  72:../src/tensorflow/lite/micro/all_ops_resolver.cc ****   AddRsqrt();
 4326                             		.loc 6 72 3 is_stmt 1
 4327                             	.LBB1615:
 4328                             	.LBB1616:
 344:C:\Users\a5116938\Desktop\e2_studio_workspace\EEMBC_final\RX65N_Cloud_Kit\src/tensorflow/lite/micro\micro_mutable_op_resolver.h ****   }
 4329                             		.loc 3 344 57 is_stmt 0
 4330 1319 66 CF                   		mov.L	#12, r15
 4331 131b 4B 0F                   		add	r0, r15
 4332 131d 05 00 00 00             		bsr	__ZN6tflite3ops5micro14Register_RSQRTEv
 4333                             	.LVL372:
 4334                             	.LBB1617:
 4335                             	.LBB1618:
 4336                             	.LBB1619:
 4337                             	.LBB1620:
  43:C:\Users\a5116938\Desktop\e2_studio_workspace\EEMBC_final\RX65N_Cloud_Kit\src/tensorflow/lite/micro\micro_mutable_op_resolver.h ****       const TfLiteRegistration& registration = registrations_[i];
 4338                             		.loc 3 43 34
 4339 1321 EE 75 01 04             		mov.L	4100[r7], r5
  43:C:\Users\a5116938\Desktop\e2_studio_workspace\EEMBC_final\RX65N_Cloud_Kit\src/tensorflow/lite/micro\micro_mutable_op_resolver.h ****       const TfLiteRegistration& registration = registrations_[i];
 4340                             		.loc 3 43 32
 4341 1325 61 05                   		cmp	#0, r5
 4342 1327 3A 5F 12                		beq	.L558
 4343                             	.LVL373:
 4344                             	.LBB1621:
  45:C:\Users\a5116938\Desktop\e2_studio_workspace\EEMBC_final\RX65N_Cloud_Kit\src/tensorflow/lite/micro\micro_mutable_op_resolver.h ****         return &registration;
 4345                             		.loc 3 45 7
 4346 132a ED 7A 06                		mov.L	24[r7], r10
 4347 132d 75 5A 4C                		cmp	#0x4c, r10
 4348 1330 3A 4E 0A                		beq	.L317
 4349 1333 71 73 38                		add	#56, r7, r3
 4350                             	.LBE1621:
  43:C:\Users\a5116938\Desktop\e2_studio_workspace\EEMBC_final\RX65N_Cloud_Kit\src/tensorflow/lite/micro\micro_mutable_op_resolver.h ****       const TfLiteRegistration& registration = registrations_[i];
 4351                             		.loc 3 43 23
 4352 1336 66 04                   		mov.L	#0, r4
 4353 1338 2E 0D                   		bra	.L318
 4354                             	.LVL374:
 4355                             	.L1124:
 4356                             	.LBB1622:
  45:C:\Users\a5116938\Desktop\e2_studio_workspace\EEMBC_final\RX65N_Cloud_Kit\src/tensorflow/lite/micro\micro_mutable_op_resolver.h ****         return &registration;
 4357                             		.loc 3 45 24
 4358 133a 71 3A E0                		add	#-32, r3, r10
  45:C:\Users\a5116938\Desktop\e2_studio_workspace\EEMBC_final\RX65N_Cloud_Kit\src/tensorflow/lite/micro\micro_mutable_op_resolver.h ****         return &registration;
 4359                             		.loc 3 45 7
 4360 133d EC AA                   		mov.L	[r10], r10
 4361 133f 75 5A 4C                		cmp	#0x4c, r10
 4362 1342 3A 3C 0A                		beq	.L317
 4363                             	.LVL375:
 4364                             		.balign 8,3,2
 4365                             	.L318:
 4366 1345 71 33 20                		add	#32, r3
 4367                             	.LBE1622:
  43:C:\Users\a5116938\Desktop\e2_studio_workspace\EEMBC_final\RX65N_Cloud_Kit\src/tensorflow/lite/micro\micro_mutable_op_resolver.h ****       const TfLiteRegistration& registration = registrations_[i];
 4368                             		.loc 3 43 5
 4369 1348 62 14                   		add	#1, r4
 4370                             	.LVL376:
  43:C:\Users\a5116938\Desktop\e2_studio_workspace\EEMBC_final\RX65N_Cloud_Kit\src/tensorflow/lite/micro\micro_mutable_op_resolver.h ****       const TfLiteRegistration& registration = registrations_[i];
 4371                             		.loc 3 43 32
 4372 134a 47 45                   		cmp	r4, r5
 4373 134c 21 EE                   		bne	.L1124
 4374                             	.LVL377:
 4375                             	.LBE1620:
 4376                             	.LBE1619:
 433:C:\Users\a5116938\Desktop\e2_studio_workspace\EEMBC_final\RX65N_Cloud_Kit\src/tensorflow/lite/micro\micro_mutable_op_resolver.h ****       if (error_reporter_) {
 4377                             		.loc 3 433 5
 4378 134e 75 55 80                		cmp	#0x80, r5
 4379 1351 3A BC 0E                		beq	.L427
 4380 1354 71 54 01                		add	#1, r5, r4
 4381 1357 03                      		.balign 8,3,1
 4382                             	.L316:
 443:C:\Users\a5116938\Desktop\e2_studio_workspace\EEMBC_final\RX65N_Cloud_Kit\src/tensorflow/lite/micro\micro_mutable_op_resolver.h ****     // Strictly speaking, the builtin_code is not necessary for TFLM but filling
 4383                             		.loc 3 443 5
 4384 1358 6C 55                   		shll	#5, r5
 4385 135a 66 C2                   		mov.L	#12, r2
 4386 135c 4B 02                   		add	r0, r2
 4387 135e 4B 75                   		add	r7, r5
 4388 1360 75 43 20                		mov.L	#32, r3
 4389 1363 71 51 04                		add	#4, r5, r1
 4390 1366 7F 8F                   		smovf
 449:C:\Users\a5116938\Desktop\e2_studio_workspace\EEMBC_final\RX65N_Cloud_Kit\src/tensorflow/lite/micro\micro_mutable_op_resolver.h ****     builtin_parsers_[num_buitin_ops_] = parser;
 4391                             		.loc 3 449 20
 4392 1368 EE 7A 02 05             		mov.L	5128[r7], r10
 446:C:\Users\a5116938\Desktop\e2_studio_workspace\EEMBC_final\RX65N_Cloud_Kit\src/tensorflow/lite/micro\micro_mutable_op_resolver.h ****     registrations_len_++;
 4393                             		.loc 3 446 5
 4394 136c 3E 56 4C                		mov.L	#0x4c, 24[r5]
 4395 136f FD C2 A5                		shll	#2, r10, r5
 4396 1372 4B 75                   		add	r7, r5
 4397                             		.loc 3 451 5
 4398 1374 62 1A                   		add	#1, r10
 447:C:\Users\a5116938\Desktop\e2_studio_workspace\EEMBC_final\RX65N_Cloud_Kit\src/tensorflow/lite/micro\micro_mutable_op_resolver.h **** 
 4399                             		.loc 3 447 5
 4400 1376 EB 74 01 04             		mov.L	r4, 4100[r7]
 449:C:\Users\a5116938\Desktop\e2_studio_workspace\EEMBC_final\RX65N_Cloud_Kit\src/tensorflow/lite/micro\micro_mutable_op_resolver.h ****     builtin_parsers_[num_buitin_ops_] = parser;
 4401                             		.loc 3 449 5
 4402 137a FA 56 02 04 4C          		mov.L	#0x4c, 4104[r5]
 450:C:\Users\a5116938\Desktop\e2_studio_workspace\EEMBC_final\RX65N_Cloud_Kit\src/tensorflow/lite/micro\micro_mutable_op_resolver.h ****     num_buitin_ops_++;
 4403                             		.loc 3 450 5
 4404 137f FA 52 82 04 00 00 00 00 		mov.L	#__ZN6tflite10ParseRsqrtEPKNS_8OperatorEPNS_13ErrorReporterEPNS_20BuiltinDataAllocatorEPPv, 
 4405                             		.loc 3 451 5
 4406 1387 EB 7A 02 05             		mov.L	r10, 5128[r7]
 4407                             		.balign 8,3,1
 4408                             	.L321:
 4409                             	.LVL378:
 4410                             	.LBE1618:
 4411                             	.LBE1617:
 4412                             	.LBE1616:
 4413                             	.LBE1615:
  73:../src/tensorflow/lite/micro/all_ops_resolver.cc ****   AddShape();
 4414                             		.loc 6 73 3 is_stmt 1
 4415                             	.LBB1636:
 4416                             	.LBB1637:
 348:C:\Users\a5116938\Desktop\e2_studio_workspace\EEMBC_final\RX65N_Cloud_Kit\src/tensorflow/lite/micro\micro_mutable_op_resolver.h ****   }
 4417                             		.loc 3 348 60 is_stmt 0
 4418 138b 66 CF                   		mov.L	#12, r15
 4419 138d 4B 0F                   		add	r0, r15
 4420 138f 05 00 00 00             		bsr	__ZN6tflite14Register_SHAPEEv
 4421                             	.LVL379:
 4422                             	.LBB1638:
 4423                             	.LBB1639:
 4424                             	.LBB1640:
 4425                             	.LBB1641:
  43:C:\Users\a5116938\Desktop\e2_studio_workspace\EEMBC_final\RX65N_Cloud_Kit\src/tensorflow/lite/micro\micro_mutable_op_resolver.h ****       const TfLiteRegistration& registration = registrations_[i];
 4426                             		.loc 3 43 34
 4427 1393 EE 75 01 04             		mov.L	4100[r7], r5
  43:C:\Users\a5116938\Desktop\e2_studio_workspace\EEMBC_final\RX65N_Cloud_Kit\src/tensorflow/lite/micro\micro_mutable_op_resolver.h ****       const TfLiteRegistration& registration = registrations_[i];
 4428                             		.loc 3 43 32
 4429 1397 61 05                   		cmp	#0, r5
 4430 1399 3A F2 11                		beq	.L559
 4431                             	.LVL380:
 4432                             	.LBB1642:
  45:C:\Users\a5116938\Desktop\e2_studio_workspace\EEMBC_final\RX65N_Cloud_Kit\src/tensorflow/lite/micro\micro_mutable_op_resolver.h ****         return &registration;
 4433                             		.loc 3 45 7
 4434 139c ED 7A 06                		mov.L	24[r7], r10
 4435 139f 75 5A 4D                		cmp	#0x4d, r10
 4436 13a2 3A F5 09                		beq	.L323
 4437 13a5 71 73 38                		add	#56, r7, r3
 4438                             	.LBE1642:
  43:C:\Users\a5116938\Desktop\e2_studio_workspace\EEMBC_final\RX65N_Cloud_Kit\src/tensorflow/lite/micro\micro_mutable_op_resolver.h ****       const TfLiteRegistration& registration = registrations_[i];
 4439                             		.loc 3 43 23
 4440 13a8 66 04                   		mov.L	#0, r4
 4441 13aa 2E 0E                   		bra	.L324
 4442                             	.LVL381:
 4443                             	.L1125:
 4444                             	.LBB1643:
  45:C:\Users\a5116938\Desktop\e2_studio_workspace\EEMBC_final\RX65N_Cloud_Kit\src/tensorflow/lite/micro\micro_mutable_op_resolver.h ****         return &registration;
 4445                             		.loc 3 45 24
 4446 13ac 71 3A E0                		add	#-32, r3, r10
  45:C:\Users\a5116938\Desktop\e2_studio_workspace\EEMBC_final\RX65N_Cloud_Kit\src/tensorflow/lite/micro\micro_mutable_op_resolver.h ****         return &registration;
 4447                             		.loc 3 45 7
 4448 13af EC AA                   		mov.L	[r10], r10
 4449 13b1 75 5A 4D                		cmp	#0x4d, r10
 4450 13b4 3A E3 09                		beq	.L323
 4451                             	.LVL382:
 4452 13b7 03                      		.balign 8,3,2
 4453                             	.L324:
 4454 13b8 71 33 20                		add	#32, r3
 4455                             	.LBE1643:
  43:C:\Users\a5116938\Desktop\e2_studio_workspace\EEMBC_final\RX65N_Cloud_Kit\src/tensorflow/lite/micro\micro_mutable_op_resolver.h ****       const TfLiteRegistration& registration = registrations_[i];
 4456                             		.loc 3 43 5
 4457 13bb 62 14                   		add	#1, r4
 4458                             	.LVL383:
  43:C:\Users\a5116938\Desktop\e2_studio_workspace\EEMBC_final\RX65N_Cloud_Kit\src/tensorflow/lite/micro\micro_mutable_op_resolver.h ****       const TfLiteRegistration& registration = registrations_[i];
 4459                             		.loc 3 43 32
 4460 13bd 47 45                   		cmp	r4, r5
 4461 13bf 21 ED                   		bne	.L1125
 4462                             	.LVL384:
 4463                             	.LBE1641:
 4464                             	.LBE1640:
 433:C:\Users\a5116938\Desktop\e2_studio_workspace\EEMBC_final\RX65N_Cloud_Kit\src/tensorflow/lite/micro\micro_mutable_op_resolver.h ****       if (error_reporter_) {
 4465                             		.loc 3 433 5
 4466 13c1 75 55 80                		cmp	#0x80, r5
 4467 13c4 3A 64 0E                		beq	.L426
 4468 13c7 71 54 01                		add	#1, r5, r4
 4469                             		.balign 8,3,1
 4470                             	.L322:
 443:C:\Users\a5116938\Desktop\e2_studio_workspace\EEMBC_final\RX65N_Cloud_Kit\src/tensorflow/lite/micro\micro_mutable_op_resolver.h ****     // Strictly speaking, the builtin_code is not necessary for TFLM but filling
 4471                             		.loc 3 443 5
 4472 13ca 6C 55                   		shll	#5, r5
 4473 13cc 66 C2                   		mov.L	#12, r2
 4474 13ce 4B 02                   		add	r0, r2
 4475 13d0 4B 75                   		add	r7, r5
 4476 13d2 75 43 20                		mov.L	#32, r3
 4477 13d5 71 51 04                		add	#4, r5, r1
 4478 13d8 7F 8F                   		smovf
 449:C:\Users\a5116938\Desktop\e2_studio_workspace\EEMBC_final\RX65N_Cloud_Kit\src/tensorflow/lite/micro\micro_mutable_op_resolver.h ****     builtin_parsers_[num_buitin_ops_] = parser;
 4479                             		.loc 3 449 20
 4480 13da EE 7A 02 05             		mov.L	5128[r7], r10
 446:C:\Users\a5116938\Desktop\e2_studio_workspace\EEMBC_final\RX65N_Cloud_Kit\src/tensorflow/lite/micro\micro_mutable_op_resolver.h ****     registrations_len_++;
 4481                             		.loc 3 446 5
 4482 13de 3E 56 4D                		mov.L	#0x4d, 24[r5]
 4483 13e1 FD C2 A5                		shll	#2, r10, r5
 4484 13e4 4B 75                   		add	r7, r5
 4485                             		.loc 3 451 5
 4486 13e6 62 1A                   		add	#1, r10
 447:C:\Users\a5116938\Desktop\e2_studio_workspace\EEMBC_final\RX65N_Cloud_Kit\src/tensorflow/lite/micro\micro_mutable_op_resolver.h **** 
 4487                             		.loc 3 447 5
 4488 13e8 EB 74 01 04             		mov.L	r4, 4100[r7]
 449:C:\Users\a5116938\Desktop\e2_studio_workspace\EEMBC_final\RX65N_Cloud_Kit\src/tensorflow/lite/micro\micro_mutable_op_resolver.h ****     builtin_parsers_[num_buitin_ops_] = parser;
 4489                             		.loc 3 449 5
 4490 13ec FA 56 02 04 4D          		mov.L	#0x4d, 4104[r5]
 450:C:\Users\a5116938\Desktop\e2_studio_workspace\EEMBC_final\RX65N_Cloud_Kit\src/tensorflow/lite/micro\micro_mutable_op_resolver.h ****     num_buitin_ops_++;
 4491                             		.loc 3 450 5
 4492 13f1 FA 52 82 04 00 00 00 00 		mov.L	#__ZN6tflite10ParseShapeEPKNS_8OperatorEPNS_13ErrorReporterEPNS_20BuiltinDataAllocatorEPPv, 
 4493                             		.loc 3 451 5
 4494 13f9 EB 7A 02 05             		mov.L	r10, 5128[r7]
 4495                             		.balign 8,3,1
 4496                             	.L327:
 4497                             	.LVL385:
 4498                             	.LBE1639:
 4499                             	.LBE1638:
 4500                             	.LBE1637:
 4501                             	.LBE1636:
  74:../src/tensorflow/lite/micro/all_ops_resolver.cc ****   AddSin();
 4502                             		.loc 6 74 3 is_stmt 1
 4503                             	.LBB1657:
 4504                             	.LBB1658:
 352:C:\Users\a5116938\Desktop\e2_studio_workspace\EEMBC_final\RX65N_Cloud_Kit\src/tensorflow/lite/micro\micro_mutable_op_resolver.h ****                       ParseSin);
 4505                             		.loc 3 352 76 is_stmt 0
 4506 13fd 66 CF                   		mov.L	#12, r15
 4507 13ff 4B 0F                   		add	r0, r15
 4508 1401 05 00 00 00             		bsr	__ZN6tflite3ops5micro12Register_SINEv
 4509                             	.LVL386:
 4510                             	.LBB1659:
 4511                             	.LBB1660:
 4512                             	.LBB1661:
 4513                             	.LBB1662:
  43:C:\Users\a5116938\Desktop\e2_studio_workspace\EEMBC_final\RX65N_Cloud_Kit\src/tensorflow/lite/micro\micro_mutable_op_resolver.h ****       const TfLiteRegistration& registration = registrations_[i];
 4514                             		.loc 3 43 34
 4515 1405 EE 75 01 04             		mov.L	4100[r7], r5
  43:C:\Users\a5116938\Desktop\e2_studio_workspace\EEMBC_final\RX65N_Cloud_Kit\src/tensorflow/lite/micro\micro_mutable_op_resolver.h ****       const TfLiteRegistration& registration = registrations_[i];
 4516                             		.loc 3 43 32
 4517 1409 61 05                   		cmp	#0, r5
 4518 140b 3A 8F 11                		beq	.L560
 4519                             	.LVL387:
 4520                             	.LBB1663:
  45:C:\Users\a5116938\Desktop\e2_studio_workspace\EEMBC_final\RX65N_Cloud_Kit\src/tensorflow/lite/micro\micro_mutable_op_resolver.h ****         return &registration;
 4521                             		.loc 3 45 7
 4522 140e ED 7A 06                		mov.L	24[r7], r10
 4523 1411 75 5A 42                		cmp	#0x42, r10
 4524 1414 3A 9C 09                		beq	.L329
 4525 1417 71 73 38                		add	#56, r7, r3
 4526                             	.LBE1663:
  43:C:\Users\a5116938\Desktop\e2_studio_workspace\EEMBC_final\RX65N_Cloud_Kit\src/tensorflow/lite/micro\micro_mutable_op_resolver.h ****       const TfLiteRegistration& registration = registrations_[i];
 4527                             		.loc 3 43 23
 4528 141a 66 04                   		mov.L	#0, r4
 4529 141c 2E 0D                   		bra	.L330
 4530                             	.LVL388:
 4531                             	.L1126:
 4532                             	.LBB1664:
  45:C:\Users\a5116938\Desktop\e2_studio_workspace\EEMBC_final\RX65N_Cloud_Kit\src/tensorflow/lite/micro\micro_mutable_op_resolver.h ****         return &registration;
 4533                             		.loc 3 45 24
 4534 141e 71 3A E0                		add	#-32, r3, r10
  45:C:\Users\a5116938\Desktop\e2_studio_workspace\EEMBC_final\RX65N_Cloud_Kit\src/tensorflow/lite/micro\micro_mutable_op_resolver.h ****         return &registration;
 4535                             		.loc 3 45 7
 4536 1421 EC AA                   		mov.L	[r10], r10
 4537 1423 75 5A 42                		cmp	#0x42, r10
 4538 1426 3A 8A 09                		beq	.L329
 4539                             	.LVL389:
 4540                             		.balign 8,3,2
 4541                             	.L330:
 4542 1429 71 33 20                		add	#32, r3
 4543                             	.LBE1664:
  43:C:\Users\a5116938\Desktop\e2_studio_workspace\EEMBC_final\RX65N_Cloud_Kit\src/tensorflow/lite/micro\micro_mutable_op_resolver.h ****       const TfLiteRegistration& registration = registrations_[i];
 4544                             		.loc 3 43 5
 4545 142c 62 14                   		add	#1, r4
 4546                             	.LVL390:
  43:C:\Users\a5116938\Desktop\e2_studio_workspace\EEMBC_final\RX65N_Cloud_Kit\src/tensorflow/lite/micro\micro_mutable_op_resolver.h ****       const TfLiteRegistration& registration = registrations_[i];
 4547                             		.loc 3 43 32
 4548 142e 47 45                   		cmp	r4, r5
 4549 1430 21 EE                   		bne	.L1126
 4550                             	.LVL391:
 4551                             	.LBE1662:
 4552                             	.LBE1661:
 433:C:\Users\a5116938\Desktop\e2_studio_workspace\EEMBC_final\RX65N_Cloud_Kit\src/tensorflow/lite/micro\micro_mutable_op_resolver.h ****       if (error_reporter_) {
 4553                             		.loc 3 433 5
 4554 1432 75 55 80                		cmp	#0x80, r5
 4555 1435 3A 0E 0E                		beq	.L424
 4556 1438 71 54 01                		add	#1, r5, r4
 4557                             		.balign 8,3,1
 4558                             	.L328:
 443:C:\Users\a5116938\Desktop\e2_studio_workspace\EEMBC_final\RX65N_Cloud_Kit\src/tensorflow/lite/micro\micro_mutable_op_resolver.h ****     // Strictly speaking, the builtin_code is not necessary for TFLM but filling
 4559                             		.loc 3 443 5
 4560 143b 6C 55                   		shll	#5, r5
 4561 143d 66 C2                   		mov.L	#12, r2
 4562 143f 4B 02                   		add	r0, r2
 4563 1441 4B 75                   		add	r7, r5
 4564 1443 75 43 20                		mov.L	#32, r3
 4565 1446 71 51 04                		add	#4, r5, r1
 4566 1449 7F 8F                   		smovf
 449:C:\Users\a5116938\Desktop\e2_studio_workspace\EEMBC_final\RX65N_Cloud_Kit\src/tensorflow/lite/micro\micro_mutable_op_resolver.h ****     builtin_parsers_[num_buitin_ops_] = parser;
 4567                             		.loc 3 449 20
 4568 144b EE 7A 02 05             		mov.L	5128[r7], r10
 446:C:\Users\a5116938\Desktop\e2_studio_workspace\EEMBC_final\RX65N_Cloud_Kit\src/tensorflow/lite/micro\micro_mutable_op_resolver.h ****     registrations_len_++;
 4569                             		.loc 3 446 5
 4570 144f 3E 56 42                		mov.L	#0x42, 24[r5]
 4571 1452 FD C2 A5                		shll	#2, r10, r5
 4572 1455 4B 75                   		add	r7, r5
 4573                             		.loc 3 451 5
 4574 1457 62 1A                   		add	#1, r10
 447:C:\Users\a5116938\Desktop\e2_studio_workspace\EEMBC_final\RX65N_Cloud_Kit\src/tensorflow/lite/micro\micro_mutable_op_resolver.h **** 
 4575                             		.loc 3 447 5
 4576 1459 EB 74 01 04             		mov.L	r4, 4100[r7]
 449:C:\Users\a5116938\Desktop\e2_studio_workspace\EEMBC_final\RX65N_Cloud_Kit\src/tensorflow/lite/micro\micro_mutable_op_resolver.h ****     builtin_parsers_[num_buitin_ops_] = parser;
 4577                             		.loc 3 449 5
 4578 145d FA 56 02 04 42          		mov.L	#0x42, 4104[r5]
 450:C:\Users\a5116938\Desktop\e2_studio_workspace\EEMBC_final\RX65N_Cloud_Kit\src/tensorflow/lite/micro\micro_mutable_op_resolver.h ****     num_buitin_ops_++;
 4579                             		.loc 3 450 5
 4580 1462 FA 52 82 04 00 00 00 00 		mov.L	#__ZN6tflite8ParseSinEPKNS_8OperatorEPNS_13ErrorReporterEPNS_20BuiltinDataAllocatorEPPv, 461
 4581                             		.loc 3 451 5
 4582 146a EB 7A 02 05             		mov.L	r10, 5128[r7]
 4583                             		.balign 8,3,1
 4584                             	.L333:
 4585                             	.LVL392:
 4586                             	.LBE1660:
 4587                             	.LBE1659:
 4588                             	.LBE1658:
 4589                             	.LBE1657:
  75:../src/tensorflow/lite/micro/all_ops_resolver.cc ****   AddSoftmax();
 4590                             		.loc 6 75 3 is_stmt 1
 4591                             	.LBB1678:
 4592                             	.LBB1679:
 357:C:\Users\a5116938\Desktop\e2_studio_workspace\EEMBC_final\RX65N_Cloud_Kit\src/tensorflow/lite/micro\micro_mutable_op_resolver.h ****                       ParseSoftmax);
 4593                             		.loc 3 357 64 is_stmt 0
 4594 146e 66 CF                   		mov.L	#12, r15
 4595 1470 4B 0F                   		add	r0, r15
 4596 1472 05 00 00 00             		bsr	__ZN6tflite16Register_SOFTMAXEv
 4597                             	.LVL393:
 4598                             	.LBB1680:
 4599                             	.LBB1681:
 4600                             	.LBB1682:
 4601                             	.LBB1683:
  43:C:\Users\a5116938\Desktop\e2_studio_workspace\EEMBC_final\RX65N_Cloud_Kit\src/tensorflow/lite/micro\micro_mutable_op_resolver.h ****       const TfLiteRegistration& registration = registrations_[i];
 4602                             		.loc 3 43 34
 4603 1476 EE 75 01 04             		mov.L	4100[r7], r5
  43:C:\Users\a5116938\Desktop\e2_studio_workspace\EEMBC_final\RX65N_Cloud_Kit\src/tensorflow/lite/micro\micro_mutable_op_resolver.h ****       const TfLiteRegistration& registration = registrations_[i];
 4604                             		.loc 3 43 32
 4605 147a 61 05                   		cmp	#0, r5
 4606 147c 3A 37 11                		beq	.L561
 4607                             	.LVL394:
 4608                             	.LBB1684:
  45:C:\Users\a5116938\Desktop\e2_studio_workspace\EEMBC_final\RX65N_Cloud_Kit\src/tensorflow/lite/micro\micro_mutable_op_resolver.h ****         return &registration;
 4609                             		.loc 3 45 7
 4610 147f ED 7A 06                		mov.L	24[r7], r10
 4611 1482 75 5A 19                		cmp	#25, r10
 4612 1485 3A 44 09                		beq	.L335
 4613 1488 71 73 38                		add	#56, r7, r3
 4614                             	.LBE1684:
  43:C:\Users\a5116938\Desktop\e2_studio_workspace\EEMBC_final\RX65N_Cloud_Kit\src/tensorflow/lite/micro\micro_mutable_op_resolver.h ****       const TfLiteRegistration& registration = registrations_[i];
 4615                             		.loc 3 43 23
 4616 148b 66 04                   		mov.L	#0, r4
 4617 148d 2E 0D                   		bra	.L336
 4618                             	.LVL395:
 4619                             	.L1127:
 4620                             	.LBB1685:
  45:C:\Users\a5116938\Desktop\e2_studio_workspace\EEMBC_final\RX65N_Cloud_Kit\src/tensorflow/lite/micro\micro_mutable_op_resolver.h ****         return &registration;
 4621                             		.loc 3 45 24
 4622 148f 71 3A E0                		add	#-32, r3, r10
  45:C:\Users\a5116938\Desktop\e2_studio_workspace\EEMBC_final\RX65N_Cloud_Kit\src/tensorflow/lite/micro\micro_mutable_op_resolver.h ****         return &registration;
 4623                             		.loc 3 45 7
 4624 1492 EC AA                   		mov.L	[r10], r10
 4625 1494 75 5A 19                		cmp	#25, r10
 4626 1497 3A 32 09                		beq	.L335
 4627                             	.LVL396:
 4628                             		.balign 8,3,2
 4629                             	.L336:
 4630 149a 71 33 20                		add	#32, r3
 4631                             	.LBE1685:
  43:C:\Users\a5116938\Desktop\e2_studio_workspace\EEMBC_final\RX65N_Cloud_Kit\src/tensorflow/lite/micro\micro_mutable_op_resolver.h ****       const TfLiteRegistration& registration = registrations_[i];
 4632                             		.loc 3 43 5
 4633 149d 62 14                   		add	#1, r4
 4634                             	.LVL397:
  43:C:\Users\a5116938\Desktop\e2_studio_workspace\EEMBC_final\RX65N_Cloud_Kit\src/tensorflow/lite/micro\micro_mutable_op_resolver.h ****       const TfLiteRegistration& registration = registrations_[i];
 4635                             		.loc 3 43 32
 4636 149f 47 45                   		cmp	r4, r5
 4637 14a1 21 EE                   		bne	.L1127
 4638                             	.LVL398:
 4639                             	.LBE1683:
 4640                             	.LBE1682:
 433:C:\Users\a5116938\Desktop\e2_studio_workspace\EEMBC_final\RX65N_Cloud_Kit\src/tensorflow/lite/micro\micro_mutable_op_resolver.h ****       if (error_reporter_) {
 4641                             		.loc 3 433 5
 4642 14a3 75 55 80                		cmp	#0x80, r5
 4643 14a6 3A B8 0D                		beq	.L421
 4644 14a9 71 54 01                		add	#1, r5, r4
 4645                             		.balign 8,3,1
 4646                             	.L334:
 443:C:\Users\a5116938\Desktop\e2_studio_workspace\EEMBC_final\RX65N_Cloud_Kit\src/tensorflow/lite/micro\micro_mutable_op_resolver.h ****     // Strictly speaking, the builtin_code is not necessary for TFLM but filling
 4647                             		.loc 3 443 5
 4648 14ac 6C 55                   		shll	#5, r5
 4649 14ae 66 C2                   		mov.L	#12, r2
 4650 14b0 4B 02                   		add	r0, r2
 4651 14b2 4B 75                   		add	r7, r5
 4652 14b4 75 43 20                		mov.L	#32, r3
 4653 14b7 71 51 04                		add	#4, r5, r1
 4654 14ba 7F 8F                   		smovf
 449:C:\Users\a5116938\Desktop\e2_studio_workspace\EEMBC_final\RX65N_Cloud_Kit\src/tensorflow/lite/micro\micro_mutable_op_resolver.h ****     builtin_parsers_[num_buitin_ops_] = parser;
 4655                             		.loc 3 449 20
 4656 14bc EE 7A 02 05             		mov.L	5128[r7], r10
 446:C:\Users\a5116938\Desktop\e2_studio_workspace\EEMBC_final\RX65N_Cloud_Kit\src/tensorflow/lite/micro\micro_mutable_op_resolver.h ****     registrations_len_++;
 4657                             		.loc 3 446 5
 4658 14c0 3E 56 19                		mov.L	#25, 24[r5]
 4659 14c3 FD C2 A5                		shll	#2, r10, r5
 4660 14c6 4B 75                   		add	r7, r5
 4661                             		.loc 3 451 5
 4662 14c8 62 1A                   		add	#1, r10
 447:C:\Users\a5116938\Desktop\e2_studio_workspace\EEMBC_final\RX65N_Cloud_Kit\src/tensorflow/lite/micro\micro_mutable_op_resolver.h **** 
 4663                             		.loc 3 447 5
 4664 14ca EB 74 01 04             		mov.L	r4, 4100[r7]
 449:C:\Users\a5116938\Desktop\e2_studio_workspace\EEMBC_final\RX65N_Cloud_Kit\src/tensorflow/lite/micro\micro_mutable_op_resolver.h ****     builtin_parsers_[num_buitin_ops_] = parser;
 4665                             		.loc 3 449 5
 4666 14ce FA 56 02 04 19          		mov.L	#25, 4104[r5]
 450:C:\Users\a5116938\Desktop\e2_studio_workspace\EEMBC_final\RX65N_Cloud_Kit\src/tensorflow/lite/micro\micro_mutable_op_resolver.h ****     num_buitin_ops_++;
 4667                             		.loc 3 450 5
 4668 14d3 FA 52 82 04 00 00 00 00 		mov.L	#__ZN6tflite12ParseSoftmaxEPKNS_8OperatorEPNS_13ErrorReporterEPNS_20BuiltinDataAllocatorEPPv
 4669                             		.loc 3 451 5
 4670 14db EB 7A 02 05             		mov.L	r10, 5128[r7]
 4671 14df 03                      		.balign 8,3,1
 4672                             	.L339:
 4673                             	.LVL399:
 4674                             	.LBE1681:
 4675                             	.LBE1680:
 4676                             	.LBE1679:
 4677                             	.LBE1678:
  76:../src/tensorflow/lite/micro/all_ops_resolver.cc ****   AddSplit();
 4678                             		.loc 6 76 3 is_stmt 1
 4679                             	.LBB1699:
 4680                             	.LBB1700:
 363:C:\Users\a5116938\Desktop\e2_studio_workspace\EEMBC_final\RX65N_Cloud_Kit\src/tensorflow/lite/micro\micro_mutable_op_resolver.h ****   }
 4681                             		.loc 3 363 57 is_stmt 0
 4682 14e0 66 CF                   		mov.L	#12, r15
 4683 14e2 4B 0F                   		add	r0, r15
 4684 14e4 05 00 00 00             		bsr	__ZN6tflite3ops5micro14Register_SPLITEv
 4685                             	.LVL400:
 4686                             	.LBB1701:
 4687                             	.LBB1702:
 4688                             	.LBB1703:
 4689                             	.LBB1704:
  43:C:\Users\a5116938\Desktop\e2_studio_workspace\EEMBC_final\RX65N_Cloud_Kit\src/tensorflow/lite/micro\micro_mutable_op_resolver.h ****       const TfLiteRegistration& registration = registrations_[i];
 4690                             		.loc 3 43 34
 4691 14e8 EE 75 01 04             		mov.L	4100[r7], r5
  43:C:\Users\a5116938\Desktop\e2_studio_workspace\EEMBC_final\RX65N_Cloud_Kit\src/tensorflow/lite/micro\micro_mutable_op_resolver.h ****       const TfLiteRegistration& registration = registrations_[i];
 4692                             		.loc 3 43 32
 4693 14ec 61 05                   		cmp	#0, r5
 4694 14ee 3A CA 10                		beq	.L562
 4695                             	.LVL401:
 4696                             	.LBB1705:
  45:C:\Users\a5116938\Desktop\e2_studio_workspace\EEMBC_final\RX65N_Cloud_Kit\src/tensorflow/lite/micro\micro_mutable_op_resolver.h ****         return &registration;
 4697                             		.loc 3 45 7
 4698 14f1 ED 7A 06                		mov.L	24[r7], r10
 4699 14f4 75 5A 31                		cmp	#49, r10
 4700 14f7 3A EB 08                		beq	.L341
 4701 14fa 71 73 38                		add	#56, r7, r3
 4702                             	.LBE1705:
  43:C:\Users\a5116938\Desktop\e2_studio_workspace\EEMBC_final\RX65N_Cloud_Kit\src/tensorflow/lite/micro\micro_mutable_op_resolver.h ****       const TfLiteRegistration& registration = registrations_[i];
 4703                             		.loc 3 43 23
 4704 14fd 66 04                   		mov.L	#0, r4
 4705 14ff 2E 0D                   		bra	.L342
 4706                             	.LVL402:
 4707                             	.L1128:
 4708                             	.LBB1706:
  45:C:\Users\a5116938\Desktop\e2_studio_workspace\EEMBC_final\RX65N_Cloud_Kit\src/tensorflow/lite/micro\micro_mutable_op_resolver.h ****         return &registration;
 4709                             		.loc 3 45 24
 4710 1501 71 3A E0                		add	#-32, r3, r10
  45:C:\Users\a5116938\Desktop\e2_studio_workspace\EEMBC_final\RX65N_Cloud_Kit\src/tensorflow/lite/micro\micro_mutable_op_resolver.h ****         return &registration;
 4711                             		.loc 3 45 7
 4712 1504 EC AA                   		mov.L	[r10], r10
 4713 1506 75 5A 31                		cmp	#49, r10
 4714 1509 3A D9 08                		beq	.L341
 4715                             	.LVL403:
 4716                             		.balign 8,3,2
 4717                             	.L342:
 4718 150c 71 33 20                		add	#32, r3
 4719                             	.LBE1706:
  43:C:\Users\a5116938\Desktop\e2_studio_workspace\EEMBC_final\RX65N_Cloud_Kit\src/tensorflow/lite/micro\micro_mutable_op_resolver.h ****       const TfLiteRegistration& registration = registrations_[i];
 4720                             		.loc 3 43 5
 4721 150f 62 14                   		add	#1, r4
 4722                             	.LVL404:
  43:C:\Users\a5116938\Desktop\e2_studio_workspace\EEMBC_final\RX65N_Cloud_Kit\src/tensorflow/lite/micro\micro_mutable_op_resolver.h ****       const TfLiteRegistration& registration = registrations_[i];
 4723                             		.loc 3 43 32
 4724 1511 47 45                   		cmp	r4, r5
 4725 1513 21 EE                   		bne	.L1128
 4726                             	.LVL405:
 4727                             	.LBE1704:
 4728                             	.LBE1703:
 433:C:\Users\a5116938\Desktop\e2_studio_workspace\EEMBC_final\RX65N_Cloud_Kit\src/tensorflow/lite/micro\micro_mutable_op_resolver.h ****       if (error_reporter_) {
 4729                             		.loc 3 433 5
 4730 1515 75 55 80                		cmp	#0x80, r5
 4731 1518 3A 61 0D                		beq	.L420
 4732 151b 71 54 01                		add	#1, r5, r4
 4733                             		.balign 8,3,1
 4734                             	.L340:
 443:C:\Users\a5116938\Desktop\e2_studio_workspace\EEMBC_final\RX65N_Cloud_Kit\src/tensorflow/lite/micro\micro_mutable_op_resolver.h ****     // Strictly speaking, the builtin_code is not necessary for TFLM but filling
 4735                             		.loc 3 443 5
 4736 151e 6C 55                   		shll	#5, r5
 4737 1520 66 C2                   		mov.L	#12, r2
 4738 1522 4B 02                   		add	r0, r2
 4739 1524 4B 75                   		add	r7, r5
 4740 1526 75 43 20                		mov.L	#32, r3
 4741 1529 71 51 04                		add	#4, r5, r1
 4742 152c 7F 8F                   		smovf
 449:C:\Users\a5116938\Desktop\e2_studio_workspace\EEMBC_final\RX65N_Cloud_Kit\src/tensorflow/lite/micro\micro_mutable_op_resolver.h ****     builtin_parsers_[num_buitin_ops_] = parser;
 4743                             		.loc 3 449 20
 4744 152e EE 7A 02 05             		mov.L	5128[r7], r10
 446:C:\Users\a5116938\Desktop\e2_studio_workspace\EEMBC_final\RX65N_Cloud_Kit\src/tensorflow/lite/micro\micro_mutable_op_resolver.h ****     registrations_len_++;
 4745                             		.loc 3 446 5
 4746 1532 3E 56 31                		mov.L	#49, 24[r5]
 4747 1535 FD C2 A5                		shll	#2, r10, r5
 4748 1538 4B 75                   		add	r7, r5
 4749                             		.loc 3 451 5
 4750 153a 62 1A                   		add	#1, r10
 447:C:\Users\a5116938\Desktop\e2_studio_workspace\EEMBC_final\RX65N_Cloud_Kit\src/tensorflow/lite/micro\micro_mutable_op_resolver.h **** 
 4751                             		.loc 3 447 5
 4752 153c EB 74 01 04             		mov.L	r4, 4100[r7]
 449:C:\Users\a5116938\Desktop\e2_studio_workspace\EEMBC_final\RX65N_Cloud_Kit\src/tensorflow/lite/micro\micro_mutable_op_resolver.h ****     builtin_parsers_[num_buitin_ops_] = parser;
 4753                             		.loc 3 449 5
 4754 1540 FA 56 02 04 31          		mov.L	#49, 4104[r5]
 450:C:\Users\a5116938\Desktop\e2_studio_workspace\EEMBC_final\RX65N_Cloud_Kit\src/tensorflow/lite/micro\micro_mutable_op_resolver.h ****     num_buitin_ops_++;
 4755                             		.loc 3 450 5
 4756 1545 FA 52 82 04 00 00 00 00 		mov.L	#__ZN6tflite10ParseSplitEPKNS_8OperatorEPNS_13ErrorReporterEPNS_20BuiltinDataAllocatorEPPv, 
 4757                             		.loc 3 451 5
 4758 154d EB 7A 02 05             		mov.L	r10, 5128[r7]
 4759                             		.balign 8,3,1
 4760                             	.L345:
 4761                             	.LVL406:
 4762                             	.LBE1702:
 4763                             	.LBE1701:
 4764                             	.LBE1700:
 4765                             	.LBE1699:
  77:../src/tensorflow/lite/micro/all_ops_resolver.cc ****   AddSplitV();
 4766                             		.loc 6 77 3 is_stmt 1
 4767                             	.LBB1720:
 4768                             	.LBB1721:
 368:C:\Users\a5116938\Desktop\e2_studio_workspace\EEMBC_final\RX65N_Cloud_Kit\src/tensorflow/lite/micro\micro_mutable_op_resolver.h ****   }
 4769                             		.loc 3 368 59 is_stmt 0
 4770 1551 66 CF                   		mov.L	#12, r15
 4771 1553 4B 0F                   		add	r0, r15
 4772 1555 05 00 00 00             		bsr	__ZN6tflite3ops5micro16Register_SPLIT_VEv
 4773                             	.LVL407:
 4774                             	.LBB1722:
 4775                             	.LBB1723:
 4776                             	.LBB1724:
 4777                             	.LBB1725:
  43:C:\Users\a5116938\Desktop\e2_studio_workspace\EEMBC_final\RX65N_Cloud_Kit\src/tensorflow/lite/micro\micro_mutable_op_resolver.h ****       const TfLiteRegistration& registration = registrations_[i];
 4778                             		.loc 3 43 34
 4779 1559 EE 75 01 04             		mov.L	4100[r7], r5
  43:C:\Users\a5116938\Desktop\e2_studio_workspace\EEMBC_final\RX65N_Cloud_Kit\src/tensorflow/lite/micro\micro_mutable_op_resolver.h ****       const TfLiteRegistration& registration = registrations_[i];
 4780                             		.loc 3 43 32
 4781 155d 61 05                   		cmp	#0, r5
 4782 155f 3A 86 10                		beq	.L563
 4783                             	.LVL408:
 4784                             	.LBB1726:
  45:C:\Users\a5116938\Desktop\e2_studio_workspace\EEMBC_final\RX65N_Cloud_Kit\src/tensorflow/lite/micro\micro_mutable_op_resolver.h ****         return &registration;
 4785                             		.loc 3 45 7
 4786 1562 ED 7A 06                		mov.L	24[r7], r10
 4787 1565 75 5A 66                		cmp	#0x66, r10
 4788 1568 3A 93 08                		beq	.L347
 4789 156b 71 73 38                		add	#56, r7, r3
 4790                             	.LBE1726:
  43:C:\Users\a5116938\Desktop\e2_studio_workspace\EEMBC_final\RX65N_Cloud_Kit\src/tensorflow/lite/micro\micro_mutable_op_resolver.h ****       const TfLiteRegistration& registration = registrations_[i];
 4791                             		.loc 3 43 23
 4792 156e 66 04                   		mov.L	#0, r4
 4793 1570 2E 0D                   		bra	.L348
 4794                             	.LVL409:
 4795                             	.L1129:
 4796                             	.LBB1727:
  45:C:\Users\a5116938\Desktop\e2_studio_workspace\EEMBC_final\RX65N_Cloud_Kit\src/tensorflow/lite/micro\micro_mutable_op_resolver.h ****         return &registration;
 4797                             		.loc 3 45 24
 4798 1572 71 3A E0                		add	#-32, r3, r10
  45:C:\Users\a5116938\Desktop\e2_studio_workspace\EEMBC_final\RX65N_Cloud_Kit\src/tensorflow/lite/micro\micro_mutable_op_resolver.h ****         return &registration;
 4799                             		.loc 3 45 7
 4800 1575 EC AA                   		mov.L	[r10], r10
 4801 1577 75 5A 66                		cmp	#0x66, r10
 4802 157a 3A 81 08                		beq	.L347
 4803                             	.LVL410:
 4804                             		.balign 8,3,2
 4805                             	.L348:
 4806 157d 71 33 20                		add	#32, r3
 4807                             	.LBE1727:
  43:C:\Users\a5116938\Desktop\e2_studio_workspace\EEMBC_final\RX65N_Cloud_Kit\src/tensorflow/lite/micro\micro_mutable_op_resolver.h ****       const TfLiteRegistration& registration = registrations_[i];
 4808                             		.loc 3 43 5
 4809 1580 62 14                   		add	#1, r4
 4810                             	.LVL411:
  43:C:\Users\a5116938\Desktop\e2_studio_workspace\EEMBC_final\RX65N_Cloud_Kit\src/tensorflow/lite/micro\micro_mutable_op_resolver.h ****       const TfLiteRegistration& registration = registrations_[i];
 4811                             		.loc 3 43 32
 4812 1582 47 45                   		cmp	r4, r5
 4813 1584 21 EE                   		bne	.L1129
 4814                             	.LVL412:
 4815                             	.LBE1725:
 4816                             	.LBE1724:
 433:C:\Users\a5116938\Desktop\e2_studio_workspace\EEMBC_final\RX65N_Cloud_Kit\src/tensorflow/lite/micro\micro_mutable_op_resolver.h ****       if (error_reporter_) {
 4817                             		.loc 3 433 5
 4818 1586 75 55 80                		cmp	#0x80, r5
 4819 1589 3A 0B 0D                		beq	.L418
 4820 158c 71 54 01                		add	#1, r5, r4
 4821 158f 03                      		.balign 8,3,1
 4822                             	.L346:
 443:C:\Users\a5116938\Desktop\e2_studio_workspace\EEMBC_final\RX65N_Cloud_Kit\src/tensorflow/lite/micro\micro_mutable_op_resolver.h ****     // Strictly speaking, the builtin_code is not necessary for TFLM but filling
 4823                             		.loc 3 443 5
 4824 1590 6C 55                   		shll	#5, r5
 4825 1592 66 C2                   		mov.L	#12, r2
 4826 1594 4B 02                   		add	r0, r2
 4827 1596 4B 75                   		add	r7, r5
 4828 1598 75 43 20                		mov.L	#32, r3
 4829 159b 71 51 04                		add	#4, r5, r1
 4830 159e 7F 8F                   		smovf
 449:C:\Users\a5116938\Desktop\e2_studio_workspace\EEMBC_final\RX65N_Cloud_Kit\src/tensorflow/lite/micro\micro_mutable_op_resolver.h ****     builtin_parsers_[num_buitin_ops_] = parser;
 4831                             		.loc 3 449 20
 4832 15a0 EE 7A 02 05             		mov.L	5128[r7], r10
 446:C:\Users\a5116938\Desktop\e2_studio_workspace\EEMBC_final\RX65N_Cloud_Kit\src/tensorflow/lite/micro\micro_mutable_op_resolver.h ****     registrations_len_++;
 4833                             		.loc 3 446 5
 4834 15a4 3E 56 66                		mov.L	#0x66, 24[r5]
 4835 15a7 FD C2 A5                		shll	#2, r10, r5
 4836 15aa 4B 75                   		add	r7, r5
 4837                             		.loc 3 451 5
 4838 15ac 62 1A                   		add	#1, r10
 447:C:\Users\a5116938\Desktop\e2_studio_workspace\EEMBC_final\RX65N_Cloud_Kit\src/tensorflow/lite/micro\micro_mutable_op_resolver.h **** 
 4839                             		.loc 3 447 5
 4840 15ae EB 74 01 04             		mov.L	r4, 4100[r7]
 449:C:\Users\a5116938\Desktop\e2_studio_workspace\EEMBC_final\RX65N_Cloud_Kit\src/tensorflow/lite/micro\micro_mutable_op_resolver.h ****     builtin_parsers_[num_buitin_ops_] = parser;
 4841                             		.loc 3 449 5
 4842 15b2 FA 56 02 04 66          		mov.L	#0x66, 4104[r5]
 450:C:\Users\a5116938\Desktop\e2_studio_workspace\EEMBC_final\RX65N_Cloud_Kit\src/tensorflow/lite/micro\micro_mutable_op_resolver.h ****     num_buitin_ops_++;
 4843                             		.loc 3 450 5
 4844 15b7 FA 52 82 04 00 00 00 00 		mov.L	#__ZN6tflite11ParseSplitVEPKNS_8OperatorEPNS_13ErrorReporterEPNS_20BuiltinDataAllocatorEPPv,
 4845                             		.loc 3 451 5
 4846 15bf EB 7A 02 05             		mov.L	r10, 5128[r7]
 4847                             		.balign 8,3,1
 4848                             	.L351:
 4849                             	.LVL413:
 4850                             	.LBE1723:
 4851                             	.LBE1722:
 4852                             	.LBE1721:
 4853                             	.LBE1720:
  78:../src/tensorflow/lite/micro/all_ops_resolver.cc ****   AddSqrt();
 4854                             		.loc 6 78 3 is_stmt 1
 4855                             	.LBB1741:
 4856                             	.LBB1742:
 372:C:\Users\a5116938\Desktop\e2_studio_workspace\EEMBC_final\RX65N_Cloud_Kit\src/tensorflow/lite/micro\micro_mutable_op_resolver.h ****                       ParseSqrt);
 4857                             		.loc 3 372 78 is_stmt 0
 4858 15c3 66 CF                   		mov.L	#12, r15
 4859 15c5 4B 0F                   		add	r0, r15
 4860 15c7 05 00 00 00             		bsr	__ZN6tflite3ops5micro13Register_SQRTEv
 4861                             	.LVL414:
 4862                             	.LBB1743:
 4863                             	.LBB1744:
 4864                             	.LBB1745:
 4865                             	.LBB1746:
  43:C:\Users\a5116938\Desktop\e2_studio_workspace\EEMBC_final\RX65N_Cloud_Kit\src/tensorflow/lite/micro\micro_mutable_op_resolver.h ****       const TfLiteRegistration& registration = registrations_[i];
 4866                             		.loc 3 43 34
 4867 15cb EE 75 01 04             		mov.L	4100[r7], r5
  43:C:\Users\a5116938\Desktop\e2_studio_workspace\EEMBC_final\RX65N_Cloud_Kit\src/tensorflow/lite/micro\micro_mutable_op_resolver.h ****       const TfLiteRegistration& registration = registrations_[i];
 4868                             		.loc 3 43 32
 4869 15cf 61 05                   		cmp	#0, r5
 4870 15d1 3A FB 0F                		beq	.L564
 4871                             	.LVL415:
 4872                             	.LBB1747:
  45:C:\Users\a5116938\Desktop\e2_studio_workspace\EEMBC_final\RX65N_Cloud_Kit\src/tensorflow/lite/micro\micro_mutable_op_resolver.h ****         return &registration;
 4873                             		.loc 3 45 7
 4874 15d4 ED 7A 06                		mov.L	24[r7], r10
 4875 15d7 75 5A 4B                		cmp	#0x4b, r10
 4876 15da 3A 3A 08                		beq	.L353
 4877 15dd 71 73 38                		add	#56, r7, r3
 4878                             	.LBE1747:
  43:C:\Users\a5116938\Desktop\e2_studio_workspace\EEMBC_final\RX65N_Cloud_Kit\src/tensorflow/lite/micro\micro_mutable_op_resolver.h ****       const TfLiteRegistration& registration = registrations_[i];
 4879                             		.loc 3 43 23
 4880 15e0 66 04                   		mov.L	#0, r4
 4881 15e2 2E 0E                   		bra	.L354
 4882                             	.LVL416:
 4883                             	.L1130:
 4884                             	.LBB1748:
  45:C:\Users\a5116938\Desktop\e2_studio_workspace\EEMBC_final\RX65N_Cloud_Kit\src/tensorflow/lite/micro\micro_mutable_op_resolver.h ****         return &registration;
 4885                             		.loc 3 45 24
 4886 15e4 71 3A E0                		add	#-32, r3, r10
  45:C:\Users\a5116938\Desktop\e2_studio_workspace\EEMBC_final\RX65N_Cloud_Kit\src/tensorflow/lite/micro\micro_mutable_op_resolver.h ****         return &registration;
 4887                             		.loc 3 45 7
 4888 15e7 EC AA                   		mov.L	[r10], r10
 4889 15e9 75 5A 4B                		cmp	#0x4b, r10
 4890 15ec 3A 28 08                		beq	.L353
 4891                             	.LVL417:
 4892 15ef 03                      		.balign 8,3,2
 4893                             	.L354:
 4894 15f0 71 33 20                		add	#32, r3
 4895                             	.LBE1748:
  43:C:\Users\a5116938\Desktop\e2_studio_workspace\EEMBC_final\RX65N_Cloud_Kit\src/tensorflow/lite/micro\micro_mutable_op_resolver.h ****       const TfLiteRegistration& registration = registrations_[i];
 4896                             		.loc 3 43 5
 4897 15f3 62 14                   		add	#1, r4
 4898                             	.LVL418:
  43:C:\Users\a5116938\Desktop\e2_studio_workspace\EEMBC_final\RX65N_Cloud_Kit\src/tensorflow/lite/micro\micro_mutable_op_resolver.h ****       const TfLiteRegistration& registration = registrations_[i];
 4899                             		.loc 3 43 32
 4900 15f5 47 45                   		cmp	r4, r5
 4901 15f7 21 ED                   		bne	.L1130
 4902                             	.LVL419:
 4903                             	.LBE1746:
 4904                             	.LBE1745:
 433:C:\Users\a5116938\Desktop\e2_studio_workspace\EEMBC_final\RX65N_Cloud_Kit\src/tensorflow/lite/micro\micro_mutable_op_resolver.h ****       if (error_reporter_) {
 4905                             		.loc 3 433 5
 4906 15f9 75 55 80                		cmp	#0x80, r5
 4907 15fc 3A B3 0C                		beq	.L416
 4908 15ff 71 54 01                		add	#1, r5, r4
 4909                             		.balign 8,3,1
 4910                             	.L352:
 443:C:\Users\a5116938\Desktop\e2_studio_workspace\EEMBC_final\RX65N_Cloud_Kit\src/tensorflow/lite/micro\micro_mutable_op_resolver.h ****     // Strictly speaking, the builtin_code is not necessary for TFLM but filling
 4911                             		.loc 3 443 5
 4912 1602 6C 55                   		shll	#5, r5
 4913 1604 66 C2                   		mov.L	#12, r2
 4914 1606 4B 02                   		add	r0, r2
 4915 1608 4B 75                   		add	r7, r5
 4916 160a 75 43 20                		mov.L	#32, r3
 4917 160d 71 51 04                		add	#4, r5, r1
 4918 1610 7F 8F                   		smovf
 449:C:\Users\a5116938\Desktop\e2_studio_workspace\EEMBC_final\RX65N_Cloud_Kit\src/tensorflow/lite/micro\micro_mutable_op_resolver.h ****     builtin_parsers_[num_buitin_ops_] = parser;
 4919                             		.loc 3 449 20
 4920 1612 EE 7A 02 05             		mov.L	5128[r7], r10
 446:C:\Users\a5116938\Desktop\e2_studio_workspace\EEMBC_final\RX65N_Cloud_Kit\src/tensorflow/lite/micro\micro_mutable_op_resolver.h ****     registrations_len_++;
 4921                             		.loc 3 446 5
 4922 1616 3E 56 4B                		mov.L	#0x4b, 24[r5]
 4923 1619 FD C2 A5                		shll	#2, r10, r5
 4924 161c 4B 75                   		add	r7, r5
 4925                             		.loc 3 451 5
 4926 161e 62 1A                   		add	#1, r10
 447:C:\Users\a5116938\Desktop\e2_studio_workspace\EEMBC_final\RX65N_Cloud_Kit\src/tensorflow/lite/micro\micro_mutable_op_resolver.h **** 
 4927                             		.loc 3 447 5
 4928 1620 EB 74 01 04             		mov.L	r4, 4100[r7]
 449:C:\Users\a5116938\Desktop\e2_studio_workspace\EEMBC_final\RX65N_Cloud_Kit\src/tensorflow/lite/micro\micro_mutable_op_resolver.h ****     builtin_parsers_[num_buitin_ops_] = parser;
 4929                             		.loc 3 449 5
 4930 1624 FA 56 02 04 4B          		mov.L	#0x4b, 4104[r5]
 450:C:\Users\a5116938\Desktop\e2_studio_workspace\EEMBC_final\RX65N_Cloud_Kit\src/tensorflow/lite/micro\micro_mutable_op_resolver.h ****     num_buitin_ops_++;
 4931                             		.loc 3 450 5
 4932 1629 FA 52 82 04 00 00 00 00 		mov.L	#__ZN6tflite9ParseSqrtEPKNS_8OperatorEPNS_13ErrorReporterEPNS_20BuiltinDataAllocatorEPPv, 46
 4933                             		.loc 3 451 5
 4934 1631 EB 7A 02 05             		mov.L	r10, 5128[r7]
 4935                             		.balign 8,3,1
 4936                             	.L357:
 4937                             	.LVL420:
 4938                             	.LBE1744:
 4939                             	.LBE1743:
 4940                             	.LBE1742:
 4941                             	.LBE1741:
  79:../src/tensorflow/lite/micro/all_ops_resolver.cc ****   AddSquare();
 4942                             		.loc 6 79 3 is_stmt 1
 4943                             	.LBB1762:
 4944                             	.LBB1763:
 378:C:\Users\a5116938\Desktop\e2_studio_workspace\EEMBC_final\RX65N_Cloud_Kit\src/tensorflow/lite/micro\micro_mutable_op_resolver.h ****   }
 4945                             		.loc 3 378 58 is_stmt 0
 4946 1635 66 CF                   		mov.L	#12, r15
 4947 1637 4B 0F                   		add	r0, r15
 4948 1639 05 00 00 00             		bsr	__ZN6tflite3ops5micro15Register_SQUAREEv
 4949                             	.LVL421:
 4950                             	.LBB1764:
 4951                             	.LBB1765:
 4952                             	.LBB1766:
 4953                             	.LBB1767:
  43:C:\Users\a5116938\Desktop\e2_studio_workspace\EEMBC_final\RX65N_Cloud_Kit\src/tensorflow/lite/micro\micro_mutable_op_resolver.h ****       const TfLiteRegistration& registration = registrations_[i];
 4954                             		.loc 3 43 34
 4955 163d EE 75 01 04             		mov.L	4100[r7], r5
  43:C:\Users\a5116938\Desktop\e2_studio_workspace\EEMBC_final\RX65N_Cloud_Kit\src/tensorflow/lite/micro\micro_mutable_op_resolver.h ****       const TfLiteRegistration& registration = registrations_[i];
 4956                             		.loc 3 43 32
 4957 1641 61 05                   		cmp	#0, r5
 4958 1643 3A 52 0F                		beq	.L565
 4959                             	.LVL422:
 4960                             	.LBB1768:
  45:C:\Users\a5116938\Desktop\e2_studio_workspace\EEMBC_final\RX65N_Cloud_Kit\src/tensorflow/lite/micro\micro_mutable_op_resolver.h ****         return &registration;
 4961                             		.loc 3 45 7
 4962 1646 ED 7A 06                		mov.L	24[r7], r10
 4963 1649 75 5A 5C                		cmp	#0x5c, r10
 4964 164c 3A E1 07                		beq	.L359
 4965 164f 71 73 38                		add	#56, r7, r3
 4966                             	.LBE1768:
  43:C:\Users\a5116938\Desktop\e2_studio_workspace\EEMBC_final\RX65N_Cloud_Kit\src/tensorflow/lite/micro\micro_mutable_op_resolver.h ****       const TfLiteRegistration& registration = registrations_[i];
 4967                             		.loc 3 43 23
 4968 1652 66 04                   		mov.L	#0, r4
 4969 1654 2E 0D                   		bra	.L360
 4970                             	.LVL423:
 4971                             	.L1131:
 4972                             	.LBB1769:
  45:C:\Users\a5116938\Desktop\e2_studio_workspace\EEMBC_final\RX65N_Cloud_Kit\src/tensorflow/lite/micro\micro_mutable_op_resolver.h ****         return &registration;
 4973                             		.loc 3 45 24
 4974 1656 71 3A E0                		add	#-32, r3, r10
  45:C:\Users\a5116938\Desktop\e2_studio_workspace\EEMBC_final\RX65N_Cloud_Kit\src/tensorflow/lite/micro\micro_mutable_op_resolver.h ****         return &registration;
 4975                             		.loc 3 45 7
 4976 1659 EC AA                   		mov.L	[r10], r10
 4977 165b 75 5A 5C                		cmp	#0x5c, r10
 4978 165e 3A CF 07                		beq	.L359
 4979                             	.LVL424:
 4980                             		.balign 8,3,2
 4981                             	.L360:
 4982 1661 71 33 20                		add	#32, r3
 4983                             	.LBE1769:
  43:C:\Users\a5116938\Desktop\e2_studio_workspace\EEMBC_final\RX65N_Cloud_Kit\src/tensorflow/lite/micro\micro_mutable_op_resolver.h ****       const TfLiteRegistration& registration = registrations_[i];
 4984                             		.loc 3 43 5
 4985 1664 62 14                   		add	#1, r4
 4986                             	.LVL425:
  43:C:\Users\a5116938\Desktop\e2_studio_workspace\EEMBC_final\RX65N_Cloud_Kit\src/tensorflow/lite/micro\micro_mutable_op_resolver.h ****       const TfLiteRegistration& registration = registrations_[i];
 4987                             		.loc 3 43 32
 4988 1666 47 45                   		cmp	r4, r5
 4989 1668 21 EE                   		bne	.L1131
 4990                             	.LVL426:
 4991                             	.LBE1767:
 4992                             	.LBE1766:
 433:C:\Users\a5116938\Desktop\e2_studio_workspace\EEMBC_final\RX65N_Cloud_Kit\src/tensorflow/lite/micro\micro_mutable_op_resolver.h ****       if (error_reporter_) {
 4993                             		.loc 3 433 5
 4994 166a 75 55 80                		cmp	#0x80, r5
 4995 166d 3A 5D 0C                		beq	.L413
 4996 1670 71 54 01                		add	#1, r5, r4
 4997                             		.balign 8,3,1
 4998                             	.L358:
 443:C:\Users\a5116938\Desktop\e2_studio_workspace\EEMBC_final\RX65N_Cloud_Kit\src/tensorflow/lite/micro\micro_mutable_op_resolver.h ****     // Strictly speaking, the builtin_code is not necessary for TFLM but filling
 4999                             		.loc 3 443 5
 5000 1673 6C 55                   		shll	#5, r5
 5001 1675 66 C2                   		mov.L	#12, r2
 5002 1677 4B 02                   		add	r0, r2
 5003 1679 4B 75                   		add	r7, r5
 5004 167b 75 43 20                		mov.L	#32, r3
 5005 167e 71 51 04                		add	#4, r5, r1
 5006 1681 7F 8F                   		smovf
 449:C:\Users\a5116938\Desktop\e2_studio_workspace\EEMBC_final\RX65N_Cloud_Kit\src/tensorflow/lite/micro\micro_mutable_op_resolver.h ****     builtin_parsers_[num_buitin_ops_] = parser;
 5007                             		.loc 3 449 20
 5008 1683 EE 7A 02 05             		mov.L	5128[r7], r10
 446:C:\Users\a5116938\Desktop\e2_studio_workspace\EEMBC_final\RX65N_Cloud_Kit\src/tensorflow/lite/micro\micro_mutable_op_resolver.h ****     registrations_len_++;
 5009                             		.loc 3 446 5
 5010 1687 3E 56 5C                		mov.L	#0x5c, 24[r5]
 5011 168a FD C2 A5                		shll	#2, r10, r5
 5012 168d 4B 75                   		add	r7, r5
 5013                             		.loc 3 451 5
 5014 168f 62 1A                   		add	#1, r10
 447:C:\Users\a5116938\Desktop\e2_studio_workspace\EEMBC_final\RX65N_Cloud_Kit\src/tensorflow/lite/micro\micro_mutable_op_resolver.h **** 
 5015                             		.loc 3 447 5
 5016 1691 EB 74 01 04             		mov.L	r4, 4100[r7]
 449:C:\Users\a5116938\Desktop\e2_studio_workspace\EEMBC_final\RX65N_Cloud_Kit\src/tensorflow/lite/micro\micro_mutable_op_resolver.h ****     builtin_parsers_[num_buitin_ops_] = parser;
 5017                             		.loc 3 449 5
 5018 1695 FA 56 02 04 5C          		mov.L	#0x5c, 4104[r5]
 450:C:\Users\a5116938\Desktop\e2_studio_workspace\EEMBC_final\RX65N_Cloud_Kit\src/tensorflow/lite/micro\micro_mutable_op_resolver.h ****     num_buitin_ops_++;
 5019                             		.loc 3 450 5
 5020 169a FA 52 82 04 00 00 00 00 		mov.L	#__ZN6tflite11ParseSquareEPKNS_8OperatorEPNS_13ErrorReporterEPNS_20BuiltinDataAllocatorEPPv,
 5021                             		.loc 3 451 5
 5022 16a2 EB 7A 02 05             		mov.L	r10, 5128[r7]
 5023                             		.balign 8,3,1
 5024                             	.L363:
 5025                             	.LVL427:
 5026                             	.LBE1765:
 5027                             	.LBE1764:
 5028                             	.LBE1763:
 5029                             	.LBE1762:
  80:../src/tensorflow/lite/micro/all_ops_resolver.cc ****   AddStridedSlice();
 5030                             		.loc 6 80 3 is_stmt 1
 5031                             	.LBB1783:
 5032                             	.LBB1784:
 383:C:\Users\a5116938\Desktop\e2_studio_workspace\EEMBC_final\RX65N_Cloud_Kit\src/tensorflow/lite/micro\micro_mutable_op_resolver.h ****                       ParseStridedSlice);
 5033                             		.loc 3 383 65 is_stmt 0
 5034 16a6 66 CF                   		mov.L	#12, r15
 5035 16a8 4B 0F                   		add	r0, r15
 5036 16aa 05 00 00 00             		bsr	__ZN6tflite3ops5micro22Register_STRIDED_SLICEEv
 5037                             	.LVL428:
 5038                             	.LBB1785:
 5039                             	.LBB1786:
 5040                             	.LBB1787:
 5041                             	.LBB1788:
  43:C:\Users\a5116938\Desktop\e2_studio_workspace\EEMBC_final\RX65N_Cloud_Kit\src/tensorflow/lite/micro\micro_mutable_op_resolver.h ****       const TfLiteRegistration& registration = registrations_[i];
 5042                             		.loc 3 43 34
 5043 16ae EE 75 01 04             		mov.L	4100[r7], r5
  43:C:\Users\a5116938\Desktop\e2_studio_workspace\EEMBC_final\RX65N_Cloud_Kit\src/tensorflow/lite/micro\micro_mutable_op_resolver.h ****       const TfLiteRegistration& registration = registrations_[i];
 5044                             		.loc 3 43 32
 5045 16b2 61 05                   		cmp	#0, r5
 5046 16b4 3A 0E 0F                		beq	.L566
 5047                             	.LVL429:
 5048                             	.LBB1789:
  45:C:\Users\a5116938\Desktop\e2_studio_workspace\EEMBC_final\RX65N_Cloud_Kit\src/tensorflow/lite/micro\micro_mutable_op_resolver.h ****         return &registration;
 5049                             		.loc 3 45 7
 5050 16b7 ED 7A 06                		mov.L	24[r7], r10
 5051 16ba 75 5A 2D                		cmp	#45, r10
 5052 16bd 3A 89 07                		beq	.L365
 5053 16c0 71 73 38                		add	#56, r7, r3
 5054                             	.LBE1789:
  43:C:\Users\a5116938\Desktop\e2_studio_workspace\EEMBC_final\RX65N_Cloud_Kit\src/tensorflow/lite/micro\micro_mutable_op_resolver.h ****       const TfLiteRegistration& registration = registrations_[i];
 5055                             		.loc 3 43 23
 5056 16c3 66 04                   		mov.L	#0, r4
 5057 16c5 2E 0D                   		bra	.L366
 5058                             	.LVL430:
 5059                             	.L1132:
 5060                             	.LBB1790:
  45:C:\Users\a5116938\Desktop\e2_studio_workspace\EEMBC_final\RX65N_Cloud_Kit\src/tensorflow/lite/micro\micro_mutable_op_resolver.h ****         return &registration;
 5061                             		.loc 3 45 24
 5062 16c7 71 3A E0                		add	#-32, r3, r10
  45:C:\Users\a5116938\Desktop\e2_studio_workspace\EEMBC_final\RX65N_Cloud_Kit\src/tensorflow/lite/micro\micro_mutable_op_resolver.h ****         return &registration;
 5063                             		.loc 3 45 7
 5064 16ca EC AA                   		mov.L	[r10], r10
 5065 16cc 75 5A 2D                		cmp	#45, r10
 5066 16cf 3A 77 07                		beq	.L365
 5067                             	.LVL431:
 5068                             		.balign 8,3,2
 5069                             	.L366:
 5070 16d2 71 33 20                		add	#32, r3
 5071                             	.LBE1790:
  43:C:\Users\a5116938\Desktop\e2_studio_workspace\EEMBC_final\RX65N_Cloud_Kit\src/tensorflow/lite/micro\micro_mutable_op_resolver.h ****       const TfLiteRegistration& registration = registrations_[i];
 5072                             		.loc 3 43 5
 5073 16d5 62 14                   		add	#1, r4
 5074                             	.LVL432:
  43:C:\Users\a5116938\Desktop\e2_studio_workspace\EEMBC_final\RX65N_Cloud_Kit\src/tensorflow/lite/micro\micro_mutable_op_resolver.h ****       const TfLiteRegistration& registration = registrations_[i];
 5075                             		.loc 3 43 32
 5076 16d7 47 45                   		cmp	r4, r5
 5077 16d9 21 EE                   		bne	.L1132
 5078                             	.LVL433:
 5079                             	.LBE1788:
 5080                             	.LBE1787:
 433:C:\Users\a5116938\Desktop\e2_studio_workspace\EEMBC_final\RX65N_Cloud_Kit\src/tensorflow/lite/micro\micro_mutable_op_resolver.h ****       if (error_reporter_) {
 5081                             		.loc 3 433 5
 5082 16db 75 55 80                		cmp	#0x80, r5
 5083 16de 3A 07 0C                		beq	.L412
 5084 16e1 71 54 01                		add	#1, r5, r4
 5085                             		.balign 8,3,1
 5086                             	.L364:
 443:C:\Users\a5116938\Desktop\e2_studio_workspace\EEMBC_final\RX65N_Cloud_Kit\src/tensorflow/lite/micro\micro_mutable_op_resolver.h ****     // Strictly speaking, the builtin_code is not necessary for TFLM but filling
 5087                             		.loc 3 443 5
 5088 16e4 6C 55                   		shll	#5, r5
 5089 16e6 66 C2                   		mov.L	#12, r2
 5090 16e8 4B 02                   		add	r0, r2
 5091 16ea 4B 75                   		add	r7, r5
 5092 16ec 75 43 20                		mov.L	#32, r3
 5093 16ef 71 51 04                		add	#4, r5, r1
 5094 16f2 7F 8F                   		smovf
 449:C:\Users\a5116938\Desktop\e2_studio_workspace\EEMBC_final\RX65N_Cloud_Kit\src/tensorflow/lite/micro\micro_mutable_op_resolver.h ****     builtin_parsers_[num_buitin_ops_] = parser;
 5095                             		.loc 3 449 20
 5096 16f4 EE 7A 02 05             		mov.L	5128[r7], r10
 446:C:\Users\a5116938\Desktop\e2_studio_workspace\EEMBC_final\RX65N_Cloud_Kit\src/tensorflow/lite/micro\micro_mutable_op_resolver.h ****     registrations_len_++;
 5097                             		.loc 3 446 5
 5098 16f8 3E 56 2D                		mov.L	#45, 24[r5]
 5099 16fb FD C2 A5                		shll	#2, r10, r5
 5100 16fe 4B 75                   		add	r7, r5
 5101                             		.loc 3 451 5
 5102 1700 62 1A                   		add	#1, r10
 447:C:\Users\a5116938\Desktop\e2_studio_workspace\EEMBC_final\RX65N_Cloud_Kit\src/tensorflow/lite/micro\micro_mutable_op_resolver.h **** 
 5103                             		.loc 3 447 5
 5104 1702 EB 74 01 04             		mov.L	r4, 4100[r7]
 449:C:\Users\a5116938\Desktop\e2_studio_workspace\EEMBC_final\RX65N_Cloud_Kit\src/tensorflow/lite/micro\micro_mutable_op_resolver.h ****     builtin_parsers_[num_buitin_ops_] = parser;
 5105                             		.loc 3 449 5
 5106 1706 FA 56 02 04 2D          		mov.L	#45, 4104[r5]
 450:C:\Users\a5116938\Desktop\e2_studio_workspace\EEMBC_final\RX65N_Cloud_Kit\src/tensorflow/lite/micro\micro_mutable_op_resolver.h ****     num_buitin_ops_++;
 5107                             		.loc 3 450 5
 5108 170b FA 52 82 04 00 00 00 00 		mov.L	#__ZN6tflite17ParseStridedSliceEPKNS_8OperatorEPNS_13ErrorReporterEPNS_20BuiltinDataAllocato
 5109                             		.loc 3 451 5
 5110 1713 EB 7A 02 05             		mov.L	r10, 5128[r7]
 5111 1717 03                      		.balign 8,3,1
 5112                             	.L369:
 5113                             	.LVL434:
 5114                             	.LBE1786:
 5115                             	.LBE1785:
 5116                             	.LBE1784:
 5117                             	.LBE1783:
  81:../src/tensorflow/lite/micro/all_ops_resolver.cc ****   AddSub();
 5118                             		.loc 6 81 3 is_stmt 1
 5119                             	.LBB1804:
 5120                             	.LBB1805:
 388:C:\Users\a5116938\Desktop\e2_studio_workspace\EEMBC_final\RX65N_Cloud_Kit\src/tensorflow/lite/micro\micro_mutable_op_resolver.h ****                       ParseSub);
 5121                             		.loc 3 388 76 is_stmt 0
 5122 1718 66 CF                   		mov.L	#12, r15
 5123 171a 4B 0F                   		add	r0, r15
 5124 171c 05 00 00 00             		bsr	__ZN6tflite3ops5micro12Register_SUBEv
 5125                             	.LVL435:
 5126                             	.LBB1806:
 5127                             	.LBB1807:
 5128                             	.LBB1808:
 5129                             	.LBB1809:
  43:C:\Users\a5116938\Desktop\e2_studio_workspace\EEMBC_final\RX65N_Cloud_Kit\src/tensorflow/lite/micro\micro_mutable_op_resolver.h ****       const TfLiteRegistration& registration = registrations_[i];
 5130                             		.loc 3 43 34
 5131 1720 EE 75 01 04             		mov.L	4100[r7], r5
  43:C:\Users\a5116938\Desktop\e2_studio_workspace\EEMBC_final\RX65N_Cloud_Kit\src/tensorflow/lite/micro\micro_mutable_op_resolver.h ****       const TfLiteRegistration& registration = registrations_[i];
 5132                             		.loc 3 43 32
 5133 1724 61 05                   		cmp	#0, r5
 5134 1726 3A A1 0E                		beq	.L567
 5135                             	.LVL436:
 5136                             	.LBB1810:
  45:C:\Users\a5116938\Desktop\e2_studio_workspace\EEMBC_final\RX65N_Cloud_Kit\src/tensorflow/lite/micro\micro_mutable_op_resolver.h ****         return &registration;
 5137                             		.loc 3 45 7
 5138 1729 ED 7A 06                		mov.L	24[r7], r10
 5139 172c 75 5A 29                		cmp	#41, r10
 5140 172f 3A 30 07                		beq	.L371
 5141 1732 71 73 38                		add	#56, r7, r3
 5142                             	.LBE1810:
  43:C:\Users\a5116938\Desktop\e2_studio_workspace\EEMBC_final\RX65N_Cloud_Kit\src/tensorflow/lite/micro\micro_mutable_op_resolver.h ****       const TfLiteRegistration& registration = registrations_[i];
 5143                             		.loc 3 43 23
 5144 1735 66 04                   		mov.L	#0, r4
 5145 1737 2E 0D                   		bra	.L372
 5146                             	.LVL437:
 5147                             	.L1133:
 5148                             	.LBB1811:
  45:C:\Users\a5116938\Desktop\e2_studio_workspace\EEMBC_final\RX65N_Cloud_Kit\src/tensorflow/lite/micro\micro_mutable_op_resolver.h ****         return &registration;
 5149                             		.loc 3 45 24
 5150 1739 71 3A E0                		add	#-32, r3, r10
  45:C:\Users\a5116938\Desktop\e2_studio_workspace\EEMBC_final\RX65N_Cloud_Kit\src/tensorflow/lite/micro\micro_mutable_op_resolver.h ****         return &registration;
 5151                             		.loc 3 45 7
 5152 173c EC AA                   		mov.L	[r10], r10
 5153 173e 75 5A 29                		cmp	#41, r10
 5154 1741 3A 1E 07                		beq	.L371
 5155                             	.LVL438:
 5156                             		.balign 8,3,2
 5157                             	.L372:
 5158 1744 71 33 20                		add	#32, r3
 5159                             	.LBE1811:
  43:C:\Users\a5116938\Desktop\e2_studio_workspace\EEMBC_final\RX65N_Cloud_Kit\src/tensorflow/lite/micro\micro_mutable_op_resolver.h ****       const TfLiteRegistration& registration = registrations_[i];
 5160                             		.loc 3 43 5
 5161 1747 62 14                   		add	#1, r4
 5162                             	.LVL439:
  43:C:\Users\a5116938\Desktop\e2_studio_workspace\EEMBC_final\RX65N_Cloud_Kit\src/tensorflow/lite/micro\micro_mutable_op_resolver.h ****       const TfLiteRegistration& registration = registrations_[i];
 5163                             		.loc 3 43 32
 5164 1749 47 45                   		cmp	r4, r5
 5165 174b 21 EE                   		bne	.L1133
 5166                             	.LVL440:
 5167                             	.LBE1809:
 5168                             	.LBE1808:
 433:C:\Users\a5116938\Desktop\e2_studio_workspace\EEMBC_final\RX65N_Cloud_Kit\src/tensorflow/lite/micro\micro_mutable_op_resolver.h ****       if (error_reporter_) {
 5169                             		.loc 3 433 5
 5170 174d 75 55 80                		cmp	#0x80, r5
 5171 1750 3A B0 0B                		beq	.L410
 5172 1753 71 54 01                		add	#1, r5, r4
 5173                             		.balign 8,3,1
 5174                             	.L370:
 443:C:\Users\a5116938\Desktop\e2_studio_workspace\EEMBC_final\RX65N_Cloud_Kit\src/tensorflow/lite/micro\micro_mutable_op_resolver.h ****     // Strictly speaking, the builtin_code is not necessary for TFLM but filling
 5175                             		.loc 3 443 5
 5176 1756 6C 55                   		shll	#5, r5
 5177 1758 66 C2                   		mov.L	#12, r2
 5178 175a 4B 02                   		add	r0, r2
 5179 175c 4B 75                   		add	r7, r5
 5180 175e 75 43 20                		mov.L	#32, r3
 5181 1761 71 51 04                		add	#4, r5, r1
 5182 1764 7F 8F                   		smovf
 449:C:\Users\a5116938\Desktop\e2_studio_workspace\EEMBC_final\RX65N_Cloud_Kit\src/tensorflow/lite/micro\micro_mutable_op_resolver.h ****     builtin_parsers_[num_buitin_ops_] = parser;
 5183                             		.loc 3 449 20
 5184 1766 EE 7A 02 05             		mov.L	5128[r7], r10
 446:C:\Users\a5116938\Desktop\e2_studio_workspace\EEMBC_final\RX65N_Cloud_Kit\src/tensorflow/lite/micro\micro_mutable_op_resolver.h ****     registrations_len_++;
 5185                             		.loc 3 446 5
 5186 176a 3E 56 29                		mov.L	#41, 24[r5]
 5187 176d FD C2 A5                		shll	#2, r10, r5
 5188 1770 4B 75                   		add	r7, r5
 5189                             		.loc 3 451 5
 5190 1772 62 1A                   		add	#1, r10
 447:C:\Users\a5116938\Desktop\e2_studio_workspace\EEMBC_final\RX65N_Cloud_Kit\src/tensorflow/lite/micro\micro_mutable_op_resolver.h **** 
 5191                             		.loc 3 447 5
 5192 1774 EB 74 01 04             		mov.L	r4, 4100[r7]
 449:C:\Users\a5116938\Desktop\e2_studio_workspace\EEMBC_final\RX65N_Cloud_Kit\src/tensorflow/lite/micro\micro_mutable_op_resolver.h ****     builtin_parsers_[num_buitin_ops_] = parser;
 5193                             		.loc 3 449 5
 5194 1778 FA 56 02 04 29          		mov.L	#41, 4104[r5]
 450:C:\Users\a5116938\Desktop\e2_studio_workspace\EEMBC_final\RX65N_Cloud_Kit\src/tensorflow/lite/micro\micro_mutable_op_resolver.h ****     num_buitin_ops_++;
 5195                             		.loc 3 450 5
 5196 177d FA 52 82 04 00 00 00 00 		mov.L	#__ZN6tflite8ParseSubEPKNS_8OperatorEPNS_13ErrorReporterEPNS_20BuiltinDataAllocatorEPPv, 461
 5197                             		.loc 3 451 5
 5198 1785 EB 7A 02 05             		mov.L	r10, 5128[r7]
 5199                             		.balign 8,3,1
 5200                             	.L375:
 5201                             	.LVL441:
 5202                             	.LBE1807:
 5203                             	.LBE1806:
 5204                             	.LBE1805:
 5205                             	.LBE1804:
  82:../src/tensorflow/lite/micro/all_ops_resolver.cc ****   AddSvdf();
 5206                             		.loc 6 82 3 is_stmt 1
 5207                             	.LBB1825:
 5208                             	.LBB1826:
 393:C:\Users\a5116938\Desktop\e2_studio_workspace\EEMBC_final\RX65N_Cloud_Kit\src/tensorflow/lite/micro\micro_mutable_op_resolver.h ****   }
 5209                             		.loc 3 393 58 is_stmt 0
 5210 1789 66 CF                   		mov.L	#12, r15
 5211 178b 4B 0F                   		add	r0, r15
 5212 178d 05 00 00 00             		bsr	__ZN6tflite13Register_SVDFEv
 5213                             	.LVL442:
 5214                             	.LBB1827:
 5215                             	.LBB1828:
 5216                             	.LBB1829:
 5217                             	.LBB1830:
  43:C:\Users\a5116938\Desktop\e2_studio_workspace\EEMBC_final\RX65N_Cloud_Kit\src/tensorflow/lite/micro\micro_mutable_op_resolver.h ****       const TfLiteRegistration& registration = registrations_[i];
 5218                             		.loc 3 43 34
 5219 1791 EE 75 01 04             		mov.L	4100[r7], r5
  43:C:\Users\a5116938\Desktop\e2_studio_workspace\EEMBC_final\RX65N_Cloud_Kit\src/tensorflow/lite/micro\micro_mutable_op_resolver.h ****       const TfLiteRegistration& registration = registrations_[i];
 5220                             		.loc 3 43 32
 5221 1795 61 05                   		cmp	#0, r5
 5222 1797 3A 17 0E                		beq	.L568
 5223                             	.LVL443:
 5224                             	.LBB1831:
  45:C:\Users\a5116938\Desktop\e2_studio_workspace\EEMBC_final\RX65N_Cloud_Kit\src/tensorflow/lite/micro\micro_mutable_op_resolver.h ****         return &registration;
 5225                             		.loc 3 45 7
 5226 179a ED 7A 06                		mov.L	24[r7], r10
 5227 179d 75 5A 1B                		cmp	#27, r10
 5228 17a0 3A D8 06                		beq	.L377
 5229 17a3 71 73 38                		add	#56, r7, r3
 5230                             	.LBE1831:
  43:C:\Users\a5116938\Desktop\e2_studio_workspace\EEMBC_final\RX65N_Cloud_Kit\src/tensorflow/lite/micro\micro_mutable_op_resolver.h ****       const TfLiteRegistration& registration = registrations_[i];
 5231                             		.loc 3 43 23
 5232 17a6 66 04                   		mov.L	#0, r4
 5233 17a8 2E 0D                   		bra	.L378
 5234                             	.LVL444:
 5235                             	.L1134:
 5236                             	.LBB1832:
  45:C:\Users\a5116938\Desktop\e2_studio_workspace\EEMBC_final\RX65N_Cloud_Kit\src/tensorflow/lite/micro\micro_mutable_op_resolver.h ****         return &registration;
 5237                             		.loc 3 45 24
 5238 17aa 71 3A E0                		add	#-32, r3, r10
  45:C:\Users\a5116938\Desktop\e2_studio_workspace\EEMBC_final\RX65N_Cloud_Kit\src/tensorflow/lite/micro\micro_mutable_op_resolver.h ****         return &registration;
 5239                             		.loc 3 45 7
 5240 17ad EC AA                   		mov.L	[r10], r10
 5241 17af 75 5A 1B                		cmp	#27, r10
 5242 17b2 3A C6 06                		beq	.L377
 5243                             	.LVL445:
 5244                             		.balign 8,3,2
 5245                             	.L378:
 5246 17b5 71 33 20                		add	#32, r3
 5247                             	.LBE1832:
  43:C:\Users\a5116938\Desktop\e2_studio_workspace\EEMBC_final\RX65N_Cloud_Kit\src/tensorflow/lite/micro\micro_mutable_op_resolver.h ****       const TfLiteRegistration& registration = registrations_[i];
 5248                             		.loc 3 43 5
 5249 17b8 62 14                   		add	#1, r4
 5250                             	.LVL446:
  43:C:\Users\a5116938\Desktop\e2_studio_workspace\EEMBC_final\RX65N_Cloud_Kit\src/tensorflow/lite/micro\micro_mutable_op_resolver.h ****       const TfLiteRegistration& registration = registrations_[i];
 5251                             		.loc 3 43 32
 5252 17ba 47 45                   		cmp	r4, r5
 5253 17bc 21 EE                   		bne	.L1134
 5254                             	.LVL447:
 5255                             	.LBE1830:
 5256                             	.LBE1829:
 433:C:\Users\a5116938\Desktop\e2_studio_workspace\EEMBC_final\RX65N_Cloud_Kit\src/tensorflow/lite/micro\micro_mutable_op_resolver.h ****       if (error_reporter_) {
 5257                             		.loc 3 433 5
 5258 17be 75 55 80                		cmp	#0x80, r5
 5259 17c1 3A 5A 0B                		beq	.L407
 5260 17c4 71 54 01                		add	#1, r5, r4
 5261 17c7 03                      		.balign 8,3,1
 5262                             	.L376:
 443:C:\Users\a5116938\Desktop\e2_studio_workspace\EEMBC_final\RX65N_Cloud_Kit\src/tensorflow/lite/micro\micro_mutable_op_resolver.h ****     // Strictly speaking, the builtin_code is not necessary for TFLM but filling
 5263                             		.loc 3 443 5
 5264 17c8 6C 55                   		shll	#5, r5
 5265 17ca 66 C2                   		mov.L	#12, r2
 5266 17cc 4B 02                   		add	r0, r2
 5267 17ce 4B 75                   		add	r7, r5
 5268 17d0 75 43 20                		mov.L	#32, r3
 5269 17d3 71 51 04                		add	#4, r5, r1
 5270 17d6 7F 8F                   		smovf
 449:C:\Users\a5116938\Desktop\e2_studio_workspace\EEMBC_final\RX65N_Cloud_Kit\src/tensorflow/lite/micro\micro_mutable_op_resolver.h ****     builtin_parsers_[num_buitin_ops_] = parser;
 5271                             		.loc 3 449 20
 5272 17d8 EE 7A 02 05             		mov.L	5128[r7], r10
 446:C:\Users\a5116938\Desktop\e2_studio_workspace\EEMBC_final\RX65N_Cloud_Kit\src/tensorflow/lite/micro\micro_mutable_op_resolver.h ****     registrations_len_++;
 5273                             		.loc 3 446 5
 5274 17dc 3E 56 1B                		mov.L	#27, 24[r5]
 5275 17df FD C2 A5                		shll	#2, r10, r5
 5276 17e2 4B 75                   		add	r7, r5
 5277                             		.loc 3 451 5
 5278 17e4 62 1A                   		add	#1, r10
 447:C:\Users\a5116938\Desktop\e2_studio_workspace\EEMBC_final\RX65N_Cloud_Kit\src/tensorflow/lite/micro\micro_mutable_op_resolver.h **** 
 5279                             		.loc 3 447 5
 5280 17e6 EB 74 01 04             		mov.L	r4, 4100[r7]
 449:C:\Users\a5116938\Desktop\e2_studio_workspace\EEMBC_final\RX65N_Cloud_Kit\src/tensorflow/lite/micro\micro_mutable_op_resolver.h ****     builtin_parsers_[num_buitin_ops_] = parser;
 5281                             		.loc 3 449 5
 5282 17ea FA 56 02 04 1B          		mov.L	#27, 4104[r5]
 450:C:\Users\a5116938\Desktop\e2_studio_workspace\EEMBC_final\RX65N_Cloud_Kit\src/tensorflow/lite/micro\micro_mutable_op_resolver.h ****     num_buitin_ops_++;
 5283                             		.loc 3 450 5
 5284 17ef FA 52 82 04 00 00 00 00 		mov.L	#__ZN6tflite9ParseSvdfEPKNS_8OperatorEPNS_13ErrorReporterEPNS_20BuiltinDataAllocatorEPPv, 46
 5285                             		.loc 3 451 5
 5286 17f7 EB 7A 02 05             		mov.L	r10, 5128[r7]
 5287                             		.balign 8,3,1
 5288                             	.L381:
 5289                             	.LVL448:
 5290                             	.LBE1828:
 5291                             	.LBE1827:
 5292                             	.LBE1826:
 5293                             	.LBE1825:
  83:../src/tensorflow/lite/micro/all_ops_resolver.cc ****   AddTanh();
 5294                             		.loc 6 83 3 is_stmt 1
 5295                             	.LBB1846:
 5296                             	.LBB1847:
 397:C:\Users\a5116938\Desktop\e2_studio_workspace\EEMBC_final\RX65N_Cloud_Kit\src/tensorflow/lite/micro\micro_mutable_op_resolver.h ****                       ParseTanh);
 5297                             		.loc 3 397 78 is_stmt 0
 5298 17fb 66 CF                   		mov.L	#12, r15
 5299 17fd 4B 0F                   		add	r0, r15
 5300 17ff 05 00 00 00             		bsr	__ZN6tflite3ops5micro13Register_TANHEv
 5301                             	.LVL449:
 5302                             	.LBB1848:
 5303                             	.LBB1849:
 5304                             	.LBB1850:
 5305                             	.LBB1851:
  43:C:\Users\a5116938\Desktop\e2_studio_workspace\EEMBC_final\RX65N_Cloud_Kit\src/tensorflow/lite/micro\micro_mutable_op_resolver.h ****       const TfLiteRegistration& registration = registrations_[i];
 5306                             		.loc 3 43 34
 5307 1803 EE 75 01 04             		mov.L	4100[r7], r5
  43:C:\Users\a5116938\Desktop\e2_studio_workspace\EEMBC_final\RX65N_Cloud_Kit\src/tensorflow/lite/micro\micro_mutable_op_resolver.h ****       const TfLiteRegistration& registration = registrations_[i];
 5308                             		.loc 3 43 32
 5309 1807 61 05                   		cmp	#0, r5
 5310 1809 3A 1E 0D                		beq	.L569
 5311                             	.LVL450:
 5312                             	.LBB1852:
  45:C:\Users\a5116938\Desktop\e2_studio_workspace\EEMBC_final\RX65N_Cloud_Kit\src/tensorflow/lite/micro\micro_mutable_op_resolver.h ****         return &registration;
 5313                             		.loc 3 45 7
 5314 180c ED 7A 06                		mov.L	24[r7], r10
 5315 180f 75 5A 1C                		cmp	#28, r10
 5316 1812 3A 7F 06                		beq	.L383
 5317 1815 71 73 38                		add	#56, r7, r3
 5318                             	.LBE1852:
  43:C:\Users\a5116938\Desktop\e2_studio_workspace\EEMBC_final\RX65N_Cloud_Kit\src/tensorflow/lite/micro\micro_mutable_op_resolver.h ****       const TfLiteRegistration& registration = registrations_[i];
 5319                             		.loc 3 43 23
 5320 1818 66 04                   		mov.L	#0, r4
 5321 181a 2E 0E                   		bra	.L384
 5322                             	.LVL451:
 5323                             	.L1135:
 5324                             	.LBB1853:
  45:C:\Users\a5116938\Desktop\e2_studio_workspace\EEMBC_final\RX65N_Cloud_Kit\src/tensorflow/lite/micro\micro_mutable_op_resolver.h ****         return &registration;
 5325                             		.loc 3 45 24
 5326 181c 71 3A E0                		add	#-32, r3, r10
  45:C:\Users\a5116938\Desktop\e2_studio_workspace\EEMBC_final\RX65N_Cloud_Kit\src/tensorflow/lite/micro\micro_mutable_op_resolver.h ****         return &registration;
 5327                             		.loc 3 45 7
 5328 181f EC AA                   		mov.L	[r10], r10
 5329 1821 75 5A 1C                		cmp	#28, r10
 5330 1824 3A 6D 06                		beq	.L383
 5331                             	.LVL452:
 5332 1827 03                      		.balign 8,3,2
 5333                             	.L384:
 5334 1828 71 33 20                		add	#32, r3
 5335                             	.LBE1853:
  43:C:\Users\a5116938\Desktop\e2_studio_workspace\EEMBC_final\RX65N_Cloud_Kit\src/tensorflow/lite/micro\micro_mutable_op_resolver.h ****       const TfLiteRegistration& registration = registrations_[i];
 5336                             		.loc 3 43 5
 5337 182b 62 14                   		add	#1, r4
 5338                             	.LVL453:
  43:C:\Users\a5116938\Desktop\e2_studio_workspace\EEMBC_final\RX65N_Cloud_Kit\src/tensorflow/lite/micro\micro_mutable_op_resolver.h ****       const TfLiteRegistration& registration = registrations_[i];
 5339                             		.loc 3 43 32
 5340 182d 47 45                   		cmp	r4, r5
 5341 182f 21 ED                   		bne	.L1135
 5342                             	.LVL454:
 5343                             	.LBE1851:
 5344                             	.LBE1850:
 433:C:\Users\a5116938\Desktop\e2_studio_workspace\EEMBC_final\RX65N_Cloud_Kit\src/tensorflow/lite/micro\micro_mutable_op_resolver.h ****       if (error_reporter_) {
 5345                             		.loc 3 433 5
 5346 1831 75 55 80                		cmp	#0x80, r5
 5347 1834 3A 02 0B                		beq	.L406
 5348 1837 71 54 01                		add	#1, r5, r4
 5349                             		.balign 8,3,1
 5350                             	.L382:
 443:C:\Users\a5116938\Desktop\e2_studio_workspace\EEMBC_final\RX65N_Cloud_Kit\src/tensorflow/lite/micro\micro_mutable_op_resolver.h ****     // Strictly speaking, the builtin_code is not necessary for TFLM but filling
 5351                             		.loc 3 443 5
 5352 183a 6C 55                   		shll	#5, r5
 5353 183c 66 C2                   		mov.L	#12, r2
 5354 183e 4B 02                   		add	r0, r2
 5355 1840 4B 75                   		add	r7, r5
 5356 1842 75 43 20                		mov.L	#32, r3
 5357 1845 71 51 04                		add	#4, r5, r1
 5358 1848 7F 8F                   		smovf
 449:C:\Users\a5116938\Desktop\e2_studio_workspace\EEMBC_final\RX65N_Cloud_Kit\src/tensorflow/lite/micro\micro_mutable_op_resolver.h ****     builtin_parsers_[num_buitin_ops_] = parser;
 5359                             		.loc 3 449 20
 5360 184a EE 7A 02 05             		mov.L	5128[r7], r10
 446:C:\Users\a5116938\Desktop\e2_studio_workspace\EEMBC_final\RX65N_Cloud_Kit\src/tensorflow/lite/micro\micro_mutable_op_resolver.h ****     registrations_len_++;
 5361                             		.loc 3 446 5
 5362 184e 3E 56 1C                		mov.L	#28, 24[r5]
 5363 1851 FD C2 A5                		shll	#2, r10, r5
 5364 1854 4B 75                   		add	r7, r5
 5365                             		.loc 3 451 5
 5366 1856 62 1A                   		add	#1, r10
 447:C:\Users\a5116938\Desktop\e2_studio_workspace\EEMBC_final\RX65N_Cloud_Kit\src/tensorflow/lite/micro\micro_mutable_op_resolver.h **** 
 5367                             		.loc 3 447 5
 5368 1858 EB 74 01 04             		mov.L	r4, 4100[r7]
 449:C:\Users\a5116938\Desktop\e2_studio_workspace\EEMBC_final\RX65N_Cloud_Kit\src/tensorflow/lite/micro\micro_mutable_op_resolver.h ****     builtin_parsers_[num_buitin_ops_] = parser;
 5369                             		.loc 3 449 5
 5370 185c FA 56 02 04 1C          		mov.L	#28, 4104[r5]
 450:C:\Users\a5116938\Desktop\e2_studio_workspace\EEMBC_final\RX65N_Cloud_Kit\src/tensorflow/lite/micro\micro_mutable_op_resolver.h ****     num_buitin_ops_++;
 5371                             		.loc 3 450 5
 5372 1861 FA 52 82 04 00 00 00 00 		mov.L	#__ZN6tflite9ParseTanhEPKNS_8OperatorEPNS_13ErrorReporterEPNS_20BuiltinDataAllocatorEPPv, 46
 5373                             		.loc 3 451 5
 5374 1869 EB 7A 02 05             		mov.L	r10, 5128[r7]
 5375                             		.balign 8,3,1
 5376                             	.L387:
 5377                             	.LVL455:
 5378                             	.LBE1849:
 5379                             	.LBE1848:
 5380                             	.LBE1847:
 5381                             	.LBE1846:
  84:../src/tensorflow/lite/micro/all_ops_resolver.cc ****   AddUnpack();
 5382                             		.loc 6 84 3 is_stmt 1
 5383                             	.LBB1867:
 5384                             	.LBB1868:
 403:C:\Users\a5116938\Desktop\e2_studio_workspace\EEMBC_final\RX65N_Cloud_Kit\src/tensorflow/lite/micro\micro_mutable_op_resolver.h ****   }
 5385                             		.loc 3 403 58 is_stmt 0
 5386 186d 66 CF                   		mov.L	#12, r15
 5387 186f 4B 0F                   		add	r0, r15
 5388 1871 05 00 00 00             		bsr	__ZN6tflite3ops5micro15Register_UNPACKEv
 5389                             	.LVL456:
 5390                             	.LBB1869:
 5391                             	.LBB1870:
 5392                             	.LBB1871:
 5393                             	.LBB1872:
  43:C:\Users\a5116938\Desktop\e2_studio_workspace\EEMBC_final\RX65N_Cloud_Kit\src/tensorflow/lite/micro\micro_mutable_op_resolver.h ****       const TfLiteRegistration& registration = registrations_[i];
 5394                             		.loc 3 43 34
 5395 1875 EE 75 01 04             		mov.L	4100[r7], r5
  43:C:\Users\a5116938\Desktop\e2_studio_workspace\EEMBC_final\RX65N_Cloud_Kit\src/tensorflow/lite/micro\micro_mutable_op_resolver.h ****       const TfLiteRegistration& registration = registrations_[i];
 5396                             		.loc 3 43 32
 5397 1879 61 05                   		cmp	#0, r5
 5398 187b 3A B1 0C                		beq	.L570
 5399                             	.LVL457:
 5400                             	.LBB1873:
  45:C:\Users\a5116938\Desktop\e2_studio_workspace\EEMBC_final\RX65N_Cloud_Kit\src/tensorflow/lite/micro\micro_mutable_op_resolver.h ****         return &registration;
 5401                             		.loc 3 45 7
 5402 187e ED 7A 06                		mov.L	24[r7], r10
 5403 1881 75 5A 58                		cmp	#0x58, r10
 5404 1884 3A 26 06                		beq	.L389
 5405 1887 71 73 38                		add	#56, r7, r3
 5406                             	.LBE1873:
  43:C:\Users\a5116938\Desktop\e2_studio_workspace\EEMBC_final\RX65N_Cloud_Kit\src/tensorflow/lite/micro\micro_mutable_op_resolver.h ****       const TfLiteRegistration& registration = registrations_[i];
 5407                             		.loc 3 43 23
 5408 188a 66 04                   		mov.L	#0, r4
 5409 188c 2E 0D                   		bra	.L390
 5410                             	.LVL458:
 5411                             	.L1136:
 5412                             	.LBB1874:
  45:C:\Users\a5116938\Desktop\e2_studio_workspace\EEMBC_final\RX65N_Cloud_Kit\src/tensorflow/lite/micro\micro_mutable_op_resolver.h ****         return &registration;
 5413                             		.loc 3 45 24
 5414 188e 71 3A E0                		add	#-32, r3, r10
  45:C:\Users\a5116938\Desktop\e2_studio_workspace\EEMBC_final\RX65N_Cloud_Kit\src/tensorflow/lite/micro\micro_mutable_op_resolver.h ****         return &registration;
 5415                             		.loc 3 45 7
 5416 1891 EC AA                   		mov.L	[r10], r10
 5417 1893 75 5A 58                		cmp	#0x58, r10
 5418 1896 3A 14 06                		beq	.L389
 5419                             	.LVL459:
 5420                             		.balign 8,3,2
 5421                             	.L390:
 5422 1899 71 33 20                		add	#32, r3
 5423                             	.LBE1874:
  43:C:\Users\a5116938\Desktop\e2_studio_workspace\EEMBC_final\RX65N_Cloud_Kit\src/tensorflow/lite/micro\micro_mutable_op_resolver.h ****       const TfLiteRegistration& registration = registrations_[i];
 5424                             		.loc 3 43 5
 5425 189c 62 14                   		add	#1, r4
 5426                             	.LVL460:
  43:C:\Users\a5116938\Desktop\e2_studio_workspace\EEMBC_final\RX65N_Cloud_Kit\src/tensorflow/lite/micro\micro_mutable_op_resolver.h ****       const TfLiteRegistration& registration = registrations_[i];
 5427                             		.loc 3 43 32
 5428 189e 47 45                   		cmp	r4, r5
 5429 18a0 21 EE                   		bne	.L1136
 5430                             	.LVL461:
 5431                             	.LBE1872:
 5432                             	.LBE1871:
 433:C:\Users\a5116938\Desktop\e2_studio_workspace\EEMBC_final\RX65N_Cloud_Kit\src/tensorflow/lite/micro\micro_mutable_op_resolver.h ****       if (error_reporter_) {
 5433                             		.loc 3 433 5
 5434 18a2 75 55 80                		cmp	#0x80, r5
 5435 18a5 3A AC 0A                		beq	.L404
 5436 18a8 71 54 01                		add	#1, r5, r4
 5437                             		.balign 8,3,1
 5438                             	.L388:
 443:C:\Users\a5116938\Desktop\e2_studio_workspace\EEMBC_final\RX65N_Cloud_Kit\src/tensorflow/lite/micro\micro_mutable_op_resolver.h ****     // Strictly speaking, the builtin_code is not necessary for TFLM but filling
 5439                             		.loc 3 443 5
 5440 18ab 6C 55                   		shll	#5, r5
 5441 18ad 66 C2                   		mov.L	#12, r2
 5442 18af 4B 02                   		add	r0, r2
 5443 18b1 4B 75                   		add	r7, r5
 5444 18b3 75 43 20                		mov.L	#32, r3
 5445 18b6 71 51 04                		add	#4, r5, r1
 5446 18b9 7F 8F                   		smovf
 449:C:\Users\a5116938\Desktop\e2_studio_workspace\EEMBC_final\RX65N_Cloud_Kit\src/tensorflow/lite/micro\micro_mutable_op_resolver.h ****     builtin_parsers_[num_buitin_ops_] = parser;
 5447                             		.loc 3 449 20
 5448 18bb EE 7A 02 05             		mov.L	5128[r7], r10
 446:C:\Users\a5116938\Desktop\e2_studio_workspace\EEMBC_final\RX65N_Cloud_Kit\src/tensorflow/lite/micro\micro_mutable_op_resolver.h ****     registrations_len_++;
 5449                             		.loc 3 446 5
 5450 18bf 3E 56 58                		mov.L	#0x58, 24[r5]
 5451 18c2 FD C2 A5                		shll	#2, r10, r5
 5452 18c5 4B 75                   		add	r7, r5
 5453                             		.loc 3 451 5
 5454 18c7 62 1A                   		add	#1, r10
 447:C:\Users\a5116938\Desktop\e2_studio_workspace\EEMBC_final\RX65N_Cloud_Kit\src/tensorflow/lite/micro\micro_mutable_op_resolver.h **** 
 5455                             		.loc 3 447 5
 5456 18c9 EB 74 01 04             		mov.L	r4, 4100[r7]
 449:C:\Users\a5116938\Desktop\e2_studio_workspace\EEMBC_final\RX65N_Cloud_Kit\src/tensorflow/lite/micro\micro_mutable_op_resolver.h ****     builtin_parsers_[num_buitin_ops_] = parser;
 5457                             		.loc 3 449 5
 5458 18cd FA 56 02 04 58          		mov.L	#0x58, 4104[r5]
 450:C:\Users\a5116938\Desktop\e2_studio_workspace\EEMBC_final\RX65N_Cloud_Kit\src/tensorflow/lite/micro\micro_mutable_op_resolver.h ****     num_buitin_ops_++;
 5459                             		.loc 3 450 5
 5460 18d2 FA 52 82 04 00 00 00 00 		mov.L	#__ZN6tflite11ParseUnpackEPKNS_8OperatorEPNS_13ErrorReporterEPNS_20BuiltinDataAllocatorEPPv,
 5461                             		.loc 3 451 5
 5462 18da EB 7A 02 05             		mov.L	r10, 5128[r7]
 5463 18de EF 00                   		.balign 8,3,3
 5464                             	.L393:
 5465                             	.LVL462:
 5466                             	.LBE1870:
 5467                             	.LBE1869:
 5468                             	.LBE1868:
 5469                             	.LBE1867:
  85:../src/tensorflow/lite/micro/all_ops_resolver.cc **** 
  86:../src/tensorflow/lite/micro/all_ops_resolver.cc ****   // TODO(b/159644355): Figure out if custom Ops belong in AllOpsResolver.
  87:../src/tensorflow/lite/micro/all_ops_resolver.cc ****   TfLiteRegistration* registration =
 5470                             		.loc 6 87 3 is_stmt 1
  88:../src/tensorflow/lite/micro/all_ops_resolver.cc ****       tflite::ops::micro::custom::Register_ETHOSU();
 5471                             		.loc 6 88 50 is_stmt 0
 5472 18e0 05 00 00 00             		bsr	__ZN6tflite3ops5micro6custom15Register_ETHOSUEv
 5473                             	.LVL463:
  89:../src/tensorflow/lite/micro/all_ops_resolver.cc ****   if (registration) {
 5474                             		.loc 6 89 3
 5475 18e4 71 1A 00                		add	#0, r1, r10
 5476 18e7 20 61                   		beq	.L57
  90:../src/tensorflow/lite/micro/all_ops_resolver.cc ****     AddCustom(tflite::ops::micro::custom::GetString_ETHOSU(), registration);
 5477                             		.loc 6 90 5 is_stmt 1
 5478                             		.loc 6 90 14 is_stmt 0
 5479 18e9 05 00 00 00             		bsr	__ZN6tflite3ops5micro6custom16GetString_ETHOSUEv
 5480                             	.LVL464:
 5481 18ed EF 1E                   		mov.L	r1, r14
 5482                             	.LVL465:
 5483                             	.LBB1888:
 5484                             	.LBB1889:
  79:C:\Users\a5116938\Desktop\e2_studio_workspace\EEMBC_final\RX65N_Cloud_Kit\src/tensorflow/lite/micro\micro_mutable_op_resolver.h ****       if (error_reporter_) {
 5485                             		.loc 3 79 9
 5486 18ef EE 7F 01 04             		mov.L	4100[r7], r15
  79:C:\Users\a5116938\Desktop\e2_studio_workspace\EEMBC_final\RX65N_Cloud_Kit\src/tensorflow/lite/micro\micro_mutable_op_resolver.h ****       if (error_reporter_) {
 5487                             		.loc 3 79 5
 5488 18f3 75 5F 7F                		cmp	#0x7f, r15
 5489 18f6 25 05 38 CB 05          		bgtu	.L1138
 5490                             	.LVL466:
 5491                             	.LBB1890:
 5492                             	.LBB1891:
  53:C:\Users\a5116938\Desktop\e2_studio_workspace\EEMBC_final\RX65N_Cloud_Kit\src/tensorflow/lite/micro\micro_mutable_op_resolver.h ****       const TfLiteRegistration& registration = registrations_[i];
 5493                             		.loc 3 53 32
 5494 18fb 61 0F                   		cmp	#0, r15
 5495 18fd 3A E2 05                		beq	.L398
 5496 1900 71 75 18                		add	#24, r7, r5
 5497 1903 FD C5 F6                		shll	#5, r15, r6
 5498 1906 4B 56                   		add	r5, r6
 5499                             	.LBB1892:
  56:C:\Users\a5116938\Desktop\e2_studio_workspace\EEMBC_final\RX65N_Cloud_Kit\src/tensorflow/lite/micro\micro_mutable_op_resolver.h ****         return &registration;
 5500                             		.loc 3 56 18
 5501 1908 FB B6 FF                		mov.L	#-1, r11
 5502 190b 09                      		bra	.L401
 5503                             	.LVL467:
 5504                             	.L399:
 5505 190c 71 55 20                		add	#32, r5
 5506                             	.LBE1892:
  53:C:\Users\a5116938\Desktop\e2_studio_workspace\EEMBC_final\RX65N_Cloud_Kit\src/tensorflow/lite/micro\micro_mutable_op_resolver.h ****       const TfLiteRegistration& registration = registrations_[i];
 5507                             		.loc 3 53 32
 5508 190f 47 56                   		cmp	r5, r6
 5509 1911 3A CE 05                		beq	.L398
 5510                             		.balign 8,3,1
 5511                             	.L401:
 5512                             	.LBB1893:
  55:C:\Users\a5116938\Desktop\e2_studio_workspace\EEMBC_final\RX65N_Cloud_Kit\src/tensorflow/lite/micro\micro_mutable_op_resolver.h ****           (strcmp(registration.custom_name, op) == 0)) {
 5513                             		.loc 3 55 7
 5514 1914 EC 54                   		mov.L	[r5], r4
 5515 1916 75 54 20                		cmp	#32, r4
 5516 1919 21 F3                   		bne	.L399
  56:C:\Users\a5116938\Desktop\e2_studio_workspace\EEMBC_final\RX65N_Cloud_Kit\src/tensorflow/lite/micro\micro_mutable_op_resolver.h ****         return &registration;
 5517                             		.loc 3 56 18
 5518 191b A8 5C                   		mov.L	4[r5], r4
 5519 191d EF E2                   		mov.L	r14, r2
 5520 191f EF B3                   		mov.L	r11, r3
 5521 1921 EF 41                   		mov.L	r4, r1
 5522 1923 7F 83                   		scmpu		; Perform the string comparison
 5523 1925 FB 46 FF                	   mov     #-1, r4      ; Set up -1 result (which cannot be created
 5524                             	                        ; by the SC insn)
 5525 1928 23 05                   	   bnc	   ?+		; If Carry is not set skip over
 5526 192a FC DB 41                	   scne.L  r4		; Set result based on Z flag
 5527                             	?:
 5528                             	
  55:C:\Users\a5116938\Desktop\e2_studio_workspace\EEMBC_final\RX65N_Cloud_Kit\src/tensorflow/lite/micro\micro_mutable_op_resolver.h ****           (strcmp(registration.custom_name, op) == 0)) {
 5529                             		.loc 3 55 65
 5530 192d 61 04                   		cmp	#0, r4
 5531 192f 21 DD                   		bne	.L399
 5532                             	.LBE1893:
 5533                             	.LBE1891:
 5534                             	.LBE1890:
  90:C:\Users\a5116938\Desktop\e2_studio_workspace\EEMBC_final\RX65N_Cloud_Kit\src/tensorflow/lite/micro\micro_mutable_op_resolver.h ****         TF_LITE_REPORT_ERROR(error_reporter_,
 5535                             		.loc 3 90 11
 5536 1931 EE 71 03 05             		mov.L	5132[r7], r1
  90:C:\Users\a5116938\Desktop\e2_studio_workspace\EEMBC_final\RX65N_Cloud_Kit\src/tensorflow/lite/micro\micro_mutable_op_resolver.h ****         TF_LITE_REPORT_ERROR(error_reporter_,
 5537                             		.loc 3 90 7
 5538 1935 61 01                   		cmp	#0, r1
 5539 1937 20 11                   		beq	.L57
  91:C:\Users\a5116938\Desktop\e2_studio_workspace\EEMBC_final\RX65N_Cloud_Kit\src/tensorflow/lite/micro\micro_mutable_op_resolver.h ****                              "Calling AddCustom for the same op more than once "
 5540                             		.loc 3 91 9
 5541 1939 E7 0E 01                		mov.L	r14, 4[r0]
 5542 193c F8 02 D4 00 00 00       		mov.L	#.LC3, [r0]
 5543 1942 05 00 00 00             		bsr	__ZN6tflite13ErrorReporter6ReportEPKcz
 5544                             	.LVL468:
 5545 1946 EF 00                   		.balign 8,3,2
 5546                             	.L57:
 5547                             	.LBE1889:
 5548                             	.LBE1888:
 5549                             	.LBE2070:
 5550                             	.LBE708:
  91:../src/tensorflow/lite/micro/all_ops_resolver.cc ****   }
  92:../src/tensorflow/lite/micro/all_ops_resolver.cc **** }
 5551                             		.loc 6 92 1
 5552 1948 3F 6B 11                		rtsd	#68, r6-r11
 5553                             	.LVL469:
 5554                             	.L59:
 5555                             	.LBB2074:
 5556                             	.LBB2071:
 5557                             	.LBB1898:
 5558                             	.LBB729:
 5559                             	.LBB725:
 5560                             	.LBB722:
 424:C:\Users\a5116938\Desktop\e2_studio_workspace\EEMBC_final\RX65N_Cloud_Kit\src/tensorflow/lite/micro\micro_mutable_op_resolver.h ****         TF_LITE_REPORT_ERROR(error_reporter_,
 5561                             		.loc 3 424 11
 5562 194b EE 71 03 05             		mov.L	5132[r7], r1
 424:C:\Users\a5116938\Desktop\e2_studio_workspace\EEMBC_final\RX65N_Cloud_Kit\src/tensorflow/lite/micro\micro_mutable_op_resolver.h ****         TF_LITE_REPORT_ERROR(error_reporter_,
 5563                             		.loc 3 424 7
 5564 194f 61 01                   		cmp	#0, r1
 5565 1951 3A 3C E7                		beq	.L63
 425:C:\Users\a5116938\Desktop\e2_studio_workspace\EEMBC_final\RX65N_Cloud_Kit\src/tensorflow/lite/micro\micro_mutable_op_resolver.h ****                              "Calling AddBuiltin with the same op more than "
 5566                             		.loc 3 425 9
 5567 1954 3E 01 65                		mov.L	#0x65, 4[r0]
 5568 1957 F8 02 00 00 00 00       		mov.L	#.LC0, [r0]
 5569 195d 05 00 00 00             		bsr	__ZN6tflite13ErrorReporter6ReportEPKcz
 5570                             	.LVL470:
 5571 1961 38 2C E7                		bra	.L63
 5572                             	.LVL471:
 5573                             	.L65:
 5574                             	.LBE722:
 5575                             	.LBE725:
 5576                             	.LBE729:
 5577                             	.LBE1898:
 5578                             	.LBB1899:
 5579                             	.LBB751:
 5580                             	.LBB748:
 5581                             	.LBB745:
 424:C:\Users\a5116938\Desktop\e2_studio_workspace\EEMBC_final\RX65N_Cloud_Kit\src/tensorflow/lite/micro\micro_mutable_op_resolver.h ****         TF_LITE_REPORT_ERROR(error_reporter_,
 5582                             		.loc 3 424 11
 5583 1964 EE 71 03 05             		mov.L	5132[r7], r1
 424:C:\Users\a5116938\Desktop\e2_studio_workspace\EEMBC_final\RX65N_Cloud_Kit\src/tensorflow/lite/micro\micro_mutable_op_resolver.h ****         TF_LITE_REPORT_ERROR(error_reporter_,
 5584                             		.loc 3 424 7
 5585 1968 61 01                   		cmp	#0, r1
 5586 196a 3A 93 E7                		beq	.L69
 425:C:\Users\a5116938\Desktop\e2_studio_workspace\EEMBC_final\RX65N_Cloud_Kit\src/tensorflow/lite/micro\micro_mutable_op_resolver.h ****                              "Calling AddBuiltin with the same op more than "
 5587                             		.loc 3 425 9
 5588 196d 3E 01 00                		mov.L	#0, 4[r0]
 5589 1970 F8 02 00 00 00 00       		mov.L	#.LC0, [r0]
 5590 1976 05 00 00 00             		bsr	__ZN6tflite13ErrorReporter6ReportEPKcz
 5591                             	.LVL472:
 5592 197a 38 83 E7                		bra	.L69
 5593                             	.LVL473:
 5594                             	.L71:
 5595                             	.LBE745:
 5596                             	.LBE748:
 5597                             	.LBE751:
 5598                             	.LBE1899:
 5599                             	.LBB1900:
 5600                             	.LBB772:
 5601                             	.LBB769:
 5602                             	.LBB766:
 424:C:\Users\a5116938\Desktop\e2_studio_workspace\EEMBC_final\RX65N_Cloud_Kit\src/tensorflow/lite/micro\micro_mutable_op_resolver.h ****         TF_LITE_REPORT_ERROR(error_reporter_,
 5603                             		.loc 3 424 11
 5604 197d EE 71 03 05             		mov.L	5132[r7], r1
 424:C:\Users\a5116938\Desktop\e2_studio_workspace\EEMBC_final\RX65N_Cloud_Kit\src/tensorflow/lite/micro\micro_mutable_op_resolver.h ****         TF_LITE_REPORT_ERROR(error_reporter_,
 5605                             		.loc 3 424 7
 5606 1981 61 01                   		cmp	#0, r1
 5607 1983 3A EB E7                		beq	.L75
 425:C:\Users\a5116938\Desktop\e2_studio_workspace\EEMBC_final\RX65N_Cloud_Kit\src/tensorflow/lite/micro\micro_mutable_op_resolver.h ****                              "Calling AddBuiltin with the same op more than "
 5608                             		.loc 3 425 9
 5609 1986 3E 01 38                		mov.L	#56, 4[r0]
 5610 1989 F8 02 00 00 00 00       		mov.L	#.LC0, [r0]
 5611 198f 05 00 00 00             		bsr	__ZN6tflite13ErrorReporter6ReportEPKcz
 5612                             	.LVL474:
 5613 1993 38 DB E7                		bra	.L75
 5614                             	.LVL475:
 5615                             	.L77:
 5616                             	.LBE766:
 5617                             	.LBE769:
 5618                             	.LBE772:
 5619                             	.LBE1900:
 5620                             	.LBB1901:
 5621                             	.LBB793:
 5622                             	.LBB790:
 5623                             	.LBB787:
 424:C:\Users\a5116938\Desktop\e2_studio_workspace\EEMBC_final\RX65N_Cloud_Kit\src/tensorflow/lite/micro\micro_mutable_op_resolver.h ****         TF_LITE_REPORT_ERROR(error_reporter_,
 5624                             		.loc 3 424 11
 5625 1996 EE 71 03 05             		mov.L	5132[r7], r1
 424:C:\Users\a5116938\Desktop\e2_studio_workspace\EEMBC_final\RX65N_Cloud_Kit\src/tensorflow/lite/micro\micro_mutable_op_resolver.h ****         TF_LITE_REPORT_ERROR(error_reporter_,
 5626                             		.loc 3 424 7
 5627 199a 61 01                   		cmp	#0, r1
 5628 199c 3A 44 E8                		beq	.L81
 425:C:\Users\a5116938\Desktop\e2_studio_workspace\EEMBC_final\RX65N_Cloud_Kit\src/tensorflow/lite/micro\micro_mutable_op_resolver.h ****                              "Calling AddBuiltin with the same op more than "
 5629                             		.loc 3 425 9
 5630 199f 3E 01 4F                		mov.L	#0x4f, 4[r0]
 5631 19a2 F8 02 00 00 00 00       		mov.L	#.LC0, [r0]
 5632 19a8 05 00 00 00             		bsr	__ZN6tflite13ErrorReporter6ReportEPKcz
 5633                             	.LVL476:
 5634 19ac 38 34 E8                		bra	.L81
 5635                             	.LVL477:
 5636                             	.L83:
 5637                             	.LBE787:
 5638                             	.LBE790:
 5639                             	.LBE793:
 5640                             	.LBE1901:
 5641                             	.LBB1902:
 5642                             	.LBB814:
 5643                             	.LBB811:
 5644                             	.LBB808:
 424:C:\Users\a5116938\Desktop\e2_studio_workspace\EEMBC_final\RX65N_Cloud_Kit\src/tensorflow/lite/micro\micro_mutable_op_resolver.h ****         TF_LITE_REPORT_ERROR(error_reporter_,
 5645                             		.loc 3 424 11
 5646 19af EE 71 03 05             		mov.L	5132[r7], r1
 424:C:\Users\a5116938\Desktop\e2_studio_workspace\EEMBC_final\RX65N_Cloud_Kit\src/tensorflow/lite/micro\micro_mutable_op_resolver.h ****         TF_LITE_REPORT_ERROR(error_reporter_,
 5647                             		.loc 3 424 7
 5648 19b3 61 01                   		cmp	#0, r1
 5649 19b5 3A 9B E8                		beq	.L87
 425:C:\Users\a5116938\Desktop\e2_studio_workspace\EEMBC_final\RX65N_Cloud_Kit\src/tensorflow/lite/micro\micro_mutable_op_resolver.h ****                              "Calling AddBuiltin with the same op more than "
 5650                             		.loc 3 425 9
 5651 19b8 3E 01 01                		mov.L	#1, 4[r0]
 5652 19bb F8 02 00 00 00 00       		mov.L	#.LC0, [r0]
 5653 19c1 05 00 00 00             		bsr	__ZN6tflite13ErrorReporter6ReportEPKcz
 5654                             	.LVL478:
 5655 19c5 38 8B E8                		bra	.L87
 5656                             	.LVL479:
 5657                             	.L89:
 5658                             	.LBE808:
 5659                             	.LBE811:
 5660                             	.LBE814:
 5661                             	.LBE1902:
 5662                             	.LBB1903:
 5663                             	.LBB835:
 5664                             	.LBB832:
 5665                             	.LBB829:
 424:C:\Users\a5116938\Desktop\e2_studio_workspace\EEMBC_final\RX65N_Cloud_Kit\src/tensorflow/lite/micro\micro_mutable_op_resolver.h ****         TF_LITE_REPORT_ERROR(error_reporter_,
 5666                             		.loc 3 424 11
 5667 19c8 EE 71 03 05             		mov.L	5132[r7], r1
 424:C:\Users\a5116938\Desktop\e2_studio_workspace\EEMBC_final\RX65N_Cloud_Kit\src/tensorflow/lite/micro\micro_mutable_op_resolver.h ****         TF_LITE_REPORT_ERROR(error_reporter_,
 5668                             		.loc 3 424 7
 5669 19cc 61 01                   		cmp	#0, r1
 5670 19ce 3A F3 E8                		beq	.L93
 425:C:\Users\a5116938\Desktop\e2_studio_workspace\EEMBC_final\RX65N_Cloud_Kit\src/tensorflow/lite/micro\micro_mutable_op_resolver.h ****                              "Calling AddBuiltin with the same op more than "
 5671                             		.loc 3 425 9
 5672 19d1 3E 01 68                		mov.L	#0x68, 4[r0]
 5673 19d4 F8 02 00 00 00 00       		mov.L	#.LC0, [r0]
 5674 19da 05 00 00 00             		bsr	__ZN6tflite13ErrorReporter6ReportEPKcz
 5675                             	.LVL480:
 5676 19de 38 E3 E8                		bra	.L93
 5677                             	.LVL481:
 5678                             	.L95:
 5679                             	.LBE829:
 5680                             	.LBE832:
 5681                             	.LBE835:
 5682                             	.LBE1903:
 5683                             	.LBB1904:
 5684                             	.LBB856:
 5685                             	.LBB853:
 5686                             	.LBB850:
 424:C:\Users\a5116938\Desktop\e2_studio_workspace\EEMBC_final\RX65N_Cloud_Kit\src/tensorflow/lite/micro\micro_mutable_op_resolver.h ****         TF_LITE_REPORT_ERROR(error_reporter_,
 5687                             		.loc 3 424 11
 5688 19e1 EE 71 03 05             		mov.L	5132[r7], r1
 424:C:\Users\a5116938\Desktop\e2_studio_workspace\EEMBC_final\RX65N_Cloud_Kit\src/tensorflow/lite/micro\micro_mutable_op_resolver.h ****         TF_LITE_REPORT_ERROR(error_reporter_,
 5689                             		.loc 3 424 7
 5690 19e5 61 01                   		cmp	#0, r1
 5691 19e7 3A 49 E9                		beq	.L99
 425:C:\Users\a5116938\Desktop\e2_studio_workspace\EEMBC_final\RX65N_Cloud_Kit\src/tensorflow/lite/micro\micro_mutable_op_resolver.h ****                              "Calling AddBuiltin with the same op more than "
 5692                             		.loc 3 425 9
 5693 19ea 3E 01 02                		mov.L	#2, 4[r0]
 5694 19ed F8 02 00 00 00 00       		mov.L	#.LC0, [r0]
 5695 19f3 05 00 00 00             		bsr	__ZN6tflite13ErrorReporter6ReportEPKcz
 5696                             	.LVL482:
 5697 19f7 38 39 E9                		bra	.L99
 5698                             	.LVL483:
 5699                             	.L101:
 5700                             	.LBE850:
 5701                             	.LBE853:
 5702                             	.LBE856:
 5703                             	.LBE1904:
 5704                             	.LBB1905:
 5705                             	.LBB877:
 5706                             	.LBB874:
 5707                             	.LBB871:
 424:C:\Users\a5116938\Desktop\e2_studio_workspace\EEMBC_final\RX65N_Cloud_Kit\src/tensorflow/lite/micro\micro_mutable_op_resolver.h ****         TF_LITE_REPORT_ERROR(error_reporter_,
 5708                             		.loc 3 424 11
 5709 19fa EE 71 03 05             		mov.L	5132[r7], r1
 424:C:\Users\a5116938\Desktop\e2_studio_workspace\EEMBC_final\RX65N_Cloud_Kit\src/tensorflow/lite/micro\micro_mutable_op_resolver.h ****         TF_LITE_REPORT_ERROR(error_reporter_,
 5710                             		.loc 3 424 7
 5711 19fe 61 01                   		cmp	#0, r1
 5712 1a00 3A A0 E9                		beq	.L105
 425:C:\Users\a5116938\Desktop\e2_studio_workspace\EEMBC_final\RX65N_Cloud_Kit\src/tensorflow/lite/micro\micro_mutable_op_resolver.h ****                              "Calling AddBuiltin with the same op more than "
 5713                             		.loc 3 425 9
 5714 1a03 3E 01 03                		mov.L	#3, 4[r0]
 5715 1a06 F8 02 00 00 00 00       		mov.L	#.LC0, [r0]
 5716 1a0c 05 00 00 00             		bsr	__ZN6tflite13ErrorReporter6ReportEPKcz
 5717                             	.LVL484:
 5718 1a10 38 90 E9                		bra	.L105
 5719                             	.LVL485:
 5720                             	.L107:
 5721                             	.LBE871:
 5722                             	.LBE874:
 5723                             	.LBE877:
 5724                             	.LBE1905:
 5725                             	.LBB1906:
 5726                             	.LBB898:
 5727                             	.LBB895:
 5728                             	.LBB892:
 424:C:\Users\a5116938\Desktop\e2_studio_workspace\EEMBC_final\RX65N_Cloud_Kit\src/tensorflow/lite/micro\micro_mutable_op_resolver.h ****         TF_LITE_REPORT_ERROR(error_reporter_,
 5729                             		.loc 3 424 11
 5730 1a13 EE 71 03 05             		mov.L	5132[r7], r1
 424:C:\Users\a5116938\Desktop\e2_studio_workspace\EEMBC_final\RX65N_Cloud_Kit\src/tensorflow/lite/micro\micro_mutable_op_resolver.h ****         TF_LITE_REPORT_ERROR(error_reporter_,
 5731                             		.loc 3 424 7
 5732 1a17 61 01                   		cmp	#0, r1
 5733 1a19 3A F8 E9                		beq	.L111
 425:C:\Users\a5116938\Desktop\e2_studio_workspace\EEMBC_final\RX65N_Cloud_Kit\src/tensorflow/lite/micro\micro_mutable_op_resolver.h ****                              "Calling AddBuiltin with the same op more than "
 5734                             		.loc 3 425 9
 5735 1a1c 3E 01 6C                		mov.L	#0x6c, 4[r0]
 5736 1a1f F8 02 00 00 00 00       		mov.L	#.LC0, [r0]
 5737 1a25 05 00 00 00             		bsr	__ZN6tflite13ErrorReporter6ReportEPKcz
 5738                             	.LVL486:
 5739 1a29 38 E8 E9                		bra	.L111
 5740                             	.LVL487:
 5741                             	.L113:
 5742                             	.LBE892:
 5743                             	.LBE895:
 5744                             	.LBE898:
 5745                             	.LBE1906:
 5746                             	.LBB1907:
 5747                             	.LBB919:
 5748                             	.LBB916:
 5749                             	.LBB913:
 424:C:\Users\a5116938\Desktop\e2_studio_workspace\EEMBC_final\RX65N_Cloud_Kit\src/tensorflow/lite/micro\micro_mutable_op_resolver.h ****         TF_LITE_REPORT_ERROR(error_reporter_,
 5750                             		.loc 3 424 11
 5751 1a2c EE 71 03 05             		mov.L	5132[r7], r1
 424:C:\Users\a5116938\Desktop\e2_studio_workspace\EEMBC_final\RX65N_Cloud_Kit\src/tensorflow/lite/micro\micro_mutable_op_resolver.h ****         TF_LITE_REPORT_ERROR(error_reporter_,
 5752                             		.loc 3 424 7
 5753 1a30 61 01                   		cmp	#0, r1
 5754 1a32 3A 4E EA                		beq	.L117
 425:C:\Users\a5116938\Desktop\e2_studio_workspace\EEMBC_final\RX65N_Cloud_Kit\src/tensorflow/lite/micro\micro_mutable_op_resolver.h ****                              "Calling AddBuiltin with the same op more than "
 5755                             		.loc 3 425 9
 5756 1a35 3E 01 04                		mov.L	#4, 4[r0]
 5757 1a38 F8 02 00 00 00 00       		mov.L	#.LC0, [r0]
 5758 1a3e 05 00 00 00             		bsr	__ZN6tflite13ErrorReporter6ReportEPKcz
 5759                             	.LVL488:
 5760 1a42 38 3E EA                		bra	.L117
 5761                             	.LVL489:
 5762                             	.L119:
 5763                             	.LBE913:
 5764                             	.LBE916:
 5765                             	.LBE919:
 5766                             	.LBE1907:
 5767                             	.LBB1908:
 5768                             	.LBB940:
 5769                             	.LBB937:
 5770                             	.LBB934:
 424:C:\Users\a5116938\Desktop\e2_studio_workspace\EEMBC_final\RX65N_Cloud_Kit\src/tensorflow/lite/micro\micro_mutable_op_resolver.h ****         TF_LITE_REPORT_ERROR(error_reporter_,
 5771                             		.loc 3 424 11
 5772 1a45 EE 71 03 05             		mov.L	5132[r7], r1
 424:C:\Users\a5116938\Desktop\e2_studio_workspace\EEMBC_final\RX65N_Cloud_Kit\src/tensorflow/lite/micro\micro_mutable_op_resolver.h ****         TF_LITE_REPORT_ERROR(error_reporter_,
 5773                             		.loc 3 424 7
 5774 1a49 61 01                   		cmp	#0, r1
 5775 1a4b 3A A5 EA                		beq	.L123
 425:C:\Users\a5116938\Desktop\e2_studio_workspace\EEMBC_final\RX65N_Cloud_Kit\src/tensorflow/lite/micro\micro_mutable_op_resolver.h ****                              "Calling AddBuiltin with the same op more than "
 5776                             		.loc 3 425 9
 5777 1a4e 3E 01 06                		mov.L	#6, 4[r0]
 5778 1a51 F8 02 00 00 00 00       		mov.L	#.LC0, [r0]
 5779 1a57 05 00 00 00             		bsr	__ZN6tflite13ErrorReporter6ReportEPKcz
 5780                             	.LVL490:
 5781 1a5b 38 95 EA                		bra	.L123
 5782                             	.LVL491:
 5783                             	.L125:
 5784                             	.LBE934:
 5785                             	.LBE937:
 5786                             	.LBE940:
 5787                             	.LBE1908:
 5788                             	.LBB1909:
 5789                             	.LBB961:
 5790                             	.LBB958:
 5791                             	.LBB955:
 424:C:\Users\a5116938\Desktop\e2_studio_workspace\EEMBC_final\RX65N_Cloud_Kit\src/tensorflow/lite/micro\micro_mutable_op_resolver.h ****         TF_LITE_REPORT_ERROR(error_reporter_,
 5792                             		.loc 3 424 11
 5793 1a5e EE 71 03 05             		mov.L	5132[r7], r1
 424:C:\Users\a5116938\Desktop\e2_studio_workspace\EEMBC_final\RX65N_Cloud_Kit\src/tensorflow/lite/micro\micro_mutable_op_resolver.h ****         TF_LITE_REPORT_ERROR(error_reporter_,
 5794                             		.loc 3 424 7
 5795 1a62 61 01                   		cmp	#0, r1
 5796 1a64 3A FD EA                		beq	.L129
 425:C:\Users\a5116938\Desktop\e2_studio_workspace\EEMBC_final\RX65N_Cloud_Kit\src/tensorflow/lite/micro\micro_mutable_op_resolver.h ****                              "Calling AddBuiltin with the same op more than "
 5797                             		.loc 3 425 9
 5798 1a67 3E 01 47                		mov.L	#0x47, 4[r0]
 5799 1a6a F8 02 00 00 00 00       		mov.L	#.LC0, [r0]
 5800 1a70 05 00 00 00             		bsr	__ZN6tflite13ErrorReporter6ReportEPKcz
 5801                             	.LVL492:
 5802 1a74 38 ED EA                		bra	.L129
 5803                             	.LVL493:
 5804                             	.L131:
 5805                             	.LBE955:
 5806                             	.LBE958:
 5807                             	.LBE961:
 5808                             	.LBE1909:
 5809                             	.LBB1910:
 5810                             	.LBB982:
 5811                             	.LBB979:
 5812                             	.LBB976:
 424:C:\Users\a5116938\Desktop\e2_studio_workspace\EEMBC_final\RX65N_Cloud_Kit\src/tensorflow/lite/micro\micro_mutable_op_resolver.h ****         TF_LITE_REPORT_ERROR(error_reporter_,
 5813                             		.loc 3 424 11
 5814 1a77 EE 71 03 05             		mov.L	5132[r7], r1
 424:C:\Users\a5116938\Desktop\e2_studio_workspace\EEMBC_final\RX65N_Cloud_Kit\src/tensorflow/lite/micro\micro_mutable_op_resolver.h ****         TF_LITE_REPORT_ERROR(error_reporter_,
 5815                             		.loc 3 424 7
 5816 1a7b 61 01                   		cmp	#0, r1
 5817 1a7d 3A 53 EB                		beq	.L135
 425:C:\Users\a5116938\Desktop\e2_studio_workspace\EEMBC_final\RX65N_Cloud_Kit\src/tensorflow/lite/micro\micro_mutable_op_resolver.h ****                              "Calling AddBuiltin with the same op more than "
 5818                             		.loc 3 425 9
 5819 1a80 3E 01 08                		mov.L	#8, 4[r0]
 5820 1a83 F8 02 00 00 00 00       		mov.L	#.LC0, [r0]
 5821 1a89 05 00 00 00             		bsr	__ZN6tflite13ErrorReporter6ReportEPKcz
 5822                             	.LVL494:
 5823 1a8d 38 43 EB                		bra	.L135
 5824                             	.LVL495:
 5825                             	.L137:
 5826                             	.LBE976:
 5827                             	.LBE979:
 5828                             	.LBE982:
 5829                             	.LBE1910:
 5830                             	.LBB1911:
 5831                             	.LBB1003:
 5832                             	.LBB1000:
 5833                             	.LBB997:
 424:C:\Users\a5116938\Desktop\e2_studio_workspace\EEMBC_final\RX65N_Cloud_Kit\src/tensorflow/lite/micro\micro_mutable_op_resolver.h ****         TF_LITE_REPORT_ERROR(error_reporter_,
 5834                             		.loc 3 424 11
 5835 1a90 EE 71 03 05             		mov.L	5132[r7], r1
 424:C:\Users\a5116938\Desktop\e2_studio_workspace\EEMBC_final\RX65N_Cloud_Kit\src/tensorflow/lite/micro\micro_mutable_op_resolver.h ****         TF_LITE_REPORT_ERROR(error_reporter_,
 5836                             		.loc 3 424 7
 5837 1a94 61 01                   		cmp	#0, r1
 5838 1a96 3A AA EB                		beq	.L141
 425:C:\Users\a5116938\Desktop\e2_studio_workspace\EEMBC_final\RX65N_Cloud_Kit\src/tensorflow/lite/micro\micro_mutable_op_resolver.h ****                              "Calling AddBuiltin with the same op more than "
 5839                             		.loc 3 425 9
 5840 1a99 3E 01 09                		mov.L	#9, 4[r0]
 5841 1a9c F8 02 00 00 00 00       		mov.L	#.LC0, [r0]
 5842 1aa2 05 00 00 00             		bsr	__ZN6tflite13ErrorReporter6ReportEPKcz
 5843                             	.LVL496:
 5844 1aa6 38 9A EB                		bra	.L141
 5845                             	.LVL497:
 5846                             	.L143:
 5847                             	.LBE997:
 5848                             	.LBE1000:
 5849                             	.LBE1003:
 5850                             	.LBE1911:
 5851                             	.LBB1912:
 5852                             	.LBB1024:
 5853                             	.LBB1021:
 5854                             	.LBB1018:
 424:C:\Users\a5116938\Desktop\e2_studio_workspace\EEMBC_final\RX65N_Cloud_Kit\src/tensorflow/lite/micro\micro_mutable_op_resolver.h ****         TF_LITE_REPORT_ERROR(error_reporter_,
 5855                             		.loc 3 424 11
 5856 1aa9 EE 71 03 05             		mov.L	5132[r7], r1
 424:C:\Users\a5116938\Desktop\e2_studio_workspace\EEMBC_final\RX65N_Cloud_Kit\src/tensorflow/lite/micro\micro_mutable_op_resolver.h ****         TF_LITE_REPORT_ERROR(error_reporter_,
 5857                             		.loc 3 424 7
 5858 1aad 61 01                   		cmp	#0, r1
 5859 1aaf 3A 02 EC                		beq	.L147
 425:C:\Users\a5116938\Desktop\e2_studio_workspace\EEMBC_final\RX65N_Cloud_Kit\src/tensorflow/lite/micro\micro_mutable_op_resolver.h ****                              "Calling AddBuiltin with the same op more than "
 5860                             		.loc 3 425 9
 5861 1ab2 3E 01 3D                		mov.L	#61, 4[r0]
 5862 1ab5 F8 02 00 00 00 00       		mov.L	#.LC0, [r0]
 5863 1abb 05 00 00 00             		bsr	__ZN6tflite13ErrorReporter6ReportEPKcz
 5864                             	.LVL498:
 5865 1abf 38 F2 EB                		bra	.L147
 5866                             	.LVL499:
 5867                             	.L149:
 5868                             	.LBE1018:
 5869                             	.LBE1021:
 5870                             	.LBE1024:
 5871                             	.LBE1912:
 5872                             	.LBB1913:
 5873                             	.LBB1045:
 5874                             	.LBB1042:
 5875                             	.LBB1039:
 424:C:\Users\a5116938\Desktop\e2_studio_workspace\EEMBC_final\RX65N_Cloud_Kit\src/tensorflow/lite/micro\micro_mutable_op_resolver.h ****         TF_LITE_REPORT_ERROR(error_reporter_,
 5876                             		.loc 3 424 11
 5877 1ac2 EE 71 03 05             		mov.L	5132[r7], r1
 424:C:\Users\a5116938\Desktop\e2_studio_workspace\EEMBC_final\RX65N_Cloud_Kit\src/tensorflow/lite/micro\micro_mutable_op_resolver.h ****         TF_LITE_REPORT_ERROR(error_reporter_,
 5878                             		.loc 3 424 7
 5879 1ac6 61 01                   		cmp	#0, r1
 5880 1ac8 3A 5B EC                		beq	.L153
 425:C:\Users\a5116938\Desktop\e2_studio_workspace\EEMBC_final\RX65N_Cloud_Kit\src/tensorflow/lite/micro\micro_mutable_op_resolver.h ****                              "Calling AddBuiltin with the same op more than "
 5881                             		.loc 3 425 9
 5882 1acb 3E 01 3E                		mov.L	#62, 4[r0]
 5883 1ace F8 02 00 00 00 00       		mov.L	#.LC0, [r0]
 5884 1ad4 05 00 00 00             		bsr	__ZN6tflite13ErrorReporter6ReportEPKcz
 5885                             	.LVL500:
 5886 1ad8 38 4B EC                		bra	.L153
 5887                             	.LVL501:
 5888                             	.L155:
 5889                             	.LBE1039:
 5890                             	.LBE1042:
 5891                             	.LBE1045:
 5892                             	.LBE1913:
 5893                             	.LBB1914:
 5894                             	.LBB1066:
 5895                             	.LBB1063:
 5896                             	.LBB1060:
 424:C:\Users\a5116938\Desktop\e2_studio_workspace\EEMBC_final\RX65N_Cloud_Kit\src/tensorflow/lite/micro\micro_mutable_op_resolver.h ****         TF_LITE_REPORT_ERROR(error_reporter_,
 5897                             		.loc 3 424 11
 5898 1adb EE 71 03 05             		mov.L	5132[r7], r1
 424:C:\Users\a5116938\Desktop\e2_studio_workspace\EEMBC_final\RX65N_Cloud_Kit\src/tensorflow/lite/micro\micro_mutable_op_resolver.h ****         TF_LITE_REPORT_ERROR(error_reporter_,
 5899                             		.loc 3 424 7
 5900 1adf 61 01                   		cmp	#0, r1
 5901 1ae1 3A B4 EC                		beq	.L159
 425:C:\Users\a5116938\Desktop\e2_studio_workspace\EEMBC_final\RX65N_Cloud_Kit\src/tensorflow/lite/micro\micro_mutable_op_resolver.h ****                              "Calling AddBuiltin with the same op more than "
 5902                             		.loc 3 425 9
 5903 1ae4 3E 01 75                		mov.L	#0x75, 4[r0]
 5904 1ae7 F8 02 00 00 00 00       		mov.L	#.LC0, [r0]
 5905 1aed 05 00 00 00             		bsr	__ZN6tflite13ErrorReporter6ReportEPKcz
 5906                             	.LVL502:
 5907 1af1 38 A4 EC                		bra	.L159
 5908                             	.LVL503:
 5909                             	.L161:
 5910                             	.LBE1060:
 5911                             	.LBE1063:
 5912                             	.LBE1066:
 5913                             	.LBE1914:
 5914                             	.LBB1915:
 5915                             	.LBB1087:
 5916                             	.LBB1084:
 5917                             	.LBB1081:
 424:C:\Users\a5116938\Desktop\e2_studio_workspace\EEMBC_final\RX65N_Cloud_Kit\src/tensorflow/lite/micro\micro_mutable_op_resolver.h ****         TF_LITE_REPORT_ERROR(error_reporter_,
 5918                             		.loc 3 424 11
 5919 1af4 EE 71 03 05             		mov.L	5132[r7], r1
 424:C:\Users\a5116938\Desktop\e2_studio_workspace\EEMBC_final\RX65N_Cloud_Kit\src/tensorflow/lite/micro\micro_mutable_op_resolver.h ****         TF_LITE_REPORT_ERROR(error_reporter_,
 5920                             		.loc 3 424 7
 5921 1af8 61 01                   		cmp	#0, r1
 5922 1afa 3A 0B ED                		beq	.L165
 425:C:\Users\a5116938\Desktop\e2_studio_workspace\EEMBC_final\RX65N_Cloud_Kit\src/tensorflow/lite/micro\micro_mutable_op_resolver.h ****                              "Calling AddBuiltin with the same op more than "
 5923                             		.loc 3 425 9
 5924 1afd 3E 01 0B                		mov.L	#11, 4[r0]
 5925 1b00 F8 02 00 00 00 00       		mov.L	#.LC0, [r0]
 5926 1b06 05 00 00 00             		bsr	__ZN6tflite13ErrorReporter6ReportEPKcz
 5927                             	.LVL504:
 5928 1b0a 38 FB EC                		bra	.L165
 5929                             	.LVL505:
 5930                             	.L167:
 5931                             	.LBE1081:
 5932                             	.LBE1084:
 5933                             	.LBE1087:
 5934                             	.LBE1915:
 5935                             	.LBB1916:
 5936                             	.LBB1108:
 5937                             	.LBB1105:
 5938                             	.LBB1102:
 424:C:\Users\a5116938\Desktop\e2_studio_workspace\EEMBC_final\RX65N_Cloud_Kit\src/tensorflow/lite/micro\micro_mutable_op_resolver.h ****         TF_LITE_REPORT_ERROR(error_reporter_,
 5939                             		.loc 3 424 11
 5940 1b0d EE 71 03 05             		mov.L	5132[r7], r1
 424:C:\Users\a5116938\Desktop\e2_studio_workspace\EEMBC_final\RX65N_Cloud_Kit\src/tensorflow/lite/micro\micro_mutable_op_resolver.h ****         TF_LITE_REPORT_ERROR(error_reporter_,
 5941                             		.loc 3 424 7
 5942 1b11 61 01                   		cmp	#0, r1
 5943 1b13 3A 63 ED                		beq	.L171
 425:C:\Users\a5116938\Desktop\e2_studio_workspace\EEMBC_final\RX65N_Cloud_Kit\src/tensorflow/lite/micro\micro_mutable_op_resolver.h ****                              "Calling AddBuiltin with the same op more than "
 5944                             		.loc 3 425 9
 5945 1b16 3E 01 3A                		mov.L	#58, 4[r0]
 5946 1b19 F8 02 00 00 00 00       		mov.L	#.LC0, [r0]
 5947 1b1f 05 00 00 00             		bsr	__ZN6tflite13ErrorReporter6ReportEPKcz
 5948                             	.LVL506:
 5949 1b23 38 53 ED                		bra	.L171
 5950                             	.LVL507:
 5951                             	.L173:
 5952                             	.LBE1102:
 5953                             	.LBE1105:
 5954                             	.LBE1108:
 5955                             	.LBE1916:
 5956                             	.LBB1917:
 5957                             	.LBB1129:
 5958                             	.LBB1126:
 5959                             	.LBB1123:
 424:C:\Users\a5116938\Desktop\e2_studio_workspace\EEMBC_final\RX65N_Cloud_Kit\src/tensorflow/lite/micro\micro_mutable_op_resolver.h ****         TF_LITE_REPORT_ERROR(error_reporter_,
 5960                             		.loc 3 424 11
 5961 1b26 EE 71 03 05             		mov.L	5132[r7], r1
 424:C:\Users\a5116938\Desktop\e2_studio_workspace\EEMBC_final\RX65N_Cloud_Kit\src/tensorflow/lite/micro\micro_mutable_op_resolver.h ****         TF_LITE_REPORT_ERROR(error_reporter_,
 5962                             		.loc 3 424 7
 5963 1b2a 61 01                   		cmp	#0, r1
 5964 1b2c 3A BC ED                		beq	.L177
 425:C:\Users\a5116938\Desktop\e2_studio_workspace\EEMBC_final\RX65N_Cloud_Kit\src/tensorflow/lite/micro\micro_mutable_op_resolver.h ****                              "Calling AddBuiltin with the same op more than "
 5965                             		.loc 3 425 9
 5966 1b2f 3E 01 3F                		mov.L	#63, 4[r0]
 5967 1b32 F8 02 00 00 00 00       		mov.L	#.LC0, [r0]
 5968 1b38 05 00 00 00             		bsr	__ZN6tflite13ErrorReporter6ReportEPKcz
 5969                             	.LVL508:
 5970 1b3c 38 AC ED                		bra	.L177
 5971                             	.LVL509:
 5972                             	.L179:
 5973                             	.LBE1123:
 5974                             	.LBE1126:
 5975                             	.LBE1129:
 5976                             	.LBE1917:
 5977                             	.LBB1918:
 5978                             	.LBB1150:
 5979                             	.LBB1147:
 5980                             	.LBB1144:
 424:C:\Users\a5116938\Desktop\e2_studio_workspace\EEMBC_final\RX65N_Cloud_Kit\src/tensorflow/lite/micro\micro_mutable_op_resolver.h ****         TF_LITE_REPORT_ERROR(error_reporter_,
 5981                             		.loc 3 424 11
 5982 1b3f EE 71 03 05             		mov.L	5132[r7], r1
 424:C:\Users\a5116938\Desktop\e2_studio_workspace\EEMBC_final\RX65N_Cloud_Kit\src/tensorflow/lite/micro\micro_mutable_op_resolver.h ****         TF_LITE_REPORT_ERROR(error_reporter_,
 5983                             		.loc 3 424 7
 5984 1b43 61 01                   		cmp	#0, r1
 5985 1b45 3A 14 EE                		beq	.L183
 425:C:\Users\a5116938\Desktop\e2_studio_workspace\EEMBC_final\RX65N_Cloud_Kit\src/tensorflow/lite/micro\micro_mutable_op_resolver.h ****                              "Calling AddBuiltin with the same op more than "
 5986                             		.loc 3 425 9
 5987 1b48 3E 01 49                		mov.L	#0x49, 4[r0]
 5988 1b4b F8 02 00 00 00 00       		mov.L	#.LC0, [r0]
 5989 1b51 05 00 00 00             		bsr	__ZN6tflite13ErrorReporter6ReportEPKcz
 5990                             	.LVL510:
 5991 1b55 38 04 EE                		bra	.L183
 5992                             	.LVL511:
 5993                             	.L185:
 5994                             	.LBE1144:
 5995                             	.LBE1147:
 5996                             	.LBE1150:
 5997                             	.LBE1918:
 5998                             	.LBB1919:
 5999                             	.LBB1171:
 6000                             	.LBB1168:
 6001                             	.LBB1165:
 424:C:\Users\a5116938\Desktop\e2_studio_workspace\EEMBC_final\RX65N_Cloud_Kit\src/tensorflow/lite/micro\micro_mutable_op_resolver.h ****         TF_LITE_REPORT_ERROR(error_reporter_,
 6002                             		.loc 3 424 11
 6003 1b58 EE 71 03 05             		mov.L	5132[r7], r1
 424:C:\Users\a5116938\Desktop\e2_studio_workspace\EEMBC_final\RX65N_Cloud_Kit\src/tensorflow/lite/micro\micro_mutable_op_resolver.h ****         TF_LITE_REPORT_ERROR(error_reporter_,
 6004                             		.loc 3 424 7
 6005 1b5c 61 01                   		cmp	#0, r1
 6006 1b5e 3A 6D EE                		beq	.L189
 425:C:\Users\a5116938\Desktop\e2_studio_workspace\EEMBC_final\RX65N_Cloud_Kit\src/tensorflow/lite/micro\micro_mutable_op_resolver.h ****                              "Calling AddBuiltin with the same op more than "
 6007                             		.loc 3 425 9
 6008 1b61 3E 01 56                		mov.L	#0x56, 4[r0]
 6009 1b64 F8 02 00 00 00 00       		mov.L	#.LC0, [r0]
 6010 1b6a 05 00 00 00             		bsr	__ZN6tflite13ErrorReporter6ReportEPKcz
 6011                             	.LVL512:
 6012 1b6e 38 5D EE                		bra	.L189
 6013                             	.LVL513:
 6014                             	.L191:
 6015                             	.LBE1165:
 6016                             	.LBE1168:
 6017                             	.LBE1171:
 6018                             	.LBE1919:
 6019                             	.LBB1920:
 6020                             	.LBB1192:
 6021                             	.LBB1189:
 6022                             	.LBB1186:
 424:C:\Users\a5116938\Desktop\e2_studio_workspace\EEMBC_final\RX65N_Cloud_Kit\src/tensorflow/lite/micro\micro_mutable_op_resolver.h ****         TF_LITE_REPORT_ERROR(error_reporter_,
 6023                             		.loc 3 424 11
 6024 1b71 EE 71 03 05             		mov.L	5132[r7], r1
 424:C:\Users\a5116938\Desktop\e2_studio_workspace\EEMBC_final\RX65N_Cloud_Kit\src/tensorflow/lite/micro\micro_mutable_op_resolver.h ****         TF_LITE_REPORT_ERROR(error_reporter_,
 6025                             		.loc 3 424 7
 6026 1b75 61 01                   		cmp	#0, r1
 6027 1b77 3A C6 EE                		beq	.L195
 425:C:\Users\a5116938\Desktop\e2_studio_workspace\EEMBC_final\RX65N_Cloud_Kit\src/tensorflow/lite/micro\micro_mutable_op_resolver.h ****                              "Calling AddBuiltin with the same op more than "
 6028                             		.loc 3 425 9
 6029 1b7a 3E 01 57                		mov.L	#0x57, 4[r0]
 6030 1b7d F8 02 00 00 00 00       		mov.L	#.LC0, [r0]
 6031 1b83 05 00 00 00             		bsr	__ZN6tflite13ErrorReporter6ReportEPKcz
 6032                             	.LVL514:
 6033 1b87 38 B6 EE                		bra	.L195
 6034                             	.LVL515:
 6035                             	.L197:
 6036                             	.LBE1186:
 6037                             	.LBE1189:
 6038                             	.LBE1192:
 6039                             	.LBE1920:
 6040                             	.LBB1921:
 6041                             	.LBB1213:
 6042                             	.LBB1210:
 6043                             	.LBB1207:
 424:C:\Users\a5116938\Desktop\e2_studio_workspace\EEMBC_final\RX65N_Cloud_Kit\src/tensorflow/lite/micro\micro_mutable_op_resolver.h ****         TF_LITE_REPORT_ERROR(error_reporter_,
 6044                             		.loc 3 424 11
 6045 1b8a EE 71 03 05             		mov.L	5132[r7], r1
 424:C:\Users\a5116938\Desktop\e2_studio_workspace\EEMBC_final\RX65N_Cloud_Kit\src/tensorflow/lite/micro\micro_mutable_op_resolver.h ****         TF_LITE_REPORT_ERROR(error_reporter_,
 6046                             		.loc 3 424 7
 6047 1b8e 61 01                   		cmp	#0, r1
 6048 1b90 3A 1E EF                		beq	.L201
 425:C:\Users\a5116938\Desktop\e2_studio_workspace\EEMBC_final\RX65N_Cloud_Kit\src/tensorflow/lite/micro\micro_mutable_op_resolver.h ****                              "Calling AddBuiltin with the same op more than "
 6049                             		.loc 3 425 9
 6050 1b93 3E 01 54                		mov.L	#0x54, 4[r0]
 6051 1b96 F8 02 00 00 00 00       		mov.L	#.LC0, [r0]
 6052 1b9c 05 00 00 00             		bsr	__ZN6tflite13ErrorReporter6ReportEPKcz
 6053                             	.LVL516:
 6054 1ba0 38 0E EF                		bra	.L201
 6055                             	.LVL517:
 6056                             	.L203:
 6057                             	.LBE1207:
 6058                             	.LBE1210:
 6059                             	.LBE1213:
 6060                             	.LBE1921:
 6061                             	.LBB1922:
 6062                             	.LBB1234:
 6063                             	.LBB1231:
 6064                             	.LBB1228:
 424:C:\Users\a5116938\Desktop\e2_studio_workspace\EEMBC_final\RX65N_Cloud_Kit\src/tensorflow/lite/micro\micro_mutable_op_resolver.h ****         TF_LITE_REPORT_ERROR(error_reporter_,
 6065                             		.loc 3 424 11
 6066 1ba3 EE 71 03 05             		mov.L	5132[r7], r1
 424:C:\Users\a5116938\Desktop\e2_studio_workspace\EEMBC_final\RX65N_Cloud_Kit\src/tensorflow/lite/micro\micro_mutable_op_resolver.h ****         TF_LITE_REPORT_ERROR(error_reporter_,
 6067                             		.loc 3 424 7
 6068 1ba7 61 01                   		cmp	#0, r1
 6069 1ba9 3A 74 EF                		beq	.L207
 425:C:\Users\a5116938\Desktop\e2_studio_workspace\EEMBC_final\RX65N_Cloud_Kit\src/tensorflow/lite/micro\micro_mutable_op_resolver.h ****                              "Calling AddBuiltin with the same op more than "
 6070                             		.loc 3 425 9
 6071 1bac 3E 01 0E                		mov.L	#14, 4[r0]
 6072 1baf F8 02 00 00 00 00       		mov.L	#.LC0, [r0]
 6073 1bb5 05 00 00 00             		bsr	__ZN6tflite13ErrorReporter6ReportEPKcz
 6074                             	.LVL518:
 6075 1bb9 38 64 EF                		bra	.L207
 6076                             	.LVL519:
 6077                             	.L209:
 6078                             	.LBE1228:
 6079                             	.LBE1231:
 6080                             	.LBE1234:
 6081                             	.LBE1922:
 6082                             	.LBB1923:
 6083                             	.LBB1255:
 6084                             	.LBB1252:
 6085                             	.LBB1249:
 424:C:\Users\a5116938\Desktop\e2_studio_workspace\EEMBC_final\RX65N_Cloud_Kit\src/tensorflow/lite/micro\micro_mutable_op_resolver.h ****         TF_LITE_REPORT_ERROR(error_reporter_,
 6086                             		.loc 3 424 11
 6087 1bbc EE 71 03 05             		mov.L	5132[r7], r1
 424:C:\Users\a5116938\Desktop\e2_studio_workspace\EEMBC_final\RX65N_Cloud_Kit\src/tensorflow/lite/micro\micro_mutable_op_resolver.h ****         TF_LITE_REPORT_ERROR(error_reporter_,
 6088                             		.loc 3 424 7
 6089 1bc0 61 01                   		cmp	#0, r1
 6090 1bc2 3A CC EF                		beq	.L213
 425:C:\Users\a5116938\Desktop\e2_studio_workspace\EEMBC_final\RX65N_Cloud_Kit\src/tensorflow/lite/micro\micro_mutable_op_resolver.h ****                              "Calling AddBuiltin with the same op more than "
 6091                             		.loc 3 425 9
 6092 1bc5 3E 01 37                		mov.L	#55, 4[r0]
 6093 1bc8 F8 02 00 00 00 00       		mov.L	#.LC0, [r0]
 6094 1bce 05 00 00 00             		bsr	__ZN6tflite13ErrorReporter6ReportEPKcz
 6095                             	.LVL520:
 6096 1bd2 38 BC EF                		bra	.L213
 6097                             	.LVL521:
 6098                             	.L215:
 6099                             	.LBE1249:
 6100                             	.LBE1252:
 6101                             	.LBE1255:
 6102                             	.LBE1923:
 6103                             	.LBB1924:
 6104                             	.LBB1276:
 6105                             	.LBB1273:
 6106                             	.LBB1270:
 424:C:\Users\a5116938\Desktop\e2_studio_workspace\EEMBC_final\RX65N_Cloud_Kit\src/tensorflow/lite/micro\micro_mutable_op_resolver.h ****         TF_LITE_REPORT_ERROR(error_reporter_,
 6107                             		.loc 3 424 11
 6108 1bd5 EE 71 03 05             		mov.L	5132[r7], r1
 424:C:\Users\a5116938\Desktop\e2_studio_workspace\EEMBC_final\RX65N_Cloud_Kit\src/tensorflow/lite/micro\micro_mutable_op_resolver.h ****         TF_LITE_REPORT_ERROR(error_reporter_,
 6109                             		.loc 3 424 7
 6110 1bd9 61 01                   		cmp	#0, r1
 6111 1bdb 3A 25 F0                		beq	.L219
 425:C:\Users\a5116938\Desktop\e2_studio_workspace\EEMBC_final\RX65N_Cloud_Kit\src/tensorflow/lite/micro\micro_mutable_op_resolver.h ****                              "Calling AddBuiltin with the same op more than "
 6112                             		.loc 3 425 9
 6113 1bde 3E 01 11                		mov.L	#17, 4[r0]
 6114 1be1 F8 02 00 00 00 00       		mov.L	#.LC0, [r0]
 6115 1be7 05 00 00 00             		bsr	__ZN6tflite13ErrorReporter6ReportEPKcz
 6116                             	.LVL522:
 6117 1beb 38 15 F0                		bra	.L219
 6118                             	.LVL523:
 6119                             	.L221:
 6120                             	.LBE1270:
 6121                             	.LBE1273:
 6122                             	.LBE1276:
 6123                             	.LBE1924:
 6124                             	.LBB1925:
 6125                             	.LBB1297:
 6126                             	.LBB1294:
 6127                             	.LBB1291:
 424:C:\Users\a5116938\Desktop\e2_studio_workspace\EEMBC_final\RX65N_Cloud_Kit\src/tensorflow/lite/micro\micro_mutable_op_resolver.h ****         TF_LITE_REPORT_ERROR(error_reporter_,
 6128                             		.loc 3 424 11
 6129 1bee EE 71 03 05             		mov.L	5132[r7], r1
 424:C:\Users\a5116938\Desktop\e2_studio_workspace\EEMBC_final\RX65N_Cloud_Kit\src/tensorflow/lite/micro\micro_mutable_op_resolver.h ****         TF_LITE_REPORT_ERROR(error_reporter_,
 6130                             		.loc 3 424 7
 6131 1bf2 61 01                   		cmp	#0, r1
 6132 1bf4 3A 7D F0                		beq	.L225
 425:C:\Users\a5116938\Desktop\e2_studio_workspace\EEMBC_final\RX65N_Cloud_Kit\src/tensorflow/lite/micro\micro_mutable_op_resolver.h ****                              "Calling AddBuiltin with the same op more than "
 6133                             		.loc 3 425 9
 6134 1bf7 3E 01 28                		mov.L	#40, 4[r0]
 6135 1bfa F8 02 00 00 00 00       		mov.L	#.LC0, [r0]
 6136 1c00 05 00 00 00             		bsr	__ZN6tflite13ErrorReporter6ReportEPKcz
 6137                             	.LVL524:
 6138 1c04 38 6D F0                		bra	.L225
 6139                             	.LVL525:
 6140                             	.L227:
 6141                             	.LBE1291:
 6142                             	.LBE1294:
 6143                             	.LBE1297:
 6144                             	.LBE1925:
 6145                             	.LBB1926:
 6146                             	.LBB1318:
 6147                             	.LBB1315:
 6148                             	.LBB1312:
 424:C:\Users\a5116938\Desktop\e2_studio_workspace\EEMBC_final\RX65N_Cloud_Kit\src/tensorflow/lite/micro\micro_mutable_op_resolver.h ****         TF_LITE_REPORT_ERROR(error_reporter_,
 6149                             		.loc 3 424 11
 6150 1c07 EE 71 03 05             		mov.L	5132[r7], r1
 424:C:\Users\a5116938\Desktop\e2_studio_workspace\EEMBC_final\RX65N_Cloud_Kit\src/tensorflow/lite/micro\micro_mutable_op_resolver.h ****         TF_LITE_REPORT_ERROR(error_reporter_,
 6151                             		.loc 3 424 7
 6152 1c0b 61 01                   		cmp	#0, r1
 6153 1c0d 3A D6 F0                		beq	.L231
 425:C:\Users\a5116938\Desktop\e2_studio_workspace\EEMBC_final\RX65N_Cloud_Kit\src/tensorflow/lite/micro\micro_mutable_op_resolver.h ****                              "Calling AddBuiltin with the same op more than "
 6154                             		.loc 3 425 9
 6155 1c10 3E 01 39                		mov.L	#57, 4[r0]
 6156 1c13 F8 02 00 00 00 00       		mov.L	#.LC0, [r0]
 6157 1c19 05 00 00 00             		bsr	__ZN6tflite13ErrorReporter6ReportEPKcz
 6158                             	.LVL526:
 6159 1c1d 38 C6 F0                		bra	.L231
 6160                             	.LVL527:
 6161                             	.L233:
 6162                             	.LBE1312:
 6163                             	.LBE1315:
 6164                             	.LBE1318:
 6165                             	.LBE1926:
 6166                             	.LBB1927:
 6167                             	.LBB1339:
 6168                             	.LBB1336:
 6169                             	.LBB1333:
 424:C:\Users\a5116938\Desktop\e2_studio_workspace\EEMBC_final\RX65N_Cloud_Kit\src/tensorflow/lite/micro\micro_mutable_op_resolver.h ****         TF_LITE_REPORT_ERROR(error_reporter_,
 6170                             		.loc 3 424 11
 6171 1c20 EE 71 03 05             		mov.L	5132[r7], r1
 424:C:\Users\a5116938\Desktop\e2_studio_workspace\EEMBC_final\RX65N_Cloud_Kit\src/tensorflow/lite/micro\micro_mutable_op_resolver.h ****         TF_LITE_REPORT_ERROR(error_reporter_,
 6172                             		.loc 3 424 7
 6173 1c24 61 01                   		cmp	#0, r1
 6174 1c26 3A 2F F1                		beq	.L237
 425:C:\Users\a5116938\Desktop\e2_studio_workspace\EEMBC_final\RX65N_Cloud_Kit\src/tensorflow/lite/micro\micro_mutable_op_resolver.h ****                              "Calling AddBuiltin with the same op more than "
 6175                             		.loc 3 425 9
 6176 1c29 3E 01 12                		mov.L	#18, 4[r0]
 6177 1c2c F8 02 00 00 00 00       		mov.L	#.LC0, [r0]
 6178 1c32 05 00 00 00             		bsr	__ZN6tflite13ErrorReporter6ReportEPKcz
 6179                             	.LVL528:
 6180 1c36 38 1F F1                		bra	.L237
 6181                             	.LVL529:
 6182                             	.L239:
 6183                             	.LBE1333:
 6184                             	.LBE1336:
 6185                             	.LBE1339:
 6186                             	.LBE1927:
 6187                             	.LBB1928:
 6188                             	.LBB1360:
 6189                             	.LBB1357:
 6190                             	.LBB1354:
 424:C:\Users\a5116938\Desktop\e2_studio_workspace\EEMBC_final\RX65N_Cloud_Kit\src/tensorflow/lite/micro\micro_mutable_op_resolver.h ****         TF_LITE_REPORT_ERROR(error_reporter_,
 6191                             		.loc 3 424 11
 6192 1c39 EE 71 03 05             		mov.L	5132[r7], r1
 424:C:\Users\a5116938\Desktop\e2_studio_workspace\EEMBC_final\RX65N_Cloud_Kit\src/tensorflow/lite/micro\micro_mutable_op_resolver.h ****         TF_LITE_REPORT_ERROR(error_reporter_,
 6193                             		.loc 3 424 7
 6194 1c3d 61 01                   		cmp	#0, r1
 6195 1c3f 3A 87 F1                		beq	.L243
 425:C:\Users\a5116938\Desktop\e2_studio_workspace\EEMBC_final\RX65N_Cloud_Kit\src/tensorflow/lite/micro\micro_mutable_op_resolver.h ****                              "Calling AddBuiltin with the same op more than "
 6196                             		.loc 3 425 9
 6197 1c42 3E 01 3B                		mov.L	#59, 4[r0]
 6198 1c45 F8 02 00 00 00 00       		mov.L	#.LC0, [r0]
 6199 1c4b 05 00 00 00             		bsr	__ZN6tflite13ErrorReporter6ReportEPKcz
 6200                             	.LVL530:
 6201 1c4f 38 77 F1                		bra	.L243
 6202                             	.LVL531:
 6203                             	.L245:
 6204                             	.LBE1354:
 6205                             	.LBE1357:
 6206                             	.LBE1360:
 6207                             	.LBE1928:
 6208                             	.LBB1929:
 6209                             	.LBB1381:
 6210                             	.LBB1378:
 6211                             	.LBB1375:
 424:C:\Users\a5116938\Desktop\e2_studio_workspace\EEMBC_final\RX65N_Cloud_Kit\src/tensorflow/lite/micro\micro_mutable_op_resolver.h ****         TF_LITE_REPORT_ERROR(error_reporter_,
 6212                             		.loc 3 424 11
 6213 1c52 EE 71 03 05             		mov.L	5132[r7], r1
 424:C:\Users\a5116938\Desktop\e2_studio_workspace\EEMBC_final\RX65N_Cloud_Kit\src/tensorflow/lite/micro\micro_mutable_op_resolver.h ****         TF_LITE_REPORT_ERROR(error_reporter_,
 6214                             		.loc 3 424 7
 6215 1c56 61 01                   		cmp	#0, r1
 6216 1c58 3A E0 F1                		beq	.L249
 425:C:\Users\a5116938\Desktop\e2_studio_workspace\EEMBC_final\RX65N_Cloud_Kit\src/tensorflow/lite/micro\micro_mutable_op_resolver.h ****                              "Calling AddBuiltin with the same op more than "
 6217                             		.loc 3 425 9
 6218 1c5b 3E 01 48                		mov.L	#0x48, 4[r0]
 6219 1c5e F8 02 00 00 00 00       		mov.L	#.LC0, [r0]
 6220 1c64 05 00 00 00             		bsr	__ZN6tflite13ErrorReporter6ReportEPKcz
 6221                             	.LVL532:
 6222 1c68 38 D0 F1                		bra	.L249
 6223                             	.LVL533:
 6224                             	.L251:
 6225                             	.LBE1375:
 6226                             	.LBE1378:
 6227                             	.LBE1381:
 6228                             	.LBE1929:
 6229                             	.LBB1930:
 6230                             	.LBB1402:
 6231                             	.LBB1399:
 6232                             	.LBB1396:
 424:C:\Users\a5116938\Desktop\e2_studio_workspace\EEMBC_final\RX65N_Cloud_Kit\src/tensorflow/lite/micro\micro_mutable_op_resolver.h ****         TF_LITE_REPORT_ERROR(error_reporter_,
 6233                             		.loc 3 424 11
 6234 1c6b EE 71 03 05             		mov.L	5132[r7], r1
 424:C:\Users\a5116938\Desktop\e2_studio_workspace\EEMBC_final\RX65N_Cloud_Kit\src/tensorflow/lite/micro\micro_mutable_op_resolver.h ****         TF_LITE_REPORT_ERROR(error_reporter_,
 6235                             		.loc 3 424 7
 6236 1c6f 61 01                   		cmp	#0, r1
 6237 1c71 3A 38 F2                		beq	.L255
 425:C:\Users\a5116938\Desktop\e2_studio_workspace\EEMBC_final\RX65N_Cloud_Kit\src/tensorflow/lite/micro\micro_mutable_op_resolver.h ****                              "Calling AddBuiltin with the same op more than "
 6238                             		.loc 3 425 9
 6239 1c74 3E 01 53                		mov.L	#0x53, 4[r0]
 6240 1c77 F8 02 00 00 00 00       		mov.L	#.LC0, [r0]
 6241 1c7d 05 00 00 00             		bsr	__ZN6tflite13ErrorReporter6ReportEPKcz
 6242                             	.LVL534:
 6243 1c81 38 28 F2                		bra	.L255
 6244                             	.LVL535:
 6245                             	.L257:
 6246                             	.LBE1396:
 6247                             	.LBE1399:
 6248                             	.LBE1402:
 6249                             	.LBE1930:
 6250                             	.LBB1931:
 6251                             	.LBB1423:
 6252                             	.LBB1420:
 6253                             	.LBB1417:
 424:C:\Users\a5116938\Desktop\e2_studio_workspace\EEMBC_final\RX65N_Cloud_Kit\src/tensorflow/lite/micro\micro_mutable_op_resolver.h ****         TF_LITE_REPORT_ERROR(error_reporter_,
 6254                             		.loc 3 424 11
 6255 1c84 EE 71 03 05             		mov.L	5132[r7], r1
 424:C:\Users\a5116938\Desktop\e2_studio_workspace\EEMBC_final\RX65N_Cloud_Kit\src/tensorflow/lite/micro\micro_mutable_op_resolver.h ****         TF_LITE_REPORT_ERROR(error_reporter_,
 6256                             		.loc 3 424 7
 6257 1c88 61 01                   		cmp	#0, r1
 6258 1c8a 3A 91 F2                		beq	.L261
 425:C:\Users\a5116938\Desktop\e2_studio_workspace\EEMBC_final\RX65N_Cloud_Kit\src/tensorflow/lite/micro\micro_mutable_op_resolver.h ****                              "Calling AddBuiltin with the same op more than "
 6259                             		.loc 3 425 9
 6260 1c8d 3E 01 22                		mov.L	#34, 4[r0]
 6261 1c90 F8 02 00 00 00 00       		mov.L	#.LC0, [r0]
 6262 1c96 05 00 00 00             		bsr	__ZN6tflite13ErrorReporter6ReportEPKcz
 6263                             	.LVL536:
 6264 1c9a 38 81 F2                		bra	.L261
 6265                             	.LVL537:
 6266                             	.L263:
 6267                             	.LBE1417:
 6268                             	.LBE1420:
 6269                             	.LBE1423:
 6270                             	.LBE1931:
 6271                             	.LBB1932:
 6272                             	.LBB1444:
 6273                             	.LBB1441:
 6274                             	.LBB1438:
 424:C:\Users\a5116938\Desktop\e2_studio_workspace\EEMBC_final\RX65N_Cloud_Kit\src/tensorflow/lite/micro\micro_mutable_op_resolver.h ****         TF_LITE_REPORT_ERROR(error_reporter_,
 6275                             		.loc 3 424 11
 6276 1c9d EE 71 03 05             		mov.L	5132[r7], r1
 424:C:\Users\a5116938\Desktop\e2_studio_workspace\EEMBC_final\RX65N_Cloud_Kit\src/tensorflow/lite/micro\micro_mutable_op_resolver.h ****         TF_LITE_REPORT_ERROR(error_reporter_,
 6277                             		.loc 3 424 7
 6278 1ca1 61 01                   		cmp	#0, r1
 6279 1ca3 3A EA F2                		beq	.L267
 425:C:\Users\a5116938\Desktop\e2_studio_workspace\EEMBC_final\RX65N_Cloud_Kit\src/tensorflow/lite/micro\micro_mutable_op_resolver.h ****                              "Calling AddBuiltin with the same op more than "
 6280                             		.loc 3 425 9
 6281 1ca6 3E 01 3C                		mov.L	#60, 4[r0]
 6282 1ca9 F8 02 00 00 00 00       		mov.L	#.LC0, [r0]
 6283 1caf 05 00 00 00             		bsr	__ZN6tflite13ErrorReporter6ReportEPKcz
 6284                             	.LVL538:
 6285 1cb3 38 DA F2                		bra	.L267
 6286                             	.LVL539:
 6287                             	.L269:
 6288                             	.LBE1438:
 6289                             	.LBE1441:
 6290                             	.LBE1444:
 6291                             	.LBE1932:
 6292                             	.LBB1933:
 6293                             	.LBB1465:
 6294                             	.LBB1462:
 6295                             	.LBB1459:
 424:C:\Users\a5116938\Desktop\e2_studio_workspace\EEMBC_final\RX65N_Cloud_Kit\src/tensorflow/lite/micro\micro_mutable_op_resolver.h ****         TF_LITE_REPORT_ERROR(error_reporter_,
 6296                             		.loc 3 424 11
 6297 1cb6 EE 71 03 05             		mov.L	5132[r7], r1
 424:C:\Users\a5116938\Desktop\e2_studio_workspace\EEMBC_final\RX65N_Cloud_Kit\src/tensorflow/lite/micro\micro_mutable_op_resolver.h ****         TF_LITE_REPORT_ERROR(error_reporter_,
 6298                             		.loc 3 424 7
 6299 1cba 61 01                   		cmp	#0, r1
 6300 1cbc 3A 42 F3                		beq	.L273
 425:C:\Users\a5116938\Desktop\e2_studio_workspace\EEMBC_final\RX65N_Cloud_Kit\src/tensorflow/lite/micro\micro_mutable_op_resolver.h ****                              "Calling AddBuiltin with the same op more than "
 6301                             		.loc 3 425 9
 6302 1cbf 3E 01 36                		mov.L	#54, 4[r0]
 6303 1cc2 F8 02 00 00 00 00       		mov.L	#.LC0, [r0]
 6304 1cc8 05 00 00 00             		bsr	__ZN6tflite13ErrorReporter6ReportEPKcz
 6305                             	.LVL540:
 6306 1ccc 38 32 F3                		bra	.L273
 6307                             	.LVL541:
 6308                             	.L275:
 6309                             	.LBE1459:
 6310                             	.LBE1462:
 6311                             	.LBE1465:
 6312                             	.LBE1933:
 6313                             	.LBB1934:
 6314                             	.LBB1486:
 6315                             	.LBB1483:
 6316                             	.LBB1480:
 424:C:\Users\a5116938\Desktop\e2_studio_workspace\EEMBC_final\RX65N_Cloud_Kit\src/tensorflow/lite/micro\micro_mutable_op_resolver.h ****         TF_LITE_REPORT_ERROR(error_reporter_,
 6317                             		.loc 3 424 11
 6318 1ccf EE 71 03 05             		mov.L	5132[r7], r1
 424:C:\Users\a5116938\Desktop\e2_studio_workspace\EEMBC_final\RX65N_Cloud_Kit\src/tensorflow/lite/micro\micro_mutable_op_resolver.h ****         TF_LITE_REPORT_ERROR(error_reporter_,
 6319                             		.loc 3 424 7
 6320 1cd3 61 01                   		cmp	#0, r1
 6321 1cd5 3A 9B F3                		beq	.L279
 425:C:\Users\a5116938\Desktop\e2_studio_workspace\EEMBC_final\RX65N_Cloud_Kit\src/tensorflow/lite/micro\micro_mutable_op_resolver.h ****                              "Calling AddBuiltin with the same op more than "
 6322                             		.loc 3 425 9
 6323 1cd8 3E 01 72                		mov.L	#0x72, 4[r0]
 6324 1cdb F8 02 00 00 00 00       		mov.L	#.LC0, [r0]
 6325 1ce1 05 00 00 00             		bsr	__ZN6tflite13ErrorReporter6ReportEPKcz
 6326                             	.LVL542:
 6327 1ce5 38 8B F3                		bra	.L279
 6328                             	.LVL543:
 6329                             	.L281:
 6330                             	.LBE1480:
 6331                             	.LBE1483:
 6332                             	.LBE1486:
 6333                             	.LBE1934:
 6334                             	.LBB1935:
 6335                             	.LBB1507:
 6336                             	.LBB1504:
 6337                             	.LBB1501:
 424:C:\Users\a5116938\Desktop\e2_studio_workspace\EEMBC_final\RX65N_Cloud_Kit\src/tensorflow/lite/micro\micro_mutable_op_resolver.h ****         TF_LITE_REPORT_ERROR(error_reporter_,
 6338                             		.loc 3 424 11
 6339 1ce8 EE 71 03 05             		mov.L	5132[r7], r1
 424:C:\Users\a5116938\Desktop\e2_studio_workspace\EEMBC_final\RX65N_Cloud_Kit\src/tensorflow/lite/micro\micro_mutable_op_resolver.h ****         TF_LITE_REPORT_ERROR(error_reporter_,
 6340                             		.loc 3 424 7
 6341 1cec 61 01                   		cmp	#0, r1
 6342 1cee 3A F3 F3                		beq	.L285
 425:C:\Users\a5116938\Desktop\e2_studio_workspace\EEMBC_final\RX65N_Cloud_Kit\src/tensorflow/lite/micro\micro_mutable_op_resolver.h ****                              "Calling AddBuiltin with the same op more than "
 6343                             		.loc 3 425 9
 6344 1cf1 3E 01 52                		mov.L	#0x52, 4[r0]
 6345 1cf4 F8 02 00 00 00 00       		mov.L	#.LC0, [r0]
 6346 1cfa 05 00 00 00             		bsr	__ZN6tflite13ErrorReporter6ReportEPKcz
 6347                             	.LVL544:
 6348 1cfe 38 E3 F3                		bra	.L285
 6349                             	.LVL545:
 6350                             	.L287:
 6351                             	.LBE1501:
 6352                             	.LBE1504:
 6353                             	.LBE1507:
 6354                             	.LBE1935:
 6355                             	.LBB1936:
 6356                             	.LBB1528:
 6357                             	.LBB1525:
 6358                             	.LBB1522:
 424:C:\Users\a5116938\Desktop\e2_studio_workspace\EEMBC_final\RX65N_Cloud_Kit\src/tensorflow/lite/micro\micro_mutable_op_resolver.h ****         TF_LITE_REPORT_ERROR(error_reporter_,
 6359                             		.loc 3 424 11
 6360 1d01 EE 71 03 05             		mov.L	5132[r7], r1
 424:C:\Users\a5116938\Desktop\e2_studio_workspace\EEMBC_final\RX65N_Cloud_Kit\src/tensorflow/lite/micro\micro_mutable_op_resolver.h ****         TF_LITE_REPORT_ERROR(error_reporter_,
 6361                             		.loc 3 424 7
 6362 1d05 61 01                   		cmp	#0, r1
 6363 1d07 3A 4C F4                		beq	.L291
 425:C:\Users\a5116938\Desktop\e2_studio_workspace\EEMBC_final\RX65N_Cloud_Kit\src/tensorflow/lite/micro\micro_mutable_op_resolver.h ****                              "Calling AddBuiltin with the same op more than "
 6364                             		.loc 3 425 9
 6365 1d0a 3E 01 13                		mov.L	#19, 4[r0]
 6366 1d0d F8 02 00 00 00 00       		mov.L	#.LC0, [r0]
 6367 1d13 05 00 00 00             		bsr	__ZN6tflite13ErrorReporter6ReportEPKcz
 6368                             	.LVL546:
 6369 1d17 38 3C F4                		bra	.L291
 6370                             	.LVL547:
 6371                             	.L293:
 6372                             	.LBE1522:
 6373                             	.LBE1525:
 6374                             	.LBE1528:
 6375                             	.LBE1936:
 6376                             	.LBB1937:
 6377                             	.LBB1549:
 6378                             	.LBB1546:
 6379                             	.LBB1543:
 424:C:\Users\a5116938\Desktop\e2_studio_workspace\EEMBC_final\RX65N_Cloud_Kit\src/tensorflow/lite/micro\micro_mutable_op_resolver.h ****         TF_LITE_REPORT_ERROR(error_reporter_,
 6380                             		.loc 3 424 11
 6381 1d1a EE 71 03 05             		mov.L	5132[r7], r1
 424:C:\Users\a5116938\Desktop\e2_studio_workspace\EEMBC_final\RX65N_Cloud_Kit\src/tensorflow/lite/micro\micro_mutable_op_resolver.h ****         TF_LITE_REPORT_ERROR(error_reporter_,
 6382                             		.loc 3 424 7
 6383 1d1e 61 01                   		cmp	#0, r1
 6384 1d20 3A A5 F4                		beq	.L297
 425:C:\Users\a5116938\Desktop\e2_studio_workspace\EEMBC_final\RX65N_Cloud_Kit\src/tensorflow/lite/micro\micro_mutable_op_resolver.h ****                              "Calling AddBuiltin with the same op more than "
 6385                             		.loc 3 425 9
 6386 1d23 3E 01 15                		mov.L	#21, 4[r0]
 6387 1d26 F8 02 00 00 00 00       		mov.L	#.LC0, [r0]
 6388 1d2c 05 00 00 00             		bsr	__ZN6tflite13ErrorReporter6ReportEPKcz
 6389                             	.LVL548:
 6390 1d30 38 95 F4                		bra	.L297
 6391                             	.LVL549:
 6392                             	.L299:
 6393                             	.LBE1543:
 6394                             	.LBE1546:
 6395                             	.LBE1549:
 6396                             	.LBE1937:
 6397                             	.LBB1938:
 6398                             	.LBB1570:
 6399                             	.LBB1567:
 6400                             	.LBB1564:
 424:C:\Users\a5116938\Desktop\e2_studio_workspace\EEMBC_final\RX65N_Cloud_Kit\src/tensorflow/lite/micro\micro_mutable_op_resolver.h ****         TF_LITE_REPORT_ERROR(error_reporter_,
 6401                             		.loc 3 424 11
 6402 1d33 EE 71 03 05             		mov.L	5132[r7], r1
 424:C:\Users\a5116938\Desktop\e2_studio_workspace\EEMBC_final\RX65N_Cloud_Kit\src/tensorflow/lite/micro\micro_mutable_op_resolver.h ****         TF_LITE_REPORT_ERROR(error_reporter_,
 6403                             		.loc 3 424 7
 6404 1d37 61 01                   		cmp	#0, r1
 6405 1d39 3A FD F4                		beq	.L303
 425:C:\Users\a5116938\Desktop\e2_studio_workspace\EEMBC_final\RX65N_Cloud_Kit\src/tensorflow/lite/micro\micro_mutable_op_resolver.h ****                              "Calling AddBuiltin with the same op more than "
 6406                             		.loc 3 425 9
 6407 1d3c 3E 01 16                		mov.L	#22, 4[r0]
 6408 1d3f F8 02 00 00 00 00       		mov.L	#.LC0, [r0]
 6409 1d45 05 00 00 00             		bsr	__ZN6tflite13ErrorReporter6ReportEPKcz
 6410                             	.LVL550:
 6411 1d49 38 ED F4                		bra	.L303
 6412                             	.LVL551:
 6413                             	.L305:
 6414                             	.LBE1564:
 6415                             	.LBE1567:
 6416                             	.LBE1570:
 6417                             	.LBE1938:
 6418                             	.LBB1939:
 6419                             	.LBB1591:
 6420                             	.LBB1588:
 6421                             	.LBB1585:
 424:C:\Users\a5116938\Desktop\e2_studio_workspace\EEMBC_final\RX65N_Cloud_Kit\src/tensorflow/lite/micro\micro_mutable_op_resolver.h ****         TF_LITE_REPORT_ERROR(error_reporter_,
 6422                             		.loc 3 424 11
 6423 1d4c EE 71 03 05             		mov.L	5132[r7], r1
 424:C:\Users\a5116938\Desktop\e2_studio_workspace\EEMBC_final\RX65N_Cloud_Kit\src/tensorflow/lite/micro\micro_mutable_op_resolver.h ****         TF_LITE_REPORT_ERROR(error_reporter_,
 6424                             		.loc 3 424 7
 6425 1d50 61 01                   		cmp	#0, r1
 6426 1d52 3A 56 F5                		beq	.L309
 425:C:\Users\a5116938\Desktop\e2_studio_workspace\EEMBC_final\RX65N_Cloud_Kit\src/tensorflow/lite/micro\micro_mutable_op_resolver.h ****                              "Calling AddBuiltin with the same op more than "
 6427                             		.loc 3 425 9
 6428 1d55 3E 01 61                		mov.L	#0x61, 4[r0]
 6429 1d58 F8 02 00 00 00 00       		mov.L	#.LC0, [r0]
 6430 1d5e 05 00 00 00             		bsr	__ZN6tflite13ErrorReporter6ReportEPKcz
 6431                             	.LVL552:
 6432 1d62 38 46 F5                		bra	.L309
 6433                             	.LVL553:
 6434                             	.L311:
 6435                             	.LBE1585:
 6436                             	.LBE1588:
 6437                             	.LBE1591:
 6438                             	.LBE1939:
 6439                             	.LBB1940:
 6440                             	.LBB1612:
 6441                             	.LBB1609:
 6442                             	.LBB1606:
 424:C:\Users\a5116938\Desktop\e2_studio_workspace\EEMBC_final\RX65N_Cloud_Kit\src/tensorflow/lite/micro\micro_mutable_op_resolver.h ****         TF_LITE_REPORT_ERROR(error_reporter_,
 6443                             		.loc 3 424 11
 6444 1d65 EE 71 03 05             		mov.L	5132[r7], r1
 424:C:\Users\a5116938\Desktop\e2_studio_workspace\EEMBC_final\RX65N_Cloud_Kit\src/tensorflow/lite/micro\micro_mutable_op_resolver.h ****         TF_LITE_REPORT_ERROR(error_reporter_,
 6445                             		.loc 3 424 7
 6446 1d69 61 01                   		cmp	#0, r1
 6447 1d6b 3A AE F5                		beq	.L315
 425:C:\Users\a5116938\Desktop\e2_studio_workspace\EEMBC_final\RX65N_Cloud_Kit\src/tensorflow/lite/micro\micro_mutable_op_resolver.h ****                              "Calling AddBuiltin with the same op more than "
 6448                             		.loc 3 425 9
 6449 1d6e 3E 01 74                		mov.L	#0x74, 4[r0]
 6450 1d71 F8 02 00 00 00 00       		mov.L	#.LC0, [r0]
 6451 1d77 05 00 00 00             		bsr	__ZN6tflite13ErrorReporter6ReportEPKcz
 6452                             	.LVL554:
 6453 1d7b 38 9E F5                		bra	.L315
 6454                             	.LVL555:
 6455                             	.L317:
 6456                             	.LBE1606:
 6457                             	.LBE1609:
 6458                             	.LBE1612:
 6459                             	.LBE1940:
 6460                             	.LBB1941:
 6461                             	.LBB1633:
 6462                             	.LBB1630:
 6463                             	.LBB1627:
 424:C:\Users\a5116938\Desktop\e2_studio_workspace\EEMBC_final\RX65N_Cloud_Kit\src/tensorflow/lite/micro\micro_mutable_op_resolver.h ****         TF_LITE_REPORT_ERROR(error_reporter_,
 6464                             		.loc 3 424 11
 6465 1d7e EE 71 03 05             		mov.L	5132[r7], r1
 424:C:\Users\a5116938\Desktop\e2_studio_workspace\EEMBC_final\RX65N_Cloud_Kit\src/tensorflow/lite/micro\micro_mutable_op_resolver.h ****         TF_LITE_REPORT_ERROR(error_reporter_,
 6466                             		.loc 3 424 7
 6467 1d82 61 01                   		cmp	#0, r1
 6468 1d84 3A 07 F6                		beq	.L321
 425:C:\Users\a5116938\Desktop\e2_studio_workspace\EEMBC_final\RX65N_Cloud_Kit\src/tensorflow/lite/micro\micro_mutable_op_resolver.h ****                              "Calling AddBuiltin with the same op more than "
 6469                             		.loc 3 425 9
 6470 1d87 3E 01 4C                		mov.L	#0x4c, 4[r0]
 6471 1d8a F8 02 00 00 00 00       		mov.L	#.LC0, [r0]
 6472 1d90 05 00 00 00             		bsr	__ZN6tflite13ErrorReporter6ReportEPKcz
 6473                             	.LVL556:
 6474 1d94 38 F7 F5                		bra	.L321
 6475                             	.LVL557:
 6476                             	.L323:
 6477                             	.LBE1627:
 6478                             	.LBE1630:
 6479                             	.LBE1633:
 6480                             	.LBE1941:
 6481                             	.LBB1942:
 6482                             	.LBB1654:
 6483                             	.LBB1651:
 6484                             	.LBB1648:
 424:C:\Users\a5116938\Desktop\e2_studio_workspace\EEMBC_final\RX65N_Cloud_Kit\src/tensorflow/lite/micro\micro_mutable_op_resolver.h ****         TF_LITE_REPORT_ERROR(error_reporter_,
 6485                             		.loc 3 424 11
 6486 1d97 EE 71 03 05             		mov.L	5132[r7], r1
 424:C:\Users\a5116938\Desktop\e2_studio_workspace\EEMBC_final\RX65N_Cloud_Kit\src/tensorflow/lite/micro\micro_mutable_op_resolver.h ****         TF_LITE_REPORT_ERROR(error_reporter_,
 6487                             		.loc 3 424 7
 6488 1d9b 61 01                   		cmp	#0, r1
 6489 1d9d 3A 60 F6                		beq	.L327
 425:C:\Users\a5116938\Desktop\e2_studio_workspace\EEMBC_final\RX65N_Cloud_Kit\src/tensorflow/lite/micro\micro_mutable_op_resolver.h ****                              "Calling AddBuiltin with the same op more than "
 6490                             		.loc 3 425 9
 6491 1da0 3E 01 4D                		mov.L	#0x4d, 4[r0]
 6492 1da3 F8 02 00 00 00 00       		mov.L	#.LC0, [r0]
 6493 1da9 05 00 00 00             		bsr	__ZN6tflite13ErrorReporter6ReportEPKcz
 6494                             	.LVL558:
 6495 1dad 38 50 F6                		bra	.L327
 6496                             	.LVL559:
 6497                             	.L329:
 6498                             	.LBE1648:
 6499                             	.LBE1651:
 6500                             	.LBE1654:
 6501                             	.LBE1942:
 6502                             	.LBB1943:
 6503                             	.LBB1675:
 6504                             	.LBB1672:
 6505                             	.LBB1669:
 424:C:\Users\a5116938\Desktop\e2_studio_workspace\EEMBC_final\RX65N_Cloud_Kit\src/tensorflow/lite/micro\micro_mutable_op_resolver.h ****         TF_LITE_REPORT_ERROR(error_reporter_,
 6506                             		.loc 3 424 11
 6507 1db0 EE 71 03 05             		mov.L	5132[r7], r1
 424:C:\Users\a5116938\Desktop\e2_studio_workspace\EEMBC_final\RX65N_Cloud_Kit\src/tensorflow/lite/micro\micro_mutable_op_resolver.h ****         TF_LITE_REPORT_ERROR(error_reporter_,
 6508                             		.loc 3 424 7
 6509 1db4 61 01                   		cmp	#0, r1
 6510 1db6 3A B8 F6                		beq	.L333
 425:C:\Users\a5116938\Desktop\e2_studio_workspace\EEMBC_final\RX65N_Cloud_Kit\src/tensorflow/lite/micro\micro_mutable_op_resolver.h ****                              "Calling AddBuiltin with the same op more than "
 6511                             		.loc 3 425 9
 6512 1db9 3E 01 42                		mov.L	#0x42, 4[r0]
 6513 1dbc F8 02 00 00 00 00       		mov.L	#.LC0, [r0]
 6514 1dc2 05 00 00 00             		bsr	__ZN6tflite13ErrorReporter6ReportEPKcz
 6515                             	.LVL560:
 6516 1dc6 38 A8 F6                		bra	.L333
 6517                             	.LVL561:
 6518                             	.L335:
 6519                             	.LBE1669:
 6520                             	.LBE1672:
 6521                             	.LBE1675:
 6522                             	.LBE1943:
 6523                             	.LBB1944:
 6524                             	.LBB1696:
 6525                             	.LBB1693:
 6526                             	.LBB1690:
 424:C:\Users\a5116938\Desktop\e2_studio_workspace\EEMBC_final\RX65N_Cloud_Kit\src/tensorflow/lite/micro\micro_mutable_op_resolver.h ****         TF_LITE_REPORT_ERROR(error_reporter_,
 6527                             		.loc 3 424 11
 6528 1dc9 EE 71 03 05             		mov.L	5132[r7], r1
 424:C:\Users\a5116938\Desktop\e2_studio_workspace\EEMBC_final\RX65N_Cloud_Kit\src/tensorflow/lite/micro\micro_mutable_op_resolver.h ****         TF_LITE_REPORT_ERROR(error_reporter_,
 6529                             		.loc 3 424 7
 6530 1dcd 61 01                   		cmp	#0, r1
 6531 1dcf 3A 11 F7                		beq	.L339
 425:C:\Users\a5116938\Desktop\e2_studio_workspace\EEMBC_final\RX65N_Cloud_Kit\src/tensorflow/lite/micro\micro_mutable_op_resolver.h ****                              "Calling AddBuiltin with the same op more than "
 6532                             		.loc 3 425 9
 6533 1dd2 3E 01 19                		mov.L	#25, 4[r0]
 6534 1dd5 F8 02 00 00 00 00       		mov.L	#.LC0, [r0]
 6535 1ddb 05 00 00 00             		bsr	__ZN6tflite13ErrorReporter6ReportEPKcz
 6536                             	.LVL562:
 6537 1ddf 38 01 F7                		bra	.L339
 6538                             	.LVL563:
 6539                             	.L341:
 6540                             	.LBE1690:
 6541                             	.LBE1693:
 6542                             	.LBE1696:
 6543                             	.LBE1944:
 6544                             	.LBB1945:
 6545                             	.LBB1717:
 6546                             	.LBB1714:
 6547                             	.LBB1711:
 424:C:\Users\a5116938\Desktop\e2_studio_workspace\EEMBC_final\RX65N_Cloud_Kit\src/tensorflow/lite/micro\micro_mutable_op_resolver.h ****         TF_LITE_REPORT_ERROR(error_reporter_,
 6548                             		.loc 3 424 11
 6549 1de2 EE 71 03 05             		mov.L	5132[r7], r1
 424:C:\Users\a5116938\Desktop\e2_studio_workspace\EEMBC_final\RX65N_Cloud_Kit\src/tensorflow/lite/micro\micro_mutable_op_resolver.h ****         TF_LITE_REPORT_ERROR(error_reporter_,
 6550                             		.loc 3 424 7
 6551 1de6 61 01                   		cmp	#0, r1
 6552 1de8 3A 69 F7                		beq	.L345
 425:C:\Users\a5116938\Desktop\e2_studio_workspace\EEMBC_final\RX65N_Cloud_Kit\src/tensorflow/lite/micro\micro_mutable_op_resolver.h ****                              "Calling AddBuiltin with the same op more than "
 6553                             		.loc 3 425 9
 6554 1deb 3E 01 31                		mov.L	#49, 4[r0]
 6555 1dee F8 02 00 00 00 00       		mov.L	#.LC0, [r0]
 6556 1df4 05 00 00 00             		bsr	__ZN6tflite13ErrorReporter6ReportEPKcz
 6557                             	.LVL564:
 6558 1df8 38 59 F7                		bra	.L345
 6559                             	.LVL565:
 6560                             	.L347:
 6561                             	.LBE1711:
 6562                             	.LBE1714:
 6563                             	.LBE1717:
 6564                             	.LBE1945:
 6565                             	.LBB1946:
 6566                             	.LBB1738:
 6567                             	.LBB1735:
 6568                             	.LBB1732:
 424:C:\Users\a5116938\Desktop\e2_studio_workspace\EEMBC_final\RX65N_Cloud_Kit\src/tensorflow/lite/micro\micro_mutable_op_resolver.h ****         TF_LITE_REPORT_ERROR(error_reporter_,
 6569                             		.loc 3 424 11
 6570 1dfb EE 71 03 05             		mov.L	5132[r7], r1
 424:C:\Users\a5116938\Desktop\e2_studio_workspace\EEMBC_final\RX65N_Cloud_Kit\src/tensorflow/lite/micro\micro_mutable_op_resolver.h ****         TF_LITE_REPORT_ERROR(error_reporter_,
 6571                             		.loc 3 424 7
 6572 1dff 61 01                   		cmp	#0, r1
 6573 1e01 3A C2 F7                		beq	.L351
 425:C:\Users\a5116938\Desktop\e2_studio_workspace\EEMBC_final\RX65N_Cloud_Kit\src/tensorflow/lite/micro\micro_mutable_op_resolver.h ****                              "Calling AddBuiltin with the same op more than "
 6574                             		.loc 3 425 9
 6575 1e04 3E 01 66                		mov.L	#0x66, 4[r0]
 6576 1e07 F8 02 00 00 00 00       		mov.L	#.LC0, [r0]
 6577 1e0d 05 00 00 00             		bsr	__ZN6tflite13ErrorReporter6ReportEPKcz
 6578                             	.LVL566:
 6579 1e11 38 B2 F7                		bra	.L351
 6580                             	.LVL567:
 6581                             	.L353:
 6582                             	.LBE1732:
 6583                             	.LBE1735:
 6584                             	.LBE1738:
 6585                             	.LBE1946:
 6586                             	.LBB1947:
 6587                             	.LBB1759:
 6588                             	.LBB1756:
 6589                             	.LBB1753:
 424:C:\Users\a5116938\Desktop\e2_studio_workspace\EEMBC_final\RX65N_Cloud_Kit\src/tensorflow/lite/micro\micro_mutable_op_resolver.h ****         TF_LITE_REPORT_ERROR(error_reporter_,
 6590                             		.loc 3 424 11
 6591 1e14 EE 71 03 05             		mov.L	5132[r7], r1
 424:C:\Users\a5116938\Desktop\e2_studio_workspace\EEMBC_final\RX65N_Cloud_Kit\src/tensorflow/lite/micro\micro_mutable_op_resolver.h ****         TF_LITE_REPORT_ERROR(error_reporter_,
 6592                             		.loc 3 424 7
 6593 1e18 61 01                   		cmp	#0, r1
 6594 1e1a 3A 1B F8                		beq	.L357
 425:C:\Users\a5116938\Desktop\e2_studio_workspace\EEMBC_final\RX65N_Cloud_Kit\src/tensorflow/lite/micro\micro_mutable_op_resolver.h ****                              "Calling AddBuiltin with the same op more than "
 6595                             		.loc 3 425 9
 6596 1e1d 3E 01 4B                		mov.L	#0x4b, 4[r0]
 6597 1e20 F8 02 00 00 00 00       		mov.L	#.LC0, [r0]
 6598 1e26 05 00 00 00             		bsr	__ZN6tflite13ErrorReporter6ReportEPKcz
 6599                             	.LVL568:
 6600 1e2a 38 0B F8                		bra	.L357
 6601                             	.LVL569:
 6602                             	.L359:
 6603                             	.LBE1753:
 6604                             	.LBE1756:
 6605                             	.LBE1759:
 6606                             	.LBE1947:
 6607                             	.LBB1948:
 6608                             	.LBB1780:
 6609                             	.LBB1777:
 6610                             	.LBB1774:
 424:C:\Users\a5116938\Desktop\e2_studio_workspace\EEMBC_final\RX65N_Cloud_Kit\src/tensorflow/lite/micro\micro_mutable_op_resolver.h ****         TF_LITE_REPORT_ERROR(error_reporter_,
 6611                             		.loc 3 424 11
 6612 1e2d EE 71 03 05             		mov.L	5132[r7], r1
 424:C:\Users\a5116938\Desktop\e2_studio_workspace\EEMBC_final\RX65N_Cloud_Kit\src/tensorflow/lite/micro\micro_mutable_op_resolver.h ****         TF_LITE_REPORT_ERROR(error_reporter_,
 6613                             		.loc 3 424 7
 6614 1e31 61 01                   		cmp	#0, r1
 6615 1e33 3A 73 F8                		beq	.L363
 425:C:\Users\a5116938\Desktop\e2_studio_workspace\EEMBC_final\RX65N_Cloud_Kit\src/tensorflow/lite/micro\micro_mutable_op_resolver.h ****                              "Calling AddBuiltin with the same op more than "
 6616                             		.loc 3 425 9
 6617 1e36 3E 01 5C                		mov.L	#0x5c, 4[r0]
 6618 1e39 F8 02 00 00 00 00       		mov.L	#.LC0, [r0]
 6619 1e3f 05 00 00 00             		bsr	__ZN6tflite13ErrorReporter6ReportEPKcz
 6620                             	.LVL570:
 6621 1e43 38 63 F8                		bra	.L363
 6622                             	.LVL571:
 6623                             	.L365:
 6624                             	.LBE1774:
 6625                             	.LBE1777:
 6626                             	.LBE1780:
 6627                             	.LBE1948:
 6628                             	.LBB1949:
 6629                             	.LBB1801:
 6630                             	.LBB1798:
 6631                             	.LBB1795:
 424:C:\Users\a5116938\Desktop\e2_studio_workspace\EEMBC_final\RX65N_Cloud_Kit\src/tensorflow/lite/micro\micro_mutable_op_resolver.h ****         TF_LITE_REPORT_ERROR(error_reporter_,
 6632                             		.loc 3 424 11
 6633 1e46 EE 71 03 05             		mov.L	5132[r7], r1
 424:C:\Users\a5116938\Desktop\e2_studio_workspace\EEMBC_final\RX65N_Cloud_Kit\src/tensorflow/lite/micro\micro_mutable_op_resolver.h ****         TF_LITE_REPORT_ERROR(error_reporter_,
 6634                             		.loc 3 424 7
 6635 1e4a 61 01                   		cmp	#0, r1
 6636 1e4c 3A CC F8                		beq	.L369
 425:C:\Users\a5116938\Desktop\e2_studio_workspace\EEMBC_final\RX65N_Cloud_Kit\src/tensorflow/lite/micro\micro_mutable_op_resolver.h ****                              "Calling AddBuiltin with the same op more than "
 6637                             		.loc 3 425 9
 6638 1e4f 3E 01 2D                		mov.L	#45, 4[r0]
 6639 1e52 F8 02 00 00 00 00       		mov.L	#.LC0, [r0]
 6640 1e58 05 00 00 00             		bsr	__ZN6tflite13ErrorReporter6ReportEPKcz
 6641                             	.LVL572:
 6642 1e5c 38 BC F8                		bra	.L369
 6643                             	.LVL573:
 6644                             	.L371:
 6645                             	.LBE1795:
 6646                             	.LBE1798:
 6647                             	.LBE1801:
 6648                             	.LBE1949:
 6649                             	.LBB1950:
 6650                             	.LBB1822:
 6651                             	.LBB1819:
 6652                             	.LBB1816:
 424:C:\Users\a5116938\Desktop\e2_studio_workspace\EEMBC_final\RX65N_Cloud_Kit\src/tensorflow/lite/micro\micro_mutable_op_resolver.h ****         TF_LITE_REPORT_ERROR(error_reporter_,
 6653                             		.loc 3 424 11
 6654 1e5f EE 71 03 05             		mov.L	5132[r7], r1
 424:C:\Users\a5116938\Desktop\e2_studio_workspace\EEMBC_final\RX65N_Cloud_Kit\src/tensorflow/lite/micro\micro_mutable_op_resolver.h ****         TF_LITE_REPORT_ERROR(error_reporter_,
 6655                             		.loc 3 424 7
 6656 1e63 61 01                   		cmp	#0, r1
 6657 1e65 3A 24 F9                		beq	.L375
 425:C:\Users\a5116938\Desktop\e2_studio_workspace\EEMBC_final\RX65N_Cloud_Kit\src/tensorflow/lite/micro\micro_mutable_op_resolver.h ****                              "Calling AddBuiltin with the same op more than "
 6658                             		.loc 3 425 9
 6659 1e68 3E 01 29                		mov.L	#41, 4[r0]
 6660 1e6b F8 02 00 00 00 00       		mov.L	#.LC0, [r0]
 6661 1e71 05 00 00 00             		bsr	__ZN6tflite13ErrorReporter6ReportEPKcz
 6662                             	.LVL574:
 6663 1e75 38 14 F9                		bra	.L375
 6664                             	.LVL575:
 6665                             	.L377:
 6666                             	.LBE1816:
 6667                             	.LBE1819:
 6668                             	.LBE1822:
 6669                             	.LBE1950:
 6670                             	.LBB1951:
 6671                             	.LBB1843:
 6672                             	.LBB1840:
 6673                             	.LBB1837:
 424:C:\Users\a5116938\Desktop\e2_studio_workspace\EEMBC_final\RX65N_Cloud_Kit\src/tensorflow/lite/micro\micro_mutable_op_resolver.h ****         TF_LITE_REPORT_ERROR(error_reporter_,
 6674                             		.loc 3 424 11
 6675 1e78 EE 71 03 05             		mov.L	5132[r7], r1
 424:C:\Users\a5116938\Desktop\e2_studio_workspace\EEMBC_final\RX65N_Cloud_Kit\src/tensorflow/lite/micro\micro_mutable_op_resolver.h ****         TF_LITE_REPORT_ERROR(error_reporter_,
 6676                             		.loc 3 424 7
 6677 1e7c 61 01                   		cmp	#0, r1
 6678 1e7e 3A 7D F9                		beq	.L381
 425:C:\Users\a5116938\Desktop\e2_studio_workspace\EEMBC_final\RX65N_Cloud_Kit\src/tensorflow/lite/micro\micro_mutable_op_resolver.h ****                              "Calling AddBuiltin with the same op more than "
 6679                             		.loc 3 425 9
 6680 1e81 3E 01 1B                		mov.L	#27, 4[r0]
 6681 1e84 F8 02 00 00 00 00       		mov.L	#.LC0, [r0]
 6682 1e8a 05 00 00 00             		bsr	__ZN6tflite13ErrorReporter6ReportEPKcz
 6683                             	.LVL576:
 6684 1e8e 38 6D F9                		bra	.L381
 6685                             	.LVL577:
 6686                             	.L383:
 6687                             	.LBE1837:
 6688                             	.LBE1840:
 6689                             	.LBE1843:
 6690                             	.LBE1951:
 6691                             	.LBB1952:
 6692                             	.LBB1864:
 6693                             	.LBB1861:
 6694                             	.LBB1858:
 424:C:\Users\a5116938\Desktop\e2_studio_workspace\EEMBC_final\RX65N_Cloud_Kit\src/tensorflow/lite/micro\micro_mutable_op_resolver.h ****         TF_LITE_REPORT_ERROR(error_reporter_,
 6695                             		.loc 3 424 11
 6696 1e91 EE 71 03 05             		mov.L	5132[r7], r1
 424:C:\Users\a5116938\Desktop\e2_studio_workspace\EEMBC_final\RX65N_Cloud_Kit\src/tensorflow/lite/micro\micro_mutable_op_resolver.h ****         TF_LITE_REPORT_ERROR(error_reporter_,
 6697                             		.loc 3 424 7
 6698 1e95 61 01                   		cmp	#0, r1
 6699 1e97 3A D6 F9                		beq	.L387
 425:C:\Users\a5116938\Desktop\e2_studio_workspace\EEMBC_final\RX65N_Cloud_Kit\src/tensorflow/lite/micro\micro_mutable_op_resolver.h ****                              "Calling AddBuiltin with the same op more than "
 6700                             		.loc 3 425 9
 6701 1e9a 3E 01 1C                		mov.L	#28, 4[r0]
 6702 1e9d F8 02 00 00 00 00       		mov.L	#.LC0, [r0]
 6703 1ea3 05 00 00 00             		bsr	__ZN6tflite13ErrorReporter6ReportEPKcz
 6704                             	.LVL578:
 6705 1ea7 38 C6 F9                		bra	.L387
 6706                             	.LVL579:
 6707                             	.L389:
 6708                             	.LBE1858:
 6709                             	.LBE1861:
 6710                             	.LBE1864:
 6711                             	.LBE1952:
 6712                             	.LBB1953:
 6713                             	.LBB1885:
 6714                             	.LBB1882:
 6715                             	.LBB1879:
 424:C:\Users\a5116938\Desktop\e2_studio_workspace\EEMBC_final\RX65N_Cloud_Kit\src/tensorflow/lite/micro\micro_mutable_op_resolver.h ****         TF_LITE_REPORT_ERROR(error_reporter_,
 6716                             		.loc 3 424 11
 6717 1eaa EE 71 03 05             		mov.L	5132[r7], r1
 424:C:\Users\a5116938\Desktop\e2_studio_workspace\EEMBC_final\RX65N_Cloud_Kit\src/tensorflow/lite/micro\micro_mutable_op_resolver.h ****         TF_LITE_REPORT_ERROR(error_reporter_,
 6718                             		.loc 3 424 7
 6719 1eae 61 01                   		cmp	#0, r1
 6720 1eb0 3A 30 FA                		beq	.L393
 425:C:\Users\a5116938\Desktop\e2_studio_workspace\EEMBC_final\RX65N_Cloud_Kit\src/tensorflow/lite/micro\micro_mutable_op_resolver.h ****                              "Calling AddBuiltin with the same op more than "
 6721                             		.loc 3 425 9
 6722 1eb3 3E 01 58                		mov.L	#0x58, 4[r0]
 6723 1eb6 F8 02 00 00 00 00       		mov.L	#.LC0, [r0]
 6724 1ebc 05 00 00 00             		bsr	__ZN6tflite13ErrorReporter6ReportEPKcz
 6725                             	.LVL580:
 6726 1ec0 38 20 FA                		bra	.L393
 6727                             	.LVL581:
 6728                             	.L1138:
 6729                             	.LBE1879:
 6730                             	.LBE1882:
 6731                             	.LBE1885:
 6732                             	.LBE1953:
 6733                             	.LBB1954:
 6734                             	.LBB1896:
  80:C:\Users\a5116938\Desktop\e2_studio_workspace\EEMBC_final\RX65N_Cloud_Kit\src/tensorflow/lite/micro\micro_mutable_op_resolver.h ****         TF_LITE_REPORT_ERROR(
 6735                             		.loc 3 80 11
 6736 1ec3 EE 71 03 05             		mov.L	5132[r7], r1
 6737                             	.LVL582:
  80:C:\Users\a5116938\Desktop\e2_studio_workspace\EEMBC_final\RX65N_Cloud_Kit\src/tensorflow/lite/micro\micro_mutable_op_resolver.h ****         TF_LITE_REPORT_ERROR(
 6738                             		.loc 3 80 7
 6739 1ec7 61 01                   		cmp	#0, r1
 6740 1ec9 3A 7F FA                		beq	.L57
  81:C:\Users\a5116938\Desktop\e2_studio_workspace\EEMBC_final\RX65N_Cloud_Kit\src/tensorflow/lite/micro\micro_mutable_op_resolver.h ****             error_reporter_,
 6741                             		.loc 3 81 9
 6742 1ecc 3E 02 80                		mov.L	#0x80, 8[r0]
 6743 1ecf E7 0E 01                		mov.L	r14, 4[r0]
 6744 1ed2 F8 02 92 00 00 00       		mov.L	#.LC2, [r0]
 6745 1ed8 05 00 00 00             		bsr	__ZN6tflite13ErrorReporter6ReportEPKcz
 6746                             	.LVL583:
 6747                             	.LBE1896:
 6748                             	.LBE1954:
 6749                             	.LBE2071:
 6750                             	.LBE2074:
 6751                             		.loc 6 92 1
 6752 1edc 3F 6B 11                		rtsd	#68, r6-r11
 6753                             	.LVL584:
 6754                             	.L398:
 6755                             	.LBB2075:
 6756                             	.LBB2072:
 6757                             	.LBB1955:
 6758                             	.LBB1897:
 6759                             	.LBB1894:
 6760                             	.LBB1895:
 102:C:\Users\a5116938\Desktop\e2_studio_workspace\EEMBC_final\RX65N_Cloud_Kit\src/tensorflow/lite/micro\micro_mutable_op_resolver.h ****     new_registration->builtin_code = BuiltinOperator_CUSTOM;
 6761                             		.loc 3 102 5
 6762 1edf FD C5 F5                		shll	#5, r15, r5
 6763 1ee2 75 44 20                		mov.L	#32, r4
 6764 1ee5 4B 75                   		add	r7, r5
 100:C:\Users\a5116938\Desktop\e2_studio_workspace\EEMBC_final\RX65N_Cloud_Kit\src/tensorflow/lite/micro\micro_mutable_op_resolver.h **** 
 6765                             		.loc 3 100 24
 6766 1ee7 62 1F                   		add	#1, r15
 6767                             	.LVL585:
 102:C:\Users\a5116938\Desktop\e2_studio_workspace\EEMBC_final\RX65N_Cloud_Kit\src/tensorflow/lite/micro\micro_mutable_op_resolver.h ****     new_registration->builtin_code = BuiltinOperator_CUSTOM;
 6768                             		.loc 3 102 5
 6769 1ee9 71 51 04                		add	#4, r5, r1
 6770 1eec EF A2                   		mov.L	r10, r2
 6771 1eee EF 43                   		mov.L	r4, r3
 100:C:\Users\a5116938\Desktop\e2_studio_workspace\EEMBC_final\RX65N_Cloud_Kit\src/tensorflow/lite/micro\micro_mutable_op_resolver.h **** 
 6772                             		.loc 3 100 5
 6773 1ef0 EB 7F 01 04             		mov.L	r15, 4100[r7]
 6774                             	.LVL586:
 102:C:\Users\a5116938\Desktop\e2_studio_workspace\EEMBC_final\RX65N_Cloud_Kit\src/tensorflow/lite/micro\micro_mutable_op_resolver.h ****     new_registration->builtin_code = BuiltinOperator_CUSTOM;
 6775                             		.loc 3 102 5
 6776 1ef4 7F 8F                   		smovf
 103:C:\Users\a5116938\Desktop\e2_studio_workspace\EEMBC_final\RX65N_Cloud_Kit\src/tensorflow/lite/micro\micro_mutable_op_resolver.h ****     new_registration->custom_name = name;
 6777                             		.loc 3 103 5
 6778 1ef6 A1 D4                   		mov.L	r4, 24[r5]
 104:C:\Users\a5116938\Desktop\e2_studio_workspace\EEMBC_final\RX65N_Cloud_Kit\src/tensorflow/lite/micro\micro_mutable_op_resolver.h ****     return kTfLiteOk;
 6779                             		.loc 3 104 5
 6780 1ef8 E7 5E 07                		mov.L	r14, 28[r5]
 6781                             	.LVL587:
 6782                             	.LBE1895:
 6783                             	.LBE1894:
 6784                             	.LBE1897:
 6785                             	.LBE1955:
 6786                             	.LBE2072:
 6787                             	.LBE2075:
 6788                             		.loc 6 92 1
 6789 1efb 3F 6B 11                		rtsd	#68, r6-r11
 6790                             	.LVL588:
 6791                             	.L486:
 6792                             	.LBB2076:
 6793                             	.LBB2073:
 6794                             	.LBB1956:
 6795                             	.LBB1025:
 6796                             	.LBB1022:
 6797                             	.LBB1019:
 6798                             	.LBB1015:
 6799                             	.LBB1016:
 434:C:\Users\a5116938\Desktop\e2_studio_workspace\EEMBC_final\RX65N_Cloud_Kit\src/tensorflow/lite/micro\micro_mutable_op_resolver.h ****         TF_LITE_REPORT_ERROR(error_reporter_,
 6800                             		.loc 3 434 11
 6801 1efe EE 71 03 05             		mov.L	5132[r7], r1
 434:C:\Users\a5116938\Desktop\e2_studio_workspace\EEMBC_final\RX65N_Cloud_Kit\src/tensorflow/lite/micro\micro_mutable_op_resolver.h ****         TF_LITE_REPORT_ERROR(error_reporter_,
 6802                             		.loc 3 434 7
 6803 1f02 61 01                   		cmp	#0, r1
 6804 1f04 3A AD E7                		beq	.L147
 435:C:\Users\a5116938\Desktop\e2_studio_workspace\EEMBC_final\RX65N_Cloud_Kit\src/tensorflow/lite/micro\micro_mutable_op_resolver.h ****                              "Couldn't register builtin op #%d, resolver size "
 6805                             		.loc 3 435 9
 6806 1f07 A0 84                   		mov.L	r4, 8[r0]
 6807 1f09 3E 01 3D                		mov.L	#61, 4[r0]
 6808 1f0c F8 02 4F 00 00 00       		mov.L	#.LC1, [r0]
 6809 1f12 05 00 00 00             		bsr	__ZN6tflite13ErrorReporter6ReportEPKcz
 6810                             	.LVL589:
 6811 1f16 38 9B E7                		bra	.L147
 6812                             	.LVL590:
 6813                             	.L483:
 6814                             	.LBE1016:
 6815                             	.LBE1015:
 6816                             	.LBE1019:
 6817                             	.LBE1022:
 6818                             	.LBE1025:
 6819                             	.LBE1956:
 6820                             	.LBB1957:
 6821                             	.LBB1046:
 6822                             	.LBB1043:
 6823                             	.LBB1040:
 6824                             	.LBB1036:
 6825                             	.LBB1037:
 434:C:\Users\a5116938\Desktop\e2_studio_workspace\EEMBC_final\RX65N_Cloud_Kit\src/tensorflow/lite/micro\micro_mutable_op_resolver.h ****         TF_LITE_REPORT_ERROR(error_reporter_,
 6826                             		.loc 3 434 11
 6827 1f19 EE 71 03 05             		mov.L	5132[r7], r1
 434:C:\Users\a5116938\Desktop\e2_studio_workspace\EEMBC_final\RX65N_Cloud_Kit\src/tensorflow/lite/micro\micro_mutable_op_resolver.h ****         TF_LITE_REPORT_ERROR(error_reporter_,
 6828                             		.loc 3 434 7
 6829 1f1d 61 01                   		cmp	#0, r1
 6830 1f1f 3A 04 E8                		beq	.L153
 435:C:\Users\a5116938\Desktop\e2_studio_workspace\EEMBC_final\RX65N_Cloud_Kit\src/tensorflow/lite/micro\micro_mutable_op_resolver.h ****                              "Couldn't register builtin op #%d, resolver size "
 6831                             		.loc 3 435 9
 6832 1f22 A0 84                   		mov.L	r4, 8[r0]
 6833 1f24 3E 01 3E                		mov.L	#62, 4[r0]
 6834 1f27 F8 02 4F 00 00 00       		mov.L	#.LC1, [r0]
 6835 1f2d 05 00 00 00             		bsr	__ZN6tflite13ErrorReporter6ReportEPKcz
 6836                             	.LVL591:
 6837 1f31 38 F2 E7                		bra	.L153
 6838                             	.LVL592:
 6839                             	.L482:
 6840                             	.LBE1037:
 6841                             	.LBE1036:
 6842                             	.LBE1040:
 6843                             	.LBE1043:
 6844                             	.LBE1046:
 6845                             	.LBE1957:
 6846                             	.LBB1958:
 6847                             	.LBB1067:
 6848                             	.LBB1064:
 6849                             	.LBB1061:
 6850                             	.LBB1057:
 6851                             	.LBB1058:
 434:C:\Users\a5116938\Desktop\e2_studio_workspace\EEMBC_final\RX65N_Cloud_Kit\src/tensorflow/lite/micro\micro_mutable_op_resolver.h ****         TF_LITE_REPORT_ERROR(error_reporter_,
 6852                             		.loc 3 434 11
 6853 1f34 EE 71 03 05             		mov.L	5132[r7], r1
 434:C:\Users\a5116938\Desktop\e2_studio_workspace\EEMBC_final\RX65N_Cloud_Kit\src/tensorflow/lite/micro\micro_mutable_op_resolver.h ****         TF_LITE_REPORT_ERROR(error_reporter_,
 6854                             		.loc 3 434 7
 6855 1f38 61 01                   		cmp	#0, r1
 6856 1f3a 3A 5B E8                		beq	.L159
 435:C:\Users\a5116938\Desktop\e2_studio_workspace\EEMBC_final\RX65N_Cloud_Kit\src/tensorflow/lite/micro\micro_mutable_op_resolver.h ****                              "Couldn't register builtin op #%d, resolver size "
 6857                             		.loc 3 435 9
 6858 1f3d A0 84                   		mov.L	r4, 8[r0]
 6859 1f3f 3E 01 75                		mov.L	#0x75, 4[r0]
 6860 1f42 F8 02 4F 00 00 00       		mov.L	#.LC1, [r0]
 6861 1f48 05 00 00 00             		bsr	__ZN6tflite13ErrorReporter6ReportEPKcz
 6862                             	.LVL593:
 6863 1f4c 38 49 E8                		bra	.L159
 6864                             	.LVL594:
 6865                             	.L480:
 6866                             	.LBE1058:
 6867                             	.LBE1057:
 6868                             	.LBE1061:
 6869                             	.LBE1064:
 6870                             	.LBE1067:
 6871                             	.LBE1958:
 6872                             	.LBB1959:
 6873                             	.LBB1088:
 6874                             	.LBB1085:
 6875                             	.LBB1082:
 6876                             	.LBB1078:
 6877                             	.LBB1079:
 434:C:\Users\a5116938\Desktop\e2_studio_workspace\EEMBC_final\RX65N_Cloud_Kit\src/tensorflow/lite/micro\micro_mutable_op_resolver.h ****         TF_LITE_REPORT_ERROR(error_reporter_,
 6878                             		.loc 3 434 11
 6879 1f4f EE 71 03 05             		mov.L	5132[r7], r1
 434:C:\Users\a5116938\Desktop\e2_studio_workspace\EEMBC_final\RX65N_Cloud_Kit\src/tensorflow/lite/micro\micro_mutable_op_resolver.h ****         TF_LITE_REPORT_ERROR(error_reporter_,
 6880                             		.loc 3 434 7
 6881 1f53 61 01                   		cmp	#0, r1
 6882 1f55 3A B0 E8                		beq	.L165
 435:C:\Users\a5116938\Desktop\e2_studio_workspace\EEMBC_final\RX65N_Cloud_Kit\src/tensorflow/lite/micro\micro_mutable_op_resolver.h ****                              "Couldn't register builtin op #%d, resolver size "
 6883                             		.loc 3 435 9
 6884 1f58 A0 84                   		mov.L	r4, 8[r0]
 6885 1f5a 3E 01 0B                		mov.L	#11, 4[r0]
 6886 1f5d F8 02 4F 00 00 00       		mov.L	#.LC1, [r0]
 6887 1f63 05 00 00 00             		bsr	__ZN6tflite13ErrorReporter6ReportEPKcz
 6888                             	.LVL595:
 6889 1f67 38 9E E8                		bra	.L165
 6890                             	.LVL596:
 6891                             	.L477:
 6892                             	.LBE1079:
 6893                             	.LBE1078:
 6894                             	.LBE1082:
 6895                             	.LBE1085:
 6896                             	.LBE1088:
 6897                             	.LBE1959:
 6898                             	.LBB1960:
 6899                             	.LBB1109:
 6900                             	.LBB1106:
 6901                             	.LBB1103:
 6902                             	.LBB1099:
 6903                             	.LBB1100:
 434:C:\Users\a5116938\Desktop\e2_studio_workspace\EEMBC_final\RX65N_Cloud_Kit\src/tensorflow/lite/micro\micro_mutable_op_resolver.h ****         TF_LITE_REPORT_ERROR(error_reporter_,
 6904                             		.loc 3 434 11
 6905 1f6a EE 71 03 05             		mov.L	5132[r7], r1
 434:C:\Users\a5116938\Desktop\e2_studio_workspace\EEMBC_final\RX65N_Cloud_Kit\src/tensorflow/lite/micro\micro_mutable_op_resolver.h ****         TF_LITE_REPORT_ERROR(error_reporter_,
 6906                             		.loc 3 434 7
 6907 1f6e 61 01                   		cmp	#0, r1
 6908 1f70 3A 06 E9                		beq	.L171
 435:C:\Users\a5116938\Desktop\e2_studio_workspace\EEMBC_final\RX65N_Cloud_Kit\src/tensorflow/lite/micro\micro_mutable_op_resolver.h ****                              "Couldn't register builtin op #%d, resolver size "
 6909                             		.loc 3 435 9
 6910 1f73 A0 84                   		mov.L	r4, 8[r0]
 6911 1f75 3E 01 3A                		mov.L	#58, 4[r0]
 6912 1f78 F8 02 4F 00 00 00       		mov.L	#.LC1, [r0]
 6913 1f7e 05 00 00 00             		bsr	__ZN6tflite13ErrorReporter6ReportEPKcz
 6914                             	.LVL597:
 6915 1f82 38 F4 E8                		bra	.L171
 6916                             	.LVL598:
 6917                             	.L476:
 6918                             	.LBE1100:
 6919                             	.LBE1099:
 6920                             	.LBE1103:
 6921                             	.LBE1106:
 6922                             	.LBE1109:
 6923                             	.LBE1960:
 6924                             	.LBB1961:
 6925                             	.LBB1130:
 6926                             	.LBB1127:
 6927                             	.LBB1124:
 6928                             	.LBB1120:
 6929                             	.LBB1121:
 434:C:\Users\a5116938\Desktop\e2_studio_workspace\EEMBC_final\RX65N_Cloud_Kit\src/tensorflow/lite/micro\micro_mutable_op_resolver.h ****         TF_LITE_REPORT_ERROR(error_reporter_,
 6930                             		.loc 3 434 11
 6931 1f85 EE 71 03 05             		mov.L	5132[r7], r1
 434:C:\Users\a5116938\Desktop\e2_studio_workspace\EEMBC_final\RX65N_Cloud_Kit\src/tensorflow/lite/micro\micro_mutable_op_resolver.h ****         TF_LITE_REPORT_ERROR(error_reporter_,
 6932                             		.loc 3 434 7
 6933 1f89 61 01                   		cmp	#0, r1
 6934 1f8b 3A 5D E9                		beq	.L177
 435:C:\Users\a5116938\Desktop\e2_studio_workspace\EEMBC_final\RX65N_Cloud_Kit\src/tensorflow/lite/micro\micro_mutable_op_resolver.h ****                              "Couldn't register builtin op #%d, resolver size "
 6935                             		.loc 3 435 9
 6936 1f8e A0 84                   		mov.L	r4, 8[r0]
 6937 1f90 3E 01 3F                		mov.L	#63, 4[r0]
 6938 1f93 F8 02 4F 00 00 00       		mov.L	#.LC1, [r0]
 6939 1f99 05 00 00 00             		bsr	__ZN6tflite13ErrorReporter6ReportEPKcz
 6940                             	.LVL599:
 6941 1f9d 38 4B E9                		bra	.L177
 6942                             	.LVL600:
 6943                             	.L474:
 6944                             	.LBE1121:
 6945                             	.LBE1120:
 6946                             	.LBE1124:
 6947                             	.LBE1127:
 6948                             	.LBE1130:
 6949                             	.LBE1961:
 6950                             	.LBB1962:
 6951                             	.LBB1151:
 6952                             	.LBB1148:
 6953                             	.LBB1145:
 6954                             	.LBB1141:
 6955                             	.LBB1142:
 434:C:\Users\a5116938\Desktop\e2_studio_workspace\EEMBC_final\RX65N_Cloud_Kit\src/tensorflow/lite/micro\micro_mutable_op_resolver.h ****         TF_LITE_REPORT_ERROR(error_reporter_,
 6956                             		.loc 3 434 11
 6957 1fa0 EE 71 03 05             		mov.L	5132[r7], r1
 434:C:\Users\a5116938\Desktop\e2_studio_workspace\EEMBC_final\RX65N_Cloud_Kit\src/tensorflow/lite/micro\micro_mutable_op_resolver.h ****         TF_LITE_REPORT_ERROR(error_reporter_,
 6958                             		.loc 3 434 7
 6959 1fa4 61 01                   		cmp	#0, r1
 6960 1fa6 3A B3 E9                		beq	.L183
 435:C:\Users\a5116938\Desktop\e2_studio_workspace\EEMBC_final\RX65N_Cloud_Kit\src/tensorflow/lite/micro\micro_mutable_op_resolver.h ****                              "Couldn't register builtin op #%d, resolver size "
 6961                             		.loc 3 435 9
 6962 1fa9 A0 84                   		mov.L	r4, 8[r0]
 6963 1fab 3E 01 49                		mov.L	#0x49, 4[r0]
 6964 1fae F8 02 4F 00 00 00       		mov.L	#.LC1, [r0]
 6965 1fb4 05 00 00 00             		bsr	__ZN6tflite13ErrorReporter6ReportEPKcz
 6966                             	.LVL601:
 6967 1fb8 38 A1 E9                		bra	.L183
 6968                             	.LVL602:
 6969                             	.L472:
 6970                             	.LBE1142:
 6971                             	.LBE1141:
 6972                             	.LBE1145:
 6973                             	.LBE1148:
 6974                             	.LBE1151:
 6975                             	.LBE1962:
 6976                             	.LBB1963:
 6977                             	.LBB1172:
 6978                             	.LBB1169:
 6979                             	.LBB1166:
 6980                             	.LBB1162:
 6981                             	.LBB1163:
 434:C:\Users\a5116938\Desktop\e2_studio_workspace\EEMBC_final\RX65N_Cloud_Kit\src/tensorflow/lite/micro\micro_mutable_op_resolver.h ****         TF_LITE_REPORT_ERROR(error_reporter_,
 6982                             		.loc 3 434 11
 6983 1fbb EE 71 03 05             		mov.L	5132[r7], r1
 434:C:\Users\a5116938\Desktop\e2_studio_workspace\EEMBC_final\RX65N_Cloud_Kit\src/tensorflow/lite/micro\micro_mutable_op_resolver.h ****         TF_LITE_REPORT_ERROR(error_reporter_,
 6984                             		.loc 3 434 7
 6985 1fbf 61 01                   		cmp	#0, r1
 6986 1fc1 3A 0A EA                		beq	.L189
 435:C:\Users\a5116938\Desktop\e2_studio_workspace\EEMBC_final\RX65N_Cloud_Kit\src/tensorflow/lite/micro\micro_mutable_op_resolver.h ****                              "Couldn't register builtin op #%d, resolver size "
 6987                             		.loc 3 435 9
 6988 1fc4 A0 84                   		mov.L	r4, 8[r0]
 6989 1fc6 3E 01 56                		mov.L	#0x56, 4[r0]
 6990 1fc9 F8 02 4F 00 00 00       		mov.L	#.LC1, [r0]
 6991 1fcf 05 00 00 00             		bsr	__ZN6tflite13ErrorReporter6ReportEPKcz
 6992                             	.LVL603:
 6993 1fd3 38 F8 E9                		bra	.L189
 6994                             	.LVL604:
 6995                             	.L469:
 6996                             	.LBE1163:
 6997                             	.LBE1162:
 6998                             	.LBE1166:
 6999                             	.LBE1169:
 7000                             	.LBE1172:
 7001                             	.LBE1963:
 7002                             	.LBB1964:
 7003                             	.LBB1193:
 7004                             	.LBB1190:
 7005                             	.LBB1187:
 7006                             	.LBB1183:
 7007                             	.LBB1184:
 434:C:\Users\a5116938\Desktop\e2_studio_workspace\EEMBC_final\RX65N_Cloud_Kit\src/tensorflow/lite/micro\micro_mutable_op_resolver.h ****         TF_LITE_REPORT_ERROR(error_reporter_,
 7008                             		.loc 3 434 11
 7009 1fd6 EE 71 03 05             		mov.L	5132[r7], r1
 434:C:\Users\a5116938\Desktop\e2_studio_workspace\EEMBC_final\RX65N_Cloud_Kit\src/tensorflow/lite/micro\micro_mutable_op_resolver.h ****         TF_LITE_REPORT_ERROR(error_reporter_,
 7010                             		.loc 3 434 7
 7011 1fda 61 01                   		cmp	#0, r1
 7012 1fdc 3A 61 EA                		beq	.L195
 435:C:\Users\a5116938\Desktop\e2_studio_workspace\EEMBC_final\RX65N_Cloud_Kit\src/tensorflow/lite/micro\micro_mutable_op_resolver.h ****                              "Couldn't register builtin op #%d, resolver size "
 7013                             		.loc 3 435 9
 7014 1fdf A0 84                   		mov.L	r4, 8[r0]
 7015 1fe1 3E 01 57                		mov.L	#0x57, 4[r0]
 7016 1fe4 F8 02 4F 00 00 00       		mov.L	#.LC1, [r0]
 7017 1fea 05 00 00 00             		bsr	__ZN6tflite13ErrorReporter6ReportEPKcz
 7018                             	.LVL605:
 7019 1fee 38 4F EA                		bra	.L195
 7020                             	.LVL606:
 7021                             	.L468:
 7022                             	.LBE1184:
 7023                             	.LBE1183:
 7024                             	.LBE1187:
 7025                             	.LBE1190:
 7026                             	.LBE1193:
 7027                             	.LBE1964:
 7028                             	.LBB1965:
 7029                             	.LBB1214:
 7030                             	.LBB1211:
 7031                             	.LBB1208:
 7032                             	.LBB1204:
 7033                             	.LBB1205:
 434:C:\Users\a5116938\Desktop\e2_studio_workspace\EEMBC_final\RX65N_Cloud_Kit\src/tensorflow/lite/micro\micro_mutable_op_resolver.h ****         TF_LITE_REPORT_ERROR(error_reporter_,
 7034                             		.loc 3 434 11
 7035 1ff1 EE 71 03 05             		mov.L	5132[r7], r1
 434:C:\Users\a5116938\Desktop\e2_studio_workspace\EEMBC_final\RX65N_Cloud_Kit\src/tensorflow/lite/micro\micro_mutable_op_resolver.h ****         TF_LITE_REPORT_ERROR(error_reporter_,
 7036                             		.loc 3 434 7
 7037 1ff5 61 01                   		cmp	#0, r1
 7038 1ff7 3A B7 EA                		beq	.L201
 435:C:\Users\a5116938\Desktop\e2_studio_workspace\EEMBC_final\RX65N_Cloud_Kit\src/tensorflow/lite/micro\micro_mutable_op_resolver.h ****                              "Couldn't register builtin op #%d, resolver size "
 7039                             		.loc 3 435 9
 7040 1ffa A0 84                   		mov.L	r4, 8[r0]
 7041 1ffc 3E 01 54                		mov.L	#0x54, 4[r0]
 7042 1fff F8 02 4F 00 00 00       		mov.L	#.LC1, [r0]
 7043 2005 05 00 00 00             		bsr	__ZN6tflite13ErrorReporter6ReportEPKcz
 7044                             	.LVL607:
 7045 2009 38 A5 EA                		bra	.L201
 7046                             	.LVL608:
 7047                             	.L466:
 7048                             	.LBE1205:
 7049                             	.LBE1204:
 7050                             	.LBE1208:
 7051                             	.LBE1211:
 7052                             	.LBE1214:
 7053                             	.LBE1965:
 7054                             	.LBB1966:
 7055                             	.LBB1235:
 7056                             	.LBB1232:
 7057                             	.LBB1229:
 7058                             	.LBB1225:
 7059                             	.LBB1226:
 434:C:\Users\a5116938\Desktop\e2_studio_workspace\EEMBC_final\RX65N_Cloud_Kit\src/tensorflow/lite/micro\micro_mutable_op_resolver.h ****         TF_LITE_REPORT_ERROR(error_reporter_,
 7060                             		.loc 3 434 11
 7061 200c EE 71 03 05             		mov.L	5132[r7], r1
 434:C:\Users\a5116938\Desktop\e2_studio_workspace\EEMBC_final\RX65N_Cloud_Kit\src/tensorflow/lite/micro\micro_mutable_op_resolver.h ****         TF_LITE_REPORT_ERROR(error_reporter_,
 7062                             		.loc 3 434 7
 7063 2010 61 01                   		cmp	#0, r1
 7064 2012 3A 0B EB                		beq	.L207
 435:C:\Users\a5116938\Desktop\e2_studio_workspace\EEMBC_final\RX65N_Cloud_Kit\src/tensorflow/lite/micro\micro_mutable_op_resolver.h ****                              "Couldn't register builtin op #%d, resolver size "
 7065                             		.loc 3 435 9
 7066 2015 A0 84                   		mov.L	r4, 8[r0]
 7067 2017 3E 01 0E                		mov.L	#14, 4[r0]
 7068 201a F8 02 4F 00 00 00       		mov.L	#.LC1, [r0]
 7069 2020 05 00 00 00             		bsr	__ZN6tflite13ErrorReporter6ReportEPKcz
 7070                             	.LVL609:
 7071 2024 38 F9 EA                		bra	.L207
 7072                             	.LVL610:
 7073                             	.L463:
 7074                             	.LBE1226:
 7075                             	.LBE1225:
 7076                             	.LBE1229:
 7077                             	.LBE1232:
 7078                             	.LBE1235:
 7079                             	.LBE1966:
 7080                             	.LBB1967:
 7081                             	.LBB1256:
 7082                             	.LBB1253:
 7083                             	.LBB1250:
 7084                             	.LBB1246:
 7085                             	.LBB1247:
 434:C:\Users\a5116938\Desktop\e2_studio_workspace\EEMBC_final\RX65N_Cloud_Kit\src/tensorflow/lite/micro\micro_mutable_op_resolver.h ****         TF_LITE_REPORT_ERROR(error_reporter_,
 7086                             		.loc 3 434 11
 7087 2027 EE 71 03 05             		mov.L	5132[r7], r1
 434:C:\Users\a5116938\Desktop\e2_studio_workspace\EEMBC_final\RX65N_Cloud_Kit\src/tensorflow/lite/micro\micro_mutable_op_resolver.h ****         TF_LITE_REPORT_ERROR(error_reporter_,
 7088                             		.loc 3 434 7
 7089 202b 61 01                   		cmp	#0, r1
 7090 202d 3A 61 EB                		beq	.L213
 435:C:\Users\a5116938\Desktop\e2_studio_workspace\EEMBC_final\RX65N_Cloud_Kit\src/tensorflow/lite/micro\micro_mutable_op_resolver.h ****                              "Couldn't register builtin op #%d, resolver size "
 7091                             		.loc 3 435 9
 7092 2030 A0 84                   		mov.L	r4, 8[r0]
 7093 2032 3E 01 37                		mov.L	#55, 4[r0]
 7094 2035 F8 02 4F 00 00 00       		mov.L	#.LC1, [r0]
 7095 203b 05 00 00 00             		bsr	__ZN6tflite13ErrorReporter6ReportEPKcz
 7096                             	.LVL611:
 7097 203f 38 4F EB                		bra	.L213
 7098                             	.LVL612:
 7099                             	.L462:
 7100                             	.LBE1247:
 7101                             	.LBE1246:
 7102                             	.LBE1250:
 7103                             	.LBE1253:
 7104                             	.LBE1256:
 7105                             	.LBE1967:
 7106                             	.LBB1968:
 7107                             	.LBB1277:
 7108                             	.LBB1274:
 7109                             	.LBB1271:
 7110                             	.LBB1267:
 7111                             	.LBB1268:
 434:C:\Users\a5116938\Desktop\e2_studio_workspace\EEMBC_final\RX65N_Cloud_Kit\src/tensorflow/lite/micro\micro_mutable_op_resolver.h ****         TF_LITE_REPORT_ERROR(error_reporter_,
 7112                             		.loc 3 434 11
 7113 2042 EE 71 03 05             		mov.L	5132[r7], r1
 434:C:\Users\a5116938\Desktop\e2_studio_workspace\EEMBC_final\RX65N_Cloud_Kit\src/tensorflow/lite/micro\micro_mutable_op_resolver.h ****         TF_LITE_REPORT_ERROR(error_reporter_,
 7114                             		.loc 3 434 7
 7115 2046 61 01                   		cmp	#0, r1
 7116 2048 3A B8 EB                		beq	.L219
 435:C:\Users\a5116938\Desktop\e2_studio_workspace\EEMBC_final\RX65N_Cloud_Kit\src/tensorflow/lite/micro\micro_mutable_op_resolver.h ****                              "Couldn't register builtin op #%d, resolver size "
 7117                             		.loc 3 435 9
 7118 204b A0 84                   		mov.L	r4, 8[r0]
 7119 204d 3E 01 11                		mov.L	#17, 4[r0]
 7120 2050 F8 02 4F 00 00 00       		mov.L	#.LC1, [r0]
 7121 2056 05 00 00 00             		bsr	__ZN6tflite13ErrorReporter6ReportEPKcz
 7122                             	.LVL613:
 7123 205a 38 A6 EB                		bra	.L219
 7124                             	.LVL614:
 7125                             	.L460:
 7126                             	.LBE1268:
 7127                             	.LBE1267:
 7128                             	.LBE1271:
 7129                             	.LBE1274:
 7130                             	.LBE1277:
 7131                             	.LBE1968:
 7132                             	.LBB1969:
 7133                             	.LBB1298:
 7134                             	.LBB1295:
 7135                             	.LBB1292:
 7136                             	.LBB1288:
 7137                             	.LBB1289:
 434:C:\Users\a5116938\Desktop\e2_studio_workspace\EEMBC_final\RX65N_Cloud_Kit\src/tensorflow/lite/micro\micro_mutable_op_resolver.h ****         TF_LITE_REPORT_ERROR(error_reporter_,
 7138                             		.loc 3 434 11
 7139 205d EE 71 03 05             		mov.L	5132[r7], r1
 434:C:\Users\a5116938\Desktop\e2_studio_workspace\EEMBC_final\RX65N_Cloud_Kit\src/tensorflow/lite/micro\micro_mutable_op_resolver.h ****         TF_LITE_REPORT_ERROR(error_reporter_,
 7140                             		.loc 3 434 7
 7141 2061 61 01                   		cmp	#0, r1
 7142 2063 3A 0E EC                		beq	.L225
 435:C:\Users\a5116938\Desktop\e2_studio_workspace\EEMBC_final\RX65N_Cloud_Kit\src/tensorflow/lite/micro\micro_mutable_op_resolver.h ****                              "Couldn't register builtin op #%d, resolver size "
 7143                             		.loc 3 435 9
 7144 2066 A0 84                   		mov.L	r4, 8[r0]
 7145 2068 3E 01 28                		mov.L	#40, 4[r0]
 7146 206b F8 02 4F 00 00 00       		mov.L	#.LC1, [r0]
 7147 2071 05 00 00 00             		bsr	__ZN6tflite13ErrorReporter6ReportEPKcz
 7148                             	.LVL615:
 7149 2075 38 FC EB                		bra	.L225
 7150                             	.LVL616:
 7151                             	.L458:
 7152                             	.LBE1289:
 7153                             	.LBE1288:
 7154                             	.LBE1292:
 7155                             	.LBE1295:
 7156                             	.LBE1298:
 7157                             	.LBE1969:
 7158                             	.LBB1970:
 7159                             	.LBB1319:
 7160                             	.LBB1316:
 7161                             	.LBB1313:
 7162                             	.LBB1309:
 7163                             	.LBB1310:
 434:C:\Users\a5116938\Desktop\e2_studio_workspace\EEMBC_final\RX65N_Cloud_Kit\src/tensorflow/lite/micro\micro_mutable_op_resolver.h ****         TF_LITE_REPORT_ERROR(error_reporter_,
 7164                             		.loc 3 434 11
 7165 2078 EE 71 03 05             		mov.L	5132[r7], r1
 434:C:\Users\a5116938\Desktop\e2_studio_workspace\EEMBC_final\RX65N_Cloud_Kit\src/tensorflow/lite/micro\micro_mutable_op_resolver.h ****         TF_LITE_REPORT_ERROR(error_reporter_,
 7166                             		.loc 3 434 7
 7167 207c 61 01                   		cmp	#0, r1
 7168 207e 3A 65 EC                		beq	.L231
 435:C:\Users\a5116938\Desktop\e2_studio_workspace\EEMBC_final\RX65N_Cloud_Kit\src/tensorflow/lite/micro\micro_mutable_op_resolver.h ****                              "Couldn't register builtin op #%d, resolver size "
 7169                             		.loc 3 435 9
 7170 2081 A0 84                   		mov.L	r4, 8[r0]
 7171 2083 3E 01 39                		mov.L	#57, 4[r0]
 7172 2086 F8 02 4F 00 00 00       		mov.L	#.LC1, [r0]
 7173 208c 05 00 00 00             		bsr	__ZN6tflite13ErrorReporter6ReportEPKcz
 7174                             	.LVL617:
 7175 2090 38 53 EC                		bra	.L231
 7176                             	.LVL618:
 7177                             	.L455:
 7178                             	.LBE1310:
 7179                             	.LBE1309:
 7180                             	.LBE1313:
 7181                             	.LBE1316:
 7182                             	.LBE1319:
 7183                             	.LBE1970:
 7184                             	.LBB1971:
 7185                             	.LBB1340:
 7186                             	.LBB1337:
 7187                             	.LBB1334:
 7188                             	.LBB1330:
 7189                             	.LBB1331:
 434:C:\Users\a5116938\Desktop\e2_studio_workspace\EEMBC_final\RX65N_Cloud_Kit\src/tensorflow/lite/micro\micro_mutable_op_resolver.h ****         TF_LITE_REPORT_ERROR(error_reporter_,
 7190                             		.loc 3 434 11
 7191 2093 EE 71 03 05             		mov.L	5132[r7], r1
 434:C:\Users\a5116938\Desktop\e2_studio_workspace\EEMBC_final\RX65N_Cloud_Kit\src/tensorflow/lite/micro\micro_mutable_op_resolver.h ****         TF_LITE_REPORT_ERROR(error_reporter_,
 7192                             		.loc 3 434 7
 7193 2097 61 01                   		cmp	#0, r1
 7194 2099 3A BC EC                		beq	.L237
 435:C:\Users\a5116938\Desktop\e2_studio_workspace\EEMBC_final\RX65N_Cloud_Kit\src/tensorflow/lite/micro\micro_mutable_op_resolver.h ****                              "Couldn't register builtin op #%d, resolver size "
 7195                             		.loc 3 435 9
 7196 209c A0 84                   		mov.L	r4, 8[r0]
 7197 209e 3E 01 12                		mov.L	#18, 4[r0]
 7198 20a1 F8 02 4F 00 00 00       		mov.L	#.LC1, [r0]
 7199 20a7 05 00 00 00             		bsr	__ZN6tflite13ErrorReporter6ReportEPKcz
 7200                             	.LVL619:
 7201 20ab 38 AA EC                		bra	.L237
 7202                             	.LVL620:
 7203                             	.L454:
 7204                             	.LBE1331:
 7205                             	.LBE1330:
 7206                             	.LBE1334:
 7207                             	.LBE1337:
 7208                             	.LBE1340:
 7209                             	.LBE1971:
 7210                             	.LBB1972:
 7211                             	.LBB1361:
 7212                             	.LBB1358:
 7213                             	.LBB1355:
 7214                             	.LBB1351:
 7215                             	.LBB1352:
 434:C:\Users\a5116938\Desktop\e2_studio_workspace\EEMBC_final\RX65N_Cloud_Kit\src/tensorflow/lite/micro\micro_mutable_op_resolver.h ****         TF_LITE_REPORT_ERROR(error_reporter_,
 7216                             		.loc 3 434 11
 7217 20ae EE 71 03 05             		mov.L	5132[r7], r1
 434:C:\Users\a5116938\Desktop\e2_studio_workspace\EEMBC_final\RX65N_Cloud_Kit\src/tensorflow/lite/micro\micro_mutable_op_resolver.h ****         TF_LITE_REPORT_ERROR(error_reporter_,
 7218                             		.loc 3 434 7
 7219 20b2 61 01                   		cmp	#0, r1
 7220 20b4 3A 12 ED                		beq	.L243
 435:C:\Users\a5116938\Desktop\e2_studio_workspace\EEMBC_final\RX65N_Cloud_Kit\src/tensorflow/lite/micro\micro_mutable_op_resolver.h ****                              "Couldn't register builtin op #%d, resolver size "
 7221                             		.loc 3 435 9
 7222 20b7 A0 84                   		mov.L	r4, 8[r0]
 7223 20b9 3E 01 3B                		mov.L	#59, 4[r0]
 7224 20bc F8 02 4F 00 00 00       		mov.L	#.LC1, [r0]
 7225 20c2 05 00 00 00             		bsr	__ZN6tflite13ErrorReporter6ReportEPKcz
 7226                             	.LVL621:
 7227 20c6 38 00 ED                		bra	.L243
 7228                             	.LVL622:
 7229                             	.L452:
 7230                             	.LBE1352:
 7231                             	.LBE1351:
 7232                             	.LBE1355:
 7233                             	.LBE1358:
 7234                             	.LBE1361:
 7235                             	.LBE1972:
 7236                             	.LBB1973:
 7237                             	.LBB1382:
 7238                             	.LBB1379:
 7239                             	.LBB1376:
 7240                             	.LBB1372:
 7241                             	.LBB1373:
 434:C:\Users\a5116938\Desktop\e2_studio_workspace\EEMBC_final\RX65N_Cloud_Kit\src/tensorflow/lite/micro\micro_mutable_op_resolver.h ****         TF_LITE_REPORT_ERROR(error_reporter_,
 7242                             		.loc 3 434 11
 7243 20c9 EE 71 03 05             		mov.L	5132[r7], r1
 434:C:\Users\a5116938\Desktop\e2_studio_workspace\EEMBC_final\RX65N_Cloud_Kit\src/tensorflow/lite/micro\micro_mutable_op_resolver.h ****         TF_LITE_REPORT_ERROR(error_reporter_,
 7244                             		.loc 3 434 7
 7245 20cd 61 01                   		cmp	#0, r1
 7246 20cf 3A 69 ED                		beq	.L249
 435:C:\Users\a5116938\Desktop\e2_studio_workspace\EEMBC_final\RX65N_Cloud_Kit\src/tensorflow/lite/micro\micro_mutable_op_resolver.h ****                              "Couldn't register builtin op #%d, resolver size "
 7247                             		.loc 3 435 9
 7248 20d2 A0 84                   		mov.L	r4, 8[r0]
 7249 20d4 3E 01 48                		mov.L	#0x48, 4[r0]
 7250 20d7 F8 02 4F 00 00 00       		mov.L	#.LC1, [r0]
 7251 20dd 05 00 00 00             		bsr	__ZN6tflite13ErrorReporter6ReportEPKcz
 7252                             	.LVL623:
 7253 20e1 38 57 ED                		bra	.L249
 7254                             	.LVL624:
 7255                             	.L449:
 7256                             	.LBE1373:
 7257                             	.LBE1372:
 7258                             	.LBE1376:
 7259                             	.LBE1379:
 7260                             	.LBE1382:
 7261                             	.LBE1973:
 7262                             	.LBB1974:
 7263                             	.LBB1403:
 7264                             	.LBB1400:
 7265                             	.LBB1397:
 7266                             	.LBB1393:
 7267                             	.LBB1394:
 434:C:\Users\a5116938\Desktop\e2_studio_workspace\EEMBC_final\RX65N_Cloud_Kit\src/tensorflow/lite/micro\micro_mutable_op_resolver.h ****         TF_LITE_REPORT_ERROR(error_reporter_,
 7268                             		.loc 3 434 11
 7269 20e4 EE 71 03 05             		mov.L	5132[r7], r1
 434:C:\Users\a5116938\Desktop\e2_studio_workspace\EEMBC_final\RX65N_Cloud_Kit\src/tensorflow/lite/micro\micro_mutable_op_resolver.h ****         TF_LITE_REPORT_ERROR(error_reporter_,
 7270                             		.loc 3 434 7
 7271 20e8 61 01                   		cmp	#0, r1
 7272 20ea 3A BF ED                		beq	.L255
 435:C:\Users\a5116938\Desktop\e2_studio_workspace\EEMBC_final\RX65N_Cloud_Kit\src/tensorflow/lite/micro\micro_mutable_op_resolver.h ****                              "Couldn't register builtin op #%d, resolver size "
 7273                             		.loc 3 435 9
 7274 20ed A0 84                   		mov.L	r4, 8[r0]
 7275 20ef 3E 01 53                		mov.L	#0x53, 4[r0]
 7276 20f2 F8 02 4F 00 00 00       		mov.L	#.LC1, [r0]
 7277 20f8 05 00 00 00             		bsr	__ZN6tflite13ErrorReporter6ReportEPKcz
 7278                             	.LVL625:
 7279 20fc 38 AD ED                		bra	.L255
 7280                             	.LVL626:
 7281                             	.L448:
 7282                             	.LBE1394:
 7283                             	.LBE1393:
 7284                             	.LBE1397:
 7285                             	.LBE1400:
 7286                             	.LBE1403:
 7287                             	.LBE1974:
 7288                             	.LBB1975:
 7289                             	.LBB1424:
 7290                             	.LBB1421:
 7291                             	.LBB1418:
 7292                             	.LBB1414:
 7293                             	.LBB1415:
 434:C:\Users\a5116938\Desktop\e2_studio_workspace\EEMBC_final\RX65N_Cloud_Kit\src/tensorflow/lite/micro\micro_mutable_op_resolver.h ****         TF_LITE_REPORT_ERROR(error_reporter_,
 7294                             		.loc 3 434 11
 7295 20ff EE 71 03 05             		mov.L	5132[r7], r1
 434:C:\Users\a5116938\Desktop\e2_studio_workspace\EEMBC_final\RX65N_Cloud_Kit\src/tensorflow/lite/micro\micro_mutable_op_resolver.h ****         TF_LITE_REPORT_ERROR(error_reporter_,
 7296                             		.loc 3 434 7
 7297 2103 61 01                   		cmp	#0, r1
 7298 2105 3A 16 EE                		beq	.L261
 435:C:\Users\a5116938\Desktop\e2_studio_workspace\EEMBC_final\RX65N_Cloud_Kit\src/tensorflow/lite/micro\micro_mutable_op_resolver.h ****                              "Couldn't register builtin op #%d, resolver size "
 7299                             		.loc 3 435 9
 7300 2108 A0 84                   		mov.L	r4, 8[r0]
 7301 210a 3E 01 22                		mov.L	#34, 4[r0]
 7302 210d F8 02 4F 00 00 00       		mov.L	#.LC1, [r0]
 7303 2113 05 00 00 00             		bsr	__ZN6tflite13ErrorReporter6ReportEPKcz
 7304                             	.LVL627:
 7305 2117 38 04 EE                		bra	.L261
 7306                             	.LVL628:
 7307                             	.L446:
 7308                             	.LBE1415:
 7309                             	.LBE1414:
 7310                             	.LBE1418:
 7311                             	.LBE1421:
 7312                             	.LBE1424:
 7313                             	.LBE1975:
 7314                             	.LBB1976:
 7315                             	.LBB1445:
 7316                             	.LBB1442:
 7317                             	.LBB1439:
 7318                             	.LBB1435:
 7319                             	.LBB1436:
 434:C:\Users\a5116938\Desktop\e2_studio_workspace\EEMBC_final\RX65N_Cloud_Kit\src/tensorflow/lite/micro\micro_mutable_op_resolver.h ****         TF_LITE_REPORT_ERROR(error_reporter_,
 7320                             		.loc 3 434 11
 7321 211a EE 71 03 05             		mov.L	5132[r7], r1
 434:C:\Users\a5116938\Desktop\e2_studio_workspace\EEMBC_final\RX65N_Cloud_Kit\src/tensorflow/lite/micro\micro_mutable_op_resolver.h ****         TF_LITE_REPORT_ERROR(error_reporter_,
 7322                             		.loc 3 434 7
 7323 211e 61 01                   		cmp	#0, r1
 7324 2120 3A 6D EE                		beq	.L267
 435:C:\Users\a5116938\Desktop\e2_studio_workspace\EEMBC_final\RX65N_Cloud_Kit\src/tensorflow/lite/micro\micro_mutable_op_resolver.h ****                              "Couldn't register builtin op #%d, resolver size "
 7325                             		.loc 3 435 9
 7326 2123 A0 84                   		mov.L	r4, 8[r0]
 7327 2125 3E 01 3C                		mov.L	#60, 4[r0]
 7328 2128 F8 02 4F 00 00 00       		mov.L	#.LC1, [r0]
 7329 212e 05 00 00 00             		bsr	__ZN6tflite13ErrorReporter6ReportEPKcz
 7330                             	.LVL629:
 7331 2132 38 5B EE                		bra	.L267
 7332                             	.LVL630:
 7333                             	.L444:
 7334                             	.LBE1436:
 7335                             	.LBE1435:
 7336                             	.LBE1439:
 7337                             	.LBE1442:
 7338                             	.LBE1445:
 7339                             	.LBE1976:
 7340                             	.LBB1977:
 7341                             	.LBB1466:
 7342                             	.LBB1463:
 7343                             	.LBB1460:
 7344                             	.LBB1456:
 7345                             	.LBB1457:
 434:C:\Users\a5116938\Desktop\e2_studio_workspace\EEMBC_final\RX65N_Cloud_Kit\src/tensorflow/lite/micro\micro_mutable_op_resolver.h ****         TF_LITE_REPORT_ERROR(error_reporter_,
 7346                             		.loc 3 434 11
 7347 2135 EE 71 03 05             		mov.L	5132[r7], r1
 434:C:\Users\a5116938\Desktop\e2_studio_workspace\EEMBC_final\RX65N_Cloud_Kit\src/tensorflow/lite/micro\micro_mutable_op_resolver.h ****         TF_LITE_REPORT_ERROR(error_reporter_,
 7348                             		.loc 3 434 7
 7349 2139 61 01                   		cmp	#0, r1
 7350 213b 3A C3 EE                		beq	.L273
 435:C:\Users\a5116938\Desktop\e2_studio_workspace\EEMBC_final\RX65N_Cloud_Kit\src/tensorflow/lite/micro\micro_mutable_op_resolver.h ****                              "Couldn't register builtin op #%d, resolver size "
 7351                             		.loc 3 435 9
 7352 213e A0 84                   		mov.L	r4, 8[r0]
 7353 2140 3E 01 36                		mov.L	#54, 4[r0]
 7354 2143 F8 02 4F 00 00 00       		mov.L	#.LC1, [r0]
 7355 2149 05 00 00 00             		bsr	__ZN6tflite13ErrorReporter6ReportEPKcz
 7356                             	.LVL631:
 7357 214d 38 B1 EE                		bra	.L273
 7358                             	.LVL632:
 7359                             	.L441:
 7360                             	.LBE1457:
 7361                             	.LBE1456:
 7362                             	.LBE1460:
 7363                             	.LBE1463:
 7364                             	.LBE1466:
 7365                             	.LBE1977:
 7366                             	.LBB1978:
 7367                             	.LBB1487:
 7368                             	.LBB1484:
 7369                             	.LBB1481:
 7370                             	.LBB1477:
 7371                             	.LBB1478:
 434:C:\Users\a5116938\Desktop\e2_studio_workspace\EEMBC_final\RX65N_Cloud_Kit\src/tensorflow/lite/micro\micro_mutable_op_resolver.h ****         TF_LITE_REPORT_ERROR(error_reporter_,
 7372                             		.loc 3 434 11
 7373 2150 EE 71 03 05             		mov.L	5132[r7], r1
 434:C:\Users\a5116938\Desktop\e2_studio_workspace\EEMBC_final\RX65N_Cloud_Kit\src/tensorflow/lite/micro\micro_mutable_op_resolver.h ****         TF_LITE_REPORT_ERROR(error_reporter_,
 7374                             		.loc 3 434 7
 7375 2154 61 01                   		cmp	#0, r1
 7376 2156 3A 1A EF                		beq	.L279
 435:C:\Users\a5116938\Desktop\e2_studio_workspace\EEMBC_final\RX65N_Cloud_Kit\src/tensorflow/lite/micro\micro_mutable_op_resolver.h ****                              "Couldn't register builtin op #%d, resolver size "
 7377                             		.loc 3 435 9
 7378 2159 A0 84                   		mov.L	r4, 8[r0]
 7379 215b 3E 01 72                		mov.L	#0x72, 4[r0]
 7380 215e F8 02 4F 00 00 00       		mov.L	#.LC1, [r0]
 7381 2164 05 00 00 00             		bsr	__ZN6tflite13ErrorReporter6ReportEPKcz
 7382                             	.LVL633:
 7383 2168 38 08 EF                		bra	.L279
 7384                             	.LVL634:
 7385                             	.L440:
 7386                             	.LBE1478:
 7387                             	.LBE1477:
 7388                             	.LBE1481:
 7389                             	.LBE1484:
 7390                             	.LBE1487:
 7391                             	.LBE1978:
 7392                             	.LBB1979:
 7393                             	.LBB1508:
 7394                             	.LBB1505:
 7395                             	.LBB1502:
 7396                             	.LBB1498:
 7397                             	.LBB1499:
 434:C:\Users\a5116938\Desktop\e2_studio_workspace\EEMBC_final\RX65N_Cloud_Kit\src/tensorflow/lite/micro\micro_mutable_op_resolver.h ****         TF_LITE_REPORT_ERROR(error_reporter_,
 7398                             		.loc 3 434 11
 7399 216b EE 71 03 05             		mov.L	5132[r7], r1
 434:C:\Users\a5116938\Desktop\e2_studio_workspace\EEMBC_final\RX65N_Cloud_Kit\src/tensorflow/lite/micro\micro_mutable_op_resolver.h ****         TF_LITE_REPORT_ERROR(error_reporter_,
 7400                             		.loc 3 434 7
 7401 216f 61 01                   		cmp	#0, r1
 7402 2171 3A 70 EF                		beq	.L285
 435:C:\Users\a5116938\Desktop\e2_studio_workspace\EEMBC_final\RX65N_Cloud_Kit\src/tensorflow/lite/micro\micro_mutable_op_resolver.h ****                              "Couldn't register builtin op #%d, resolver size "
 7403                             		.loc 3 435 9
 7404 2174 A0 84                   		mov.L	r4, 8[r0]
 7405 2176 3E 01 52                		mov.L	#0x52, 4[r0]
 7406 2179 F8 02 4F 00 00 00       		mov.L	#.LC1, [r0]
 7407 217f 05 00 00 00             		bsr	__ZN6tflite13ErrorReporter6ReportEPKcz
 7408                             	.LVL635:
 7409 2183 38 5E EF                		bra	.L285
 7410                             	.LVL636:
 7411                             	.L438:
 7412                             	.LBE1499:
 7413                             	.LBE1498:
 7414                             	.LBE1502:
 7415                             	.LBE1505:
 7416                             	.LBE1508:
 7417                             	.LBE1979:
 7418                             	.LBB1980:
 7419                             	.LBB1529:
 7420                             	.LBB1526:
 7421                             	.LBB1523:
 7422                             	.LBB1519:
 7423                             	.LBB1520:
 434:C:\Users\a5116938\Desktop\e2_studio_workspace\EEMBC_final\RX65N_Cloud_Kit\src/tensorflow/lite/micro\micro_mutable_op_resolver.h ****         TF_LITE_REPORT_ERROR(error_reporter_,
 7424                             		.loc 3 434 11
 7425 2186 EE 71 03 05             		mov.L	5132[r7], r1
 434:C:\Users\a5116938\Desktop\e2_studio_workspace\EEMBC_final\RX65N_Cloud_Kit\src/tensorflow/lite/micro\micro_mutable_op_resolver.h ****         TF_LITE_REPORT_ERROR(error_reporter_,
 7426                             		.loc 3 434 7
 7427 218a 61 01                   		cmp	#0, r1
 7428 218c 3A C7 EF                		beq	.L291
 435:C:\Users\a5116938\Desktop\e2_studio_workspace\EEMBC_final\RX65N_Cloud_Kit\src/tensorflow/lite/micro\micro_mutable_op_resolver.h ****                              "Couldn't register builtin op #%d, resolver size "
 7429                             		.loc 3 435 9
 7430 218f A0 85                   		mov.L	r5, 8[r0]
 7431 2191 3E 01 13                		mov.L	#19, 4[r0]
 7432 2194 F8 02 4F 00 00 00       		mov.L	#.LC1, [r0]
 7433 219a 05 00 00 00             		bsr	__ZN6tflite13ErrorReporter6ReportEPKcz
 7434                             	.LVL637:
 7435 219e 38 B5 EF                		bra	.L291
 7436                             	.LVL638:
 7437                             	.L435:
 7438                             	.LBE1520:
 7439                             	.LBE1519:
 7440                             	.LBE1523:
 7441                             	.LBE1526:
 7442                             	.LBE1529:
 7443                             	.LBE1980:
 7444                             	.LBB1981:
 7445                             	.LBB1550:
 7446                             	.LBB1547:
 7447                             	.LBB1544:
 7448                             	.LBB1540:
 7449                             	.LBB1541:
 434:C:\Users\a5116938\Desktop\e2_studio_workspace\EEMBC_final\RX65N_Cloud_Kit\src/tensorflow/lite/micro\micro_mutable_op_resolver.h ****         TF_LITE_REPORT_ERROR(error_reporter_,
 7450                             		.loc 3 434 11
 7451 21a1 EE 71 03 05             		mov.L	5132[r7], r1
 434:C:\Users\a5116938\Desktop\e2_studio_workspace\EEMBC_final\RX65N_Cloud_Kit\src/tensorflow/lite/micro\micro_mutable_op_resolver.h ****         TF_LITE_REPORT_ERROR(error_reporter_,
 7452                             		.loc 3 434 7
 7453 21a5 61 01                   		cmp	#0, r1
 7454 21a7 3A 1E F0                		beq	.L297
 435:C:\Users\a5116938\Desktop\e2_studio_workspace\EEMBC_final\RX65N_Cloud_Kit\src/tensorflow/lite/micro\micro_mutable_op_resolver.h ****                              "Couldn't register builtin op #%d, resolver size "
 7455                             		.loc 3 435 9
 7456 21aa A0 85                   		mov.L	r5, 8[r0]
 7457 21ac 3E 01 15                		mov.L	#21, 4[r0]
 7458 21af F8 02 4F 00 00 00       		mov.L	#.LC1, [r0]
 7459 21b5 05 00 00 00             		bsr	__ZN6tflite13ErrorReporter6ReportEPKcz
 7460                             	.LVL639:
 7461 21b9 38 0C F0                		bra	.L297
 7462                             	.LVL640:
 7463                             	.L434:
 7464                             	.LBE1541:
 7465                             	.LBE1540:
 7466                             	.LBE1544:
 7467                             	.LBE1547:
 7468                             	.LBE1550:
 7469                             	.LBE1981:
 7470                             	.LBB1982:
 7471                             	.LBB1571:
 7472                             	.LBB1568:
 7473                             	.LBB1565:
 7474                             	.LBB1561:
 7475                             	.LBB1562:
 434:C:\Users\a5116938\Desktop\e2_studio_workspace\EEMBC_final\RX65N_Cloud_Kit\src/tensorflow/lite/micro\micro_mutable_op_resolver.h ****         TF_LITE_REPORT_ERROR(error_reporter_,
 7476                             		.loc 3 434 11
 7477 21bc EE 71 03 05             		mov.L	5132[r7], r1
 434:C:\Users\a5116938\Desktop\e2_studio_workspace\EEMBC_final\RX65N_Cloud_Kit\src/tensorflow/lite/micro\micro_mutable_op_resolver.h ****         TF_LITE_REPORT_ERROR(error_reporter_,
 7478                             		.loc 3 434 7
 7479 21c0 61 01                   		cmp	#0, r1
 7480 21c2 3A 74 F0                		beq	.L303
 435:C:\Users\a5116938\Desktop\e2_studio_workspace\EEMBC_final\RX65N_Cloud_Kit\src/tensorflow/lite/micro\micro_mutable_op_resolver.h ****                              "Couldn't register builtin op #%d, resolver size "
 7481                             		.loc 3 435 9
 7482 21c5 A0 85                   		mov.L	r5, 8[r0]
 7483 21c7 3E 01 16                		mov.L	#22, 4[r0]
 7484 21ca F8 02 4F 00 00 00       		mov.L	#.LC1, [r0]
 7485 21d0 05 00 00 00             		bsr	__ZN6tflite13ErrorReporter6ReportEPKcz
 7486                             	.LVL641:
 7487 21d4 38 62 F0                		bra	.L303
 7488                             	.LVL642:
 7489                             	.L432:
 7490                             	.LBE1562:
 7491                             	.LBE1561:
 7492                             	.LBE1565:
 7493                             	.LBE1568:
 7494                             	.LBE1571:
 7495                             	.LBE1982:
 7496                             	.LBB1983:
 7497                             	.LBB1592:
 7498                             	.LBB1589:
 7499                             	.LBB1586:
 7500                             	.LBB1582:
 7501                             	.LBB1583:
 434:C:\Users\a5116938\Desktop\e2_studio_workspace\EEMBC_final\RX65N_Cloud_Kit\src/tensorflow/lite/micro\micro_mutable_op_resolver.h ****         TF_LITE_REPORT_ERROR(error_reporter_,
 7502                             		.loc 3 434 11
 7503 21d7 EE 71 03 05             		mov.L	5132[r7], r1
 434:C:\Users\a5116938\Desktop\e2_studio_workspace\EEMBC_final\RX65N_Cloud_Kit\src/tensorflow/lite/micro\micro_mutable_op_resolver.h ****         TF_LITE_REPORT_ERROR(error_reporter_,
 7504                             		.loc 3 434 7
 7505 21db 61 01                   		cmp	#0, r1
 7506 21dd 3A CB F0                		beq	.L309
 435:C:\Users\a5116938\Desktop\e2_studio_workspace\EEMBC_final\RX65N_Cloud_Kit\src/tensorflow/lite/micro\micro_mutable_op_resolver.h ****                              "Couldn't register builtin op #%d, resolver size "
 7507                             		.loc 3 435 9
 7508 21e0 A0 85                   		mov.L	r5, 8[r0]
 7509 21e2 3E 01 61                		mov.L	#0x61, 4[r0]
 7510 21e5 F8 02 4F 00 00 00       		mov.L	#.LC1, [r0]
 7511 21eb 05 00 00 00             		bsr	__ZN6tflite13ErrorReporter6ReportEPKcz
 7512                             	.LVL643:
 7513 21ef 38 B9 F0                		bra	.L309
 7514                             	.LVL644:
 7515                             	.L430:
 7516                             	.LBE1583:
 7517                             	.LBE1582:
 7518                             	.LBE1586:
 7519                             	.LBE1589:
 7520                             	.LBE1592:
 7521                             	.LBE1983:
 7522                             	.LBB1984:
 7523                             	.LBB1613:
 7524                             	.LBB1610:
 7525                             	.LBB1607:
 7526                             	.LBB1603:
 7527                             	.LBB1604:
 434:C:\Users\a5116938\Desktop\e2_studio_workspace\EEMBC_final\RX65N_Cloud_Kit\src/tensorflow/lite/micro\micro_mutable_op_resolver.h ****         TF_LITE_REPORT_ERROR(error_reporter_,
 7528                             		.loc 3 434 11
 7529 21f2 EE 71 03 05             		mov.L	5132[r7], r1
 434:C:\Users\a5116938\Desktop\e2_studio_workspace\EEMBC_final\RX65N_Cloud_Kit\src/tensorflow/lite/micro\micro_mutable_op_resolver.h ****         TF_LITE_REPORT_ERROR(error_reporter_,
 7530                             		.loc 3 434 7
 7531 21f6 61 01                   		cmp	#0, r1
 7532 21f8 3A 21 F1                		beq	.L315
 435:C:\Users\a5116938\Desktop\e2_studio_workspace\EEMBC_final\RX65N_Cloud_Kit\src/tensorflow/lite/micro\micro_mutable_op_resolver.h ****                              "Couldn't register builtin op #%d, resolver size "
 7533                             		.loc 3 435 9
 7534 21fb A0 85                   		mov.L	r5, 8[r0]
 7535 21fd 3E 01 74                		mov.L	#0x74, 4[r0]
 7536 2200 F8 02 4F 00 00 00       		mov.L	#.LC1, [r0]
 7537 2206 05 00 00 00             		bsr	__ZN6tflite13ErrorReporter6ReportEPKcz
 7538                             	.LVL645:
 7539 220a 38 0F F1                		bra	.L315
 7540                             	.LVL646:
 7541                             	.L427:
 7542                             	.LBE1604:
 7543                             	.LBE1603:
 7544                             	.LBE1607:
 7545                             	.LBE1610:
 7546                             	.LBE1613:
 7547                             	.LBE1984:
 7548                             	.LBB1985:
 7549                             	.LBB1634:
 7550                             	.LBB1631:
 7551                             	.LBB1628:
 7552                             	.LBB1624:
 7553                             	.LBB1625:
 434:C:\Users\a5116938\Desktop\e2_studio_workspace\EEMBC_final\RX65N_Cloud_Kit\src/tensorflow/lite/micro\micro_mutable_op_resolver.h ****         TF_LITE_REPORT_ERROR(error_reporter_,
 7554                             		.loc 3 434 11
 7555 220d EE 71 03 05             		mov.L	5132[r7], r1
 434:C:\Users\a5116938\Desktop\e2_studio_workspace\EEMBC_final\RX65N_Cloud_Kit\src/tensorflow/lite/micro\micro_mutable_op_resolver.h ****         TF_LITE_REPORT_ERROR(error_reporter_,
 7556                             		.loc 3 434 7
 7557 2211 61 01                   		cmp	#0, r1
 7558 2213 3A 78 F1                		beq	.L321
 435:C:\Users\a5116938\Desktop\e2_studio_workspace\EEMBC_final\RX65N_Cloud_Kit\src/tensorflow/lite/micro\micro_mutable_op_resolver.h ****                              "Couldn't register builtin op #%d, resolver size "
 7559                             		.loc 3 435 9
 7560 2216 A0 85                   		mov.L	r5, 8[r0]
 7561 2218 3E 01 4C                		mov.L	#0x4c, 4[r0]
 7562 221b F8 02 4F 00 00 00       		mov.L	#.LC1, [r0]
 7563 2221 05 00 00 00             		bsr	__ZN6tflite13ErrorReporter6ReportEPKcz
 7564                             	.LVL647:
 7565 2225 38 66 F1                		bra	.L321
 7566                             	.LVL648:
 7567                             	.L426:
 7568                             	.LBE1625:
 7569                             	.LBE1624:
 7570                             	.LBE1628:
 7571                             	.LBE1631:
 7572                             	.LBE1634:
 7573                             	.LBE1985:
 7574                             	.LBB1986:
 7575                             	.LBB1655:
 7576                             	.LBB1652:
 7577                             	.LBB1649:
 7578                             	.LBB1645:
 7579                             	.LBB1646:
 434:C:\Users\a5116938\Desktop\e2_studio_workspace\EEMBC_final\RX65N_Cloud_Kit\src/tensorflow/lite/micro\micro_mutable_op_resolver.h ****         TF_LITE_REPORT_ERROR(error_reporter_,
 7580                             		.loc 3 434 11
 7581 2228 EE 71 03 05             		mov.L	5132[r7], r1
 434:C:\Users\a5116938\Desktop\e2_studio_workspace\EEMBC_final\RX65N_Cloud_Kit\src/tensorflow/lite/micro\micro_mutable_op_resolver.h ****         TF_LITE_REPORT_ERROR(error_reporter_,
 7582                             		.loc 3 434 7
 7583 222c 61 01                   		cmp	#0, r1
 7584 222e 3A CF F1                		beq	.L327
 435:C:\Users\a5116938\Desktop\e2_studio_workspace\EEMBC_final\RX65N_Cloud_Kit\src/tensorflow/lite/micro\micro_mutable_op_resolver.h ****                              "Couldn't register builtin op #%d, resolver size "
 7585                             		.loc 3 435 9
 7586 2231 A0 85                   		mov.L	r5, 8[r0]
 7587 2233 3E 01 4D                		mov.L	#0x4d, 4[r0]
 7588 2236 F8 02 4F 00 00 00       		mov.L	#.LC1, [r0]
 7589 223c 05 00 00 00             		bsr	__ZN6tflite13ErrorReporter6ReportEPKcz
 7590                             	.LVL649:
 7591 2240 38 BD F1                		bra	.L327
 7592                             	.LVL650:
 7593                             	.L424:
 7594                             	.LBE1646:
 7595                             	.LBE1645:
 7596                             	.LBE1649:
 7597                             	.LBE1652:
 7598                             	.LBE1655:
 7599                             	.LBE1986:
 7600                             	.LBB1987:
 7601                             	.LBB1676:
 7602                             	.LBB1673:
 7603                             	.LBB1670:
 7604                             	.LBB1666:
 7605                             	.LBB1667:
 434:C:\Users\a5116938\Desktop\e2_studio_workspace\EEMBC_final\RX65N_Cloud_Kit\src/tensorflow/lite/micro\micro_mutable_op_resolver.h ****         TF_LITE_REPORT_ERROR(error_reporter_,
 7606                             		.loc 3 434 11
 7607 2243 EE 71 03 05             		mov.L	5132[r7], r1
 434:C:\Users\a5116938\Desktop\e2_studio_workspace\EEMBC_final\RX65N_Cloud_Kit\src/tensorflow/lite/micro\micro_mutable_op_resolver.h ****         TF_LITE_REPORT_ERROR(error_reporter_,
 7608                             		.loc 3 434 7
 7609 2247 61 01                   		cmp	#0, r1
 7610 2249 3A 25 F2                		beq	.L333
 435:C:\Users\a5116938\Desktop\e2_studio_workspace\EEMBC_final\RX65N_Cloud_Kit\src/tensorflow/lite/micro\micro_mutable_op_resolver.h ****                              "Couldn't register builtin op #%d, resolver size "
 7611                             		.loc 3 435 9
 7612 224c A0 85                   		mov.L	r5, 8[r0]
 7613 224e 3E 01 42                		mov.L	#0x42, 4[r0]
 7614 2251 F8 02 4F 00 00 00       		mov.L	#.LC1, [r0]
 7615 2257 05 00 00 00             		bsr	__ZN6tflite13ErrorReporter6ReportEPKcz
 7616                             	.LVL651:
 7617 225b 38 13 F2                		bra	.L333
 7618                             	.LVL652:
 7619                             	.L421:
 7620                             	.LBE1667:
 7621                             	.LBE1666:
 7622                             	.LBE1670:
 7623                             	.LBE1673:
 7624                             	.LBE1676:
 7625                             	.LBE1987:
 7626                             	.LBB1988:
 7627                             	.LBB1697:
 7628                             	.LBB1694:
 7629                             	.LBB1691:
 7630                             	.LBB1687:
 7631                             	.LBB1688:
 434:C:\Users\a5116938\Desktop\e2_studio_workspace\EEMBC_final\RX65N_Cloud_Kit\src/tensorflow/lite/micro\micro_mutable_op_resolver.h ****         TF_LITE_REPORT_ERROR(error_reporter_,
 7632                             		.loc 3 434 11
 7633 225e EE 71 03 05             		mov.L	5132[r7], r1
 434:C:\Users\a5116938\Desktop\e2_studio_workspace\EEMBC_final\RX65N_Cloud_Kit\src/tensorflow/lite/micro\micro_mutable_op_resolver.h ****         TF_LITE_REPORT_ERROR(error_reporter_,
 7634                             		.loc 3 434 7
 7635 2262 61 01                   		cmp	#0, r1
 7636 2264 3A 7C F2                		beq	.L339
 435:C:\Users\a5116938\Desktop\e2_studio_workspace\EEMBC_final\RX65N_Cloud_Kit\src/tensorflow/lite/micro\micro_mutable_op_resolver.h ****                              "Couldn't register builtin op #%d, resolver size "
 7637                             		.loc 3 435 9
 7638 2267 A0 85                   		mov.L	r5, 8[r0]
 7639 2269 3E 01 19                		mov.L	#25, 4[r0]
 7640 226c F8 02 4F 00 00 00       		mov.L	#.LC1, [r0]
 7641 2272 05 00 00 00             		bsr	__ZN6tflite13ErrorReporter6ReportEPKcz
 7642                             	.LVL653:
 7643 2276 38 6A F2                		bra	.L339
 7644                             	.LVL654:
 7645                             	.L420:
 7646                             	.LBE1688:
 7647                             	.LBE1687:
 7648                             	.LBE1691:
 7649                             	.LBE1694:
 7650                             	.LBE1697:
 7651                             	.LBE1988:
 7652                             	.LBB1989:
 7653                             	.LBB1718:
 7654                             	.LBB1715:
 7655                             	.LBB1712:
 7656                             	.LBB1708:
 7657                             	.LBB1709:
 434:C:\Users\a5116938\Desktop\e2_studio_workspace\EEMBC_final\RX65N_Cloud_Kit\src/tensorflow/lite/micro\micro_mutable_op_resolver.h ****         TF_LITE_REPORT_ERROR(error_reporter_,
 7658                             		.loc 3 434 11
 7659 2279 EE 71 03 05             		mov.L	5132[r7], r1
 434:C:\Users\a5116938\Desktop\e2_studio_workspace\EEMBC_final\RX65N_Cloud_Kit\src/tensorflow/lite/micro\micro_mutable_op_resolver.h ****         TF_LITE_REPORT_ERROR(error_reporter_,
 7660                             		.loc 3 434 7
 7661 227d 61 01                   		cmp	#0, r1
 7662 227f 3A D2 F2                		beq	.L345
 435:C:\Users\a5116938\Desktop\e2_studio_workspace\EEMBC_final\RX65N_Cloud_Kit\src/tensorflow/lite/micro\micro_mutable_op_resolver.h ****                              "Couldn't register builtin op #%d, resolver size "
 7663                             		.loc 3 435 9
 7664 2282 A0 85                   		mov.L	r5, 8[r0]
 7665 2284 3E 01 31                		mov.L	#49, 4[r0]
 7666 2287 F8 02 4F 00 00 00       		mov.L	#.LC1, [r0]
 7667 228d 05 00 00 00             		bsr	__ZN6tflite13ErrorReporter6ReportEPKcz
 7668                             	.LVL655:
 7669 2291 38 C0 F2                		bra	.L345
 7670                             	.LVL656:
 7671                             	.L418:
 7672                             	.LBE1709:
 7673                             	.LBE1708:
 7674                             	.LBE1712:
 7675                             	.LBE1715:
 7676                             	.LBE1718:
 7677                             	.LBE1989:
 7678                             	.LBB1990:
 7679                             	.LBB1739:
 7680                             	.LBB1736:
 7681                             	.LBB1733:
 7682                             	.LBB1729:
 7683                             	.LBB1730:
 434:C:\Users\a5116938\Desktop\e2_studio_workspace\EEMBC_final\RX65N_Cloud_Kit\src/tensorflow/lite/micro\micro_mutable_op_resolver.h ****         TF_LITE_REPORT_ERROR(error_reporter_,
 7684                             		.loc 3 434 11
 7685 2294 EE 71 03 05             		mov.L	5132[r7], r1
 434:C:\Users\a5116938\Desktop\e2_studio_workspace\EEMBC_final\RX65N_Cloud_Kit\src/tensorflow/lite/micro\micro_mutable_op_resolver.h ****         TF_LITE_REPORT_ERROR(error_reporter_,
 7686                             		.loc 3 434 7
 7687 2298 61 01                   		cmp	#0, r1
 7688 229a 3A 29 F3                		beq	.L351
 435:C:\Users\a5116938\Desktop\e2_studio_workspace\EEMBC_final\RX65N_Cloud_Kit\src/tensorflow/lite/micro\micro_mutable_op_resolver.h ****                              "Couldn't register builtin op #%d, resolver size "
 7689                             		.loc 3 435 9
 7690 229d A0 85                   		mov.L	r5, 8[r0]
 7691 229f 3E 01 66                		mov.L	#0x66, 4[r0]
 7692 22a2 F8 02 4F 00 00 00       		mov.L	#.LC1, [r0]
 7693 22a8 05 00 00 00             		bsr	__ZN6tflite13ErrorReporter6ReportEPKcz
 7694                             	.LVL657:
 7695 22ac 38 17 F3                		bra	.L351
 7696                             	.LVL658:
 7697                             	.L416:
 7698                             	.LBE1730:
 7699                             	.LBE1729:
 7700                             	.LBE1733:
 7701                             	.LBE1736:
 7702                             	.LBE1739:
 7703                             	.LBE1990:
 7704                             	.LBB1991:
 7705                             	.LBB1760:
 7706                             	.LBB1757:
 7707                             	.LBB1754:
 7708                             	.LBB1750:
 7709                             	.LBB1751:
 434:C:\Users\a5116938\Desktop\e2_studio_workspace\EEMBC_final\RX65N_Cloud_Kit\src/tensorflow/lite/micro\micro_mutable_op_resolver.h ****         TF_LITE_REPORT_ERROR(error_reporter_,
 7710                             		.loc 3 434 11
 7711 22af EE 71 03 05             		mov.L	5132[r7], r1
 434:C:\Users\a5116938\Desktop\e2_studio_workspace\EEMBC_final\RX65N_Cloud_Kit\src/tensorflow/lite/micro\micro_mutable_op_resolver.h ****         TF_LITE_REPORT_ERROR(error_reporter_,
 7712                             		.loc 3 434 7
 7713 22b3 61 01                   		cmp	#0, r1
 7714 22b5 3A 80 F3                		beq	.L357
 435:C:\Users\a5116938\Desktop\e2_studio_workspace\EEMBC_final\RX65N_Cloud_Kit\src/tensorflow/lite/micro\micro_mutable_op_resolver.h ****                              "Couldn't register builtin op #%d, resolver size "
 7715                             		.loc 3 435 9
 7716 22b8 A0 85                   		mov.L	r5, 8[r0]
 7717 22ba 3E 01 4B                		mov.L	#0x4b, 4[r0]
 7718 22bd F8 02 4F 00 00 00       		mov.L	#.LC1, [r0]
 7719 22c3 05 00 00 00             		bsr	__ZN6tflite13ErrorReporter6ReportEPKcz
 7720                             	.LVL659:
 7721 22c7 38 6E F3                		bra	.L357
 7722                             	.LVL660:
 7723                             	.L413:
 7724                             	.LBE1751:
 7725                             	.LBE1750:
 7726                             	.LBE1754:
 7727                             	.LBE1757:
 7728                             	.LBE1760:
 7729                             	.LBE1991:
 7730                             	.LBB1992:
 7731                             	.LBB1781:
 7732                             	.LBB1778:
 7733                             	.LBB1775:
 7734                             	.LBB1771:
 7735                             	.LBB1772:
 434:C:\Users\a5116938\Desktop\e2_studio_workspace\EEMBC_final\RX65N_Cloud_Kit\src/tensorflow/lite/micro\micro_mutable_op_resolver.h ****         TF_LITE_REPORT_ERROR(error_reporter_,
 7736                             		.loc 3 434 11
 7737 22ca EE 71 03 05             		mov.L	5132[r7], r1
 434:C:\Users\a5116938\Desktop\e2_studio_workspace\EEMBC_final\RX65N_Cloud_Kit\src/tensorflow/lite/micro\micro_mutable_op_resolver.h ****         TF_LITE_REPORT_ERROR(error_reporter_,
 7738                             		.loc 3 434 7
 7739 22ce 61 01                   		cmp	#0, r1
 7740 22d0 3A D6 F3                		beq	.L363
 435:C:\Users\a5116938\Desktop\e2_studio_workspace\EEMBC_final\RX65N_Cloud_Kit\src/tensorflow/lite/micro\micro_mutable_op_resolver.h ****                              "Couldn't register builtin op #%d, resolver size "
 7741                             		.loc 3 435 9
 7742 22d3 A0 85                   		mov.L	r5, 8[r0]
 7743 22d5 3E 01 5C                		mov.L	#0x5c, 4[r0]
 7744 22d8 F8 02 4F 00 00 00       		mov.L	#.LC1, [r0]
 7745 22de 05 00 00 00             		bsr	__ZN6tflite13ErrorReporter6ReportEPKcz
 7746                             	.LVL661:
 7747 22e2 38 C4 F3                		bra	.L363
 7748                             	.LVL662:
 7749                             	.L412:
 7750                             	.LBE1772:
 7751                             	.LBE1771:
 7752                             	.LBE1775:
 7753                             	.LBE1778:
 7754                             	.LBE1781:
 7755                             	.LBE1992:
 7756                             	.LBB1993:
 7757                             	.LBB1802:
 7758                             	.LBB1799:
 7759                             	.LBB1796:
 7760                             	.LBB1792:
 7761                             	.LBB1793:
 434:C:\Users\a5116938\Desktop\e2_studio_workspace\EEMBC_final\RX65N_Cloud_Kit\src/tensorflow/lite/micro\micro_mutable_op_resolver.h ****         TF_LITE_REPORT_ERROR(error_reporter_,
 7762                             		.loc 3 434 11
 7763 22e5 EE 71 03 05             		mov.L	5132[r7], r1
 434:C:\Users\a5116938\Desktop\e2_studio_workspace\EEMBC_final\RX65N_Cloud_Kit\src/tensorflow/lite/micro\micro_mutable_op_resolver.h ****         TF_LITE_REPORT_ERROR(error_reporter_,
 7764                             		.loc 3 434 7
 7765 22e9 61 01                   		cmp	#0, r1
 7766 22eb 3A 2D F4                		beq	.L369
 435:C:\Users\a5116938\Desktop\e2_studio_workspace\EEMBC_final\RX65N_Cloud_Kit\src/tensorflow/lite/micro\micro_mutable_op_resolver.h ****                              "Couldn't register builtin op #%d, resolver size "
 7767                             		.loc 3 435 9
 7768 22ee A0 85                   		mov.L	r5, 8[r0]
 7769 22f0 3E 01 2D                		mov.L	#45, 4[r0]
 7770 22f3 F8 02 4F 00 00 00       		mov.L	#.LC1, [r0]
 7771 22f9 05 00 00 00             		bsr	__ZN6tflite13ErrorReporter6ReportEPKcz
 7772                             	.LVL663:
 7773 22fd 38 1B F4                		bra	.L369
 7774                             	.LVL664:
 7775                             	.L410:
 7776                             	.LBE1793:
 7777                             	.LBE1792:
 7778                             	.LBE1796:
 7779                             	.LBE1799:
 7780                             	.LBE1802:
 7781                             	.LBE1993:
 7782                             	.LBB1994:
 7783                             	.LBB1823:
 7784                             	.LBB1820:
 7785                             	.LBB1817:
 7786                             	.LBB1813:
 7787                             	.LBB1814:
 434:C:\Users\a5116938\Desktop\e2_studio_workspace\EEMBC_final\RX65N_Cloud_Kit\src/tensorflow/lite/micro\micro_mutable_op_resolver.h ****         TF_LITE_REPORT_ERROR(error_reporter_,
 7788                             		.loc 3 434 11
 7789 2300 EE 71 03 05             		mov.L	5132[r7], r1
 434:C:\Users\a5116938\Desktop\e2_studio_workspace\EEMBC_final\RX65N_Cloud_Kit\src/tensorflow/lite/micro\micro_mutable_op_resolver.h ****         TF_LITE_REPORT_ERROR(error_reporter_,
 7790                             		.loc 3 434 7
 7791 2304 61 01                   		cmp	#0, r1
 7792 2306 3A 83 F4                		beq	.L375
 435:C:\Users\a5116938\Desktop\e2_studio_workspace\EEMBC_final\RX65N_Cloud_Kit\src/tensorflow/lite/micro\micro_mutable_op_resolver.h ****                              "Couldn't register builtin op #%d, resolver size "
 7793                             		.loc 3 435 9
 7794 2309 A0 85                   		mov.L	r5, 8[r0]
 7795 230b 3E 01 29                		mov.L	#41, 4[r0]
 7796 230e F8 02 4F 00 00 00       		mov.L	#.LC1, [r0]
 7797 2314 05 00 00 00             		bsr	__ZN6tflite13ErrorReporter6ReportEPKcz
 7798                             	.LVL665:
 7799 2318 38 71 F4                		bra	.L375
 7800                             	.LVL666:
 7801                             	.L407:
 7802                             	.LBE1814:
 7803                             	.LBE1813:
 7804                             	.LBE1817:
 7805                             	.LBE1820:
 7806                             	.LBE1823:
 7807                             	.LBE1994:
 7808                             	.LBB1995:
 7809                             	.LBB1844:
 7810                             	.LBB1841:
 7811                             	.LBB1838:
 7812                             	.LBB1834:
 7813                             	.LBB1835:
 434:C:\Users\a5116938\Desktop\e2_studio_workspace\EEMBC_final\RX65N_Cloud_Kit\src/tensorflow/lite/micro\micro_mutable_op_resolver.h ****         TF_LITE_REPORT_ERROR(error_reporter_,
 7814                             		.loc 3 434 11
 7815 231b EE 71 03 05             		mov.L	5132[r7], r1
 434:C:\Users\a5116938\Desktop\e2_studio_workspace\EEMBC_final\RX65N_Cloud_Kit\src/tensorflow/lite/micro\micro_mutable_op_resolver.h ****         TF_LITE_REPORT_ERROR(error_reporter_,
 7816                             		.loc 3 434 7
 7817 231f 61 01                   		cmp	#0, r1
 7818 2321 3A DA F4                		beq	.L381
 435:C:\Users\a5116938\Desktop\e2_studio_workspace\EEMBC_final\RX65N_Cloud_Kit\src/tensorflow/lite/micro\micro_mutable_op_resolver.h ****                              "Couldn't register builtin op #%d, resolver size "
 7819                             		.loc 3 435 9
 7820 2324 A0 85                   		mov.L	r5, 8[r0]
 7821 2326 3E 01 1B                		mov.L	#27, 4[r0]
 7822 2329 F8 02 4F 00 00 00       		mov.L	#.LC1, [r0]
 7823 232f 05 00 00 00             		bsr	__ZN6tflite13ErrorReporter6ReportEPKcz
 7824                             	.LVL667:
 7825 2333 38 C8 F4                		bra	.L381
 7826                             	.LVL668:
 7827                             	.L406:
 7828                             	.LBE1835:
 7829                             	.LBE1834:
 7830                             	.LBE1838:
 7831                             	.LBE1841:
 7832                             	.LBE1844:
 7833                             	.LBE1995:
 7834                             	.LBB1996:
 7835                             	.LBB1865:
 7836                             	.LBB1862:
 7837                             	.LBB1859:
 7838                             	.LBB1855:
 7839                             	.LBB1856:
 434:C:\Users\a5116938\Desktop\e2_studio_workspace\EEMBC_final\RX65N_Cloud_Kit\src/tensorflow/lite/micro\micro_mutable_op_resolver.h ****         TF_LITE_REPORT_ERROR(error_reporter_,
 7840                             		.loc 3 434 11
 7841 2336 EE 71 03 05             		mov.L	5132[r7], r1
 434:C:\Users\a5116938\Desktop\e2_studio_workspace\EEMBC_final\RX65N_Cloud_Kit\src/tensorflow/lite/micro\micro_mutable_op_resolver.h ****         TF_LITE_REPORT_ERROR(error_reporter_,
 7842                             		.loc 3 434 7
 7843 233a 61 01                   		cmp	#0, r1
 7844 233c 3A 31 F5                		beq	.L387
 435:C:\Users\a5116938\Desktop\e2_studio_workspace\EEMBC_final\RX65N_Cloud_Kit\src/tensorflow/lite/micro\micro_mutable_op_resolver.h ****                              "Couldn't register builtin op #%d, resolver size "
 7845                             		.loc 3 435 9
 7846 233f A0 85                   		mov.L	r5, 8[r0]
 7847 2341 3E 01 1C                		mov.L	#28, 4[r0]
 7848 2344 F8 02 4F 00 00 00       		mov.L	#.LC1, [r0]
 7849 234a 05 00 00 00             		bsr	__ZN6tflite13ErrorReporter6ReportEPKcz
 7850                             	.LVL669:
 7851 234e 38 1F F5                		bra	.L387
 7852                             	.LVL670:
 7853                             	.L404:
 7854                             	.LBE1856:
 7855                             	.LBE1855:
 7856                             	.LBE1859:
 7857                             	.LBE1862:
 7858                             	.LBE1865:
 7859                             	.LBE1996:
 7860                             	.LBB1997:
 7861                             	.LBB1886:
 7862                             	.LBB1883:
 7863                             	.LBB1880:
 7864                             	.LBB1876:
 7865                             	.LBB1877:
 434:C:\Users\a5116938\Desktop\e2_studio_workspace\EEMBC_final\RX65N_Cloud_Kit\src/tensorflow/lite/micro\micro_mutable_op_resolver.h ****         TF_LITE_REPORT_ERROR(error_reporter_,
 7866                             		.loc 3 434 11
 7867 2351 EE 71 03 05             		mov.L	5132[r7], r1
 434:C:\Users\a5116938\Desktop\e2_studio_workspace\EEMBC_final\RX65N_Cloud_Kit\src/tensorflow/lite/micro\micro_mutable_op_resolver.h ****         TF_LITE_REPORT_ERROR(error_reporter_,
 7868                             		.loc 3 434 7
 7869 2355 61 01                   		cmp	#0, r1
 7870 2357 3A 89 F5                		beq	.L393
 435:C:\Users\a5116938\Desktop\e2_studio_workspace\EEMBC_final\RX65N_Cloud_Kit\src/tensorflow/lite/micro\micro_mutable_op_resolver.h ****                              "Couldn't register builtin op #%d, resolver size "
 7871                             		.loc 3 435 9
 7872 235a A0 85                   		mov.L	r5, 8[r0]
 7873 235c 3E 01 58                		mov.L	#0x58, 4[r0]
 7874 235f F8 02 4F 00 00 00       		mov.L	#.LC1, [r0]
 7875 2365 05 00 00 00             		bsr	__ZN6tflite13ErrorReporter6ReportEPKcz
 7876                             	.LVL671:
 7877 2369 38 77 F5                		bra	.L393
 7878                             	.LVL672:
 7879                             	.L514:
 7880                             	.LBE1877:
 7881                             	.LBE1876:
 7882                             	.LBE1880:
 7883                             	.LBE1883:
 7884                             	.LBE1886:
 7885                             	.LBE1997:
 7886                             	.LBB1998:
 7887                             	.LBB730:
 7888                             	.LBB726:
 7889                             	.LBB723:
 7890                             	.LBB719:
 7891                             	.LBB720:
 434:C:\Users\a5116938\Desktop\e2_studio_workspace\EEMBC_final\RX65N_Cloud_Kit\src/tensorflow/lite/micro\micro_mutable_op_resolver.h ****         TF_LITE_REPORT_ERROR(error_reporter_,
 7892                             		.loc 3 434 11
 7893 236c EE 71 03 05             		mov.L	5132[r7], r1
 434:C:\Users\a5116938\Desktop\e2_studio_workspace\EEMBC_final\RX65N_Cloud_Kit\src/tensorflow/lite/micro\micro_mutable_op_resolver.h ****         TF_LITE_REPORT_ERROR(error_reporter_,
 7894                             		.loc 3 434 7
 7895 2370 61 01                   		cmp	#0, r1
 7896 2372 3A 1B DD                		beq	.L63
 435:C:\Users\a5116938\Desktop\e2_studio_workspace\EEMBC_final\RX65N_Cloud_Kit\src/tensorflow/lite/micro\micro_mutable_op_resolver.h ****                              "Couldn't register builtin op #%d, resolver size "
 7897                             		.loc 3 435 9
 7898 2375 A0 84                   		mov.L	r4, 8[r0]
 7899 2377 3E 01 65                		mov.L	#0x65, 4[r0]
 7900 237a F8 02 4F 00 00 00       		mov.L	#.LC1, [r0]
 7901 2380 05 00 00 00             		bsr	__ZN6tflite13ErrorReporter6ReportEPKcz
 7902                             	.LVL673:
 7903 2384 38 09 DD                		bra	.L63
 7904                             	.LVL674:
 7905                             	.L511:
 7906                             	.LBE720:
 7907                             	.LBE719:
 7908                             	.LBE723:
 7909                             	.LBE726:
 7910                             	.LBE730:
 7911                             	.LBE1998:
 7912                             	.LBB1999:
 7913                             	.LBB752:
 7914                             	.LBB749:
 7915                             	.LBB746:
 7916                             	.LBB742:
 7917                             	.LBB743:
 434:C:\Users\a5116938\Desktop\e2_studio_workspace\EEMBC_final\RX65N_Cloud_Kit\src/tensorflow/lite/micro\micro_mutable_op_resolver.h ****         TF_LITE_REPORT_ERROR(error_reporter_,
 7918                             		.loc 3 434 11
 7919 2387 EE 71 03 05             		mov.L	5132[r7], r1
 434:C:\Users\a5116938\Desktop\e2_studio_workspace\EEMBC_final\RX65N_Cloud_Kit\src/tensorflow/lite/micro\micro_mutable_op_resolver.h ****         TF_LITE_REPORT_ERROR(error_reporter_,
 7920                             		.loc 3 434 7
 7921 238b 61 01                   		cmp	#0, r1
 7922 238d 3A 70 DD                		beq	.L69
 435:C:\Users\a5116938\Desktop\e2_studio_workspace\EEMBC_final\RX65N_Cloud_Kit\src/tensorflow/lite/micro\micro_mutable_op_resolver.h ****                              "Couldn't register builtin op #%d, resolver size "
 7923                             		.loc 3 435 9
 7924 2390 A0 84                   		mov.L	r4, 8[r0]
 7925 2392 3E 01 00                		mov.L	#0, 4[r0]
 7926 2395 F8 02 4F 00 00 00       		mov.L	#.LC1, [r0]
 7927 239b 05 00 00 00             		bsr	__ZN6tflite13ErrorReporter6ReportEPKcz
 7928                             	.LVL675:
 7929 239f 38 5E DD                		bra	.L69
 7930                             	.LVL676:
 7931                             	.L510:
 7932                             	.LBE743:
 7933                             	.LBE742:
 7934                             	.LBE746:
 7935                             	.LBE749:
 7936                             	.LBE752:
 7937                             	.LBE1999:
 7938                             	.LBB2000:
 7939                             	.LBB773:
 7940                             	.LBB770:
 7941                             	.LBB767:
 7942                             	.LBB763:
 7943                             	.LBB764:
 434:C:\Users\a5116938\Desktop\e2_studio_workspace\EEMBC_final\RX65N_Cloud_Kit\src/tensorflow/lite/micro\micro_mutable_op_resolver.h ****         TF_LITE_REPORT_ERROR(error_reporter_,
 7944                             		.loc 3 434 11
 7945 23a2 EE 71 03 05             		mov.L	5132[r7], r1
 434:C:\Users\a5116938\Desktop\e2_studio_workspace\EEMBC_final\RX65N_Cloud_Kit\src/tensorflow/lite/micro\micro_mutable_op_resolver.h ****         TF_LITE_REPORT_ERROR(error_reporter_,
 7946                             		.loc 3 434 7
 7947 23a6 61 01                   		cmp	#0, r1
 7948 23a8 3A C6 DD                		beq	.L75
 435:C:\Users\a5116938\Desktop\e2_studio_workspace\EEMBC_final\RX65N_Cloud_Kit\src/tensorflow/lite/micro\micro_mutable_op_resolver.h ****                              "Couldn't register builtin op #%d, resolver size "
 7949                             		.loc 3 435 9
 7950 23ab A0 84                   		mov.L	r4, 8[r0]
 7951 23ad 3E 01 38                		mov.L	#56, 4[r0]
 7952 23b0 F8 02 4F 00 00 00       		mov.L	#.LC1, [r0]
 7953 23b6 05 00 00 00             		bsr	__ZN6tflite13ErrorReporter6ReportEPKcz
 7954                             	.LVL677:
 7955 23ba 38 B4 DD                		bra	.L75
 7956                             	.LVL678:
 7957                             	.L508:
 7958                             	.LBE764:
 7959                             	.LBE763:
 7960                             	.LBE767:
 7961                             	.LBE770:
 7962                             	.LBE773:
 7963                             	.LBE2000:
 7964                             	.LBB2001:
 7965                             	.LBB794:
 7966                             	.LBB791:
 7967                             	.LBB788:
 7968                             	.LBB784:
 7969                             	.LBB785:
 434:C:\Users\a5116938\Desktop\e2_studio_workspace\EEMBC_final\RX65N_Cloud_Kit\src/tensorflow/lite/micro\micro_mutable_op_resolver.h ****         TF_LITE_REPORT_ERROR(error_reporter_,
 7970                             		.loc 3 434 11
 7971 23bd EE 71 03 05             		mov.L	5132[r7], r1
 434:C:\Users\a5116938\Desktop\e2_studio_workspace\EEMBC_final\RX65N_Cloud_Kit\src/tensorflow/lite/micro\micro_mutable_op_resolver.h ****         TF_LITE_REPORT_ERROR(error_reporter_,
 7972                             		.loc 3 434 7
 7973 23c1 61 01                   		cmp	#0, r1
 7974 23c3 3A 1D DE                		beq	.L81
 435:C:\Users\a5116938\Desktop\e2_studio_workspace\EEMBC_final\RX65N_Cloud_Kit\src/tensorflow/lite/micro\micro_mutable_op_resolver.h ****                              "Couldn't register builtin op #%d, resolver size "
 7975                             		.loc 3 435 9
 7976 23c6 A0 84                   		mov.L	r4, 8[r0]
 7977 23c8 3E 01 4F                		mov.L	#0x4f, 4[r0]
 7978 23cb F8 02 4F 00 00 00       		mov.L	#.LC1, [r0]
 7979 23d1 05 00 00 00             		bsr	__ZN6tflite13ErrorReporter6ReportEPKcz
 7980                             	.LVL679:
 7981 23d5 38 0B DE                		bra	.L81
 7982                             	.LVL680:
 7983                             	.L505:
 7984                             	.LBE785:
 7985                             	.LBE784:
 7986                             	.LBE788:
 7987                             	.LBE791:
 7988                             	.LBE794:
 7989                             	.LBE2001:
 7990                             	.LBB2002:
 7991                             	.LBB815:
 7992                             	.LBB812:
 7993                             	.LBB809:
 7994                             	.LBB805:
 7995                             	.LBB806:
 434:C:\Users\a5116938\Desktop\e2_studio_workspace\EEMBC_final\RX65N_Cloud_Kit\src/tensorflow/lite/micro\micro_mutable_op_resolver.h ****         TF_LITE_REPORT_ERROR(error_reporter_,
 7996                             		.loc 3 434 11
 7997 23d8 EE 71 03 05             		mov.L	5132[r7], r1
 434:C:\Users\a5116938\Desktop\e2_studio_workspace\EEMBC_final\RX65N_Cloud_Kit\src/tensorflow/lite/micro\micro_mutable_op_resolver.h ****         TF_LITE_REPORT_ERROR(error_reporter_,
 7998                             		.loc 3 434 7
 7999 23dc 61 01                   		cmp	#0, r1
 8000 23de 3A 72 DE                		beq	.L87
 435:C:\Users\a5116938\Desktop\e2_studio_workspace\EEMBC_final\RX65N_Cloud_Kit\src/tensorflow/lite/micro\micro_mutable_op_resolver.h ****                              "Couldn't register builtin op #%d, resolver size "
 8001                             		.loc 3 435 9
 8002 23e1 A0 84                   		mov.L	r4, 8[r0]
 8003 23e3 3E 01 01                		mov.L	#1, 4[r0]
 8004 23e6 F8 02 4F 00 00 00       		mov.L	#.LC1, [r0]
 8005 23ec 05 00 00 00             		bsr	__ZN6tflite13ErrorReporter6ReportEPKcz
 8006                             	.LVL681:
 8007 23f0 38 60 DE                		bra	.L87
 8008                             	.LVL682:
 8009                             	.L504:
 8010                             	.LBE806:
 8011                             	.LBE805:
 8012                             	.LBE809:
 8013                             	.LBE812:
 8014                             	.LBE815:
 8015                             	.LBE2002:
 8016                             	.LBB2003:
 8017                             	.LBB836:
 8018                             	.LBB833:
 8019                             	.LBB830:
 8020                             	.LBB826:
 8021                             	.LBB827:
 434:C:\Users\a5116938\Desktop\e2_studio_workspace\EEMBC_final\RX65N_Cloud_Kit\src/tensorflow/lite/micro\micro_mutable_op_resolver.h ****         TF_LITE_REPORT_ERROR(error_reporter_,
 8022                             		.loc 3 434 11
 8023 23f3 EE 71 03 05             		mov.L	5132[r7], r1
 434:C:\Users\a5116938\Desktop\e2_studio_workspace\EEMBC_final\RX65N_Cloud_Kit\src/tensorflow/lite/micro\micro_mutable_op_resolver.h ****         TF_LITE_REPORT_ERROR(error_reporter_,
 8024                             		.loc 3 434 7
 8025 23f7 61 01                   		cmp	#0, r1
 8026 23f9 3A C8 DE                		beq	.L93
 435:C:\Users\a5116938\Desktop\e2_studio_workspace\EEMBC_final\RX65N_Cloud_Kit\src/tensorflow/lite/micro\micro_mutable_op_resolver.h ****                              "Couldn't register builtin op #%d, resolver size "
 8027                             		.loc 3 435 9
 8028 23fc A0 84                   		mov.L	r4, 8[r0]
 8029 23fe 3E 01 68                		mov.L	#0x68, 4[r0]
 8030 2401 F8 02 4F 00 00 00       		mov.L	#.LC1, [r0]
 8031 2407 05 00 00 00             		bsr	__ZN6tflite13ErrorReporter6ReportEPKcz
 8032                             	.LVL683:
 8033 240b 38 B6 DE                		bra	.L93
 8034                             	.LVL684:
 8035                             	.L502:
 8036                             	.LBE827:
 8037                             	.LBE826:
 8038                             	.LBE830:
 8039                             	.LBE833:
 8040                             	.LBE836:
 8041                             	.LBE2003:
 8042                             	.LBB2004:
 8043                             	.LBB857:
 8044                             	.LBB854:
 8045                             	.LBB851:
 8046                             	.LBB847:
 8047                             	.LBB848:
 434:C:\Users\a5116938\Desktop\e2_studio_workspace\EEMBC_final\RX65N_Cloud_Kit\src/tensorflow/lite/micro\micro_mutable_op_resolver.h ****         TF_LITE_REPORT_ERROR(error_reporter_,
 8048                             		.loc 3 434 11
 8049 240e EE 71 03 05             		mov.L	5132[r7], r1
 434:C:\Users\a5116938\Desktop\e2_studio_workspace\EEMBC_final\RX65N_Cloud_Kit\src/tensorflow/lite/micro\micro_mutable_op_resolver.h ****         TF_LITE_REPORT_ERROR(error_reporter_,
 8050                             		.loc 3 434 7
 8051 2412 61 01                   		cmp	#0, r1
 8052 2414 3A 1C DF                		beq	.L99
 435:C:\Users\a5116938\Desktop\e2_studio_workspace\EEMBC_final\RX65N_Cloud_Kit\src/tensorflow/lite/micro\micro_mutable_op_resolver.h ****                              "Couldn't register builtin op #%d, resolver size "
 8053                             		.loc 3 435 9
 8054 2417 A0 84                   		mov.L	r4, 8[r0]
 8055 2419 3E 01 02                		mov.L	#2, 4[r0]
 8056 241c F8 02 4F 00 00 00       		mov.L	#.LC1, [r0]
 8057 2422 05 00 00 00             		bsr	__ZN6tflite13ErrorReporter6ReportEPKcz
 8058                             	.LVL685:
 8059 2426 38 0A DF                		bra	.L99
 8060                             	.LVL686:
 8061                             	.L500:
 8062                             	.LBE848:
 8063                             	.LBE847:
 8064                             	.LBE851:
 8065                             	.LBE854:
 8066                             	.LBE857:
 8067                             	.LBE2004:
 8068                             	.LBB2005:
 8069                             	.LBB878:
 8070                             	.LBB875:
 8071                             	.LBB872:
 8072                             	.LBB868:
 8073                             	.LBB869:
 434:C:\Users\a5116938\Desktop\e2_studio_workspace\EEMBC_final\RX65N_Cloud_Kit\src/tensorflow/lite/micro\micro_mutable_op_resolver.h ****         TF_LITE_REPORT_ERROR(error_reporter_,
 8074                             		.loc 3 434 11
 8075 2429 EE 71 03 05             		mov.L	5132[r7], r1
 434:C:\Users\a5116938\Desktop\e2_studio_workspace\EEMBC_final\RX65N_Cloud_Kit\src/tensorflow/lite/micro\micro_mutable_op_resolver.h ****         TF_LITE_REPORT_ERROR(error_reporter_,
 8076                             		.loc 3 434 7
 8077 242d 61 01                   		cmp	#0, r1
 8078 242f 3A 71 DF                		beq	.L105
 435:C:\Users\a5116938\Desktop\e2_studio_workspace\EEMBC_final\RX65N_Cloud_Kit\src/tensorflow/lite/micro\micro_mutable_op_resolver.h ****                              "Couldn't register builtin op #%d, resolver size "
 8079                             		.loc 3 435 9
 8080 2432 A0 84                   		mov.L	r4, 8[r0]
 8081 2434 3E 01 03                		mov.L	#3, 4[r0]
 8082 2437 F8 02 4F 00 00 00       		mov.L	#.LC1, [r0]
 8083 243d 05 00 00 00             		bsr	__ZN6tflite13ErrorReporter6ReportEPKcz
 8084                             	.LVL687:
 8085 2441 38 5F DF                		bra	.L105
 8086                             	.LVL688:
 8087                             	.L497:
 8088                             	.LBE869:
 8089                             	.LBE868:
 8090                             	.LBE872:
 8091                             	.LBE875:
 8092                             	.LBE878:
 8093                             	.LBE2005:
 8094                             	.LBB2006:
 8095                             	.LBB899:
 8096                             	.LBB896:
 8097                             	.LBB893:
 8098                             	.LBB889:
 8099                             	.LBB890:
 434:C:\Users\a5116938\Desktop\e2_studio_workspace\EEMBC_final\RX65N_Cloud_Kit\src/tensorflow/lite/micro\micro_mutable_op_resolver.h ****         TF_LITE_REPORT_ERROR(error_reporter_,
 8100                             		.loc 3 434 11
 8101 2444 EE 71 03 05             		mov.L	5132[r7], r1
 434:C:\Users\a5116938\Desktop\e2_studio_workspace\EEMBC_final\RX65N_Cloud_Kit\src/tensorflow/lite/micro\micro_mutable_op_resolver.h ****         TF_LITE_REPORT_ERROR(error_reporter_,
 8102                             		.loc 3 434 7
 8103 2448 61 01                   		cmp	#0, r1
 8104 244a 3A C7 DF                		beq	.L111
 435:C:\Users\a5116938\Desktop\e2_studio_workspace\EEMBC_final\RX65N_Cloud_Kit\src/tensorflow/lite/micro\micro_mutable_op_resolver.h ****                              "Couldn't register builtin op #%d, resolver size "
 8105                             		.loc 3 435 9
 8106 244d A0 84                   		mov.L	r4, 8[r0]
 8107 244f 3E 01 6C                		mov.L	#0x6c, 4[r0]
 8108 2452 F8 02 4F 00 00 00       		mov.L	#.LC1, [r0]
 8109 2458 05 00 00 00             		bsr	__ZN6tflite13ErrorReporter6ReportEPKcz
 8110                             	.LVL689:
 8111 245c 38 B5 DF                		bra	.L111
 8112                             	.LVL690:
 8113                             	.L496:
 8114                             	.LBE890:
 8115                             	.LBE889:
 8116                             	.LBE893:
 8117                             	.LBE896:
 8118                             	.LBE899:
 8119                             	.LBE2006:
 8120                             	.LBB2007:
 8121                             	.LBB920:
 8122                             	.LBB917:
 8123                             	.LBB914:
 8124                             	.LBB910:
 8125                             	.LBB911:
 434:C:\Users\a5116938\Desktop\e2_studio_workspace\EEMBC_final\RX65N_Cloud_Kit\src/tensorflow/lite/micro\micro_mutable_op_resolver.h ****         TF_LITE_REPORT_ERROR(error_reporter_,
 8126                             		.loc 3 434 11
 8127 245f EE 71 03 05             		mov.L	5132[r7], r1
 434:C:\Users\a5116938\Desktop\e2_studio_workspace\EEMBC_final\RX65N_Cloud_Kit\src/tensorflow/lite/micro\micro_mutable_op_resolver.h ****         TF_LITE_REPORT_ERROR(error_reporter_,
 8128                             		.loc 3 434 7
 8129 2463 61 01                   		cmp	#0, r1
 8130 2465 3A 1B E0                		beq	.L117
 435:C:\Users\a5116938\Desktop\e2_studio_workspace\EEMBC_final\RX65N_Cloud_Kit\src/tensorflow/lite/micro\micro_mutable_op_resolver.h ****                              "Couldn't register builtin op #%d, resolver size "
 8131                             		.loc 3 435 9
 8132 2468 A0 84                   		mov.L	r4, 8[r0]
 8133 246a 3E 01 04                		mov.L	#4, 4[r0]
 8134 246d F8 02 4F 00 00 00       		mov.L	#.LC1, [r0]
 8135 2473 05 00 00 00             		bsr	__ZN6tflite13ErrorReporter6ReportEPKcz
 8136                             	.LVL691:
 8137 2477 38 09 E0                		bra	.L117
 8138                             	.LVL692:
 8139                             	.L494:
 8140                             	.LBE911:
 8141                             	.LBE910:
 8142                             	.LBE914:
 8143                             	.LBE917:
 8144                             	.LBE920:
 8145                             	.LBE2007:
 8146                             	.LBB2008:
 8147                             	.LBB941:
 8148                             	.LBB938:
 8149                             	.LBB935:
 8150                             	.LBB931:
 8151                             	.LBB932:
 434:C:\Users\a5116938\Desktop\e2_studio_workspace\EEMBC_final\RX65N_Cloud_Kit\src/tensorflow/lite/micro\micro_mutable_op_resolver.h ****         TF_LITE_REPORT_ERROR(error_reporter_,
 8152                             		.loc 3 434 11
 8153 247a EE 71 03 05             		mov.L	5132[r7], r1
 434:C:\Users\a5116938\Desktop\e2_studio_workspace\EEMBC_final\RX65N_Cloud_Kit\src/tensorflow/lite/micro\micro_mutable_op_resolver.h ****         TF_LITE_REPORT_ERROR(error_reporter_,
 8154                             		.loc 3 434 7
 8155 247e 61 01                   		cmp	#0, r1
 8156 2480 3A 70 E0                		beq	.L123
 435:C:\Users\a5116938\Desktop\e2_studio_workspace\EEMBC_final\RX65N_Cloud_Kit\src/tensorflow/lite/micro\micro_mutable_op_resolver.h ****                              "Couldn't register builtin op #%d, resolver size "
 8157                             		.loc 3 435 9
 8158 2483 A0 84                   		mov.L	r4, 8[r0]
 8159 2485 3E 01 06                		mov.L	#6, 4[r0]
 8160 2488 F8 02 4F 00 00 00       		mov.L	#.LC1, [r0]
 8161 248e 05 00 00 00             		bsr	__ZN6tflite13ErrorReporter6ReportEPKcz
 8162                             	.LVL693:
 8163 2492 38 5E E0                		bra	.L123
 8164                             	.LVL694:
 8165                             	.L491:
 8166                             	.LBE932:
 8167                             	.LBE931:
 8168                             	.LBE935:
 8169                             	.LBE938:
 8170                             	.LBE941:
 8171                             	.LBE2008:
 8172                             	.LBB2009:
 8173                             	.LBB962:
 8174                             	.LBB959:
 8175                             	.LBB956:
 8176                             	.LBB952:
 8177                             	.LBB953:
 434:C:\Users\a5116938\Desktop\e2_studio_workspace\EEMBC_final\RX65N_Cloud_Kit\src/tensorflow/lite/micro\micro_mutable_op_resolver.h ****         TF_LITE_REPORT_ERROR(error_reporter_,
 8178                             		.loc 3 434 11
 8179 2495 EE 71 03 05             		mov.L	5132[r7], r1
 434:C:\Users\a5116938\Desktop\e2_studio_workspace\EEMBC_final\RX65N_Cloud_Kit\src/tensorflow/lite/micro\micro_mutable_op_resolver.h ****         TF_LITE_REPORT_ERROR(error_reporter_,
 8180                             		.loc 3 434 7
 8181 2499 61 01                   		cmp	#0, r1
 8182 249b 3A C6 E0                		beq	.L129
 435:C:\Users\a5116938\Desktop\e2_studio_workspace\EEMBC_final\RX65N_Cloud_Kit\src/tensorflow/lite/micro\micro_mutable_op_resolver.h ****                              "Couldn't register builtin op #%d, resolver size "
 8183                             		.loc 3 435 9
 8184 249e A0 84                   		mov.L	r4, 8[r0]
 8185 24a0 3E 01 47                		mov.L	#0x47, 4[r0]
 8186 24a3 F8 02 4F 00 00 00       		mov.L	#.LC1, [r0]
 8187 24a9 05 00 00 00             		bsr	__ZN6tflite13ErrorReporter6ReportEPKcz
 8188                             	.LVL695:
 8189 24ad 38 B4 E0                		bra	.L129
 8190                             	.LVL696:
 8191                             	.L490:
 8192                             	.LBE953:
 8193                             	.LBE952:
 8194                             	.LBE956:
 8195                             	.LBE959:
 8196                             	.LBE962:
 8197                             	.LBE2009:
 8198                             	.LBB2010:
 8199                             	.LBB983:
 8200                             	.LBB980:
 8201                             	.LBB977:
 8202                             	.LBB973:
 8203                             	.LBB974:
 434:C:\Users\a5116938\Desktop\e2_studio_workspace\EEMBC_final\RX65N_Cloud_Kit\src/tensorflow/lite/micro\micro_mutable_op_resolver.h ****         TF_LITE_REPORT_ERROR(error_reporter_,
 8204                             		.loc 3 434 11
 8205 24b0 EE 71 03 05             		mov.L	5132[r7], r1
 434:C:\Users\a5116938\Desktop\e2_studio_workspace\EEMBC_final\RX65N_Cloud_Kit\src/tensorflow/lite/micro\micro_mutable_op_resolver.h ****         TF_LITE_REPORT_ERROR(error_reporter_,
 8206                             		.loc 3 434 7
 8207 24b4 61 01                   		cmp	#0, r1
 8208 24b6 3A 1A E1                		beq	.L135
 435:C:\Users\a5116938\Desktop\e2_studio_workspace\EEMBC_final\RX65N_Cloud_Kit\src/tensorflow/lite/micro\micro_mutable_op_resolver.h ****                              "Couldn't register builtin op #%d, resolver size "
 8209                             		.loc 3 435 9
 8210 24b9 A0 84                   		mov.L	r4, 8[r0]
 8211 24bb 3E 01 08                		mov.L	#8, 4[r0]
 8212 24be F8 02 4F 00 00 00       		mov.L	#.LC1, [r0]
 8213 24c4 05 00 00 00             		bsr	__ZN6tflite13ErrorReporter6ReportEPKcz
 8214                             	.LVL697:
 8215 24c8 38 08 E1                		bra	.L135
 8216                             	.LVL698:
 8217                             	.L488:
 8218                             	.LBE974:
 8219                             	.LBE973:
 8220                             	.LBE977:
 8221                             	.LBE980:
 8222                             	.LBE983:
 8223                             	.LBE2010:
 8224                             	.LBB2011:
 8225                             	.LBB1004:
 8226                             	.LBB1001:
 8227                             	.LBB998:
 8228                             	.LBB994:
 8229                             	.LBB995:
 434:C:\Users\a5116938\Desktop\e2_studio_workspace\EEMBC_final\RX65N_Cloud_Kit\src/tensorflow/lite/micro\micro_mutable_op_resolver.h ****         TF_LITE_REPORT_ERROR(error_reporter_,
 8230                             		.loc 3 434 11
 8231 24cb EE 71 03 05             		mov.L	5132[r7], r1
 434:C:\Users\a5116938\Desktop\e2_studio_workspace\EEMBC_final\RX65N_Cloud_Kit\src/tensorflow/lite/micro\micro_mutable_op_resolver.h ****         TF_LITE_REPORT_ERROR(error_reporter_,
 8232                             		.loc 3 434 7
 8233 24cf 61 01                   		cmp	#0, r1
 8234 24d1 3A 6F E1                		beq	.L141
 435:C:\Users\a5116938\Desktop\e2_studio_workspace\EEMBC_final\RX65N_Cloud_Kit\src/tensorflow/lite/micro\micro_mutable_op_resolver.h ****                              "Couldn't register builtin op #%d, resolver size "
 8235                             		.loc 3 435 9
 8236 24d4 A0 84                   		mov.L	r4, 8[r0]
 8237 24d6 3E 01 09                		mov.L	#9, 4[r0]
 8238 24d9 F8 02 4F 00 00 00       		mov.L	#.LC1, [r0]
 8239 24df 05 00 00 00             		bsr	__ZN6tflite13ErrorReporter6ReportEPKcz
 8240                             	.LVL699:
 8241 24e3 38 5D E1                		bra	.L141
 8242                             	.LVL700:
 8243                             	.L542:
 8244                             	.LBE995:
 8245                             	.LBE994:
 8246                             	.LBE998:
 8247                             	.LBE1001:
 8248                             	.LBE1004:
 8249                             	.LBE2011:
 8250                             	.LBB2012:
 8251                             	.LBB1299:
 8252                             	.LBB1296:
 8253                             	.LBB1293:
 8254                             	.LBB1290:
 8255                             	.LBB1287:
  43:C:\Users\a5116938\Desktop\e2_studio_workspace\EEMBC_final\RX65N_Cloud_Kit\src/tensorflow/lite/micro\micro_mutable_op_resolver.h ****       const TfLiteRegistration& registration = registrations_[i];
 8256                             		.loc 3 43 32
 8257 24e6 66 14                   		mov.L	#1, r4
 8258 24e8 38 56 E7                		bra	.L220
 8259                             	.LVL701:
 8260                             	.L543:
 8261                             	.LBE1287:
 8262                             	.LBE1290:
 8263                             	.LBE1293:
 8264                             	.LBE1296:
 8265                             	.LBE1299:
 8266                             	.LBE2012:
 8267                             	.LBB2013:
 8268                             	.LBB1320:
 8269                             	.LBB1317:
 8270                             	.LBB1314:
 8271                             	.LBB1311:
 8272                             	.LBB1308:
 8273 24eb 66 14                   		mov.L	#1, r4
 8274 24ed 38 C3 E7                		bra	.L226
 8275                             	.LVL702:
 8276                             	.L540:
 8277                             	.LBE1308:
 8278                             	.LBE1311:
 8279                             	.LBE1314:
 8280                             	.LBE1317:
 8281                             	.LBE1320:
 8282                             	.LBE2013:
 8283                             	.LBB2014:
 8284                             	.LBB1257:
 8285                             	.LBB1254:
 8286                             	.LBB1251:
 8287                             	.LBB1248:
 8288                             	.LBB1245:
 8289 24f0 66 14                   		mov.L	#1, r4
 8290 24f2 38 69 E6                		bra	.L208
 8291                             	.LVL703:
 8292                             	.L533:
 8293                             	.LBE1245:
 8294                             	.LBE1248:
 8295                             	.LBE1251:
 8296                             	.LBE1254:
 8297                             	.LBE1257:
 8298                             	.LBE2014:
 8299                             	.LBB2015:
 8300                             	.LBB1110:
 8301                             	.LBB1107:
 8302                             	.LBB1104:
 8303                             	.LBB1101:
 8304                             	.LBB1098:
 8305 24f5 66 14                   		mov.L	#1, r4
 8306 24f7 38 4C E3                		bra	.L166
 8307                             	.LVL704:
 8308                             	.L544:
 8309                             	.LBE1098:
 8310                             	.LBE1101:
 8311                             	.LBE1104:
 8312                             	.LBE1107:
 8313                             	.LBE1110:
 8314                             	.LBE2015:
 8315                             	.LBB2016:
 8316                             	.LBB1341:
 8317                             	.LBB1338:
 8318                             	.LBB1335:
 8319                             	.LBB1332:
 8320                             	.LBB1329:
 8321 24fa 66 14                   		mov.L	#1, r4
 8322 24fc 38 26 E8                		bra	.L232
 8323                             	.LVL705:
 8324                             	.L537:
 8325                             	.LBE1329:
 8326                             	.LBE1332:
 8327                             	.LBE1335:
 8328                             	.LBE1338:
 8329                             	.LBE1341:
 8330                             	.LBE2016:
 8331                             	.LBB2017:
 8332                             	.LBB1194:
 8333                             	.LBB1191:
 8334                             	.LBB1188:
 8335                             	.LBB1185:
 8336                             	.LBB1182:
 8337 24ff 66 14                   		mov.L	#1, r4
 8338 2501 38 09 E5                		bra	.L190
 8339                             	.LVL706:
 8340                             	.L538:
 8341                             	.LBE1182:
 8342                             	.LBE1185:
 8343                             	.LBE1188:
 8344                             	.LBE1191:
 8345                             	.LBE1194:
 8346                             	.LBE2017:
 8347                             	.LBB2018:
 8348                             	.LBB1215:
 8349                             	.LBB1212:
 8350                             	.LBB1209:
 8351                             	.LBB1206:
 8352                             	.LBB1203:
 8353 2504 66 14                   		mov.L	#1, r4
 8354 2506 38 75 E5                		bra	.L196
 8355                             	.LVL707:
 8356                             	.L541:
 8357                             	.LBE1203:
 8358                             	.LBE1206:
 8359                             	.LBE1209:
 8360                             	.LBE1212:
 8361                             	.LBE1215:
 8362                             	.LBE2018:
 8363                             	.LBB2019:
 8364                             	.LBB1278:
 8365                             	.LBB1275:
 8366                             	.LBB1272:
 8367                             	.LBB1269:
 8368                             	.LBB1266:
 8369 2509 66 14                   		mov.L	#1, r4
 8370 250b 38 C1 E6                		bra	.L214
 8371                             	.LVL708:
 8372                             	.L518:
 8373                             	.LBE1266:
 8374                             	.LBE1269:
 8375                             	.LBE1272:
 8376                             	.LBE1275:
 8377                             	.LBE1278:
 8378                             	.LBE2019:
 8379                             	.LBB2020:
 8380                             	.LBB795:
 8381                             	.LBB792:
 8382                             	.LBB789:
 8383                             	.LBB786:
 8384                             	.LBB783:
 8385 250e 66 14                   		mov.L	#1, r4
 8386 2510 38 9C DC                		bra	.L76
 8387                             	.LVL709:
 8388                             	.L516:
 8389                             	.LBE783:
 8390                             	.LBE786:
 8391                             	.LBE789:
 8392                             	.LBE792:
 8393                             	.LBE795:
 8394                             	.LBE2020:
 8395                             	.LBB2021:
 8396                             	.LBB753:
 8397                             	.LBB750:
 8398                             	.LBB747:
 8399                             	.LBB744:
 8400                             	.LBB741:
 8401 2513 66 14                   		mov.L	#1, r4
 8402 2515 38 B5 DB                		bra	.L64
 8403                             	.LVL710:
 8404                             	.L531:
 8405                             	.LBE741:
 8406                             	.LBE744:
 8407                             	.LBE747:
 8408                             	.LBE750:
 8409                             	.LBE753:
 8410                             	.LBE2021:
 8411                             	.LBB2022:
 8412                             	.LBB1068:
 8413                             	.LBB1065:
 8414                             	.LBB1062:
 8415                             	.LBB1059:
 8416                             	.LBB1056:
 8417 2518 66 14                   		mov.L	#1, r4
 8418 251a 38 48 E2                		bra	.L154
 8419                             	.LVL711:
 8420                             	.L547:
 8421                             	.LBE1056:
 8422                             	.LBE1059:
 8423                             	.LBE1062:
 8424                             	.LBE1065:
 8425                             	.LBE1068:
 8426                             	.LBE2022:
 8427                             	.LBB2023:
 8428                             	.LBB1404:
 8429                             	.LBB1401:
 8430                             	.LBB1398:
 8431                             	.LBB1395:
 8432                             	.LBB1392:
 8433 251d 66 14                   		mov.L	#1, r4
 8434 251f 38 57 E9                		bra	.L250
 8435                             	.LVL712:
 8436                             	.L520:
 8437                             	.LBE1392:
 8438                             	.LBE1395:
 8439                             	.LBE1398:
 8440                             	.LBE1401:
 8441                             	.LBE1404:
 8442                             	.LBE2023:
 8443                             	.LBB2024:
 8444                             	.LBB837:
 8445                             	.LBB834:
 8446                             	.LBB831:
 8447                             	.LBB828:
 8448                             	.LBB825:
 8449 2522 66 14                   		mov.L	#1, r4
 8450 2524 38 6A DD                		bra	.L88
 8451                             	.LVL713:
 8452                             	.L569:
 8453                             	.LBE825:
 8454                             	.LBE828:
 8455                             	.LBE831:
 8456                             	.LBE834:
 8457                             	.LBE837:
 8458                             	.LBE2024:
 8459                             	.LBB2025:
 8460                             	.LBB1866:
 8461                             	.LBB1863:
 8462                             	.LBB1860:
 8463                             	.LBB1857:
 8464                             	.LBB1854:
 8465 2527 66 14                   		mov.L	#1, r4
 8466 2529 38 11 F3                		bra	.L382
 8467                             	.LVL714:
 8468                             	.L570:
 8469                             	.LBE1854:
 8470                             	.LBE1857:
 8471                             	.LBE1860:
 8472                             	.LBE1863:
 8473                             	.LBE1866:
 8474                             	.LBE2025:
 8475                             	.LBB2026:
 8476                             	.LBB1887:
 8477                             	.LBB1884:
 8478                             	.LBB1881:
 8479                             	.LBB1878:
 8480                             	.LBB1875:
 8481 252c 66 14                   		mov.L	#1, r4
 8482 252e 38 7D F3                		bra	.L388
 8483                             	.LVL715:
 8484                             	.L517:
 8485                             	.LBE1875:
 8486                             	.LBE1878:
 8487                             	.LBE1881:
 8488                             	.LBE1884:
 8489                             	.LBE1887:
 8490                             	.LBE2026:
 8491                             	.LBB2027:
 8492                             	.LBB774:
 8493                             	.LBB771:
 8494                             	.LBB768:
 8495                             	.LBB765:
 8496                             	.LBB762:
 8497 2531 66 14                   		mov.L	#1, r4
 8498 2533 38 08 DC                		bra	.L70
 8499                             	.LVL716:
 8500                             	.L552:
 8501                             	.LBE762:
 8502                             	.LBE765:
 8503                             	.LBE768:
 8504                             	.LBE771:
 8505                             	.LBE774:
 8506                             	.LBE2027:
 8507                             	.LBB2028:
 8508                             	.LBB1509:
 8509                             	.LBB1506:
 8510                             	.LBB1503:
 8511                             	.LBB1500:
 8512                             	.LBB1497:
 8513 2536 66 14                   		mov.L	#1, r4
 8514 2538 38 76 EB                		bra	.L280
 8515                             	.LVL717:
 8516                             	.L545:
 8517                             	.LBE1497:
 8518                             	.LBE1500:
 8519                             	.LBE1503:
 8520                             	.LBE1506:
 8521                             	.LBE1509:
 8522                             	.LBE2028:
 8523                             	.LBB2029:
 8524                             	.LBB1362:
 8525                             	.LBB1359:
 8526                             	.LBB1356:
 8527                             	.LBB1353:
 8528                             	.LBB1350:
 8529 253b 66 14                   		mov.L	#1, r4
 8530 253d 38 56 E8                		bra	.L238
 8531                             	.LVL718:
 8532                             	.L546:
 8533                             	.LBE1350:
 8534                             	.LBE1353:
 8535                             	.LBE1356:
 8536                             	.LBE1359:
 8537                             	.LBE1362:
 8538                             	.LBE2029:
 8539                             	.LBB2030:
 8540                             	.LBB1383:
 8541                             	.LBB1380:
 8542                             	.LBB1377:
 8543                             	.LBB1374:
 8544                             	.LBB1371:
 8545 2540 66 14                   		mov.L	#1, r4
 8546 2542 38 C2 E8                		bra	.L244
 8547                             	.LVL719:
 8548                             	.L515:
 8549                             	.LBE1371:
 8550                             	.LBE1374:
 8551                             	.LBE1377:
 8552                             	.LBE1380:
 8553                             	.LBE1383:
 8554                             	.LBE2030:
 8555                             	.LBB2031:
 8556                             	.LBB731:
 8557                             	.LBB727:
 8558                             	.LBB724:
 8559                             	.LBB721:
 8560                             	.LBB718:
 8561 2545 66 14                   		mov.L	#1, r4
 8562 2547 38 13 DB                		bra	.L58
 8563                             	.LVL720:
 8564                             	.L550:
 8565                             	.LBE718:
 8566                             	.LBE721:
 8567                             	.LBE724:
 8568                             	.LBE727:
 8569                             	.LBE731:
 8570                             	.LBE2031:
 8571                             	.LBB2032:
 8572                             	.LBB1467:
 8573                             	.LBB1464:
 8574                             	.LBB1461:
 8575                             	.LBB1458:
 8576                             	.LBB1455:
 8577 254a 66 14                   		mov.L	#1, r4
 8578 254c 38 7F EA                		bra	.L268
 8579                             	.LVL721:
 8580                             	.L551:
 8581                             	.LBE1455:
 8582                             	.LBE1458:
 8583                             	.LBE1461:
 8584                             	.LBE1464:
 8585                             	.LBE1467:
 8586                             	.LBE2032:
 8587                             	.LBB2033:
 8588                             	.LBB1488:
 8589                             	.LBB1485:
 8590                             	.LBB1482:
 8591                             	.LBB1479:
 8592                             	.LBB1476:
 8593 254f 66 14                   		mov.L	#1, r4
 8594 2551 38 EB EA                		bra	.L274
 8595                             	.LVL722:
 8596                             	.L548:
 8597                             	.LBE1476:
 8598                             	.LBE1479:
 8599                             	.LBE1482:
 8600                             	.LBE1485:
 8601                             	.LBE1488:
 8602                             	.LBE2033:
 8603                             	.LBB2034:
 8604                             	.LBB1425:
 8605                             	.LBB1422:
 8606                             	.LBB1419:
 8607                             	.LBB1416:
 8608                             	.LBB1413:
 8609 2554 66 14                   		mov.L	#1, r4
 8610 2556 38 92 E9                		bra	.L256
 8611                             	.LVL723:
 8612                             	.L555:
 8613                             	.LBE1413:
 8614                             	.LBE1416:
 8615                             	.LBE1419:
 8616                             	.LBE1422:
 8617                             	.LBE1425:
 8618                             	.LBE2034:
 8619                             	.LBB2035:
 8620                             	.LBB1572:
 8621                             	.LBB1569:
 8622                             	.LBB1566:
 8623                             	.LBB1563:
 8624                             	.LBB1560:
 8625 2559 66 14                   		mov.L	#1, r4
 8626 255b 38 A8 EC                		bra	.L298
 8627                             	.LVL724:
 8628                             	.L536:
 8629                             	.LBE1560:
 8630                             	.LBE1563:
 8631                             	.LBE1566:
 8632                             	.LBE1569:
 8633                             	.LBE1572:
 8634                             	.LBE2035:
 8635                             	.LBB2036:
 8636                             	.LBB1173:
 8637                             	.LBB1170:
 8638                             	.LBB1167:
 8639                             	.LBB1164:
 8640                             	.LBB1161:
 8641 255e 66 14                   		mov.L	#1, r4
 8642 2560 38 38 E4                		bra	.L184
 8643                             	.LVL725:
 8644                             	.L529:
 8645                             	.LBE1161:
 8646                             	.LBE1164:
 8647                             	.LBE1167:
 8648                             	.LBE1170:
 8649                             	.LBE1173:
 8650                             	.LBE2036:
 8651                             	.LBB2037:
 8652                             	.LBB1026:
 8653                             	.LBB1023:
 8654                             	.LBB1020:
 8655                             	.LBB1017:
 8656                             	.LBB1014:
 8657 2563 66 14                   		mov.L	#1, r4
 8658 2565 38 19 E1                		bra	.L142
 8659                             	.LVL726:
 8660                             	.L530:
 8661                             	.LBE1014:
 8662                             	.LBE1017:
 8663                             	.LBE1020:
 8664                             	.LBE1023:
 8665                             	.LBE1026:
 8666                             	.LBE2037:
 8667                             	.LBB2038:
 8668                             	.LBB1047:
 8669                             	.LBB1044:
 8670                             	.LBB1041:
 8671                             	.LBB1038:
 8672                             	.LBB1035:
 8673 2568 66 14                   		mov.L	#1, r4
 8674 256a 38 86 E1                		bra	.L148
 8675                             	.LVL727:
 8676                             	.L549:
 8677                             	.LBE1035:
 8678                             	.LBE1038:
 8679                             	.LBE1041:
 8680                             	.LBE1044:
 8681                             	.LBE1047:
 8682                             	.LBE2038:
 8683                             	.LBB2039:
 8684                             	.LBB1446:
 8685                             	.LBB1443:
 8686                             	.LBB1440:
 8687                             	.LBB1437:
 8688                             	.LBB1434:
 8689 256d 66 14                   		mov.L	#1, r4
 8690 256f 38 EB E9                		bra	.L262
 8691                             	.LVL728:
 8692                             	.L534:
 8693                             	.LBE1434:
 8694                             	.LBE1437:
 8695                             	.LBE1440:
 8696                             	.LBE1443:
 8697                             	.LBE1446:
 8698                             	.LBE2039:
 8699                             	.LBB2040:
 8700                             	.LBB1131:
 8701                             	.LBB1128:
 8702                             	.LBB1125:
 8703                             	.LBB1122:
 8704                             	.LBB1119:
 8705 2572 66 14                   		mov.L	#1, r4
 8706 2574 38 40 E3                		bra	.L172
 8707                             	.LVL729:
 8708                             	.L535:
 8709                             	.LBE1119:
 8710                             	.LBE1122:
 8711                             	.LBE1125:
 8712                             	.LBE1128:
 8713                             	.LBE1131:
 8714                             	.LBE2040:
 8715                             	.LBB2041:
 8716                             	.LBB1152:
 8717                             	.LBB1149:
 8718                             	.LBB1146:
 8719                             	.LBB1143:
 8720                             	.LBB1140:
 8721 2577 66 14                   		mov.L	#1, r4
 8722 2579 38 AD E3                		bra	.L178
 8723                             	.LVL730:
 8724                             	.L532:
 8725                             	.LBE1140:
 8726                             	.LBE1143:
 8727                             	.LBE1146:
 8728                             	.LBE1149:
 8729                             	.LBE1152:
 8730                             	.LBE2041:
 8731                             	.LBB2042:
 8732                             	.LBB1089:
 8733                             	.LBB1086:
 8734                             	.LBB1083:
 8735                             	.LBB1080:
 8736                             	.LBB1077:
 8737 257c 66 14                   		mov.L	#1, r4
 8738 257e 38 54 E2                		bra	.L160
 8739                             	.LVL731:
 8740                             	.L539:
 8741                             	.LBE1077:
 8742                             	.LBE1080:
 8743                             	.LBE1083:
 8744                             	.LBE1086:
 8745                             	.LBE1089:
 8746                             	.LBE2042:
 8747                             	.LBB2043:
 8748                             	.LBB1236:
 8749                             	.LBB1233:
 8750                             	.LBB1230:
 8751                             	.LBB1227:
 8752                             	.LBB1224:
 8753 2581 66 14                   		mov.L	#1, r4
 8754 2583 38 67 E5                		bra	.L202
 8755                             	.LVL732:
 8756                             	.L558:
 8757                             	.LBE1224:
 8758                             	.LBE1227:
 8759                             	.LBE1230:
 8760                             	.LBE1233:
 8761                             	.LBE1236:
 8762                             	.LBE2043:
 8763                             	.LBB2044:
 8764                             	.LBB1635:
 8765                             	.LBB1632:
 8766                             	.LBB1629:
 8767                             	.LBB1626:
 8768                             	.LBB1623:
 8769 2586 66 14                   		mov.L	#1, r4
 8770 2588 38 D0 ED                		bra	.L316
 8771                             	.LVL733:
 8772                             	.L559:
 8773                             	.LBE1623:
 8774                             	.LBE1626:
 8775                             	.LBE1629:
 8776                             	.LBE1632:
 8777                             	.LBE1635:
 8778                             	.LBE2044:
 8779                             	.LBB2045:
 8780                             	.LBB1656:
 8781                             	.LBB1653:
 8782                             	.LBB1650:
 8783                             	.LBB1647:
 8784                             	.LBB1644:
 8785 258b 66 14                   		mov.L	#1, r4
 8786 258d 38 3D EE                		bra	.L322
 8787                             	.LVL734:
 8788                             	.L556:
 8789                             	.LBE1644:
 8790                             	.LBE1647:
 8791                             	.LBE1650:
 8792                             	.LBE1653:
 8793                             	.LBE1656:
 8794                             	.LBE2045:
 8795                             	.LBB2046:
 8796                             	.LBB1593:
 8797                             	.LBB1590:
 8798                             	.LBB1587:
 8799                             	.LBB1584:
 8800                             	.LBB1581:
 8801 2590 66 14                   		mov.L	#1, r4
 8802 2592 38 E2 EC                		bra	.L304
 8803                             	.LVL735:
 8804                             	.L565:
 8805                             	.LBE1581:
 8806                             	.LBE1584:
 8807                             	.LBE1587:
 8808                             	.LBE1590:
 8809                             	.LBE1593:
 8810                             	.LBE2046:
 8811                             	.LBB2047:
 8812                             	.LBB1782:
 8813                             	.LBB1779:
 8814                             	.LBB1776:
 8815                             	.LBB1773:
 8816                             	.LBB1770:
 8817 2595 66 14                   		mov.L	#1, r4
 8818 2597 38 DC F0                		bra	.L358
 8819                             	.LVL736:
 8820                             	.L560:
 8821                             	.LBE1770:
 8822                             	.LBE1773:
 8823                             	.LBE1776:
 8824                             	.LBE1779:
 8825                             	.LBE1782:
 8826                             	.LBE2047:
 8827                             	.LBB2048:
 8828                             	.LBB1677:
 8829                             	.LBB1674:
 8830                             	.LBB1671:
 8831                             	.LBB1668:
 8832                             	.LBB1665:
 8833 259a 66 14                   		mov.L	#1, r4
 8834 259c 38 9F EE                		bra	.L328
 8835                             	.LVL737:
 8836                             	.L553:
 8837                             	.LBE1665:
 8838                             	.LBE1668:
 8839                             	.LBE1671:
 8840                             	.LBE1674:
 8841                             	.LBE1677:
 8842                             	.LBE2048:
 8843                             	.LBB2049:
 8844                             	.LBB1530:
 8845                             	.LBB1527:
 8846                             	.LBB1524:
 8847                             	.LBB1521:
 8848                             	.LBB1518:
 8849 259f 66 14                   		mov.L	#1, r4
 8850 25a1 38 7F EB                		bra	.L286
 8851                             	.LVL738:
 8852                             	.L554:
 8853                             	.LBE1518:
 8854                             	.LBE1521:
 8855                             	.LBE1524:
 8856                             	.LBE1527:
 8857                             	.LBE1530:
 8858                             	.LBE2049:
 8859                             	.LBB2050:
 8860                             	.LBB1551:
 8861                             	.LBB1548:
 8862                             	.LBB1545:
 8863                             	.LBB1542:
 8864                             	.LBB1539:
 8865 25a4 66 14                   		mov.L	#1, r4
 8866 25a6 38 EC EB                		bra	.L292
 8867                             	.LVL739:
 8868                             	.L557:
 8869                             	.LBE1539:
 8870                             	.LBE1542:
 8871                             	.LBE1545:
 8872                             	.LBE1548:
 8873                             	.LBE1551:
 8874                             	.LBE2050:
 8875                             	.LBB2051:
 8876                             	.LBB1614:
 8877                             	.LBB1611:
 8878                             	.LBB1608:
 8879                             	.LBB1605:
 8880                             	.LBB1602:
 8881 25a9 66 14                   		mov.L	#1, r4
 8882 25ab 38 3B ED                		bra	.L310
 8883                             	.LVL740:
 8884                             	.L568:
 8885                             	.LBE1602:
 8886                             	.LBE1605:
 8887                             	.LBE1608:
 8888                             	.LBE1611:
 8889                             	.LBE1614:
 8890                             	.LBE2051:
 8891                             	.LBB2052:
 8892                             	.LBB1845:
 8893                             	.LBB1842:
 8894                             	.LBB1839:
 8895                             	.LBB1836:
 8896                             	.LBB1833:
 8897 25ae 66 14                   		mov.L	#1, r4
 8898 25b0 38 18 F2                		bra	.L376
 8899                             	.LVL741:
 8900                             	.L561:
 8901                             	.LBE1833:
 8902                             	.LBE1836:
 8903                             	.LBE1839:
 8904                             	.LBE1842:
 8905                             	.LBE1845:
 8906                             	.LBE2052:
 8907                             	.LBB2053:
 8908                             	.LBB1698:
 8909                             	.LBB1695:
 8910                             	.LBB1692:
 8911                             	.LBB1689:
 8912                             	.LBB1686:
 8913 25b3 66 14                   		mov.L	#1, r4
 8914 25b5 38 F7 EE                		bra	.L334
 8915                             	.LVL742:
 8916                             	.L562:
 8917                             	.LBE1686:
 8918                             	.LBE1689:
 8919                             	.LBE1692:
 8920                             	.LBE1695:
 8921                             	.LBE1698:
 8922                             	.LBE2053:
 8923                             	.LBB2054:
 8924                             	.LBB1719:
 8925                             	.LBB1716:
 8926                             	.LBB1713:
 8927                             	.LBB1710:
 8928                             	.LBB1707:
 8929 25b8 66 14                   		mov.L	#1, r4
 8930 25ba 38 64 EF                		bra	.L340
 8931                             	.LVL743:
 8932                             	.L519:
 8933                             	.LBE1707:
 8934                             	.LBE1710:
 8935                             	.LBE1713:
 8936                             	.LBE1716:
 8937                             	.LBE1719:
 8938                             	.LBE2054:
 8939                             	.LBB2055:
 8940                             	.LBB816:
 8941                             	.LBB813:
 8942                             	.LBB810:
 8943                             	.LBB807:
 8944                             	.LBB804:
 8945 25bd 66 14                   		mov.L	#1, r4
 8946 25bf 38 5D DC                		bra	.L82
 8947                             	.LVL744:
 8948                             	.L566:
 8949                             	.LBE804:
 8950                             	.LBE807:
 8951                             	.LBE810:
 8952                             	.LBE813:
 8953                             	.LBE816:
 8954                             	.LBE2055:
 8955                             	.LBB2056:
 8956                             	.LBB1803:
 8957                             	.LBB1800:
 8958                             	.LBB1797:
 8959                             	.LBB1794:
 8960                             	.LBB1791:
 8961 25c2 66 14                   		mov.L	#1, r4
 8962 25c4 38 20 F1                		bra	.L364
 8963                             	.LVL745:
 8964                             	.L567:
 8965                             	.LBE1791:
 8966                             	.LBE1794:
 8967                             	.LBE1797:
 8968                             	.LBE1800:
 8969                             	.LBE1803:
 8970                             	.LBE2056:
 8971                             	.LBB2057:
 8972                             	.LBB1824:
 8973                             	.LBB1821:
 8974                             	.LBB1818:
 8975                             	.LBB1815:
 8976                             	.LBB1812:
 8977 25c7 66 14                   		mov.L	#1, r4
 8978 25c9 38 8D F1                		bra	.L370
 8979                             	.LVL746:
 8980                             	.L564:
 8981                             	.LBE1812:
 8982                             	.LBE1815:
 8983                             	.LBE1818:
 8984                             	.LBE1821:
 8985                             	.LBE1824:
 8986                             	.LBE2057:
 8987                             	.LBB2058:
 8988                             	.LBB1761:
 8989                             	.LBB1758:
 8990                             	.LBB1755:
 8991                             	.LBB1752:
 8992                             	.LBB1749:
 8993 25cc 66 14                   		mov.L	#1, r4
 8994 25ce 38 34 F0                		bra	.L352
 8995                             	.LVL747:
 8996                             	.L525:
 8997                             	.LBE1749:
 8998                             	.LBE1752:
 8999                             	.LBE1755:
 9000                             	.LBE1758:
 9001                             	.LBE1761:
 9002                             	.LBE2058:
 9003                             	.LBB2059:
 9004                             	.LBB942:
 9005                             	.LBB939:
 9006                             	.LBB936:
 9007                             	.LBB933:
 9008                             	.LBB930:
 9009 25d1 66 14                   		mov.L	#1, r4
 9010 25d3 38 E9 DE                		bra	.L118
 9011                             	.LVL748:
 9012                             	.L528:
 9013                             	.LBE930:
 9014                             	.LBE933:
 9015                             	.LBE936:
 9016                             	.LBE939:
 9017                             	.LBE942:
 9018                             	.LBE2059:
 9019                             	.LBB2060:
 9020                             	.LBB1005:
 9021                             	.LBB1002:
 9022                             	.LBB999:
 9023                             	.LBB996:
 9024                             	.LBB993:
 9025 25d6 66 14                   		mov.L	#1, r4
 9026 25d8 38 34 E0                		bra	.L136
 9027                             	.LVL749:
 9028                             	.L521:
 9029                             	.LBE993:
 9030                             	.LBE996:
 9031                             	.LBE999:
 9032                             	.LBE1002:
 9033                             	.LBE1005:
 9034                             	.LBE2060:
 9035                             	.LBB2061:
 9036                             	.LBB858:
 9037                             	.LBB855:
 9038                             	.LBB852:
 9039                             	.LBB849:
 9040                             	.LBB846:
 9041 25db 66 14                   		mov.L	#1, r4
 9042 25dd 38 20 DD                		bra	.L94
 9043                             	.LVL750:
 9044                             	.L522:
 9045                             	.LBE846:
 9046                             	.LBE849:
 9047                             	.LBE852:
 9048                             	.LBE855:
 9049                             	.LBE858:
 9050                             	.LBE2061:
 9051                             	.LBB2062:
 9052                             	.LBB879:
 9053                             	.LBB876:
 9054                             	.LBB873:
 9055                             	.LBB870:
 9056                             	.LBB867:
 9057 25e0 66 14                   		mov.L	#1, r4
 9058 25e2 38 8A DD                		bra	.L100
 9059                             	.LVL751:
 9060                             	.L563:
 9061                             	.LBE867:
 9062                             	.LBE870:
 9063                             	.LBE873:
 9064                             	.LBE876:
 9065                             	.LBE879:
 9066                             	.LBE2062:
 9067                             	.LBB2063:
 9068                             	.LBB1740:
 9069                             	.LBB1737:
 9070                             	.LBB1734:
 9071                             	.LBB1731:
 9072                             	.LBB1728:
 9073 25e5 66 14                   		mov.L	#1, r4
 9074 25e7 38 A9 EF                		bra	.L346
 9075                             	.LVL752:
 9076                             	.L526:
 9077                             	.LBE1728:
 9078                             	.LBE1731:
 9079                             	.LBE1734:
 9080                             	.LBE1737:
 9081                             	.LBE1740:
 9082                             	.LBE2063:
 9083                             	.LBB2064:
 9084                             	.LBB963:
 9085                             	.LBB960:
 9086                             	.LBB957:
 9087                             	.LBB954:
 9088                             	.LBB951:
 9089 25ea 66 14                   		mov.L	#1, r4
 9090 25ec 38 42 DF                		bra	.L124
 9091                             	.LVL753:
 9092                             	.L523:
 9093                             	.LBE951:
 9094                             	.LBE954:
 9095                             	.LBE957:
 9096                             	.LBE960:
 9097                             	.LBE963:
 9098                             	.LBE2064:
 9099                             	.LBB2065:
 9100                             	.LBB900:
 9101                             	.LBB897:
 9102                             	.LBB894:
 9103                             	.LBB891:
 9104                             	.LBB888:
 9105 25ef 66 14                   		mov.L	#1, r4
 9106 25f1 38 ED DD                		bra	.L106
 9107                             	.LVL754:
 9108                             	.L524:
 9109                             	.LBE888:
 9110                             	.LBE891:
 9111                             	.LBE894:
 9112                             	.LBE897:
 9113                             	.LBE900:
 9114                             	.LBE2065:
 9115                             	.LBB2066:
 9116                             	.LBB921:
 9117                             	.LBB918:
 9118                             	.LBB915:
 9119                             	.LBB912:
 9120                             	.LBB909:
 9121 25f4 66 14                   		mov.L	#1, r4
 9122 25f6 38 57 DE                		bra	.L112
 9123                             	.LVL755:
 9124                             	.L527:
 9125                             	.LBE909:
 9126                             	.LBE912:
 9127                             	.LBE915:
 9128                             	.LBE918:
 9129                             	.LBE921:
 9130                             	.LBE2066:
 9131                             	.LBB2067:
 9132                             	.LBB984:
 9133                             	.LBB981:
 9134                             	.LBB978:
 9135                             	.LBB975:
 9136                             	.LBB972:
 9137 25f9 66 14                   		mov.L	#1, r4
 9138 25fb 38 A2 DF                		bra	.L130
 9139                             	.LBE972:
 9140                             	.LBE975:
 9141                             	.LBE978:
 9142                             	.LBE981:
 9143                             	.LBE984:
 9144                             	.LBE2067:
 9145                             	.LBE2073:
 9146                             	.LBE2076:
 9147                             	.LFE6530:
 9149                             		.global	__ZN6tflite14AllOpsResolverC1Ev
 9150                             		.set	__ZN6tflite14AllOpsResolverC1Ev,__ZN6tflite14AllOpsResolverC2Ev
 9151                             		.weak	__ZTVN6tflite14AllOpsResolverE
 9152 25fe EF 00                   		.section	.rodata._ZTVN6tflite14AllOpsResolverE,"aG",@progbits,_ZTVN6tflite14AllOpsResolverE,comdat
 9153                             		.balign 4
 9156                             	__ZTVN6tflite14AllOpsResolverE:
 9157 0000 00 00 00 00             		.long	0
 9158 0004 00 00 00 00             		.long	0
 9159 0008 00 00 00 00             		.long	__ZNK6tflite15MicroOpResolver6FindOpENS_15BuiltinOperatorEi
 9160 000c 00 00 00 00             		.long	__ZNK6tflite15MicroOpResolver6FindOpEPKci
 9161 0010 00 00 00 00             		.long	__ZNK6tflite10OpResolver12GetDelegatesEi
 9162 0014 00 00 00 00             		.long	__ZN6tflite14AllOpsResolverD1Ev
 9163 0018 00 00 00 00             		.long	__ZN6tflite14AllOpsResolverD0Ev
 9164 001c 00 00 00 00             		.long	__ZNK6tflite22MicroMutableOpResolverILj128EE6FindOpENS_15BuiltinOperatorE
 9165 0020 00 00 00 00             		.long	__ZNK6tflite22MicroMutableOpResolverILj128EE6FindOpEPKc
 9166 0024 00 00 00 00             		.long	__ZNK6tflite22MicroMutableOpResolverILj128EE15GetOpDataParserENS_15BuiltinOperatorE
 9167                             		.weak	__ZN11flatbuffers25flatbuffer_version_stringE
 9168                             		.section	.data._ZN11flatbuffers25flatbuffer_version_stringE,"aw"
 9169                             		.balign 4
 9172                             	__ZN11flatbuffers25flatbuffer_version_stringE:
 9173 0000 00 00 00 00             		.long	.LC4
 9174                             		.section	.rodata._ZN6tflite14AllOpsResolverC2Ev.str1.1,"aMS",@progbits,1
 9175                             	.LC0:
 9176 0000 43 61 6C 6C 69 6E 67 20 		.string	"Calling AddBuiltin with the same op more than once is not supported (Op: #%d)."
 9176      41 64 64 42 75 69 6C 74 
 9176      69 6E 20 77 69 74 68 20 
 9176      74 68 65 20 73 61 6D 65 
 9176      20 6F 70 20 6D 6F 72 65 
 9177                             	.LC1:
 9178 004f 43 6F 75 6C 64 6E 27 74 		.string	"Couldn't register builtin op #%d, resolver size is too small (%d)."
 9178      20 72 65 67 69 73 74 65 
 9178      72 20 62 75 69 6C 74 69 
 9178      6E 20 6F 70 20 23 25 64 
 9178      2C 20 72 65 73 6F 6C 76 
 9179                             	.LC2:
 9180 0092 43 6F 75 6C 64 6E 27 74 		.string	"Couldn't register custom op '%s', resolver size is too small (%d)"
 9180      20 72 65 67 69 73 74 65 
 9180      72 20 63 75 73 74 6F 6D 
 9180      20 6F 70 20 27 25 73 27 
 9180      2C 20 72 65 73 6F 6C 76 
 9181                             	.LC3:
 9182 00d4 43 61 6C 6C 69 6E 67 20 		.string	"Calling AddCustom for the same op more than once is not supported (Op: %s)."
 9182      41 64 64 43 75 73 74 6F 
 9182      6D 20 66 6F 72 20 74 68 
 9182      65 20 73 61 6D 65 20 6F 
 9182      70 20 6D 6F 72 65 20 74 
 9183                             		.section	.rodata.str1.1,"aMS",@progbits,1
 9184                             	.LC4:
 9185 0000 46 6C 61 74 42 75 66 66 		.string	"FlatBuffers 1.12.0"
 9185      65 72 73 20 31 2E 31 32 
 9185      2E 30 00 
 9333                             	.Letext0:
 9334                             		.file 7 "c:\\gcc for renesas rx 8.3.0.202004-gnurx-elf\\rx-elf\\rx-elf\\rx-elf\\include\\c++\\8.3.
 9335                             		.file 8 "c:\\gcc for renesas rx 8.3.0.202004-gnurx-elf\\rx-elf\\rx-elf\\rx-elf\\include\\c++\\8.3.
 9336                             		.file 9 "c:\\gcc for renesas rx 8.3.0.202004-gnurx-elf\\rx-elf\\rx-elf\\rx-elf\\include\\c++\\8.3.
 9337                             		.file 10 "c:\\gcc for renesas rx 8.3.0.202004-gnurx-elf\\rx-elf\\rx-elf\\rx-elf\\include\\c++\\8.3
 9338                             		.file 11 "c:\\gcc for renesas rx 8.3.0.202004-gnurx-elf\\rx-elf\\rx-elf\\rx-elf\\include\\c++\\8.3
 9339                             		.file 12 "c:\\gcc for renesas rx 8.3.0.202004-gnurx-elf\\rx-elf\\rx-elf\\rx-elf\\include\\c++\\8.3
 9340                             		.file 13 "c:\\gcc for renesas rx 8.3.0.202004-gnurx-elf\\rx-elf\\rx-elf\\rx-elf\\include\\c++\\8.3
 9341                             		.file 14 "c:\\gcc for renesas rx 8.3.0.202004-gnurx-elf\\rx-elf\\rx-elf\\rx-elf\\include\\c++\\8.3
 9342                             		.file 15 "c:\\gcc for renesas rx 8.3.0.202004-gnurx-elf\\rx-elf\\rx-elf\\rx-elf\\include\\c++\\8.3
 9343                             		.file 16 "c:\\gcc for renesas rx 8.3.0.202004-gnurx-elf\\rx-elf\\rx-elf\\rx-elf\\include\\c++\\8.3
 9344                             		.file 17 "c:\\gcc for renesas rx 8.3.0.202004-gnurx-elf\\rx-elf\\rx-elf\\rx-elf\\include\\c++\\8.3
 9345                             		.file 18 "c:\\gcc for renesas rx 8.3.0.202004-gnurx-elf\\rx-elf\\rx-elf\\rx-elf\\include\\c++\\8.3
 9346                             		.file 19 "c:\\gcc for renesas rx 8.3.0.202004-gnurx-elf\\rx-elf\\rx-elf\\rx-elf\\include\\c++\\8.3
 9347                             		.file 20 "c:\\gcc for renesas rx 8.3.0.202004-gnurx-elf\\rx-elf\\rx-elf\\rx-elf\\include\\c++\\8.3
 9348                             		.file 21 "c:\\gcc for renesas rx 8.3.0.202004-gnurx-elf\\rx-elf\\rx-elf\\rx-elf\\include\\c++\\8.3
 9349                             		.file 22 "c:\\gcc for renesas rx 8.3.0.202004-gnurx-elf\\rx-elf\\rx-elf\\rx-elf\\include\\c++\\8.3
 9350                             		.file 23 "c:\\gcc for renesas rx 8.3.0.202004-gnurx-elf\\rx-elf\\rx-elf\\rx-elf\\include\\c++\\8.3
 9351                             		.file 24 "c:\\gcc for renesas rx 8.3.0.202004-gnurx-elf\\rx-elf\\rx-elf\\rx-elf\\include\\c++\\8.3
 9352                             		.file 25 "c:\\gcc for renesas rx 8.3.0.202004-gnurx-elf\\rx-elf\\rx-elf\\rx-elf\\include\\c++\\8.3
 9353                             		.file 26 "c:\\gcc for renesas rx 8.3.0.202004-gnurx-elf\\rx-elf\\rx-elf\\rx-elf\\include\\c++\\8.3
 9354                             		.file 27 "c:\\gcc for renesas rx 8.3.0.202004-gnurx-elf\\rx-elf\\rx-elf\\rx-elf\\include\\c++\\8.3
 9355                             		.file 28 "c:\\gcc for renesas rx 8.3.0.202004-gnurx-elf\\rx-elf\\rx-elf\\rx-elf\\include\\c++\\8.3
 9356                             		.file 29 "c:\\gcc for renesas rx 8.3.0.202004-gnurx-elf\\rx-elf\\rx-elf\\rx-elf\\include\\c++\\8.3
 9357                             		.file 30 "c:\\gcc for renesas rx 8.3.0.202004-gnurx-elf\\rx-elf\\rx-elf\\rx-elf\\include\\c++\\8.3
 9358                             		.file 31 "c:\\gcc for renesas rx 8.3.0.202004-gnurx-elf\\rx-elf\\rx-elf\\rx-elf\\include\\c++\\8.3
 9359                             		.file 32 "c:\\gcc for renesas rx 8.3.0.202004-gnurx-elf\\rx-elf\\rx-elf\\rx-elf\\include\\c++\\8.3
 9360                             		.file 33 "c:\\gcc for renesas rx 8.3.0.202004-gnurx-elf\\rx-elf\\rx-elf\\rx-elf\\include\\c++\\8.3
 9361                             		.file 34 "c:\\gcc for renesas rx 8.3.0.202004-gnurx-elf\\rx-elf\\rx-elf\\rx-elf\\include\\c++\\8.3
 9362                             		.file 35 "c:\\gcc for renesas rx 8.3.0.202004-gnurx-elf\\rx-elf\\rx-elf\\rx-elf\\include\\c++\\8.3
 9363                             		.file 36 "c:\\gcc for renesas rx 8.3.0.202004-gnurx-elf\\rx-elf\\rx-elf\\rx-elf\\include\\c++\\8.3
 9364                             		.file 37 "c:\\gcc for renesas rx 8.3.0.202004-gnurx-elf\\rx-elf\\rx-elf\\rx-elf\\include\\c++\\8.3
 9365                             		.file 38 "c:\\gcc for renesas rx 8.3.0.202004-gnurx-elf\\rx-elf\\rx-elf\\rx-elf\\include\\c++\\8.3
 9366                             		.file 39 "c:\\gcc for renesas rx 8.3.0.202004-gnurx-elf\\rx-elf\\rx-elf\\rx-elf\\include\\c++\\8.3
 9367                             		.file 40 "c:\\gcc for renesas rx 8.3.0.202004-gnurx-elf\\rx-elf\\rx-elf\\rx-elf\\include\\c++\\8.3
 9368                             		.file 41 "c:\\gcc for renesas rx 8.3.0.202004-gnurx-elf\\rx-elf\\rx-elf\\rx-elf\\include\\c++\\8.3
 9369                             		.file 42 "c:\\gcc for renesas rx 8.3.0.202004-gnurx-elf\\rx-elf\\rx-elf\\rx-elf\\include\\c++\\8.3
 9370                             		.file 43 "c:\\gcc for renesas rx 8.3.0.202004-gnurx-elf\\rx-elf\\rx-elf\\rx-elf\\include\\c++\\8.3
 9371                             		.file 44 "c:\\gcc for renesas rx 8.3.0.202004-gnurx-elf\\rx-elf\\rx-elf\\rx-elf\\include\\c++\\8.3
 9372                             		.file 45 "c:\\gcc for renesas rx 8.3.0.202004-gnurx-elf\\rx-elf\\rx-elf\\rx-elf\\include\\c++\\8.3
 9373                             		.file 46 "c:\\gcc for renesas rx 8.3.0.202004-gnurx-elf\\rx-elf\\rx-elf\\rx-elf\\include\\c++\\8.3
 9374                             		.file 47 "c:\\gcc for renesas rx 8.3.0.202004-gnurx-elf\\rx-elf\\rx-elf\\rx-elf\\include\\c++\\8.3
 9375                             		.file 48 "c:\\gcc for renesas rx 8.3.0.202004-gnurx-elf\\rx-elf\\rx-elf\\rx-elf\\include\\c++\\8.3
 9376                             		.file 49 "c:\\gcc for renesas rx 8.3.0.202004-gnurx-elf\\rx-elf\\rx-elf\\rx-elf\\include\\machine\
 9377                             		.file 50 "c:\\gcc for renesas rx 8.3.0.202004-gnurx-elf\\rx-elf\\rx-elf\\lib\\gcc\\rx-elf\\8.3.0.2
 9378                             		.file 51 "c:\\gcc for renesas rx 8.3.0.202004-gnurx-elf\\rx-elf\\rx-elf\\lib\\gcc\\rx-elf\\8.3.0.2
 9379                             		.file 52 "c:\\gcc for renesas rx 8.3.0.202004-gnurx-elf\\rx-elf\\rx-elf\\rx-elf\\include\\stdio.h"
 9380                             		.file 53 "c:\\gcc for renesas rx 8.3.0.202004-gnurx-elf\\rx-elf\\rx-elf\\rx-elf\\include\\sys\\loc
 9381                             		.file 54 "c:\\gcc for renesas rx 8.3.0.202004-gnurx-elf\\rx-elf\\rx-elf\\rx-elf\\include\\sys\\_ty
 9382                             		.file 55 "c:\\gcc for renesas rx 8.3.0.202004-gnurx-elf\\rx-elf\\rx-elf\\rx-elf\\include\\sys\\ree
 9383                             		.file 56 "c:\\gcc for renesas rx 8.3.0.202004-gnurx-elf\\rx-elf\\rx-elf\\rx-elf\\include\\sys\\_st
 9384                             		.file 57 "c:\\gcc for renesas rx 8.3.0.202004-gnurx-elf\\rx-elf\\rx-elf\\rx-elf\\include\\string.h
 9385                             		.file 58 "c:\\gcc for renesas rx 8.3.0.202004-gnurx-elf\\rx-elf\\rx-elf\\rx-elf\\include\\stdint.h
 9386                             		.file 59 "C:\\Users\\a5116938\\Desktop\\e2_studio_workspace\\EEMBC_final\\RX65N_Cloud_Kit\\src/ten
 9387                             		.file 60 "c:\\gcc for renesas rx 8.3.0.202004-gnurx-elf\\rx-elf\\rx-elf\\rx-elf\\include\\stdlib.h
 9388                             		.file 61 "c:\\gcc for renesas rx 8.3.0.202004-gnurx-elf\\rx-elf\\rx-elf\\rx-elf\\include\\wchar.h"
 9389                             		.file 62 "c:\\gcc for renesas rx 8.3.0.202004-gnurx-elf\\rx-elf\\rx-elf\\rx-elf\\include\\locale.h
 9390                             		.file 63 "c:\\gcc for renesas rx 8.3.0.202004-gnurx-elf\\rx-elf\\rx-elf\\rx-elf\\include\\ctype.h"
 9391                             		.file 64 "c:\\gcc for renesas rx 8.3.0.202004-gnurx-elf\\rx-elf\\rx-elf\\rx-elf\\include\\sys\\err
 9392                             		.file 65 "c:\\gcc for renesas rx 8.3.0.202004-gnurx-elf\\rx-elf\\rx-elf\\rx-elf\\include\\wctype.h
 9393                             		.file 66 "C:\\Users\\a5116938\\Desktop\\e2_studio_workspace\\EEMBC_final\\RX65N_Cloud_Kit\\src\\th
 9394                             		.file 67 "C:\\Users\\a5116938\\Desktop\\e2_studio_workspace\\EEMBC_final\\RX65N_Cloud_Kit\\src\\th
 9395                             		.file 68 "C:\\Users\\a5116938\\Desktop\\e2_studio_workspace\\EEMBC_final\\RX65N_Cloud_Kit\\src\\th
 9396                             		.file 69 "C:\\Users\\a5116938\\Desktop\\e2_studio_workspace\\EEMBC_final\\RX65N_Cloud_Kit\\src/ten
 9397                             		.file 70 "C:\\Users\\a5116938\\Desktop\\e2_studio_workspace\\EEMBC_final\\RX65N_Cloud_Kit\\src/ten
 9398                             		.file 71 "C:\\Users\\a5116938\\Desktop\\e2_studio_workspace\\EEMBC_final\\RX65N_Cloud_Kit\\src/ten
 9399                             		.file 72 "C:\\Users\\a5116938\\Desktop\\e2_studio_workspace\\EEMBC_final\\RX65N_Cloud_Kit\\src/ten
 9400                             		.file 73 "C:\\Users\\a5116938\\Desktop\\e2_studio_workspace\\EEMBC_final\\RX65N_Cloud_Kit\\src/ten
 9401                             		.file 74 "<built-in>"
