   1                             		.file	"ceil.cc"
   2                             		.section P,"ax"
   3                             	.Ltext0:
   4                             		.section	.text._ZN6tflite3ops5micro4ceil7PrepareEP13TfLiteContextP10TfLiteNode,"ax",@progbits
   5                             		.global	__ZN6tflite3ops5micro4ceil7PrepareEP13TfLiteContextP10TfLiteNode
   7                             	__ZN6tflite3ops5micro4ceil7PrepareEP13TfLiteContextP10TfLiteNode:
   8                             	.LFB1192:
   9                             		.file 1 "../src/tensorflow/lite/micro/kernels/ceil.cc"
   1:../src/tensorflow/lite/micro/kernels/ceil.cc **** /* Copyright 2018 The TensorFlow Authors. All Rights Reserved.
   2:../src/tensorflow/lite/micro/kernels/ceil.cc **** 
   3:../src/tensorflow/lite/micro/kernels/ceil.cc **** Licensed under the Apache License, Version 2.0 (the "License");
   4:../src/tensorflow/lite/micro/kernels/ceil.cc **** you may not use this file except in compliance with the License.
   5:../src/tensorflow/lite/micro/kernels/ceil.cc **** You may obtain a copy of the License at
   6:../src/tensorflow/lite/micro/kernels/ceil.cc **** 
   7:../src/tensorflow/lite/micro/kernels/ceil.cc ****     http://www.apache.org/licenses/LICENSE-2.0
   8:../src/tensorflow/lite/micro/kernels/ceil.cc **** 
   9:../src/tensorflow/lite/micro/kernels/ceil.cc **** Unless required by applicable law or agreed to in writing, software
  10:../src/tensorflow/lite/micro/kernels/ceil.cc **** distributed under the License is distributed on an "AS IS" BASIS,
  11:../src/tensorflow/lite/micro/kernels/ceil.cc **** WITHOUT WARRANTIES OR CONDITIONS OF ANY KIND, either express or implied.
  12:../src/tensorflow/lite/micro/kernels/ceil.cc **** See the License for the specific language governing permissions and
  13:../src/tensorflow/lite/micro/kernels/ceil.cc **** limitations under the License.
  14:../src/tensorflow/lite/micro/kernels/ceil.cc **** ==============================================================================*/
  15:../src/tensorflow/lite/micro/kernels/ceil.cc **** 
  16:../src/tensorflow/lite/micro/kernels/ceil.cc **** #include "tensorflow/lite/kernels/internal/reference/ceil.h"
  17:../src/tensorflow/lite/micro/kernels/ceil.cc **** 
  18:../src/tensorflow/lite/micro/kernels/ceil.cc **** #include "tensorflow/lite/c/common.h"
  19:../src/tensorflow/lite/micro/kernels/ceil.cc **** #include "tensorflow/lite/kernels/internal/tensor_ctypes.h"
  20:../src/tensorflow/lite/micro/kernels/ceil.cc **** #include "tensorflow/lite/kernels/kernel_util.h"
  21:../src/tensorflow/lite/micro/kernels/ceil.cc **** #include "tensorflow/lite/micro/kernels/kernel_util.h"
  22:../src/tensorflow/lite/micro/kernels/ceil.cc **** 
  23:../src/tensorflow/lite/micro/kernels/ceil.cc **** namespace tflite {
  24:../src/tensorflow/lite/micro/kernels/ceil.cc **** namespace ops {
  25:../src/tensorflow/lite/micro/kernels/ceil.cc **** namespace micro {
  26:../src/tensorflow/lite/micro/kernels/ceil.cc **** namespace ceil {
  27:../src/tensorflow/lite/micro/kernels/ceil.cc **** 
  28:../src/tensorflow/lite/micro/kernels/ceil.cc **** constexpr int kInputTensor = 0;
  29:../src/tensorflow/lite/micro/kernels/ceil.cc **** constexpr int kOutputTensor = 0;
  30:../src/tensorflow/lite/micro/kernels/ceil.cc **** 
  31:../src/tensorflow/lite/micro/kernels/ceil.cc **** TfLiteStatus Prepare(TfLiteContext* context, TfLiteNode* node) {
  10                             		.loc 1 31 64
  11                             	.LVL0:
  12 0000 6E 6C                   		pushm	r6-r12
  13                             	.LCFI0:
  14 0002 71 00 E4                		add	#-28, r0
  15                             	.LCFI1:
  32:../src/tensorflow/lite/micro/kernels/ceil.cc ****   const TfLiteTensor* input = GetInput(context, node, kInputTensor);
  16                             		.loc 1 32 39 is_stmt 0
  17 0005 66 03                   		mov.L	#0, r3
  31:../src/tensorflow/lite/micro/kernels/ceil.cc ****   const TfLiteTensor* input = GetInput(context, node, kInputTensor);
  18                             		.loc 1 31 64
  19 0007 EF 1B                   		mov.L	r1, r11
  20                             		.loc 1 32 3 is_stmt 1
  31:../src/tensorflow/lite/micro/kernels/ceil.cc ****   const TfLiteTensor* input = GetInput(context, node, kInputTensor);
  21                             		.loc 1 31 64 is_stmt 0
  22 0009 EF 2A                   		mov.L	r2, r10
  23                             		.loc 1 32 39
  24 000b 05 00 00 00             		bsr	__ZN6tflite8GetInputEPK13TfLiteContextPK10TfLiteNodei
  25                             	.LVL1:
  33:../src/tensorflow/lite/micro/kernels/ceil.cc ****   TF_LITE_ENSURE(context, input != nullptr);
  26                             		.loc 1 33 3 is_stmt 1
  27                             		.loc 1 33 3
  28 000f 61 01                   		cmp	#0, r1
  29 0011 3A A7 00                		beq	.L19
  30 0014 EF 16                   		mov.L	r1, r6
  34:../src/tensorflow/lite/micro/kernels/ceil.cc ****   TfLiteTensor* output = GetOutput(context, node, kOutputTensor);
  31                             		.loc 1 34 3
  32                             		.loc 1 34 35 is_stmt 0
  33 0016 66 03                   		mov.L	#0, r3
  34 0018 EF A2                   		mov.L	r10, r2
  35 001a EF B1                   		mov.L	r11, r1
  36                             	.LVL2:
  37 001c 05 00 00 00             		bsr	__ZN6tflite9GetOutputEP13TfLiteContextPK10TfLiteNodei
  38                             	.LVL3:
  35:../src/tensorflow/lite/micro/kernels/ceil.cc ****   TF_LITE_ENSURE(context, output != nullptr);
  39                             		.loc 1 35 3 is_stmt 1
  40                             		.loc 1 35 3
  41 0020 61 01                   		cmp	#0, r1
  42 0022 3A EA 00                		beq	.L20
  36:../src/tensorflow/lite/micro/kernels/ceil.cc ****   TF_LITE_ENSURE_EQ(context, NumInputs(node), 1);
  43                             		.loc 1 36 3
  44                             		.loc 1 36 3
  45                             	.LVL4:
  46                             	.LBB41:
  47                             	.LBB42:
  48                             		.file 2 "C:\\Users\\a5116938\\Desktop\\e2_studio_workspace\\EEMBC_final\\RX65N_Cloud_Kit\\src/tens
   1:C:\Users\a5116938\Desktop\e2_studio_workspace\EEMBC_final\RX65N_Cloud_Kit\src/tensorflow/lite/kernels\kernel_util.h **** /* Copyright 2017 The TensorFlow Authors. All Rights Reserved.
   2:C:\Users\a5116938\Desktop\e2_studio_workspace\EEMBC_final\RX65N_Cloud_Kit\src/tensorflow/lite/kernels\kernel_util.h **** 
   3:C:\Users\a5116938\Desktop\e2_studio_workspace\EEMBC_final\RX65N_Cloud_Kit\src/tensorflow/lite/kernels\kernel_util.h **** Licensed under the Apache License, Version 2.0 (the "License");
   4:C:\Users\a5116938\Desktop\e2_studio_workspace\EEMBC_final\RX65N_Cloud_Kit\src/tensorflow/lite/kernels\kernel_util.h **** you may not use this file except in compliance with the License.
   5:C:\Users\a5116938\Desktop\e2_studio_workspace\EEMBC_final\RX65N_Cloud_Kit\src/tensorflow/lite/kernels\kernel_util.h **** You may obtain a copy of the License at
   6:C:\Users\a5116938\Desktop\e2_studio_workspace\EEMBC_final\RX65N_Cloud_Kit\src/tensorflow/lite/kernels\kernel_util.h **** 
   7:C:\Users\a5116938\Desktop\e2_studio_workspace\EEMBC_final\RX65N_Cloud_Kit\src/tensorflow/lite/kernels\kernel_util.h ****     http://www.apache.org/licenses/LICENSE-2.0
   8:C:\Users\a5116938\Desktop\e2_studio_workspace\EEMBC_final\RX65N_Cloud_Kit\src/tensorflow/lite/kernels\kernel_util.h **** 
   9:C:\Users\a5116938\Desktop\e2_studio_workspace\EEMBC_final\RX65N_Cloud_Kit\src/tensorflow/lite/kernels\kernel_util.h **** Unless required by applicable law or agreed to in writing, software
  10:C:\Users\a5116938\Desktop\e2_studio_workspace\EEMBC_final\RX65N_Cloud_Kit\src/tensorflow/lite/kernels\kernel_util.h **** distributed under the License is distributed on an "AS IS" BASIS,
  11:C:\Users\a5116938\Desktop\e2_studio_workspace\EEMBC_final\RX65N_Cloud_Kit\src/tensorflow/lite/kernels\kernel_util.h **** WITHOUT WARRANTIES OR CONDITIONS OF ANY KIND, either express or implied.
  12:C:\Users\a5116938\Desktop\e2_studio_workspace\EEMBC_final\RX65N_Cloud_Kit\src/tensorflow/lite/kernels\kernel_util.h **** See the License for the specific language governing permissions and
  13:C:\Users\a5116938\Desktop\e2_studio_workspace\EEMBC_final\RX65N_Cloud_Kit\src/tensorflow/lite/kernels\kernel_util.h **** limitations under the License.
  14:C:\Users\a5116938\Desktop\e2_studio_workspace\EEMBC_final\RX65N_Cloud_Kit\src/tensorflow/lite/kernels\kernel_util.h **** ==============================================================================*/
  15:C:\Users\a5116938\Desktop\e2_studio_workspace\EEMBC_final\RX65N_Cloud_Kit\src/tensorflow/lite/kernels\kernel_util.h **** #ifndef TENSORFLOW_LITE_KERNELS_KERNEL_UTIL_H_
  16:C:\Users\a5116938\Desktop\e2_studio_workspace\EEMBC_final\RX65N_Cloud_Kit\src/tensorflow/lite/kernels\kernel_util.h **** #define TENSORFLOW_LITE_KERNELS_KERNEL_UTIL_H_
  17:C:\Users\a5116938\Desktop\e2_studio_workspace\EEMBC_final\RX65N_Cloud_Kit\src/tensorflow/lite/kernels\kernel_util.h **** 
  18:C:\Users\a5116938\Desktop\e2_studio_workspace\EEMBC_final\RX65N_Cloud_Kit\src/tensorflow/lite/kernels\kernel_util.h **** #include <stdint.h>
  19:C:\Users\a5116938\Desktop\e2_studio_workspace\EEMBC_final\RX65N_Cloud_Kit\src/tensorflow/lite/kernels\kernel_util.h **** 
  20:C:\Users\a5116938\Desktop\e2_studio_workspace\EEMBC_final\RX65N_Cloud_Kit\src/tensorflow/lite/kernels\kernel_util.h **** #include <limits>
  21:C:\Users\a5116938\Desktop\e2_studio_workspace\EEMBC_final\RX65N_Cloud_Kit\src/tensorflow/lite/kernels\kernel_util.h **** 
  22:C:\Users\a5116938\Desktop\e2_studio_workspace\EEMBC_final\RX65N_Cloud_Kit\src/tensorflow/lite/kernels\kernel_util.h **** #include "tensorflow/lite/c/builtin_op_data.h"
  23:C:\Users\a5116938\Desktop\e2_studio_workspace\EEMBC_final\RX65N_Cloud_Kit\src/tensorflow/lite/kernels\kernel_util.h **** #include "tensorflow/lite/c/common.h"
  24:C:\Users\a5116938\Desktop\e2_studio_workspace\EEMBC_final\RX65N_Cloud_Kit\src/tensorflow/lite/kernels\kernel_util.h **** 
  25:C:\Users\a5116938\Desktop\e2_studio_workspace\EEMBC_final\RX65N_Cloud_Kit\src/tensorflow/lite/kernels\kernel_util.h **** namespace tflite {
  26:C:\Users\a5116938\Desktop\e2_studio_workspace\EEMBC_final\RX65N_Cloud_Kit\src/tensorflow/lite/kernels\kernel_util.h **** 
  27:C:\Users\a5116938\Desktop\e2_studio_workspace\EEMBC_final\RX65N_Cloud_Kit\src/tensorflow/lite/kernels\kernel_util.h **** // A fair number of functions in this header have historically been inline.
  28:C:\Users\a5116938\Desktop\e2_studio_workspace\EEMBC_final\RX65N_Cloud_Kit\src/tensorflow/lite/kernels\kernel_util.h **** // It is ok to change functions to not be inline if the latency with
  29:C:\Users\a5116938\Desktop\e2_studio_workspace\EEMBC_final\RX65N_Cloud_Kit\src/tensorflow/lite/kernels\kernel_util.h **** // benchmark_model for MobileNet + MobileBERT is unaffected. If such a change is
  30:C:\Users\a5116938\Desktop\e2_studio_workspace\EEMBC_final\RX65N_Cloud_Kit\src/tensorflow/lite/kernels\kernel_util.h **** // made, move the newly non-inlined function declarations to the top of this
  31:C:\Users\a5116938\Desktop\e2_studio_workspace\EEMBC_final\RX65N_Cloud_Kit\src/tensorflow/lite/kernels\kernel_util.h **** // header file.
  32:C:\Users\a5116938\Desktop\e2_studio_workspace\EEMBC_final\RX65N_Cloud_Kit\src/tensorflow/lite/kernels\kernel_util.h **** 
  33:C:\Users\a5116938\Desktop\e2_studio_workspace\EEMBC_final\RX65N_Cloud_Kit\src/tensorflow/lite/kernels\kernel_util.h **** // Note: You must check if result is not null:
  34:C:\Users\a5116938\Desktop\e2_studio_workspace\EEMBC_final\RX65N_Cloud_Kit\src/tensorflow/lite/kernels\kernel_util.h **** //
  35:C:\Users\a5116938\Desktop\e2_studio_workspace\EEMBC_final\RX65N_Cloud_Kit\src/tensorflow/lite/kernels\kernel_util.h **** //   TfLiteTensor* my_tensor = GetInput(context, node, kMyTensorIdx);
  36:C:\Users\a5116938\Desktop\e2_studio_workspace\EEMBC_final\RX65N_Cloud_Kit\src/tensorflow/lite/kernels\kernel_util.h **** //   TF_LITE_ENSURE(context, my_tensor != nullptr);
  37:C:\Users\a5116938\Desktop\e2_studio_workspace\EEMBC_final\RX65N_Cloud_Kit\src/tensorflow/lite/kernels\kernel_util.h **** //
  38:C:\Users\a5116938\Desktop\e2_studio_workspace\EEMBC_final\RX65N_Cloud_Kit\src/tensorflow/lite/kernels\kernel_util.h **** // This is because the index might point to the optional tensor constant
  39:C:\Users\a5116938\Desktop\e2_studio_workspace\EEMBC_final\RX65N_Cloud_Kit\src/tensorflow/lite/kernels\kernel_util.h **** // (kTfLiteOptionalTensor) in which case there is no tensor to return.
  40:C:\Users\a5116938\Desktop\e2_studio_workspace\EEMBC_final\RX65N_Cloud_Kit\src/tensorflow/lite/kernels\kernel_util.h **** const TfLiteTensor* GetInput(const TfLiteContext* context,
  41:C:\Users\a5116938\Desktop\e2_studio_workspace\EEMBC_final\RX65N_Cloud_Kit\src/tensorflow/lite/kernels\kernel_util.h ****                              const TfLiteNode* node, int index);
  42:C:\Users\a5116938\Desktop\e2_studio_workspace\EEMBC_final\RX65N_Cloud_Kit\src/tensorflow/lite/kernels\kernel_util.h **** 
  43:C:\Users\a5116938\Desktop\e2_studio_workspace\EEMBC_final\RX65N_Cloud_Kit\src/tensorflow/lite/kernels\kernel_util.h **** // Same as `GetInput` but returns boolean and uses output argument for tensor.
  44:C:\Users\a5116938\Desktop\e2_studio_workspace\EEMBC_final\RX65N_Cloud_Kit\src/tensorflow/lite/kernels\kernel_util.h **** //
  45:C:\Users\a5116938\Desktop\e2_studio_workspace\EEMBC_final\RX65N_Cloud_Kit\src/tensorflow/lite/kernels\kernel_util.h **** //   TfLiteTensor* my_tensor;
  46:C:\Users\a5116938\Desktop\e2_studio_workspace\EEMBC_final\RX65N_Cloud_Kit\src/tensorflow/lite/kernels\kernel_util.h **** //   TF_LITE_ENSURE_OK(context,
  47:C:\Users\a5116938\Desktop\e2_studio_workspace\EEMBC_final\RX65N_Cloud_Kit\src/tensorflow/lite/kernels\kernel_util.h **** //                     GetInputSafe(context, node, kMyTensorIdx, &my_tensor));
  48:C:\Users\a5116938\Desktop\e2_studio_workspace\EEMBC_final\RX65N_Cloud_Kit\src/tensorflow/lite/kernels\kernel_util.h **** //   // can use my_tensor directly from here onwards, it is not nullptr
  49:C:\Users\a5116938\Desktop\e2_studio_workspace\EEMBC_final\RX65N_Cloud_Kit\src/tensorflow/lite/kernels\kernel_util.h **** //
  50:C:\Users\a5116938\Desktop\e2_studio_workspace\EEMBC_final\RX65N_Cloud_Kit\src/tensorflow/lite/kernels\kernel_util.h **** // Should be used in cases where the binary size is too large.
  51:C:\Users\a5116938\Desktop\e2_studio_workspace\EEMBC_final\RX65N_Cloud_Kit\src/tensorflow/lite/kernels\kernel_util.h **** TfLiteStatus GetInputSafe(const TfLiteContext* context, const TfLiteNode* node,
  52:C:\Users\a5116938\Desktop\e2_studio_workspace\EEMBC_final\RX65N_Cloud_Kit\src/tensorflow/lite/kernels\kernel_util.h ****                           int index, const TfLiteTensor** tensor);
  53:C:\Users\a5116938\Desktop\e2_studio_workspace\EEMBC_final\RX65N_Cloud_Kit\src/tensorflow/lite/kernels\kernel_util.h **** 
  54:C:\Users\a5116938\Desktop\e2_studio_workspace\EEMBC_final\RX65N_Cloud_Kit\src/tensorflow/lite/kernels\kernel_util.h **** // Note: You must check if result is not null:
  55:C:\Users\a5116938\Desktop\e2_studio_workspace\EEMBC_final\RX65N_Cloud_Kit\src/tensorflow/lite/kernels\kernel_util.h **** //
  56:C:\Users\a5116938\Desktop\e2_studio_workspace\EEMBC_final\RX65N_Cloud_Kit\src/tensorflow/lite/kernels\kernel_util.h **** //   TfLiteTensor* my_tensor = GetVariableInput(context, node, kMyTensorIdx);
  57:C:\Users\a5116938\Desktop\e2_studio_workspace\EEMBC_final\RX65N_Cloud_Kit\src/tensorflow/lite/kernels\kernel_util.h **** //   TF_LITE_ENSURE(context, my_tensor != nullptr);
  58:C:\Users\a5116938\Desktop\e2_studio_workspace\EEMBC_final\RX65N_Cloud_Kit\src/tensorflow/lite/kernels\kernel_util.h **** //
  59:C:\Users\a5116938\Desktop\e2_studio_workspace\EEMBC_final\RX65N_Cloud_Kit\src/tensorflow/lite/kernels\kernel_util.h **** // This is because the index might point to the optional tensor constant
  60:C:\Users\a5116938\Desktop\e2_studio_workspace\EEMBC_final\RX65N_Cloud_Kit\src/tensorflow/lite/kernels\kernel_util.h **** // (kTfLiteOptionalTensor) in which case there is no tensor to return.
  61:C:\Users\a5116938\Desktop\e2_studio_workspace\EEMBC_final\RX65N_Cloud_Kit\src/tensorflow/lite/kernels\kernel_util.h **** TfLiteTensor* GetVariableInput(TfLiteContext* context, const TfLiteNode* node,
  62:C:\Users\a5116938\Desktop\e2_studio_workspace\EEMBC_final\RX65N_Cloud_Kit\src/tensorflow/lite/kernels\kernel_util.h ****                                int index);
  63:C:\Users\a5116938\Desktop\e2_studio_workspace\EEMBC_final\RX65N_Cloud_Kit\src/tensorflow/lite/kernels\kernel_util.h **** 
  64:C:\Users\a5116938\Desktop\e2_studio_workspace\EEMBC_final\RX65N_Cloud_Kit\src/tensorflow/lite/kernels\kernel_util.h **** // Note: You must check if result is not null:
  65:C:\Users\a5116938\Desktop\e2_studio_workspace\EEMBC_final\RX65N_Cloud_Kit\src/tensorflow/lite/kernels\kernel_util.h **** //
  66:C:\Users\a5116938\Desktop\e2_studio_workspace\EEMBC_final\RX65N_Cloud_Kit\src/tensorflow/lite/kernels\kernel_util.h **** //   TfLiteTensor* my_tensor = GetOutput(context, node, kMyTensorIdx);
  67:C:\Users\a5116938\Desktop\e2_studio_workspace\EEMBC_final\RX65N_Cloud_Kit\src/tensorflow/lite/kernels\kernel_util.h **** //   TF_LITE_ENSURE(context, my_tensor != nullptr);
  68:C:\Users\a5116938\Desktop\e2_studio_workspace\EEMBC_final\RX65N_Cloud_Kit\src/tensorflow/lite/kernels\kernel_util.h **** //
  69:C:\Users\a5116938\Desktop\e2_studio_workspace\EEMBC_final\RX65N_Cloud_Kit\src/tensorflow/lite/kernels\kernel_util.h **** // This is because the index might point to the optional tensor constant
  70:C:\Users\a5116938\Desktop\e2_studio_workspace\EEMBC_final\RX65N_Cloud_Kit\src/tensorflow/lite/kernels\kernel_util.h **** // (kTfLiteOptionalTensor) in which case there is no tensor to return.
  71:C:\Users\a5116938\Desktop\e2_studio_workspace\EEMBC_final\RX65N_Cloud_Kit\src/tensorflow/lite/kernels\kernel_util.h **** TfLiteTensor* GetOutput(TfLiteContext* context, const TfLiteNode* node,
  72:C:\Users\a5116938\Desktop\e2_studio_workspace\EEMBC_final\RX65N_Cloud_Kit\src/tensorflow/lite/kernels\kernel_util.h ****                         int index);
  73:C:\Users\a5116938\Desktop\e2_studio_workspace\EEMBC_final\RX65N_Cloud_Kit\src/tensorflow/lite/kernels\kernel_util.h **** 
  74:C:\Users\a5116938\Desktop\e2_studio_workspace\EEMBC_final\RX65N_Cloud_Kit\src/tensorflow/lite/kernels\kernel_util.h **** // Same as `GetOutput` but returns boolean and uses output argument for tensor.
  75:C:\Users\a5116938\Desktop\e2_studio_workspace\EEMBC_final\RX65N_Cloud_Kit\src/tensorflow/lite/kernels\kernel_util.h **** //
  76:C:\Users\a5116938\Desktop\e2_studio_workspace\EEMBC_final\RX65N_Cloud_Kit\src/tensorflow/lite/kernels\kernel_util.h **** //   TfLiteTensor* my_tensor;
  77:C:\Users\a5116938\Desktop\e2_studio_workspace\EEMBC_final\RX65N_Cloud_Kit\src/tensorflow/lite/kernels\kernel_util.h **** //   TF_LITE_ENSURE_OK(context,
  78:C:\Users\a5116938\Desktop\e2_studio_workspace\EEMBC_final\RX65N_Cloud_Kit\src/tensorflow/lite/kernels\kernel_util.h **** //                     GetOutputSafe(context, node, kMyTensorIdx, &my_tensor));
  79:C:\Users\a5116938\Desktop\e2_studio_workspace\EEMBC_final\RX65N_Cloud_Kit\src/tensorflow/lite/kernels\kernel_util.h **** //   // can use my_tensor directly from here onwards, it is not nullptr
  80:C:\Users\a5116938\Desktop\e2_studio_workspace\EEMBC_final\RX65N_Cloud_Kit\src/tensorflow/lite/kernels\kernel_util.h **** //
  81:C:\Users\a5116938\Desktop\e2_studio_workspace\EEMBC_final\RX65N_Cloud_Kit\src/tensorflow/lite/kernels\kernel_util.h **** // Should be used in cases where the binary size is too large.
  82:C:\Users\a5116938\Desktop\e2_studio_workspace\EEMBC_final\RX65N_Cloud_Kit\src/tensorflow/lite/kernels\kernel_util.h **** TfLiteStatus GetOutputSafe(const TfLiteContext* context, const TfLiteNode* node,
  83:C:\Users\a5116938\Desktop\e2_studio_workspace\EEMBC_final\RX65N_Cloud_Kit\src/tensorflow/lite/kernels\kernel_util.h ****                            int index, TfLiteTensor** tensor);
  84:C:\Users\a5116938\Desktop\e2_studio_workspace\EEMBC_final\RX65N_Cloud_Kit\src/tensorflow/lite/kernels\kernel_util.h **** 
  85:C:\Users\a5116938\Desktop\e2_studio_workspace\EEMBC_final\RX65N_Cloud_Kit\src/tensorflow/lite/kernels\kernel_util.h **** // Note: You must check if result is not null:
  86:C:\Users\a5116938\Desktop\e2_studio_workspace\EEMBC_final\RX65N_Cloud_Kit\src/tensorflow/lite/kernels\kernel_util.h **** //
  87:C:\Users\a5116938\Desktop\e2_studio_workspace\EEMBC_final\RX65N_Cloud_Kit\src/tensorflow/lite/kernels\kernel_util.h **** //   TfLiteTensor* my_tensor = GetOptionalInputTensor(context, node, kIdx);
  88:C:\Users\a5116938\Desktop\e2_studio_workspace\EEMBC_final\RX65N_Cloud_Kit\src/tensorflow/lite/kernels\kernel_util.h **** //   TF_LITE_ENSURE(context, my_tensor != nullptr);
  89:C:\Users\a5116938\Desktop\e2_studio_workspace\EEMBC_final\RX65N_Cloud_Kit\src/tensorflow/lite/kernels\kernel_util.h **** //
  90:C:\Users\a5116938\Desktop\e2_studio_workspace\EEMBC_final\RX65N_Cloud_Kit\src/tensorflow/lite/kernels\kernel_util.h **** // This is because the index might point to the optional tensor constant
  91:C:\Users\a5116938\Desktop\e2_studio_workspace\EEMBC_final\RX65N_Cloud_Kit\src/tensorflow/lite/kernels\kernel_util.h **** // (kTfLiteOptionalTensor) in which case there is no tensor to return.
  92:C:\Users\a5116938\Desktop\e2_studio_workspace\EEMBC_final\RX65N_Cloud_Kit\src/tensorflow/lite/kernels\kernel_util.h **** //
  93:C:\Users\a5116938\Desktop\e2_studio_workspace\EEMBC_final\RX65N_Cloud_Kit\src/tensorflow/lite/kernels\kernel_util.h **** // Deprecated. GetInput has the same functionality.
  94:C:\Users\a5116938\Desktop\e2_studio_workspace\EEMBC_final\RX65N_Cloud_Kit\src/tensorflow/lite/kernels\kernel_util.h **** const TfLiteTensor* GetOptionalInputTensor(const TfLiteContext* context,
  95:C:\Users\a5116938\Desktop\e2_studio_workspace\EEMBC_final\RX65N_Cloud_Kit\src/tensorflow/lite/kernels\kernel_util.h ****                                            const TfLiteNode* node, int index);
  96:C:\Users\a5116938\Desktop\e2_studio_workspace\EEMBC_final\RX65N_Cloud_Kit\src/tensorflow/lite/kernels\kernel_util.h **** 
  97:C:\Users\a5116938\Desktop\e2_studio_workspace\EEMBC_final\RX65N_Cloud_Kit\src/tensorflow/lite/kernels\kernel_util.h **** #ifndef TF_LITE_STATIC_MEMORY
  98:C:\Users\a5116938\Desktop\e2_studio_workspace\EEMBC_final\RX65N_Cloud_Kit\src/tensorflow/lite/kernels\kernel_util.h **** // Note: You must check if result is not null:
  99:C:\Users\a5116938\Desktop\e2_studio_workspace\EEMBC_final\RX65N_Cloud_Kit\src/tensorflow/lite/kernels\kernel_util.h **** //
 100:C:\Users\a5116938\Desktop\e2_studio_workspace\EEMBC_final\RX65N_Cloud_Kit\src/tensorflow/lite/kernels\kernel_util.h **** //   TfLiteTensor* my_tensor = GetTemporary(context, node, kMyTensorIdx);
 101:C:\Users\a5116938\Desktop\e2_studio_workspace\EEMBC_final\RX65N_Cloud_Kit\src/tensorflow/lite/kernels\kernel_util.h **** //   TF_LITE_ENSURE(context, my_tensor != nullptr);
 102:C:\Users\a5116938\Desktop\e2_studio_workspace\EEMBC_final\RX65N_Cloud_Kit\src/tensorflow/lite/kernels\kernel_util.h **** //
 103:C:\Users\a5116938\Desktop\e2_studio_workspace\EEMBC_final\RX65N_Cloud_Kit\src/tensorflow/lite/kernels\kernel_util.h **** // This is because the index might point to the optional tensor constant
 104:C:\Users\a5116938\Desktop\e2_studio_workspace\EEMBC_final\RX65N_Cloud_Kit\src/tensorflow/lite/kernels\kernel_util.h **** // (kTfLiteOptionalTensor) in which case there is no tensor to return.
 105:C:\Users\a5116938\Desktop\e2_studio_workspace\EEMBC_final\RX65N_Cloud_Kit\src/tensorflow/lite/kernels\kernel_util.h **** TfLiteTensor* GetTemporary(TfLiteContext* context, const TfLiteNode* node,
 106:C:\Users\a5116938\Desktop\e2_studio_workspace\EEMBC_final\RX65N_Cloud_Kit\src/tensorflow/lite/kernels\kernel_util.h ****                            int index);
 107:C:\Users\a5116938\Desktop\e2_studio_workspace\EEMBC_final\RX65N_Cloud_Kit\src/tensorflow/lite/kernels\kernel_util.h **** 
 108:C:\Users\a5116938\Desktop\e2_studio_workspace\EEMBC_final\RX65N_Cloud_Kit\src/tensorflow/lite/kernels\kernel_util.h **** // Same as `GetTemporary` but returns boolean and uses output argument for
 109:C:\Users\a5116938\Desktop\e2_studio_workspace\EEMBC_final\RX65N_Cloud_Kit\src/tensorflow/lite/kernels\kernel_util.h **** // tensor.
 110:C:\Users\a5116938\Desktop\e2_studio_workspace\EEMBC_final\RX65N_Cloud_Kit\src/tensorflow/lite/kernels\kernel_util.h **** //
 111:C:\Users\a5116938\Desktop\e2_studio_workspace\EEMBC_final\RX65N_Cloud_Kit\src/tensorflow/lite/kernels\kernel_util.h **** //   TfLiteTensor* my_tensor;
 112:C:\Users\a5116938\Desktop\e2_studio_workspace\EEMBC_final\RX65N_Cloud_Kit\src/tensorflow/lite/kernels\kernel_util.h **** //   TF_LITE_ENSURE_OK(context,
 113:C:\Users\a5116938\Desktop\e2_studio_workspace\EEMBC_final\RX65N_Cloud_Kit\src/tensorflow/lite/kernels\kernel_util.h **** //                     GetTemporarySafe(context, node, kMyTensorIdx,
 114:C:\Users\a5116938\Desktop\e2_studio_workspace\EEMBC_final\RX65N_Cloud_Kit\src/tensorflow/lite/kernels\kernel_util.h **** //                     &my_tensor));
 115:C:\Users\a5116938\Desktop\e2_studio_workspace\EEMBC_final\RX65N_Cloud_Kit\src/tensorflow/lite/kernels\kernel_util.h **** //   // can use my_tensor directly from here onwards, it is not nullptr
 116:C:\Users\a5116938\Desktop\e2_studio_workspace\EEMBC_final\RX65N_Cloud_Kit\src/tensorflow/lite/kernels\kernel_util.h **** //
 117:C:\Users\a5116938\Desktop\e2_studio_workspace\EEMBC_final\RX65N_Cloud_Kit\src/tensorflow/lite/kernels\kernel_util.h **** // Should be used in cases where the binary size is too large.
 118:C:\Users\a5116938\Desktop\e2_studio_workspace\EEMBC_final\RX65N_Cloud_Kit\src/tensorflow/lite/kernels\kernel_util.h **** TfLiteStatus GetTemporarySafe(const TfLiteContext* context,
 119:C:\Users\a5116938\Desktop\e2_studio_workspace\EEMBC_final\RX65N_Cloud_Kit\src/tensorflow/lite/kernels\kernel_util.h ****                               const TfLiteNode* node, int index,
 120:C:\Users\a5116938\Desktop\e2_studio_workspace\EEMBC_final\RX65N_Cloud_Kit\src/tensorflow/lite/kernels\kernel_util.h ****                               TfLiteTensor** tensor);
 121:C:\Users\a5116938\Desktop\e2_studio_workspace\EEMBC_final\RX65N_Cloud_Kit\src/tensorflow/lite/kernels\kernel_util.h **** 
 122:C:\Users\a5116938\Desktop\e2_studio_workspace\EEMBC_final\RX65N_Cloud_Kit\src/tensorflow/lite/kernels\kernel_util.h **** // Note: You must check if result is not null:
 123:C:\Users\a5116938\Desktop\e2_studio_workspace\EEMBC_final\RX65N_Cloud_Kit\src/tensorflow/lite/kernels\kernel_util.h **** //
 124:C:\Users\a5116938\Desktop\e2_studio_workspace\EEMBC_final\RX65N_Cloud_Kit\src/tensorflow/lite/kernels\kernel_util.h **** //   TfLiteTensor* my_tensor = GetIntermediates(context, node, kMyTensorIdx);
 125:C:\Users\a5116938\Desktop\e2_studio_workspace\EEMBC_final\RX65N_Cloud_Kit\src/tensorflow/lite/kernels\kernel_util.h **** //   TF_LITE_ENSURE(context, my_tensor != nullptr);
 126:C:\Users\a5116938\Desktop\e2_studio_workspace\EEMBC_final\RX65N_Cloud_Kit\src/tensorflow/lite/kernels\kernel_util.h **** //
 127:C:\Users\a5116938\Desktop\e2_studio_workspace\EEMBC_final\RX65N_Cloud_Kit\src/tensorflow/lite/kernels\kernel_util.h **** // This is because the index might point to the optional tensor constant
 128:C:\Users\a5116938\Desktop\e2_studio_workspace\EEMBC_final\RX65N_Cloud_Kit\src/tensorflow/lite/kernels\kernel_util.h **** // (kTfLiteOptionalTensor) in which case there is no tensor to return.
 129:C:\Users\a5116938\Desktop\e2_studio_workspace\EEMBC_final\RX65N_Cloud_Kit\src/tensorflow/lite/kernels\kernel_util.h **** const TfLiteTensor* GetIntermediates(TfLiteContext* context,
 130:C:\Users\a5116938\Desktop\e2_studio_workspace\EEMBC_final\RX65N_Cloud_Kit\src/tensorflow/lite/kernels\kernel_util.h ****                                      const TfLiteNode* node, int index);
 131:C:\Users\a5116938\Desktop\e2_studio_workspace\EEMBC_final\RX65N_Cloud_Kit\src/tensorflow/lite/kernels\kernel_util.h **** 
 132:C:\Users\a5116938\Desktop\e2_studio_workspace\EEMBC_final\RX65N_Cloud_Kit\src/tensorflow/lite/kernels\kernel_util.h **** // Same as `GetIntermediates` but returns boolean and uses output argument for
 133:C:\Users\a5116938\Desktop\e2_studio_workspace\EEMBC_final\RX65N_Cloud_Kit\src/tensorflow/lite/kernels\kernel_util.h **** // tensor.
 134:C:\Users\a5116938\Desktop\e2_studio_workspace\EEMBC_final\RX65N_Cloud_Kit\src/tensorflow/lite/kernels\kernel_util.h **** //
 135:C:\Users\a5116938\Desktop\e2_studio_workspace\EEMBC_final\RX65N_Cloud_Kit\src/tensorflow/lite/kernels\kernel_util.h **** //   TfLiteTensor* my_tensor;
 136:C:\Users\a5116938\Desktop\e2_studio_workspace\EEMBC_final\RX65N_Cloud_Kit\src/tensorflow/lite/kernels\kernel_util.h **** //   TF_LITE_ENSURE_OK(context,
 137:C:\Users\a5116938\Desktop\e2_studio_workspace\EEMBC_final\RX65N_Cloud_Kit\src/tensorflow/lite/kernels\kernel_util.h **** //                     GetIntermediatesSafe(context, node, kMyTensorIdx,
 138:C:\Users\a5116938\Desktop\e2_studio_workspace\EEMBC_final\RX65N_Cloud_Kit\src/tensorflow/lite/kernels\kernel_util.h **** //                     &my_tensor));
 139:C:\Users\a5116938\Desktop\e2_studio_workspace\EEMBC_final\RX65N_Cloud_Kit\src/tensorflow/lite/kernels\kernel_util.h **** //   // can use my_tensor directly from here onwards, it is not nullptr
 140:C:\Users\a5116938\Desktop\e2_studio_workspace\EEMBC_final\RX65N_Cloud_Kit\src/tensorflow/lite/kernels\kernel_util.h **** //
 141:C:\Users\a5116938\Desktop\e2_studio_workspace\EEMBC_final\RX65N_Cloud_Kit\src/tensorflow/lite/kernels\kernel_util.h **** // Should be used in cases where the binary size is too large.
 142:C:\Users\a5116938\Desktop\e2_studio_workspace\EEMBC_final\RX65N_Cloud_Kit\src/tensorflow/lite/kernels\kernel_util.h **** TfLiteStatus GetIntermediatesSafe(const TfLiteContext* context,
 143:C:\Users\a5116938\Desktop\e2_studio_workspace\EEMBC_final\RX65N_Cloud_Kit\src/tensorflow/lite/kernels\kernel_util.h ****                                   const TfLiteNode* node, int index,
 144:C:\Users\a5116938\Desktop\e2_studio_workspace\EEMBC_final\RX65N_Cloud_Kit\src/tensorflow/lite/kernels\kernel_util.h ****                                   TfLiteTensor** tensor);
 145:C:\Users\a5116938\Desktop\e2_studio_workspace\EEMBC_final\RX65N_Cloud_Kit\src/tensorflow/lite/kernels\kernel_util.h **** #endif  // TF_LITE_STATIC_MEMORY
 146:C:\Users\a5116938\Desktop\e2_studio_workspace\EEMBC_final\RX65N_Cloud_Kit\src/tensorflow/lite/kernels\kernel_util.h **** 
 147:C:\Users\a5116938\Desktop\e2_studio_workspace\EEMBC_final\RX65N_Cloud_Kit\src/tensorflow/lite/kernels\kernel_util.h **** inline int NumDimensions(const TfLiteTensor* t) { return t->dims->size; }
 148:C:\Users\a5116938\Desktop\e2_studio_workspace\EEMBC_final\RX65N_Cloud_Kit\src/tensorflow/lite/kernels\kernel_util.h **** inline int SizeOfDimension(const TfLiteTensor* t, int dim) {
 149:C:\Users\a5116938\Desktop\e2_studio_workspace\EEMBC_final\RX65N_Cloud_Kit\src/tensorflow/lite/kernels\kernel_util.h ****   return t->dims->data[dim];
 150:C:\Users\a5116938\Desktop\e2_studio_workspace\EEMBC_final\RX65N_Cloud_Kit\src/tensorflow/lite/kernels\kernel_util.h **** }
 151:C:\Users\a5116938\Desktop\e2_studio_workspace\EEMBC_final\RX65N_Cloud_Kit\src/tensorflow/lite/kernels\kernel_util.h **** 
 152:C:\Users\a5116938\Desktop\e2_studio_workspace\EEMBC_final\RX65N_Cloud_Kit\src/tensorflow/lite/kernels\kernel_util.h **** inline int NumInputs(const TfLiteNode* node) { return node->inputs->size; }
  49                             		.loc 2 152 48
  50                             		.loc 2 152 69 is_stmt 0
  51 0025 EC A7                   		mov.L	[r10], r7
  52 0027 EC 77                   		mov.L	[r7], r7
  53                             	.LBE42:
  54                             	.LBE41:
  55                             		.loc 1 36 3
  56 0029 61 17                   		cmp	#1, r7
  57 002b 20 33                   		beq	.L5
  58                             		.loc 1 36 3 is_stmt 1 discriminator 1
  59                             		.loc 1 36 3 discriminator 1
  60                             	.LVL5:
  61                             		.loc 2 152 48 discriminator 1
  62                             		.loc 1 36 3 is_stmt 0 discriminator 1
  63 002d ED BA 05                		mov.L	20[r11], r10
  64                             	.LVL6:
  65 0030 3E 06 01                		mov.L	#1, 24[r0]
  66 0033 A1 0F                   		mov.L	r7, 20[r0]
  67 0035 F9 02 04 67 00 00 00    		mov.L	#.LC5, 16[r0]
  68 003c F9 02 03 69 00 00 00    		mov.L	#.LC6, 12[r0]
  69 0043 3E 02 24                		mov.L	#36, 8[r0]
  70 0046 F9 02 01 11 00 00 00    		mov.L	#.LC2, 4[r0]
  71 004d EF B1                   		mov.L	r11, r1
  72                             	.LVL7:
  73 004f F8 02 79 00 00 00       		mov.L	#.LC7, [r0]
  74 0055 66 17                   		mov.L	#1, r7
  75 0057 7F 1A                   		jsr	r10
  76                             	.LVL8:
  77                             		.loc 1 36 3 is_stmt 1 discriminator 1
  78                             		.balign 8,3,1
  79                             	.L1:
  37:../src/tensorflow/lite/micro/kernels/ceil.cc ****   TF_LITE_ENSURE_EQ(context, NumOutputs(node), 1);
  38:../src/tensorflow/lite/micro/kernels/ceil.cc ****   TF_LITE_ENSURE_TYPES_EQ(context, input->type, kTfLiteFloat32);
  39:../src/tensorflow/lite/micro/kernels/ceil.cc ****   TF_LITE_ENSURE_TYPES_EQ(context, output->type, input->type);
  40:../src/tensorflow/lite/micro/kernels/ceil.cc ****   TF_LITE_ENSURE_EQ(context, output->bytes, input->bytes);
  41:../src/tensorflow/lite/micro/kernels/ceil.cc ****   TF_LITE_ENSURE_EQ(context, output->dims->size, input->dims->size);
  42:../src/tensorflow/lite/micro/kernels/ceil.cc ****   for (int i = 0; i < output->dims->size; ++i) {
  43:../src/tensorflow/lite/micro/kernels/ceil.cc ****     TF_LITE_ENSURE_EQ(context, output->dims->data[i], input->dims->data[i]);
  44:../src/tensorflow/lite/micro/kernels/ceil.cc ****   }
  45:../src/tensorflow/lite/micro/kernels/ceil.cc ****   return kTfLiteOk;
  46:../src/tensorflow/lite/micro/kernels/ceil.cc **** }
  80                             		.loc 1 46 1 is_stmt 0
  81 0059 EF 71                   		mov.L	r7, r1
  82 005b 3F 6C 0E                		rtsd	#56, r6-r12
  83                             	.LVL9:
  84                             	.L5:
  37:../src/tensorflow/lite/micro/kernels/ceil.cc ****   TF_LITE_ENSURE_EQ(context, NumOutputs(node), 1);
  85                             		.loc 1 37 3 is_stmt 1
  37:../src/tensorflow/lite/micro/kernels/ceil.cc ****   TF_LITE_ENSURE_EQ(context, NumOutputs(node), 1);
  86                             		.loc 1 37 3
  87                             	.LBB43:
  88                             	.LBB44:
 153:C:\Users\a5116938\Desktop\e2_studio_workspace\EEMBC_final\RX65N_Cloud_Kit\src/tensorflow/lite/kernels\kernel_util.h **** inline int NumOutputs(const TfLiteNode* node) { return node->outputs->size; }
  89                             		.loc 2 153 49
  90                             		.loc 2 153 71 is_stmt 0
  91 005e ED AA 01                		mov.L	4[r10], r10
  92                             	.LVL10:
  93 0061 EC AA                   		mov.L	[r10], r10
  94                             	.LBE44:
  95                             	.LBE43:
  37:../src/tensorflow/lite/micro/kernels/ceil.cc ****   TF_LITE_ENSURE_EQ(context, NumOutputs(node), 1);
  96                             		.loc 1 37 3
  97 0063 61 1A                   		cmp	#1, r10
  98 0065 21 78                   		bne	.L21
  38:../src/tensorflow/lite/micro/kernels/ceil.cc ****   TF_LITE_ENSURE_TYPES_EQ(context, output->type, input->type);
  99                             		.loc 1 38 3 is_stmt 1
  38:../src/tensorflow/lite/micro/kernels/ceil.cc ****   TF_LITE_ENSURE_TYPES_EQ(context, output->type, input->type);
 100                             		.loc 1 38 3
 101 0067 EC 65                   		mov.L	[r6], r5
 102 0069 61 15                   		cmp	#1, r5
 103 006b 3B DD 00                		bne	.L22
  39:../src/tensorflow/lite/micro/kernels/ceil.cc ****   TF_LITE_ENSURE_EQ(context, output->bytes, input->bytes);
 104                             		.loc 1 39 3
  39:../src/tensorflow/lite/micro/kernels/ceil.cc ****   TF_LITE_ENSURE_EQ(context, output->bytes, input->bytes);
 105                             		.loc 1 39 3
 106 006e EC 17                   		mov.L	[r1], r7
 107 0070 61 17                   		cmp	#1, r7
 108 0072 3B 13 01                		bne	.L23
  40:../src/tensorflow/lite/micro/kernels/ceil.cc ****   TF_LITE_ENSURE_EQ(context, output->dims->size, input->dims->size);
 109                             		.loc 1 40 3
  40:../src/tensorflow/lite/micro/kernels/ceil.cc ****   TF_LITE_ENSURE_EQ(context, output->dims->size, input->dims->size);
 110                             		.loc 1 40 3
 111 0075 ED 1A 06                		mov.L	24[r1], r10
 112 0078 A9 E5                   		mov.L	24[r6], r5
 113 007a 47 5A                   		cmp	r5, r10
 114 007c 3B 9F 00                		bne	.L24
  41:../src/tensorflow/lite/micro/kernels/ceil.cc ****   for (int i = 0; i < output->dims->size; ++i) {
 115                             		.loc 1 41 3
  41:../src/tensorflow/lite/micro/kernels/ceil.cc ****   for (int i = 0; i < output->dims->size; ++i) {
 116                             		.loc 1 41 3
 117 007f A8 92                   		mov.L	8[r1], r2
 118 0081 A8 E3                   		mov.L	8[r6], r3
 119 0083 EC 21                   		mov.L	[r2], r1
 120                             	.LVL11:
 121 0085 EC 3A                   		mov.L	[r3], r10
 122 0087 47 A1                   		cmp	r10, r1
 123 0089 3A 39 01                		beq	.L10
  41:../src/tensorflow/lite/micro/kernels/ceil.cc ****   for (int i = 0; i < output->dims->size; ++i) {
 124                             		.loc 1 41 3 discriminator 1
  41:../src/tensorflow/lite/micro/kernels/ceil.cc ****   for (int i = 0; i < output->dims->size; ++i) {
 125                             		.loc 1 41 3 discriminator 1
 126 008c ED B5 05                		mov.L	20[r11], r5
 127 008f E7 0A 06                		mov.L	r10, 24[r0]
 128 0092 A1 09                   		mov.L	r1, 20[r0]
 129 0094 F9 02 04 01 01 00 00    		mov.L	#.LC15, 16[r0]
 130 009b F9 02 03 13 01 00 00    		mov.L	#.LC16, 12[r0]
 131 00a2 3E 02 29                		mov.L	#41, 8[r0]
 132 00a5 F9 02 01 11 00 00 00    		mov.L	#.LC2, 4[r0]
 133 00ac EF B1                   		mov.L	r11, r1
 134 00ae F8 02 79 00 00 00       		mov.L	#.LC7, [r0]
 135 00b4 7F 15                   		jsr	r5
 136                             	.LVL12:
  41:../src/tensorflow/lite/micro/kernels/ceil.cc ****   for (int i = 0; i < output->dims->size; ++i) {
 137                             		.loc 1 41 3 discriminator 1
 138 00b6 2E A3                   		bra	.L1
 139                             	.LVL13:
 140                             	.L19:
  33:../src/tensorflow/lite/micro/kernels/ceil.cc ****   TfLiteTensor* output = GetOutput(context, node, kOutputTensor);
 141                             		.loc 1 33 3 discriminator 1
  33:../src/tensorflow/lite/micro/kernels/ceil.cc ****   TfLiteTensor* output = GetOutput(context, node, kOutputTensor);
 142                             		.loc 1 33 3 discriminator 1
 143 00b8 ED BA 05                		mov.L	20[r11], r10
 144                             	.LVL14:
 145 00bb F9 02 03 00 00 00 00    		mov.L	#.LC1, 12[r0]
 146 00c2 3E 02 21                		mov.L	#33, 8[r0]
 147                             	.LVL15:
 148                             	.L17:
  35:../src/tensorflow/lite/micro/kernels/ceil.cc ****   TF_LITE_ENSURE_EQ(context, NumInputs(node), 1);
 149                             		.loc 1 35 3 is_stmt 0 discriminator 1
 150 00c5 F9 02 01 11 00 00 00    		mov.L	#.LC2, 4[r0]
 151 00cc EF B1                   		mov.L	r11, r1
 152 00ce F8 02 3E 00 00 00       		mov.L	#.LC3, [r0]
 153 00d4 66 17                   		mov.L	#1, r7
 154 00d6 7F 1A                   		jsr	r10
 155                             	.LVL16:
  35:../src/tensorflow/lite/micro/kernels/ceil.cc ****   TF_LITE_ENSURE_EQ(context, NumInputs(node), 1);
 156                             		.loc 1 35 3 is_stmt 1 discriminator 1
 157                             		.loc 1 46 1 is_stmt 0 discriminator 1
 158 00d8 EF 71                   		mov.L	r7, r1
 159 00da 3F 6C 0E                		rtsd	#56, r6-r12
 160                             	.LVL17:
 161                             	.L21:
  37:../src/tensorflow/lite/micro/kernels/ceil.cc ****   TF_LITE_ENSURE_TYPES_EQ(context, input->type, kTfLiteFloat32);
 162                             		.loc 1 37 3 is_stmt 1 discriminator 1
  37:../src/tensorflow/lite/micro/kernels/ceil.cc ****   TF_LITE_ENSURE_TYPES_EQ(context, input->type, kTfLiteFloat32);
 163                             		.loc 1 37 3 discriminator 1
 164                             		.loc 2 153 49 discriminator 1
  37:../src/tensorflow/lite/micro/kernels/ceil.cc ****   TF_LITE_ENSURE_TYPES_EQ(context, input->type, kTfLiteFloat32);
 165                             		.loc 1 37 3 is_stmt 0 discriminator 1
 166 00dd ED B5 05                		mov.L	20[r11], r5
 167 00e0 A1 87                   		mov.L	r7, 24[r0]
 168 00e2 E7 0A 05                		mov.L	r10, 20[r0]
 169 00e5 F9 02 04 67 00 00 00    		mov.L	#.LC5, 16[r0]
 170 00ec F9 02 03 93 00 00 00    		mov.L	#.LC8, 12[r0]
 171 00f3 3E 02 25                		mov.L	#37, 8[r0]
 172 00f6 F9 02 01 11 00 00 00    		mov.L	#.LC2, 4[r0]
 173 00fd EF B1                   		mov.L	r11, r1
 174                             	.LVL18:
 175 00ff F8 02 79 00 00 00       		mov.L	#.LC7, [r0]
 176 0105 7F 15                   		jsr	r5
 177                             	.LVL19:
  37:../src/tensorflow/lite/micro/kernels/ceil.cc ****   TF_LITE_ENSURE_TYPES_EQ(context, input->type, kTfLiteFloat32);
 178                             		.loc 1 37 3 is_stmt 1 discriminator 1
 179                             		.loc 1 46 1 is_stmt 0 discriminator 1
 180 0107 EF 71                   		mov.L	r7, r1
 181 0109 3F 6C 0E                		rtsd	#56, r6-r12
 182                             	.LVL20:
 183                             	.L20:
  35:../src/tensorflow/lite/micro/kernels/ceil.cc ****   TF_LITE_ENSURE_EQ(context, NumInputs(node), 1);
 184                             		.loc 1 35 3 is_stmt 1 discriminator 1
  35:../src/tensorflow/lite/micro/kernels/ceil.cc ****   TF_LITE_ENSURE_EQ(context, NumInputs(node), 1);
 185                             		.loc 1 35 3 discriminator 1
 186 010c ED BA 05                		mov.L	20[r11], r10
 187                             	.LVL21:
 188 010f F9 02 03 55 00 00 00    		mov.L	#.LC4, 12[r0]
 189 0116 3E 02 23                		mov.L	#35, 8[r0]
 190 0119 2E AC                   		bra	.L17
 191                             	.LVL22:
 192                             	.L24:
  40:../src/tensorflow/lite/micro/kernels/ceil.cc ****   TF_LITE_ENSURE_EQ(context, output->dims->size, input->dims->size);
 193                             		.loc 1 40 3 discriminator 1
  40:../src/tensorflow/lite/micro/kernels/ceil.cc ****   TF_LITE_ENSURE_EQ(context, output->dims->size, input->dims->size);
 194                             		.loc 1 40 3 discriminator 1
 195 011b ED B4 05                		mov.L	20[r11], r4
 196 011e A1 85                   		mov.L	r5, 24[r0]
 197 0120 E7 0A 05                		mov.L	r10, 20[r0]
 198 0123 F9 02 04 E6 00 00 00    		mov.L	#.LC13, 16[r0]
 199 012a F9 02 03 F3 00 00 00    		mov.L	#.LC14, 12[r0]
 200 0131 3E 02 28                		mov.L	#40, 8[r0]
 201 0134 F9 02 01 11 00 00 00    		mov.L	#.LC2, 4[r0]
 202 013b EF B1                   		mov.L	r11, r1
 203                             	.LVL23:
 204 013d F8 02 79 00 00 00       		mov.L	#.LC7, [r0]
 205 0143 7F 14                   		jsr	r4
 206                             	.LVL24:
  40:../src/tensorflow/lite/micro/kernels/ceil.cc ****   TF_LITE_ENSURE_EQ(context, output->dims->size, input->dims->size);
 207                             		.loc 1 40 3 discriminator 1
 208 0145 38 14 FF                		bra	.L1
 209                             	.LVL25:
 210                             	.L22:
  38:../src/tensorflow/lite/micro/kernels/ceil.cc ****   TF_LITE_ENSURE_TYPES_EQ(context, output->type, input->type);
 211                             		.loc 1 38 3 discriminator 1
  38:../src/tensorflow/lite/micro/kernels/ceil.cc ****   TF_LITE_ENSURE_TYPES_EQ(context, output->type, input->type);
 212                             		.loc 1 38 3 discriminator 1
 213 0148 EF 51                   		mov.L	r5, r1
 214                             	.LVL26:
 215 014a ED B6 05                		mov.L	20[r11], r6
 216                             	.LVL27:
 217 014d EF A7                   		mov.L	r10, r7
 218 014f 05 00 00 00             		bsr	_TfLiteTypeGetName
 219                             	.LVL28:
 220 0153 EF 1C                   		mov.L	r1, r12
 221 0155 EF A1                   		mov.L	r10, r1
 222 0157 05 00 00 00             		bsr	_TfLiteTypeGetName
 223                             	.LVL29:
 224 015b A1 81                   		mov.L	r1, 24[r0]
 225 015d E7 0C 05                		mov.L	r12, 20[r0]
 226 0160 F9 02 04 A4 00 00 00    		mov.L	#.LC9, 16[r0]
 227 0167 F9 02 03 B3 00 00 00    		mov.L	#.LC10, 12[r0]
 228 016e 3E 02 26                		mov.L	#38, 8[r0]
 229 0171 F9 02 01 11 00 00 00    		mov.L	#.LC2, 4[r0]
 230 0178 EF B1                   		mov.L	r11, r1
 231 017a F8 02 BF 00 00 00       		mov.L	#.LC11, [r0]
 232 0180 7F 16                   		jsr	r6
 233                             	.LVL30:
  38:../src/tensorflow/lite/micro/kernels/ceil.cc ****   TF_LITE_ENSURE_TYPES_EQ(context, output->type, input->type);
 234                             		.loc 1 38 3 discriminator 1
 235 0182 38 D7 FE                		bra	.L1
 236                             	.LVL31:
 237                             	.L23:
  39:../src/tensorflow/lite/micro/kernels/ceil.cc ****   TF_LITE_ENSURE_EQ(context, output->bytes, input->bytes);
 238                             		.loc 1 39 3 discriminator 1
  39:../src/tensorflow/lite/micro/kernels/ceil.cc ****   TF_LITE_ENSURE_EQ(context, output->bytes, input->bytes);
 239                             		.loc 1 39 3 discriminator 1
 240 0185 EF 71                   		mov.L	r7, r1
 241                             	.LVL32:
 242 0187 ED BA 05                		mov.L	20[r11], r10
 243 018a EF 57                   		mov.L	r5, r7
 244 018c 05 00 00 00             		bsr	_TfLiteTypeGetName
 245                             	.LVL33:
 246 0190 EF 1C                   		mov.L	r1, r12
 247 0192 EC 61                   		mov.L	[r6], r1
 248 0194 05 00 00 00             		bsr	_TfLiteTypeGetName
 249                             	.LVL34:
 250 0198 A1 81                   		mov.L	r1, 24[r0]
 251 019a E7 0C 05                		mov.L	r12, 20[r0]
 252 019d F9 02 04 B3 00 00 00    		mov.L	#.LC10, 16[r0]
 253 01a4 F9 02 03 D9 00 00 00    		mov.L	#.LC12, 12[r0]
 254 01ab 3E 02 27                		mov.L	#39, 8[r0]
 255 01ae F9 02 01 11 00 00 00    		mov.L	#.LC2, 4[r0]
 256 01b5 EF B1                   		mov.L	r11, r1
 257 01b7 F8 02 BF 00 00 00       		mov.L	#.LC11, [r0]
 258 01bd 7F 1A                   		jsr	r10
 259                             	.LVL35:
  39:../src/tensorflow/lite/micro/kernels/ceil.cc ****   TF_LITE_ENSURE_EQ(context, output->bytes, input->bytes);
 260                             		.loc 1 39 3 discriminator 1
 261 01bf 38 9A FE                		bra	.L1
 262                             	.L10:
 263                             	.LVL36:
 264                             	.LBB45:
  42:../src/tensorflow/lite/micro/kernels/ceil.cc ****     TF_LITE_ENSURE_EQ(context, output->dims->data[i], input->dims->data[i]);
 265                             		.loc 1 42 21 is_stmt 0
 266 01c2 61 01                   		cmp	#0, r1
 267 01c4 2B 22                   		ble	.L14
  43:../src/tensorflow/lite/micro/kernels/ceil.cc ****   }
 268                             		.loc 1 43 5 is_stmt 1
  43:../src/tensorflow/lite/micro/kernels/ceil.cc ****   }
 269                             		.loc 1 43 5
 270 01c6 A8 2D                   		mov.L	4[r2], r5
 271 01c8 A8 3C                   		mov.L	4[r3], r4
 272 01ca 47 45                   		cmp	r4, r5
 273 01cc 21 1F                   		bne	.L11
  42:../src/tensorflow/lite/micro/kernels/ceil.cc ****     TF_LITE_ENSURE_EQ(context, output->dims->data[i], input->dims->data[i]);
 274                             		.loc 1 42 12 is_stmt 0
 275 01ce 66 0A                   		mov.L	#0, r10
  43:../src/tensorflow/lite/micro/kernels/ceil.cc ****   }
 276                             		.loc 1 43 5
 277 01d0 62 42                   		add	#4, r2
 278 01d2 62 43                   		add	#4, r3
 279 01d4 2E 0C                   		bra	.L12
 280                             	.LVL37:
 281                             	.L13:
 282 01d6 FE 6A 25                		mov.L	[r10,r2], r5
 283 01d9 FE 6A 34                		mov.L	[r10,r3], r4
 284 01dc 47 45                   		cmp	r4, r5
 285 01de 21 0D                   		bne	.L11
 286                             	.LVL38:
 287                             		.balign 8,3,1
 288                             	.L12:
  43:../src/tensorflow/lite/micro/kernels/ceil.cc ****   }
 289                             		.loc 1 43 5 is_stmt 1 discriminator 2
  43:../src/tensorflow/lite/micro/kernels/ceil.cc ****   }
 290                             		.loc 1 43 5 discriminator 2
  42:../src/tensorflow/lite/micro/kernels/ceil.cc ****     TF_LITE_ENSURE_EQ(context, output->dims->data[i], input->dims->data[i]);
 291                             		.loc 1 42 3 is_stmt 0 discriminator 2
 292 01e0 62 1A                   		add	#1, r10
 293                             	.LVL39:
  42:../src/tensorflow/lite/micro/kernels/ceil.cc ****     TF_LITE_ENSURE_EQ(context, output->dims->data[i], input->dims->data[i]);
 294                             		.loc 1 42 21 discriminator 2
 295 01e2 47 A1                   		cmp	r10, r1
 296 01e4 21 F2                   		bne	.L13
 297                             	.LVL40:
 298                             		.balign 8,3,1
 299                             	.L14:
 300                             	.LBE45:
  45:../src/tensorflow/lite/micro/kernels/ceil.cc **** }
 301                             		.loc 1 45 10
 302 01e6 66 07                   		mov.L	#0, r7
 303 01e8 38 71 FE                		bra	.L1
 304                             	.L11:
 305                             	.LBB46:
  43:../src/tensorflow/lite/micro/kernels/ceil.cc ****   }
 306                             		.loc 1 43 5 is_stmt 1 discriminator 1
  43:../src/tensorflow/lite/micro/kernels/ceil.cc ****   }
 307                             		.loc 1 43 5 discriminator 1
 308 01eb ED BA 05                		mov.L	20[r11], r10
 309 01ee A1 84                   		mov.L	r4, 24[r0]
 310 01f0 A1 0D                   		mov.L	r5, 20[r0]
 311 01f2 F9 02 04 26 01 00 00    		mov.L	#.LC17, 16[r0]
 312 01f9 F9 02 03 3B 01 00 00    		mov.L	#.LC18, 12[r0]
 313 0200 3E 02 2B                		mov.L	#43, 8[r0]
 314 0203 F9 02 01 11 00 00 00    		mov.L	#.LC2, 4[r0]
 315 020a EF B1                   		mov.L	r11, r1
 316 020c F8 02 79 00 00 00       		mov.L	#.LC7, [r0]
 317 0212 7F 1A                   		jsr	r10
 318                             	.LVL41:
  43:../src/tensorflow/lite/micro/kernels/ceil.cc ****   }
 319                             		.loc 1 43 5 discriminator 1
 320 0214 38 45 FE                		bra	.L1
 321                             	.LBE46:
 322                             	.LFE1192:
 324 0217 03                      		.section	.text._ZN6tflite3ops5micro4ceil4EvalEP13TfLiteContextP10TfLiteNode,"ax",@progbits
 325                             		.global	__ZN6tflite3ops5micro4ceil4EvalEP13TfLiteContextP10TfLiteNode
 327                             	__ZN6tflite3ops5micro4ceil4EvalEP13TfLiteContextP10TfLiteNode:
 328                             	.LFB1193:
  47:../src/tensorflow/lite/micro/kernels/ceil.cc **** 
  48:../src/tensorflow/lite/micro/kernels/ceil.cc **** TfLiteStatus Eval(TfLiteContext* context, TfLiteNode* node) {
 329                             		.loc 1 48 61
 330                             	.LVL42:
 331 0000 6E 6C                   		pushm	r6-r12
 332                             	.LCFI2:
 333 0002 71 00 D0                		add	#-48, r0
 334                             	.LCFI3:
  49:../src/tensorflow/lite/micro/kernels/ceil.cc ****   const TfLiteEvalTensor* input =
 335                             		.loc 1 49 3
 336                             	.LVL43:
 337                             		.file 3 "C:\\Users\\a5116938\\Desktop\\e2_studio_workspace\\EEMBC_final\\RX65N_Cloud_Kit\\src/tens
   1:C:\Users\a5116938\Desktop\e2_studio_workspace\EEMBC_final\RX65N_Cloud_Kit\src/tensorflow/lite/micro/kernels\kernel_util.h **** /* Copyright 2020 The TensorFlow Authors. All Rights Reserved.
   2:C:\Users\a5116938\Desktop\e2_studio_workspace\EEMBC_final\RX65N_Cloud_Kit\src/tensorflow/lite/micro/kernels\kernel_util.h **** 
   3:C:\Users\a5116938\Desktop\e2_studio_workspace\EEMBC_final\RX65N_Cloud_Kit\src/tensorflow/lite/micro/kernels\kernel_util.h **** Licensed under the Apache License, Version 2.0 (the "License");
   4:C:\Users\a5116938\Desktop\e2_studio_workspace\EEMBC_final\RX65N_Cloud_Kit\src/tensorflow/lite/micro/kernels\kernel_util.h **** you may not use this file except in compliance with the License.
   5:C:\Users\a5116938\Desktop\e2_studio_workspace\EEMBC_final\RX65N_Cloud_Kit\src/tensorflow/lite/micro/kernels\kernel_util.h **** You may obtain a copy of the License at
   6:C:\Users\a5116938\Desktop\e2_studio_workspace\EEMBC_final\RX65N_Cloud_Kit\src/tensorflow/lite/micro/kernels\kernel_util.h **** 
   7:C:\Users\a5116938\Desktop\e2_studio_workspace\EEMBC_final\RX65N_Cloud_Kit\src/tensorflow/lite/micro/kernels\kernel_util.h ****     http://www.apache.org/licenses/LICENSE-2.0
   8:C:\Users\a5116938\Desktop\e2_studio_workspace\EEMBC_final\RX65N_Cloud_Kit\src/tensorflow/lite/micro/kernels\kernel_util.h **** 
   9:C:\Users\a5116938\Desktop\e2_studio_workspace\EEMBC_final\RX65N_Cloud_Kit\src/tensorflow/lite/micro/kernels\kernel_util.h **** Unless required by applicable law or agreed to in writing, software
  10:C:\Users\a5116938\Desktop\e2_studio_workspace\EEMBC_final\RX65N_Cloud_Kit\src/tensorflow/lite/micro/kernels\kernel_util.h **** distributed under the License is distributed on an "AS IS" BASIS,
  11:C:\Users\a5116938\Desktop\e2_studio_workspace\EEMBC_final\RX65N_Cloud_Kit\src/tensorflow/lite/micro/kernels\kernel_util.h **** WITHOUT WARRANTIES OR CONDITIONS OF ANY KIND, either express or implied.
  12:C:\Users\a5116938\Desktop\e2_studio_workspace\EEMBC_final\RX65N_Cloud_Kit\src/tensorflow/lite/micro/kernels\kernel_util.h **** See the License for the specific language governing permissions and
  13:C:\Users\a5116938\Desktop\e2_studio_workspace\EEMBC_final\RX65N_Cloud_Kit\src/tensorflow/lite/micro/kernels\kernel_util.h **** limitations under the License.
  14:C:\Users\a5116938\Desktop\e2_studio_workspace\EEMBC_final\RX65N_Cloud_Kit\src/tensorflow/lite/micro/kernels\kernel_util.h **** ==============================================================================*/
  15:C:\Users\a5116938\Desktop\e2_studio_workspace\EEMBC_final\RX65N_Cloud_Kit\src/tensorflow/lite/micro/kernels\kernel_util.h **** 
  16:C:\Users\a5116938\Desktop\e2_studio_workspace\EEMBC_final\RX65N_Cloud_Kit\src/tensorflow/lite/micro/kernels\kernel_util.h **** #ifndef TENSORFLOW_LITE_MICRO_KERNELS_KERNEL_UTIL_H_
  17:C:\Users\a5116938\Desktop\e2_studio_workspace\EEMBC_final\RX65N_Cloud_Kit\src/tensorflow/lite/micro/kernels\kernel_util.h **** #define TENSORFLOW_LITE_MICRO_KERNELS_KERNEL_UTIL_H_
  18:C:\Users\a5116938\Desktop\e2_studio_workspace\EEMBC_final\RX65N_Cloud_Kit\src/tensorflow/lite/micro/kernels\kernel_util.h **** 
  19:C:\Users\a5116938\Desktop\e2_studio_workspace\EEMBC_final\RX65N_Cloud_Kit\src/tensorflow/lite/micro/kernels\kernel_util.h **** #include <cstdint>
  20:C:\Users\a5116938\Desktop\e2_studio_workspace\EEMBC_final\RX65N_Cloud_Kit\src/tensorflow/lite/micro/kernels\kernel_util.h **** 
  21:C:\Users\a5116938\Desktop\e2_studio_workspace\EEMBC_final\RX65N_Cloud_Kit\src/tensorflow/lite/micro/kernels\kernel_util.h **** #include "tensorflow/lite/c/common.h"
  22:C:\Users\a5116938\Desktop\e2_studio_workspace\EEMBC_final\RX65N_Cloud_Kit\src/tensorflow/lite/micro/kernels\kernel_util.h **** #include "tensorflow/lite/kernels/internal/compatibility.h"
  23:C:\Users\a5116938\Desktop\e2_studio_workspace\EEMBC_final\RX65N_Cloud_Kit\src/tensorflow/lite/micro/kernels\kernel_util.h **** #include "tensorflow/lite/kernels/internal/types.h"
  24:C:\Users\a5116938\Desktop\e2_studio_workspace\EEMBC_final\RX65N_Cloud_Kit\src/tensorflow/lite/micro/kernels\kernel_util.h **** 
  25:C:\Users\a5116938\Desktop\e2_studio_workspace\EEMBC_final\RX65N_Cloud_Kit\src/tensorflow/lite/micro/kernels\kernel_util.h **** namespace tflite {
  26:C:\Users\a5116938\Desktop\e2_studio_workspace\EEMBC_final\RX65N_Cloud_Kit\src/tensorflow/lite/micro/kernels\kernel_util.h **** namespace micro {
  27:C:\Users\a5116938\Desktop\e2_studio_workspace\EEMBC_final\RX65N_Cloud_Kit\src/tensorflow/lite/micro/kernels\kernel_util.h **** 
  28:C:\Users\a5116938\Desktop\e2_studio_workspace\EEMBC_final\RX65N_Cloud_Kit\src/tensorflow/lite/micro/kernels\kernel_util.h **** // Returns a mutable tensor for a given input index. is_variable must be checked
  29:C:\Users\a5116938\Desktop\e2_studio_workspace\EEMBC_final\RX65N_Cloud_Kit\src/tensorflow/lite/micro/kernels\kernel_util.h **** // during prepare when the full TfLiteTensor is available.
  30:C:\Users\a5116938\Desktop\e2_studio_workspace\EEMBC_final\RX65N_Cloud_Kit\src/tensorflow/lite/micro/kernels\kernel_util.h **** inline TfLiteEvalTensor* GetMutableEvalInput(const TfLiteContext* context,
  31:C:\Users\a5116938\Desktop\e2_studio_workspace\EEMBC_final\RX65N_Cloud_Kit\src/tensorflow/lite/micro/kernels\kernel_util.h ****                                              const TfLiteNode* node,
  32:C:\Users\a5116938\Desktop\e2_studio_workspace\EEMBC_final\RX65N_Cloud_Kit\src/tensorflow/lite/micro/kernels\kernel_util.h ****                                              int index) {
  33:C:\Users\a5116938\Desktop\e2_studio_workspace\EEMBC_final\RX65N_Cloud_Kit\src/tensorflow/lite/micro/kernels\kernel_util.h ****   TFLITE_DCHECK(context != nullptr);
  34:C:\Users\a5116938\Desktop\e2_studio_workspace\EEMBC_final\RX65N_Cloud_Kit\src/tensorflow/lite/micro/kernels\kernel_util.h ****   TFLITE_DCHECK(node != nullptr);
  35:C:\Users\a5116938\Desktop\e2_studio_workspace\EEMBC_final\RX65N_Cloud_Kit\src/tensorflow/lite/micro/kernels\kernel_util.h ****   return context->GetEvalTensor(context, node->inputs->data[index]);
  36:C:\Users\a5116938\Desktop\e2_studio_workspace\EEMBC_final\RX65N_Cloud_Kit\src/tensorflow/lite/micro/kernels\kernel_util.h **** }
  37:C:\Users\a5116938\Desktop\e2_studio_workspace\EEMBC_final\RX65N_Cloud_Kit\src/tensorflow/lite/micro/kernels\kernel_util.h **** 
  38:C:\Users\a5116938\Desktop\e2_studio_workspace\EEMBC_final\RX65N_Cloud_Kit\src/tensorflow/lite/micro/kernels\kernel_util.h **** // Returns the TfLiteEvalTensor struct for a given input index in a node.
  39:C:\Users\a5116938\Desktop\e2_studio_workspace\EEMBC_final\RX65N_Cloud_Kit\src/tensorflow/lite/micro/kernels\kernel_util.h **** inline const TfLiteEvalTensor* GetEvalInput(const TfLiteContext* context,
  40:C:\Users\a5116938\Desktop\e2_studio_workspace\EEMBC_final\RX65N_Cloud_Kit\src/tensorflow/lite/micro/kernels\kernel_util.h ****                                             const TfLiteNode* node, int index) {
  41:C:\Users\a5116938\Desktop\e2_studio_workspace\EEMBC_final\RX65N_Cloud_Kit\src/tensorflow/lite/micro/kernels\kernel_util.h ****   return GetMutableEvalInput(context, node, index);
 338                             		.loc 3 41 3
 339                             	.LBB78:
 340                             	.LBB79:
 341                             	.LBB80:
  33:C:\Users\a5116938\Desktop\e2_studio_workspace\EEMBC_final\RX65N_Cloud_Kit\src/tensorflow/lite/micro/kernels\kernel_util.h ****   TFLITE_DCHECK(node != nullptr);
 342                             		.loc 3 33 3
 343 0005 61 01                   		cmp	#0, r1
 344 0007 3A 31 01                		beq	.L27
  34:C:\Users\a5116938\Desktop\e2_studio_workspace\EEMBC_final\RX65N_Cloud_Kit\src/tensorflow/lite/micro/kernels\kernel_util.h ****   return context->GetEvalTensor(context, node->inputs->data[index]);
 345                             		.loc 3 34 3 is_stmt 0
 346 000a 71 2A 00                		add	#0, r2, r10
 347 000d 3A 2B 01                		beq	.L27
 348 0010 EF 17                   		mov.L	r1, r7
  35:C:\Users\a5116938\Desktop\e2_studio_workspace\EEMBC_final\RX65N_Cloud_Kit\src/tensorflow/lite/micro/kernels\kernel_util.h **** }
 349                             		.loc 3 35 3 is_stmt 1
  35:C:\Users\a5116938\Desktop\e2_studio_workspace\EEMBC_final\RX65N_Cloud_Kit\src/tensorflow/lite/micro/kernels\kernel_util.h **** }
 350                             		.loc 3 35 32 is_stmt 0
 351 0012 EC A4                   		mov.L	[r10], r4
 352 0014 AD 1D                   		mov.L	84[r1], r5
 353 0016 A8 4A                   		mov.L	4[r4], r2
 354                             	.LVL44:
 355 0018 7F 15                   		jsr	r5
 356                             	.LVL45:
 357 001a EF 16                   		mov.L	r1, r6
 358                             	.LVL46:
 359                             	.LBE80:
 360                             	.LBE79:
 361                             	.LBE78:
  50:../src/tensorflow/lite/micro/kernels/ceil.cc ****       tflite::micro::GetEvalInput(context, node, kInputTensor);
  51:../src/tensorflow/lite/micro/kernels/ceil.cc ****   TfLiteEvalTensor* output =
 362                             		.loc 1 51 3 is_stmt 1
 363                             	.LBB83:
 364                             	.LBB84:
  42:C:\Users\a5116938\Desktop\e2_studio_workspace\EEMBC_final\RX65N_Cloud_Kit\src/tensorflow/lite/micro/kernels\kernel_util.h **** }
  43:C:\Users\a5116938\Desktop\e2_studio_workspace\EEMBC_final\RX65N_Cloud_Kit\src/tensorflow/lite/micro/kernels\kernel_util.h **** 
  44:C:\Users\a5116938\Desktop\e2_studio_workspace\EEMBC_final\RX65N_Cloud_Kit\src/tensorflow/lite/micro/kernels\kernel_util.h **** // Returns the TfLiteEvalTensor struct for a given output index in a node.
  45:C:\Users\a5116938\Desktop\e2_studio_workspace\EEMBC_final\RX65N_Cloud_Kit\src/tensorflow/lite/micro/kernels\kernel_util.h **** inline TfLiteEvalTensor* GetEvalOutput(const TfLiteContext* context,
  46:C:\Users\a5116938\Desktop\e2_studio_workspace\EEMBC_final\RX65N_Cloud_Kit\src/tensorflow/lite/micro/kernels\kernel_util.h ****                                        const TfLiteNode* node, int index) {
  47:C:\Users\a5116938\Desktop\e2_studio_workspace\EEMBC_final\RX65N_Cloud_Kit\src/tensorflow/lite/micro/kernels\kernel_util.h ****   TFLITE_DCHECK(context != nullptr);
 365                             		.loc 3 47 3
  48:C:\Users\a5116938\Desktop\e2_studio_workspace\EEMBC_final\RX65N_Cloud_Kit\src/tensorflow/lite/micro/kernels\kernel_util.h ****   TFLITE_DCHECK(node != nullptr);
 366                             		.loc 3 48 3
  49:C:\Users\a5116938\Desktop\e2_studio_workspace\EEMBC_final\RX65N_Cloud_Kit\src/tensorflow/lite/micro/kernels\kernel_util.h ****   return context->GetEvalTensor(context, node->outputs->data[index]);
 367                             		.loc 3 49 3
 368                             		.loc 3 49 32 is_stmt 0
 369 001c ED A5 01                		mov.L	4[r10], r5
 370 001f ED 7A 15                		mov.L	84[r7], r10
 371                             	.LVL47:
 372 0022 EF 71                   		mov.L	r7, r1
 373                             	.LVL48:
 374 0024 A8 5A                   		mov.L	4[r5], r2
 375 0026 7F 1A                   		jsr	r10
 376                             	.LVL49:
 377 0028 EF 1A                   		mov.L	r1, r10
 378                             	.LVL50:
 379                             	.LBE84:
 380                             	.LBE83:
  52:../src/tensorflow/lite/micro/kernels/ceil.cc ****       tflite::micro::GetEvalOutput(context, node, kOutputTensor);
  53:../src/tensorflow/lite/micro/kernels/ceil.cc **** 
  54:../src/tensorflow/lite/micro/kernels/ceil.cc ****   reference_ops::Ceil(tflite::micro::GetTensorShape(input),
 381                             		.loc 1 54 3 is_stmt 1
 382                             		.loc 1 54 52 is_stmt 0
 383 002a 71 0F 18                		add	#24, r0, r15
 384 002d EF 61                   		mov.L	r6, r1
 385                             	.LVL51:
 386 002f 05 00 00 00             		bsr	__ZN6tflite5micro14GetTensorShapeEPK16TfLiteEvalTensor
 387                             	.LVL52:
 388                             	.LBB85:
 389                             	.LBB86:
  50:C:\Users\a5116938\Desktop\e2_studio_workspace\EEMBC_final\RX65N_Cloud_Kit\src/tensorflow/lite/micro/kernels\kernel_util.h **** }
  51:C:\Users\a5116938\Desktop\e2_studio_workspace\EEMBC_final\RX65N_Cloud_Kit\src/tensorflow/lite/micro/kernels\kernel_util.h **** 
  52:C:\Users\a5116938\Desktop\e2_studio_workspace\EEMBC_final\RX65N_Cloud_Kit\src/tensorflow/lite/micro/kernels\kernel_util.h **** // Returns data for a TfLiteEvalTensor struct.
  53:C:\Users\a5116938\Desktop\e2_studio_workspace\EEMBC_final\RX65N_Cloud_Kit\src/tensorflow/lite/micro/kernels\kernel_util.h **** template <typename T>
  54:C:\Users\a5116938\Desktop\e2_studio_workspace\EEMBC_final\RX65N_Cloud_Kit\src/tensorflow/lite/micro/kernels\kernel_util.h **** T* GetTensorData(TfLiteEvalTensor* tensor) {
  55:C:\Users\a5116938\Desktop\e2_studio_workspace\EEMBC_final\RX65N_Cloud_Kit\src/tensorflow/lite/micro/kernels\kernel_util.h ****   return tensor != nullptr ? reinterpret_cast<T*>(tensor->data.raw) : nullptr;
  56:C:\Users\a5116938\Desktop\e2_studio_workspace\EEMBC_final\RX65N_Cloud_Kit\src/tensorflow/lite/micro/kernels\kernel_util.h **** }
  57:C:\Users\a5116938\Desktop\e2_studio_workspace\EEMBC_final\RX65N_Cloud_Kit\src/tensorflow/lite/micro/kernels\kernel_util.h **** 
  58:C:\Users\a5116938\Desktop\e2_studio_workspace\EEMBC_final\RX65N_Cloud_Kit\src/tensorflow/lite/micro/kernels\kernel_util.h **** // Returns const data for a TfLiteEvalTensor struct.
  59:C:\Users\a5116938\Desktop\e2_studio_workspace\EEMBC_final\RX65N_Cloud_Kit\src/tensorflow/lite/micro/kernels\kernel_util.h **** template <typename T>
  60:C:\Users\a5116938\Desktop\e2_studio_workspace\EEMBC_final\RX65N_Cloud_Kit\src/tensorflow/lite/micro/kernels\kernel_util.h **** const T* GetTensorData(const TfLiteEvalTensor* tensor) {
  61:C:\Users\a5116938\Desktop\e2_studio_workspace\EEMBC_final\RX65N_Cloud_Kit\src/tensorflow/lite/micro/kernels\kernel_util.h ****   TFLITE_DCHECK(tensor != nullptr);
 390                             		.loc 3 61 3
 391 0033 61 06                   		cmp	#0, r6
 392 0035 3A 03 01                		beq	.L27
 393                             	.LBE86:
 394                             	.LBE85:
  55:../src/tensorflow/lite/micro/kernels/ceil.cc ****                       tflite::micro::GetTensorData<float>(input),
  56:../src/tensorflow/lite/micro/kernels/ceil.cc ****                       tflite::micro::GetTensorShape(output),
 395                             		.loc 1 56 52
 396 0038 EF 0F                   		mov.L	r0, r15
 397 003a EF A1                   		mov.L	r10, r1
 398                             	.LBB88:
 399                             	.LBB87:
  62:C:\Users\a5116938\Desktop\e2_studio_workspace\EEMBC_final\RX65N_Cloud_Kit\src/tensorflow/lite/micro/kernels\kernel_util.h ****   return reinterpret_cast<const T*>(tensor->data.raw);
 400                             		.loc 3 62 53
 401 003c EC 6C                   		mov.L	[r6], r12
 402                             	.LVL53:
 403                             	.LBE87:
 404                             	.LBE88:
 405                             		.loc 1 56 52
 406 003e 05 00 00 00             		bsr	__ZN6tflite5micro14GetTensorShapeEPK16TfLiteEvalTensor
 407                             	.LVL54:
 408                             	.LBB89:
 409                             	.LBB90:
  55:C:\Users\a5116938\Desktop\e2_studio_workspace\EEMBC_final\RX65N_Cloud_Kit\src/tensorflow/lite/micro/kernels\kernel_util.h **** }
 410                             		.loc 3 55 28
 411 0042 61 0A                   		cmp	#0, r10
 412 0044 14                      		beq	.L28
 413 0045 EC AA                   		mov.L	[r10], r10
 414                             	.LVL55:
 415 0047 03                      		.balign 8,3,1
 416                             	.L28:
 417                             	.LBE90:
 418                             	.LBE89:
 419                             	.LBB91:
 420                             	.LBB92:
 421                             		.file 4 "C:\\Users\\a5116938\\Desktop\\e2_studio_workspace\\EEMBC_final\\RX65N_Cloud_Kit\\src/tens
   1:C:\Users\a5116938\Desktop\e2_studio_workspace\EEMBC_final\RX65N_Cloud_Kit\src/tensorflow/lite/kernels/internal/reference\ceil.h **** /* Copyright 2018 The TensorFlow Authors. All Rights Reserved.
   2:C:\Users\a5116938\Desktop\e2_studio_workspace\EEMBC_final\RX65N_Cloud_Kit\src/tensorflow/lite/kernels/internal/reference\ceil.h **** 
   3:C:\Users\a5116938\Desktop\e2_studio_workspace\EEMBC_final\RX65N_Cloud_Kit\src/tensorflow/lite/kernels/internal/reference\ceil.h **** Licensed under the Apache License, Version 2.0 (the "License");
   4:C:\Users\a5116938\Desktop\e2_studio_workspace\EEMBC_final\RX65N_Cloud_Kit\src/tensorflow/lite/kernels/internal/reference\ceil.h **** you may not use this file except in compliance with the License.
   5:C:\Users\a5116938\Desktop\e2_studio_workspace\EEMBC_final\RX65N_Cloud_Kit\src/tensorflow/lite/kernels/internal/reference\ceil.h **** You may obtain a copy of the License at
   6:C:\Users\a5116938\Desktop\e2_studio_workspace\EEMBC_final\RX65N_Cloud_Kit\src/tensorflow/lite/kernels/internal/reference\ceil.h **** 
   7:C:\Users\a5116938\Desktop\e2_studio_workspace\EEMBC_final\RX65N_Cloud_Kit\src/tensorflow/lite/kernels/internal/reference\ceil.h ****     http://www.apache.org/licenses/LICENSE-2.0
   8:C:\Users\a5116938\Desktop\e2_studio_workspace\EEMBC_final\RX65N_Cloud_Kit\src/tensorflow/lite/kernels/internal/reference\ceil.h **** 
   9:C:\Users\a5116938\Desktop\e2_studio_workspace\EEMBC_final\RX65N_Cloud_Kit\src/tensorflow/lite/kernels/internal/reference\ceil.h **** Unless required by applicable law or agreed to in writing, software
  10:C:\Users\a5116938\Desktop\e2_studio_workspace\EEMBC_final\RX65N_Cloud_Kit\src/tensorflow/lite/kernels/internal/reference\ceil.h **** distributed under the License is distributed on an "AS IS" BASIS,
  11:C:\Users\a5116938\Desktop\e2_studio_workspace\EEMBC_final\RX65N_Cloud_Kit\src/tensorflow/lite/kernels/internal/reference\ceil.h **** WITHOUT WARRANTIES OR CONDITIONS OF ANY KIND, either express or implied.
  12:C:\Users\a5116938\Desktop\e2_studio_workspace\EEMBC_final\RX65N_Cloud_Kit\src/tensorflow/lite/kernels/internal/reference\ceil.h **** See the License for the specific language governing permissions and
  13:C:\Users\a5116938\Desktop\e2_studio_workspace\EEMBC_final\RX65N_Cloud_Kit\src/tensorflow/lite/kernels/internal/reference\ceil.h **** limitations under the License.
  14:C:\Users\a5116938\Desktop\e2_studio_workspace\EEMBC_final\RX65N_Cloud_Kit\src/tensorflow/lite/kernels/internal/reference\ceil.h **** ==============================================================================*/
  15:C:\Users\a5116938\Desktop\e2_studio_workspace\EEMBC_final\RX65N_Cloud_Kit\src/tensorflow/lite/kernels/internal/reference\ceil.h **** #ifndef TENSORFLOW_LITE_KERNELS_INTERNAL_REFERENCE_CEIL_H_
  16:C:\Users\a5116938\Desktop\e2_studio_workspace\EEMBC_final\RX65N_Cloud_Kit\src/tensorflow/lite/kernels/internal/reference\ceil.h **** #define TENSORFLOW_LITE_KERNELS_INTERNAL_REFERENCE_CEIL_H_
  17:C:\Users\a5116938\Desktop\e2_studio_workspace\EEMBC_final\RX65N_Cloud_Kit\src/tensorflow/lite/kernels/internal/reference\ceil.h **** 
  18:C:\Users\a5116938\Desktop\e2_studio_workspace\EEMBC_final\RX65N_Cloud_Kit\src/tensorflow/lite/kernels/internal/reference\ceil.h **** #include <cmath>
  19:C:\Users\a5116938\Desktop\e2_studio_workspace\EEMBC_final\RX65N_Cloud_Kit\src/tensorflow/lite/kernels/internal/reference\ceil.h **** 
  20:C:\Users\a5116938\Desktop\e2_studio_workspace\EEMBC_final\RX65N_Cloud_Kit\src/tensorflow/lite/kernels/internal/reference\ceil.h **** #include "tensorflow/lite/kernels/internal/types.h"
  21:C:\Users\a5116938\Desktop\e2_studio_workspace\EEMBC_final\RX65N_Cloud_Kit\src/tensorflow/lite/kernels/internal/reference\ceil.h **** 
  22:C:\Users\a5116938\Desktop\e2_studio_workspace\EEMBC_final\RX65N_Cloud_Kit\src/tensorflow/lite/kernels/internal/reference\ceil.h **** namespace tflite {
  23:C:\Users\a5116938\Desktop\e2_studio_workspace\EEMBC_final\RX65N_Cloud_Kit\src/tensorflow/lite/kernels/internal/reference\ceil.h **** 
  24:C:\Users\a5116938\Desktop\e2_studio_workspace\EEMBC_final\RX65N_Cloud_Kit\src/tensorflow/lite/kernels/internal/reference\ceil.h **** namespace reference_ops {
  25:C:\Users\a5116938\Desktop\e2_studio_workspace\EEMBC_final\RX65N_Cloud_Kit\src/tensorflow/lite/kernels/internal/reference\ceil.h **** 
  26:C:\Users\a5116938\Desktop\e2_studio_workspace\EEMBC_final\RX65N_Cloud_Kit\src/tensorflow/lite/kernels/internal/reference\ceil.h **** inline void Ceil(const RuntimeShape& input_shape, const float* input_data,
  27:C:\Users\a5116938\Desktop\e2_studio_workspace\EEMBC_final\RX65N_Cloud_Kit\src/tensorflow/lite/kernels/internal/reference\ceil.h ****                  const RuntimeShape& output_shape, float* output_data) {
  28:C:\Users\a5116938\Desktop\e2_studio_workspace\EEMBC_final\RX65N_Cloud_Kit\src/tensorflow/lite/kernels/internal/reference\ceil.h ****   const int flat_size = MatchingFlatSize(input_shape, output_shape);
 422                             		.loc 4 28 3 is_stmt 1
 423                             	.LBB93:
 424                             	.LBB94:
 425                             		.file 5 "C:\\Users\\a5116938\\Desktop\\e2_studio_workspace\\EEMBC_final\\RX65N_Cloud_Kit\\src/tens
   1:C:\Users\a5116938\Desktop\e2_studio_workspace\EEMBC_final\RX65N_Cloud_Kit\src/tensorflow/lite/kernels/internal\types.h **** /* Copyright 2018 The TensorFlow Authors. All Rights Reserved.
   2:C:\Users\a5116938\Desktop\e2_studio_workspace\EEMBC_final\RX65N_Cloud_Kit\src/tensorflow/lite/kernels/internal\types.h **** 
   3:C:\Users\a5116938\Desktop\e2_studio_workspace\EEMBC_final\RX65N_Cloud_Kit\src/tensorflow/lite/kernels/internal\types.h **** Licensed under the Apache License, Version 2.0 (the "License");
   4:C:\Users\a5116938\Desktop\e2_studio_workspace\EEMBC_final\RX65N_Cloud_Kit\src/tensorflow/lite/kernels/internal\types.h **** you may not use this file except in compliance with the License.
   5:C:\Users\a5116938\Desktop\e2_studio_workspace\EEMBC_final\RX65N_Cloud_Kit\src/tensorflow/lite/kernels/internal\types.h **** You may obtain a copy of the License at
   6:C:\Users\a5116938\Desktop\e2_studio_workspace\EEMBC_final\RX65N_Cloud_Kit\src/tensorflow/lite/kernels/internal\types.h **** 
   7:C:\Users\a5116938\Desktop\e2_studio_workspace\EEMBC_final\RX65N_Cloud_Kit\src/tensorflow/lite/kernels/internal\types.h ****     http://www.apache.org/licenses/LICENSE-2.0
   8:C:\Users\a5116938\Desktop\e2_studio_workspace\EEMBC_final\RX65N_Cloud_Kit\src/tensorflow/lite/kernels/internal\types.h **** 
   9:C:\Users\a5116938\Desktop\e2_studio_workspace\EEMBC_final\RX65N_Cloud_Kit\src/tensorflow/lite/kernels/internal\types.h **** Unless required by applicable law or agreed to in writing, software
  10:C:\Users\a5116938\Desktop\e2_studio_workspace\EEMBC_final\RX65N_Cloud_Kit\src/tensorflow/lite/kernels/internal\types.h **** distributed under the License is distributed on an "AS IS" BASIS,
  11:C:\Users\a5116938\Desktop\e2_studio_workspace\EEMBC_final\RX65N_Cloud_Kit\src/tensorflow/lite/kernels/internal\types.h **** WITHOUT WARRANTIES OR CONDITIONS OF ANY KIND, either express or implied.
  12:C:\Users\a5116938\Desktop\e2_studio_workspace\EEMBC_final\RX65N_Cloud_Kit\src/tensorflow/lite/kernels/internal\types.h **** See the License for the specific language governing permissions and
  13:C:\Users\a5116938\Desktop\e2_studio_workspace\EEMBC_final\RX65N_Cloud_Kit\src/tensorflow/lite/kernels/internal\types.h **** limitations under the License.
  14:C:\Users\a5116938\Desktop\e2_studio_workspace\EEMBC_final\RX65N_Cloud_Kit\src/tensorflow/lite/kernels/internal\types.h **** ==============================================================================*/
  15:C:\Users\a5116938\Desktop\e2_studio_workspace\EEMBC_final\RX65N_Cloud_Kit\src/tensorflow/lite/kernels/internal\types.h **** #ifndef TENSORFLOW_LITE_KERNELS_INTERNAL_TYPES_H_
  16:C:\Users\a5116938\Desktop\e2_studio_workspace\EEMBC_final\RX65N_Cloud_Kit\src/tensorflow/lite/kernels/internal\types.h **** #define TENSORFLOW_LITE_KERNELS_INTERNAL_TYPES_H_
  17:C:\Users\a5116938\Desktop\e2_studio_workspace\EEMBC_final\RX65N_Cloud_Kit\src/tensorflow/lite/kernels/internal\types.h **** 
  18:C:\Users\a5116938\Desktop\e2_studio_workspace\EEMBC_final\RX65N_Cloud_Kit\src/tensorflow/lite/kernels/internal\types.h **** #include <algorithm>
  19:C:\Users\a5116938\Desktop\e2_studio_workspace\EEMBC_final\RX65N_Cloud_Kit\src/tensorflow/lite/kernels/internal\types.h **** #include <cstdint>
  20:C:\Users\a5116938\Desktop\e2_studio_workspace\EEMBC_final\RX65N_Cloud_Kit\src/tensorflow/lite/kernels/internal\types.h **** #include <cstring>
  21:C:\Users\a5116938\Desktop\e2_studio_workspace\EEMBC_final\RX65N_Cloud_Kit\src/tensorflow/lite/kernels/internal\types.h **** #include <initializer_list>
  22:C:\Users\a5116938\Desktop\e2_studio_workspace\EEMBC_final\RX65N_Cloud_Kit\src/tensorflow/lite/kernels/internal\types.h **** 
  23:C:\Users\a5116938\Desktop\e2_studio_workspace\EEMBC_final\RX65N_Cloud_Kit\src/tensorflow/lite/kernels/internal\types.h **** #include "tensorflow/lite/kernels/internal/compatibility.h"
  24:C:\Users\a5116938\Desktop\e2_studio_workspace\EEMBC_final\RX65N_Cloud_Kit\src/tensorflow/lite/kernels/internal\types.h **** 
  25:C:\Users\a5116938\Desktop\e2_studio_workspace\EEMBC_final\RX65N_Cloud_Kit\src/tensorflow/lite/kernels/internal\types.h **** namespace tflite {
  26:C:\Users\a5116938\Desktop\e2_studio_workspace\EEMBC_final\RX65N_Cloud_Kit\src/tensorflow/lite/kernels/internal\types.h **** 
  27:C:\Users\a5116938\Desktop\e2_studio_workspace\EEMBC_final\RX65N_Cloud_Kit\src/tensorflow/lite/kernels/internal\types.h **** enum class FusedActivationFunctionType : uint8_t {
  28:C:\Users\a5116938\Desktop\e2_studio_workspace\EEMBC_final\RX65N_Cloud_Kit\src/tensorflow/lite/kernels/internal\types.h ****   kNone,
  29:C:\Users\a5116938\Desktop\e2_studio_workspace\EEMBC_final\RX65N_Cloud_Kit\src/tensorflow/lite/kernels/internal\types.h ****   kRelu6,
  30:C:\Users\a5116938\Desktop\e2_studio_workspace\EEMBC_final\RX65N_Cloud_Kit\src/tensorflow/lite/kernels/internal\types.h ****   kRelu1,
  31:C:\Users\a5116938\Desktop\e2_studio_workspace\EEMBC_final\RX65N_Cloud_Kit\src/tensorflow/lite/kernels/internal\types.h ****   kRelu
  32:C:\Users\a5116938\Desktop\e2_studio_workspace\EEMBC_final\RX65N_Cloud_Kit\src/tensorflow/lite/kernels/internal\types.h **** };
  33:C:\Users\a5116938\Desktop\e2_studio_workspace\EEMBC_final\RX65N_Cloud_Kit\src/tensorflow/lite/kernels/internal\types.h **** enum class PaddingType : uint8_t { kNone, kSame, kValid };
  34:C:\Users\a5116938\Desktop\e2_studio_workspace\EEMBC_final\RX65N_Cloud_Kit\src/tensorflow/lite/kernels/internal\types.h **** 
  35:C:\Users\a5116938\Desktop\e2_studio_workspace\EEMBC_final\RX65N_Cloud_Kit\src/tensorflow/lite/kernels/internal\types.h **** struct PaddingValues {
  36:C:\Users\a5116938\Desktop\e2_studio_workspace\EEMBC_final\RX65N_Cloud_Kit\src/tensorflow/lite/kernels/internal\types.h ****   int16_t width;
  37:C:\Users\a5116938\Desktop\e2_studio_workspace\EEMBC_final\RX65N_Cloud_Kit\src/tensorflow/lite/kernels/internal\types.h ****   int16_t height;
  38:C:\Users\a5116938\Desktop\e2_studio_workspace\EEMBC_final\RX65N_Cloud_Kit\src/tensorflow/lite/kernels/internal\types.h ****   // offset is used for calculating "remaining" padding, for example, `width`
  39:C:\Users\a5116938\Desktop\e2_studio_workspace\EEMBC_final\RX65N_Cloud_Kit\src/tensorflow/lite/kernels/internal\types.h ****   // is 1 and `width_offset` is 1, so padding_left is 1 while padding_right is
  40:C:\Users\a5116938\Desktop\e2_studio_workspace\EEMBC_final\RX65N_Cloud_Kit\src/tensorflow/lite/kernels/internal\types.h ****   // 1 + 1 = 2.
  41:C:\Users\a5116938\Desktop\e2_studio_workspace\EEMBC_final\RX65N_Cloud_Kit\src/tensorflow/lite/kernels/internal\types.h ****   int16_t width_offset;
  42:C:\Users\a5116938\Desktop\e2_studio_workspace\EEMBC_final\RX65N_Cloud_Kit\src/tensorflow/lite/kernels/internal\types.h ****   // Same as width_offset except it's over the height dimension.
  43:C:\Users\a5116938\Desktop\e2_studio_workspace\EEMBC_final\RX65N_Cloud_Kit\src/tensorflow/lite/kernels/internal\types.h ****   int16_t height_offset;
  44:C:\Users\a5116938\Desktop\e2_studio_workspace\EEMBC_final\RX65N_Cloud_Kit\src/tensorflow/lite/kernels/internal\types.h **** };
  45:C:\Users\a5116938\Desktop\e2_studio_workspace\EEMBC_final\RX65N_Cloud_Kit\src/tensorflow/lite/kernels/internal\types.h **** 
  46:C:\Users\a5116938\Desktop\e2_studio_workspace\EEMBC_final\RX65N_Cloud_Kit\src/tensorflow/lite/kernels/internal\types.h **** // This enumeration allows for non-default formats for the weights array
  47:C:\Users\a5116938\Desktop\e2_studio_workspace\EEMBC_final\RX65N_Cloud_Kit\src/tensorflow/lite/kernels/internal\types.h **** // of a fully-connected operator, allowing the use of special optimized
  48:C:\Users\a5116938\Desktop\e2_studio_workspace\EEMBC_final\RX65N_Cloud_Kit\src/tensorflow/lite/kernels/internal\types.h **** // runtime paths.
  49:C:\Users\a5116938\Desktop\e2_studio_workspace\EEMBC_final\RX65N_Cloud_Kit\src/tensorflow/lite/kernels/internal\types.h **** enum class FullyConnectedWeightsFormat : uint8_t {
  50:C:\Users\a5116938\Desktop\e2_studio_workspace\EEMBC_final\RX65N_Cloud_Kit\src/tensorflow/lite/kernels/internal\types.h ****   // Default format (flat 2D layout, the inner contiguous dimension
  51:C:\Users\a5116938\Desktop\e2_studio_workspace\EEMBC_final\RX65N_Cloud_Kit\src/tensorflow/lite/kernels/internal\types.h ****   // is input_depth, the outer non-contiguous dimension is output_depth)
  52:C:\Users\a5116938\Desktop\e2_studio_workspace\EEMBC_final\RX65N_Cloud_Kit\src/tensorflow/lite/kernels/internal\types.h ****   kDefault,
  53:C:\Users\a5116938\Desktop\e2_studio_workspace\EEMBC_final\RX65N_Cloud_Kit\src/tensorflow/lite/kernels/internal\types.h ****   // Summary: optimized layout for fast CPU runtime implementation,
  54:C:\Users\a5116938\Desktop\e2_studio_workspace\EEMBC_final\RX65N_Cloud_Kit\src/tensorflow/lite/kernels/internal\types.h ****   // aimed specifically at ARM CPUs at the moment, and specialized for
  55:C:\Users\a5116938\Desktop\e2_studio_workspace\EEMBC_final\RX65N_Cloud_Kit\src/tensorflow/lite/kernels/internal\types.h ****   // 8-bit quantized layers.
  56:C:\Users\a5116938\Desktop\e2_studio_workspace\EEMBC_final\RX65N_Cloud_Kit\src/tensorflow/lite/kernels/internal\types.h ****   //
  57:C:\Users\a5116938\Desktop\e2_studio_workspace\EEMBC_final\RX65N_Cloud_Kit\src/tensorflow/lite/kernels/internal\types.h ****   // The use case we're concerned with here is: 8-bit quantization,
  58:C:\Users\a5116938\Desktop\e2_studio_workspace\EEMBC_final\RX65N_Cloud_Kit\src/tensorflow/lite/kernels/internal\types.h ****   // large weights matrix that doesn't fit in cache (e.g. 4096x2048 in
  59:C:\Users\a5116938\Desktop\e2_studio_workspace\EEMBC_final\RX65N_Cloud_Kit\src/tensorflow/lite/kernels/internal\types.h ****   // a key application that drove this), very small batch size (e.g. 1 -- 4).
  60:C:\Users\a5116938\Desktop\e2_studio_workspace\EEMBC_final\RX65N_Cloud_Kit\src/tensorflow/lite/kernels/internal\types.h ****   //
  61:C:\Users\a5116938\Desktop\e2_studio_workspace\EEMBC_final\RX65N_Cloud_Kit\src/tensorflow/lite/kernels/internal\types.h ****   // Even with 8-bit quantization of weights, the performance of memory
  62:C:\Users\a5116938\Desktop\e2_studio_workspace\EEMBC_final\RX65N_Cloud_Kit\src/tensorflow/lite/kernels/internal\types.h ****   // accesses to the weights can become the dominant issue when
  63:C:\Users\a5116938\Desktop\e2_studio_workspace\EEMBC_final\RX65N_Cloud_Kit\src/tensorflow/lite/kernels/internal\types.h ****   // the batch size is small, so each weight value is used in only a few
  64:C:\Users\a5116938\Desktop\e2_studio_workspace\EEMBC_final\RX65N_Cloud_Kit\src/tensorflow/lite/kernels/internal\types.h ****   // arithmetic ops, i.e. the fully-connected node has a low arithmetic
  65:C:\Users\a5116938\Desktop\e2_studio_workspace\EEMBC_final\RX65N_Cloud_Kit\src/tensorflow/lite/kernels/internal\types.h ****   // intensity. The specific issues that arise are of three kinds:
  66:C:\Users\a5116938\Desktop\e2_studio_workspace\EEMBC_final\RX65N_Cloud_Kit\src/tensorflow/lite/kernels/internal\types.h ****   // (1) One may, ideally, max out DRAM bandwidth, i.e. be truly memory
  67:C:\Users\a5116938\Desktop\e2_studio_workspace\EEMBC_final\RX65N_Cloud_Kit\src/tensorflow/lite/kernels/internal\types.h ****   //     bound. That's the "good" issue to run into.
  68:C:\Users\a5116938\Desktop\e2_studio_workspace\EEMBC_final\RX65N_Cloud_Kit\src/tensorflow/lite/kernels/internal\types.h ****   // (2) One may run into sub-optimal pre-fetching: the data hasn't been
  69:C:\Users\a5116938\Desktop\e2_studio_workspace\EEMBC_final\RX65N_Cloud_Kit\src/tensorflow/lite/kernels/internal\types.h ****   //     prefetched into the cache by the time we need it.
  70:C:\Users\a5116938\Desktop\e2_studio_workspace\EEMBC_final\RX65N_Cloud_Kit\src/tensorflow/lite/kernels/internal\types.h ****   // (3) One may run into cache aliasing: multiple values that are
  71:C:\Users\a5116938\Desktop\e2_studio_workspace\EEMBC_final\RX65N_Cloud_Kit\src/tensorflow/lite/kernels/internal\types.h ****   //     pre-fetched, alias each other in the L1 cache (which typically
  72:C:\Users\a5116938\Desktop\e2_studio_workspace\EEMBC_final\RX65N_Cloud_Kit\src/tensorflow/lite/kernels/internal\types.h ****   //     has only 4-way set associativity in ARM CPUs) and thus evict
  73:C:\Users\a5116938\Desktop\e2_studio_workspace\EEMBC_final\RX65N_Cloud_Kit\src/tensorflow/lite/kernels/internal\types.h ****   //     each other before we get to using them.
  74:C:\Users\a5116938\Desktop\e2_studio_workspace\EEMBC_final\RX65N_Cloud_Kit\src/tensorflow/lite/kernels/internal\types.h ****   //
  75:C:\Users\a5116938\Desktop\e2_studio_workspace\EEMBC_final\RX65N_Cloud_Kit\src/tensorflow/lite/kernels/internal\types.h ****   // The point of this shuffling is to avoid issues (2) and (3) so that
  76:C:\Users\a5116938\Desktop\e2_studio_workspace\EEMBC_final\RX65N_Cloud_Kit\src/tensorflow/lite/kernels/internal\types.h ****   // we get as fast as possible given only the hard constraint (1).
  77:C:\Users\a5116938\Desktop\e2_studio_workspace\EEMBC_final\RX65N_Cloud_Kit\src/tensorflow/lite/kernels/internal\types.h ****   // This is achieved by turning the difficulty into a solution: the
  78:C:\Users\a5116938\Desktop\e2_studio_workspace\EEMBC_final\RX65N_Cloud_Kit\src/tensorflow/lite/kernels/internal\types.h ****   // difficulty, that each value loaded from memory is used only in
  79:C:\Users\a5116938\Desktop\e2_studio_workspace\EEMBC_final\RX65N_Cloud_Kit\src/tensorflow/lite/kernels/internal\types.h ****   // one kernel iteration, making this operation memory-intensive, hints at
  80:C:\Users\a5116938\Desktop\e2_studio_workspace\EEMBC_final\RX65N_Cloud_Kit\src/tensorflow/lite/kernels/internal\types.h ****   // the solution, of shuffling the weights so that they are stored in the
  81:C:\Users\a5116938\Desktop\e2_studio_workspace\EEMBC_final\RX65N_Cloud_Kit\src/tensorflow/lite/kernels/internal\types.h ****   // exact order as the kernel needs to load them, so that the memory
  82:C:\Users\a5116938\Desktop\e2_studio_workspace\EEMBC_final\RX65N_Cloud_Kit\src/tensorflow/lite/kernels/internal\types.h ****   // accesses made by the kernel are trivial. This solves (2) because the
  83:C:\Users\a5116938\Desktop\e2_studio_workspace\EEMBC_final\RX65N_Cloud_Kit\src/tensorflow/lite/kernels/internal\types.h ****   // trivial memory access pattern allows the CPU's automatic prefetching
  84:C:\Users\a5116938\Desktop\e2_studio_workspace\EEMBC_final\RX65N_Cloud_Kit\src/tensorflow/lite/kernels/internal\types.h ****   // to perform very well (no need even for preload instructions), and this
  85:C:\Users\a5116938\Desktop\e2_studio_workspace\EEMBC_final\RX65N_Cloud_Kit\src/tensorflow/lite/kernels/internal\types.h ****   // solves (3) because the values being loaded concurrently are now
  86:C:\Users\a5116938\Desktop\e2_studio_workspace\EEMBC_final\RX65N_Cloud_Kit\src/tensorflow/lite/kernels/internal\types.h ****   // contiguous in the address space, thus don't alias each other in the cache.
  87:C:\Users\a5116938\Desktop\e2_studio_workspace\EEMBC_final\RX65N_Cloud_Kit\src/tensorflow/lite/kernels/internal\types.h ****   //
  88:C:\Users\a5116938\Desktop\e2_studio_workspace\EEMBC_final\RX65N_Cloud_Kit\src/tensorflow/lite/kernels/internal\types.h ****   // On ARM, we typically want our kernel to process a 4x16 block of weights
  89:C:\Users\a5116938\Desktop\e2_studio_workspace\EEMBC_final\RX65N_Cloud_Kit\src/tensorflow/lite/kernels/internal\types.h ****   // at a time, because:
  90:C:\Users\a5116938\Desktop\e2_studio_workspace\EEMBC_final\RX65N_Cloud_Kit\src/tensorflow/lite/kernels/internal\types.h ****   //   - 16 is the number of bytes in a NEON register.
  91:C:\Users\a5116938\Desktop\e2_studio_workspace\EEMBC_final\RX65N_Cloud_Kit\src/tensorflow/lite/kernels/internal\types.h ****   //   - 4 is how many rows we need to handle concurrently in the kernel in
  92:C:\Users\a5116938\Desktop\e2_studio_workspace\EEMBC_final\RX65N_Cloud_Kit\src/tensorflow/lite/kernels/internal\types.h ****   //     order to have sufficient mutual independence of instructions to
  93:C:\Users\a5116938\Desktop\e2_studio_workspace\EEMBC_final\RX65N_Cloud_Kit\src/tensorflow/lite/kernels/internal\types.h ****   //     maximize arithmetic throughput.
  94:C:\Users\a5116938\Desktop\e2_studio_workspace\EEMBC_final\RX65N_Cloud_Kit\src/tensorflow/lite/kernels/internal\types.h ****   //
  95:C:\Users\a5116938\Desktop\e2_studio_workspace\EEMBC_final\RX65N_Cloud_Kit\src/tensorflow/lite/kernels/internal\types.h ****   // Finally, the 'Int8' part in the name refers to the fact that this
  96:C:\Users\a5116938\Desktop\e2_studio_workspace\EEMBC_final\RX65N_Cloud_Kit\src/tensorflow/lite/kernels/internal\types.h ****   // weights format has each weights value encoded as a signed int8_t value,
  97:C:\Users\a5116938\Desktop\e2_studio_workspace\EEMBC_final\RX65N_Cloud_Kit\src/tensorflow/lite/kernels/internal\types.h ****   // even if the data type of the weights buffer is uint8_t.  This is intended
  98:C:\Users\a5116938\Desktop\e2_studio_workspace\EEMBC_final\RX65N_Cloud_Kit\src/tensorflow/lite/kernels/internal\types.h ****   // to save runtime kernels the effort to have to XOR the top bit of these
  99:C:\Users\a5116938\Desktop\e2_studio_workspace\EEMBC_final\RX65N_Cloud_Kit\src/tensorflow/lite/kernels/internal\types.h ****   // bytes before using them in signed arithmetic, see this file for more
 100:C:\Users\a5116938\Desktop\e2_studio_workspace\EEMBC_final\RX65N_Cloud_Kit\src/tensorflow/lite/kernels/internal\types.h ****   // explanations on the 'signed int8_t trick' in matrix multiplication kernels:
 101:C:\Users\a5116938\Desktop\e2_studio_workspace\EEMBC_final\RX65N_Cloud_Kit\src/tensorflow/lite/kernels/internal\types.h ****   //
 102:C:\Users\a5116938\Desktop\e2_studio_workspace\EEMBC_final\RX65N_Cloud_Kit\src/tensorflow/lite/kernels/internal\types.h ****   //   tensorflow/lite/toco/graph_transformations/ensure_uint8_weights_safe_for_fast_int8_kernels.c
 103:C:\Users\a5116938\Desktop\e2_studio_workspace\EEMBC_final\RX65N_Cloud_Kit\src/tensorflow/lite/kernels/internal\types.h ****   //
 104:C:\Users\a5116938\Desktop\e2_studio_workspace\EEMBC_final\RX65N_Cloud_Kit\src/tensorflow/lite/kernels/internal\types.h ****   kShuffled4x16Int8,
 105:C:\Users\a5116938\Desktop\e2_studio_workspace\EEMBC_final\RX65N_Cloud_Kit\src/tensorflow/lite/kernels/internal\types.h **** };
 106:C:\Users\a5116938\Desktop\e2_studio_workspace\EEMBC_final\RX65N_Cloud_Kit\src/tensorflow/lite/kernels/internal\types.h **** 
 107:C:\Users\a5116938\Desktop\e2_studio_workspace\EEMBC_final\RX65N_Cloud_Kit\src/tensorflow/lite/kernels/internal\types.h **** // Quantization parameters, determining the mapping of quantized values
 108:C:\Users\a5116938\Desktop\e2_studio_workspace\EEMBC_final\RX65N_Cloud_Kit\src/tensorflow/lite/kernels/internal\types.h **** // to real values (i.e. determining how quantized values are mathematically
 109:C:\Users\a5116938\Desktop\e2_studio_workspace\EEMBC_final\RX65N_Cloud_Kit\src/tensorflow/lite/kernels/internal\types.h **** // interpreted).
 110:C:\Users\a5116938\Desktop\e2_studio_workspace\EEMBC_final\RX65N_Cloud_Kit\src/tensorflow/lite/kernels/internal\types.h **** //
 111:C:\Users\a5116938\Desktop\e2_studio_workspace\EEMBC_final\RX65N_Cloud_Kit\src/tensorflow/lite/kernels/internal\types.h **** // The correspondence is as follows:
 112:C:\Users\a5116938\Desktop\e2_studio_workspace\EEMBC_final\RX65N_Cloud_Kit\src/tensorflow/lite/kernels/internal\types.h **** //
 113:C:\Users\a5116938\Desktop\e2_studio_workspace\EEMBC_final\RX65N_Cloud_Kit\src/tensorflow/lite/kernels/internal\types.h **** //   real_value = scale * (quantized_value - zero_point);
 114:C:\Users\a5116938\Desktop\e2_studio_workspace\EEMBC_final\RX65N_Cloud_Kit\src/tensorflow/lite/kernels/internal\types.h **** //
 115:C:\Users\a5116938\Desktop\e2_studio_workspace\EEMBC_final\RX65N_Cloud_Kit\src/tensorflow/lite/kernels/internal\types.h **** // In other words, zero_point designates which quantized value corresponds to
 116:C:\Users\a5116938\Desktop\e2_studio_workspace\EEMBC_final\RX65N_Cloud_Kit\src/tensorflow/lite/kernels/internal\types.h **** // the real 0 value, and scale designates the difference between the real values
 117:C:\Users\a5116938\Desktop\e2_studio_workspace\EEMBC_final\RX65N_Cloud_Kit\src/tensorflow/lite/kernels/internal\types.h **** // corresponding to consecutive quantized values differing by 1.
 118:C:\Users\a5116938\Desktop\e2_studio_workspace\EEMBC_final\RX65N_Cloud_Kit\src/tensorflow/lite/kernels/internal\types.h **** struct QuantizationParams {
 119:C:\Users\a5116938\Desktop\e2_studio_workspace\EEMBC_final\RX65N_Cloud_Kit\src/tensorflow/lite/kernels/internal\types.h ****   int32_t zero_point = 0;
 120:C:\Users\a5116938\Desktop\e2_studio_workspace\EEMBC_final\RX65N_Cloud_Kit\src/tensorflow/lite/kernels/internal\types.h ****   double scale = 0.0;
 121:C:\Users\a5116938\Desktop\e2_studio_workspace\EEMBC_final\RX65N_Cloud_Kit\src/tensorflow/lite/kernels/internal\types.h **** };
 122:C:\Users\a5116938\Desktop\e2_studio_workspace\EEMBC_final\RX65N_Cloud_Kit\src/tensorflow/lite/kernels/internal\types.h **** 
 123:C:\Users\a5116938\Desktop\e2_studio_workspace\EEMBC_final\RX65N_Cloud_Kit\src/tensorflow/lite/kernels/internal\types.h **** inline bool operator==(const QuantizationParams& qp1,
 124:C:\Users\a5116938\Desktop\e2_studio_workspace\EEMBC_final\RX65N_Cloud_Kit\src/tensorflow/lite/kernels/internal\types.h ****                        const QuantizationParams& qp2) {
 125:C:\Users\a5116938\Desktop\e2_studio_workspace\EEMBC_final\RX65N_Cloud_Kit\src/tensorflow/lite/kernels/internal\types.h ****   return qp1.zero_point == qp2.zero_point && qp1.scale == qp2.scale;
 126:C:\Users\a5116938\Desktop\e2_studio_workspace\EEMBC_final\RX65N_Cloud_Kit\src/tensorflow/lite/kernels/internal\types.h **** }
 127:C:\Users\a5116938\Desktop\e2_studio_workspace\EEMBC_final\RX65N_Cloud_Kit\src/tensorflow/lite/kernels/internal\types.h **** 
 128:C:\Users\a5116938\Desktop\e2_studio_workspace\EEMBC_final\RX65N_Cloud_Kit\src/tensorflow/lite/kernels/internal\types.h **** template <int N>
 129:C:\Users\a5116938\Desktop\e2_studio_workspace\EEMBC_final\RX65N_Cloud_Kit\src/tensorflow/lite/kernels/internal\types.h **** struct Dims {
 130:C:\Users\a5116938\Desktop\e2_studio_workspace\EEMBC_final\RX65N_Cloud_Kit\src/tensorflow/lite/kernels/internal\types.h ****   int sizes[N];
 131:C:\Users\a5116938\Desktop\e2_studio_workspace\EEMBC_final\RX65N_Cloud_Kit\src/tensorflow/lite/kernels/internal\types.h ****   int strides[N];
 132:C:\Users\a5116938\Desktop\e2_studio_workspace\EEMBC_final\RX65N_Cloud_Kit\src/tensorflow/lite/kernels/internal\types.h **** };
 133:C:\Users\a5116938\Desktop\e2_studio_workspace\EEMBC_final\RX65N_Cloud_Kit\src/tensorflow/lite/kernels/internal\types.h **** 
 134:C:\Users\a5116938\Desktop\e2_studio_workspace\EEMBC_final\RX65N_Cloud_Kit\src/tensorflow/lite/kernels/internal\types.h **** class RuntimeShape {
 135:C:\Users\a5116938\Desktop\e2_studio_workspace\EEMBC_final\RX65N_Cloud_Kit\src/tensorflow/lite/kernels/internal\types.h ****  public:
 136:C:\Users\a5116938\Desktop\e2_studio_workspace\EEMBC_final\RX65N_Cloud_Kit\src/tensorflow/lite/kernels/internal\types.h ****   // Shapes with dimensions up to 5 are stored directly in the structure, while
 137:C:\Users\a5116938\Desktop\e2_studio_workspace\EEMBC_final\RX65N_Cloud_Kit\src/tensorflow/lite/kernels/internal\types.h ****   // larger shapes are separately allocated.
 138:C:\Users\a5116938\Desktop\e2_studio_workspace\EEMBC_final\RX65N_Cloud_Kit\src/tensorflow/lite/kernels/internal\types.h ****   static constexpr int kMaxSmallSize = 5;
 139:C:\Users\a5116938\Desktop\e2_studio_workspace\EEMBC_final\RX65N_Cloud_Kit\src/tensorflow/lite/kernels/internal\types.h **** 
 140:C:\Users\a5116938\Desktop\e2_studio_workspace\EEMBC_final\RX65N_Cloud_Kit\src/tensorflow/lite/kernels/internal\types.h ****   RuntimeShape& operator=(RuntimeShape const&) = delete;
 141:C:\Users\a5116938\Desktop\e2_studio_workspace\EEMBC_final\RX65N_Cloud_Kit\src/tensorflow/lite/kernels/internal\types.h **** 
 142:C:\Users\a5116938\Desktop\e2_studio_workspace\EEMBC_final\RX65N_Cloud_Kit\src/tensorflow/lite/kernels/internal\types.h ****   RuntimeShape() : size_(0) {}
 143:C:\Users\a5116938\Desktop\e2_studio_workspace\EEMBC_final\RX65N_Cloud_Kit\src/tensorflow/lite/kernels/internal\types.h **** 
 144:C:\Users\a5116938\Desktop\e2_studio_workspace\EEMBC_final\RX65N_Cloud_Kit\src/tensorflow/lite/kernels/internal\types.h ****   explicit RuntimeShape(int dimensions_count) : size_(dimensions_count) {
 145:C:\Users\a5116938\Desktop\e2_studio_workspace\EEMBC_final\RX65N_Cloud_Kit\src/tensorflow/lite/kernels/internal\types.h ****     if (dimensions_count > kMaxSmallSize) {
 146:C:\Users\a5116938\Desktop\e2_studio_workspace\EEMBC_final\RX65N_Cloud_Kit\src/tensorflow/lite/kernels/internal\types.h **** #ifdef TF_LITE_STATIC_MEMORY
 147:C:\Users\a5116938\Desktop\e2_studio_workspace\EEMBC_final\RX65N_Cloud_Kit\src/tensorflow/lite/kernels/internal\types.h ****       TFLITE_CHECK(false && "No shape resizing supported on this platform");
 148:C:\Users\a5116938\Desktop\e2_studio_workspace\EEMBC_final\RX65N_Cloud_Kit\src/tensorflow/lite/kernels/internal\types.h **** #else  // TF_LITE_STATIC_MEMORY
 149:C:\Users\a5116938\Desktop\e2_studio_workspace\EEMBC_final\RX65N_Cloud_Kit\src/tensorflow/lite/kernels/internal\types.h ****       dims_pointer_ = new int32_t[dimensions_count];
 150:C:\Users\a5116938\Desktop\e2_studio_workspace\EEMBC_final\RX65N_Cloud_Kit\src/tensorflow/lite/kernels/internal\types.h **** #endif  // TF_LITE_STATIC_MEMORY
 151:C:\Users\a5116938\Desktop\e2_studio_workspace\EEMBC_final\RX65N_Cloud_Kit\src/tensorflow/lite/kernels/internal\types.h ****     }
 152:C:\Users\a5116938\Desktop\e2_studio_workspace\EEMBC_final\RX65N_Cloud_Kit\src/tensorflow/lite/kernels/internal\types.h ****   }
 153:C:\Users\a5116938\Desktop\e2_studio_workspace\EEMBC_final\RX65N_Cloud_Kit\src/tensorflow/lite/kernels/internal\types.h **** 
 154:C:\Users\a5116938\Desktop\e2_studio_workspace\EEMBC_final\RX65N_Cloud_Kit\src/tensorflow/lite/kernels/internal\types.h ****   RuntimeShape(int shape_size, int32_t value) : size_(0) {
 155:C:\Users\a5116938\Desktop\e2_studio_workspace\EEMBC_final\RX65N_Cloud_Kit\src/tensorflow/lite/kernels/internal\types.h ****     Resize(shape_size);
 156:C:\Users\a5116938\Desktop\e2_studio_workspace\EEMBC_final\RX65N_Cloud_Kit\src/tensorflow/lite/kernels/internal\types.h ****     for (int i = 0; i < shape_size; ++i) {
 157:C:\Users\a5116938\Desktop\e2_studio_workspace\EEMBC_final\RX65N_Cloud_Kit\src/tensorflow/lite/kernels/internal\types.h ****       SetDim(i, value);
 158:C:\Users\a5116938\Desktop\e2_studio_workspace\EEMBC_final\RX65N_Cloud_Kit\src/tensorflow/lite/kernels/internal\types.h ****     }
 159:C:\Users\a5116938\Desktop\e2_studio_workspace\EEMBC_final\RX65N_Cloud_Kit\src/tensorflow/lite/kernels/internal\types.h ****   }
 160:C:\Users\a5116938\Desktop\e2_studio_workspace\EEMBC_final\RX65N_Cloud_Kit\src/tensorflow/lite/kernels/internal\types.h **** 
 161:C:\Users\a5116938\Desktop\e2_studio_workspace\EEMBC_final\RX65N_Cloud_Kit\src/tensorflow/lite/kernels/internal\types.h ****   RuntimeShape(int dimensions_count, const int32_t* dims_data) : size_(0) {
 162:C:\Users\a5116938\Desktop\e2_studio_workspace\EEMBC_final\RX65N_Cloud_Kit\src/tensorflow/lite/kernels/internal\types.h ****     ReplaceWith(dimensions_count, dims_data);
 163:C:\Users\a5116938\Desktop\e2_studio_workspace\EEMBC_final\RX65N_Cloud_Kit\src/tensorflow/lite/kernels/internal\types.h ****   }
 164:C:\Users\a5116938\Desktop\e2_studio_workspace\EEMBC_final\RX65N_Cloud_Kit\src/tensorflow/lite/kernels/internal\types.h **** 
 165:C:\Users\a5116938\Desktop\e2_studio_workspace\EEMBC_final\RX65N_Cloud_Kit\src/tensorflow/lite/kernels/internal\types.h ****   RuntimeShape(const std::initializer_list<int> init_list) : size_(0) {
 166:C:\Users\a5116938\Desktop\e2_studio_workspace\EEMBC_final\RX65N_Cloud_Kit\src/tensorflow/lite/kernels/internal\types.h ****     BuildFrom(init_list);
 167:C:\Users\a5116938\Desktop\e2_studio_workspace\EEMBC_final\RX65N_Cloud_Kit\src/tensorflow/lite/kernels/internal\types.h ****   }
 168:C:\Users\a5116938\Desktop\e2_studio_workspace\EEMBC_final\RX65N_Cloud_Kit\src/tensorflow/lite/kernels/internal\types.h **** 
 169:C:\Users\a5116938\Desktop\e2_studio_workspace\EEMBC_final\RX65N_Cloud_Kit\src/tensorflow/lite/kernels/internal\types.h ****   // Avoid using this constructor.  We should be able to delete it when C++17
 170:C:\Users\a5116938\Desktop\e2_studio_workspace\EEMBC_final\RX65N_Cloud_Kit\src/tensorflow/lite/kernels/internal\types.h ****   // rolls out.
 171:C:\Users\a5116938\Desktop\e2_studio_workspace\EEMBC_final\RX65N_Cloud_Kit\src/tensorflow/lite/kernels/internal\types.h ****   RuntimeShape(RuntimeShape const& other) : size_(other.DimensionsCount()) {
 172:C:\Users\a5116938\Desktop\e2_studio_workspace\EEMBC_final\RX65N_Cloud_Kit\src/tensorflow/lite/kernels/internal\types.h ****     if (size_ > kMaxSmallSize) {
 173:C:\Users\a5116938\Desktop\e2_studio_workspace\EEMBC_final\RX65N_Cloud_Kit\src/tensorflow/lite/kernels/internal\types.h ****       dims_pointer_ = new int32_t[size_];
 174:C:\Users\a5116938\Desktop\e2_studio_workspace\EEMBC_final\RX65N_Cloud_Kit\src/tensorflow/lite/kernels/internal\types.h ****     }
 175:C:\Users\a5116938\Desktop\e2_studio_workspace\EEMBC_final\RX65N_Cloud_Kit\src/tensorflow/lite/kernels/internal\types.h ****     std::memcpy(DimsData(), other.DimsData(), sizeof(int32_t) * size_);
 176:C:\Users\a5116938\Desktop\e2_studio_workspace\EEMBC_final\RX65N_Cloud_Kit\src/tensorflow/lite/kernels/internal\types.h ****   }
 177:C:\Users\a5116938\Desktop\e2_studio_workspace\EEMBC_final\RX65N_Cloud_Kit\src/tensorflow/lite/kernels/internal\types.h **** 
 178:C:\Users\a5116938\Desktop\e2_studio_workspace\EEMBC_final\RX65N_Cloud_Kit\src/tensorflow/lite/kernels/internal\types.h ****   bool operator==(const RuntimeShape& comp) const {
 179:C:\Users\a5116938\Desktop\e2_studio_workspace\EEMBC_final\RX65N_Cloud_Kit\src/tensorflow/lite/kernels/internal\types.h ****     return this->size_ == comp.size_ &&
 180:C:\Users\a5116938\Desktop\e2_studio_workspace\EEMBC_final\RX65N_Cloud_Kit\src/tensorflow/lite/kernels/internal\types.h ****            std::memcmp(DimsData(), comp.DimsData(), size_ * sizeof(int32_t)) ==
 181:C:\Users\a5116938\Desktop\e2_studio_workspace\EEMBC_final\RX65N_Cloud_Kit\src/tensorflow/lite/kernels/internal\types.h ****                0;
 182:C:\Users\a5116938\Desktop\e2_studio_workspace\EEMBC_final\RX65N_Cloud_Kit\src/tensorflow/lite/kernels/internal\types.h ****   }
 183:C:\Users\a5116938\Desktop\e2_studio_workspace\EEMBC_final\RX65N_Cloud_Kit\src/tensorflow/lite/kernels/internal\types.h **** 
 184:C:\Users\a5116938\Desktop\e2_studio_workspace\EEMBC_final\RX65N_Cloud_Kit\src/tensorflow/lite/kernels/internal\types.h ****   ~RuntimeShape() {
 185:C:\Users\a5116938\Desktop\e2_studio_workspace\EEMBC_final\RX65N_Cloud_Kit\src/tensorflow/lite/kernels/internal\types.h ****     if (size_ > kMaxSmallSize) {
 186:C:\Users\a5116938\Desktop\e2_studio_workspace\EEMBC_final\RX65N_Cloud_Kit\src/tensorflow/lite/kernels/internal\types.h **** #ifdef TF_LITE_STATIC_MEMORY
 187:C:\Users\a5116938\Desktop\e2_studio_workspace\EEMBC_final\RX65N_Cloud_Kit\src/tensorflow/lite/kernels/internal\types.h ****       TFLITE_CHECK(false && "No shape resizing supported on this platform");
 188:C:\Users\a5116938\Desktop\e2_studio_workspace\EEMBC_final\RX65N_Cloud_Kit\src/tensorflow/lite/kernels/internal\types.h **** #else  // TF_LITE_STATIC_MEMORY
 189:C:\Users\a5116938\Desktop\e2_studio_workspace\EEMBC_final\RX65N_Cloud_Kit\src/tensorflow/lite/kernels/internal\types.h ****       delete[] dims_pointer_;
 190:C:\Users\a5116938\Desktop\e2_studio_workspace\EEMBC_final\RX65N_Cloud_Kit\src/tensorflow/lite/kernels/internal\types.h **** #endif  // TF_LITE_STATIC_MEMORY
 191:C:\Users\a5116938\Desktop\e2_studio_workspace\EEMBC_final\RX65N_Cloud_Kit\src/tensorflow/lite/kernels/internal\types.h ****     }
 192:C:\Users\a5116938\Desktop\e2_studio_workspace\EEMBC_final\RX65N_Cloud_Kit\src/tensorflow/lite/kernels/internal\types.h ****   }
 193:C:\Users\a5116938\Desktop\e2_studio_workspace\EEMBC_final\RX65N_Cloud_Kit\src/tensorflow/lite/kernels/internal\types.h **** 
 194:C:\Users\a5116938\Desktop\e2_studio_workspace\EEMBC_final\RX65N_Cloud_Kit\src/tensorflow/lite/kernels/internal\types.h ****   inline int32_t DimensionsCount() const { return size_; }
 195:C:\Users\a5116938\Desktop\e2_studio_workspace\EEMBC_final\RX65N_Cloud_Kit\src/tensorflow/lite/kernels/internal\types.h ****   inline int32_t Dims(int i) const {
 196:C:\Users\a5116938\Desktop\e2_studio_workspace\EEMBC_final\RX65N_Cloud_Kit\src/tensorflow/lite/kernels/internal\types.h ****     TFLITE_DCHECK_GE(i, 0);
 197:C:\Users\a5116938\Desktop\e2_studio_workspace\EEMBC_final\RX65N_Cloud_Kit\src/tensorflow/lite/kernels/internal\types.h ****     TFLITE_DCHECK_LT(i, size_);
 198:C:\Users\a5116938\Desktop\e2_studio_workspace\EEMBC_final\RX65N_Cloud_Kit\src/tensorflow/lite/kernels/internal\types.h ****     return size_ > kMaxSmallSize ? dims_pointer_[i] : dims_[i];
 199:C:\Users\a5116938\Desktop\e2_studio_workspace\EEMBC_final\RX65N_Cloud_Kit\src/tensorflow/lite/kernels/internal\types.h ****   }
 200:C:\Users\a5116938\Desktop\e2_studio_workspace\EEMBC_final\RX65N_Cloud_Kit\src/tensorflow/lite/kernels/internal\types.h ****   inline void SetDim(int i, int32_t val) {
 201:C:\Users\a5116938\Desktop\e2_studio_workspace\EEMBC_final\RX65N_Cloud_Kit\src/tensorflow/lite/kernels/internal\types.h ****     TFLITE_DCHECK_GE(i, 0);
 202:C:\Users\a5116938\Desktop\e2_studio_workspace\EEMBC_final\RX65N_Cloud_Kit\src/tensorflow/lite/kernels/internal\types.h ****     TFLITE_DCHECK_LT(i, size_);
 203:C:\Users\a5116938\Desktop\e2_studio_workspace\EEMBC_final\RX65N_Cloud_Kit\src/tensorflow/lite/kernels/internal\types.h ****     if (size_ > kMaxSmallSize) {
 204:C:\Users\a5116938\Desktop\e2_studio_workspace\EEMBC_final\RX65N_Cloud_Kit\src/tensorflow/lite/kernels/internal\types.h ****       dims_pointer_[i] = val;
 205:C:\Users\a5116938\Desktop\e2_studio_workspace\EEMBC_final\RX65N_Cloud_Kit\src/tensorflow/lite/kernels/internal\types.h ****     } else {
 206:C:\Users\a5116938\Desktop\e2_studio_workspace\EEMBC_final\RX65N_Cloud_Kit\src/tensorflow/lite/kernels/internal\types.h ****       dims_[i] = val;
 207:C:\Users\a5116938\Desktop\e2_studio_workspace\EEMBC_final\RX65N_Cloud_Kit\src/tensorflow/lite/kernels/internal\types.h ****     }
 208:C:\Users\a5116938\Desktop\e2_studio_workspace\EEMBC_final\RX65N_Cloud_Kit\src/tensorflow/lite/kernels/internal\types.h ****   }
 209:C:\Users\a5116938\Desktop\e2_studio_workspace\EEMBC_final\RX65N_Cloud_Kit\src/tensorflow/lite/kernels/internal\types.h **** 
 210:C:\Users\a5116938\Desktop\e2_studio_workspace\EEMBC_final\RX65N_Cloud_Kit\src/tensorflow/lite/kernels/internal\types.h ****   inline int32_t* DimsData() {
 211:C:\Users\a5116938\Desktop\e2_studio_workspace\EEMBC_final\RX65N_Cloud_Kit\src/tensorflow/lite/kernels/internal\types.h ****     return size_ > kMaxSmallSize ? dims_pointer_ : dims_;
 212:C:\Users\a5116938\Desktop\e2_studio_workspace\EEMBC_final\RX65N_Cloud_Kit\src/tensorflow/lite/kernels/internal\types.h ****   }
 213:C:\Users\a5116938\Desktop\e2_studio_workspace\EEMBC_final\RX65N_Cloud_Kit\src/tensorflow/lite/kernels/internal\types.h ****   inline const int32_t* DimsData() const {
 214:C:\Users\a5116938\Desktop\e2_studio_workspace\EEMBC_final\RX65N_Cloud_Kit\src/tensorflow/lite/kernels/internal\types.h ****     return size_ > kMaxSmallSize ? dims_pointer_ : dims_;
 215:C:\Users\a5116938\Desktop\e2_studio_workspace\EEMBC_final\RX65N_Cloud_Kit\src/tensorflow/lite/kernels/internal\types.h ****   }
 216:C:\Users\a5116938\Desktop\e2_studio_workspace\EEMBC_final\RX65N_Cloud_Kit\src/tensorflow/lite/kernels/internal\types.h ****   // The caller must ensure that the shape is no bigger than 5-D.
 217:C:\Users\a5116938\Desktop\e2_studio_workspace\EEMBC_final\RX65N_Cloud_Kit\src/tensorflow/lite/kernels/internal\types.h ****   inline const int32_t* DimsDataUpTo5D() const { return dims_; }
 218:C:\Users\a5116938\Desktop\e2_studio_workspace\EEMBC_final\RX65N_Cloud_Kit\src/tensorflow/lite/kernels/internal\types.h **** 
 219:C:\Users\a5116938\Desktop\e2_studio_workspace\EEMBC_final\RX65N_Cloud_Kit\src/tensorflow/lite/kernels/internal\types.h ****   inline void Resize(int dimensions_count) {
 220:C:\Users\a5116938\Desktop\e2_studio_workspace\EEMBC_final\RX65N_Cloud_Kit\src/tensorflow/lite/kernels/internal\types.h ****     if (size_ > kMaxSmallSize) {
 221:C:\Users\a5116938\Desktop\e2_studio_workspace\EEMBC_final\RX65N_Cloud_Kit\src/tensorflow/lite/kernels/internal\types.h **** #ifdef TF_LITE_STATIC_MEMORY
 222:C:\Users\a5116938\Desktop\e2_studio_workspace\EEMBC_final\RX65N_Cloud_Kit\src/tensorflow/lite/kernels/internal\types.h ****       TFLITE_CHECK(false && "No shape resizing supported on this platform");
 223:C:\Users\a5116938\Desktop\e2_studio_workspace\EEMBC_final\RX65N_Cloud_Kit\src/tensorflow/lite/kernels/internal\types.h **** #else  // TF_LITE_STATIC_MEMORY
 224:C:\Users\a5116938\Desktop\e2_studio_workspace\EEMBC_final\RX65N_Cloud_Kit\src/tensorflow/lite/kernels/internal\types.h ****       delete[] dims_pointer_;
 225:C:\Users\a5116938\Desktop\e2_studio_workspace\EEMBC_final\RX65N_Cloud_Kit\src/tensorflow/lite/kernels/internal\types.h **** #endif  // TF_LITE_STATIC_MEMORY
 226:C:\Users\a5116938\Desktop\e2_studio_workspace\EEMBC_final\RX65N_Cloud_Kit\src/tensorflow/lite/kernels/internal\types.h ****     }
 227:C:\Users\a5116938\Desktop\e2_studio_workspace\EEMBC_final\RX65N_Cloud_Kit\src/tensorflow/lite/kernels/internal\types.h ****     size_ = dimensions_count;
 228:C:\Users\a5116938\Desktop\e2_studio_workspace\EEMBC_final\RX65N_Cloud_Kit\src/tensorflow/lite/kernels/internal\types.h ****     if (dimensions_count > kMaxSmallSize) {
 229:C:\Users\a5116938\Desktop\e2_studio_workspace\EEMBC_final\RX65N_Cloud_Kit\src/tensorflow/lite/kernels/internal\types.h **** #ifdef TF_LITE_STATIC_MEMORY
 230:C:\Users\a5116938\Desktop\e2_studio_workspace\EEMBC_final\RX65N_Cloud_Kit\src/tensorflow/lite/kernels/internal\types.h ****       TFLITE_CHECK(false && "No shape resizing supported on this platform");
 231:C:\Users\a5116938\Desktop\e2_studio_workspace\EEMBC_final\RX65N_Cloud_Kit\src/tensorflow/lite/kernels/internal\types.h **** #else  // TF_LITE_STATIC_MEMORY
 232:C:\Users\a5116938\Desktop\e2_studio_workspace\EEMBC_final\RX65N_Cloud_Kit\src/tensorflow/lite/kernels/internal\types.h ****       dims_pointer_ = new int32_t[dimensions_count];
 233:C:\Users\a5116938\Desktop\e2_studio_workspace\EEMBC_final\RX65N_Cloud_Kit\src/tensorflow/lite/kernels/internal\types.h **** #endif  // TF_LITE_STATIC_MEMORY
 234:C:\Users\a5116938\Desktop\e2_studio_workspace\EEMBC_final\RX65N_Cloud_Kit\src/tensorflow/lite/kernels/internal\types.h ****     }
 235:C:\Users\a5116938\Desktop\e2_studio_workspace\EEMBC_final\RX65N_Cloud_Kit\src/tensorflow/lite/kernels/internal\types.h ****   }
 236:C:\Users\a5116938\Desktop\e2_studio_workspace\EEMBC_final\RX65N_Cloud_Kit\src/tensorflow/lite/kernels/internal\types.h **** 
 237:C:\Users\a5116938\Desktop\e2_studio_workspace\EEMBC_final\RX65N_Cloud_Kit\src/tensorflow/lite/kernels/internal\types.h ****   inline void ReplaceWith(int dimensions_count, const int32_t* dims_data) {
 238:C:\Users\a5116938\Desktop\e2_studio_workspace\EEMBC_final\RX65N_Cloud_Kit\src/tensorflow/lite/kernels/internal\types.h ****     Resize(dimensions_count);
 239:C:\Users\a5116938\Desktop\e2_studio_workspace\EEMBC_final\RX65N_Cloud_Kit\src/tensorflow/lite/kernels/internal\types.h ****     int32_t* dst_dims = DimsData();
 240:C:\Users\a5116938\Desktop\e2_studio_workspace\EEMBC_final\RX65N_Cloud_Kit\src/tensorflow/lite/kernels/internal\types.h ****     std::memcpy(dst_dims, dims_data, dimensions_count * sizeof(int32_t));
 241:C:\Users\a5116938\Desktop\e2_studio_workspace\EEMBC_final\RX65N_Cloud_Kit\src/tensorflow/lite/kernels/internal\types.h ****   }
 242:C:\Users\a5116938\Desktop\e2_studio_workspace\EEMBC_final\RX65N_Cloud_Kit\src/tensorflow/lite/kernels/internal\types.h **** 
 243:C:\Users\a5116938\Desktop\e2_studio_workspace\EEMBC_final\RX65N_Cloud_Kit\src/tensorflow/lite/kernels/internal\types.h ****   template <typename T>
 244:C:\Users\a5116938\Desktop\e2_studio_workspace\EEMBC_final\RX65N_Cloud_Kit\src/tensorflow/lite/kernels/internal\types.h ****   inline void BuildFrom(const T& src_iterable) {
 245:C:\Users\a5116938\Desktop\e2_studio_workspace\EEMBC_final\RX65N_Cloud_Kit\src/tensorflow/lite/kernels/internal\types.h ****     const int dimensions_count =
 246:C:\Users\a5116938\Desktop\e2_studio_workspace\EEMBC_final\RX65N_Cloud_Kit\src/tensorflow/lite/kernels/internal\types.h ****         std::distance(src_iterable.begin(), src_iterable.end());
 247:C:\Users\a5116938\Desktop\e2_studio_workspace\EEMBC_final\RX65N_Cloud_Kit\src/tensorflow/lite/kernels/internal\types.h ****     Resize(dimensions_count);
 248:C:\Users\a5116938\Desktop\e2_studio_workspace\EEMBC_final\RX65N_Cloud_Kit\src/tensorflow/lite/kernels/internal\types.h ****     int32_t* data = DimsData();
 249:C:\Users\a5116938\Desktop\e2_studio_workspace\EEMBC_final\RX65N_Cloud_Kit\src/tensorflow/lite/kernels/internal\types.h ****     for (auto it : src_iterable) {
 250:C:\Users\a5116938\Desktop\e2_studio_workspace\EEMBC_final\RX65N_Cloud_Kit\src/tensorflow/lite/kernels/internal\types.h ****       *data = it;
 251:C:\Users\a5116938\Desktop\e2_studio_workspace\EEMBC_final\RX65N_Cloud_Kit\src/tensorflow/lite/kernels/internal\types.h ****       ++data;
 252:C:\Users\a5116938\Desktop\e2_studio_workspace\EEMBC_final\RX65N_Cloud_Kit\src/tensorflow/lite/kernels/internal\types.h ****     }
 253:C:\Users\a5116938\Desktop\e2_studio_workspace\EEMBC_final\RX65N_Cloud_Kit\src/tensorflow/lite/kernels/internal\types.h ****   }
 254:C:\Users\a5116938\Desktop\e2_studio_workspace\EEMBC_final\RX65N_Cloud_Kit\src/tensorflow/lite/kernels/internal\types.h **** 
 255:C:\Users\a5116938\Desktop\e2_studio_workspace\EEMBC_final\RX65N_Cloud_Kit\src/tensorflow/lite/kernels/internal\types.h ****   // This will probably be factored out. Old code made substantial use of 4-D
 256:C:\Users\a5116938\Desktop\e2_studio_workspace\EEMBC_final\RX65N_Cloud_Kit\src/tensorflow/lite/kernels/internal\types.h ****   // shapes, and so this function is used to extend smaller shapes. Note that
 257:C:\Users\a5116938\Desktop\e2_studio_workspace\EEMBC_final\RX65N_Cloud_Kit\src/tensorflow/lite/kernels/internal\types.h ****   // (a) as Dims<4>-dependent code is eliminated, the reliance on this should be
 258:C:\Users\a5116938\Desktop\e2_studio_workspace\EEMBC_final\RX65N_Cloud_Kit\src/tensorflow/lite/kernels/internal\types.h ****   // reduced, and (b) some kernels are stricly 4-D, but then the shapes of their
 259:C:\Users\a5116938\Desktop\e2_studio_workspace\EEMBC_final\RX65N_Cloud_Kit\src/tensorflow/lite/kernels/internal\types.h ****   // inputs should already be 4-D, so this function should not be needed.
 260:C:\Users\a5116938\Desktop\e2_studio_workspace\EEMBC_final\RX65N_Cloud_Kit\src/tensorflow/lite/kernels/internal\types.h ****   inline static RuntimeShape ExtendedShape(int new_shape_size,
 261:C:\Users\a5116938\Desktop\e2_studio_workspace\EEMBC_final\RX65N_Cloud_Kit\src/tensorflow/lite/kernels/internal\types.h ****                                            const RuntimeShape& shape) {
 262:C:\Users\a5116938\Desktop\e2_studio_workspace\EEMBC_final\RX65N_Cloud_Kit\src/tensorflow/lite/kernels/internal\types.h ****     return RuntimeShape(new_shape_size, shape, 1);
 263:C:\Users\a5116938\Desktop\e2_studio_workspace\EEMBC_final\RX65N_Cloud_Kit\src/tensorflow/lite/kernels/internal\types.h ****   }
 264:C:\Users\a5116938\Desktop\e2_studio_workspace\EEMBC_final\RX65N_Cloud_Kit\src/tensorflow/lite/kernels/internal\types.h **** 
 265:C:\Users\a5116938\Desktop\e2_studio_workspace\EEMBC_final\RX65N_Cloud_Kit\src/tensorflow/lite/kernels/internal\types.h ****   inline void BuildFrom(const std::initializer_list<int> init_list) {
 266:C:\Users\a5116938\Desktop\e2_studio_workspace\EEMBC_final\RX65N_Cloud_Kit\src/tensorflow/lite/kernels/internal\types.h ****     BuildFrom<const std::initializer_list<int>>(init_list);
 267:C:\Users\a5116938\Desktop\e2_studio_workspace\EEMBC_final\RX65N_Cloud_Kit\src/tensorflow/lite/kernels/internal\types.h ****   }
 268:C:\Users\a5116938\Desktop\e2_studio_workspace\EEMBC_final\RX65N_Cloud_Kit\src/tensorflow/lite/kernels/internal\types.h **** 
 269:C:\Users\a5116938\Desktop\e2_studio_workspace\EEMBC_final\RX65N_Cloud_Kit\src/tensorflow/lite/kernels/internal\types.h ****   // Returns the total count of elements, that is the size when flattened into a
 270:C:\Users\a5116938\Desktop\e2_studio_workspace\EEMBC_final\RX65N_Cloud_Kit\src/tensorflow/lite/kernels/internal\types.h ****   // vector.
 271:C:\Users\a5116938\Desktop\e2_studio_workspace\EEMBC_final\RX65N_Cloud_Kit\src/tensorflow/lite/kernels/internal\types.h ****   inline int FlatSize() const {
 272:C:\Users\a5116938\Desktop\e2_studio_workspace\EEMBC_final\RX65N_Cloud_Kit\src/tensorflow/lite/kernels/internal\types.h ****     int buffer_size = 1;
 273:C:\Users\a5116938\Desktop\e2_studio_workspace\EEMBC_final\RX65N_Cloud_Kit\src/tensorflow/lite/kernels/internal\types.h ****     const int* dims_data = reinterpret_cast<const int*>(DimsData());
 274:C:\Users\a5116938\Desktop\e2_studio_workspace\EEMBC_final\RX65N_Cloud_Kit\src/tensorflow/lite/kernels/internal\types.h ****     for (int i = 0; i < size_; i++) {
 275:C:\Users\a5116938\Desktop\e2_studio_workspace\EEMBC_final\RX65N_Cloud_Kit\src/tensorflow/lite/kernels/internal\types.h ****       buffer_size *= dims_data[i];
 276:C:\Users\a5116938\Desktop\e2_studio_workspace\EEMBC_final\RX65N_Cloud_Kit\src/tensorflow/lite/kernels/internal\types.h ****     }
 277:C:\Users\a5116938\Desktop\e2_studio_workspace\EEMBC_final\RX65N_Cloud_Kit\src/tensorflow/lite/kernels/internal\types.h ****     return buffer_size;
 278:C:\Users\a5116938\Desktop\e2_studio_workspace\EEMBC_final\RX65N_Cloud_Kit\src/tensorflow/lite/kernels/internal\types.h ****   }
 279:C:\Users\a5116938\Desktop\e2_studio_workspace\EEMBC_final\RX65N_Cloud_Kit\src/tensorflow/lite/kernels/internal\types.h **** 
 280:C:\Users\a5116938\Desktop\e2_studio_workspace\EEMBC_final\RX65N_Cloud_Kit\src/tensorflow/lite/kernels/internal\types.h ****   bool operator!=(const RuntimeShape& comp) const { return !((*this) == comp); }
 281:C:\Users\a5116938\Desktop\e2_studio_workspace\EEMBC_final\RX65N_Cloud_Kit\src/tensorflow/lite/kernels/internal\types.h **** 
 282:C:\Users\a5116938\Desktop\e2_studio_workspace\EEMBC_final\RX65N_Cloud_Kit\src/tensorflow/lite/kernels/internal\types.h ****  private:
 283:C:\Users\a5116938\Desktop\e2_studio_workspace\EEMBC_final\RX65N_Cloud_Kit\src/tensorflow/lite/kernels/internal\types.h ****   // For use only by ExtendedShape(), written to guarantee (return-value) copy
 284:C:\Users\a5116938\Desktop\e2_studio_workspace\EEMBC_final\RX65N_Cloud_Kit\src/tensorflow/lite/kernels/internal\types.h ****   // elision in C++17.
 285:C:\Users\a5116938\Desktop\e2_studio_workspace\EEMBC_final\RX65N_Cloud_Kit\src/tensorflow/lite/kernels/internal\types.h ****   // This creates a shape padded to the desired size with the specified value.
 286:C:\Users\a5116938\Desktop\e2_studio_workspace\EEMBC_final\RX65N_Cloud_Kit\src/tensorflow/lite/kernels/internal\types.h ****   RuntimeShape(int new_shape_size, const RuntimeShape& shape, int pad_value)
 287:C:\Users\a5116938\Desktop\e2_studio_workspace\EEMBC_final\RX65N_Cloud_Kit\src/tensorflow/lite/kernels/internal\types.h ****       : size_(0) {
 288:C:\Users\a5116938\Desktop\e2_studio_workspace\EEMBC_final\RX65N_Cloud_Kit\src/tensorflow/lite/kernels/internal\types.h ****     // If the following check fails, it is likely because a 4D-only kernel is
 289:C:\Users\a5116938\Desktop\e2_studio_workspace\EEMBC_final\RX65N_Cloud_Kit\src/tensorflow/lite/kernels/internal\types.h ****     // being used with an array of larger dimension count.
 290:C:\Users\a5116938\Desktop\e2_studio_workspace\EEMBC_final\RX65N_Cloud_Kit\src/tensorflow/lite/kernels/internal\types.h ****     TFLITE_CHECK_GE(new_shape_size, shape.DimensionsCount());
 291:C:\Users\a5116938\Desktop\e2_studio_workspace\EEMBC_final\RX65N_Cloud_Kit\src/tensorflow/lite/kernels/internal\types.h ****     Resize(new_shape_size);
 292:C:\Users\a5116938\Desktop\e2_studio_workspace\EEMBC_final\RX65N_Cloud_Kit\src/tensorflow/lite/kernels/internal\types.h ****     const int size_increase = new_shape_size - shape.DimensionsCount();
 293:C:\Users\a5116938\Desktop\e2_studio_workspace\EEMBC_final\RX65N_Cloud_Kit\src/tensorflow/lite/kernels/internal\types.h ****     for (int i = 0; i < size_increase; ++i) {
 294:C:\Users\a5116938\Desktop\e2_studio_workspace\EEMBC_final\RX65N_Cloud_Kit\src/tensorflow/lite/kernels/internal\types.h ****       SetDim(i, pad_value);
 295:C:\Users\a5116938\Desktop\e2_studio_workspace\EEMBC_final\RX65N_Cloud_Kit\src/tensorflow/lite/kernels/internal\types.h ****     }
 296:C:\Users\a5116938\Desktop\e2_studio_workspace\EEMBC_final\RX65N_Cloud_Kit\src/tensorflow/lite/kernels/internal\types.h ****     std::memcpy(DimsData() + size_increase, shape.DimsData(),
 297:C:\Users\a5116938\Desktop\e2_studio_workspace\EEMBC_final\RX65N_Cloud_Kit\src/tensorflow/lite/kernels/internal\types.h ****                 sizeof(int32_t) * shape.DimensionsCount());
 298:C:\Users\a5116938\Desktop\e2_studio_workspace\EEMBC_final\RX65N_Cloud_Kit\src/tensorflow/lite/kernels/internal\types.h ****   }
 299:C:\Users\a5116938\Desktop\e2_studio_workspace\EEMBC_final\RX65N_Cloud_Kit\src/tensorflow/lite/kernels/internal\types.h **** 
 300:C:\Users\a5116938\Desktop\e2_studio_workspace\EEMBC_final\RX65N_Cloud_Kit\src/tensorflow/lite/kernels/internal\types.h ****   int32_t size_;
 301:C:\Users\a5116938\Desktop\e2_studio_workspace\EEMBC_final\RX65N_Cloud_Kit\src/tensorflow/lite/kernels/internal\types.h ****   union {
 302:C:\Users\a5116938\Desktop\e2_studio_workspace\EEMBC_final\RX65N_Cloud_Kit\src/tensorflow/lite/kernels/internal\types.h ****     int32_t dims_[kMaxSmallSize];
 303:C:\Users\a5116938\Desktop\e2_studio_workspace\EEMBC_final\RX65N_Cloud_Kit\src/tensorflow/lite/kernels/internal\types.h ****     int32_t* dims_pointer_;
 304:C:\Users\a5116938\Desktop\e2_studio_workspace\EEMBC_final\RX65N_Cloud_Kit\src/tensorflow/lite/kernels/internal\types.h ****   };
 305:C:\Users\a5116938\Desktop\e2_studio_workspace\EEMBC_final\RX65N_Cloud_Kit\src/tensorflow/lite/kernels/internal\types.h **** };
 306:C:\Users\a5116938\Desktop\e2_studio_workspace\EEMBC_final\RX65N_Cloud_Kit\src/tensorflow/lite/kernels/internal\types.h **** 
 307:C:\Users\a5116938\Desktop\e2_studio_workspace\EEMBC_final\RX65N_Cloud_Kit\src/tensorflow/lite/kernels/internal\types.h **** // Converts inference-style shape to legacy tflite::Dims<4>.
 308:C:\Users\a5116938\Desktop\e2_studio_workspace\EEMBC_final\RX65N_Cloud_Kit\src/tensorflow/lite/kernels/internal\types.h **** inline tflite::Dims<4> ToRuntimeDims(const tflite::RuntimeShape& array_shape) {
 309:C:\Users\a5116938\Desktop\e2_studio_workspace\EEMBC_final\RX65N_Cloud_Kit\src/tensorflow/lite/kernels/internal\types.h ****   tflite::Dims<4> result;
 310:C:\Users\a5116938\Desktop\e2_studio_workspace\EEMBC_final\RX65N_Cloud_Kit\src/tensorflow/lite/kernels/internal\types.h ****   const int dimensions_count = array_shape.DimensionsCount();
 311:C:\Users\a5116938\Desktop\e2_studio_workspace\EEMBC_final\RX65N_Cloud_Kit\src/tensorflow/lite/kernels/internal\types.h ****   TFLITE_CHECK_LE(dimensions_count, 4);
 312:C:\Users\a5116938\Desktop\e2_studio_workspace\EEMBC_final\RX65N_Cloud_Kit\src/tensorflow/lite/kernels/internal\types.h ****   int cum_prod = 1;
 313:C:\Users\a5116938\Desktop\e2_studio_workspace\EEMBC_final\RX65N_Cloud_Kit\src/tensorflow/lite/kernels/internal\types.h ****   for (int i = 0; i < 4; i++) {
 314:C:\Users\a5116938\Desktop\e2_studio_workspace\EEMBC_final\RX65N_Cloud_Kit\src/tensorflow/lite/kernels/internal\types.h ****     const int new_dim =
 315:C:\Users\a5116938\Desktop\e2_studio_workspace\EEMBC_final\RX65N_Cloud_Kit\src/tensorflow/lite/kernels/internal\types.h ****         (i < dimensions_count) ? array_shape.Dims(dimensions_count - 1 - i) : 1;
 316:C:\Users\a5116938\Desktop\e2_studio_workspace\EEMBC_final\RX65N_Cloud_Kit\src/tensorflow/lite/kernels/internal\types.h ****     result.sizes[i] = new_dim;
 317:C:\Users\a5116938\Desktop\e2_studio_workspace\EEMBC_final\RX65N_Cloud_Kit\src/tensorflow/lite/kernels/internal\types.h ****     result.strides[i] = cum_prod;
 318:C:\Users\a5116938\Desktop\e2_studio_workspace\EEMBC_final\RX65N_Cloud_Kit\src/tensorflow/lite/kernels/internal\types.h ****     cum_prod *= new_dim;
 319:C:\Users\a5116938\Desktop\e2_studio_workspace\EEMBC_final\RX65N_Cloud_Kit\src/tensorflow/lite/kernels/internal\types.h ****   }
 320:C:\Users\a5116938\Desktop\e2_studio_workspace\EEMBC_final\RX65N_Cloud_Kit\src/tensorflow/lite/kernels/internal\types.h ****   return result;
 321:C:\Users\a5116938\Desktop\e2_studio_workspace\EEMBC_final\RX65N_Cloud_Kit\src/tensorflow/lite/kernels/internal\types.h **** }
 322:C:\Users\a5116938\Desktop\e2_studio_workspace\EEMBC_final\RX65N_Cloud_Kit\src/tensorflow/lite/kernels/internal\types.h **** 
 323:C:\Users\a5116938\Desktop\e2_studio_workspace\EEMBC_final\RX65N_Cloud_Kit\src/tensorflow/lite/kernels/internal\types.h **** // TODO(b/80418076): Move to legacy ops file, update invocations.
 324:C:\Users\a5116938\Desktop\e2_studio_workspace\EEMBC_final\RX65N_Cloud_Kit\src/tensorflow/lite/kernels/internal\types.h **** inline RuntimeShape DimsToShape(const tflite::Dims<4>& dims) {
 325:C:\Users\a5116938\Desktop\e2_studio_workspace\EEMBC_final\RX65N_Cloud_Kit\src/tensorflow/lite/kernels/internal\types.h ****   return RuntimeShape(
 326:C:\Users\a5116938\Desktop\e2_studio_workspace\EEMBC_final\RX65N_Cloud_Kit\src/tensorflow/lite/kernels/internal\types.h ****       {dims.sizes[3], dims.sizes[2], dims.sizes[1], dims.sizes[0]});
 327:C:\Users\a5116938\Desktop\e2_studio_workspace\EEMBC_final\RX65N_Cloud_Kit\src/tensorflow/lite/kernels/internal\types.h **** }
 328:C:\Users\a5116938\Desktop\e2_studio_workspace\EEMBC_final\RX65N_Cloud_Kit\src/tensorflow/lite/kernels/internal\types.h **** 
 329:C:\Users\a5116938\Desktop\e2_studio_workspace\EEMBC_final\RX65N_Cloud_Kit\src/tensorflow/lite/kernels/internal\types.h **** // Gets next index to iterate through a multidimensional array.
 330:C:\Users\a5116938\Desktop\e2_studio_workspace\EEMBC_final\RX65N_Cloud_Kit\src/tensorflow/lite/kernels/internal\types.h **** inline bool NextIndex(const int num_dims, const int* dims, int* current) {
 331:C:\Users\a5116938\Desktop\e2_studio_workspace\EEMBC_final\RX65N_Cloud_Kit\src/tensorflow/lite/kernels/internal\types.h ****   if (num_dims == 0) {
 332:C:\Users\a5116938\Desktop\e2_studio_workspace\EEMBC_final\RX65N_Cloud_Kit\src/tensorflow/lite/kernels/internal\types.h ****     return false;
 333:C:\Users\a5116938\Desktop\e2_studio_workspace\EEMBC_final\RX65N_Cloud_Kit\src/tensorflow/lite/kernels/internal\types.h ****   }
 334:C:\Users\a5116938\Desktop\e2_studio_workspace\EEMBC_final\RX65N_Cloud_Kit\src/tensorflow/lite/kernels/internal\types.h ****   TFLITE_DCHECK(dims != nullptr);
 335:C:\Users\a5116938\Desktop\e2_studio_workspace\EEMBC_final\RX65N_Cloud_Kit\src/tensorflow/lite/kernels/internal\types.h ****   TFLITE_DCHECK(current != nullptr);
 336:C:\Users\a5116938\Desktop\e2_studio_workspace\EEMBC_final\RX65N_Cloud_Kit\src/tensorflow/lite/kernels/internal\types.h ****   int carry = 1;
 337:C:\Users\a5116938\Desktop\e2_studio_workspace\EEMBC_final\RX65N_Cloud_Kit\src/tensorflow/lite/kernels/internal\types.h ****   for (int idx = num_dims - 1; idx >= 0; --idx) {
 338:C:\Users\a5116938\Desktop\e2_studio_workspace\EEMBC_final\RX65N_Cloud_Kit\src/tensorflow/lite/kernels/internal\types.h ****     int current_val = current[idx] + carry;
 339:C:\Users\a5116938\Desktop\e2_studio_workspace\EEMBC_final\RX65N_Cloud_Kit\src/tensorflow/lite/kernels/internal\types.h ****     TFLITE_DCHECK_GE(dims[idx], current_val);
 340:C:\Users\a5116938\Desktop\e2_studio_workspace\EEMBC_final\RX65N_Cloud_Kit\src/tensorflow/lite/kernels/internal\types.h ****     if (dims[idx] == current_val) {
 341:C:\Users\a5116938\Desktop\e2_studio_workspace\EEMBC_final\RX65N_Cloud_Kit\src/tensorflow/lite/kernels/internal\types.h ****       current[idx] = 0;
 342:C:\Users\a5116938\Desktop\e2_studio_workspace\EEMBC_final\RX65N_Cloud_Kit\src/tensorflow/lite/kernels/internal\types.h ****     } else {
 343:C:\Users\a5116938\Desktop\e2_studio_workspace\EEMBC_final\RX65N_Cloud_Kit\src/tensorflow/lite/kernels/internal\types.h ****       current[idx] = current_val;
 344:C:\Users\a5116938\Desktop\e2_studio_workspace\EEMBC_final\RX65N_Cloud_Kit\src/tensorflow/lite/kernels/internal\types.h ****       carry = 0;
 345:C:\Users\a5116938\Desktop\e2_studio_workspace\EEMBC_final\RX65N_Cloud_Kit\src/tensorflow/lite/kernels/internal\types.h ****       break;
 346:C:\Users\a5116938\Desktop\e2_studio_workspace\EEMBC_final\RX65N_Cloud_Kit\src/tensorflow/lite/kernels/internal\types.h ****     }
 347:C:\Users\a5116938\Desktop\e2_studio_workspace\EEMBC_final\RX65N_Cloud_Kit\src/tensorflow/lite/kernels/internal\types.h ****   }
 348:C:\Users\a5116938\Desktop\e2_studio_workspace\EEMBC_final\RX65N_Cloud_Kit\src/tensorflow/lite/kernels/internal\types.h ****   return (carry == 0);
 349:C:\Users\a5116938\Desktop\e2_studio_workspace\EEMBC_final\RX65N_Cloud_Kit\src/tensorflow/lite/kernels/internal\types.h **** }
 350:C:\Users\a5116938\Desktop\e2_studio_workspace\EEMBC_final\RX65N_Cloud_Kit\src/tensorflow/lite/kernels/internal\types.h **** 
 351:C:\Users\a5116938\Desktop\e2_studio_workspace\EEMBC_final\RX65N_Cloud_Kit\src/tensorflow/lite/kernels/internal\types.h **** // Gets offset of index if reducing on axis. When reducing, the flattened offset
 352:C:\Users\a5116938\Desktop\e2_studio_workspace\EEMBC_final\RX65N_Cloud_Kit\src/tensorflow/lite/kernels/internal\types.h **** // will not change, if the input index changes on the given axis. For example,
 353:C:\Users\a5116938\Desktop\e2_studio_workspace\EEMBC_final\RX65N_Cloud_Kit\src/tensorflow/lite/kernels/internal\types.h **** // if you have a 3D tensor and you are reducing to 2D by eliminating axis 0,
 354:C:\Users\a5116938\Desktop\e2_studio_workspace\EEMBC_final\RX65N_Cloud_Kit\src/tensorflow/lite/kernels/internal\types.h **** // then index (0, 1, 2) and index (1, 1, 2) will map to the same flattened
 355:C:\Users\a5116938\Desktop\e2_studio_workspace\EEMBC_final\RX65N_Cloud_Kit\src/tensorflow/lite/kernels/internal\types.h **** // offset.
 356:C:\Users\a5116938\Desktop\e2_studio_workspace\EEMBC_final\RX65N_Cloud_Kit\src/tensorflow/lite/kernels/internal\types.h **** // TODO(kanlig): uses Dims to represent dimensions.
 357:C:\Users\a5116938\Desktop\e2_studio_workspace\EEMBC_final\RX65N_Cloud_Kit\src/tensorflow/lite/kernels/internal\types.h **** inline size_t ReducedOutputOffset(const int num_dims, const int* dims,
 358:C:\Users\a5116938\Desktop\e2_studio_workspace\EEMBC_final\RX65N_Cloud_Kit\src/tensorflow/lite/kernels/internal\types.h ****                                   const int* index, const int num_axis,
 359:C:\Users\a5116938\Desktop\e2_studio_workspace\EEMBC_final\RX65N_Cloud_Kit\src/tensorflow/lite/kernels/internal\types.h ****                                   const int* axis) {
 360:C:\Users\a5116938\Desktop\e2_studio_workspace\EEMBC_final\RX65N_Cloud_Kit\src/tensorflow/lite/kernels/internal\types.h ****   if (num_dims == 0) {
 361:C:\Users\a5116938\Desktop\e2_studio_workspace\EEMBC_final\RX65N_Cloud_Kit\src/tensorflow/lite/kernels/internal\types.h ****     return 0;
 362:C:\Users\a5116938\Desktop\e2_studio_workspace\EEMBC_final\RX65N_Cloud_Kit\src/tensorflow/lite/kernels/internal\types.h ****   }
 363:C:\Users\a5116938\Desktop\e2_studio_workspace\EEMBC_final\RX65N_Cloud_Kit\src/tensorflow/lite/kernels/internal\types.h ****   TFLITE_DCHECK(dims != nullptr);
 364:C:\Users\a5116938\Desktop\e2_studio_workspace\EEMBC_final\RX65N_Cloud_Kit\src/tensorflow/lite/kernels/internal\types.h ****   TFLITE_DCHECK(index != nullptr);
 365:C:\Users\a5116938\Desktop\e2_studio_workspace\EEMBC_final\RX65N_Cloud_Kit\src/tensorflow/lite/kernels/internal\types.h ****   size_t offset = 0;
 366:C:\Users\a5116938\Desktop\e2_studio_workspace\EEMBC_final\RX65N_Cloud_Kit\src/tensorflow/lite/kernels/internal\types.h ****   for (int idx = 0; idx < num_dims; ++idx) {
 367:C:\Users\a5116938\Desktop\e2_studio_workspace\EEMBC_final\RX65N_Cloud_Kit\src/tensorflow/lite/kernels/internal\types.h ****     // if we need to skip this axis
 368:C:\Users\a5116938\Desktop\e2_studio_workspace\EEMBC_final\RX65N_Cloud_Kit\src/tensorflow/lite/kernels/internal\types.h ****     bool is_axis = false;
 369:C:\Users\a5116938\Desktop\e2_studio_workspace\EEMBC_final\RX65N_Cloud_Kit\src/tensorflow/lite/kernels/internal\types.h ****     if (axis != nullptr) {
 370:C:\Users\a5116938\Desktop\e2_studio_workspace\EEMBC_final\RX65N_Cloud_Kit\src/tensorflow/lite/kernels/internal\types.h ****       for (int axis_idx = 0; axis_idx < num_axis; ++axis_idx) {
 371:C:\Users\a5116938\Desktop\e2_studio_workspace\EEMBC_final\RX65N_Cloud_Kit\src/tensorflow/lite/kernels/internal\types.h ****         if (idx == axis[axis_idx]) {
 372:C:\Users\a5116938\Desktop\e2_studio_workspace\EEMBC_final\RX65N_Cloud_Kit\src/tensorflow/lite/kernels/internal\types.h ****           is_axis = true;
 373:C:\Users\a5116938\Desktop\e2_studio_workspace\EEMBC_final\RX65N_Cloud_Kit\src/tensorflow/lite/kernels/internal\types.h ****           break;
 374:C:\Users\a5116938\Desktop\e2_studio_workspace\EEMBC_final\RX65N_Cloud_Kit\src/tensorflow/lite/kernels/internal\types.h ****         }
 375:C:\Users\a5116938\Desktop\e2_studio_workspace\EEMBC_final\RX65N_Cloud_Kit\src/tensorflow/lite/kernels/internal\types.h ****       }
 376:C:\Users\a5116938\Desktop\e2_studio_workspace\EEMBC_final\RX65N_Cloud_Kit\src/tensorflow/lite/kernels/internal\types.h ****     }
 377:C:\Users\a5116938\Desktop\e2_studio_workspace\EEMBC_final\RX65N_Cloud_Kit\src/tensorflow/lite/kernels/internal\types.h ****     if (!is_axis) {
 378:C:\Users\a5116938\Desktop\e2_studio_workspace\EEMBC_final\RX65N_Cloud_Kit\src/tensorflow/lite/kernels/internal\types.h ****       offset = offset * static_cast<size_t>(dims[idx]) +
 379:C:\Users\a5116938\Desktop\e2_studio_workspace\EEMBC_final\RX65N_Cloud_Kit\src/tensorflow/lite/kernels/internal\types.h ****                static_cast<size_t>(index[idx]);
 380:C:\Users\a5116938\Desktop\e2_studio_workspace\EEMBC_final\RX65N_Cloud_Kit\src/tensorflow/lite/kernels/internal\types.h ****     }
 381:C:\Users\a5116938\Desktop\e2_studio_workspace\EEMBC_final\RX65N_Cloud_Kit\src/tensorflow/lite/kernels/internal\types.h ****   }
 382:C:\Users\a5116938\Desktop\e2_studio_workspace\EEMBC_final\RX65N_Cloud_Kit\src/tensorflow/lite/kernels/internal\types.h ****   return offset;
 383:C:\Users\a5116938\Desktop\e2_studio_workspace\EEMBC_final\RX65N_Cloud_Kit\src/tensorflow/lite/kernels/internal\types.h **** }
 384:C:\Users\a5116938\Desktop\e2_studio_workspace\EEMBC_final\RX65N_Cloud_Kit\src/tensorflow/lite/kernels/internal\types.h **** 
 385:C:\Users\a5116938\Desktop\e2_studio_workspace\EEMBC_final\RX65N_Cloud_Kit\src/tensorflow/lite/kernels/internal\types.h **** inline int Offset(const RuntimeShape& shape, int i0, int i1, int i2, int i3) {
 386:C:\Users\a5116938\Desktop\e2_studio_workspace\EEMBC_final\RX65N_Cloud_Kit\src/tensorflow/lite/kernels/internal\types.h ****   TFLITE_DCHECK_EQ(shape.DimensionsCount(), 4);
 387:C:\Users\a5116938\Desktop\e2_studio_workspace\EEMBC_final\RX65N_Cloud_Kit\src/tensorflow/lite/kernels/internal\types.h ****   const int* dims_data = reinterpret_cast<const int*>(shape.DimsDataUpTo5D());
 388:C:\Users\a5116938\Desktop\e2_studio_workspace\EEMBC_final\RX65N_Cloud_Kit\src/tensorflow/lite/kernels/internal\types.h ****   TFLITE_DCHECK(i0 >= 0 && i0 < dims_data[0]);
 389:C:\Users\a5116938\Desktop\e2_studio_workspace\EEMBC_final\RX65N_Cloud_Kit\src/tensorflow/lite/kernels/internal\types.h ****   TFLITE_DCHECK(i1 >= 0 && i1 < dims_data[1]);
 390:C:\Users\a5116938\Desktop\e2_studio_workspace\EEMBC_final\RX65N_Cloud_Kit\src/tensorflow/lite/kernels/internal\types.h ****   TFLITE_DCHECK(i2 >= 0 && i2 < dims_data[2]);
 391:C:\Users\a5116938\Desktop\e2_studio_workspace\EEMBC_final\RX65N_Cloud_Kit\src/tensorflow/lite/kernels/internal\types.h ****   TFLITE_DCHECK(i3 >= 0 && i3 < dims_data[3]);
 392:C:\Users\a5116938\Desktop\e2_studio_workspace\EEMBC_final\RX65N_Cloud_Kit\src/tensorflow/lite/kernels/internal\types.h ****   return ((i0 * dims_data[1] + i1) * dims_data[2] + i2) * dims_data[3] + i3;
 393:C:\Users\a5116938\Desktop\e2_studio_workspace\EEMBC_final\RX65N_Cloud_Kit\src/tensorflow/lite/kernels/internal\types.h **** }
 394:C:\Users\a5116938\Desktop\e2_studio_workspace\EEMBC_final\RX65N_Cloud_Kit\src/tensorflow/lite/kernels/internal\types.h **** 
 395:C:\Users\a5116938\Desktop\e2_studio_workspace\EEMBC_final\RX65N_Cloud_Kit\src/tensorflow/lite/kernels/internal\types.h **** inline int Offset(const Dims<4>& dims, int i0, int i1, int i2, int i3) {
 396:C:\Users\a5116938\Desktop\e2_studio_workspace\EEMBC_final\RX65N_Cloud_Kit\src/tensorflow/lite/kernels/internal\types.h ****   TFLITE_DCHECK(i0 >= 0 && i0 < dims.sizes[0]);
 397:C:\Users\a5116938\Desktop\e2_studio_workspace\EEMBC_final\RX65N_Cloud_Kit\src/tensorflow/lite/kernels/internal\types.h ****   TFLITE_DCHECK(i1 >= 0 && i1 < dims.sizes[1]);
 398:C:\Users\a5116938\Desktop\e2_studio_workspace\EEMBC_final\RX65N_Cloud_Kit\src/tensorflow/lite/kernels/internal\types.h ****   TFLITE_DCHECK(i2 >= 0 && i2 < dims.sizes[2]);
 399:C:\Users\a5116938\Desktop\e2_studio_workspace\EEMBC_final\RX65N_Cloud_Kit\src/tensorflow/lite/kernels/internal\types.h ****   TFLITE_DCHECK(i3 >= 0 && i3 < dims.sizes[3]);
 400:C:\Users\a5116938\Desktop\e2_studio_workspace\EEMBC_final\RX65N_Cloud_Kit\src/tensorflow/lite/kernels/internal\types.h ****   return i0 * dims.strides[0] + i1 * dims.strides[1] + i2 * dims.strides[2] +
 401:C:\Users\a5116938\Desktop\e2_studio_workspace\EEMBC_final\RX65N_Cloud_Kit\src/tensorflow/lite/kernels/internal\types.h ****          i3 * dims.strides[3];
 402:C:\Users\a5116938\Desktop\e2_studio_workspace\EEMBC_final\RX65N_Cloud_Kit\src/tensorflow/lite/kernels/internal\types.h **** }
 403:C:\Users\a5116938\Desktop\e2_studio_workspace\EEMBC_final\RX65N_Cloud_Kit\src/tensorflow/lite/kernels/internal\types.h **** 
 404:C:\Users\a5116938\Desktop\e2_studio_workspace\EEMBC_final\RX65N_Cloud_Kit\src/tensorflow/lite/kernels/internal\types.h **** inline int Offset(const Dims<4>& dims, int* index) {
 405:C:\Users\a5116938\Desktop\e2_studio_workspace\EEMBC_final\RX65N_Cloud_Kit\src/tensorflow/lite/kernels/internal\types.h ****   return Offset(dims, index[0], index[1], index[2], index[3]);
 406:C:\Users\a5116938\Desktop\e2_studio_workspace\EEMBC_final\RX65N_Cloud_Kit\src/tensorflow/lite/kernels/internal\types.h **** }
 407:C:\Users\a5116938\Desktop\e2_studio_workspace\EEMBC_final\RX65N_Cloud_Kit\src/tensorflow/lite/kernels/internal\types.h **** 
 408:C:\Users\a5116938\Desktop\e2_studio_workspace\EEMBC_final\RX65N_Cloud_Kit\src/tensorflow/lite/kernels/internal\types.h **** inline int Offset(const RuntimeShape& shape, int* index) {
 409:C:\Users\a5116938\Desktop\e2_studio_workspace\EEMBC_final\RX65N_Cloud_Kit\src/tensorflow/lite/kernels/internal\types.h ****   return Offset(shape, index[0], index[1], index[2], index[3]);
 410:C:\Users\a5116938\Desktop\e2_studio_workspace\EEMBC_final\RX65N_Cloud_Kit\src/tensorflow/lite/kernels/internal\types.h **** }
 411:C:\Users\a5116938\Desktop\e2_studio_workspace\EEMBC_final\RX65N_Cloud_Kit\src/tensorflow/lite/kernels/internal\types.h **** 
 412:C:\Users\a5116938\Desktop\e2_studio_workspace\EEMBC_final\RX65N_Cloud_Kit\src/tensorflow/lite/kernels/internal\types.h **** // Get array size, DCHECKing that the dim index is in range.
 413:C:\Users\a5116938\Desktop\e2_studio_workspace\EEMBC_final\RX65N_Cloud_Kit\src/tensorflow/lite/kernels/internal\types.h **** //
 414:C:\Users\a5116938\Desktop\e2_studio_workspace\EEMBC_final\RX65N_Cloud_Kit\src/tensorflow/lite/kernels/internal\types.h **** // Note that this will be phased out with Dims<4>, since RuntimeShape::Dims()
 415:C:\Users\a5116938\Desktop\e2_studio_workspace\EEMBC_final\RX65N_Cloud_Kit\src/tensorflow/lite/kernels/internal\types.h **** // already performs this check.
 416:C:\Users\a5116938\Desktop\e2_studio_workspace\EEMBC_final\RX65N_Cloud_Kit\src/tensorflow/lite/kernels/internal\types.h **** template <int N>
 417:C:\Users\a5116938\Desktop\e2_studio_workspace\EEMBC_final\RX65N_Cloud_Kit\src/tensorflow/lite/kernels/internal\types.h **** int ArraySize(const Dims<N>& array, int index) {
 418:C:\Users\a5116938\Desktop\e2_studio_workspace\EEMBC_final\RX65N_Cloud_Kit\src/tensorflow/lite/kernels/internal\types.h ****   TFLITE_DCHECK(index >= 0 && index < N);
 419:C:\Users\a5116938\Desktop\e2_studio_workspace\EEMBC_final\RX65N_Cloud_Kit\src/tensorflow/lite/kernels/internal\types.h ****   return array.sizes[index];
 420:C:\Users\a5116938\Desktop\e2_studio_workspace\EEMBC_final\RX65N_Cloud_Kit\src/tensorflow/lite/kernels/internal\types.h **** }
 421:C:\Users\a5116938\Desktop\e2_studio_workspace\EEMBC_final\RX65N_Cloud_Kit\src/tensorflow/lite/kernels/internal\types.h **** 
 422:C:\Users\a5116938\Desktop\e2_studio_workspace\EEMBC_final\RX65N_Cloud_Kit\src/tensorflow/lite/kernels/internal\types.h **** // Get common array size, DCHECKing that they all agree.
 423:C:\Users\a5116938\Desktop\e2_studio_workspace\EEMBC_final\RX65N_Cloud_Kit\src/tensorflow/lite/kernels/internal\types.h **** template <typename ArrayType1, typename ArrayType2>
 424:C:\Users\a5116938\Desktop\e2_studio_workspace\EEMBC_final\RX65N_Cloud_Kit\src/tensorflow/lite/kernels/internal\types.h **** int MatchingArraySize(const ArrayType1& array1, int index1,
 425:C:\Users\a5116938\Desktop\e2_studio_workspace\EEMBC_final\RX65N_Cloud_Kit\src/tensorflow/lite/kernels/internal\types.h ****                       const ArrayType2& array2, int index2) {
 426:C:\Users\a5116938\Desktop\e2_studio_workspace\EEMBC_final\RX65N_Cloud_Kit\src/tensorflow/lite/kernels/internal\types.h ****   TFLITE_DCHECK_EQ(ArraySize(array1, index1), ArraySize(array2, index2));
 427:C:\Users\a5116938\Desktop\e2_studio_workspace\EEMBC_final\RX65N_Cloud_Kit\src/tensorflow/lite/kernels/internal\types.h ****   return ArraySize(array1, index1);
 428:C:\Users\a5116938\Desktop\e2_studio_workspace\EEMBC_final\RX65N_Cloud_Kit\src/tensorflow/lite/kernels/internal\types.h **** }
 429:C:\Users\a5116938\Desktop\e2_studio_workspace\EEMBC_final\RX65N_Cloud_Kit\src/tensorflow/lite/kernels/internal\types.h **** 
 430:C:\Users\a5116938\Desktop\e2_studio_workspace\EEMBC_final\RX65N_Cloud_Kit\src/tensorflow/lite/kernels/internal\types.h **** template <typename ArrayType1, typename ArrayType2, typename... Args>
 431:C:\Users\a5116938\Desktop\e2_studio_workspace\EEMBC_final\RX65N_Cloud_Kit\src/tensorflow/lite/kernels/internal\types.h **** int MatchingArraySize(const ArrayType1& array1, int index1,
 432:C:\Users\a5116938\Desktop\e2_studio_workspace\EEMBC_final\RX65N_Cloud_Kit\src/tensorflow/lite/kernels/internal\types.h ****                       const ArrayType2& array2, int index2, Args... args) {
 433:C:\Users\a5116938\Desktop\e2_studio_workspace\EEMBC_final\RX65N_Cloud_Kit\src/tensorflow/lite/kernels/internal\types.h ****   TFLITE_DCHECK_EQ(ArraySize(array1, index1), ArraySize(array2, index2));
 434:C:\Users\a5116938\Desktop\e2_studio_workspace\EEMBC_final\RX65N_Cloud_Kit\src/tensorflow/lite/kernels/internal\types.h ****   return MatchingArraySize(array1, index1, args...);
 435:C:\Users\a5116938\Desktop\e2_studio_workspace\EEMBC_final\RX65N_Cloud_Kit\src/tensorflow/lite/kernels/internal\types.h **** }
 436:C:\Users\a5116938\Desktop\e2_studio_workspace\EEMBC_final\RX65N_Cloud_Kit\src/tensorflow/lite/kernels/internal\types.h **** 
 437:C:\Users\a5116938\Desktop\e2_studio_workspace\EEMBC_final\RX65N_Cloud_Kit\src/tensorflow/lite/kernels/internal\types.h **** // Get common shape dim, DCHECKing that they all agree.
 438:C:\Users\a5116938\Desktop\e2_studio_workspace\EEMBC_final\RX65N_Cloud_Kit\src/tensorflow/lite/kernels/internal\types.h **** inline int MatchingDim(const RuntimeShape& shape1, int index1,
 439:C:\Users\a5116938\Desktop\e2_studio_workspace\EEMBC_final\RX65N_Cloud_Kit\src/tensorflow/lite/kernels/internal\types.h ****                        const RuntimeShape& shape2, int index2) {
 440:C:\Users\a5116938\Desktop\e2_studio_workspace\EEMBC_final\RX65N_Cloud_Kit\src/tensorflow/lite/kernels/internal\types.h ****   TFLITE_DCHECK_EQ(shape1.Dims(index1), shape2.Dims(index2));
 441:C:\Users\a5116938\Desktop\e2_studio_workspace\EEMBC_final\RX65N_Cloud_Kit\src/tensorflow/lite/kernels/internal\types.h ****   return std::min(shape1.Dims(index1), shape2.Dims(index2));
 442:C:\Users\a5116938\Desktop\e2_studio_workspace\EEMBC_final\RX65N_Cloud_Kit\src/tensorflow/lite/kernels/internal\types.h **** }
 443:C:\Users\a5116938\Desktop\e2_studio_workspace\EEMBC_final\RX65N_Cloud_Kit\src/tensorflow/lite/kernels/internal\types.h **** 
 444:C:\Users\a5116938\Desktop\e2_studio_workspace\EEMBC_final\RX65N_Cloud_Kit\src/tensorflow/lite/kernels/internal\types.h **** template <typename... Args>
 445:C:\Users\a5116938\Desktop\e2_studio_workspace\EEMBC_final\RX65N_Cloud_Kit\src/tensorflow/lite/kernels/internal\types.h **** int MatchingDim(const RuntimeShape& shape1, int index1,
 446:C:\Users\a5116938\Desktop\e2_studio_workspace\EEMBC_final\RX65N_Cloud_Kit\src/tensorflow/lite/kernels/internal\types.h ****                 const RuntimeShape& shape2, int index2, Args... args) {
 447:C:\Users\a5116938\Desktop\e2_studio_workspace\EEMBC_final\RX65N_Cloud_Kit\src/tensorflow/lite/kernels/internal\types.h ****   TFLITE_DCHECK_EQ(shape1.Dims(index1), shape2.Dims(index2));
 448:C:\Users\a5116938\Desktop\e2_studio_workspace\EEMBC_final\RX65N_Cloud_Kit\src/tensorflow/lite/kernels/internal\types.h ****   return MatchingDim(shape1, index1, args...);
 449:C:\Users\a5116938\Desktop\e2_studio_workspace\EEMBC_final\RX65N_Cloud_Kit\src/tensorflow/lite/kernels/internal\types.h **** }
 450:C:\Users\a5116938\Desktop\e2_studio_workspace\EEMBC_final\RX65N_Cloud_Kit\src/tensorflow/lite/kernels/internal\types.h **** 
 451:C:\Users\a5116938\Desktop\e2_studio_workspace\EEMBC_final\RX65N_Cloud_Kit\src/tensorflow/lite/kernels/internal\types.h **** // Will be phased out with Dims<4>, replaced by RuntimeShape::FlatSize().
 452:C:\Users\a5116938\Desktop\e2_studio_workspace\EEMBC_final\RX65N_Cloud_Kit\src/tensorflow/lite/kernels/internal\types.h **** template <int N>
 453:C:\Users\a5116938\Desktop\e2_studio_workspace\EEMBC_final\RX65N_Cloud_Kit\src/tensorflow/lite/kernels/internal\types.h **** inline int FlatSize(const Dims<N>& dims) {
 454:C:\Users\a5116938\Desktop\e2_studio_workspace\EEMBC_final\RX65N_Cloud_Kit\src/tensorflow/lite/kernels/internal\types.h ****   int flat_size = 1;
 455:C:\Users\a5116938\Desktop\e2_studio_workspace\EEMBC_final\RX65N_Cloud_Kit\src/tensorflow/lite/kernels/internal\types.h ****   for (int i = 0; i < N; ++i) {
 456:C:\Users\a5116938\Desktop\e2_studio_workspace\EEMBC_final\RX65N_Cloud_Kit\src/tensorflow/lite/kernels/internal\types.h ****     flat_size *= dims.sizes[i];
 457:C:\Users\a5116938\Desktop\e2_studio_workspace\EEMBC_final\RX65N_Cloud_Kit\src/tensorflow/lite/kernels/internal\types.h ****   }
 458:C:\Users\a5116938\Desktop\e2_studio_workspace\EEMBC_final\RX65N_Cloud_Kit\src/tensorflow/lite/kernels/internal\types.h ****   return flat_size;
 459:C:\Users\a5116938\Desktop\e2_studio_workspace\EEMBC_final\RX65N_Cloud_Kit\src/tensorflow/lite/kernels/internal\types.h **** }
 460:C:\Users\a5116938\Desktop\e2_studio_workspace\EEMBC_final\RX65N_Cloud_Kit\src/tensorflow/lite/kernels/internal\types.h **** 
 461:C:\Users\a5116938\Desktop\e2_studio_workspace\EEMBC_final\RX65N_Cloud_Kit\src/tensorflow/lite/kernels/internal\types.h **** TFLITE_DEPRECATED("Prefer FlatSize.")
 462:C:\Users\a5116938\Desktop\e2_studio_workspace\EEMBC_final\RX65N_Cloud_Kit\src/tensorflow/lite/kernels/internal\types.h **** inline int RequiredBufferSizeForDims(const Dims<4>& dims) {
 463:C:\Users\a5116938\Desktop\e2_studio_workspace\EEMBC_final\RX65N_Cloud_Kit\src/tensorflow/lite/kernels/internal\types.h ****   return FlatSize(dims);
 464:C:\Users\a5116938\Desktop\e2_studio_workspace\EEMBC_final\RX65N_Cloud_Kit\src/tensorflow/lite/kernels/internal\types.h **** }
 465:C:\Users\a5116938\Desktop\e2_studio_workspace\EEMBC_final\RX65N_Cloud_Kit\src/tensorflow/lite/kernels/internal\types.h **** 
 466:C:\Users\a5116938\Desktop\e2_studio_workspace\EEMBC_final\RX65N_Cloud_Kit\src/tensorflow/lite/kernels/internal\types.h **** inline int MatchingElementsSize(const RuntimeShape& shape,
 467:C:\Users\a5116938\Desktop\e2_studio_workspace\EEMBC_final\RX65N_Cloud_Kit\src/tensorflow/lite/kernels/internal\types.h ****                                 const RuntimeShape& check_shape_0) {
 468:C:\Users\a5116938\Desktop\e2_studio_workspace\EEMBC_final\RX65N_Cloud_Kit\src/tensorflow/lite/kernels/internal\types.h ****   const int size_1 = shape.FlatSize();
 469:C:\Users\a5116938\Desktop\e2_studio_workspace\EEMBC_final\RX65N_Cloud_Kit\src/tensorflow/lite/kernels/internal\types.h ****   const int size_2 = check_shape_0.FlatSize();
 470:C:\Users\a5116938\Desktop\e2_studio_workspace\EEMBC_final\RX65N_Cloud_Kit\src/tensorflow/lite/kernels/internal\types.h ****   TFLITE_CHECK_EQ(size_1, size_2);
 471:C:\Users\a5116938\Desktop\e2_studio_workspace\EEMBC_final\RX65N_Cloud_Kit\src/tensorflow/lite/kernels/internal\types.h ****   return size_1;
 472:C:\Users\a5116938\Desktop\e2_studio_workspace\EEMBC_final\RX65N_Cloud_Kit\src/tensorflow/lite/kernels/internal\types.h **** }
 473:C:\Users\a5116938\Desktop\e2_studio_workspace\EEMBC_final\RX65N_Cloud_Kit\src/tensorflow/lite/kernels/internal\types.h **** 
 474:C:\Users\a5116938\Desktop\e2_studio_workspace\EEMBC_final\RX65N_Cloud_Kit\src/tensorflow/lite/kernels/internal\types.h **** inline int MatchingElementsSize(const RuntimeShape& shape,
 475:C:\Users\a5116938\Desktop\e2_studio_workspace\EEMBC_final\RX65N_Cloud_Kit\src/tensorflow/lite/kernels/internal\types.h ****                                 const RuntimeShape& check_shape_0,
 476:C:\Users\a5116938\Desktop\e2_studio_workspace\EEMBC_final\RX65N_Cloud_Kit\src/tensorflow/lite/kernels/internal\types.h ****                                 const RuntimeShape& check_shape_1) {
 477:C:\Users\a5116938\Desktop\e2_studio_workspace\EEMBC_final\RX65N_Cloud_Kit\src/tensorflow/lite/kernels/internal\types.h ****   const int size_1 = shape.FlatSize();
 478:C:\Users\a5116938\Desktop\e2_studio_workspace\EEMBC_final\RX65N_Cloud_Kit\src/tensorflow/lite/kernels/internal\types.h ****   const int size_2 = check_shape_0.FlatSize();
 479:C:\Users\a5116938\Desktop\e2_studio_workspace\EEMBC_final\RX65N_Cloud_Kit\src/tensorflow/lite/kernels/internal\types.h ****   const int size_3 = check_shape_1.FlatSize();
 480:C:\Users\a5116938\Desktop\e2_studio_workspace\EEMBC_final\RX65N_Cloud_Kit\src/tensorflow/lite/kernels/internal\types.h ****   TFLITE_CHECK_EQ(size_1, size_2);
 481:C:\Users\a5116938\Desktop\e2_studio_workspace\EEMBC_final\RX65N_Cloud_Kit\src/tensorflow/lite/kernels/internal\types.h ****   TFLITE_CHECK_EQ(size_2, size_3);
 482:C:\Users\a5116938\Desktop\e2_studio_workspace\EEMBC_final\RX65N_Cloud_Kit\src/tensorflow/lite/kernels/internal\types.h ****   return size_1;
 483:C:\Users\a5116938\Desktop\e2_studio_workspace\EEMBC_final\RX65N_Cloud_Kit\src/tensorflow/lite/kernels/internal\types.h **** }
 484:C:\Users\a5116938\Desktop\e2_studio_workspace\EEMBC_final\RX65N_Cloud_Kit\src/tensorflow/lite/kernels/internal\types.h **** 
 485:C:\Users\a5116938\Desktop\e2_studio_workspace\EEMBC_final\RX65N_Cloud_Kit\src/tensorflow/lite/kernels/internal\types.h **** // Flat size calculation, checking that dimensions match with one or more other
 486:C:\Users\a5116938\Desktop\e2_studio_workspace\EEMBC_final\RX65N_Cloud_Kit\src/tensorflow/lite/kernels/internal\types.h **** // arrays.
 487:C:\Users\a5116938\Desktop\e2_studio_workspace\EEMBC_final\RX65N_Cloud_Kit\src/tensorflow/lite/kernels/internal\types.h **** inline int MatchingFlatSize(const RuntimeShape& shape,
 488:C:\Users\a5116938\Desktop\e2_studio_workspace\EEMBC_final\RX65N_Cloud_Kit\src/tensorflow/lite/kernels/internal\types.h ****                             const RuntimeShape& check_shape_0) {
 489:C:\Users\a5116938\Desktop\e2_studio_workspace\EEMBC_final\RX65N_Cloud_Kit\src/tensorflow/lite/kernels/internal\types.h ****   TFLITE_DCHECK_EQ(shape.DimensionsCount(), check_shape_0.DimensionsCount());
 426                             		.loc 5 489 3
 427 0048 A9 87                   		mov.L	24[r0], r7
 428                             	.LVL56:
 429                             	.LBE94:
 430                             	.LBE93:
 431                             	.LBE92:
 432                             	.LBE91:
 194:C:\Users\a5116938\Desktop\e2_studio_workspace\EEMBC_final\RX65N_Cloud_Kit\src/tensorflow/lite/kernels/internal\types.h ****   inline int32_t Dims(int i) const {
 433                             		.loc 5 194 44
 434                             	.LBB190:
 435                             	.LBB185:
 436                             	.LBB174:
 437                             	.LBB169:
 438                             		.loc 5 489 3 is_stmt 0
 439 004a EC 08                   		mov.L	[r0], r8
 440                             	.LVL57:
 441                             	.LBE169:
 442                             	.LBE174:
 443                             	.LBE185:
 444                             	.LBE190:
 194:C:\Users\a5116938\Desktop\e2_studio_workspace\EEMBC_final\RX65N_Cloud_Kit\src/tensorflow/lite/kernels/internal\types.h ****   inline int32_t Dims(int i) const {
 445                             		.loc 5 194 44 is_stmt 1
 446                             	.LBB191:
 447                             	.LBB186:
 448                             	.LBB175:
 449                             	.LBB170:
 450                             		.loc 5 489 3 is_stmt 0
 451 004c 47 87                   		cmp	r8, r7
 452 004e 3B EA 00                		bne	.L27
 453                             	.LVL58:
 454                             	.LBB95:
 490:C:\Users\a5116938\Desktop\e2_studio_workspace\EEMBC_final\RX65N_Cloud_Kit\src/tensorflow/lite/kernels/internal\types.h ****   const int dims_count = shape.DimensionsCount();
 491:C:\Users\a5116938\Desktop\e2_studio_workspace\EEMBC_final\RX65N_Cloud_Kit\src/tensorflow/lite/kernels/internal\types.h ****   for (int i = 0; i < dims_count; ++i) {
 455                             		.loc 5 491 21
 456 0051 61 07                   		cmp	#0, r7
 457 0053 2A 05 38 FA 00          		ble	.L29
 458                             	.LBB96:
 459                             	.LBB97:
 198:C:\Users\a5116938\Desktop\e2_studio_workspace\EEMBC_final\RX65N_Cloud_Kit\src/tensorflow/lite/kernels/internal\types.h ****   }
 460                             		.loc 5 198 36
 461 0058 ED 0B 07                		mov.L	28[r0], r11
 462                             	.LBE97:
 463                             	.LBE96:
 464                             	.LBB111:
 465                             	.LBB112:
 466 005b ED 09 01                		mov.L	4[r0], r9
 467                             	.LBE112:
 468                             	.LBE111:
 469                             	.LBB125:
 470                             	.LBB98:
 471 005e EF B3                   		mov.L	r11, r3
 472 0060 61 57                   		cmp	#5, r7
 473 0062 2A 05 38 9B 00          		ble	.L68
 474                             	.LBE98:
 475                             	.LBE125:
 492:C:\Users\a5116938\Desktop\e2_studio_workspace\EEMBC_final\RX65N_Cloud_Kit\src/tensorflow/lite/kernels/internal\types.h ****     TFLITE_DCHECK_EQ(shape.Dims(i), check_shape_0.Dims(i));
 476                             		.loc 5 492 5 is_stmt 1
 477                             	.LVL59:
 478                             	.LBB126:
 479                             	.LBB99:
 196:C:\Users\a5116938\Desktop\e2_studio_workspace\EEMBC_final\RX65N_Cloud_Kit\src/tensorflow/lite/kernels/internal\types.h ****     TFLITE_DCHECK_LT(i, size_);
 480                             		.loc 5 196 5
 197:C:\Users\a5116938\Desktop\e2_studio_workspace\EEMBC_final\RX65N_Cloud_Kit\src/tensorflow/lite/kernels/internal\types.h ****     return size_ > kMaxSmallSize ? dims_pointer_[i] : dims_[i];
 481                             		.loc 5 197 5
 198:C:\Users\a5116938\Desktop\e2_studio_workspace\EEMBC_final\RX65N_Cloud_Kit\src/tensorflow/lite/kernels/internal\types.h ****   }
 482                             		.loc 5 198 5
 483                             	.LBE99:
 484                             	.LBE126:
 485                             	.LBB127:
 486                             	.LBB113:
 196:C:\Users\a5116938\Desktop\e2_studio_workspace\EEMBC_final\RX65N_Cloud_Kit\src/tensorflow/lite/kernels/internal\types.h ****     TFLITE_DCHECK_LT(i, size_);
 487                             		.loc 5 196 5
 197:C:\Users\a5116938\Desktop\e2_studio_workspace\EEMBC_final\RX65N_Cloud_Kit\src/tensorflow/lite/kernels/internal\types.h ****     return size_ > kMaxSmallSize ? dims_pointer_[i] : dims_[i];
 488                             		.loc 5 197 5
 489                             	.LBE113:
 490                             	.LBE127:
 491                             		.loc 5 492 5 is_stmt 0
 492 0067 EC 95                   		mov.L	[r9], r5
 493 0069 06 84 B5                		cmp	[r11].L, r5
 494 006c 3B CC 00                		bne	.L27
 495                             	.LVL60:
 496                             		.loc 5 492 5 is_stmt 1
 497                             	.LBB128:
 498                             	.LBB100:
 196:C:\Users\a5116938\Desktop\e2_studio_workspace\EEMBC_final\RX65N_Cloud_Kit\src/tensorflow/lite/kernels/internal\types.h ****     TFLITE_DCHECK_LT(i, size_);
 499                             		.loc 5 196 5
 197:C:\Users\a5116938\Desktop\e2_studio_workspace\EEMBC_final\RX65N_Cloud_Kit\src/tensorflow/lite/kernels/internal\types.h ****     return size_ > kMaxSmallSize ? dims_pointer_[i] : dims_[i];
 500                             		.loc 5 197 5
 198:C:\Users\a5116938\Desktop\e2_studio_workspace\EEMBC_final\RX65N_Cloud_Kit\src/tensorflow/lite/kernels/internal\types.h ****   }
 501                             		.loc 5 198 5
 502                             	.LBE100:
 503                             	.LBE128:
 504                             	.LBB129:
 505                             	.LBB114:
 196:C:\Users\a5116938\Desktop\e2_studio_workspace\EEMBC_final\RX65N_Cloud_Kit\src/tensorflow/lite/kernels/internal\types.h ****     TFLITE_DCHECK_LT(i, size_);
 506                             		.loc 5 196 5
 197:C:\Users\a5116938\Desktop\e2_studio_workspace\EEMBC_final\RX65N_Cloud_Kit\src/tensorflow/lite/kernels/internal\types.h ****     return size_ > kMaxSmallSize ? dims_pointer_[i] : dims_[i];
 507                             		.loc 5 197 5
 508                             	.LBE114:
 509                             	.LBE129:
 510                             		.loc 5 492 5 is_stmt 0
 511 006f ED B5 01                		mov.L	4[r11], r5
 512 0072 06 85 95 01             		cmp	4[r9].L, r5
 513 0076 3B C2 00                		bne	.L27
 514                             	.LVL61:
 515                             		.loc 5 492 5 is_stmt 1
 516                             	.LBB130:
 517                             	.LBB101:
 196:C:\Users\a5116938\Desktop\e2_studio_workspace\EEMBC_final\RX65N_Cloud_Kit\src/tensorflow/lite/kernels/internal\types.h ****     TFLITE_DCHECK_LT(i, size_);
 518                             		.loc 5 196 5
 197:C:\Users\a5116938\Desktop\e2_studio_workspace\EEMBC_final\RX65N_Cloud_Kit\src/tensorflow/lite/kernels/internal\types.h ****     return size_ > kMaxSmallSize ? dims_pointer_[i] : dims_[i];
 519                             		.loc 5 197 5
 198:C:\Users\a5116938\Desktop\e2_studio_workspace\EEMBC_final\RX65N_Cloud_Kit\src/tensorflow/lite/kernels/internal\types.h ****   }
 520                             		.loc 5 198 5
 521                             	.LBE101:
 522                             	.LBE130:
 523                             	.LBB131:
 524                             	.LBB115:
 196:C:\Users\a5116938\Desktop\e2_studio_workspace\EEMBC_final\RX65N_Cloud_Kit\src/tensorflow/lite/kernels/internal\types.h ****     TFLITE_DCHECK_LT(i, size_);
 525                             		.loc 5 196 5
 197:C:\Users\a5116938\Desktop\e2_studio_workspace\EEMBC_final\RX65N_Cloud_Kit\src/tensorflow/lite/kernels/internal\types.h ****     return size_ > kMaxSmallSize ? dims_pointer_[i] : dims_[i];
 526                             		.loc 5 197 5
 527                             	.LBE115:
 528                             	.LBE131:
 529                             		.loc 5 492 5 is_stmt 0
 530 0079 ED B5 02                		mov.L	8[r11], r5
 531 007c 06 85 95 02             		cmp	8[r9].L, r5
 532 0080 3B B8 00                		bne	.L27
 533                             	.LVL62:
 534                             		.loc 5 492 5 is_stmt 1
 535                             	.LBB132:
 536                             	.LBB102:
 196:C:\Users\a5116938\Desktop\e2_studio_workspace\EEMBC_final\RX65N_Cloud_Kit\src/tensorflow/lite/kernels/internal\types.h ****     TFLITE_DCHECK_LT(i, size_);
 537                             		.loc 5 196 5
 197:C:\Users\a5116938\Desktop\e2_studio_workspace\EEMBC_final\RX65N_Cloud_Kit\src/tensorflow/lite/kernels/internal\types.h ****     return size_ > kMaxSmallSize ? dims_pointer_[i] : dims_[i];
 538                             		.loc 5 197 5
 198:C:\Users\a5116938\Desktop\e2_studio_workspace\EEMBC_final\RX65N_Cloud_Kit\src/tensorflow/lite/kernels/internal\types.h ****   }
 539                             		.loc 5 198 5
 540                             	.LBE102:
 541                             	.LBE132:
 542                             	.LBB133:
 543                             	.LBB116:
 196:C:\Users\a5116938\Desktop\e2_studio_workspace\EEMBC_final\RX65N_Cloud_Kit\src/tensorflow/lite/kernels/internal\types.h ****     TFLITE_DCHECK_LT(i, size_);
 544                             		.loc 5 196 5
 197:C:\Users\a5116938\Desktop\e2_studio_workspace\EEMBC_final\RX65N_Cloud_Kit\src/tensorflow/lite/kernels/internal\types.h ****     return size_ > kMaxSmallSize ? dims_pointer_[i] : dims_[i];
 545                             		.loc 5 197 5
 546                             	.LBE116:
 547                             	.LBE133:
 548                             		.loc 5 492 5 is_stmt 0
 549 0083 ED B5 03                		mov.L	12[r11], r5
 550 0086 06 85 95 03             		cmp	12[r9].L, r5
 551 008a 3B AE 00                		bne	.L27
 552                             	.LVL63:
 553                             		.loc 5 492 5 is_stmt 1
 554                             	.LBB134:
 555                             	.LBB103:
 196:C:\Users\a5116938\Desktop\e2_studio_workspace\EEMBC_final\RX65N_Cloud_Kit\src/tensorflow/lite/kernels/internal\types.h ****     TFLITE_DCHECK_LT(i, size_);
 556                             		.loc 5 196 5
 197:C:\Users\a5116938\Desktop\e2_studio_workspace\EEMBC_final\RX65N_Cloud_Kit\src/tensorflow/lite/kernels/internal\types.h ****     return size_ > kMaxSmallSize ? dims_pointer_[i] : dims_[i];
 557                             		.loc 5 197 5
 198:C:\Users\a5116938\Desktop\e2_studio_workspace\EEMBC_final\RX65N_Cloud_Kit\src/tensorflow/lite/kernels/internal\types.h ****   }
 558                             		.loc 5 198 5
 559                             	.LBE103:
 560                             	.LBE134:
 561                             	.LBB135:
 562                             	.LBB117:
 196:C:\Users\a5116938\Desktop\e2_studio_workspace\EEMBC_final\RX65N_Cloud_Kit\src/tensorflow/lite/kernels/internal\types.h ****     TFLITE_DCHECK_LT(i, size_);
 563                             		.loc 5 196 5
 197:C:\Users\a5116938\Desktop\e2_studio_workspace\EEMBC_final\RX65N_Cloud_Kit\src/tensorflow/lite/kernels/internal\types.h ****     return size_ > kMaxSmallSize ? dims_pointer_[i] : dims_[i];
 564                             		.loc 5 197 5
 565                             	.LBE117:
 566                             	.LBE135:
 567                             		.loc 5 492 5 is_stmt 0
 568 008d ED B5 04                		mov.L	16[r11], r5
 569 0090 06 85 95 04             		cmp	16[r9].L, r5
 570 0094 3B A4 00                		bne	.L27
 571                             	.LVL64:
 572                             		.loc 5 492 5 is_stmt 1
 573                             	.LBB136:
 574                             	.LBB104:
 196:C:\Users\a5116938\Desktop\e2_studio_workspace\EEMBC_final\RX65N_Cloud_Kit\src/tensorflow/lite/kernels/internal\types.h ****     TFLITE_DCHECK_LT(i, size_);
 575                             		.loc 5 196 5
 197:C:\Users\a5116938\Desktop\e2_studio_workspace\EEMBC_final\RX65N_Cloud_Kit\src/tensorflow/lite/kernels/internal\types.h ****     return size_ > kMaxSmallSize ? dims_pointer_[i] : dims_[i];
 576                             		.loc 5 197 5
 198:C:\Users\a5116938\Desktop\e2_studio_workspace\EEMBC_final\RX65N_Cloud_Kit\src/tensorflow/lite/kernels/internal\types.h ****   }
 577                             		.loc 5 198 5
 578                             	.LBE104:
 579                             	.LBE136:
 580                             	.LBB137:
 581                             	.LBB118:
 196:C:\Users\a5116938\Desktop\e2_studio_workspace\EEMBC_final\RX65N_Cloud_Kit\src/tensorflow/lite/kernels/internal\types.h ****     TFLITE_DCHECK_LT(i, size_);
 582                             		.loc 5 196 5
 197:C:\Users\a5116938\Desktop\e2_studio_workspace\EEMBC_final\RX65N_Cloud_Kit\src/tensorflow/lite/kernels/internal\types.h ****     return size_ > kMaxSmallSize ? dims_pointer_[i] : dims_[i];
 583                             		.loc 5 197 5
 584                             	.LBE118:
 585                             	.LBE137:
 586                             		.loc 5 492 5 is_stmt 0
 587 0097 ED B5 05                		mov.L	20[r11], r5
 588 009a 06 85 95 05             		cmp	20[r9].L, r5
 589 009e 3B 9A 00                		bne	.L27
 590                             	.LVL65:
 491:C:\Users\a5116938\Desktop\e2_studio_workspace\EEMBC_final\RX65N_Cloud_Kit\src/tensorflow/lite/kernels/internal\types.h ****     TFLITE_DCHECK_EQ(shape.Dims(i), check_shape_0.Dims(i));
 591                             		.loc 5 491 21
 592 00a1 61 67                   		cmp	#6, r7
 593 00a3 20 1B                   		beq	.L31
 491:C:\Users\a5116938\Desktop\e2_studio_workspace\EEMBC_final\RX65N_Cloud_Kit\src/tensorflow/lite/kernels/internal\types.h ****     TFLITE_DCHECK_EQ(shape.Dims(i), check_shape_0.Dims(i));
 594                             		.loc 5 491 3
 595 00a5 66 65                   		mov.L	#6, r5
 596                             	.LVL66:
 597 00a7 03                      		.balign 8,3,3
 598                             	.L32:
 599                             		.loc 5 492 5 is_stmt 1
 600                             	.LBB138:
 601                             	.LBB105:
 196:C:\Users\a5116938\Desktop\e2_studio_workspace\EEMBC_final\RX65N_Cloud_Kit\src/tensorflow/lite/kernels/internal\types.h ****     TFLITE_DCHECK_LT(i, size_);
 602                             		.loc 5 196 5
 197:C:\Users\a5116938\Desktop\e2_studio_workspace\EEMBC_final\RX65N_Cloud_Kit\src/tensorflow/lite/kernels/internal\types.h ****     return size_ > kMaxSmallSize ? dims_pointer_[i] : dims_[i];
 603                             		.loc 5 197 5
 198:C:\Users\a5116938\Desktop\e2_studio_workspace\EEMBC_final\RX65N_Cloud_Kit\src/tensorflow/lite/kernels/internal\types.h ****   }
 604                             		.loc 5 198 5
 198:C:\Users\a5116938\Desktop\e2_studio_workspace\EEMBC_final\RX65N_Cloud_Kit\src/tensorflow/lite/kernels/internal\types.h ****   }
 605                             		.loc 5 198 34 is_stmt 0
 606 00a8 FE 65 B4                		mov.L	[r5,r11], r4
 607                             	.LVL67:
 608                             	.LBE105:
 609                             	.LBE138:
 610                             	.LBB139:
 611                             	.LBB119:
 196:C:\Users\a5116938\Desktop\e2_studio_workspace\EEMBC_final\RX65N_Cloud_Kit\src/tensorflow/lite/kernels/internal\types.h ****     TFLITE_DCHECK_LT(i, size_);
 612                             		.loc 5 196 5 is_stmt 1
 197:C:\Users\a5116938\Desktop\e2_studio_workspace\EEMBC_final\RX65N_Cloud_Kit\src/tensorflow/lite/kernels/internal\types.h ****     return size_ > kMaxSmallSize ? dims_pointer_[i] : dims_[i];
 613                             		.loc 5 197 5
 614 00ab 47 58                   		cmp	r5, r8
 615 00ad 3A 8B 00                		beq	.L27
 616                             	.LVL68:
 617                             	.LBE119:
 618                             	.LBE139:
 619                             		.loc 5 492 5 is_stmt 0
 620 00b0 FE 65 92                		mov.L	[r5,r9], r2
 621 00b3 47 42                   		cmp	r4, r2
 622 00b5 3B 83 00                		bne	.L27
 491:C:\Users\a5116938\Desktop\e2_studio_workspace\EEMBC_final\RX65N_Cloud_Kit\src/tensorflow/lite/kernels/internal\types.h ****     TFLITE_DCHECK_EQ(shape.Dims(i), check_shape_0.Dims(i));
 623                             		.loc 5 491 3
 624 00b8 62 15                   		add	#1, r5
 625                             	.LVL69:
 491:C:\Users\a5116938\Desktop\e2_studio_workspace\EEMBC_final\RX65N_Cloud_Kit\src/tensorflow/lite/kernels/internal\types.h ****     TFLITE_DCHECK_EQ(shape.Dims(i), check_shape_0.Dims(i));
 626                             		.loc 5 491 21
 627 00ba 47 57                   		cmp	r5, r7
 628 00bc 21 EC                   		bne	.L32
 629                             	.LVL70:
 630                             		.balign 8,3,1
 631                             	.L31:
 632                             	.LBE95:
 633                             	.LBB150:
 634                             	.LBB151:
 635                             	.LBB152:
 636                             	.LBB153:
 214:C:\Users\a5116938\Desktop\e2_studio_workspace\EEMBC_final\RX65N_Cloud_Kit\src/tensorflow/lite/kernels/internal\types.h ****   }
 637                             		.loc 5 214 34
 638 00be 66 15                   		mov.L	#1, r5
 639 00c0 66 04                   		mov.L	#0, r4
 640                             		.balign 8,3,3
 641                             	.L37:
 642                             	.LVL71:
 643                             	.LBE153:
 644                             	.LBE152:
 645                             	.LBB157:
 275:C:\Users\a5116938\Desktop\e2_studio_workspace\EEMBC_final\RX65N_Cloud_Kit\src/tensorflow/lite/kernels/internal\types.h ****     }
 646                             		.loc 5 275 7 is_stmt 1
 275:C:\Users\a5116938\Desktop\e2_studio_workspace\EEMBC_final\RX65N_Cloud_Kit\src/tensorflow/lite/kernels/internal\types.h ****     }
 647                             		.loc 5 275 19 is_stmt 0
 648 00c2 FE 64 32                		mov.L	[r4,r3], r2
 274:C:\Users\a5116938\Desktop\e2_studio_workspace\EEMBC_final\RX65N_Cloud_Kit\src/tensorflow/lite/kernels/internal\types.h ****       buffer_size *= dims_data[i];
 649                             		.loc 5 274 5
 650 00c5 62 14                   		add	#1, r4
 651                             	.LVL72:
 275:C:\Users\a5116938\Desktop\e2_studio_workspace\EEMBC_final\RX65N_Cloud_Kit\src/tensorflow/lite/kernels/internal\types.h ****     }
 652                             		.loc 5 275 19
 653 00c7 4F 25                   		mul	r2, r5
 654                             	.LVL73:
 274:C:\Users\a5116938\Desktop\e2_studio_workspace\EEMBC_final\RX65N_Cloud_Kit\src/tensorflow/lite/kernels/internal\types.h ****       buffer_size *= dims_data[i];
 655                             		.loc 5 274 23
 656 00c9 47 47                   		cmp	r4, r7
 657 00cb 2A F7                   		bgt	.L37
 658                             	.LVL74:
 659                             	.LBE157:
 660                             	.LBE151:
 661                             	.LBE150:
 662                             	.LBE170:
 663                             	.LBE175:
 664                             	.LBB176:
  29:C:\Users\a5116938\Desktop\e2_studio_workspace\EEMBC_final\RX65N_Cloud_Kit\src/tensorflow/lite/kernels/internal/reference\ceil.h **** 
  30:C:\Users\a5116938\Desktop\e2_studio_workspace\EEMBC_final\RX65N_Cloud_Kit\src/tensorflow/lite/kernels/internal/reference\ceil.h ****   for (int i = 0; i < flat_size; ++i) {
 665                             		.loc 4 30 21
 666 00cd 61 05                   		cmp	#0, r5
 667 00cf 2B 17                   		ble	.L38
 668 00d1 6C 25                   		shll	#2, r5
 669                             	.LVL75:
 670 00d3 FF 26 5C                		add	r5, r12, r6
 671                             	.LVL76:
 672 00d6 EF 00                   		.balign 8,3,3
 673                             	.L39:
  31:C:\Users\a5116938\Desktop\e2_studio_workspace\EEMBC_final\RX65N_Cloud_Kit\src/tensorflow/lite/kernels/internal/reference\ceil.h ****     output_data[i] = std::ceil(input_data[i]);
 674                             		.loc 4 31 5 is_stmt 1
 675                             	.LBB177:
 676                             	.LBB178:
 677                             		.file 6 "c:\\gcc for renesas rx 8.3.0.202004-gnurx-elf\\rx-elf\\rx-elf\\rx-elf\\include\\c++\\8.3.
   1:c:\gcc for renesas rx 8.3.0.202004-gnurx-elf\rx-elf\rx-elf\rx-elf\include\c++\8.3.0.202004-gnurx\cmath **** // -*- C++ -*- C forwarding header.
   2:c:\gcc for renesas rx 8.3.0.202004-gnurx-elf\rx-elf\rx-elf\rx-elf\include\c++\8.3.0.202004-gnurx\cmath **** 
   3:c:\gcc for renesas rx 8.3.0.202004-gnurx-elf\rx-elf\rx-elf\rx-elf\include\c++\8.3.0.202004-gnurx\cmath **** // Copyright (C) 1997-2018 Free Software Foundation, Inc.
   4:c:\gcc for renesas rx 8.3.0.202004-gnurx-elf\rx-elf\rx-elf\rx-elf\include\c++\8.3.0.202004-gnurx\cmath **** //
   5:c:\gcc for renesas rx 8.3.0.202004-gnurx-elf\rx-elf\rx-elf\rx-elf\include\c++\8.3.0.202004-gnurx\cmath **** // This file is part of the GNU ISO C++ Library.  This library is free
   6:c:\gcc for renesas rx 8.3.0.202004-gnurx-elf\rx-elf\rx-elf\rx-elf\include\c++\8.3.0.202004-gnurx\cmath **** // software; you can redistribute it and/or modify it under the
   7:c:\gcc for renesas rx 8.3.0.202004-gnurx-elf\rx-elf\rx-elf\rx-elf\include\c++\8.3.0.202004-gnurx\cmath **** // terms of the GNU General Public License as published by the
   8:c:\gcc for renesas rx 8.3.0.202004-gnurx-elf\rx-elf\rx-elf\rx-elf\include\c++\8.3.0.202004-gnurx\cmath **** // Free Software Foundation; either version 3, or (at your option)
   9:c:\gcc for renesas rx 8.3.0.202004-gnurx-elf\rx-elf\rx-elf\rx-elf\include\c++\8.3.0.202004-gnurx\cmath **** // any later version.
  10:c:\gcc for renesas rx 8.3.0.202004-gnurx-elf\rx-elf\rx-elf\rx-elf\include\c++\8.3.0.202004-gnurx\cmath **** 
  11:c:\gcc for renesas rx 8.3.0.202004-gnurx-elf\rx-elf\rx-elf\rx-elf\include\c++\8.3.0.202004-gnurx\cmath **** // This library is distributed in the hope that it will be useful,
  12:c:\gcc for renesas rx 8.3.0.202004-gnurx-elf\rx-elf\rx-elf\rx-elf\include\c++\8.3.0.202004-gnurx\cmath **** // but WITHOUT ANY WARRANTY; without even the implied warranty of
  13:c:\gcc for renesas rx 8.3.0.202004-gnurx-elf\rx-elf\rx-elf\rx-elf\include\c++\8.3.0.202004-gnurx\cmath **** // MERCHANTABILITY or FITNESS FOR A PARTICULAR PURPOSE.  See the
  14:c:\gcc for renesas rx 8.3.0.202004-gnurx-elf\rx-elf\rx-elf\rx-elf\include\c++\8.3.0.202004-gnurx\cmath **** // GNU General Public License for more details.
  15:c:\gcc for renesas rx 8.3.0.202004-gnurx-elf\rx-elf\rx-elf\rx-elf\include\c++\8.3.0.202004-gnurx\cmath **** 
  16:c:\gcc for renesas rx 8.3.0.202004-gnurx-elf\rx-elf\rx-elf\rx-elf\include\c++\8.3.0.202004-gnurx\cmath **** // Under Section 7 of GPL version 3, you are granted additional
  17:c:\gcc for renesas rx 8.3.0.202004-gnurx-elf\rx-elf\rx-elf\rx-elf\include\c++\8.3.0.202004-gnurx\cmath **** // permissions described in the GCC Runtime Library Exception, version
  18:c:\gcc for renesas rx 8.3.0.202004-gnurx-elf\rx-elf\rx-elf\rx-elf\include\c++\8.3.0.202004-gnurx\cmath **** // 3.1, as published by the Free Software Foundation.
  19:c:\gcc for renesas rx 8.3.0.202004-gnurx-elf\rx-elf\rx-elf\rx-elf\include\c++\8.3.0.202004-gnurx\cmath **** 
  20:c:\gcc for renesas rx 8.3.0.202004-gnurx-elf\rx-elf\rx-elf\rx-elf\include\c++\8.3.0.202004-gnurx\cmath **** // You should have received a copy of the GNU General Public License and
  21:c:\gcc for renesas rx 8.3.0.202004-gnurx-elf\rx-elf\rx-elf\rx-elf\include\c++\8.3.0.202004-gnurx\cmath **** // a copy of the GCC Runtime Library Exception along with this program;
  22:c:\gcc for renesas rx 8.3.0.202004-gnurx-elf\rx-elf\rx-elf\rx-elf\include\c++\8.3.0.202004-gnurx\cmath **** // see the files COPYING3 and COPYING.RUNTIME respectively.  If not, see
  23:c:\gcc for renesas rx 8.3.0.202004-gnurx-elf\rx-elf\rx-elf\rx-elf\include\c++\8.3.0.202004-gnurx\cmath **** // <http://www.gnu.org/licenses/>.
  24:c:\gcc for renesas rx 8.3.0.202004-gnurx-elf\rx-elf\rx-elf\rx-elf\include\c++\8.3.0.202004-gnurx\cmath **** 
  25:c:\gcc for renesas rx 8.3.0.202004-gnurx-elf\rx-elf\rx-elf\rx-elf\include\c++\8.3.0.202004-gnurx\cmath **** /** @file include/cmath
  26:c:\gcc for renesas rx 8.3.0.202004-gnurx-elf\rx-elf\rx-elf\rx-elf\include\c++\8.3.0.202004-gnurx\cmath ****  *  This is a Standard C++ Library file.  You should @c \#include this file
  27:c:\gcc for renesas rx 8.3.0.202004-gnurx-elf\rx-elf\rx-elf\rx-elf\include\c++\8.3.0.202004-gnurx\cmath ****  *  in your programs, rather than any of the @a *.h implementation files.
  28:c:\gcc for renesas rx 8.3.0.202004-gnurx-elf\rx-elf\rx-elf\rx-elf\include\c++\8.3.0.202004-gnurx\cmath ****  *
  29:c:\gcc for renesas rx 8.3.0.202004-gnurx-elf\rx-elf\rx-elf\rx-elf\include\c++\8.3.0.202004-gnurx\cmath ****  *  This is the C++ version of the Standard C Library header @c math.h,
  30:c:\gcc for renesas rx 8.3.0.202004-gnurx-elf\rx-elf\rx-elf\rx-elf\include\c++\8.3.0.202004-gnurx\cmath ****  *  and its contents are (mostly) the same as that header, but are all
  31:c:\gcc for renesas rx 8.3.0.202004-gnurx-elf\rx-elf\rx-elf\rx-elf\include\c++\8.3.0.202004-gnurx\cmath ****  *  contained in the namespace @c std (except for names which are defined
  32:c:\gcc for renesas rx 8.3.0.202004-gnurx-elf\rx-elf\rx-elf\rx-elf\include\c++\8.3.0.202004-gnurx\cmath ****  *  as macros in C).
  33:c:\gcc for renesas rx 8.3.0.202004-gnurx-elf\rx-elf\rx-elf\rx-elf\include\c++\8.3.0.202004-gnurx\cmath ****  */
  34:c:\gcc for renesas rx 8.3.0.202004-gnurx-elf\rx-elf\rx-elf\rx-elf\include\c++\8.3.0.202004-gnurx\cmath **** 
  35:c:\gcc for renesas rx 8.3.0.202004-gnurx-elf\rx-elf\rx-elf\rx-elf\include\c++\8.3.0.202004-gnurx\cmath **** //
  36:c:\gcc for renesas rx 8.3.0.202004-gnurx-elf\rx-elf\rx-elf\rx-elf\include\c++\8.3.0.202004-gnurx\cmath **** // ISO C++ 14882: 26.5  C library
  37:c:\gcc for renesas rx 8.3.0.202004-gnurx-elf\rx-elf\rx-elf\rx-elf\include\c++\8.3.0.202004-gnurx\cmath **** //
  38:c:\gcc for renesas rx 8.3.0.202004-gnurx-elf\rx-elf\rx-elf\rx-elf\include\c++\8.3.0.202004-gnurx\cmath **** 
  39:c:\gcc for renesas rx 8.3.0.202004-gnurx-elf\rx-elf\rx-elf\rx-elf\include\c++\8.3.0.202004-gnurx\cmath **** #pragma GCC system_header
  40:c:\gcc for renesas rx 8.3.0.202004-gnurx-elf\rx-elf\rx-elf\rx-elf\include\c++\8.3.0.202004-gnurx\cmath **** 
  41:c:\gcc for renesas rx 8.3.0.202004-gnurx-elf\rx-elf\rx-elf\rx-elf\include\c++\8.3.0.202004-gnurx\cmath **** #include <bits/c++config.h>
  42:c:\gcc for renesas rx 8.3.0.202004-gnurx-elf\rx-elf\rx-elf\rx-elf\include\c++\8.3.0.202004-gnurx\cmath **** #include <bits/cpp_type_traits.h>
  43:c:\gcc for renesas rx 8.3.0.202004-gnurx-elf\rx-elf\rx-elf\rx-elf\include\c++\8.3.0.202004-gnurx\cmath **** #include <ext/type_traits.h>
  44:c:\gcc for renesas rx 8.3.0.202004-gnurx-elf\rx-elf\rx-elf\rx-elf\include\c++\8.3.0.202004-gnurx\cmath **** #define _GLIBCXX_INCLUDE_NEXT_C_HEADERS
  45:c:\gcc for renesas rx 8.3.0.202004-gnurx-elf\rx-elf\rx-elf\rx-elf\include\c++\8.3.0.202004-gnurx\cmath **** #include_next <math.h>
  46:c:\gcc for renesas rx 8.3.0.202004-gnurx-elf\rx-elf\rx-elf\rx-elf\include\c++\8.3.0.202004-gnurx\cmath **** #undef _GLIBCXX_INCLUDE_NEXT_C_HEADERS
  47:c:\gcc for renesas rx 8.3.0.202004-gnurx-elf\rx-elf\rx-elf\rx-elf\include\c++\8.3.0.202004-gnurx\cmath **** #include <bits/std_abs.h>
  48:c:\gcc for renesas rx 8.3.0.202004-gnurx-elf\rx-elf\rx-elf\rx-elf\include\c++\8.3.0.202004-gnurx\cmath **** 
  49:c:\gcc for renesas rx 8.3.0.202004-gnurx-elf\rx-elf\rx-elf\rx-elf\include\c++\8.3.0.202004-gnurx\cmath **** #ifndef _GLIBCXX_CMATH
  50:c:\gcc for renesas rx 8.3.0.202004-gnurx-elf\rx-elf\rx-elf\rx-elf\include\c++\8.3.0.202004-gnurx\cmath **** #define _GLIBCXX_CMATH 1
  51:c:\gcc for renesas rx 8.3.0.202004-gnurx-elf\rx-elf\rx-elf\rx-elf\include\c++\8.3.0.202004-gnurx\cmath **** 
  52:c:\gcc for renesas rx 8.3.0.202004-gnurx-elf\rx-elf\rx-elf\rx-elf\include\c++\8.3.0.202004-gnurx\cmath **** // Get rid of those macros defined in <math.h> in lieu of real functions.
  53:c:\gcc for renesas rx 8.3.0.202004-gnurx-elf\rx-elf\rx-elf\rx-elf\include\c++\8.3.0.202004-gnurx\cmath **** #undef div
  54:c:\gcc for renesas rx 8.3.0.202004-gnurx-elf\rx-elf\rx-elf\rx-elf\include\c++\8.3.0.202004-gnurx\cmath **** #undef acos
  55:c:\gcc for renesas rx 8.3.0.202004-gnurx-elf\rx-elf\rx-elf\rx-elf\include\c++\8.3.0.202004-gnurx\cmath **** #undef asin
  56:c:\gcc for renesas rx 8.3.0.202004-gnurx-elf\rx-elf\rx-elf\rx-elf\include\c++\8.3.0.202004-gnurx\cmath **** #undef atan
  57:c:\gcc for renesas rx 8.3.0.202004-gnurx-elf\rx-elf\rx-elf\rx-elf\include\c++\8.3.0.202004-gnurx\cmath **** #undef atan2
  58:c:\gcc for renesas rx 8.3.0.202004-gnurx-elf\rx-elf\rx-elf\rx-elf\include\c++\8.3.0.202004-gnurx\cmath **** #undef ceil
  59:c:\gcc for renesas rx 8.3.0.202004-gnurx-elf\rx-elf\rx-elf\rx-elf\include\c++\8.3.0.202004-gnurx\cmath **** #undef cos
  60:c:\gcc for renesas rx 8.3.0.202004-gnurx-elf\rx-elf\rx-elf\rx-elf\include\c++\8.3.0.202004-gnurx\cmath **** #undef cosh
  61:c:\gcc for renesas rx 8.3.0.202004-gnurx-elf\rx-elf\rx-elf\rx-elf\include\c++\8.3.0.202004-gnurx\cmath **** #undef exp
  62:c:\gcc for renesas rx 8.3.0.202004-gnurx-elf\rx-elf\rx-elf\rx-elf\include\c++\8.3.0.202004-gnurx\cmath **** #undef fabs
  63:c:\gcc for renesas rx 8.3.0.202004-gnurx-elf\rx-elf\rx-elf\rx-elf\include\c++\8.3.0.202004-gnurx\cmath **** #undef floor
  64:c:\gcc for renesas rx 8.3.0.202004-gnurx-elf\rx-elf\rx-elf\rx-elf\include\c++\8.3.0.202004-gnurx\cmath **** #undef fmod
  65:c:\gcc for renesas rx 8.3.0.202004-gnurx-elf\rx-elf\rx-elf\rx-elf\include\c++\8.3.0.202004-gnurx\cmath **** #undef frexp
  66:c:\gcc for renesas rx 8.3.0.202004-gnurx-elf\rx-elf\rx-elf\rx-elf\include\c++\8.3.0.202004-gnurx\cmath **** #undef ldexp
  67:c:\gcc for renesas rx 8.3.0.202004-gnurx-elf\rx-elf\rx-elf\rx-elf\include\c++\8.3.0.202004-gnurx\cmath **** #undef log
  68:c:\gcc for renesas rx 8.3.0.202004-gnurx-elf\rx-elf\rx-elf\rx-elf\include\c++\8.3.0.202004-gnurx\cmath **** #undef log10
  69:c:\gcc for renesas rx 8.3.0.202004-gnurx-elf\rx-elf\rx-elf\rx-elf\include\c++\8.3.0.202004-gnurx\cmath **** #undef modf
  70:c:\gcc for renesas rx 8.3.0.202004-gnurx-elf\rx-elf\rx-elf\rx-elf\include\c++\8.3.0.202004-gnurx\cmath **** #undef pow
  71:c:\gcc for renesas rx 8.3.0.202004-gnurx-elf\rx-elf\rx-elf\rx-elf\include\c++\8.3.0.202004-gnurx\cmath **** #undef sin
  72:c:\gcc for renesas rx 8.3.0.202004-gnurx-elf\rx-elf\rx-elf\rx-elf\include\c++\8.3.0.202004-gnurx\cmath **** #undef sinh
  73:c:\gcc for renesas rx 8.3.0.202004-gnurx-elf\rx-elf\rx-elf\rx-elf\include\c++\8.3.0.202004-gnurx\cmath **** #undef sqrt
  74:c:\gcc for renesas rx 8.3.0.202004-gnurx-elf\rx-elf\rx-elf\rx-elf\include\c++\8.3.0.202004-gnurx\cmath **** #undef tan
  75:c:\gcc for renesas rx 8.3.0.202004-gnurx-elf\rx-elf\rx-elf\rx-elf\include\c++\8.3.0.202004-gnurx\cmath **** #undef tanh
  76:c:\gcc for renesas rx 8.3.0.202004-gnurx-elf\rx-elf\rx-elf\rx-elf\include\c++\8.3.0.202004-gnurx\cmath **** 
  77:c:\gcc for renesas rx 8.3.0.202004-gnurx-elf\rx-elf\rx-elf\rx-elf\include\c++\8.3.0.202004-gnurx\cmath **** extern "C++"
  78:c:\gcc for renesas rx 8.3.0.202004-gnurx-elf\rx-elf\rx-elf\rx-elf\include\c++\8.3.0.202004-gnurx\cmath **** {
  79:c:\gcc for renesas rx 8.3.0.202004-gnurx-elf\rx-elf\rx-elf\rx-elf\include\c++\8.3.0.202004-gnurx\cmath **** namespace std _GLIBCXX_VISIBILITY(default)
  80:c:\gcc for renesas rx 8.3.0.202004-gnurx-elf\rx-elf\rx-elf\rx-elf\include\c++\8.3.0.202004-gnurx\cmath **** {
  81:c:\gcc for renesas rx 8.3.0.202004-gnurx-elf\rx-elf\rx-elf\rx-elf\include\c++\8.3.0.202004-gnurx\cmath **** _GLIBCXX_BEGIN_NAMESPACE_VERSION
  82:c:\gcc for renesas rx 8.3.0.202004-gnurx-elf\rx-elf\rx-elf\rx-elf\include\c++\8.3.0.202004-gnurx\cmath **** 
  83:c:\gcc for renesas rx 8.3.0.202004-gnurx-elf\rx-elf\rx-elf\rx-elf\include\c++\8.3.0.202004-gnurx\cmath ****   using ::acos;
  84:c:\gcc for renesas rx 8.3.0.202004-gnurx-elf\rx-elf\rx-elf\rx-elf\include\c++\8.3.0.202004-gnurx\cmath **** 
  85:c:\gcc for renesas rx 8.3.0.202004-gnurx-elf\rx-elf\rx-elf\rx-elf\include\c++\8.3.0.202004-gnurx\cmath **** #ifndef __CORRECT_ISO_CPP_MATH_H_PROTO
  86:c:\gcc for renesas rx 8.3.0.202004-gnurx-elf\rx-elf\rx-elf\rx-elf\include\c++\8.3.0.202004-gnurx\cmath ****   inline _GLIBCXX_CONSTEXPR float
  87:c:\gcc for renesas rx 8.3.0.202004-gnurx-elf\rx-elf\rx-elf\rx-elf\include\c++\8.3.0.202004-gnurx\cmath ****   acos(float __x)
  88:c:\gcc for renesas rx 8.3.0.202004-gnurx-elf\rx-elf\rx-elf\rx-elf\include\c++\8.3.0.202004-gnurx\cmath ****   { return __builtin_acosf(__x); }
  89:c:\gcc for renesas rx 8.3.0.202004-gnurx-elf\rx-elf\rx-elf\rx-elf\include\c++\8.3.0.202004-gnurx\cmath **** 
  90:c:\gcc for renesas rx 8.3.0.202004-gnurx-elf\rx-elf\rx-elf\rx-elf\include\c++\8.3.0.202004-gnurx\cmath ****   inline _GLIBCXX_CONSTEXPR long double
  91:c:\gcc for renesas rx 8.3.0.202004-gnurx-elf\rx-elf\rx-elf\rx-elf\include\c++\8.3.0.202004-gnurx\cmath ****   acos(long double __x)
  92:c:\gcc for renesas rx 8.3.0.202004-gnurx-elf\rx-elf\rx-elf\rx-elf\include\c++\8.3.0.202004-gnurx\cmath ****   { return __builtin_acosl(__x); }
  93:c:\gcc for renesas rx 8.3.0.202004-gnurx-elf\rx-elf\rx-elf\rx-elf\include\c++\8.3.0.202004-gnurx\cmath **** #endif
  94:c:\gcc for renesas rx 8.3.0.202004-gnurx-elf\rx-elf\rx-elf\rx-elf\include\c++\8.3.0.202004-gnurx\cmath **** 
  95:c:\gcc for renesas rx 8.3.0.202004-gnurx-elf\rx-elf\rx-elf\rx-elf\include\c++\8.3.0.202004-gnurx\cmath ****   template<typename _Tp>
  96:c:\gcc for renesas rx 8.3.0.202004-gnurx-elf\rx-elf\rx-elf\rx-elf\include\c++\8.3.0.202004-gnurx\cmath ****     inline _GLIBCXX_CONSTEXPR
  97:c:\gcc for renesas rx 8.3.0.202004-gnurx-elf\rx-elf\rx-elf\rx-elf\include\c++\8.3.0.202004-gnurx\cmath ****     typename __gnu_cxx::__enable_if<__is_integer<_Tp>::__value, 
  98:c:\gcc for renesas rx 8.3.0.202004-gnurx-elf\rx-elf\rx-elf\rx-elf\include\c++\8.3.0.202004-gnurx\cmath ****                                     double>::__type
  99:c:\gcc for renesas rx 8.3.0.202004-gnurx-elf\rx-elf\rx-elf\rx-elf\include\c++\8.3.0.202004-gnurx\cmath ****     acos(_Tp __x)
 100:c:\gcc for renesas rx 8.3.0.202004-gnurx-elf\rx-elf\rx-elf\rx-elf\include\c++\8.3.0.202004-gnurx\cmath ****     { return __builtin_acos(__x); }
 101:c:\gcc for renesas rx 8.3.0.202004-gnurx-elf\rx-elf\rx-elf\rx-elf\include\c++\8.3.0.202004-gnurx\cmath **** 
 102:c:\gcc for renesas rx 8.3.0.202004-gnurx-elf\rx-elf\rx-elf\rx-elf\include\c++\8.3.0.202004-gnurx\cmath ****   using ::asin;
 103:c:\gcc for renesas rx 8.3.0.202004-gnurx-elf\rx-elf\rx-elf\rx-elf\include\c++\8.3.0.202004-gnurx\cmath **** 
 104:c:\gcc for renesas rx 8.3.0.202004-gnurx-elf\rx-elf\rx-elf\rx-elf\include\c++\8.3.0.202004-gnurx\cmath **** #ifndef __CORRECT_ISO_CPP_MATH_H_PROTO
 105:c:\gcc for renesas rx 8.3.0.202004-gnurx-elf\rx-elf\rx-elf\rx-elf\include\c++\8.3.0.202004-gnurx\cmath ****   inline _GLIBCXX_CONSTEXPR float
 106:c:\gcc for renesas rx 8.3.0.202004-gnurx-elf\rx-elf\rx-elf\rx-elf\include\c++\8.3.0.202004-gnurx\cmath ****   asin(float __x)
 107:c:\gcc for renesas rx 8.3.0.202004-gnurx-elf\rx-elf\rx-elf\rx-elf\include\c++\8.3.0.202004-gnurx\cmath ****   { return __builtin_asinf(__x); }
 108:c:\gcc for renesas rx 8.3.0.202004-gnurx-elf\rx-elf\rx-elf\rx-elf\include\c++\8.3.0.202004-gnurx\cmath **** 
 109:c:\gcc for renesas rx 8.3.0.202004-gnurx-elf\rx-elf\rx-elf\rx-elf\include\c++\8.3.0.202004-gnurx\cmath ****   inline _GLIBCXX_CONSTEXPR long double
 110:c:\gcc for renesas rx 8.3.0.202004-gnurx-elf\rx-elf\rx-elf\rx-elf\include\c++\8.3.0.202004-gnurx\cmath ****   asin(long double __x)
 111:c:\gcc for renesas rx 8.3.0.202004-gnurx-elf\rx-elf\rx-elf\rx-elf\include\c++\8.3.0.202004-gnurx\cmath ****   { return __builtin_asinl(__x); }
 112:c:\gcc for renesas rx 8.3.0.202004-gnurx-elf\rx-elf\rx-elf\rx-elf\include\c++\8.3.0.202004-gnurx\cmath **** #endif
 113:c:\gcc for renesas rx 8.3.0.202004-gnurx-elf\rx-elf\rx-elf\rx-elf\include\c++\8.3.0.202004-gnurx\cmath **** 
 114:c:\gcc for renesas rx 8.3.0.202004-gnurx-elf\rx-elf\rx-elf\rx-elf\include\c++\8.3.0.202004-gnurx\cmath ****   template<typename _Tp>
 115:c:\gcc for renesas rx 8.3.0.202004-gnurx-elf\rx-elf\rx-elf\rx-elf\include\c++\8.3.0.202004-gnurx\cmath ****     inline _GLIBCXX_CONSTEXPR
 116:c:\gcc for renesas rx 8.3.0.202004-gnurx-elf\rx-elf\rx-elf\rx-elf\include\c++\8.3.0.202004-gnurx\cmath ****     typename __gnu_cxx::__enable_if<__is_integer<_Tp>::__value,
 117:c:\gcc for renesas rx 8.3.0.202004-gnurx-elf\rx-elf\rx-elf\rx-elf\include\c++\8.3.0.202004-gnurx\cmath ****                                     double>::__type
 118:c:\gcc for renesas rx 8.3.0.202004-gnurx-elf\rx-elf\rx-elf\rx-elf\include\c++\8.3.0.202004-gnurx\cmath ****     asin(_Tp __x)
 119:c:\gcc for renesas rx 8.3.0.202004-gnurx-elf\rx-elf\rx-elf\rx-elf\include\c++\8.3.0.202004-gnurx\cmath ****     { return __builtin_asin(__x); }
 120:c:\gcc for renesas rx 8.3.0.202004-gnurx-elf\rx-elf\rx-elf\rx-elf\include\c++\8.3.0.202004-gnurx\cmath **** 
 121:c:\gcc for renesas rx 8.3.0.202004-gnurx-elf\rx-elf\rx-elf\rx-elf\include\c++\8.3.0.202004-gnurx\cmath ****   using ::atan;
 122:c:\gcc for renesas rx 8.3.0.202004-gnurx-elf\rx-elf\rx-elf\rx-elf\include\c++\8.3.0.202004-gnurx\cmath **** 
 123:c:\gcc for renesas rx 8.3.0.202004-gnurx-elf\rx-elf\rx-elf\rx-elf\include\c++\8.3.0.202004-gnurx\cmath **** #ifndef __CORRECT_ISO_CPP_MATH_H_PROTO
 124:c:\gcc for renesas rx 8.3.0.202004-gnurx-elf\rx-elf\rx-elf\rx-elf\include\c++\8.3.0.202004-gnurx\cmath ****   inline _GLIBCXX_CONSTEXPR float
 125:c:\gcc for renesas rx 8.3.0.202004-gnurx-elf\rx-elf\rx-elf\rx-elf\include\c++\8.3.0.202004-gnurx\cmath ****   atan(float __x)
 126:c:\gcc for renesas rx 8.3.0.202004-gnurx-elf\rx-elf\rx-elf\rx-elf\include\c++\8.3.0.202004-gnurx\cmath ****   { return __builtin_atanf(__x); }
 127:c:\gcc for renesas rx 8.3.0.202004-gnurx-elf\rx-elf\rx-elf\rx-elf\include\c++\8.3.0.202004-gnurx\cmath **** 
 128:c:\gcc for renesas rx 8.3.0.202004-gnurx-elf\rx-elf\rx-elf\rx-elf\include\c++\8.3.0.202004-gnurx\cmath ****   inline _GLIBCXX_CONSTEXPR long double
 129:c:\gcc for renesas rx 8.3.0.202004-gnurx-elf\rx-elf\rx-elf\rx-elf\include\c++\8.3.0.202004-gnurx\cmath ****   atan(long double __x)
 130:c:\gcc for renesas rx 8.3.0.202004-gnurx-elf\rx-elf\rx-elf\rx-elf\include\c++\8.3.0.202004-gnurx\cmath ****   { return __builtin_atanl(__x); }
 131:c:\gcc for renesas rx 8.3.0.202004-gnurx-elf\rx-elf\rx-elf\rx-elf\include\c++\8.3.0.202004-gnurx\cmath **** #endif
 132:c:\gcc for renesas rx 8.3.0.202004-gnurx-elf\rx-elf\rx-elf\rx-elf\include\c++\8.3.0.202004-gnurx\cmath **** 
 133:c:\gcc for renesas rx 8.3.0.202004-gnurx-elf\rx-elf\rx-elf\rx-elf\include\c++\8.3.0.202004-gnurx\cmath ****   template<typename _Tp>
 134:c:\gcc for renesas rx 8.3.0.202004-gnurx-elf\rx-elf\rx-elf\rx-elf\include\c++\8.3.0.202004-gnurx\cmath ****     inline _GLIBCXX_CONSTEXPR
 135:c:\gcc for renesas rx 8.3.0.202004-gnurx-elf\rx-elf\rx-elf\rx-elf\include\c++\8.3.0.202004-gnurx\cmath ****     typename __gnu_cxx::__enable_if<__is_integer<_Tp>::__value,
 136:c:\gcc for renesas rx 8.3.0.202004-gnurx-elf\rx-elf\rx-elf\rx-elf\include\c++\8.3.0.202004-gnurx\cmath ****                                     double>::__type
 137:c:\gcc for renesas rx 8.3.0.202004-gnurx-elf\rx-elf\rx-elf\rx-elf\include\c++\8.3.0.202004-gnurx\cmath ****     atan(_Tp __x)
 138:c:\gcc for renesas rx 8.3.0.202004-gnurx-elf\rx-elf\rx-elf\rx-elf\include\c++\8.3.0.202004-gnurx\cmath ****     { return __builtin_atan(__x); }
 139:c:\gcc for renesas rx 8.3.0.202004-gnurx-elf\rx-elf\rx-elf\rx-elf\include\c++\8.3.0.202004-gnurx\cmath **** 
 140:c:\gcc for renesas rx 8.3.0.202004-gnurx-elf\rx-elf\rx-elf\rx-elf\include\c++\8.3.0.202004-gnurx\cmath ****   using ::atan2;
 141:c:\gcc for renesas rx 8.3.0.202004-gnurx-elf\rx-elf\rx-elf\rx-elf\include\c++\8.3.0.202004-gnurx\cmath **** 
 142:c:\gcc for renesas rx 8.3.0.202004-gnurx-elf\rx-elf\rx-elf\rx-elf\include\c++\8.3.0.202004-gnurx\cmath **** #ifndef __CORRECT_ISO_CPP_MATH_H_PROTO
 143:c:\gcc for renesas rx 8.3.0.202004-gnurx-elf\rx-elf\rx-elf\rx-elf\include\c++\8.3.0.202004-gnurx\cmath ****   inline _GLIBCXX_CONSTEXPR float
 144:c:\gcc for renesas rx 8.3.0.202004-gnurx-elf\rx-elf\rx-elf\rx-elf\include\c++\8.3.0.202004-gnurx\cmath ****   atan2(float __y, float __x)
 145:c:\gcc for renesas rx 8.3.0.202004-gnurx-elf\rx-elf\rx-elf\rx-elf\include\c++\8.3.0.202004-gnurx\cmath ****   { return __builtin_atan2f(__y, __x); }
 146:c:\gcc for renesas rx 8.3.0.202004-gnurx-elf\rx-elf\rx-elf\rx-elf\include\c++\8.3.0.202004-gnurx\cmath **** 
 147:c:\gcc for renesas rx 8.3.0.202004-gnurx-elf\rx-elf\rx-elf\rx-elf\include\c++\8.3.0.202004-gnurx\cmath ****   inline _GLIBCXX_CONSTEXPR long double
 148:c:\gcc for renesas rx 8.3.0.202004-gnurx-elf\rx-elf\rx-elf\rx-elf\include\c++\8.3.0.202004-gnurx\cmath ****   atan2(long double __y, long double __x)
 149:c:\gcc for renesas rx 8.3.0.202004-gnurx-elf\rx-elf\rx-elf\rx-elf\include\c++\8.3.0.202004-gnurx\cmath ****   { return __builtin_atan2l(__y, __x); }
 150:c:\gcc for renesas rx 8.3.0.202004-gnurx-elf\rx-elf\rx-elf\rx-elf\include\c++\8.3.0.202004-gnurx\cmath **** #endif
 151:c:\gcc for renesas rx 8.3.0.202004-gnurx-elf\rx-elf\rx-elf\rx-elf\include\c++\8.3.0.202004-gnurx\cmath **** 
 152:c:\gcc for renesas rx 8.3.0.202004-gnurx-elf\rx-elf\rx-elf\rx-elf\include\c++\8.3.0.202004-gnurx\cmath ****   template<typename _Tp, typename _Up>
 153:c:\gcc for renesas rx 8.3.0.202004-gnurx-elf\rx-elf\rx-elf\rx-elf\include\c++\8.3.0.202004-gnurx\cmath ****     inline _GLIBCXX_CONSTEXPR
 154:c:\gcc for renesas rx 8.3.0.202004-gnurx-elf\rx-elf\rx-elf\rx-elf\include\c++\8.3.0.202004-gnurx\cmath ****     typename __gnu_cxx::__promote_2<_Tp, _Up>::__type
 155:c:\gcc for renesas rx 8.3.0.202004-gnurx-elf\rx-elf\rx-elf\rx-elf\include\c++\8.3.0.202004-gnurx\cmath ****     atan2(_Tp __y, _Up __x)
 156:c:\gcc for renesas rx 8.3.0.202004-gnurx-elf\rx-elf\rx-elf\rx-elf\include\c++\8.3.0.202004-gnurx\cmath ****     {
 157:c:\gcc for renesas rx 8.3.0.202004-gnurx-elf\rx-elf\rx-elf\rx-elf\include\c++\8.3.0.202004-gnurx\cmath ****       typedef typename __gnu_cxx::__promote_2<_Tp, _Up>::__type __type;
 158:c:\gcc for renesas rx 8.3.0.202004-gnurx-elf\rx-elf\rx-elf\rx-elf\include\c++\8.3.0.202004-gnurx\cmath ****       return atan2(__type(__y), __type(__x));
 159:c:\gcc for renesas rx 8.3.0.202004-gnurx-elf\rx-elf\rx-elf\rx-elf\include\c++\8.3.0.202004-gnurx\cmath ****     }
 160:c:\gcc for renesas rx 8.3.0.202004-gnurx-elf\rx-elf\rx-elf\rx-elf\include\c++\8.3.0.202004-gnurx\cmath **** 
 161:c:\gcc for renesas rx 8.3.0.202004-gnurx-elf\rx-elf\rx-elf\rx-elf\include\c++\8.3.0.202004-gnurx\cmath ****   using ::ceil;
 162:c:\gcc for renesas rx 8.3.0.202004-gnurx-elf\rx-elf\rx-elf\rx-elf\include\c++\8.3.0.202004-gnurx\cmath **** 
 163:c:\gcc for renesas rx 8.3.0.202004-gnurx-elf\rx-elf\rx-elf\rx-elf\include\c++\8.3.0.202004-gnurx\cmath **** #ifndef __CORRECT_ISO_CPP_MATH_H_PROTO
 164:c:\gcc for renesas rx 8.3.0.202004-gnurx-elf\rx-elf\rx-elf\rx-elf\include\c++\8.3.0.202004-gnurx\cmath ****   inline _GLIBCXX_CONSTEXPR float
 165:c:\gcc for renesas rx 8.3.0.202004-gnurx-elf\rx-elf\rx-elf\rx-elf\include\c++\8.3.0.202004-gnurx\cmath ****   ceil(float __x)
 166:c:\gcc for renesas rx 8.3.0.202004-gnurx-elf\rx-elf\rx-elf\rx-elf\include\c++\8.3.0.202004-gnurx\cmath ****   { return __builtin_ceilf(__x); }
 678                             		.loc 6 166 5
 679                             		.loc 6 166 27 is_stmt 0
 680 00d8 FD 2A C1                		mov.L	[r12+], r1
 681                             	.LVL77:
 682 00db 05 00 00 00             		bsr	_ceilf
 683                             	.LVL78:
 684                             	.LBE178:
 685                             	.LBE177:
 686                             		.loc 4 31 20
 687 00df FD 22 A1                		mov.L	r1, [r10+]
  30:C:\Users\a5116938\Desktop\e2_studio_workspace\EEMBC_final\RX65N_Cloud_Kit\src/tensorflow/lite/kernels/internal/reference\ceil.h ****     output_data[i] = std::ceil(input_data[i]);
 688                             		.loc 4 30 21
 689 00e2 47 6C                   		cmp	r6, r12
 690 00e4 21 F4                   		bne	.L39
 691                             		.balign 8,3,1
 692                             	.L38:
 693                             	.LVL79:
 694                             	.LBE176:
 695                             	.LBE186:
 696                             	.LBE191:
 697                             	.LBB192:
 698                             	.LBB193:
 185:C:\Users\a5116938\Desktop\e2_studio_workspace\EEMBC_final\RX65N_Cloud_Kit\src/tensorflow/lite/kernels/internal\types.h **** #ifdef TF_LITE_STATIC_MEMORY
 699                             		.loc 5 185 5 is_stmt 1
 700 00e6 61 58                   		cmp	#5, r8
 701 00e8 2B 0E                   		ble	.L35
 189:C:\Users\a5116938\Desktop\e2_studio_workspace\EEMBC_final\RX65N_Cloud_Kit\src/tensorflow/lite/kernels/internal\types.h **** #endif  // TF_LITE_STATIC_MEMORY
 702                             		.loc 5 189 7
 189:C:\Users\a5116938\Desktop\e2_studio_workspace\EEMBC_final\RX65N_Cloud_Kit\src/tensorflow/lite/kernels/internal\types.h **** #endif  // TF_LITE_STATIC_MEMORY
 703                             		.loc 5 189 29 is_stmt 0
 704 00ea 61 09                   		cmp	#0, r9
 705 00ec 20 54                   		beq	.L42
 189:C:\Users\a5116938\Desktop\e2_studio_workspace\EEMBC_final\RX65N_Cloud_Kit\src/tensorflow/lite/kernels/internal\types.h **** #endif  // TF_LITE_STATIC_MEMORY
 706                             		.loc 5 189 16
 707 00ee EF 91                   		mov.L	r9, r1
 708 00f0 05 00 00 00             		bsr	__ZdaPv
 709                             	.LVL80:
 710 00f4 A9 87                   		mov.L	24[r0], r7
 711                             		.balign 8,3,1
 712                             	.L35:
 713                             	.LVL81:
 714                             	.LBE193:
 715                             	.LBE192:
 716                             	.LBB195:
 717                             	.LBB196:
 185:C:\Users\a5116938\Desktop\e2_studio_workspace\EEMBC_final\RX65N_Cloud_Kit\src/tensorflow/lite/kernels/internal\types.h **** #ifdef TF_LITE_STATIC_MEMORY
 718                             		.loc 5 185 5 is_stmt 1
 719 00f6 61 57                   		cmp	#5, r7
 720 00f8 2A 44                   		bgt	.L69
 721                             	.LVL82:
 722                             		.balign 8,3,1
 723                             	.L54:
 724                             	.LBE196:
 725                             	.LBE195:
  57:../src/tensorflow/lite/micro/kernels/ceil.cc ****                       tflite::micro::GetTensorData<float>(output));
  58:../src/tensorflow/lite/micro/kernels/ceil.cc **** 
  59:../src/tensorflow/lite/micro/kernels/ceil.cc ****   return kTfLiteOk;
  60:../src/tensorflow/lite/micro/kernels/ceil.cc **** }
 726                             		.loc 1 60 1 is_stmt 0
 727 00fa 66 01                   		mov.L	#0, r1
 728 00fc 3F 6C 13                		rtsd	#76, r6-r12
 729                             	.LVL83:
 730                             	.L68:
 731                             	.LBB198:
 732                             	.LBB187:
 733                             	.LBB181:
 734                             	.LBB171:
 735                             	.LBB164:
 736                             		.loc 5 492 5 is_stmt 1
 737                             	.LBB140:
 738                             	.LBB106:
 196:C:\Users\a5116938\Desktop\e2_studio_workspace\EEMBC_final\RX65N_Cloud_Kit\src/tensorflow/lite/kernels/internal\types.h ****     TFLITE_DCHECK_LT(i, size_);
 739                             		.loc 5 196 5
 197:C:\Users\a5116938\Desktop\e2_studio_workspace\EEMBC_final\RX65N_Cloud_Kit\src/tensorflow/lite/kernels/internal\types.h ****     return size_ > kMaxSmallSize ? dims_pointer_[i] : dims_[i];
 740                             		.loc 5 197 5
 198:C:\Users\a5116938\Desktop\e2_studio_workspace\EEMBC_final\RX65N_Cloud_Kit\src/tensorflow/lite/kernels/internal\types.h ****   }
 741                             		.loc 5 198 5
 742                             	.LBE106:
 743                             	.LBE140:
 744                             	.LBB141:
 745                             	.LBB120:
 196:C:\Users\a5116938\Desktop\e2_studio_workspace\EEMBC_final\RX65N_Cloud_Kit\src/tensorflow/lite/kernels/internal\types.h ****     TFLITE_DCHECK_LT(i, size_);
 746                             		.loc 5 196 5
 197:C:\Users\a5116938\Desktop\e2_studio_workspace\EEMBC_final\RX65N_Cloud_Kit\src/tensorflow/lite/kernels/internal\types.h ****     return size_ > kMaxSmallSize ? dims_pointer_[i] : dims_[i];
 747                             		.loc 5 197 5
 748                             	.LBE120:
 749                             	.LBE141:
 750                             		.loc 5 492 5 is_stmt 0
 751 00ff 47 9B                   		cmp	r9, r11
 752 0101 21 37                   		bne	.L27
 753                             	.LVL84:
 491:C:\Users\a5116938\Desktop\e2_studio_workspace\EEMBC_final\RX65N_Cloud_Kit\src/tensorflow/lite/kernels/internal\types.h ****     TFLITE_DCHECK_EQ(shape.Dims(i), check_shape_0.Dims(i));
 754                             		.loc 5 491 21
 755 0103 61 17                   		cmp	#1, r7
 756 0105 20 54                   		beq	.L46
 757                             		.loc 5 492 5 is_stmt 1
 758                             	.LVL85:
 759                             	.LBB142:
 760                             	.LBB107:
 196:C:\Users\a5116938\Desktop\e2_studio_workspace\EEMBC_final\RX65N_Cloud_Kit\src/tensorflow/lite/kernels/internal\types.h ****     TFLITE_DCHECK_LT(i, size_);
 761                             		.loc 5 196 5
 197:C:\Users\a5116938\Desktop\e2_studio_workspace\EEMBC_final\RX65N_Cloud_Kit\src/tensorflow/lite/kernels/internal\types.h ****     return size_ > kMaxSmallSize ? dims_pointer_[i] : dims_[i];
 762                             		.loc 5 197 5
 198:C:\Users\a5116938\Desktop\e2_studio_workspace\EEMBC_final\RX65N_Cloud_Kit\src/tensorflow/lite/kernels/internal\types.h ****   }
 763                             		.loc 5 198 5
 764                             	.LBE107:
 765                             	.LBE142:
 766                             	.LBB143:
 767                             	.LBB121:
 196:C:\Users\a5116938\Desktop\e2_studio_workspace\EEMBC_final\RX65N_Cloud_Kit\src/tensorflow/lite/kernels/internal\types.h ****     TFLITE_DCHECK_LT(i, size_);
 768                             		.loc 5 196 5
 197:C:\Users\a5116938\Desktop\e2_studio_workspace\EEMBC_final\RX65N_Cloud_Kit\src/tensorflow/lite/kernels/internal\types.h ****     return size_ > kMaxSmallSize ? dims_pointer_[i] : dims_[i];
 769                             		.loc 5 197 5
 770                             	.LBE121:
 771                             	.LBE143:
 772                             		.loc 5 492 5 is_stmt 0
 773 0107 AA 05                   		mov.L	32[r0], r5
 774 0109 06 85 05 02             		cmp	8[r0].L, r5
 775 010d 21 2B                   		bne	.L27
 776                             	.LVL86:
 491:C:\Users\a5116938\Desktop\e2_studio_workspace\EEMBC_final\RX65N_Cloud_Kit\src/tensorflow/lite/kernels/internal\types.h ****     TFLITE_DCHECK_EQ(shape.Dims(i), check_shape_0.Dims(i));
 777                             		.loc 5 491 21
 778 010f 61 27                   		cmp	#2, r7
 779 0111 20 48                   		beq	.L46
 780                             		.loc 5 492 5 is_stmt 1
 781                             	.LVL87:
 782                             	.LBB144:
 783                             	.LBB108:
 196:C:\Users\a5116938\Desktop\e2_studio_workspace\EEMBC_final\RX65N_Cloud_Kit\src/tensorflow/lite/kernels/internal\types.h ****     TFLITE_DCHECK_LT(i, size_);
 784                             		.loc 5 196 5
 197:C:\Users\a5116938\Desktop\e2_studio_workspace\EEMBC_final\RX65N_Cloud_Kit\src/tensorflow/lite/kernels/internal\types.h ****     return size_ > kMaxSmallSize ? dims_pointer_[i] : dims_[i];
 785                             		.loc 5 197 5
 198:C:\Users\a5116938\Desktop\e2_studio_workspace\EEMBC_final\RX65N_Cloud_Kit\src/tensorflow/lite/kernels/internal\types.h ****   }
 786                             		.loc 5 198 5
 787                             	.LBE108:
 788                             	.LBE144:
 789                             	.LBB145:
 790                             	.LBB122:
 196:C:\Users\a5116938\Desktop\e2_studio_workspace\EEMBC_final\RX65N_Cloud_Kit\src/tensorflow/lite/kernels/internal\types.h ****     TFLITE_DCHECK_LT(i, size_);
 791                             		.loc 5 196 5
 197:C:\Users\a5116938\Desktop\e2_studio_workspace\EEMBC_final\RX65N_Cloud_Kit\src/tensorflow/lite/kernels/internal\types.h ****     return size_ > kMaxSmallSize ? dims_pointer_[i] : dims_[i];
 792                             		.loc 5 197 5
 793                             	.LBE122:
 794                             	.LBE145:
 795                             		.loc 5 492 5 is_stmt 0
 796 0113 A8 8D                   		mov.L	12[r0], r5
 797 0115 06 85 05 09             		cmp	36[r0].L, r5
 798 0119 21 1F                   		bne	.L27
 799                             	.LVL88:
 491:C:\Users\a5116938\Desktop\e2_studio_workspace\EEMBC_final\RX65N_Cloud_Kit\src/tensorflow/lite/kernels/internal\types.h ****     TFLITE_DCHECK_EQ(shape.Dims(i), check_shape_0.Dims(i));
 800                             		.loc 5 491 21
 801 011b 61 37                   		cmp	#3, r7
 802 011d 20 3C                   		beq	.L46
 803                             		.loc 5 492 5 is_stmt 1
 804                             	.LVL89:
 805                             	.LBB146:
 806                             	.LBB109:
 196:C:\Users\a5116938\Desktop\e2_studio_workspace\EEMBC_final\RX65N_Cloud_Kit\src/tensorflow/lite/kernels/internal\types.h ****     TFLITE_DCHECK_LT(i, size_);
 807                             		.loc 5 196 5
 197:C:\Users\a5116938\Desktop\e2_studio_workspace\EEMBC_final\RX65N_Cloud_Kit\src/tensorflow/lite/kernels/internal\types.h ****     return size_ > kMaxSmallSize ? dims_pointer_[i] : dims_[i];
 808                             		.loc 5 197 5
 198:C:\Users\a5116938\Desktop\e2_studio_workspace\EEMBC_final\RX65N_Cloud_Kit\src/tensorflow/lite/kernels/internal\types.h ****   }
 809                             		.loc 5 198 5
 810                             	.LBE109:
 811                             	.LBE146:
 812                             	.LBB147:
 813                             	.LBB123:
 196:C:\Users\a5116938\Desktop\e2_studio_workspace\EEMBC_final\RX65N_Cloud_Kit\src/tensorflow/lite/kernels/internal\types.h ****     TFLITE_DCHECK_LT(i, size_);
 814                             		.loc 5 196 5
 197:C:\Users\a5116938\Desktop\e2_studio_workspace\EEMBC_final\RX65N_Cloud_Kit\src/tensorflow/lite/kernels/internal\types.h ****     return size_ > kMaxSmallSize ? dims_pointer_[i] : dims_[i];
 815                             		.loc 5 197 5
 816                             	.LBE123:
 817                             	.LBE147:
 818                             		.loc 5 492 5 is_stmt 0
 819 011f AA 85                   		mov.L	40[r0], r5
 820 0121 06 85 05 04             		cmp	16[r0].L, r5
 821 0125 21 13                   		bne	.L27
 822                             	.LVL90:
 491:C:\Users\a5116938\Desktop\e2_studio_workspace\EEMBC_final\RX65N_Cloud_Kit\src/tensorflow/lite/kernels/internal\types.h ****     TFLITE_DCHECK_EQ(shape.Dims(i), check_shape_0.Dims(i));
 823                             		.loc 5 491 21
 824 0127 61 47                   		cmp	#4, r7
 825 0129 20 30                   		beq	.L46
 826                             		.loc 5 492 5 is_stmt 1
 827                             	.LVL91:
 828                             	.LBB148:
 829                             	.LBB110:
 196:C:\Users\a5116938\Desktop\e2_studio_workspace\EEMBC_final\RX65N_Cloud_Kit\src/tensorflow/lite/kernels/internal\types.h ****     TFLITE_DCHECK_LT(i, size_);
 830                             		.loc 5 196 5
 197:C:\Users\a5116938\Desktop\e2_studio_workspace\EEMBC_final\RX65N_Cloud_Kit\src/tensorflow/lite/kernels/internal\types.h ****     return size_ > kMaxSmallSize ? dims_pointer_[i] : dims_[i];
 831                             		.loc 5 197 5
 198:C:\Users\a5116938\Desktop\e2_studio_workspace\EEMBC_final\RX65N_Cloud_Kit\src/tensorflow/lite/kernels/internal\types.h ****   }
 832                             		.loc 5 198 5
 833                             	.LBE110:
 834                             	.LBE148:
 835                             	.LBB149:
 836                             	.LBB124:
 196:C:\Users\a5116938\Desktop\e2_studio_workspace\EEMBC_final\RX65N_Cloud_Kit\src/tensorflow/lite/kernels/internal\types.h ****     TFLITE_DCHECK_LT(i, size_);
 837                             		.loc 5 196 5
 197:C:\Users\a5116938\Desktop\e2_studio_workspace\EEMBC_final\RX65N_Cloud_Kit\src/tensorflow/lite/kernels/internal\types.h ****     return size_ > kMaxSmallSize ? dims_pointer_[i] : dims_[i];
 838                             		.loc 5 197 5
 839                             	.LBE124:
 840                             	.LBE149:
 841                             		.loc 5 492 5 is_stmt 0
 842 012b A9 0D                   		mov.L	20[r0], r5
 843                             	.LBE164:
 844                             	.LBB165:
 845                             	.LBB161:
 846                             	.LBB158:
 847                             	.LBB154:
 214:C:\Users\a5116938\Desktop\e2_studio_workspace\EEMBC_final\RX65N_Cloud_Kit\src/tensorflow/lite/kernels/internal\types.h ****   }
 848                             		.loc 5 214 34
 849 012d 71 03 1C                		add	#28, r0, r3
 850                             	.LBE154:
 851                             	.LBE158:
 852                             	.LBE161:
 853                             	.LBE165:
 854                             	.LBB166:
 855                             		.loc 5 492 5
 856 0130 06 85 05 0B             		cmp	44[r0].L, r5
 857 0134 20 8A                   		beq	.L31
 858                             	.LVL92:
 859 0136 EF 00                   		.balign 8,3,3
 860                             	.L27:
 861                             	.LBE166:
 862                             	.LBE171:
 863                             	.LBE181:
 864                             	.LBE187:
 865                             	.LBE198:
 866                             	.LBB199:
 867                             	.LBB82:
 868                             	.LBB81:
  33:C:\Users\a5116938\Desktop\e2_studio_workspace\EEMBC_final\RX65N_Cloud_Kit\src/tensorflow/lite/micro/kernels\kernel_util.h ****   TFLITE_DCHECK(node != nullptr);
 869                             		.loc 3 33 3
 870 0138 05 00 00 00             		bsr	_abort
 871                             	.LVL93:
 872                             	.L69:
 873 013c ED 0B 07                		mov.L	28[r0], r11
 874                             	.LVL94:
 875 013f 03                      		.balign 8,3,1
 876                             	.L42:
 877                             	.LBE81:
 878                             	.LBE82:
 879                             	.LBE199:
 880                             	.LBB200:
 881                             	.LBB197:
 189:C:\Users\a5116938\Desktop\e2_studio_workspace\EEMBC_final\RX65N_Cloud_Kit\src/tensorflow/lite/kernels/internal\types.h **** #endif  // TF_LITE_STATIC_MEMORY
 882                             		.loc 5 189 7 is_stmt 1
 189:C:\Users\a5116938\Desktop\e2_studio_workspace\EEMBC_final\RX65N_Cloud_Kit\src/tensorflow/lite/kernels/internal\types.h **** #endif  // TF_LITE_STATIC_MEMORY
 883                             		.loc 5 189 29 is_stmt 0
 884 0140 61 0B                   		cmp	#0, r11
 885 0142 20 B8                   		beq	.L54
 189:C:\Users\a5116938\Desktop\e2_studio_workspace\EEMBC_final\RX65N_Cloud_Kit\src/tensorflow/lite/kernels/internal\types.h **** #endif  // TF_LITE_STATIC_MEMORY
 886                             		.loc 5 189 16
 887 0144 EF B1                   		mov.L	r11, r1
 888 0146 05 00 00 00             		bsr	__ZdaPv
 889                             	.LVL95:
 890                             	.LBE197:
 891                             	.LBE200:
  59:../src/tensorflow/lite/micro/kernels/ceil.cc **** }
 892                             		.loc 1 59 3 is_stmt 1
 893                             		.loc 1 60 1 is_stmt 0
 894 014a 66 01                   		mov.L	#0, r1
 895 014c 3F 6C 13                		rtsd	#76, r6-r12
 896                             	.LVL96:
 897                             	.L29:
 898                             	.LBB201:
 899                             	.LBB188:
 900                             	.LBB182:
 901                             	.LBB172:
 493:C:\Users\a5116938\Desktop\e2_studio_workspace\EEMBC_final\RX65N_Cloud_Kit\src/tensorflow/lite/kernels/internal\types.h ****   }
 494:C:\Users\a5116938\Desktop\e2_studio_workspace\EEMBC_final\RX65N_Cloud_Kit\src/tensorflow/lite/kernels/internal\types.h ****   return shape.FlatSize();
 902                             		.loc 5 494 3 is_stmt 1
 903                             	.LBB167:
 904                             	.LBB162:
 272:C:\Users\a5116938\Desktop\e2_studio_workspace\EEMBC_final\RX65N_Cloud_Kit\src/tensorflow/lite/kernels/internal\types.h ****     const int* dims_data = reinterpret_cast<const int*>(DimsData());
 905                             		.loc 5 272 5
 273:C:\Users\a5116938\Desktop\e2_studio_workspace\EEMBC_final\RX65N_Cloud_Kit\src/tensorflow/lite/kernels/internal\types.h ****     for (int i = 0; i < size_; i++) {
 906                             		.loc 5 273 5
 907                             	.LBB159:
 908                             	.LBB155:
 214:C:\Users\a5116938\Desktop\e2_studio_workspace\EEMBC_final\RX65N_Cloud_Kit\src/tensorflow/lite/kernels/internal\types.h ****   }
 909                             		.loc 5 214 5
 910                             	.LBE155:
 911                             	.LBE159:
 274:C:\Users\a5116938\Desktop\e2_studio_workspace\EEMBC_final\RX65N_Cloud_Kit\src/tensorflow/lite/kernels/internal\types.h ****       buffer_size *= dims_data[i];
 912                             		.loc 5 274 5
 913                             	.LBE162:
 914                             	.LBE167:
 915                             	.LBE172:
 916                             	.LBE182:
 917                             	.LBB183:
 918                             		.loc 4 31 5
 919                             	.LBB180:
 920                             	.LBB179:
 921                             		.loc 6 166 5
 922                             		.loc 6 166 27 is_stmt 0
 923 014f EC C1                   		mov.L	[r12], r1
 924 0151 05 00 00 00             		bsr	_ceilf
 925                             	.LVL97:
 926                             	.LBE179:
 927                             	.LBE180:
 928                             		.loc 4 31 20
 929 0155 E3 A1                   		mov.L	r1, [r10]
 930                             	.LVL98:
 931                             	.LBE183:
 932                             	.LBE188:
 933                             	.LBE201:
 934                             	.LBB202:
 935                             	.LBB194:
 185:C:\Users\a5116938\Desktop\e2_studio_workspace\EEMBC_final\RX65N_Cloud_Kit\src/tensorflow/lite/kernels/internal\types.h **** #ifdef TF_LITE_STATIC_MEMORY
 936                             		.loc 5 185 5 is_stmt 1
 937 0157 2E 9F                   		bra	.L35
 938                             	.LVL99:
 939                             	.L46:
 940                             	.LBE194:
 941                             	.LBE202:
 942                             	.LBB203:
 943                             	.LBB189:
 944                             	.LBB184:
 945                             	.LBB173:
 946                             	.LBB168:
 947                             	.LBB163:
 948                             	.LBB160:
 949                             	.LBB156:
 214:C:\Users\a5116938\Desktop\e2_studio_workspace\EEMBC_final\RX65N_Cloud_Kit\src/tensorflow/lite/kernels/internal\types.h ****   }
 950                             		.loc 5 214 34 is_stmt 0
 951 0159 71 03 1C                		add	#28, r0, r3
 952 015c 38 62 FF                		bra	.L31
 953                             	.LBE156:
 954                             	.LBE160:
 955                             	.LBE163:
 956                             	.LBE168:
 957                             	.LBE173:
 958                             	.LBE184:
 959                             	.LBE189:
 960                             	.LBE203:
 961                             	.LFE1193:
 963 015f 03                      		.section	.text._ZN6tflite3ops5micro13Register_CEILEv,"ax",@progbits
 964                             		.global	__ZN6tflite3ops5micro13Register_CEILEv
 966                             	__ZN6tflite3ops5micro13Register_CEILEv:
 967                             	.LFB1194:
  61:../src/tensorflow/lite/micro/kernels/ceil.cc **** }  // namespace ceil
  62:../src/tensorflow/lite/micro/kernels/ceil.cc **** 
  63:../src/tensorflow/lite/micro/kernels/ceil.cc **** TfLiteRegistration Register_CEIL() {
 968                             		.loc 1 63 36 is_stmt 1
  64:../src/tensorflow/lite/micro/kernels/ceil.cc ****   return {/*init=*/nullptr,
 969                             		.loc 1 64 3
  65:../src/tensorflow/lite/micro/kernels/ceil.cc ****           /*free=*/nullptr,
  66:../src/tensorflow/lite/micro/kernels/ceil.cc ****           /*prepare=*/ceil::Prepare,
  67:../src/tensorflow/lite/micro/kernels/ceil.cc ****           /*invoke=*/ceil::Eval,
  68:../src/tensorflow/lite/micro/kernels/ceil.cc ****           /*profiling_string=*/nullptr,
  69:../src/tensorflow/lite/micro/kernels/ceil.cc ****           /*builtin_code=*/0,
  70:../src/tensorflow/lite/micro/kernels/ceil.cc ****           /*custom_name=*/nullptr,
  71:../src/tensorflow/lite/micro/kernels/ceil.cc ****           /*version=*/0};
 970                             		.loc 1 71 24 is_stmt 0
 971 0000 FB 22 00 00 00 00       		mov.L	#.LANCHOR0, r2
 972 0006 EF F1                   		mov.L	r15, r1
 973 0008 75 43 20                		mov.L	#32, r3
 974 000b 7F 8F                   		smovf
  72:../src/tensorflow/lite/micro/kernels/ceil.cc **** }
 975                             		.loc 1 72 1
 976 000d EF F1                   		mov.L	r15, r1
 977 000f 02                      		rts
 978                             	.LFE1194:
 980                             		.section C,"a",@progbits
 981                             		.p2align 2
 982                             		.balign 4
 983                             		.set	.LANCHOR0,. + 0
 984                             	.LC0:
 985 0000 00 00 00 00             		.long	0
 986 0004 00 00 00 00             		.long	0
 987 0008 00 00 00 00             		.long	__ZN6tflite3ops5micro4ceil7PrepareEP13TfLiteContextP10TfLiteNode
 988 000c 00 00 00 00             		.long	__ZN6tflite3ops5micro4ceil4EvalEP13TfLiteContextP10TfLiteNode
 989 0010 00 00 00 00             		.long	0
 990 0014 00 00 00 00             		.long	0
 991 0018 00 00 00 00             		.long	0
 992 001c 00 00 00 00             		.long	0
 993                             		.section	.rodata._ZN6tflite3ops5micro4ceil7PrepareEP13TfLiteContextP10TfLiteNode.str1.1,"aMS",@pro
 994                             	.LC1:
 995 0000 69 6E 70 75 74 20 21 3D 		.string	"input != nullptr"
 995      20 6E 75 6C 6C 70 74 72 
 995      00 
 996                             	.LC2:
 997 0011 2E 2E 2F 73 72 63 2F 74 		.string	"../src/tensorflow/lite/micro/kernels/ceil.cc"
 997      65 6E 73 6F 72 66 6C 6F 
 997      77 2F 6C 69 74 65 2F 6D 
 997      69 63 72 6F 2F 6B 65 72 
 997      6E 65 6C 73 2F 63 65 69 
 998                             	.LC3:
 999 003e 25 73 3A 25 64 20 25 73 		.string	"%s:%d %s was not true."
 999      20 77 61 73 20 6E 6F 74 
 999      20 74 72 75 65 2E 00 
 1000                             	.LC4:
 1001 0055 6F 75 74 70 75 74 20 21 		.string	"output != nullptr"
 1001      3D 20 6E 75 6C 6C 70 74 
 1001      72 00 
 1002                             	.LC5:
 1003 0067 31 00                   		.string	"1"
 1004                             	.LC6:
 1005 0069 4E 75 6D 49 6E 70 75 74 		.string	"NumInputs(node)"
 1005      73 28 6E 6F 64 65 29 00 
 1006                             	.LC7:
 1007 0079 25 73 3A 25 64 20 25 73 		.string	"%s:%d %s != %s (%d != %d)"
 1007      20 21 3D 20 25 73 20 28 
 1007      25 64 20 21 3D 20 25 64 
 1007      29 00 
 1008                             	.LC8:
 1009 0093 4E 75 6D 4F 75 74 70 75 		.string	"NumOutputs(node)"
 1009      74 73 28 6E 6F 64 65 29 
 1009      00 
 1010                             	.LC9:
 1011 00a4 6B 54 66 4C 69 74 65 46 		.string	"kTfLiteFloat32"
 1011      6C 6F 61 74 33 32 00 
 1012                             	.LC10:
 1013 00b3 69 6E 70 75 74 2D 3E 74 		.string	"input->type"
 1013      79 70 65 00 
 1014                             	.LC11:
 1015 00bf 25 73 3A 25 64 20 25 73 		.string	"%s:%d %s != %s (%s != %s)"
 1015      20 21 3D 20 25 73 20 28 
 1015      25 73 20 21 3D 20 25 73 
 1015      29 00 
 1016                             	.LC12:
 1017 00d9 6F 75 74 70 75 74 2D 3E 		.string	"output->type"
 1017      74 79 70 65 00 
 1018                             	.LC13:
 1019 00e6 69 6E 70 75 74 2D 3E 62 		.string	"input->bytes"
 1019      79 74 65 73 00 
 1020                             	.LC14:
 1021 00f3 6F 75 74 70 75 74 2D 3E 		.string	"output->bytes"
 1021      62 79 74 65 73 00 
 1022                             	.LC15:
 1023 0101 69 6E 70 75 74 2D 3E 64 		.string	"input->dims->size"
 1023      69 6D 73 2D 3E 73 69 7A 
 1023      65 00 
 1024                             	.LC16:
 1025 0113 6F 75 74 70 75 74 2D 3E 		.string	"output->dims->size"
 1025      64 69 6D 73 2D 3E 73 69 
 1025      7A 65 00 
 1026                             	.LC17:
 1027 0126 69 6E 70 75 74 2D 3E 64 		.string	"input->dims->data[i]"
 1027      69 6D 73 2D 3E 64 61 74 
 1027      61 5B 69 5D 00 
 1028                             	.LC18:
 1029 013b 6F 75 74 70 75 74 2D 3E 		.string	"output->dims->data[i]"
 1029      64 69 6D 73 2D 3E 64 61 
 1029      74 61 5B 69 5D 00 
 1116                             	.Letext0:
 1117                             		.file 7 "c:\\gcc for renesas rx 8.3.0.202004-gnurx-elf\\rx-elf\\rx-elf\\rx-elf\\include\\c++\\8.3.
 1118                             		.file 8 "c:\\gcc for renesas rx 8.3.0.202004-gnurx-elf\\rx-elf\\rx-elf\\rx-elf\\include\\c++\\8.3.
 1119                             		.file 9 "c:\\gcc for renesas rx 8.3.0.202004-gnurx-elf\\rx-elf\\rx-elf\\rx-elf\\include\\c++\\8.3.
 1120                             		.file 10 "c:\\gcc for renesas rx 8.3.0.202004-gnurx-elf\\rx-elf\\rx-elf\\rx-elf\\include\\c++\\8.3
 1121                             		.file 11 "c:\\gcc for renesas rx 8.3.0.202004-gnurx-elf\\rx-elf\\rx-elf\\rx-elf\\include\\c++\\8.3
 1122                             		.file 12 "c:\\gcc for renesas rx 8.3.0.202004-gnurx-elf\\rx-elf\\rx-elf\\rx-elf\\include\\c++\\8.3
 1123                             		.file 13 "c:\\gcc for renesas rx 8.3.0.202004-gnurx-elf\\rx-elf\\rx-elf\\rx-elf\\include\\c++\\8.3
 1124                             		.file 14 "c:\\gcc for renesas rx 8.3.0.202004-gnurx-elf\\rx-elf\\rx-elf\\rx-elf\\include\\c++\\8.3
 1125                             		.file 15 "c:\\gcc for renesas rx 8.3.0.202004-gnurx-elf\\rx-elf\\rx-elf\\rx-elf\\include\\c++\\8.3
 1126                             		.file 16 "c:\\gcc for renesas rx 8.3.0.202004-gnurx-elf\\rx-elf\\rx-elf\\rx-elf\\include\\c++\\8.3
 1127                             		.file 17 "c:\\gcc for renesas rx 8.3.0.202004-gnurx-elf\\rx-elf\\rx-elf\\rx-elf\\include\\c++\\8.3
 1128                             		.file 18 "c:\\gcc for renesas rx 8.3.0.202004-gnurx-elf\\rx-elf\\rx-elf\\rx-elf\\include\\c++\\8.3
 1129                             		.file 19 "c:\\gcc for renesas rx 8.3.0.202004-gnurx-elf\\rx-elf\\rx-elf\\rx-elf\\include\\c++\\8.3
 1130                             		.file 20 "c:\\gcc for renesas rx 8.3.0.202004-gnurx-elf\\rx-elf\\rx-elf\\rx-elf\\include\\c++\\8.3
 1131                             		.file 21 "c:\\gcc for renesas rx 8.3.0.202004-gnurx-elf\\rx-elf\\rx-elf\\lib\\gcc\\rx-elf\\8.3.0.2
 1132                             		.file 22 "c:\\gcc for renesas rx 8.3.0.202004-gnurx-elf\\rx-elf\\rx-elf\\rx-elf\\include\\machine\
 1133                             		.file 23 "c:\\gcc for renesas rx 8.3.0.202004-gnurx-elf\\rx-elf\\rx-elf\\rx-elf\\include\\sys\\loc
 1134                             		.file 24 "c:\\gcc for renesas rx 8.3.0.202004-gnurx-elf\\rx-elf\\rx-elf\\rx-elf\\include\\sys\\_ty
 1135                             		.file 25 "c:\\gcc for renesas rx 8.3.0.202004-gnurx-elf\\rx-elf\\rx-elf\\rx-elf\\include\\sys\\ree
 1136                             		.file 26 "c:\\gcc for renesas rx 8.3.0.202004-gnurx-elf\\rx-elf\\rx-elf\\rx-elf\\include\\math.h"
 1137                             		.file 27 "c:\\gcc for renesas rx 8.3.0.202004-gnurx-elf\\rx-elf\\rx-elf\\rx-elf\\include\\stdlib.h
 1138                             		.file 28 "c:\\gcc for renesas rx 8.3.0.202004-gnurx-elf\\rx-elf\\rx-elf\\rx-elf\\include\\sys\\_st
 1139                             		.file 29 "c:\\gcc for renesas rx 8.3.0.202004-gnurx-elf\\rx-elf\\rx-elf\\rx-elf\\include\\stdint.h
 1140                             		.file 30 "c:\\gcc for renesas rx 8.3.0.202004-gnurx-elf\\rx-elf\\rx-elf\\rx-elf\\include\\string.h
 1141                             		.file 31 "c:\\gcc for renesas rx 8.3.0.202004-gnurx-elf\\rx-elf\\rx-elf\\rx-elf\\include\\stdio.h"
 1142                             		.file 32 "C:\\Users\\a5116938\\Desktop\\e2_studio_workspace\\EEMBC_final\\RX65N_Cloud_Kit\\src/ten
 1143                             		.file 33 "<built-in>"
