   1                             		.file	"conv.cc"
   2                             		.section P,"ax"
   3                             	.Ltext0:
   4                             		.section	.text._ZN6tflite12_GLOBAL__N_14InitEP13TfLiteContextPKcm,"ax",@progbits
   6                             	__ZN6tflite12_GLOBAL__N_14InitEP13TfLiteContextPKcm:
   7                             	.LFB2258:
   8                             		.file 1 "../src/tensorflow/lite/micro/kernels/conv.cc"
   1:../src/tensorflow/lite/micro/kernels/conv.cc **** /* Copyright 2019 The TensorFlow Authors. All Rights Reserved.
   2:../src/tensorflow/lite/micro/kernels/conv.cc **** 
   3:../src/tensorflow/lite/micro/kernels/conv.cc **** Licensed under the Apache License, Version 2.0 (the "License");
   4:../src/tensorflow/lite/micro/kernels/conv.cc **** you may not use this file except in compliance with the License.
   5:../src/tensorflow/lite/micro/kernels/conv.cc **** You may obtain a copy of the License at
   6:../src/tensorflow/lite/micro/kernels/conv.cc **** 
   7:../src/tensorflow/lite/micro/kernels/conv.cc ****     http://www.apache.org/licenses/LICENSE-2.0
   8:../src/tensorflow/lite/micro/kernels/conv.cc **** 
   9:../src/tensorflow/lite/micro/kernels/conv.cc **** Unless required by applicable law or agreed to in writing, software
  10:../src/tensorflow/lite/micro/kernels/conv.cc **** distributed under the License is distributed on an "AS IS" BASIS,
  11:../src/tensorflow/lite/micro/kernels/conv.cc **** WITHOUT WARRANTIES OR CONDITIONS OF ANY KIND, either express or implied.
  12:../src/tensorflow/lite/micro/kernels/conv.cc **** See the License for the specific language governing permissions and
  13:../src/tensorflow/lite/micro/kernels/conv.cc **** limitations under the License.
  14:../src/tensorflow/lite/micro/kernels/conv.cc **** ==============================================================================*/
  15:../src/tensorflow/lite/micro/kernels/conv.cc **** 
  16:../src/tensorflow/lite/micro/kernels/conv.cc **** #include "tensorflow/lite/kernels/internal/reference/conv.h"
  17:../src/tensorflow/lite/micro/kernels/conv.cc **** 
  18:../src/tensorflow/lite/micro/kernels/conv.cc **** #include "arm_nn_types.h"
  19:../src/tensorflow/lite/micro/kernels/conv.cc **** #include "arm_nnfunctions.h"
  20:../src/tensorflow/lite/micro/kernels/conv.cc **** #include "tensorflow/lite/c/builtin_op_data.h"
  21:../src/tensorflow/lite/micro/kernels/conv.cc **** #include "tensorflow/lite/c/common.h"
  22:../src/tensorflow/lite/micro/kernels/conv.cc **** #include "tensorflow/lite/kernels/internal/common.h"
  23:../src/tensorflow/lite/micro/kernels/conv.cc **** #include "tensorflow/lite/kernels/internal/quantization_util.h"
  24:../src/tensorflow/lite/micro/kernels/conv.cc **** #include "tensorflow/lite/kernels/internal/reference/integer_ops/conv.h"
  25:../src/tensorflow/lite/micro/kernels/conv.cc **** #include "tensorflow/lite/kernels/internal/tensor_ctypes.h"
  26:../src/tensorflow/lite/micro/kernels/conv.cc **** #include "tensorflow/lite/kernels/kernel_util.h"
  27:../src/tensorflow/lite/micro/kernels/conv.cc **** #include "tensorflow/lite/kernels/padding.h"
  28:../src/tensorflow/lite/micro/kernels/conv.cc **** #include "tensorflow/lite/micro/kernels/kernel_util.h"
  29:../src/tensorflow/lite/micro/kernels/conv.cc **** 
  30:../src/tensorflow/lite/micro/kernels/conv.cc **** namespace tflite {
  31:../src/tensorflow/lite/micro/kernels/conv.cc **** namespace {
  32:../src/tensorflow/lite/micro/kernels/conv.cc **** 
  33:../src/tensorflow/lite/micro/kernels/conv.cc **** constexpr int kInputTensor = 0;
  34:../src/tensorflow/lite/micro/kernels/conv.cc **** constexpr int kFilterTensor = 1;
  35:../src/tensorflow/lite/micro/kernels/conv.cc **** constexpr int kBiasTensor = 2;
  36:../src/tensorflow/lite/micro/kernels/conv.cc **** constexpr int kOutputTensor = 0;
  37:../src/tensorflow/lite/micro/kernels/conv.cc **** 
  38:../src/tensorflow/lite/micro/kernels/conv.cc **** // Conv is quantized along dimension 0:
  39:../src/tensorflow/lite/micro/kernels/conv.cc **** // https://www.tensorflow.org/lite/performance/quantization_spec
  40:../src/tensorflow/lite/micro/kernels/conv.cc **** constexpr int kConvQuantizedDimension = 0;
  41:../src/tensorflow/lite/micro/kernels/conv.cc **** 
  42:../src/tensorflow/lite/micro/kernels/conv.cc **** struct OpData {
  43:../src/tensorflow/lite/micro/kernels/conv.cc ****   TfLitePaddingValues padding;
  44:../src/tensorflow/lite/micro/kernels/conv.cc **** 
  45:../src/tensorflow/lite/micro/kernels/conv.cc ****   // Cached tensor zero point values for quantized operations.
  46:../src/tensorflow/lite/micro/kernels/conv.cc ****   int32_t input_zero_point;
  47:../src/tensorflow/lite/micro/kernels/conv.cc ****   int32_t filter_zero_point;
  48:../src/tensorflow/lite/micro/kernels/conv.cc ****   int32_t output_zero_point;
  49:../src/tensorflow/lite/micro/kernels/conv.cc **** 
  50:../src/tensorflow/lite/micro/kernels/conv.cc ****   // The scaling factor from input to output (aka the 'real multiplier') can
  51:../src/tensorflow/lite/micro/kernels/conv.cc ****   // be represented as a fixed point multiplier plus a left shift.
  52:../src/tensorflow/lite/micro/kernels/conv.cc ****   int32_t output_multiplier;
  53:../src/tensorflow/lite/micro/kernels/conv.cc ****   int output_shift;
  54:../src/tensorflow/lite/micro/kernels/conv.cc **** 
  55:../src/tensorflow/lite/micro/kernels/conv.cc ****   // Per channel output multiplier and shift.
  56:../src/tensorflow/lite/micro/kernels/conv.cc ****   int32_t* per_channel_output_multiplier;
  57:../src/tensorflow/lite/micro/kernels/conv.cc ****   int32_t* per_channel_output_shift;
  58:../src/tensorflow/lite/micro/kernels/conv.cc **** 
  59:../src/tensorflow/lite/micro/kernels/conv.cc ****   // The range of the fused activation layer. For example for kNone and
  60:../src/tensorflow/lite/micro/kernels/conv.cc ****   // uint8_t these would be 0 and 255.
  61:../src/tensorflow/lite/micro/kernels/conv.cc ****   int32_t output_activation_min;
  62:../src/tensorflow/lite/micro/kernels/conv.cc ****   int32_t output_activation_max;
  63:../src/tensorflow/lite/micro/kernels/conv.cc **** 
  64:../src/tensorflow/lite/micro/kernels/conv.cc ****   // Index to buffer for optimizations if applicable.
  65:../src/tensorflow/lite/micro/kernels/conv.cc ****   int buffer_idx;
  66:../src/tensorflow/lite/micro/kernels/conv.cc **** };
  67:../src/tensorflow/lite/micro/kernels/conv.cc **** 
  68:../src/tensorflow/lite/micro/kernels/conv.cc **** inline PaddingType RuntimePaddingType(TfLitePadding padding) {
  69:../src/tensorflow/lite/micro/kernels/conv.cc ****   switch (padding) {
  70:../src/tensorflow/lite/micro/kernels/conv.cc ****     case TfLitePadding::kTfLitePaddingSame:
  71:../src/tensorflow/lite/micro/kernels/conv.cc ****       return PaddingType::kSame;
  72:../src/tensorflow/lite/micro/kernels/conv.cc ****     case TfLitePadding::kTfLitePaddingValid:
  73:../src/tensorflow/lite/micro/kernels/conv.cc ****       return PaddingType::kValid;
  74:../src/tensorflow/lite/micro/kernels/conv.cc ****     case TfLitePadding::kTfLitePaddingUnknown:
  75:../src/tensorflow/lite/micro/kernels/conv.cc ****     default:
  76:../src/tensorflow/lite/micro/kernels/conv.cc ****       return PaddingType::kNone;
  77:../src/tensorflow/lite/micro/kernels/conv.cc ****   }
  78:../src/tensorflow/lite/micro/kernels/conv.cc **** }
  79:../src/tensorflow/lite/micro/kernels/conv.cc **** 
  80:../src/tensorflow/lite/micro/kernels/conv.cc **** TfLiteStatus CalculateOpData(TfLiteContext* context, TfLiteNode* node,
  81:../src/tensorflow/lite/micro/kernels/conv.cc ****                              const TfLiteConvParams* params, int width,
  82:../src/tensorflow/lite/micro/kernels/conv.cc ****                              int height, int filter_width, int filter_height,
  83:../src/tensorflow/lite/micro/kernels/conv.cc ****                              int out_width, int out_height,
  84:../src/tensorflow/lite/micro/kernels/conv.cc ****                              const TfLiteType data_type, OpData* data) {
  85:../src/tensorflow/lite/micro/kernels/conv.cc ****   bool has_bias = node->inputs->size == 3;
  86:../src/tensorflow/lite/micro/kernels/conv.cc ****   // Check number of inputs/outputs
  87:../src/tensorflow/lite/micro/kernels/conv.cc ****   TF_LITE_ENSURE(context, has_bias || node->inputs->size == 2);
  88:../src/tensorflow/lite/micro/kernels/conv.cc ****   TF_LITE_ENSURE_EQ(context, node->outputs->size, 1);
  89:../src/tensorflow/lite/micro/kernels/conv.cc **** 
  90:../src/tensorflow/lite/micro/kernels/conv.cc ****   // Matching GetWindowedOutputSize in TensorFlow.
  91:../src/tensorflow/lite/micro/kernels/conv.cc ****   auto padding = params->padding;
  92:../src/tensorflow/lite/micro/kernels/conv.cc ****   data->padding = ComputePaddingHeightWidth(
  93:../src/tensorflow/lite/micro/kernels/conv.cc ****       params->stride_height, params->stride_width,
  94:../src/tensorflow/lite/micro/kernels/conv.cc ****       params->dilation_height_factor, params->dilation_width_factor, height,
  95:../src/tensorflow/lite/micro/kernels/conv.cc ****       width, filter_height, filter_width, padding, &out_height, &out_width);
  96:../src/tensorflow/lite/micro/kernels/conv.cc **** 
  97:../src/tensorflow/lite/micro/kernels/conv.cc ****   // Note that quantized inference requires that all tensors have their
  98:../src/tensorflow/lite/micro/kernels/conv.cc ****   // parameters set. This is usually done during quantized training.
  99:../src/tensorflow/lite/micro/kernels/conv.cc ****   if (data_type != kTfLiteFloat32) {
 100:../src/tensorflow/lite/micro/kernels/conv.cc ****     const TfLiteTensor* input = GetInput(context, node, kInputTensor);
 101:../src/tensorflow/lite/micro/kernels/conv.cc ****     const TfLiteTensor* filter = GetInput(context, node, kFilterTensor);
 102:../src/tensorflow/lite/micro/kernels/conv.cc ****     const TfLiteTensor* bias =
 103:../src/tensorflow/lite/micro/kernels/conv.cc ****         GetOptionalInputTensor(context, node, kBiasTensor);
 104:../src/tensorflow/lite/micro/kernels/conv.cc ****     TfLiteTensor* output = GetOutput(context, node, kOutputTensor);
 105:../src/tensorflow/lite/micro/kernels/conv.cc ****     int num_channels = filter->dims->data[kConvQuantizedDimension];
 106:../src/tensorflow/lite/micro/kernels/conv.cc **** 
 107:../src/tensorflow/lite/micro/kernels/conv.cc ****     TF_LITE_ENSURE_STATUS(tflite::PopulateConvolutionQuantizationParams(
 108:../src/tensorflow/lite/micro/kernels/conv.cc ****         context, input, filter, bias, output, params->activation,
 109:../src/tensorflow/lite/micro/kernels/conv.cc ****         &data->output_multiplier, &data->output_shift,
 110:../src/tensorflow/lite/micro/kernels/conv.cc ****         &data->output_activation_min, &data->output_activation_max,
 111:../src/tensorflow/lite/micro/kernels/conv.cc ****         data->per_channel_output_multiplier,
 112:../src/tensorflow/lite/micro/kernels/conv.cc ****         reinterpret_cast<int*>(data->per_channel_output_shift), num_channels));
 113:../src/tensorflow/lite/micro/kernels/conv.cc ****   }
 114:../src/tensorflow/lite/micro/kernels/conv.cc ****   return kTfLiteOk;
 115:../src/tensorflow/lite/micro/kernels/conv.cc **** }
 116:../src/tensorflow/lite/micro/kernels/conv.cc **** 
 117:../src/tensorflow/lite/micro/kernels/conv.cc **** void* Init(TfLiteContext* context, const char* buffer, size_t length) {
   9                             		.loc 1 117 71
  10                             	.LVL0:
 118:../src/tensorflow/lite/micro/kernels/conv.cc ****   TFLITE_DCHECK(context->AllocatePersistentBuffer != nullptr);
  11                             		.loc 1 118 3
  12 0000 AB 95                   		mov.L	56[r1], r5
  13 0002 61 05                   		cmp	#0, r5
  14 0004 17                      		beq	.L4
 119:../src/tensorflow/lite/micro/kernels/conv.cc ****   return context->AllocatePersistentBuffer(context, sizeof(OpData));
  15                             		.loc 1 119 3
  16                             		.loc 1 119 43 is_stmt 0
  17 0005 75 42 38                		mov.L	#56, r2
  18                             	.LVL1:
  19 0008 7F 15                   		jsr	r5
  20                             	.LVL2:
 120:../src/tensorflow/lite/micro/kernels/conv.cc **** }
  21                             		.loc 1 120 1
  22 000a 02                      		rts
  23                             	.LVL3:
  24                             	.L4:
 118:../src/tensorflow/lite/micro/kernels/conv.cc ****   TFLITE_DCHECK(context->AllocatePersistentBuffer != nullptr);
  25                             		.loc 1 118 3 discriminator 1
  26 000b 05 00 00 00             		bsr	_abort
  27                             	.LVL4:
  28                             	.LFE2258:
  30                             		.section	.text._ZN6tflite12_GLOBAL__N_17PrepareEP13TfLiteContextP10TfLiteNode,"ax",@progbits
  32                             	__ZN6tflite12_GLOBAL__N_17PrepareEP13TfLiteContextP10TfLiteNode:
  33                             	.LFB2259:
 121:../src/tensorflow/lite/micro/kernels/conv.cc **** 
 122:../src/tensorflow/lite/micro/kernels/conv.cc **** TfLiteStatus Prepare(TfLiteContext* context, TfLiteNode* node) {
  34                             		.loc 1 122 64 is_stmt 1
  35                             	.LVL5:
  36 0000 6E 6D                   		pushm	r6-r13
  37                             	.LCFI0:
  38 0002 72 00 3C FF             		add	#-196, r0
  39                             	.LCFI1:
 123:../src/tensorflow/lite/micro/kernels/conv.cc ****   TFLITE_DCHECK(node->user_data != nullptr);
  40                             		.loc 1 123 3
  41 0006 ED 2A 04                		mov.L	16[r2], r10
  42 0009 61 0A                   		cmp	#0, r10
  43 000b 3A E5 01                		beq	.L7
  44 000e EF 26                   		mov.L	r2, r6
 124:../src/tensorflow/lite/micro/kernels/conv.cc ****   TFLITE_DCHECK(node->builtin_data != nullptr);
  45                             		.loc 1 124 3
  46 0010 E5 20 05 2B             		mov.L	20[r2], 172[r0]
  47 0014 ED 05 2B                		mov.L	172[r0], r5
  48 0017 61 05                   		cmp	#0, r5
  49 0019 3A D7 01                		beq	.L7
  50 001c EF 17                   		mov.L	r1, r7
 125:../src/tensorflow/lite/micro/kernels/conv.cc **** 
 126:../src/tensorflow/lite/micro/kernels/conv.cc ****   int32_t buf_size = 0;
  51                             		.loc 1 126 3
  52                             	.LVL6:
 127:../src/tensorflow/lite/micro/kernels/conv.cc ****   const auto params = static_cast<const TfLiteConvParams*>(node->builtin_data);
  53                             		.loc 1 127 3
 128:../src/tensorflow/lite/micro/kernels/conv.cc ****   OpData* data = static_cast<OpData*>(node->user_data);
  54                             		.loc 1 128 3
 129:../src/tensorflow/lite/micro/kernels/conv.cc **** 
 130:../src/tensorflow/lite/micro/kernels/conv.cc ****   const TfLiteTensor* input = GetInput(context, node, kInputTensor);
  55                             		.loc 1 130 3
  56                             		.loc 1 130 39 is_stmt 0
  57 001e 66 03                   		mov.L	#0, r3
  58 0020 05 00 00 00             		bsr	__ZN6tflite8GetInputEPK13TfLiteContextPK10TfLiteNodei
  59                             	.LVL7:
  60 0024 EF 19                   		mov.L	r1, r9
  61                             	.LVL8:
 131:../src/tensorflow/lite/micro/kernels/conv.cc ****   const TfLiteTensor* filter = GetInput(context, node, kFilterTensor);
  62                             		.loc 1 131 3 is_stmt 1
  63                             		.loc 1 131 40 is_stmt 0
  64 0026 66 13                   		mov.L	#1, r3
  65 0028 EF 62                   		mov.L	r6, r2
  66 002a EF 71                   		mov.L	r7, r1
  67                             	.LVL9:
  68 002c 05 00 00 00             		bsr	__ZN6tflite8GetInputEPK13TfLiteContextPK10TfLiteNodei
  69                             	.LVL10:
  70 0030 E7 01 2E                		mov.L	r1, 184[r0]
  71                             	.LVL11:
 132:../src/tensorflow/lite/micro/kernels/conv.cc ****   const TfLiteTensor* output = GetOutput(context, node, kOutputTensor);
  72                             		.loc 1 132 3 is_stmt 1
  73                             		.loc 1 132 41 is_stmt 0
  74 0033 66 03                   		mov.L	#0, r3
  75 0035 EF 62                   		mov.L	r6, r2
  76 0037 EF 71                   		mov.L	r7, r1
  77                             	.LVL12:
  78 0039 05 00 00 00             		bsr	__ZN6tflite9GetOutputEP13TfLiteContextPK10TfLiteNodei
  79                             	.LVL13:
  80 003d EF 18                   		mov.L	r1, r8
  81                             	.LVL14:
 133:../src/tensorflow/lite/micro/kernels/conv.cc **** 
 134:../src/tensorflow/lite/micro/kernels/conv.cc ****   RuntimeShape input_shape = GetTensorShape(input);
  82                             		.loc 1 134 3 is_stmt 1
  83                             	.LBB550:
  84                             	.LBB551:
  85                             		.file 2 "C:\\Users\\a5116938\\Desktop\\e2_studio_workspace\\EEMBC_final\\RX65N_Cloud_Kit\\src/tens
   1:C:\Users\a5116938\Desktop\e2_studio_workspace\EEMBC_final\RX65N_Cloud_Kit\src/tensorflow/lite/kernels/internal\tensor_ctypes.h **** /* Copyright 2017 The TensorFlow Authors. All Rights Reserved.
   2:C:\Users\a5116938\Desktop\e2_studio_workspace\EEMBC_final\RX65N_Cloud_Kit\src/tensorflow/lite/kernels/internal\tensor_ctypes.h **** 
   3:C:\Users\a5116938\Desktop\e2_studio_workspace\EEMBC_final\RX65N_Cloud_Kit\src/tensorflow/lite/kernels/internal\tensor_ctypes.h **** Licensed under the Apache License, Version 2.0 (the "License");
   4:C:\Users\a5116938\Desktop\e2_studio_workspace\EEMBC_final\RX65N_Cloud_Kit\src/tensorflow/lite/kernels/internal\tensor_ctypes.h **** you may not use this file except in compliance with the License.
   5:C:\Users\a5116938\Desktop\e2_studio_workspace\EEMBC_final\RX65N_Cloud_Kit\src/tensorflow/lite/kernels/internal\tensor_ctypes.h **** You may obtain a copy of the License at
   6:C:\Users\a5116938\Desktop\e2_studio_workspace\EEMBC_final\RX65N_Cloud_Kit\src/tensorflow/lite/kernels/internal\tensor_ctypes.h **** 
   7:C:\Users\a5116938\Desktop\e2_studio_workspace\EEMBC_final\RX65N_Cloud_Kit\src/tensorflow/lite/kernels/internal\tensor_ctypes.h ****     http://www.apache.org/licenses/LICENSE-2.0
   8:C:\Users\a5116938\Desktop\e2_studio_workspace\EEMBC_final\RX65N_Cloud_Kit\src/tensorflow/lite/kernels/internal\tensor_ctypes.h **** 
   9:C:\Users\a5116938\Desktop\e2_studio_workspace\EEMBC_final\RX65N_Cloud_Kit\src/tensorflow/lite/kernels/internal\tensor_ctypes.h **** Unless required by applicable law or agreed to in writing, software
  10:C:\Users\a5116938\Desktop\e2_studio_workspace\EEMBC_final\RX65N_Cloud_Kit\src/tensorflow/lite/kernels/internal\tensor_ctypes.h **** distributed under the License is distributed on an "AS IS" BASIS,
  11:C:\Users\a5116938\Desktop\e2_studio_workspace\EEMBC_final\RX65N_Cloud_Kit\src/tensorflow/lite/kernels/internal\tensor_ctypes.h **** WITHOUT WARRANTIES OR CONDITIONS OF ANY KIND, either express or implied.
  12:C:\Users\a5116938\Desktop\e2_studio_workspace\EEMBC_final\RX65N_Cloud_Kit\src/tensorflow/lite/kernels/internal\tensor_ctypes.h **** See the License for the specific language governing permissions and
  13:C:\Users\a5116938\Desktop\e2_studio_workspace\EEMBC_final\RX65N_Cloud_Kit\src/tensorflow/lite/kernels/internal\tensor_ctypes.h **** limitations under the License.
  14:C:\Users\a5116938\Desktop\e2_studio_workspace\EEMBC_final\RX65N_Cloud_Kit\src/tensorflow/lite/kernels/internal\tensor_ctypes.h **** ==============================================================================*/
  15:C:\Users\a5116938\Desktop\e2_studio_workspace\EEMBC_final\RX65N_Cloud_Kit\src/tensorflow/lite/kernels/internal\tensor_ctypes.h **** #ifndef TENSORFLOW_LITE_KERNELS_INTERNAL_TENSOR_CTYPES_H_
  16:C:\Users\a5116938\Desktop\e2_studio_workspace\EEMBC_final\RX65N_Cloud_Kit\src/tensorflow/lite/kernels/internal\tensor_ctypes.h **** #define TENSORFLOW_LITE_KERNELS_INTERNAL_TENSOR_CTYPES_H_
  17:C:\Users\a5116938\Desktop\e2_studio_workspace\EEMBC_final\RX65N_Cloud_Kit\src/tensorflow/lite/kernels/internal\tensor_ctypes.h **** 
  18:C:\Users\a5116938\Desktop\e2_studio_workspace\EEMBC_final\RX65N_Cloud_Kit\src/tensorflow/lite/kernels/internal\tensor_ctypes.h **** #include "tensorflow/lite/c/common.h"
  19:C:\Users\a5116938\Desktop\e2_studio_workspace\EEMBC_final\RX65N_Cloud_Kit\src/tensorflow/lite/kernels/internal\tensor_ctypes.h **** #include "tensorflow/lite/kernels/internal/types.h"
  20:C:\Users\a5116938\Desktop\e2_studio_workspace\EEMBC_final\RX65N_Cloud_Kit\src/tensorflow/lite/kernels/internal\tensor_ctypes.h **** 
  21:C:\Users\a5116938\Desktop\e2_studio_workspace\EEMBC_final\RX65N_Cloud_Kit\src/tensorflow/lite/kernels/internal\tensor_ctypes.h **** namespace tflite {
  22:C:\Users\a5116938\Desktop\e2_studio_workspace\EEMBC_final\RX65N_Cloud_Kit\src/tensorflow/lite/kernels/internal\tensor_ctypes.h **** 
  23:C:\Users\a5116938\Desktop\e2_studio_workspace\EEMBC_final\RX65N_Cloud_Kit\src/tensorflow/lite/kernels/internal\tensor_ctypes.h **** template <typename T>
  24:C:\Users\a5116938\Desktop\e2_studio_workspace\EEMBC_final\RX65N_Cloud_Kit\src/tensorflow/lite/kernels/internal\tensor_ctypes.h **** inline T* GetTensorData(TfLiteTensor* tensor) {
  25:C:\Users\a5116938\Desktop\e2_studio_workspace\EEMBC_final\RX65N_Cloud_Kit\src/tensorflow/lite/kernels/internal\tensor_ctypes.h ****   return tensor != nullptr ? reinterpret_cast<T*>(tensor->data.raw) : nullptr;
  26:C:\Users\a5116938\Desktop\e2_studio_workspace\EEMBC_final\RX65N_Cloud_Kit\src/tensorflow/lite/kernels/internal\tensor_ctypes.h **** }
  27:C:\Users\a5116938\Desktop\e2_studio_workspace\EEMBC_final\RX65N_Cloud_Kit\src/tensorflow/lite/kernels/internal\tensor_ctypes.h **** 
  28:C:\Users\a5116938\Desktop\e2_studio_workspace\EEMBC_final\RX65N_Cloud_Kit\src/tensorflow/lite/kernels/internal\tensor_ctypes.h **** template <typename T>
  29:C:\Users\a5116938\Desktop\e2_studio_workspace\EEMBC_final\RX65N_Cloud_Kit\src/tensorflow/lite/kernels/internal\tensor_ctypes.h **** inline const T* GetTensorData(const TfLiteTensor* tensor) {
  30:C:\Users\a5116938\Desktop\e2_studio_workspace\EEMBC_final\RX65N_Cloud_Kit\src/tensorflow/lite/kernels/internal\tensor_ctypes.h ****   return tensor != nullptr ? reinterpret_cast<const T*>(tensor->data.raw)
  31:C:\Users\a5116938\Desktop\e2_studio_workspace\EEMBC_final\RX65N_Cloud_Kit\src/tensorflow/lite/kernels/internal\tensor_ctypes.h ****                            : nullptr;
  32:C:\Users\a5116938\Desktop\e2_studio_workspace\EEMBC_final\RX65N_Cloud_Kit\src/tensorflow/lite/kernels/internal\tensor_ctypes.h **** }
  33:C:\Users\a5116938\Desktop\e2_studio_workspace\EEMBC_final\RX65N_Cloud_Kit\src/tensorflow/lite/kernels/internal\tensor_ctypes.h **** 
  34:C:\Users\a5116938\Desktop\e2_studio_workspace\EEMBC_final\RX65N_Cloud_Kit\src/tensorflow/lite/kernels/internal\tensor_ctypes.h **** inline RuntimeShape GetTensorShape(const TfLiteTensor* tensor) {
  35:C:\Users\a5116938\Desktop\e2_studio_workspace\EEMBC_final\RX65N_Cloud_Kit\src/tensorflow/lite/kernels/internal\tensor_ctypes.h ****   if (tensor == nullptr) {
  86                             		.loc 2 35 3
  87 003f 61 09                   		cmp	#0, r9
  88 0041 3A 93 01                		beq	.L50
  36:C:\Users\a5116938\Desktop\e2_studio_workspace\EEMBC_final\RX65N_Cloud_Kit\src/tensorflow/lite/kernels/internal\tensor_ctypes.h ****     return RuntimeShape();
  37:C:\Users\a5116938\Desktop\e2_studio_workspace\EEMBC_final\RX65N_Cloud_Kit\src/tensorflow/lite/kernels/internal\tensor_ctypes.h ****   }
  38:C:\Users\a5116938\Desktop\e2_studio_workspace\EEMBC_final\RX65N_Cloud_Kit\src/tensorflow/lite/kernels/internal\tensor_ctypes.h **** 
  39:C:\Users\a5116938\Desktop\e2_studio_workspace\EEMBC_final\RX65N_Cloud_Kit\src/tensorflow/lite/kernels/internal\tensor_ctypes.h ****   TfLiteIntArray* dims = tensor->dims;
  89                             		.loc 2 39 3
  90                             		.loc 2 39 19 is_stmt 0
  91 0044 ED 9B 02                		mov.L	8[r9], r11
  92                             	.LVL15:
  40:C:\Users\a5116938\Desktop\e2_studio_workspace\EEMBC_final\RX65N_Cloud_Kit\src/tensorflow/lite/kernels/internal\tensor_ctypes.h ****   const int dims_size = dims->size;
  93                             		.loc 2 40 3 is_stmt 1
  94                             		.loc 2 40 13 is_stmt 0
  95 0047 EC B1                   		mov.L	[r11], r1
  96                             	.LVL16:
  41:C:\Users\a5116938\Desktop\e2_studio_workspace\EEMBC_final\RX65N_Cloud_Kit\src/tensorflow/lite/kernels/internal\tensor_ctypes.h ****   const int32_t* dims_data = reinterpret_cast<const int32_t*>(dims->data);
  97                             		.loc 2 41 3 is_stmt 1
  42:C:\Users\a5116938\Desktop\e2_studio_workspace\EEMBC_final\RX65N_Cloud_Kit\src/tensorflow/lite/kernels/internal\tensor_ctypes.h ****   return RuntimeShape(dims_size, dims_data);
  98                             		.loc 2 42 3
  99                             	.LBE551:
 100                             	.LBE550:
 101                             		.file 3 "C:\\Users\\a5116938\\Desktop\\e2_studio_workspace\\EEMBC_final\\RX65N_Cloud_Kit\\src/tens
   1:C:\Users\a5116938\Desktop\e2_studio_workspace\EEMBC_final\RX65N_Cloud_Kit\src/tensorflow/lite/kernels/internal\types.h **** /* Copyright 2018 The TensorFlow Authors. All Rights Reserved.
   2:C:\Users\a5116938\Desktop\e2_studio_workspace\EEMBC_final\RX65N_Cloud_Kit\src/tensorflow/lite/kernels/internal\types.h **** 
   3:C:\Users\a5116938\Desktop\e2_studio_workspace\EEMBC_final\RX65N_Cloud_Kit\src/tensorflow/lite/kernels/internal\types.h **** Licensed under the Apache License, Version 2.0 (the "License");
   4:C:\Users\a5116938\Desktop\e2_studio_workspace\EEMBC_final\RX65N_Cloud_Kit\src/tensorflow/lite/kernels/internal\types.h **** you may not use this file except in compliance with the License.
   5:C:\Users\a5116938\Desktop\e2_studio_workspace\EEMBC_final\RX65N_Cloud_Kit\src/tensorflow/lite/kernels/internal\types.h **** You may obtain a copy of the License at
   6:C:\Users\a5116938\Desktop\e2_studio_workspace\EEMBC_final\RX65N_Cloud_Kit\src/tensorflow/lite/kernels/internal\types.h **** 
   7:C:\Users\a5116938\Desktop\e2_studio_workspace\EEMBC_final\RX65N_Cloud_Kit\src/tensorflow/lite/kernels/internal\types.h ****     http://www.apache.org/licenses/LICENSE-2.0
   8:C:\Users\a5116938\Desktop\e2_studio_workspace\EEMBC_final\RX65N_Cloud_Kit\src/tensorflow/lite/kernels/internal\types.h **** 
   9:C:\Users\a5116938\Desktop\e2_studio_workspace\EEMBC_final\RX65N_Cloud_Kit\src/tensorflow/lite/kernels/internal\types.h **** Unless required by applicable law or agreed to in writing, software
  10:C:\Users\a5116938\Desktop\e2_studio_workspace\EEMBC_final\RX65N_Cloud_Kit\src/tensorflow/lite/kernels/internal\types.h **** distributed under the License is distributed on an "AS IS" BASIS,
  11:C:\Users\a5116938\Desktop\e2_studio_workspace\EEMBC_final\RX65N_Cloud_Kit\src/tensorflow/lite/kernels/internal\types.h **** WITHOUT WARRANTIES OR CONDITIONS OF ANY KIND, either express or implied.
  12:C:\Users\a5116938\Desktop\e2_studio_workspace\EEMBC_final\RX65N_Cloud_Kit\src/tensorflow/lite/kernels/internal\types.h **** See the License for the specific language governing permissions and
  13:C:\Users\a5116938\Desktop\e2_studio_workspace\EEMBC_final\RX65N_Cloud_Kit\src/tensorflow/lite/kernels/internal\types.h **** limitations under the License.
  14:C:\Users\a5116938\Desktop\e2_studio_workspace\EEMBC_final\RX65N_Cloud_Kit\src/tensorflow/lite/kernels/internal\types.h **** ==============================================================================*/
  15:C:\Users\a5116938\Desktop\e2_studio_workspace\EEMBC_final\RX65N_Cloud_Kit\src/tensorflow/lite/kernels/internal\types.h **** #ifndef TENSORFLOW_LITE_KERNELS_INTERNAL_TYPES_H_
  16:C:\Users\a5116938\Desktop\e2_studio_workspace\EEMBC_final\RX65N_Cloud_Kit\src/tensorflow/lite/kernels/internal\types.h **** #define TENSORFLOW_LITE_KERNELS_INTERNAL_TYPES_H_
  17:C:\Users\a5116938\Desktop\e2_studio_workspace\EEMBC_final\RX65N_Cloud_Kit\src/tensorflow/lite/kernels/internal\types.h **** 
  18:C:\Users\a5116938\Desktop\e2_studio_workspace\EEMBC_final\RX65N_Cloud_Kit\src/tensorflow/lite/kernels/internal\types.h **** #include <algorithm>
  19:C:\Users\a5116938\Desktop\e2_studio_workspace\EEMBC_final\RX65N_Cloud_Kit\src/tensorflow/lite/kernels/internal\types.h **** #include <cstdint>
  20:C:\Users\a5116938\Desktop\e2_studio_workspace\EEMBC_final\RX65N_Cloud_Kit\src/tensorflow/lite/kernels/internal\types.h **** #include <cstring>
  21:C:\Users\a5116938\Desktop\e2_studio_workspace\EEMBC_final\RX65N_Cloud_Kit\src/tensorflow/lite/kernels/internal\types.h **** #include <initializer_list>
  22:C:\Users\a5116938\Desktop\e2_studio_workspace\EEMBC_final\RX65N_Cloud_Kit\src/tensorflow/lite/kernels/internal\types.h **** 
  23:C:\Users\a5116938\Desktop\e2_studio_workspace\EEMBC_final\RX65N_Cloud_Kit\src/tensorflow/lite/kernels/internal\types.h **** #include "tensorflow/lite/kernels/internal/compatibility.h"
  24:C:\Users\a5116938\Desktop\e2_studio_workspace\EEMBC_final\RX65N_Cloud_Kit\src/tensorflow/lite/kernels/internal\types.h **** 
  25:C:\Users\a5116938\Desktop\e2_studio_workspace\EEMBC_final\RX65N_Cloud_Kit\src/tensorflow/lite/kernels/internal\types.h **** namespace tflite {
  26:C:\Users\a5116938\Desktop\e2_studio_workspace\EEMBC_final\RX65N_Cloud_Kit\src/tensorflow/lite/kernels/internal\types.h **** 
  27:C:\Users\a5116938\Desktop\e2_studio_workspace\EEMBC_final\RX65N_Cloud_Kit\src/tensorflow/lite/kernels/internal\types.h **** enum class FusedActivationFunctionType : uint8_t {
  28:C:\Users\a5116938\Desktop\e2_studio_workspace\EEMBC_final\RX65N_Cloud_Kit\src/tensorflow/lite/kernels/internal\types.h ****   kNone,
  29:C:\Users\a5116938\Desktop\e2_studio_workspace\EEMBC_final\RX65N_Cloud_Kit\src/tensorflow/lite/kernels/internal\types.h ****   kRelu6,
  30:C:\Users\a5116938\Desktop\e2_studio_workspace\EEMBC_final\RX65N_Cloud_Kit\src/tensorflow/lite/kernels/internal\types.h ****   kRelu1,
  31:C:\Users\a5116938\Desktop\e2_studio_workspace\EEMBC_final\RX65N_Cloud_Kit\src/tensorflow/lite/kernels/internal\types.h ****   kRelu
  32:C:\Users\a5116938\Desktop\e2_studio_workspace\EEMBC_final\RX65N_Cloud_Kit\src/tensorflow/lite/kernels/internal\types.h **** };
  33:C:\Users\a5116938\Desktop\e2_studio_workspace\EEMBC_final\RX65N_Cloud_Kit\src/tensorflow/lite/kernels/internal\types.h **** enum class PaddingType : uint8_t { kNone, kSame, kValid };
  34:C:\Users\a5116938\Desktop\e2_studio_workspace\EEMBC_final\RX65N_Cloud_Kit\src/tensorflow/lite/kernels/internal\types.h **** 
  35:C:\Users\a5116938\Desktop\e2_studio_workspace\EEMBC_final\RX65N_Cloud_Kit\src/tensorflow/lite/kernels/internal\types.h **** struct PaddingValues {
  36:C:\Users\a5116938\Desktop\e2_studio_workspace\EEMBC_final\RX65N_Cloud_Kit\src/tensorflow/lite/kernels/internal\types.h ****   int16_t width;
  37:C:\Users\a5116938\Desktop\e2_studio_workspace\EEMBC_final\RX65N_Cloud_Kit\src/tensorflow/lite/kernels/internal\types.h ****   int16_t height;
  38:C:\Users\a5116938\Desktop\e2_studio_workspace\EEMBC_final\RX65N_Cloud_Kit\src/tensorflow/lite/kernels/internal\types.h ****   // offset is used for calculating "remaining" padding, for example, `width`
  39:C:\Users\a5116938\Desktop\e2_studio_workspace\EEMBC_final\RX65N_Cloud_Kit\src/tensorflow/lite/kernels/internal\types.h ****   // is 1 and `width_offset` is 1, so padding_left is 1 while padding_right is
  40:C:\Users\a5116938\Desktop\e2_studio_workspace\EEMBC_final\RX65N_Cloud_Kit\src/tensorflow/lite/kernels/internal\types.h ****   // 1 + 1 = 2.
  41:C:\Users\a5116938\Desktop\e2_studio_workspace\EEMBC_final\RX65N_Cloud_Kit\src/tensorflow/lite/kernels/internal\types.h ****   int16_t width_offset;
  42:C:\Users\a5116938\Desktop\e2_studio_workspace\EEMBC_final\RX65N_Cloud_Kit\src/tensorflow/lite/kernels/internal\types.h ****   // Same as width_offset except it's over the height dimension.
  43:C:\Users\a5116938\Desktop\e2_studio_workspace\EEMBC_final\RX65N_Cloud_Kit\src/tensorflow/lite/kernels/internal\types.h ****   int16_t height_offset;
  44:C:\Users\a5116938\Desktop\e2_studio_workspace\EEMBC_final\RX65N_Cloud_Kit\src/tensorflow/lite/kernels/internal\types.h **** };
  45:C:\Users\a5116938\Desktop\e2_studio_workspace\EEMBC_final\RX65N_Cloud_Kit\src/tensorflow/lite/kernels/internal\types.h **** 
  46:C:\Users\a5116938\Desktop\e2_studio_workspace\EEMBC_final\RX65N_Cloud_Kit\src/tensorflow/lite/kernels/internal\types.h **** // This enumeration allows for non-default formats for the weights array
  47:C:\Users\a5116938\Desktop\e2_studio_workspace\EEMBC_final\RX65N_Cloud_Kit\src/tensorflow/lite/kernels/internal\types.h **** // of a fully-connected operator, allowing the use of special optimized
  48:C:\Users\a5116938\Desktop\e2_studio_workspace\EEMBC_final\RX65N_Cloud_Kit\src/tensorflow/lite/kernels/internal\types.h **** // runtime paths.
  49:C:\Users\a5116938\Desktop\e2_studio_workspace\EEMBC_final\RX65N_Cloud_Kit\src/tensorflow/lite/kernels/internal\types.h **** enum class FullyConnectedWeightsFormat : uint8_t {
  50:C:\Users\a5116938\Desktop\e2_studio_workspace\EEMBC_final\RX65N_Cloud_Kit\src/tensorflow/lite/kernels/internal\types.h ****   // Default format (flat 2D layout, the inner contiguous dimension
  51:C:\Users\a5116938\Desktop\e2_studio_workspace\EEMBC_final\RX65N_Cloud_Kit\src/tensorflow/lite/kernels/internal\types.h ****   // is input_depth, the outer non-contiguous dimension is output_depth)
  52:C:\Users\a5116938\Desktop\e2_studio_workspace\EEMBC_final\RX65N_Cloud_Kit\src/tensorflow/lite/kernels/internal\types.h ****   kDefault,
  53:C:\Users\a5116938\Desktop\e2_studio_workspace\EEMBC_final\RX65N_Cloud_Kit\src/tensorflow/lite/kernels/internal\types.h ****   // Summary: optimized layout for fast CPU runtime implementation,
  54:C:\Users\a5116938\Desktop\e2_studio_workspace\EEMBC_final\RX65N_Cloud_Kit\src/tensorflow/lite/kernels/internal\types.h ****   // aimed specifically at ARM CPUs at the moment, and specialized for
  55:C:\Users\a5116938\Desktop\e2_studio_workspace\EEMBC_final\RX65N_Cloud_Kit\src/tensorflow/lite/kernels/internal\types.h ****   // 8-bit quantized layers.
  56:C:\Users\a5116938\Desktop\e2_studio_workspace\EEMBC_final\RX65N_Cloud_Kit\src/tensorflow/lite/kernels/internal\types.h ****   //
  57:C:\Users\a5116938\Desktop\e2_studio_workspace\EEMBC_final\RX65N_Cloud_Kit\src/tensorflow/lite/kernels/internal\types.h ****   // The use case we're concerned with here is: 8-bit quantization,
  58:C:\Users\a5116938\Desktop\e2_studio_workspace\EEMBC_final\RX65N_Cloud_Kit\src/tensorflow/lite/kernels/internal\types.h ****   // large weights matrix that doesn't fit in cache (e.g. 4096x2048 in
  59:C:\Users\a5116938\Desktop\e2_studio_workspace\EEMBC_final\RX65N_Cloud_Kit\src/tensorflow/lite/kernels/internal\types.h ****   // a key application that drove this), very small batch size (e.g. 1 -- 4).
  60:C:\Users\a5116938\Desktop\e2_studio_workspace\EEMBC_final\RX65N_Cloud_Kit\src/tensorflow/lite/kernels/internal\types.h ****   //
  61:C:\Users\a5116938\Desktop\e2_studio_workspace\EEMBC_final\RX65N_Cloud_Kit\src/tensorflow/lite/kernels/internal\types.h ****   // Even with 8-bit quantization of weights, the performance of memory
  62:C:\Users\a5116938\Desktop\e2_studio_workspace\EEMBC_final\RX65N_Cloud_Kit\src/tensorflow/lite/kernels/internal\types.h ****   // accesses to the weights can become the dominant issue when
  63:C:\Users\a5116938\Desktop\e2_studio_workspace\EEMBC_final\RX65N_Cloud_Kit\src/tensorflow/lite/kernels/internal\types.h ****   // the batch size is small, so each weight value is used in only a few
  64:C:\Users\a5116938\Desktop\e2_studio_workspace\EEMBC_final\RX65N_Cloud_Kit\src/tensorflow/lite/kernels/internal\types.h ****   // arithmetic ops, i.e. the fully-connected node has a low arithmetic
  65:C:\Users\a5116938\Desktop\e2_studio_workspace\EEMBC_final\RX65N_Cloud_Kit\src/tensorflow/lite/kernels/internal\types.h ****   // intensity. The specific issues that arise are of three kinds:
  66:C:\Users\a5116938\Desktop\e2_studio_workspace\EEMBC_final\RX65N_Cloud_Kit\src/tensorflow/lite/kernels/internal\types.h ****   // (1) One may, ideally, max out DRAM bandwidth, i.e. be truly memory
  67:C:\Users\a5116938\Desktop\e2_studio_workspace\EEMBC_final\RX65N_Cloud_Kit\src/tensorflow/lite/kernels/internal\types.h ****   //     bound. That's the "good" issue to run into.
  68:C:\Users\a5116938\Desktop\e2_studio_workspace\EEMBC_final\RX65N_Cloud_Kit\src/tensorflow/lite/kernels/internal\types.h ****   // (2) One may run into sub-optimal pre-fetching: the data hasn't been
  69:C:\Users\a5116938\Desktop\e2_studio_workspace\EEMBC_final\RX65N_Cloud_Kit\src/tensorflow/lite/kernels/internal\types.h ****   //     prefetched into the cache by the time we need it.
  70:C:\Users\a5116938\Desktop\e2_studio_workspace\EEMBC_final\RX65N_Cloud_Kit\src/tensorflow/lite/kernels/internal\types.h ****   // (3) One may run into cache aliasing: multiple values that are
  71:C:\Users\a5116938\Desktop\e2_studio_workspace\EEMBC_final\RX65N_Cloud_Kit\src/tensorflow/lite/kernels/internal\types.h ****   //     pre-fetched, alias each other in the L1 cache (which typically
  72:C:\Users\a5116938\Desktop\e2_studio_workspace\EEMBC_final\RX65N_Cloud_Kit\src/tensorflow/lite/kernels/internal\types.h ****   //     has only 4-way set associativity in ARM CPUs) and thus evict
  73:C:\Users\a5116938\Desktop\e2_studio_workspace\EEMBC_final\RX65N_Cloud_Kit\src/tensorflow/lite/kernels/internal\types.h ****   //     each other before we get to using them.
  74:C:\Users\a5116938\Desktop\e2_studio_workspace\EEMBC_final\RX65N_Cloud_Kit\src/tensorflow/lite/kernels/internal\types.h ****   //
  75:C:\Users\a5116938\Desktop\e2_studio_workspace\EEMBC_final\RX65N_Cloud_Kit\src/tensorflow/lite/kernels/internal\types.h ****   // The point of this shuffling is to avoid issues (2) and (3) so that
  76:C:\Users\a5116938\Desktop\e2_studio_workspace\EEMBC_final\RX65N_Cloud_Kit\src/tensorflow/lite/kernels/internal\types.h ****   // we get as fast as possible given only the hard constraint (1).
  77:C:\Users\a5116938\Desktop\e2_studio_workspace\EEMBC_final\RX65N_Cloud_Kit\src/tensorflow/lite/kernels/internal\types.h ****   // This is achieved by turning the difficulty into a solution: the
  78:C:\Users\a5116938\Desktop\e2_studio_workspace\EEMBC_final\RX65N_Cloud_Kit\src/tensorflow/lite/kernels/internal\types.h ****   // difficulty, that each value loaded from memory is used only in
  79:C:\Users\a5116938\Desktop\e2_studio_workspace\EEMBC_final\RX65N_Cloud_Kit\src/tensorflow/lite/kernels/internal\types.h ****   // one kernel iteration, making this operation memory-intensive, hints at
  80:C:\Users\a5116938\Desktop\e2_studio_workspace\EEMBC_final\RX65N_Cloud_Kit\src/tensorflow/lite/kernels/internal\types.h ****   // the solution, of shuffling the weights so that they are stored in the
  81:C:\Users\a5116938\Desktop\e2_studio_workspace\EEMBC_final\RX65N_Cloud_Kit\src/tensorflow/lite/kernels/internal\types.h ****   // exact order as the kernel needs to load them, so that the memory
  82:C:\Users\a5116938\Desktop\e2_studio_workspace\EEMBC_final\RX65N_Cloud_Kit\src/tensorflow/lite/kernels/internal\types.h ****   // accesses made by the kernel are trivial. This solves (2) because the
  83:C:\Users\a5116938\Desktop\e2_studio_workspace\EEMBC_final\RX65N_Cloud_Kit\src/tensorflow/lite/kernels/internal\types.h ****   // trivial memory access pattern allows the CPU's automatic prefetching
  84:C:\Users\a5116938\Desktop\e2_studio_workspace\EEMBC_final\RX65N_Cloud_Kit\src/tensorflow/lite/kernels/internal\types.h ****   // to perform very well (no need even for preload instructions), and this
  85:C:\Users\a5116938\Desktop\e2_studio_workspace\EEMBC_final\RX65N_Cloud_Kit\src/tensorflow/lite/kernels/internal\types.h ****   // solves (3) because the values being loaded concurrently are now
  86:C:\Users\a5116938\Desktop\e2_studio_workspace\EEMBC_final\RX65N_Cloud_Kit\src/tensorflow/lite/kernels/internal\types.h ****   // contiguous in the address space, thus don't alias each other in the cache.
  87:C:\Users\a5116938\Desktop\e2_studio_workspace\EEMBC_final\RX65N_Cloud_Kit\src/tensorflow/lite/kernels/internal\types.h ****   //
  88:C:\Users\a5116938\Desktop\e2_studio_workspace\EEMBC_final\RX65N_Cloud_Kit\src/tensorflow/lite/kernels/internal\types.h ****   // On ARM, we typically want our kernel to process a 4x16 block of weights
  89:C:\Users\a5116938\Desktop\e2_studio_workspace\EEMBC_final\RX65N_Cloud_Kit\src/tensorflow/lite/kernels/internal\types.h ****   // at a time, because:
  90:C:\Users\a5116938\Desktop\e2_studio_workspace\EEMBC_final\RX65N_Cloud_Kit\src/tensorflow/lite/kernels/internal\types.h ****   //   - 16 is the number of bytes in a NEON register.
  91:C:\Users\a5116938\Desktop\e2_studio_workspace\EEMBC_final\RX65N_Cloud_Kit\src/tensorflow/lite/kernels/internal\types.h ****   //   - 4 is how many rows we need to handle concurrently in the kernel in
  92:C:\Users\a5116938\Desktop\e2_studio_workspace\EEMBC_final\RX65N_Cloud_Kit\src/tensorflow/lite/kernels/internal\types.h ****   //     order to have sufficient mutual independence of instructions to
  93:C:\Users\a5116938\Desktop\e2_studio_workspace\EEMBC_final\RX65N_Cloud_Kit\src/tensorflow/lite/kernels/internal\types.h ****   //     maximize arithmetic throughput.
  94:C:\Users\a5116938\Desktop\e2_studio_workspace\EEMBC_final\RX65N_Cloud_Kit\src/tensorflow/lite/kernels/internal\types.h ****   //
  95:C:\Users\a5116938\Desktop\e2_studio_workspace\EEMBC_final\RX65N_Cloud_Kit\src/tensorflow/lite/kernels/internal\types.h ****   // Finally, the 'Int8' part in the name refers to the fact that this
  96:C:\Users\a5116938\Desktop\e2_studio_workspace\EEMBC_final\RX65N_Cloud_Kit\src/tensorflow/lite/kernels/internal\types.h ****   // weights format has each weights value encoded as a signed int8_t value,
  97:C:\Users\a5116938\Desktop\e2_studio_workspace\EEMBC_final\RX65N_Cloud_Kit\src/tensorflow/lite/kernels/internal\types.h ****   // even if the data type of the weights buffer is uint8_t.  This is intended
  98:C:\Users\a5116938\Desktop\e2_studio_workspace\EEMBC_final\RX65N_Cloud_Kit\src/tensorflow/lite/kernels/internal\types.h ****   // to save runtime kernels the effort to have to XOR the top bit of these
  99:C:\Users\a5116938\Desktop\e2_studio_workspace\EEMBC_final\RX65N_Cloud_Kit\src/tensorflow/lite/kernels/internal\types.h ****   // bytes before using them in signed arithmetic, see this file for more
 100:C:\Users\a5116938\Desktop\e2_studio_workspace\EEMBC_final\RX65N_Cloud_Kit\src/tensorflow/lite/kernels/internal\types.h ****   // explanations on the 'signed int8_t trick' in matrix multiplication kernels:
 101:C:\Users\a5116938\Desktop\e2_studio_workspace\EEMBC_final\RX65N_Cloud_Kit\src/tensorflow/lite/kernels/internal\types.h ****   //
 102:C:\Users\a5116938\Desktop\e2_studio_workspace\EEMBC_final\RX65N_Cloud_Kit\src/tensorflow/lite/kernels/internal\types.h ****   //   tensorflow/lite/toco/graph_transformations/ensure_uint8_weights_safe_for_fast_int8_kernels.c
 103:C:\Users\a5116938\Desktop\e2_studio_workspace\EEMBC_final\RX65N_Cloud_Kit\src/tensorflow/lite/kernels/internal\types.h ****   //
 104:C:\Users\a5116938\Desktop\e2_studio_workspace\EEMBC_final\RX65N_Cloud_Kit\src/tensorflow/lite/kernels/internal\types.h ****   kShuffled4x16Int8,
 105:C:\Users\a5116938\Desktop\e2_studio_workspace\EEMBC_final\RX65N_Cloud_Kit\src/tensorflow/lite/kernels/internal\types.h **** };
 106:C:\Users\a5116938\Desktop\e2_studio_workspace\EEMBC_final\RX65N_Cloud_Kit\src/tensorflow/lite/kernels/internal\types.h **** 
 107:C:\Users\a5116938\Desktop\e2_studio_workspace\EEMBC_final\RX65N_Cloud_Kit\src/tensorflow/lite/kernels/internal\types.h **** // Quantization parameters, determining the mapping of quantized values
 108:C:\Users\a5116938\Desktop\e2_studio_workspace\EEMBC_final\RX65N_Cloud_Kit\src/tensorflow/lite/kernels/internal\types.h **** // to real values (i.e. determining how quantized values are mathematically
 109:C:\Users\a5116938\Desktop\e2_studio_workspace\EEMBC_final\RX65N_Cloud_Kit\src/tensorflow/lite/kernels/internal\types.h **** // interpreted).
 110:C:\Users\a5116938\Desktop\e2_studio_workspace\EEMBC_final\RX65N_Cloud_Kit\src/tensorflow/lite/kernels/internal\types.h **** //
 111:C:\Users\a5116938\Desktop\e2_studio_workspace\EEMBC_final\RX65N_Cloud_Kit\src/tensorflow/lite/kernels/internal\types.h **** // The correspondence is as follows:
 112:C:\Users\a5116938\Desktop\e2_studio_workspace\EEMBC_final\RX65N_Cloud_Kit\src/tensorflow/lite/kernels/internal\types.h **** //
 113:C:\Users\a5116938\Desktop\e2_studio_workspace\EEMBC_final\RX65N_Cloud_Kit\src/tensorflow/lite/kernels/internal\types.h **** //   real_value = scale * (quantized_value - zero_point);
 114:C:\Users\a5116938\Desktop\e2_studio_workspace\EEMBC_final\RX65N_Cloud_Kit\src/tensorflow/lite/kernels/internal\types.h **** //
 115:C:\Users\a5116938\Desktop\e2_studio_workspace\EEMBC_final\RX65N_Cloud_Kit\src/tensorflow/lite/kernels/internal\types.h **** // In other words, zero_point designates which quantized value corresponds to
 116:C:\Users\a5116938\Desktop\e2_studio_workspace\EEMBC_final\RX65N_Cloud_Kit\src/tensorflow/lite/kernels/internal\types.h **** // the real 0 value, and scale designates the difference between the real values
 117:C:\Users\a5116938\Desktop\e2_studio_workspace\EEMBC_final\RX65N_Cloud_Kit\src/tensorflow/lite/kernels/internal\types.h **** // corresponding to consecutive quantized values differing by 1.
 118:C:\Users\a5116938\Desktop\e2_studio_workspace\EEMBC_final\RX65N_Cloud_Kit\src/tensorflow/lite/kernels/internal\types.h **** struct QuantizationParams {
 119:C:\Users\a5116938\Desktop\e2_studio_workspace\EEMBC_final\RX65N_Cloud_Kit\src/tensorflow/lite/kernels/internal\types.h ****   int32_t zero_point = 0;
 120:C:\Users\a5116938\Desktop\e2_studio_workspace\EEMBC_final\RX65N_Cloud_Kit\src/tensorflow/lite/kernels/internal\types.h ****   double scale = 0.0;
 121:C:\Users\a5116938\Desktop\e2_studio_workspace\EEMBC_final\RX65N_Cloud_Kit\src/tensorflow/lite/kernels/internal\types.h **** };
 122:C:\Users\a5116938\Desktop\e2_studio_workspace\EEMBC_final\RX65N_Cloud_Kit\src/tensorflow/lite/kernels/internal\types.h **** 
 123:C:\Users\a5116938\Desktop\e2_studio_workspace\EEMBC_final\RX65N_Cloud_Kit\src/tensorflow/lite/kernels/internal\types.h **** inline bool operator==(const QuantizationParams& qp1,
 124:C:\Users\a5116938\Desktop\e2_studio_workspace\EEMBC_final\RX65N_Cloud_Kit\src/tensorflow/lite/kernels/internal\types.h ****                        const QuantizationParams& qp2) {
 125:C:\Users\a5116938\Desktop\e2_studio_workspace\EEMBC_final\RX65N_Cloud_Kit\src/tensorflow/lite/kernels/internal\types.h ****   return qp1.zero_point == qp2.zero_point && qp1.scale == qp2.scale;
 126:C:\Users\a5116938\Desktop\e2_studio_workspace\EEMBC_final\RX65N_Cloud_Kit\src/tensorflow/lite/kernels/internal\types.h **** }
 127:C:\Users\a5116938\Desktop\e2_studio_workspace\EEMBC_final\RX65N_Cloud_Kit\src/tensorflow/lite/kernels/internal\types.h **** 
 128:C:\Users\a5116938\Desktop\e2_studio_workspace\EEMBC_final\RX65N_Cloud_Kit\src/tensorflow/lite/kernels/internal\types.h **** template <int N>
 129:C:\Users\a5116938\Desktop\e2_studio_workspace\EEMBC_final\RX65N_Cloud_Kit\src/tensorflow/lite/kernels/internal\types.h **** struct Dims {
 130:C:\Users\a5116938\Desktop\e2_studio_workspace\EEMBC_final\RX65N_Cloud_Kit\src/tensorflow/lite/kernels/internal\types.h ****   int sizes[N];
 131:C:\Users\a5116938\Desktop\e2_studio_workspace\EEMBC_final\RX65N_Cloud_Kit\src/tensorflow/lite/kernels/internal\types.h ****   int strides[N];
 132:C:\Users\a5116938\Desktop\e2_studio_workspace\EEMBC_final\RX65N_Cloud_Kit\src/tensorflow/lite/kernels/internal\types.h **** };
 133:C:\Users\a5116938\Desktop\e2_studio_workspace\EEMBC_final\RX65N_Cloud_Kit\src/tensorflow/lite/kernels/internal\types.h **** 
 134:C:\Users\a5116938\Desktop\e2_studio_workspace\EEMBC_final\RX65N_Cloud_Kit\src/tensorflow/lite/kernels/internal\types.h **** class RuntimeShape {
 135:C:\Users\a5116938\Desktop\e2_studio_workspace\EEMBC_final\RX65N_Cloud_Kit\src/tensorflow/lite/kernels/internal\types.h ****  public:
 136:C:\Users\a5116938\Desktop\e2_studio_workspace\EEMBC_final\RX65N_Cloud_Kit\src/tensorflow/lite/kernels/internal\types.h ****   // Shapes with dimensions up to 5 are stored directly in the structure, while
 137:C:\Users\a5116938\Desktop\e2_studio_workspace\EEMBC_final\RX65N_Cloud_Kit\src/tensorflow/lite/kernels/internal\types.h ****   // larger shapes are separately allocated.
 138:C:\Users\a5116938\Desktop\e2_studio_workspace\EEMBC_final\RX65N_Cloud_Kit\src/tensorflow/lite/kernels/internal\types.h ****   static constexpr int kMaxSmallSize = 5;
 139:C:\Users\a5116938\Desktop\e2_studio_workspace\EEMBC_final\RX65N_Cloud_Kit\src/tensorflow/lite/kernels/internal\types.h **** 
 140:C:\Users\a5116938\Desktop\e2_studio_workspace\EEMBC_final\RX65N_Cloud_Kit\src/tensorflow/lite/kernels/internal\types.h ****   RuntimeShape& operator=(RuntimeShape const&) = delete;
 141:C:\Users\a5116938\Desktop\e2_studio_workspace\EEMBC_final\RX65N_Cloud_Kit\src/tensorflow/lite/kernels/internal\types.h **** 
 142:C:\Users\a5116938\Desktop\e2_studio_workspace\EEMBC_final\RX65N_Cloud_Kit\src/tensorflow/lite/kernels/internal\types.h ****   RuntimeShape() : size_(0) {}
 143:C:\Users\a5116938\Desktop\e2_studio_workspace\EEMBC_final\RX65N_Cloud_Kit\src/tensorflow/lite/kernels/internal\types.h **** 
 144:C:\Users\a5116938\Desktop\e2_studio_workspace\EEMBC_final\RX65N_Cloud_Kit\src/tensorflow/lite/kernels/internal\types.h ****   explicit RuntimeShape(int dimensions_count) : size_(dimensions_count) {
 145:C:\Users\a5116938\Desktop\e2_studio_workspace\EEMBC_final\RX65N_Cloud_Kit\src/tensorflow/lite/kernels/internal\types.h ****     if (dimensions_count > kMaxSmallSize) {
 146:C:\Users\a5116938\Desktop\e2_studio_workspace\EEMBC_final\RX65N_Cloud_Kit\src/tensorflow/lite/kernels/internal\types.h **** #ifdef TF_LITE_STATIC_MEMORY
 147:C:\Users\a5116938\Desktop\e2_studio_workspace\EEMBC_final\RX65N_Cloud_Kit\src/tensorflow/lite/kernels/internal\types.h ****       TFLITE_CHECK(false && "No shape resizing supported on this platform");
 148:C:\Users\a5116938\Desktop\e2_studio_workspace\EEMBC_final\RX65N_Cloud_Kit\src/tensorflow/lite/kernels/internal\types.h **** #else  // TF_LITE_STATIC_MEMORY
 149:C:\Users\a5116938\Desktop\e2_studio_workspace\EEMBC_final\RX65N_Cloud_Kit\src/tensorflow/lite/kernels/internal\types.h ****       dims_pointer_ = new int32_t[dimensions_count];
 150:C:\Users\a5116938\Desktop\e2_studio_workspace\EEMBC_final\RX65N_Cloud_Kit\src/tensorflow/lite/kernels/internal\types.h **** #endif  // TF_LITE_STATIC_MEMORY
 151:C:\Users\a5116938\Desktop\e2_studio_workspace\EEMBC_final\RX65N_Cloud_Kit\src/tensorflow/lite/kernels/internal\types.h ****     }
 152:C:\Users\a5116938\Desktop\e2_studio_workspace\EEMBC_final\RX65N_Cloud_Kit\src/tensorflow/lite/kernels/internal\types.h ****   }
 153:C:\Users\a5116938\Desktop\e2_studio_workspace\EEMBC_final\RX65N_Cloud_Kit\src/tensorflow/lite/kernels/internal\types.h **** 
 154:C:\Users\a5116938\Desktop\e2_studio_workspace\EEMBC_final\RX65N_Cloud_Kit\src/tensorflow/lite/kernels/internal\types.h ****   RuntimeShape(int shape_size, int32_t value) : size_(0) {
 155:C:\Users\a5116938\Desktop\e2_studio_workspace\EEMBC_final\RX65N_Cloud_Kit\src/tensorflow/lite/kernels/internal\types.h ****     Resize(shape_size);
 156:C:\Users\a5116938\Desktop\e2_studio_workspace\EEMBC_final\RX65N_Cloud_Kit\src/tensorflow/lite/kernels/internal\types.h ****     for (int i = 0; i < shape_size; ++i) {
 157:C:\Users\a5116938\Desktop\e2_studio_workspace\EEMBC_final\RX65N_Cloud_Kit\src/tensorflow/lite/kernels/internal\types.h ****       SetDim(i, value);
 158:C:\Users\a5116938\Desktop\e2_studio_workspace\EEMBC_final\RX65N_Cloud_Kit\src/tensorflow/lite/kernels/internal\types.h ****     }
 159:C:\Users\a5116938\Desktop\e2_studio_workspace\EEMBC_final\RX65N_Cloud_Kit\src/tensorflow/lite/kernels/internal\types.h ****   }
 160:C:\Users\a5116938\Desktop\e2_studio_workspace\EEMBC_final\RX65N_Cloud_Kit\src/tensorflow/lite/kernels/internal\types.h **** 
 161:C:\Users\a5116938\Desktop\e2_studio_workspace\EEMBC_final\RX65N_Cloud_Kit\src/tensorflow/lite/kernels/internal\types.h ****   RuntimeShape(int dimensions_count, const int32_t* dims_data) : size_(0) {
 162:C:\Users\a5116938\Desktop\e2_studio_workspace\EEMBC_final\RX65N_Cloud_Kit\src/tensorflow/lite/kernels/internal\types.h ****     ReplaceWith(dimensions_count, dims_data);
 102                             		.loc 3 162 5
 103                             	.LBB571:
 104                             	.LBB568:
 105                             	.LBB552:
 106                             	.LBB553:
 107                             	.LBB554:
 163:C:\Users\a5116938\Desktop\e2_studio_workspace\EEMBC_final\RX65N_Cloud_Kit\src/tensorflow/lite/kernels/internal\types.h ****   }
 164:C:\Users\a5116938\Desktop\e2_studio_workspace\EEMBC_final\RX65N_Cloud_Kit\src/tensorflow/lite/kernels/internal\types.h **** 
 165:C:\Users\a5116938\Desktop\e2_studio_workspace\EEMBC_final\RX65N_Cloud_Kit\src/tensorflow/lite/kernels/internal\types.h ****   RuntimeShape(const std::initializer_list<int> init_list) : size_(0) {
 166:C:\Users\a5116938\Desktop\e2_studio_workspace\EEMBC_final\RX65N_Cloud_Kit\src/tensorflow/lite/kernels/internal\types.h ****     BuildFrom(init_list);
 167:C:\Users\a5116938\Desktop\e2_studio_workspace\EEMBC_final\RX65N_Cloud_Kit\src/tensorflow/lite/kernels/internal\types.h ****   }
 168:C:\Users\a5116938\Desktop\e2_studio_workspace\EEMBC_final\RX65N_Cloud_Kit\src/tensorflow/lite/kernels/internal\types.h **** 
 169:C:\Users\a5116938\Desktop\e2_studio_workspace\EEMBC_final\RX65N_Cloud_Kit\src/tensorflow/lite/kernels/internal\types.h ****   // Avoid using this constructor.  We should be able to delete it when C++17
 170:C:\Users\a5116938\Desktop\e2_studio_workspace\EEMBC_final\RX65N_Cloud_Kit\src/tensorflow/lite/kernels/internal\types.h ****   // rolls out.
 171:C:\Users\a5116938\Desktop\e2_studio_workspace\EEMBC_final\RX65N_Cloud_Kit\src/tensorflow/lite/kernels/internal\types.h ****   RuntimeShape(RuntimeShape const& other) : size_(other.DimensionsCount()) {
 172:C:\Users\a5116938\Desktop\e2_studio_workspace\EEMBC_final\RX65N_Cloud_Kit\src/tensorflow/lite/kernels/internal\types.h ****     if (size_ > kMaxSmallSize) {
 173:C:\Users\a5116938\Desktop\e2_studio_workspace\EEMBC_final\RX65N_Cloud_Kit\src/tensorflow/lite/kernels/internal\types.h ****       dims_pointer_ = new int32_t[size_];
 174:C:\Users\a5116938\Desktop\e2_studio_workspace\EEMBC_final\RX65N_Cloud_Kit\src/tensorflow/lite/kernels/internal\types.h ****     }
 175:C:\Users\a5116938\Desktop\e2_studio_workspace\EEMBC_final\RX65N_Cloud_Kit\src/tensorflow/lite/kernels/internal\types.h ****     std::memcpy(DimsData(), other.DimsData(), sizeof(int32_t) * size_);
 176:C:\Users\a5116938\Desktop\e2_studio_workspace\EEMBC_final\RX65N_Cloud_Kit\src/tensorflow/lite/kernels/internal\types.h ****   }
 177:C:\Users\a5116938\Desktop\e2_studio_workspace\EEMBC_final\RX65N_Cloud_Kit\src/tensorflow/lite/kernels/internal\types.h **** 
 178:C:\Users\a5116938\Desktop\e2_studio_workspace\EEMBC_final\RX65N_Cloud_Kit\src/tensorflow/lite/kernels/internal\types.h ****   bool operator==(const RuntimeShape& comp) const {
 179:C:\Users\a5116938\Desktop\e2_studio_workspace\EEMBC_final\RX65N_Cloud_Kit\src/tensorflow/lite/kernels/internal\types.h ****     return this->size_ == comp.size_ &&
 180:C:\Users\a5116938\Desktop\e2_studio_workspace\EEMBC_final\RX65N_Cloud_Kit\src/tensorflow/lite/kernels/internal\types.h ****            std::memcmp(DimsData(), comp.DimsData(), size_ * sizeof(int32_t)) ==
 181:C:\Users\a5116938\Desktop\e2_studio_workspace\EEMBC_final\RX65N_Cloud_Kit\src/tensorflow/lite/kernels/internal\types.h ****                0;
 182:C:\Users\a5116938\Desktop\e2_studio_workspace\EEMBC_final\RX65N_Cloud_Kit\src/tensorflow/lite/kernels/internal\types.h ****   }
 183:C:\Users\a5116938\Desktop\e2_studio_workspace\EEMBC_final\RX65N_Cloud_Kit\src/tensorflow/lite/kernels/internal\types.h **** 
 184:C:\Users\a5116938\Desktop\e2_studio_workspace\EEMBC_final\RX65N_Cloud_Kit\src/tensorflow/lite/kernels/internal\types.h ****   ~RuntimeShape() {
 185:C:\Users\a5116938\Desktop\e2_studio_workspace\EEMBC_final\RX65N_Cloud_Kit\src/tensorflow/lite/kernels/internal\types.h ****     if (size_ > kMaxSmallSize) {
 186:C:\Users\a5116938\Desktop\e2_studio_workspace\EEMBC_final\RX65N_Cloud_Kit\src/tensorflow/lite/kernels/internal\types.h **** #ifdef TF_LITE_STATIC_MEMORY
 187:C:\Users\a5116938\Desktop\e2_studio_workspace\EEMBC_final\RX65N_Cloud_Kit\src/tensorflow/lite/kernels/internal\types.h ****       TFLITE_CHECK(false && "No shape resizing supported on this platform");
 188:C:\Users\a5116938\Desktop\e2_studio_workspace\EEMBC_final\RX65N_Cloud_Kit\src/tensorflow/lite/kernels/internal\types.h **** #else  // TF_LITE_STATIC_MEMORY
 189:C:\Users\a5116938\Desktop\e2_studio_workspace\EEMBC_final\RX65N_Cloud_Kit\src/tensorflow/lite/kernels/internal\types.h ****       delete[] dims_pointer_;
 190:C:\Users\a5116938\Desktop\e2_studio_workspace\EEMBC_final\RX65N_Cloud_Kit\src/tensorflow/lite/kernels/internal\types.h **** #endif  // TF_LITE_STATIC_MEMORY
 191:C:\Users\a5116938\Desktop\e2_studio_workspace\EEMBC_final\RX65N_Cloud_Kit\src/tensorflow/lite/kernels/internal\types.h ****     }
 192:C:\Users\a5116938\Desktop\e2_studio_workspace\EEMBC_final\RX65N_Cloud_Kit\src/tensorflow/lite/kernels/internal\types.h ****   }
 193:C:\Users\a5116938\Desktop\e2_studio_workspace\EEMBC_final\RX65N_Cloud_Kit\src/tensorflow/lite/kernels/internal\types.h **** 
 194:C:\Users\a5116938\Desktop\e2_studio_workspace\EEMBC_final\RX65N_Cloud_Kit\src/tensorflow/lite/kernels/internal\types.h ****   inline int32_t DimensionsCount() const { return size_; }
 195:C:\Users\a5116938\Desktop\e2_studio_workspace\EEMBC_final\RX65N_Cloud_Kit\src/tensorflow/lite/kernels/internal\types.h ****   inline int32_t Dims(int i) const {
 196:C:\Users\a5116938\Desktop\e2_studio_workspace\EEMBC_final\RX65N_Cloud_Kit\src/tensorflow/lite/kernels/internal\types.h ****     TFLITE_DCHECK_GE(i, 0);
 197:C:\Users\a5116938\Desktop\e2_studio_workspace\EEMBC_final\RX65N_Cloud_Kit\src/tensorflow/lite/kernels/internal\types.h ****     TFLITE_DCHECK_LT(i, size_);
 198:C:\Users\a5116938\Desktop\e2_studio_workspace\EEMBC_final\RX65N_Cloud_Kit\src/tensorflow/lite/kernels/internal\types.h ****     return size_ > kMaxSmallSize ? dims_pointer_[i] : dims_[i];
 199:C:\Users\a5116938\Desktop\e2_studio_workspace\EEMBC_final\RX65N_Cloud_Kit\src/tensorflow/lite/kernels/internal\types.h ****   }
 200:C:\Users\a5116938\Desktop\e2_studio_workspace\EEMBC_final\RX65N_Cloud_Kit\src/tensorflow/lite/kernels/internal\types.h ****   inline void SetDim(int i, int32_t val) {
 201:C:\Users\a5116938\Desktop\e2_studio_workspace\EEMBC_final\RX65N_Cloud_Kit\src/tensorflow/lite/kernels/internal\types.h ****     TFLITE_DCHECK_GE(i, 0);
 202:C:\Users\a5116938\Desktop\e2_studio_workspace\EEMBC_final\RX65N_Cloud_Kit\src/tensorflow/lite/kernels/internal\types.h ****     TFLITE_DCHECK_LT(i, size_);
 203:C:\Users\a5116938\Desktop\e2_studio_workspace\EEMBC_final\RX65N_Cloud_Kit\src/tensorflow/lite/kernels/internal\types.h ****     if (size_ > kMaxSmallSize) {
 204:C:\Users\a5116938\Desktop\e2_studio_workspace\EEMBC_final\RX65N_Cloud_Kit\src/tensorflow/lite/kernels/internal\types.h ****       dims_pointer_[i] = val;
 205:C:\Users\a5116938\Desktop\e2_studio_workspace\EEMBC_final\RX65N_Cloud_Kit\src/tensorflow/lite/kernels/internal\types.h ****     } else {
 206:C:\Users\a5116938\Desktop\e2_studio_workspace\EEMBC_final\RX65N_Cloud_Kit\src/tensorflow/lite/kernels/internal\types.h ****       dims_[i] = val;
 207:C:\Users\a5116938\Desktop\e2_studio_workspace\EEMBC_final\RX65N_Cloud_Kit\src/tensorflow/lite/kernels/internal\types.h ****     }
 208:C:\Users\a5116938\Desktop\e2_studio_workspace\EEMBC_final\RX65N_Cloud_Kit\src/tensorflow/lite/kernels/internal\types.h ****   }
 209:C:\Users\a5116938\Desktop\e2_studio_workspace\EEMBC_final\RX65N_Cloud_Kit\src/tensorflow/lite/kernels/internal\types.h **** 
 210:C:\Users\a5116938\Desktop\e2_studio_workspace\EEMBC_final\RX65N_Cloud_Kit\src/tensorflow/lite/kernels/internal\types.h ****   inline int32_t* DimsData() {
 211:C:\Users\a5116938\Desktop\e2_studio_workspace\EEMBC_final\RX65N_Cloud_Kit\src/tensorflow/lite/kernels/internal\types.h ****     return size_ > kMaxSmallSize ? dims_pointer_ : dims_;
 212:C:\Users\a5116938\Desktop\e2_studio_workspace\EEMBC_final\RX65N_Cloud_Kit\src/tensorflow/lite/kernels/internal\types.h ****   }
 213:C:\Users\a5116938\Desktop\e2_studio_workspace\EEMBC_final\RX65N_Cloud_Kit\src/tensorflow/lite/kernels/internal\types.h ****   inline const int32_t* DimsData() const {
 214:C:\Users\a5116938\Desktop\e2_studio_workspace\EEMBC_final\RX65N_Cloud_Kit\src/tensorflow/lite/kernels/internal\types.h ****     return size_ > kMaxSmallSize ? dims_pointer_ : dims_;
 215:C:\Users\a5116938\Desktop\e2_studio_workspace\EEMBC_final\RX65N_Cloud_Kit\src/tensorflow/lite/kernels/internal\types.h ****   }
 216:C:\Users\a5116938\Desktop\e2_studio_workspace\EEMBC_final\RX65N_Cloud_Kit\src/tensorflow/lite/kernels/internal\types.h ****   // The caller must ensure that the shape is no bigger than 5-D.
 217:C:\Users\a5116938\Desktop\e2_studio_workspace\EEMBC_final\RX65N_Cloud_Kit\src/tensorflow/lite/kernels/internal\types.h ****   inline const int32_t* DimsDataUpTo5D() const { return dims_; }
 218:C:\Users\a5116938\Desktop\e2_studio_workspace\EEMBC_final\RX65N_Cloud_Kit\src/tensorflow/lite/kernels/internal\types.h **** 
 219:C:\Users\a5116938\Desktop\e2_studio_workspace\EEMBC_final\RX65N_Cloud_Kit\src/tensorflow/lite/kernels/internal\types.h ****   inline void Resize(int dimensions_count) {
 220:C:\Users\a5116938\Desktop\e2_studio_workspace\EEMBC_final\RX65N_Cloud_Kit\src/tensorflow/lite/kernels/internal\types.h ****     if (size_ > kMaxSmallSize) {
 221:C:\Users\a5116938\Desktop\e2_studio_workspace\EEMBC_final\RX65N_Cloud_Kit\src/tensorflow/lite/kernels/internal\types.h **** #ifdef TF_LITE_STATIC_MEMORY
 222:C:\Users\a5116938\Desktop\e2_studio_workspace\EEMBC_final\RX65N_Cloud_Kit\src/tensorflow/lite/kernels/internal\types.h ****       TFLITE_CHECK(false && "No shape resizing supported on this platform");
 223:C:\Users\a5116938\Desktop\e2_studio_workspace\EEMBC_final\RX65N_Cloud_Kit\src/tensorflow/lite/kernels/internal\types.h **** #else  // TF_LITE_STATIC_MEMORY
 224:C:\Users\a5116938\Desktop\e2_studio_workspace\EEMBC_final\RX65N_Cloud_Kit\src/tensorflow/lite/kernels/internal\types.h ****       delete[] dims_pointer_;
 225:C:\Users\a5116938\Desktop\e2_studio_workspace\EEMBC_final\RX65N_Cloud_Kit\src/tensorflow/lite/kernels/internal\types.h **** #endif  // TF_LITE_STATIC_MEMORY
 226:C:\Users\a5116938\Desktop\e2_studio_workspace\EEMBC_final\RX65N_Cloud_Kit\src/tensorflow/lite/kernels/internal\types.h ****     }
 227:C:\Users\a5116938\Desktop\e2_studio_workspace\EEMBC_final\RX65N_Cloud_Kit\src/tensorflow/lite/kernels/internal\types.h ****     size_ = dimensions_count;
 228:C:\Users\a5116938\Desktop\e2_studio_workspace\EEMBC_final\RX65N_Cloud_Kit\src/tensorflow/lite/kernels/internal\types.h ****     if (dimensions_count > kMaxSmallSize) {
 229:C:\Users\a5116938\Desktop\e2_studio_workspace\EEMBC_final\RX65N_Cloud_Kit\src/tensorflow/lite/kernels/internal\types.h **** #ifdef TF_LITE_STATIC_MEMORY
 230:C:\Users\a5116938\Desktop\e2_studio_workspace\EEMBC_final\RX65N_Cloud_Kit\src/tensorflow/lite/kernels/internal\types.h ****       TFLITE_CHECK(false && "No shape resizing supported on this platform");
 231:C:\Users\a5116938\Desktop\e2_studio_workspace\EEMBC_final\RX65N_Cloud_Kit\src/tensorflow/lite/kernels/internal\types.h **** #else  // TF_LITE_STATIC_MEMORY
 232:C:\Users\a5116938\Desktop\e2_studio_workspace\EEMBC_final\RX65N_Cloud_Kit\src/tensorflow/lite/kernels/internal\types.h ****       dims_pointer_ = new int32_t[dimensions_count];
 233:C:\Users\a5116938\Desktop\e2_studio_workspace\EEMBC_final\RX65N_Cloud_Kit\src/tensorflow/lite/kernels/internal\types.h **** #endif  // TF_LITE_STATIC_MEMORY
 234:C:\Users\a5116938\Desktop\e2_studio_workspace\EEMBC_final\RX65N_Cloud_Kit\src/tensorflow/lite/kernels/internal\types.h ****     }
 235:C:\Users\a5116938\Desktop\e2_studio_workspace\EEMBC_final\RX65N_Cloud_Kit\src/tensorflow/lite/kernels/internal\types.h ****   }
 236:C:\Users\a5116938\Desktop\e2_studio_workspace\EEMBC_final\RX65N_Cloud_Kit\src/tensorflow/lite/kernels/internal\types.h **** 
 237:C:\Users\a5116938\Desktop\e2_studio_workspace\EEMBC_final\RX65N_Cloud_Kit\src/tensorflow/lite/kernels/internal\types.h ****   inline void ReplaceWith(int dimensions_count, const int32_t* dims_data) {
 238:C:\Users\a5116938\Desktop\e2_studio_workspace\EEMBC_final\RX65N_Cloud_Kit\src/tensorflow/lite/kernels/internal\types.h ****     Resize(dimensions_count);
 108                             		.loc 3 238 5
 109                             	.LBB555:
 110                             	.LBB556:
 220:C:\Users\a5116938\Desktop\e2_studio_workspace\EEMBC_final\RX65N_Cloud_Kit\src/tensorflow/lite/kernels/internal\types.h **** #ifdef TF_LITE_STATIC_MEMORY
 111                             		.loc 3 220 5
 227:C:\Users\a5116938\Desktop\e2_studio_workspace\EEMBC_final\RX65N_Cloud_Kit\src/tensorflow/lite/kernels/internal\types.h ****     if (dimensions_count > kMaxSmallSize) {
 112                             		.loc 3 227 5
 113 0049 FD C2 13                		shll	#2, r1, r3
 227:C:\Users\a5116938\Desktop\e2_studio_workspace\EEMBC_final\RX65N_Cloud_Kit\src/tensorflow/lite/kernels/internal\types.h ****     if (dimensions_count > kMaxSmallSize) {
 114                             		.loc 3 227 11 is_stmt 0
 115 004c A6 09                   		mov.L	r1, 100[r0]
 228:C:\Users\a5116938\Desktop\e2_studio_workspace\EEMBC_final\RX65N_Cloud_Kit\src/tensorflow/lite/kernels/internal\types.h **** #ifdef TF_LITE_STATIC_MEMORY
 116                             		.loc 3 228 5 is_stmt 1
 117 004e 61 51                   		cmp	#5, r1
 118 0050 2B 05 38 D9 01          		bgt	.L51
 119                             	.LBE556:
 120                             	.LBE555:
 121                             	.LBB558:
 122                             	.LBB559:
 211:C:\Users\a5116938\Desktop\e2_studio_workspace\EEMBC_final\RX65N_Cloud_Kit\src/tensorflow/lite/kernels/internal\types.h ****   }
 123                             		.loc 3 211 34 is_stmt 0
 124 0055 71 01 68                		add	#0x68, r0, r1
 125                             	.LVL17:
 126                             		.balign 8,3,2
 127                             	.L10:
 128                             	.LBE559:
 129                             	.LBE558:
 239:C:\Users\a5116938\Desktop\e2_studio_workspace\EEMBC_final\RX65N_Cloud_Kit\src/tensorflow/lite/kernels/internal\types.h ****     int32_t* dst_dims = DimsData();
 240:C:\Users\a5116938\Desktop\e2_studio_workspace\EEMBC_final\RX65N_Cloud_Kit\src/tensorflow/lite/kernels/internal\types.h ****     std::memcpy(dst_dims, dims_data, dimensions_count * sizeof(int32_t));
 130                             		.loc 3 240 5 is_stmt 1
 131                             		.loc 3 240 16 is_stmt 0
 132 0058 71 B2 04                		add	#4, r11, r2
 133 005b 7F 8F                   		smovf
 134                             	.LVL18:
 135                             	.LBE554:
 136                             	.LBE553:
 137                             	.LBE552:
 138                             	.LBE568:
 139                             	.LBE571:
 135:../src/tensorflow/lite/micro/kernels/conv.cc ****   RuntimeShape output_shape = GetTensorShape(output);
 140                             		.loc 1 135 3 is_stmt 1
 141                             	.LBB572:
 142                             	.LBB573:
  35:C:\Users\a5116938\Desktop\e2_studio_workspace\EEMBC_final\RX65N_Cloud_Kit\src/tensorflow/lite/kernels/internal\tensor_ctypes.h ****     return RuntimeShape();
 143                             		.loc 2 35 3
 144 005d 61 08                   		cmp	#0, r8
 145 005f 3A 81 01                		beq	.L52
 146                             	.LVL19:
 147                             		.balign 8,3,1
 148                             	.L12:
  39:C:\Users\a5116938\Desktop\e2_studio_workspace\EEMBC_final\RX65N_Cloud_Kit\src/tensorflow/lite/kernels/internal\tensor_ctypes.h ****   const int dims_size = dims->size;
 149                             		.loc 2 39 3
  39:C:\Users\a5116938\Desktop\e2_studio_workspace\EEMBC_final\RX65N_Cloud_Kit\src/tensorflow/lite/kernels/internal\tensor_ctypes.h ****   const int dims_size = dims->size;
 150                             		.loc 2 39 19 is_stmt 0
 151 0062 ED 8B 02                		mov.L	8[r8], r11
 152                             	.LVL20:
  40:C:\Users\a5116938\Desktop\e2_studio_workspace\EEMBC_final\RX65N_Cloud_Kit\src/tensorflow/lite/kernels/internal\tensor_ctypes.h ****   const int32_t* dims_data = reinterpret_cast<const int32_t*>(dims->data);
 153                             		.loc 2 40 3 is_stmt 1
  40:C:\Users\a5116938\Desktop\e2_studio_workspace\EEMBC_final\RX65N_Cloud_Kit\src/tensorflow/lite/kernels/internal\tensor_ctypes.h ****   const int32_t* dims_data = reinterpret_cast<const int32_t*>(dims->data);
 154                             		.loc 2 40 13 is_stmt 0
 155 0065 EC B1                   		mov.L	[r11], r1
 156                             	.LVL21:
  41:C:\Users\a5116938\Desktop\e2_studio_workspace\EEMBC_final\RX65N_Cloud_Kit\src/tensorflow/lite/kernels/internal\tensor_ctypes.h ****   return RuntimeShape(dims_size, dims_data);
 157                             		.loc 2 41 3 is_stmt 1
 158                             		.loc 2 42 3
 159                             	.LBE573:
 160                             	.LBE572:
 162:C:\Users\a5116938\Desktop\e2_studio_workspace\EEMBC_final\RX65N_Cloud_Kit\src/tensorflow/lite/kernels/internal\types.h ****   }
 161                             		.loc 3 162 5
 162                             	.LBB591:
 163                             	.LBB588:
 164                             	.LBB574:
 165                             	.LBB575:
 166                             	.LBB576:
 238:C:\Users\a5116938\Desktop\e2_studio_workspace\EEMBC_final\RX65N_Cloud_Kit\src/tensorflow/lite/kernels/internal\types.h ****     int32_t* dst_dims = DimsData();
 167                             		.loc 3 238 5
 168                             	.LBB577:
 169                             	.LBB578:
 220:C:\Users\a5116938\Desktop\e2_studio_workspace\EEMBC_final\RX65N_Cloud_Kit\src/tensorflow/lite/kernels/internal\types.h **** #ifdef TF_LITE_STATIC_MEMORY
 170                             		.loc 3 220 5
 227:C:\Users\a5116938\Desktop\e2_studio_workspace\EEMBC_final\RX65N_Cloud_Kit\src/tensorflow/lite/kernels/internal\types.h ****     if (dimensions_count > kMaxSmallSize) {
 171                             		.loc 3 227 5
 172 0067 FD C2 13                		shll	#2, r1, r3
 227:C:\Users\a5116938\Desktop\e2_studio_workspace\EEMBC_final\RX65N_Cloud_Kit\src/tensorflow/lite/kernels/internal\types.h ****     if (dimensions_count > kMaxSmallSize) {
 173                             		.loc 3 227 11 is_stmt 0
 174 006a A4 89                   		mov.L	r1, 76[r0]
 228:C:\Users\a5116938\Desktop\e2_studio_workspace\EEMBC_final\RX65N_Cloud_Kit\src/tensorflow/lite/kernels/internal\types.h **** #ifdef TF_LITE_STATIC_MEMORY
 175                             		.loc 3 228 5 is_stmt 1
 176 006c 61 51                   		cmp	#5, r1
 177 006e 2A 05 38 B5 01          		ble	.L35
 232:C:\Users\a5116938\Desktop\e2_studio_workspace\EEMBC_final\RX65N_Cloud_Kit\src/tensorflow/lite/kernels/internal\types.h **** #endif  // TF_LITE_STATIC_MEMORY
 178                             		.loc 3 232 7
 232:C:\Users\a5116938\Desktop\e2_studio_workspace\EEMBC_final\RX65N_Cloud_Kit\src/tensorflow/lite/kernels/internal\types.h **** #endif  // TF_LITE_STATIC_MEMORY
 179                             		.loc 3 232 51 is_stmt 0
 180 0073 74 01 FF FF FF 1F       		cmp	#0x1fffffff, r1
 181 0079 EF 31                   		mov.L	r3, r1
 182                             	.LVL22:
 183 007b 2B 05                   		ble 1f
 184 007d FB 16 FF                		mov #-1, r1
 185                             	1:
 186 0080 E7 03 30                		mov.L	r3, 192[r0]
 187 0083 05 00 00 00             		bsr	__Znam
 188                             	.LVL23:
 232:C:\Users\a5116938\Desktop\e2_studio_workspace\EEMBC_final\RX65N_Cloud_Kit\src/tensorflow/lite/kernels/internal\types.h **** #endif  // TF_LITE_STATIC_MEMORY
 189                             		.loc 3 232 21
 190 0087 A5 01                   		mov.L	r1, 80[r0]
 191                             	.LBE578:
 192                             	.LBE577:
 239:C:\Users\a5116938\Desktop\e2_studio_workspace\EEMBC_final\RX65N_Cloud_Kit\src/tensorflow/lite/kernels/internal\types.h ****     std::memcpy(dst_dims, dims_data, dimensions_count * sizeof(int32_t));
 193                             		.loc 3 239 5 is_stmt 1
 194                             	.LVL24:
 195                             	.LBB579:
 196                             	.LBB580:
 211:C:\Users\a5116938\Desktop\e2_studio_workspace\EEMBC_final\RX65N_Cloud_Kit\src/tensorflow/lite/kernels/internal\types.h ****   }
 197                             		.loc 3 211 5
 198 0089 ED 03 30                		mov.L	192[r0], r3
 199                             	.LVL25:
 200                             		.balign 8,3,2
 201                             	.L14:
 202                             	.LBE580:
 203                             	.LBE579:
 204                             		.loc 3 240 5
 205                             		.loc 3 240 16 is_stmt 0
 206 008c 71 B2 04                		add	#4, r11, r2
 207 008f 7F 8F                   		smovf
 208                             	.LVL26:
 209                             	.LBE576:
 210                             	.LBE575:
 211                             	.LBE574:
 212                             	.LBE588:
 213                             	.LBE591:
 136:../src/tensorflow/lite/micro/kernels/conv.cc **** 
 137:../src/tensorflow/lite/micro/kernels/conv.cc ****   // Initialize cmsis-nn input dimensions
 138:../src/tensorflow/lite/micro/kernels/conv.cc ****   cmsis_nn_dims input_dims;
 214                             		.loc 1 138 3 is_stmt 1
 139:../src/tensorflow/lite/micro/kernels/conv.cc ****   input_dims.n = MatchingDim(input_shape, 0, output_shape, 0);
 215                             		.loc 1 139 3
 216                             	.LBB592:
 217                             	.LBB593:
 241:C:\Users\a5116938\Desktop\e2_studio_workspace\EEMBC_final\RX65N_Cloud_Kit\src/tensorflow/lite/kernels/internal\types.h ****   }
 242:C:\Users\a5116938\Desktop\e2_studio_workspace\EEMBC_final\RX65N_Cloud_Kit\src/tensorflow/lite/kernels/internal\types.h **** 
 243:C:\Users\a5116938\Desktop\e2_studio_workspace\EEMBC_final\RX65N_Cloud_Kit\src/tensorflow/lite/kernels/internal\types.h ****   template <typename T>
 244:C:\Users\a5116938\Desktop\e2_studio_workspace\EEMBC_final\RX65N_Cloud_Kit\src/tensorflow/lite/kernels/internal\types.h ****   inline void BuildFrom(const T& src_iterable) {
 245:C:\Users\a5116938\Desktop\e2_studio_workspace\EEMBC_final\RX65N_Cloud_Kit\src/tensorflow/lite/kernels/internal\types.h ****     const int dimensions_count =
 246:C:\Users\a5116938\Desktop\e2_studio_workspace\EEMBC_final\RX65N_Cloud_Kit\src/tensorflow/lite/kernels/internal\types.h ****         std::distance(src_iterable.begin(), src_iterable.end());
 247:C:\Users\a5116938\Desktop\e2_studio_workspace\EEMBC_final\RX65N_Cloud_Kit\src/tensorflow/lite/kernels/internal\types.h ****     Resize(dimensions_count);
 248:C:\Users\a5116938\Desktop\e2_studio_workspace\EEMBC_final\RX65N_Cloud_Kit\src/tensorflow/lite/kernels/internal\types.h ****     int32_t* data = DimsData();
 249:C:\Users\a5116938\Desktop\e2_studio_workspace\EEMBC_final\RX65N_Cloud_Kit\src/tensorflow/lite/kernels/internal\types.h ****     for (auto it : src_iterable) {
 250:C:\Users\a5116938\Desktop\e2_studio_workspace\EEMBC_final\RX65N_Cloud_Kit\src/tensorflow/lite/kernels/internal\types.h ****       *data = it;
 251:C:\Users\a5116938\Desktop\e2_studio_workspace\EEMBC_final\RX65N_Cloud_Kit\src/tensorflow/lite/kernels/internal\types.h ****       ++data;
 252:C:\Users\a5116938\Desktop\e2_studio_workspace\EEMBC_final\RX65N_Cloud_Kit\src/tensorflow/lite/kernels/internal\types.h ****     }
 253:C:\Users\a5116938\Desktop\e2_studio_workspace\EEMBC_final\RX65N_Cloud_Kit\src/tensorflow/lite/kernels/internal\types.h ****   }
 254:C:\Users\a5116938\Desktop\e2_studio_workspace\EEMBC_final\RX65N_Cloud_Kit\src/tensorflow/lite/kernels/internal\types.h **** 
 255:C:\Users\a5116938\Desktop\e2_studio_workspace\EEMBC_final\RX65N_Cloud_Kit\src/tensorflow/lite/kernels/internal\types.h ****   // This will probably be factored out. Old code made substantial use of 4-D
 256:C:\Users\a5116938\Desktop\e2_studio_workspace\EEMBC_final\RX65N_Cloud_Kit\src/tensorflow/lite/kernels/internal\types.h ****   // shapes, and so this function is used to extend smaller shapes. Note that
 257:C:\Users\a5116938\Desktop\e2_studio_workspace\EEMBC_final\RX65N_Cloud_Kit\src/tensorflow/lite/kernels/internal\types.h ****   // (a) as Dims<4>-dependent code is eliminated, the reliance on this should be
 258:C:\Users\a5116938\Desktop\e2_studio_workspace\EEMBC_final\RX65N_Cloud_Kit\src/tensorflow/lite/kernels/internal\types.h ****   // reduced, and (b) some kernels are stricly 4-D, but then the shapes of their
 259:C:\Users\a5116938\Desktop\e2_studio_workspace\EEMBC_final\RX65N_Cloud_Kit\src/tensorflow/lite/kernels/internal\types.h ****   // inputs should already be 4-D, so this function should not be needed.
 260:C:\Users\a5116938\Desktop\e2_studio_workspace\EEMBC_final\RX65N_Cloud_Kit\src/tensorflow/lite/kernels/internal\types.h ****   inline static RuntimeShape ExtendedShape(int new_shape_size,
 261:C:\Users\a5116938\Desktop\e2_studio_workspace\EEMBC_final\RX65N_Cloud_Kit\src/tensorflow/lite/kernels/internal\types.h ****                                            const RuntimeShape& shape) {
 262:C:\Users\a5116938\Desktop\e2_studio_workspace\EEMBC_final\RX65N_Cloud_Kit\src/tensorflow/lite/kernels/internal\types.h ****     return RuntimeShape(new_shape_size, shape, 1);
 263:C:\Users\a5116938\Desktop\e2_studio_workspace\EEMBC_final\RX65N_Cloud_Kit\src/tensorflow/lite/kernels/internal\types.h ****   }
 264:C:\Users\a5116938\Desktop\e2_studio_workspace\EEMBC_final\RX65N_Cloud_Kit\src/tensorflow/lite/kernels/internal\types.h **** 
 265:C:\Users\a5116938\Desktop\e2_studio_workspace\EEMBC_final\RX65N_Cloud_Kit\src/tensorflow/lite/kernels/internal\types.h ****   inline void BuildFrom(const std::initializer_list<int> init_list) {
 266:C:\Users\a5116938\Desktop\e2_studio_workspace\EEMBC_final\RX65N_Cloud_Kit\src/tensorflow/lite/kernels/internal\types.h ****     BuildFrom<const std::initializer_list<int>>(init_list);
 267:C:\Users\a5116938\Desktop\e2_studio_workspace\EEMBC_final\RX65N_Cloud_Kit\src/tensorflow/lite/kernels/internal\types.h ****   }
 268:C:\Users\a5116938\Desktop\e2_studio_workspace\EEMBC_final\RX65N_Cloud_Kit\src/tensorflow/lite/kernels/internal\types.h **** 
 269:C:\Users\a5116938\Desktop\e2_studio_workspace\EEMBC_final\RX65N_Cloud_Kit\src/tensorflow/lite/kernels/internal\types.h ****   // Returns the total count of elements, that is the size when flattened into a
 270:C:\Users\a5116938\Desktop\e2_studio_workspace\EEMBC_final\RX65N_Cloud_Kit\src/tensorflow/lite/kernels/internal\types.h ****   // vector.
 271:C:\Users\a5116938\Desktop\e2_studio_workspace\EEMBC_final\RX65N_Cloud_Kit\src/tensorflow/lite/kernels/internal\types.h ****   inline int FlatSize() const {
 272:C:\Users\a5116938\Desktop\e2_studio_workspace\EEMBC_final\RX65N_Cloud_Kit\src/tensorflow/lite/kernels/internal\types.h ****     int buffer_size = 1;
 273:C:\Users\a5116938\Desktop\e2_studio_workspace\EEMBC_final\RX65N_Cloud_Kit\src/tensorflow/lite/kernels/internal\types.h ****     const int* dims_data = reinterpret_cast<const int*>(DimsData());
 274:C:\Users\a5116938\Desktop\e2_studio_workspace\EEMBC_final\RX65N_Cloud_Kit\src/tensorflow/lite/kernels/internal\types.h ****     for (int i = 0; i < size_; i++) {
 275:C:\Users\a5116938\Desktop\e2_studio_workspace\EEMBC_final\RX65N_Cloud_Kit\src/tensorflow/lite/kernels/internal\types.h ****       buffer_size *= dims_data[i];
 276:C:\Users\a5116938\Desktop\e2_studio_workspace\EEMBC_final\RX65N_Cloud_Kit\src/tensorflow/lite/kernels/internal\types.h ****     }
 277:C:\Users\a5116938\Desktop\e2_studio_workspace\EEMBC_final\RX65N_Cloud_Kit\src/tensorflow/lite/kernels/internal\types.h ****     return buffer_size;
 278:C:\Users\a5116938\Desktop\e2_studio_workspace\EEMBC_final\RX65N_Cloud_Kit\src/tensorflow/lite/kernels/internal\types.h ****   }
 279:C:\Users\a5116938\Desktop\e2_studio_workspace\EEMBC_final\RX65N_Cloud_Kit\src/tensorflow/lite/kernels/internal\types.h **** 
 280:C:\Users\a5116938\Desktop\e2_studio_workspace\EEMBC_final\RX65N_Cloud_Kit\src/tensorflow/lite/kernels/internal\types.h ****   bool operator!=(const RuntimeShape& comp) const { return !((*this) == comp); }
 281:C:\Users\a5116938\Desktop\e2_studio_workspace\EEMBC_final\RX65N_Cloud_Kit\src/tensorflow/lite/kernels/internal\types.h **** 
 282:C:\Users\a5116938\Desktop\e2_studio_workspace\EEMBC_final\RX65N_Cloud_Kit\src/tensorflow/lite/kernels/internal\types.h ****  private:
 283:C:\Users\a5116938\Desktop\e2_studio_workspace\EEMBC_final\RX65N_Cloud_Kit\src/tensorflow/lite/kernels/internal\types.h ****   // For use only by ExtendedShape(), written to guarantee (return-value) copy
 284:C:\Users\a5116938\Desktop\e2_studio_workspace\EEMBC_final\RX65N_Cloud_Kit\src/tensorflow/lite/kernels/internal\types.h ****   // elision in C++17.
 285:C:\Users\a5116938\Desktop\e2_studio_workspace\EEMBC_final\RX65N_Cloud_Kit\src/tensorflow/lite/kernels/internal\types.h ****   // This creates a shape padded to the desired size with the specified value.
 286:C:\Users\a5116938\Desktop\e2_studio_workspace\EEMBC_final\RX65N_Cloud_Kit\src/tensorflow/lite/kernels/internal\types.h ****   RuntimeShape(int new_shape_size, const RuntimeShape& shape, int pad_value)
 287:C:\Users\a5116938\Desktop\e2_studio_workspace\EEMBC_final\RX65N_Cloud_Kit\src/tensorflow/lite/kernels/internal\types.h ****       : size_(0) {
 288:C:\Users\a5116938\Desktop\e2_studio_workspace\EEMBC_final\RX65N_Cloud_Kit\src/tensorflow/lite/kernels/internal\types.h ****     // If the following check fails, it is likely because a 4D-only kernel is
 289:C:\Users\a5116938\Desktop\e2_studio_workspace\EEMBC_final\RX65N_Cloud_Kit\src/tensorflow/lite/kernels/internal\types.h ****     // being used with an array of larger dimension count.
 290:C:\Users\a5116938\Desktop\e2_studio_workspace\EEMBC_final\RX65N_Cloud_Kit\src/tensorflow/lite/kernels/internal\types.h ****     TFLITE_CHECK_GE(new_shape_size, shape.DimensionsCount());
 291:C:\Users\a5116938\Desktop\e2_studio_workspace\EEMBC_final\RX65N_Cloud_Kit\src/tensorflow/lite/kernels/internal\types.h ****     Resize(new_shape_size);
 292:C:\Users\a5116938\Desktop\e2_studio_workspace\EEMBC_final\RX65N_Cloud_Kit\src/tensorflow/lite/kernels/internal\types.h ****     const int size_increase = new_shape_size - shape.DimensionsCount();
 293:C:\Users\a5116938\Desktop\e2_studio_workspace\EEMBC_final\RX65N_Cloud_Kit\src/tensorflow/lite/kernels/internal\types.h ****     for (int i = 0; i < size_increase; ++i) {
 294:C:\Users\a5116938\Desktop\e2_studio_workspace\EEMBC_final\RX65N_Cloud_Kit\src/tensorflow/lite/kernels/internal\types.h ****       SetDim(i, pad_value);
 295:C:\Users\a5116938\Desktop\e2_studio_workspace\EEMBC_final\RX65N_Cloud_Kit\src/tensorflow/lite/kernels/internal\types.h ****     }
 296:C:\Users\a5116938\Desktop\e2_studio_workspace\EEMBC_final\RX65N_Cloud_Kit\src/tensorflow/lite/kernels/internal\types.h ****     std::memcpy(DimsData() + size_increase, shape.DimsData(),
 297:C:\Users\a5116938\Desktop\e2_studio_workspace\EEMBC_final\RX65N_Cloud_Kit\src/tensorflow/lite/kernels/internal\types.h ****                 sizeof(int32_t) * shape.DimensionsCount());
 298:C:\Users\a5116938\Desktop\e2_studio_workspace\EEMBC_final\RX65N_Cloud_Kit\src/tensorflow/lite/kernels/internal\types.h ****   }
 299:C:\Users\a5116938\Desktop\e2_studio_workspace\EEMBC_final\RX65N_Cloud_Kit\src/tensorflow/lite/kernels/internal\types.h **** 
 300:C:\Users\a5116938\Desktop\e2_studio_workspace\EEMBC_final\RX65N_Cloud_Kit\src/tensorflow/lite/kernels/internal\types.h ****   int32_t size_;
 301:C:\Users\a5116938\Desktop\e2_studio_workspace\EEMBC_final\RX65N_Cloud_Kit\src/tensorflow/lite/kernels/internal\types.h ****   union {
 302:C:\Users\a5116938\Desktop\e2_studio_workspace\EEMBC_final\RX65N_Cloud_Kit\src/tensorflow/lite/kernels/internal\types.h ****     int32_t dims_[kMaxSmallSize];
 303:C:\Users\a5116938\Desktop\e2_studio_workspace\EEMBC_final\RX65N_Cloud_Kit\src/tensorflow/lite/kernels/internal\types.h ****     int32_t* dims_pointer_;
 304:C:\Users\a5116938\Desktop\e2_studio_workspace\EEMBC_final\RX65N_Cloud_Kit\src/tensorflow/lite/kernels/internal\types.h ****   };
 305:C:\Users\a5116938\Desktop\e2_studio_workspace\EEMBC_final\RX65N_Cloud_Kit\src/tensorflow/lite/kernels/internal\types.h **** };
 306:C:\Users\a5116938\Desktop\e2_studio_workspace\EEMBC_final\RX65N_Cloud_Kit\src/tensorflow/lite/kernels/internal\types.h **** 
 307:C:\Users\a5116938\Desktop\e2_studio_workspace\EEMBC_final\RX65N_Cloud_Kit\src/tensorflow/lite/kernels/internal\types.h **** // Converts inference-style shape to legacy tflite::Dims<4>.
 308:C:\Users\a5116938\Desktop\e2_studio_workspace\EEMBC_final\RX65N_Cloud_Kit\src/tensorflow/lite/kernels/internal\types.h **** inline tflite::Dims<4> ToRuntimeDims(const tflite::RuntimeShape& array_shape) {
 309:C:\Users\a5116938\Desktop\e2_studio_workspace\EEMBC_final\RX65N_Cloud_Kit\src/tensorflow/lite/kernels/internal\types.h ****   tflite::Dims<4> result;
 310:C:\Users\a5116938\Desktop\e2_studio_workspace\EEMBC_final\RX65N_Cloud_Kit\src/tensorflow/lite/kernels/internal\types.h ****   const int dimensions_count = array_shape.DimensionsCount();
 311:C:\Users\a5116938\Desktop\e2_studio_workspace\EEMBC_final\RX65N_Cloud_Kit\src/tensorflow/lite/kernels/internal\types.h ****   TFLITE_CHECK_LE(dimensions_count, 4);
 312:C:\Users\a5116938\Desktop\e2_studio_workspace\EEMBC_final\RX65N_Cloud_Kit\src/tensorflow/lite/kernels/internal\types.h ****   int cum_prod = 1;
 313:C:\Users\a5116938\Desktop\e2_studio_workspace\EEMBC_final\RX65N_Cloud_Kit\src/tensorflow/lite/kernels/internal\types.h ****   for (int i = 0; i < 4; i++) {
 314:C:\Users\a5116938\Desktop\e2_studio_workspace\EEMBC_final\RX65N_Cloud_Kit\src/tensorflow/lite/kernels/internal\types.h ****     const int new_dim =
 315:C:\Users\a5116938\Desktop\e2_studio_workspace\EEMBC_final\RX65N_Cloud_Kit\src/tensorflow/lite/kernels/internal\types.h ****         (i < dimensions_count) ? array_shape.Dims(dimensions_count - 1 - i) : 1;
 316:C:\Users\a5116938\Desktop\e2_studio_workspace\EEMBC_final\RX65N_Cloud_Kit\src/tensorflow/lite/kernels/internal\types.h ****     result.sizes[i] = new_dim;
 317:C:\Users\a5116938\Desktop\e2_studio_workspace\EEMBC_final\RX65N_Cloud_Kit\src/tensorflow/lite/kernels/internal\types.h ****     result.strides[i] = cum_prod;
 318:C:\Users\a5116938\Desktop\e2_studio_workspace\EEMBC_final\RX65N_Cloud_Kit\src/tensorflow/lite/kernels/internal\types.h ****     cum_prod *= new_dim;
 319:C:\Users\a5116938\Desktop\e2_studio_workspace\EEMBC_final\RX65N_Cloud_Kit\src/tensorflow/lite/kernels/internal\types.h ****   }
 320:C:\Users\a5116938\Desktop\e2_studio_workspace\EEMBC_final\RX65N_Cloud_Kit\src/tensorflow/lite/kernels/internal\types.h ****   return result;
 321:C:\Users\a5116938\Desktop\e2_studio_workspace\EEMBC_final\RX65N_Cloud_Kit\src/tensorflow/lite/kernels/internal\types.h **** }
 322:C:\Users\a5116938\Desktop\e2_studio_workspace\EEMBC_final\RX65N_Cloud_Kit\src/tensorflow/lite/kernels/internal\types.h **** 
 323:C:\Users\a5116938\Desktop\e2_studio_workspace\EEMBC_final\RX65N_Cloud_Kit\src/tensorflow/lite/kernels/internal\types.h **** // TODO(b/80418076): Move to legacy ops file, update invocations.
 324:C:\Users\a5116938\Desktop\e2_studio_workspace\EEMBC_final\RX65N_Cloud_Kit\src/tensorflow/lite/kernels/internal\types.h **** inline RuntimeShape DimsToShape(const tflite::Dims<4>& dims) {
 325:C:\Users\a5116938\Desktop\e2_studio_workspace\EEMBC_final\RX65N_Cloud_Kit\src/tensorflow/lite/kernels/internal\types.h ****   return RuntimeShape(
 326:C:\Users\a5116938\Desktop\e2_studio_workspace\EEMBC_final\RX65N_Cloud_Kit\src/tensorflow/lite/kernels/internal\types.h ****       {dims.sizes[3], dims.sizes[2], dims.sizes[1], dims.sizes[0]});
 327:C:\Users\a5116938\Desktop\e2_studio_workspace\EEMBC_final\RX65N_Cloud_Kit\src/tensorflow/lite/kernels/internal\types.h **** }
 328:C:\Users\a5116938\Desktop\e2_studio_workspace\EEMBC_final\RX65N_Cloud_Kit\src/tensorflow/lite/kernels/internal\types.h **** 
 329:C:\Users\a5116938\Desktop\e2_studio_workspace\EEMBC_final\RX65N_Cloud_Kit\src/tensorflow/lite/kernels/internal\types.h **** // Gets next index to iterate through a multidimensional array.
 330:C:\Users\a5116938\Desktop\e2_studio_workspace\EEMBC_final\RX65N_Cloud_Kit\src/tensorflow/lite/kernels/internal\types.h **** inline bool NextIndex(const int num_dims, const int* dims, int* current) {
 331:C:\Users\a5116938\Desktop\e2_studio_workspace\EEMBC_final\RX65N_Cloud_Kit\src/tensorflow/lite/kernels/internal\types.h ****   if (num_dims == 0) {
 332:C:\Users\a5116938\Desktop\e2_studio_workspace\EEMBC_final\RX65N_Cloud_Kit\src/tensorflow/lite/kernels/internal\types.h ****     return false;
 333:C:\Users\a5116938\Desktop\e2_studio_workspace\EEMBC_final\RX65N_Cloud_Kit\src/tensorflow/lite/kernels/internal\types.h ****   }
 334:C:\Users\a5116938\Desktop\e2_studio_workspace\EEMBC_final\RX65N_Cloud_Kit\src/tensorflow/lite/kernels/internal\types.h ****   TFLITE_DCHECK(dims != nullptr);
 335:C:\Users\a5116938\Desktop\e2_studio_workspace\EEMBC_final\RX65N_Cloud_Kit\src/tensorflow/lite/kernels/internal\types.h ****   TFLITE_DCHECK(current != nullptr);
 336:C:\Users\a5116938\Desktop\e2_studio_workspace\EEMBC_final\RX65N_Cloud_Kit\src/tensorflow/lite/kernels/internal\types.h ****   int carry = 1;
 337:C:\Users\a5116938\Desktop\e2_studio_workspace\EEMBC_final\RX65N_Cloud_Kit\src/tensorflow/lite/kernels/internal\types.h ****   for (int idx = num_dims - 1; idx >= 0; --idx) {
 338:C:\Users\a5116938\Desktop\e2_studio_workspace\EEMBC_final\RX65N_Cloud_Kit\src/tensorflow/lite/kernels/internal\types.h ****     int current_val = current[idx] + carry;
 339:C:\Users\a5116938\Desktop\e2_studio_workspace\EEMBC_final\RX65N_Cloud_Kit\src/tensorflow/lite/kernels/internal\types.h ****     TFLITE_DCHECK_GE(dims[idx], current_val);
 340:C:\Users\a5116938\Desktop\e2_studio_workspace\EEMBC_final\RX65N_Cloud_Kit\src/tensorflow/lite/kernels/internal\types.h ****     if (dims[idx] == current_val) {
 341:C:\Users\a5116938\Desktop\e2_studio_workspace\EEMBC_final\RX65N_Cloud_Kit\src/tensorflow/lite/kernels/internal\types.h ****       current[idx] = 0;
 342:C:\Users\a5116938\Desktop\e2_studio_workspace\EEMBC_final\RX65N_Cloud_Kit\src/tensorflow/lite/kernels/internal\types.h ****     } else {
 343:C:\Users\a5116938\Desktop\e2_studio_workspace\EEMBC_final\RX65N_Cloud_Kit\src/tensorflow/lite/kernels/internal\types.h ****       current[idx] = current_val;
 344:C:\Users\a5116938\Desktop\e2_studio_workspace\EEMBC_final\RX65N_Cloud_Kit\src/tensorflow/lite/kernels/internal\types.h ****       carry = 0;
 345:C:\Users\a5116938\Desktop\e2_studio_workspace\EEMBC_final\RX65N_Cloud_Kit\src/tensorflow/lite/kernels/internal\types.h ****       break;
 346:C:\Users\a5116938\Desktop\e2_studio_workspace\EEMBC_final\RX65N_Cloud_Kit\src/tensorflow/lite/kernels/internal\types.h ****     }
 347:C:\Users\a5116938\Desktop\e2_studio_workspace\EEMBC_final\RX65N_Cloud_Kit\src/tensorflow/lite/kernels/internal\types.h ****   }
 348:C:\Users\a5116938\Desktop\e2_studio_workspace\EEMBC_final\RX65N_Cloud_Kit\src/tensorflow/lite/kernels/internal\types.h ****   return (carry == 0);
 349:C:\Users\a5116938\Desktop\e2_studio_workspace\EEMBC_final\RX65N_Cloud_Kit\src/tensorflow/lite/kernels/internal\types.h **** }
 350:C:\Users\a5116938\Desktop\e2_studio_workspace\EEMBC_final\RX65N_Cloud_Kit\src/tensorflow/lite/kernels/internal\types.h **** 
 351:C:\Users\a5116938\Desktop\e2_studio_workspace\EEMBC_final\RX65N_Cloud_Kit\src/tensorflow/lite/kernels/internal\types.h **** // Gets offset of index if reducing on axis. When reducing, the flattened offset
 352:C:\Users\a5116938\Desktop\e2_studio_workspace\EEMBC_final\RX65N_Cloud_Kit\src/tensorflow/lite/kernels/internal\types.h **** // will not change, if the input index changes on the given axis. For example,
 353:C:\Users\a5116938\Desktop\e2_studio_workspace\EEMBC_final\RX65N_Cloud_Kit\src/tensorflow/lite/kernels/internal\types.h **** // if you have a 3D tensor and you are reducing to 2D by eliminating axis 0,
 354:C:\Users\a5116938\Desktop\e2_studio_workspace\EEMBC_final\RX65N_Cloud_Kit\src/tensorflow/lite/kernels/internal\types.h **** // then index (0, 1, 2) and index (1, 1, 2) will map to the same flattened
 355:C:\Users\a5116938\Desktop\e2_studio_workspace\EEMBC_final\RX65N_Cloud_Kit\src/tensorflow/lite/kernels/internal\types.h **** // offset.
 356:C:\Users\a5116938\Desktop\e2_studio_workspace\EEMBC_final\RX65N_Cloud_Kit\src/tensorflow/lite/kernels/internal\types.h **** // TODO(kanlig): uses Dims to represent dimensions.
 357:C:\Users\a5116938\Desktop\e2_studio_workspace\EEMBC_final\RX65N_Cloud_Kit\src/tensorflow/lite/kernels/internal\types.h **** inline size_t ReducedOutputOffset(const int num_dims, const int* dims,
 358:C:\Users\a5116938\Desktop\e2_studio_workspace\EEMBC_final\RX65N_Cloud_Kit\src/tensorflow/lite/kernels/internal\types.h ****                                   const int* index, const int num_axis,
 359:C:\Users\a5116938\Desktop\e2_studio_workspace\EEMBC_final\RX65N_Cloud_Kit\src/tensorflow/lite/kernels/internal\types.h ****                                   const int* axis) {
 360:C:\Users\a5116938\Desktop\e2_studio_workspace\EEMBC_final\RX65N_Cloud_Kit\src/tensorflow/lite/kernels/internal\types.h ****   if (num_dims == 0) {
 361:C:\Users\a5116938\Desktop\e2_studio_workspace\EEMBC_final\RX65N_Cloud_Kit\src/tensorflow/lite/kernels/internal\types.h ****     return 0;
 362:C:\Users\a5116938\Desktop\e2_studio_workspace\EEMBC_final\RX65N_Cloud_Kit\src/tensorflow/lite/kernels/internal\types.h ****   }
 363:C:\Users\a5116938\Desktop\e2_studio_workspace\EEMBC_final\RX65N_Cloud_Kit\src/tensorflow/lite/kernels/internal\types.h ****   TFLITE_DCHECK(dims != nullptr);
 364:C:\Users\a5116938\Desktop\e2_studio_workspace\EEMBC_final\RX65N_Cloud_Kit\src/tensorflow/lite/kernels/internal\types.h ****   TFLITE_DCHECK(index != nullptr);
 365:C:\Users\a5116938\Desktop\e2_studio_workspace\EEMBC_final\RX65N_Cloud_Kit\src/tensorflow/lite/kernels/internal\types.h ****   size_t offset = 0;
 366:C:\Users\a5116938\Desktop\e2_studio_workspace\EEMBC_final\RX65N_Cloud_Kit\src/tensorflow/lite/kernels/internal\types.h ****   for (int idx = 0; idx < num_dims; ++idx) {
 367:C:\Users\a5116938\Desktop\e2_studio_workspace\EEMBC_final\RX65N_Cloud_Kit\src/tensorflow/lite/kernels/internal\types.h ****     // if we need to skip this axis
 368:C:\Users\a5116938\Desktop\e2_studio_workspace\EEMBC_final\RX65N_Cloud_Kit\src/tensorflow/lite/kernels/internal\types.h ****     bool is_axis = false;
 369:C:\Users\a5116938\Desktop\e2_studio_workspace\EEMBC_final\RX65N_Cloud_Kit\src/tensorflow/lite/kernels/internal\types.h ****     if (axis != nullptr) {
 370:C:\Users\a5116938\Desktop\e2_studio_workspace\EEMBC_final\RX65N_Cloud_Kit\src/tensorflow/lite/kernels/internal\types.h ****       for (int axis_idx = 0; axis_idx < num_axis; ++axis_idx) {
 371:C:\Users\a5116938\Desktop\e2_studio_workspace\EEMBC_final\RX65N_Cloud_Kit\src/tensorflow/lite/kernels/internal\types.h ****         if (idx == axis[axis_idx]) {
 372:C:\Users\a5116938\Desktop\e2_studio_workspace\EEMBC_final\RX65N_Cloud_Kit\src/tensorflow/lite/kernels/internal\types.h ****           is_axis = true;
 373:C:\Users\a5116938\Desktop\e2_studio_workspace\EEMBC_final\RX65N_Cloud_Kit\src/tensorflow/lite/kernels/internal\types.h ****           break;
 374:C:\Users\a5116938\Desktop\e2_studio_workspace\EEMBC_final\RX65N_Cloud_Kit\src/tensorflow/lite/kernels/internal\types.h ****         }
 375:C:\Users\a5116938\Desktop\e2_studio_workspace\EEMBC_final\RX65N_Cloud_Kit\src/tensorflow/lite/kernels/internal\types.h ****       }
 376:C:\Users\a5116938\Desktop\e2_studio_workspace\EEMBC_final\RX65N_Cloud_Kit\src/tensorflow/lite/kernels/internal\types.h ****     }
 377:C:\Users\a5116938\Desktop\e2_studio_workspace\EEMBC_final\RX65N_Cloud_Kit\src/tensorflow/lite/kernels/internal\types.h ****     if (!is_axis) {
 378:C:\Users\a5116938\Desktop\e2_studio_workspace\EEMBC_final\RX65N_Cloud_Kit\src/tensorflow/lite/kernels/internal\types.h ****       offset = offset * static_cast<size_t>(dims[idx]) +
 379:C:\Users\a5116938\Desktop\e2_studio_workspace\EEMBC_final\RX65N_Cloud_Kit\src/tensorflow/lite/kernels/internal\types.h ****                static_cast<size_t>(index[idx]);
 380:C:\Users\a5116938\Desktop\e2_studio_workspace\EEMBC_final\RX65N_Cloud_Kit\src/tensorflow/lite/kernels/internal\types.h ****     }
 381:C:\Users\a5116938\Desktop\e2_studio_workspace\EEMBC_final\RX65N_Cloud_Kit\src/tensorflow/lite/kernels/internal\types.h ****   }
 382:C:\Users\a5116938\Desktop\e2_studio_workspace\EEMBC_final\RX65N_Cloud_Kit\src/tensorflow/lite/kernels/internal\types.h ****   return offset;
 383:C:\Users\a5116938\Desktop\e2_studio_workspace\EEMBC_final\RX65N_Cloud_Kit\src/tensorflow/lite/kernels/internal\types.h **** }
 384:C:\Users\a5116938\Desktop\e2_studio_workspace\EEMBC_final\RX65N_Cloud_Kit\src/tensorflow/lite/kernels/internal\types.h **** 
 385:C:\Users\a5116938\Desktop\e2_studio_workspace\EEMBC_final\RX65N_Cloud_Kit\src/tensorflow/lite/kernels/internal\types.h **** inline int Offset(const RuntimeShape& shape, int i0, int i1, int i2, int i3) {
 386:C:\Users\a5116938\Desktop\e2_studio_workspace\EEMBC_final\RX65N_Cloud_Kit\src/tensorflow/lite/kernels/internal\types.h ****   TFLITE_DCHECK_EQ(shape.DimensionsCount(), 4);
 387:C:\Users\a5116938\Desktop\e2_studio_workspace\EEMBC_final\RX65N_Cloud_Kit\src/tensorflow/lite/kernels/internal\types.h ****   const int* dims_data = reinterpret_cast<const int*>(shape.DimsDataUpTo5D());
 388:C:\Users\a5116938\Desktop\e2_studio_workspace\EEMBC_final\RX65N_Cloud_Kit\src/tensorflow/lite/kernels/internal\types.h ****   TFLITE_DCHECK(i0 >= 0 && i0 < dims_data[0]);
 389:C:\Users\a5116938\Desktop\e2_studio_workspace\EEMBC_final\RX65N_Cloud_Kit\src/tensorflow/lite/kernels/internal\types.h ****   TFLITE_DCHECK(i1 >= 0 && i1 < dims_data[1]);
 390:C:\Users\a5116938\Desktop\e2_studio_workspace\EEMBC_final\RX65N_Cloud_Kit\src/tensorflow/lite/kernels/internal\types.h ****   TFLITE_DCHECK(i2 >= 0 && i2 < dims_data[2]);
 391:C:\Users\a5116938\Desktop\e2_studio_workspace\EEMBC_final\RX65N_Cloud_Kit\src/tensorflow/lite/kernels/internal\types.h ****   TFLITE_DCHECK(i3 >= 0 && i3 < dims_data[3]);
 392:C:\Users\a5116938\Desktop\e2_studio_workspace\EEMBC_final\RX65N_Cloud_Kit\src/tensorflow/lite/kernels/internal\types.h ****   return ((i0 * dims_data[1] + i1) * dims_data[2] + i2) * dims_data[3] + i3;
 393:C:\Users\a5116938\Desktop\e2_studio_workspace\EEMBC_final\RX65N_Cloud_Kit\src/tensorflow/lite/kernels/internal\types.h **** }
 394:C:\Users\a5116938\Desktop\e2_studio_workspace\EEMBC_final\RX65N_Cloud_Kit\src/tensorflow/lite/kernels/internal\types.h **** 
 395:C:\Users\a5116938\Desktop\e2_studio_workspace\EEMBC_final\RX65N_Cloud_Kit\src/tensorflow/lite/kernels/internal\types.h **** inline int Offset(const Dims<4>& dims, int i0, int i1, int i2, int i3) {
 396:C:\Users\a5116938\Desktop\e2_studio_workspace\EEMBC_final\RX65N_Cloud_Kit\src/tensorflow/lite/kernels/internal\types.h ****   TFLITE_DCHECK(i0 >= 0 && i0 < dims.sizes[0]);
 397:C:\Users\a5116938\Desktop\e2_studio_workspace\EEMBC_final\RX65N_Cloud_Kit\src/tensorflow/lite/kernels/internal\types.h ****   TFLITE_DCHECK(i1 >= 0 && i1 < dims.sizes[1]);
 398:C:\Users\a5116938\Desktop\e2_studio_workspace\EEMBC_final\RX65N_Cloud_Kit\src/tensorflow/lite/kernels/internal\types.h ****   TFLITE_DCHECK(i2 >= 0 && i2 < dims.sizes[2]);
 399:C:\Users\a5116938\Desktop\e2_studio_workspace\EEMBC_final\RX65N_Cloud_Kit\src/tensorflow/lite/kernels/internal\types.h ****   TFLITE_DCHECK(i3 >= 0 && i3 < dims.sizes[3]);
 400:C:\Users\a5116938\Desktop\e2_studio_workspace\EEMBC_final\RX65N_Cloud_Kit\src/tensorflow/lite/kernels/internal\types.h ****   return i0 * dims.strides[0] + i1 * dims.strides[1] + i2 * dims.strides[2] +
 401:C:\Users\a5116938\Desktop\e2_studio_workspace\EEMBC_final\RX65N_Cloud_Kit\src/tensorflow/lite/kernels/internal\types.h ****          i3 * dims.strides[3];
 402:C:\Users\a5116938\Desktop\e2_studio_workspace\EEMBC_final\RX65N_Cloud_Kit\src/tensorflow/lite/kernels/internal\types.h **** }
 403:C:\Users\a5116938\Desktop\e2_studio_workspace\EEMBC_final\RX65N_Cloud_Kit\src/tensorflow/lite/kernels/internal\types.h **** 
 404:C:\Users\a5116938\Desktop\e2_studio_workspace\EEMBC_final\RX65N_Cloud_Kit\src/tensorflow/lite/kernels/internal\types.h **** inline int Offset(const Dims<4>& dims, int* index) {
 405:C:\Users\a5116938\Desktop\e2_studio_workspace\EEMBC_final\RX65N_Cloud_Kit\src/tensorflow/lite/kernels/internal\types.h ****   return Offset(dims, index[0], index[1], index[2], index[3]);
 406:C:\Users\a5116938\Desktop\e2_studio_workspace\EEMBC_final\RX65N_Cloud_Kit\src/tensorflow/lite/kernels/internal\types.h **** }
 407:C:\Users\a5116938\Desktop\e2_studio_workspace\EEMBC_final\RX65N_Cloud_Kit\src/tensorflow/lite/kernels/internal\types.h **** 
 408:C:\Users\a5116938\Desktop\e2_studio_workspace\EEMBC_final\RX65N_Cloud_Kit\src/tensorflow/lite/kernels/internal\types.h **** inline int Offset(const RuntimeShape& shape, int* index) {
 409:C:\Users\a5116938\Desktop\e2_studio_workspace\EEMBC_final\RX65N_Cloud_Kit\src/tensorflow/lite/kernels/internal\types.h ****   return Offset(shape, index[0], index[1], index[2], index[3]);
 410:C:\Users\a5116938\Desktop\e2_studio_workspace\EEMBC_final\RX65N_Cloud_Kit\src/tensorflow/lite/kernels/internal\types.h **** }
 411:C:\Users\a5116938\Desktop\e2_studio_workspace\EEMBC_final\RX65N_Cloud_Kit\src/tensorflow/lite/kernels/internal\types.h **** 
 412:C:\Users\a5116938\Desktop\e2_studio_workspace\EEMBC_final\RX65N_Cloud_Kit\src/tensorflow/lite/kernels/internal\types.h **** // Get array size, DCHECKing that the dim index is in range.
 413:C:\Users\a5116938\Desktop\e2_studio_workspace\EEMBC_final\RX65N_Cloud_Kit\src/tensorflow/lite/kernels/internal\types.h **** //
 414:C:\Users\a5116938\Desktop\e2_studio_workspace\EEMBC_final\RX65N_Cloud_Kit\src/tensorflow/lite/kernels/internal\types.h **** // Note that this will be phased out with Dims<4>, since RuntimeShape::Dims()
 415:C:\Users\a5116938\Desktop\e2_studio_workspace\EEMBC_final\RX65N_Cloud_Kit\src/tensorflow/lite/kernels/internal\types.h **** // already performs this check.
 416:C:\Users\a5116938\Desktop\e2_studio_workspace\EEMBC_final\RX65N_Cloud_Kit\src/tensorflow/lite/kernels/internal\types.h **** template <int N>
 417:C:\Users\a5116938\Desktop\e2_studio_workspace\EEMBC_final\RX65N_Cloud_Kit\src/tensorflow/lite/kernels/internal\types.h **** int ArraySize(const Dims<N>& array, int index) {
 418:C:\Users\a5116938\Desktop\e2_studio_workspace\EEMBC_final\RX65N_Cloud_Kit\src/tensorflow/lite/kernels/internal\types.h ****   TFLITE_DCHECK(index >= 0 && index < N);
 419:C:\Users\a5116938\Desktop\e2_studio_workspace\EEMBC_final\RX65N_Cloud_Kit\src/tensorflow/lite/kernels/internal\types.h ****   return array.sizes[index];
 420:C:\Users\a5116938\Desktop\e2_studio_workspace\EEMBC_final\RX65N_Cloud_Kit\src/tensorflow/lite/kernels/internal\types.h **** }
 421:C:\Users\a5116938\Desktop\e2_studio_workspace\EEMBC_final\RX65N_Cloud_Kit\src/tensorflow/lite/kernels/internal\types.h **** 
 422:C:\Users\a5116938\Desktop\e2_studio_workspace\EEMBC_final\RX65N_Cloud_Kit\src/tensorflow/lite/kernels/internal\types.h **** // Get common array size, DCHECKing that they all agree.
 423:C:\Users\a5116938\Desktop\e2_studio_workspace\EEMBC_final\RX65N_Cloud_Kit\src/tensorflow/lite/kernels/internal\types.h **** template <typename ArrayType1, typename ArrayType2>
 424:C:\Users\a5116938\Desktop\e2_studio_workspace\EEMBC_final\RX65N_Cloud_Kit\src/tensorflow/lite/kernels/internal\types.h **** int MatchingArraySize(const ArrayType1& array1, int index1,
 425:C:\Users\a5116938\Desktop\e2_studio_workspace\EEMBC_final\RX65N_Cloud_Kit\src/tensorflow/lite/kernels/internal\types.h ****                       const ArrayType2& array2, int index2) {
 426:C:\Users\a5116938\Desktop\e2_studio_workspace\EEMBC_final\RX65N_Cloud_Kit\src/tensorflow/lite/kernels/internal\types.h ****   TFLITE_DCHECK_EQ(ArraySize(array1, index1), ArraySize(array2, index2));
 427:C:\Users\a5116938\Desktop\e2_studio_workspace\EEMBC_final\RX65N_Cloud_Kit\src/tensorflow/lite/kernels/internal\types.h ****   return ArraySize(array1, index1);
 428:C:\Users\a5116938\Desktop\e2_studio_workspace\EEMBC_final\RX65N_Cloud_Kit\src/tensorflow/lite/kernels/internal\types.h **** }
 429:C:\Users\a5116938\Desktop\e2_studio_workspace\EEMBC_final\RX65N_Cloud_Kit\src/tensorflow/lite/kernels/internal\types.h **** 
 430:C:\Users\a5116938\Desktop\e2_studio_workspace\EEMBC_final\RX65N_Cloud_Kit\src/tensorflow/lite/kernels/internal\types.h **** template <typename ArrayType1, typename ArrayType2, typename... Args>
 431:C:\Users\a5116938\Desktop\e2_studio_workspace\EEMBC_final\RX65N_Cloud_Kit\src/tensorflow/lite/kernels/internal\types.h **** int MatchingArraySize(const ArrayType1& array1, int index1,
 432:C:\Users\a5116938\Desktop\e2_studio_workspace\EEMBC_final\RX65N_Cloud_Kit\src/tensorflow/lite/kernels/internal\types.h ****                       const ArrayType2& array2, int index2, Args... args) {
 433:C:\Users\a5116938\Desktop\e2_studio_workspace\EEMBC_final\RX65N_Cloud_Kit\src/tensorflow/lite/kernels/internal\types.h ****   TFLITE_DCHECK_EQ(ArraySize(array1, index1), ArraySize(array2, index2));
 434:C:\Users\a5116938\Desktop\e2_studio_workspace\EEMBC_final\RX65N_Cloud_Kit\src/tensorflow/lite/kernels/internal\types.h ****   return MatchingArraySize(array1, index1, args...);
 435:C:\Users\a5116938\Desktop\e2_studio_workspace\EEMBC_final\RX65N_Cloud_Kit\src/tensorflow/lite/kernels/internal\types.h **** }
 436:C:\Users\a5116938\Desktop\e2_studio_workspace\EEMBC_final\RX65N_Cloud_Kit\src/tensorflow/lite/kernels/internal\types.h **** 
 437:C:\Users\a5116938\Desktop\e2_studio_workspace\EEMBC_final\RX65N_Cloud_Kit\src/tensorflow/lite/kernels/internal\types.h **** // Get common shape dim, DCHECKing that they all agree.
 438:C:\Users\a5116938\Desktop\e2_studio_workspace\EEMBC_final\RX65N_Cloud_Kit\src/tensorflow/lite/kernels/internal\types.h **** inline int MatchingDim(const RuntimeShape& shape1, int index1,
 439:C:\Users\a5116938\Desktop\e2_studio_workspace\EEMBC_final\RX65N_Cloud_Kit\src/tensorflow/lite/kernels/internal\types.h ****                        const RuntimeShape& shape2, int index2) {
 440:C:\Users\a5116938\Desktop\e2_studio_workspace\EEMBC_final\RX65N_Cloud_Kit\src/tensorflow/lite/kernels/internal\types.h ****   TFLITE_DCHECK_EQ(shape1.Dims(index1), shape2.Dims(index2));
 218                             		.loc 3 440 3
 219                             	.LBB594:
 220                             	.LBB595:
 196:C:\Users\a5116938\Desktop\e2_studio_workspace\EEMBC_final\RX65N_Cloud_Kit\src/tensorflow/lite/kernels/internal\types.h ****     TFLITE_DCHECK_LT(i, size_);
 221                             		.loc 3 196 5
 197:C:\Users\a5116938\Desktop\e2_studio_workspace\EEMBC_final\RX65N_Cloud_Kit\src/tensorflow/lite/kernels/internal\types.h ****     return size_ > kMaxSmallSize ? dims_pointer_[i] : dims_[i];
 222                             		.loc 3 197 5
 223 0091 ED 0C 19                		mov.L	100[r0], r12
 224 0094 61 0C                   		cmp	#0, r12
 225 0096 2A 05 38 58 01          		ble	.L7
 226                             	.LVL27:
 227                             		.balign 8,3,1
 228                             	.L53:
 198:C:\Users\a5116938\Desktop\e2_studio_workspace\EEMBC_final\RX65N_Cloud_Kit\src/tensorflow/lite/kernels/internal\types.h ****   }
 229                             		.loc 3 198 5
 230 009b E5 00 1A 2D             		mov.L	104[r0], 180[r0]
 198:C:\Users\a5116938\Desktop\e2_studio_workspace\EEMBC_final\RX65N_Cloud_Kit\src/tensorflow/lite/kernels/internal\types.h ****   }
 231                             		.loc 3 198 34 is_stmt 0
 232 009f 61 5C                   		cmp	#5, r12
 233 00a1 2A 05 38 51 01          		ble	.L37
 234 00a6 ED 0D 2D                		mov.L	180[r0], r13
 235 00a9 EC D5                   		mov.L	[r13], r5
 236                             		.balign 8,3,1
 237                             	.L16:
 238                             	.LVL28:
 239                             	.LBE595:
 240                             	.LBE594:
 241                             	.LBB598:
 242                             	.LBB599:
 196:C:\Users\a5116938\Desktop\e2_studio_workspace\EEMBC_final\RX65N_Cloud_Kit\src/tensorflow/lite/kernels/internal\types.h ****     TFLITE_DCHECK_LT(i, size_);
 243                             		.loc 3 196 5 is_stmt 1
 197:C:\Users\a5116938\Desktop\e2_studio_workspace\EEMBC_final\RX65N_Cloud_Kit\src/tensorflow/lite/kernels/internal\types.h ****     return size_ > kMaxSmallSize ? dims_pointer_[i] : dims_[i];
 244                             		.loc 3 197 5
 245 00ab ED 0B 13                		mov.L	76[r0], r11
 246 00ae 61 0B                   		cmp	#0, r11
 247 00b0 2A 05 38 3E 01          		ble	.L7
 198:C:\Users\a5116938\Desktop\e2_studio_workspace\EEMBC_final\RX65N_Cloud_Kit\src/tensorflow/lite/kernels/internal\types.h ****   }
 248                             		.loc 3 198 5
 249 00b5 E5 00 14 2C             		mov.L	80[r0], 176[r0]
 198:C:\Users\a5116938\Desktop\e2_studio_workspace\EEMBC_final\RX65N_Cloud_Kit\src/tensorflow/lite/kernels/internal\types.h ****   }
 250                             		.loc 3 198 34 is_stmt 0
 251 00b9 61 5B                   		cmp	#5, r11
 252 00bb 2A 05 38 3D 01          		ble	.L17
 253                             	.LVL29:
 254                             	.LBE599:
 255                             	.LBE598:
 256                             		.loc 3 440 3
 257 00c0 ED 0E 2C                		mov.L	176[r0], r14
 258 00c3 EC E4                   		mov.L	[r14], r4
 259 00c5 47 54                   		cmp	r5, r4
 260 00c7 3B 29 01                		bne	.L7
 261                             		.balign 8,3,1
 262                             	.L18:
 263                             	.LVL30:
 264                             	.LBE593:
 265                             	.LBE592:
 140:../src/tensorflow/lite/micro/kernels/conv.cc ****   input_dims.h = input->dims->data[1];
 266                             		.loc 1 140 25
 267 00ca ED 94 02                		mov.L	8[r9], r4
 139:../src/tensorflow/lite/micro/kernels/conv.cc ****   input_dims.h = input->dims->data[1];
 268                             		.loc 1 139 16
 269 00cd E7 05 27                		mov.L	r5, 156[r0]
 270                             		.loc 1 140 3 is_stmt 1
 141:../src/tensorflow/lite/micro/kernels/conv.cc ****   input_dims.w = input->dims->data[2];
 271                             		.loc 1 141 3
 140:../src/tensorflow/lite/micro/kernels/conv.cc ****   input_dims.h = input->dims->data[1];
 272                             		.loc 1 140 16 is_stmt 0
 273 00d0 E5 40 02 28             		mov.L	8[r4], 160[r0]
 274 00d4 E5 40 03 29             		mov.L	12[r4], 164[r0]
 142:../src/tensorflow/lite/micro/kernels/conv.cc ****   input_dims.c = input_shape.Dims(3);
 275                             		.loc 1 142 3 is_stmt 1
 276                             	.LVL31:
 277                             	.LBB604:
 278                             	.LBB605:
 196:C:\Users\a5116938\Desktop\e2_studio_workspace\EEMBC_final\RX65N_Cloud_Kit\src/tensorflow/lite/kernels/internal\types.h ****     TFLITE_DCHECK_LT(i, size_);
 279                             		.loc 3 196 5
 197:C:\Users\a5116938\Desktop\e2_studio_workspace\EEMBC_final\RX65N_Cloud_Kit\src/tensorflow/lite/kernels/internal\types.h ****     return size_ > kMaxSmallSize ? dims_pointer_[i] : dims_[i];
 280                             		.loc 3 197 5
 281 00d8 61 3C                   		cmp	#3, r12
 282 00da 2A 05 38 14 01          		ble	.L7
 198:C:\Users\a5116938\Desktop\e2_studio_workspace\EEMBC_final\RX65N_Cloud_Kit\src/tensorflow/lite/kernels/internal\types.h ****   }
 283                             		.loc 3 198 5
 198:C:\Users\a5116938\Desktop\e2_studio_workspace\EEMBC_final\RX65N_Cloud_Kit\src/tensorflow/lite/kernels/internal\types.h ****   }
 284                             		.loc 3 198 34 is_stmt 0
 285 00df 61 5C                   		cmp	#5, r12
 286 00e1 2A 05 38 23 01          		ble	.L19
 287 00e6 ED 0D 2D                		mov.L	180[r0], r13
 288 00e9 ED D3 03                		mov.L	12[r13], r3
 289 00ec 76 10 01 00             		.balign 8,3,5
 290                             	.L20:
 291                             	.LVL32:
 292                             	.LBE605:
 293                             	.LBE604:
 294                             		.loc 1 142 16
 295 00f0 E7 03 2A                		mov.L	r3, 168[r0]
 143:../src/tensorflow/lite/micro/kernels/conv.cc **** 
 144:../src/tensorflow/lite/micro/kernels/conv.cc ****   // Initialize cmsis-nn filter dimensions
 145:../src/tensorflow/lite/micro/kernels/conv.cc ****   cmsis_nn_dims filter_dims;
 296                             		.loc 1 145 3 is_stmt 1
 146:../src/tensorflow/lite/micro/kernels/conv.cc ****   filter_dims.n = output_shape.Dims(3);
 297                             		.loc 1 146 3
 298                             	.LVL33:
 299                             	.LBB607:
 300                             	.LBB608:
 196:C:\Users\a5116938\Desktop\e2_studio_workspace\EEMBC_final\RX65N_Cloud_Kit\src/tensorflow/lite/kernels/internal\types.h ****     TFLITE_DCHECK_LT(i, size_);
 301                             		.loc 3 196 5
 197:C:\Users\a5116938\Desktop\e2_studio_workspace\EEMBC_final\RX65N_Cloud_Kit\src/tensorflow/lite/kernels/internal\types.h ****     return size_ > kMaxSmallSize ? dims_pointer_[i] : dims_[i];
 302                             		.loc 3 197 5
 303 00f3 61 3B                   		cmp	#3, r11
 304 00f5 2A 05 38 F9 00          		ble	.L7
 198:C:\Users\a5116938\Desktop\e2_studio_workspace\EEMBC_final\RX65N_Cloud_Kit\src/tensorflow/lite/kernels/internal\types.h ****   }
 305                             		.loc 3 198 5
 306 00fa ED 0E 2E                		mov.L	184[r0], r14
 307 00fd ED E4 02                		mov.L	8[r14], r4
 308 0100 ED 82 02                		mov.L	8[r8], r2
 309 0103 ED 4D 02                		mov.L	8[r4], r13
 310 0106 ED 4F 03                		mov.L	12[r4], r15
 311 0109 A8 A1                   		mov.L	8[r2], r1
 312 010b A8 AA                   		mov.L	12[r2], r2
 198:C:\Users\a5116938\Desktop\e2_studio_workspace\EEMBC_final\RX65N_Cloud_Kit\src/tensorflow/lite/kernels/internal\types.h ****   }
 313                             		.loc 3 198 34 is_stmt 0
 314 010d 61 5B                   		cmp	#5, r11
 315 010f 2A 05 38 FA 00          		ble	.L21
 316                             	.LVL34:
 317                             	.LBE608:
 318                             	.LBE607:
 319                             		.loc 1 146 17
 320 0114 ED 0E 2C                		mov.L	176[r0], r14
 321 0117 E5 E0 03 23             		mov.L	12[r14], 140[r0]
 147:../src/tensorflow/lite/micro/kernels/conv.cc ****   filter_dims.h = filter->dims->data[1];
 322                             		.loc 1 147 3 is_stmt 1
 148:../src/tensorflow/lite/micro/kernels/conv.cc ****   filter_dims.w = filter->dims->data[2];
 149:../src/tensorflow/lite/micro/kernels/conv.cc ****   filter_dims.c = input_dims.c;
 323                             		.loc 1 149 17 is_stmt 0
 324 011b E7 03 26                		mov.L	r3, 152[r0]
 147:../src/tensorflow/lite/micro/kernels/conv.cc ****   filter_dims.h = filter->dims->data[1];
 325                             		.loc 1 147 17
 326 011e E7 0D 24                		mov.L	r13, 144[r0]
 148:../src/tensorflow/lite/micro/kernels/conv.cc ****   filter_dims.w = filter->dims->data[2];
 327                             		.loc 1 148 3 is_stmt 1
 148:../src/tensorflow/lite/micro/kernels/conv.cc ****   filter_dims.w = filter->dims->data[2];
 328                             		.loc 1 148 17 is_stmt 0
 329 0121 E7 0F 25                		mov.L	r15, 148[r0]
 330                             		.loc 1 149 3 is_stmt 1
 150:../src/tensorflow/lite/micro/kernels/conv.cc **** 
 151:../src/tensorflow/lite/micro/kernels/conv.cc ****   // Initialize cmsis-nn output dimensions
 152:../src/tensorflow/lite/micro/kernels/conv.cc ****   cmsis_nn_dims output_dims;
 331                             		.loc 1 152 3
 153:../src/tensorflow/lite/micro/kernels/conv.cc ****   output_dims.n = input_dims.n;
 332                             		.loc 1 153 3
 333                             		.loc 1 153 17 is_stmt 0
 334 0124 A7 8D                   		mov.L	r5, 124[r0]
 154:../src/tensorflow/lite/micro/kernels/conv.cc ****   output_dims.h = output->dims->data[1];
 335                             		.loc 1 154 3 is_stmt 1
 336                             		.loc 1 154 17 is_stmt 0
 337 0126 E7 01 20                		mov.L	r1, 128[r0]
 155:../src/tensorflow/lite/micro/kernels/conv.cc ****   output_dims.w = output->dims->data[2];
 338                             		.loc 1 155 3 is_stmt 1
 339                             	.LBB610:
 340                             	.LBB611:
 198:C:\Users\a5116938\Desktop\e2_studio_workspace\EEMBC_final\RX65N_Cloud_Kit\src/tensorflow/lite/kernels/internal\types.h ****   }
 341                             		.loc 3 198 34 is_stmt 0
 342 0129 ED EE 03                		mov.L	12[r14], r14
 343                             	.LBE611:
 344                             	.LBE610:
 345                             		.loc 1 155 17
 346 012c E7 02 21                		mov.L	r2, 132[r0]
 156:../src/tensorflow/lite/micro/kernels/conv.cc ****   output_dims.c = output_shape.Dims(3);
 347                             		.loc 1 156 3 is_stmt 1
 348                             	.LVL35:
 349                             	.LBB614:
 350                             	.LBB612:
 196:C:\Users\a5116938\Desktop\e2_studio_workspace\EEMBC_final\RX65N_Cloud_Kit\src/tensorflow/lite/kernels/internal\types.h ****     TFLITE_DCHECK_LT(i, size_);
 351                             		.loc 3 196 5
 197:C:\Users\a5116938\Desktop\e2_studio_workspace\EEMBC_final\RX65N_Cloud_Kit\src/tensorflow/lite/kernels/internal\types.h ****     return size_ > kMaxSmallSize ? dims_pointer_[i] : dims_[i];
 352                             		.loc 3 197 5
 198:C:\Users\a5116938\Desktop\e2_studio_workspace\EEMBC_final\RX65N_Cloud_Kit\src/tensorflow/lite/kernels/internal\types.h ****   }
 353                             		.loc 3 198 5
 354 012f 03                      		.balign 8,3,1
 355                             	.L22:
 356                             	.LBE612:
 357                             	.LBE614:
 157:../src/tensorflow/lite/micro/kernels/conv.cc **** 
 158:../src/tensorflow/lite/micro/kernels/conv.cc ****   // Dynamically allocate per-channel quantization parameters.
 159:../src/tensorflow/lite/micro/kernels/conv.cc ****   // TODO(#42883): This allocation is done even for non-int8 cases to get around
 160:../src/tensorflow/lite/micro/kernels/conv.cc ****   // a bug in kernel_utils.cc which incorrectly uses per_channel_output_shift in
 161:../src/tensorflow/lite/micro/kernels/conv.cc ****   // non-int8 cases. Protect this section with a if (input->type == kTfLiteInt8)
 162:../src/tensorflow/lite/micro/kernels/conv.cc ****   // when the issue is fixed.
 163:../src/tensorflow/lite/micro/kernels/conv.cc ****   const int num_channels = filter->dims->data[kConvQuantizedDimension];
 164:../src/tensorflow/lite/micro/kernels/conv.cc ****   data->per_channel_output_multiplier =
 165:../src/tensorflow/lite/micro/kernels/conv.cc ****       static_cast<int32_t*>(context->AllocatePersistentBuffer(
 358                             		.loc 1 165 62 is_stmt 0
 359 0130 ED 4D 01                		mov.L	4[r4], r13
 360 0133 AB F5                   		mov.L	56[r7], r5
 361 0135 EF 71                   		mov.L	r7, r1
 156:../src/tensorflow/lite/micro/kernels/conv.cc **** 
 362                             		.loc 1 156 17
 363 0137 E7 0E 22                		mov.L	r14, 136[r0]
 163:../src/tensorflow/lite/micro/kernels/conv.cc ****   data->per_channel_output_multiplier =
 364                             		.loc 1 163 3 is_stmt 1
 365                             	.LVL36:
 164:../src/tensorflow/lite/micro/kernels/conv.cc ****       static_cast<int32_t*>(context->AllocatePersistentBuffer(
 366                             		.loc 1 164 3
 367                             		.loc 1 165 62 is_stmt 0
 368 013a 6C 2D                   		shll	#2, r13
 369 013c EF D2                   		mov.L	r13, r2
 370 013e 7F 15                   		jsr	r5
 371                             	.LVL37:
 166:../src/tensorflow/lite/micro/kernels/conv.cc ****           context, num_channels * sizeof(int32_t)));
 167:../src/tensorflow/lite/micro/kernels/conv.cc ****   data->per_channel_output_shift =
 168:../src/tensorflow/lite/micro/kernels/conv.cc ****       static_cast<int32_t*>(context->AllocatePersistentBuffer(
 372                             		.loc 1 168 62
 373 0140 AB F5                   		mov.L	56[r7], r5
 374 0142 EF D2                   		mov.L	r13, r2
 164:../src/tensorflow/lite/micro/kernels/conv.cc ****       static_cast<int32_t*>(context->AllocatePersistentBuffer(
 375                             		.loc 1 164 39
 376 0144 E7 A1 09                		mov.L	r1, 36[r10]
 167:../src/tensorflow/lite/micro/kernels/conv.cc ****       static_cast<int32_t*>(context->AllocatePersistentBuffer(
 377                             		.loc 1 167 3 is_stmt 1
 378                             		.loc 1 168 62 is_stmt 0
 379 0147 EF 71                   		mov.L	r7, r1
 380 0149 7F 15                   		jsr	r5
 381                             	.LVL38:
 382                             	.LBB615:
 383                             	.LBB616:
 384                             	.LBB617:
  85:../src/tensorflow/lite/micro/kernels/conv.cc ****   // Check number of inputs/outputs
 385                             		.loc 1 85 33
 386 014b EC 65                   		mov.L	[r6], r5
 387                             	.LBE617:
 388                             	.LBE616:
 389                             	.LBE615:
 167:../src/tensorflow/lite/micro/kernels/conv.cc ****       static_cast<int32_t*>(context->AllocatePersistentBuffer(
 390                             		.loc 1 167 34
 391 014d E7 A1 0A                		mov.L	r1, 40[r10]
 169:../src/tensorflow/lite/micro/kernels/conv.cc ****           context, num_channels * sizeof(int32_t)));
 170:../src/tensorflow/lite/micro/kernels/conv.cc **** 
 171:../src/tensorflow/lite/micro/kernels/conv.cc ****   TF_LITE_ENSURE_STATUS(CalculateOpData(
 392                             		.loc 1 171 3 is_stmt 1
 393                             	.LBB700:
 394                             		.loc 1 171 3
 395                             	.LVL39:
 396                             	.LBB694:
 397                             	.LBB688:
  85:../src/tensorflow/lite/micro/kernels/conv.cc ****   // Check number of inputs/outputs
 398                             		.loc 1 85 3
  87:../src/tensorflow/lite/micro/kernels/conv.cc ****   TF_LITE_ENSURE_EQ(context, node->outputs->size, 1);
 399                             		.loc 1 87 3
  87:../src/tensorflow/lite/micro/kernels/conv.cc ****   TF_LITE_ENSURE_EQ(context, node->outputs->size, 1);
 400                             		.loc 1 87 3
 401 0150 EC 55                   		mov.L	[r5], r5
 402 0152 60 25                   		sub	#2, r5
 403 0154 61 15                   		cmp	#1, r5
 404 0156 25 47                   		bleu	.L23
  87:../src/tensorflow/lite/micro/kernels/conv.cc ****   TF_LITE_ENSURE_EQ(context, node->outputs->size, 1);
 405                             		.loc 1 87 3
  87:../src/tensorflow/lite/micro/kernels/conv.cc ****   TF_LITE_ENSURE_EQ(context, node->outputs->size, 1);
 406                             		.loc 1 87 3
 407 0158 ED 7A 05                		mov.L	20[r7], r10
 408                             	.LVL40:
 409 015b F9 02 03 00 00 00 00    		mov.L	#.LC1, 12[r0]
 410                             	.LVL41:
 411 0162 3E 02 57                		mov.L	#0x57, 8[r0]
 412 0165 F9 02 01 24 00 00 00    		mov.L	#.LC2, 4[r0]
 413 016c EF 71                   		mov.L	r7, r1
 414 016e F8 02 51 00 00 00       		mov.L	#.LC3, [r0]
 415 0174 66 16                   		mov.L	#1, r6
 416                             	.LVL42:
 417 0176 7F 1A                   		jsr	r10
 418                             	.LVL43:
  87:../src/tensorflow/lite/micro/kernels/conv.cc ****   TF_LITE_ENSURE_EQ(context, node->outputs->size, 1);
 419                             		.loc 1 87 3
 420                             	.LBE688:
 421                             	.LBE694:
 422                             		.loc 1 171 3
 423                             		.balign 8,3,1
 424                             	.L24:
 425                             	.LBE700:
 426                             	.LBB701:
 427                             	.LBB702:
 185:C:\Users\a5116938\Desktop\e2_studio_workspace\EEMBC_final\RX65N_Cloud_Kit\src/tensorflow/lite/kernels/internal\types.h **** #ifdef TF_LITE_STATIC_MEMORY
 428                             		.loc 3 185 5
 429 0178 61 5B                   		cmp	#5, r11
 430 017a 2B 0E                   		ble	.L31
 189:C:\Users\a5116938\Desktop\e2_studio_workspace\EEMBC_final\RX65N_Cloud_Kit\src/tensorflow/lite/kernels/internal\types.h **** #endif  // TF_LITE_STATIC_MEMORY
 431                             		.loc 3 189 7
 189:C:\Users\a5116938\Desktop\e2_studio_workspace\EEMBC_final\RX65N_Cloud_Kit\src/tensorflow/lite/kernels/internal\types.h **** #endif  // TF_LITE_STATIC_MEMORY
 432                             		.loc 3 189 29 is_stmt 0
 433 017c ED 0E 2C                		mov.L	176[r0], r14
 434 017f 61 0E                   		cmp	#0, r14
 435 0181 17                      		beq	.L31
 189:C:\Users\a5116938\Desktop\e2_studio_workspace\EEMBC_final\RX65N_Cloud_Kit\src/tensorflow/lite/kernels/internal\types.h **** #endif  // TF_LITE_STATIC_MEMORY
 436                             		.loc 3 189 16
 437 0182 EF E1                   		mov.L	r14, r1
 438 0184 05 00 00 00             		bsr	__ZdaPv
 439                             	.LVL44:
 440                             		.balign 8,3,1
 441                             	.L31:
 442                             	.LBE702:
 443                             	.LBE701:
 444                             	.LBB703:
 445                             	.LBB704:
 185:C:\Users\a5116938\Desktop\e2_studio_workspace\EEMBC_final\RX65N_Cloud_Kit\src/tensorflow/lite/kernels/internal\types.h **** #ifdef TF_LITE_STATIC_MEMORY
 446                             		.loc 3 185 5 is_stmt 1
 447 0188 61 5C                   		cmp	#5, r12
 448 018a 2B 0E                   		ble	.L5
 189:C:\Users\a5116938\Desktop\e2_studio_workspace\EEMBC_final\RX65N_Cloud_Kit\src/tensorflow/lite/kernels/internal\types.h **** #endif  // TF_LITE_STATIC_MEMORY
 449                             		.loc 3 189 7
 189:C:\Users\a5116938\Desktop\e2_studio_workspace\EEMBC_final\RX65N_Cloud_Kit\src/tensorflow/lite/kernels/internal\types.h **** #endif  // TF_LITE_STATIC_MEMORY
 450                             		.loc 3 189 29 is_stmt 0
 451 018c ED 0F 2D                		mov.L	180[r0], r15
 452 018f 61 0F                   		cmp	#0, r15
 453 0191 17                      		beq	.L5
 189:C:\Users\a5116938\Desktop\e2_studio_workspace\EEMBC_final\RX65N_Cloud_Kit\src/tensorflow/lite/kernels/internal\types.h **** #endif  // TF_LITE_STATIC_MEMORY
 454                             		.loc 3 189 16
 455 0192 EF F1                   		mov.L	r15, r1
 456 0194 05 00 00 00             		bsr	__ZdaPv
 457                             	.LVL45:
 458                             		.balign 8,3,1
 459                             	.L5:
 460                             	.LBE704:
 461                             	.LBE703:
 172:../src/tensorflow/lite/micro/kernels/conv.cc ****       context, node, params, input_dims.w, input_dims.h, filter_dims.w,
 173:../src/tensorflow/lite/micro/kernels/conv.cc ****       filter_dims.h, output_dims.w, output_dims.h, input->type, data));
 174:../src/tensorflow/lite/micro/kernels/conv.cc **** 
 175:../src/tensorflow/lite/micro/kernels/conv.cc ****   data->input_zero_point = input->params.zero_point;
 176:../src/tensorflow/lite/micro/kernels/conv.cc ****   data->filter_zero_point = filter->params.zero_point;
 177:../src/tensorflow/lite/micro/kernels/conv.cc ****   data->output_zero_point = output->params.zero_point;
 178:../src/tensorflow/lite/micro/kernels/conv.cc **** 
 179:../src/tensorflow/lite/micro/kernels/conv.cc ****   if (input->type == kTfLiteInt8) {
 180:../src/tensorflow/lite/micro/kernels/conv.cc ****     // Initialize cmsis-nn convolution parameters
 181:../src/tensorflow/lite/micro/kernels/conv.cc ****     cmsis_nn_conv_params conv_params;
 182:../src/tensorflow/lite/micro/kernels/conv.cc ****     conv_params.input_offset = -input->params.zero_point;
 183:../src/tensorflow/lite/micro/kernels/conv.cc ****     conv_params.output_offset = output->params.zero_point;
 184:../src/tensorflow/lite/micro/kernels/conv.cc ****     conv_params.stride.h = params->stride_height;
 185:../src/tensorflow/lite/micro/kernels/conv.cc ****     conv_params.stride.w = params->stride_width;
 186:../src/tensorflow/lite/micro/kernels/conv.cc ****     conv_params.dilation.h = params->dilation_height_factor;
 187:../src/tensorflow/lite/micro/kernels/conv.cc ****     conv_params.dilation.w = params->dilation_width_factor;
 188:../src/tensorflow/lite/micro/kernels/conv.cc ****     conv_params.padding.h = data->padding.height;
 189:../src/tensorflow/lite/micro/kernels/conv.cc ****     conv_params.padding.w = data->padding.width;
 190:../src/tensorflow/lite/micro/kernels/conv.cc ****     conv_params.activation.min = data->output_activation_min;
 191:../src/tensorflow/lite/micro/kernels/conv.cc ****     conv_params.activation.max = data->output_activation_max;
 192:../src/tensorflow/lite/micro/kernels/conv.cc **** 
 193:../src/tensorflow/lite/micro/kernels/conv.cc ****     buf_size = arm_convolve_wrapper_s8_get_buffer_size(
 194:../src/tensorflow/lite/micro/kernels/conv.cc ****         &conv_params, &input_dims, &filter_dims, &output_dims);
 195:../src/tensorflow/lite/micro/kernels/conv.cc ****   }
 196:../src/tensorflow/lite/micro/kernels/conv.cc **** 
 197:../src/tensorflow/lite/micro/kernels/conv.cc ****   if (buf_size > 0) {
 198:../src/tensorflow/lite/micro/kernels/conv.cc ****     TF_LITE_ENSURE_STATUS(context->RequestScratchBufferInArena(
 199:../src/tensorflow/lite/micro/kernels/conv.cc ****         context, buf_size, &data->buffer_idx));
 200:../src/tensorflow/lite/micro/kernels/conv.cc ****   } else {
 201:../src/tensorflow/lite/micro/kernels/conv.cc ****     data->buffer_idx = -1;
 202:../src/tensorflow/lite/micro/kernels/conv.cc ****   }
 203:../src/tensorflow/lite/micro/kernels/conv.cc ****   return kTfLiteOk;
 204:../src/tensorflow/lite/micro/kernels/conv.cc **** }
 462                             		.loc 1 204 1
 463 0198 EF 61                   		mov.L	r6, r1
 464 019a 3F 6D 39                		rtsd	#228, r6-r13
 465                             	.LVL46:
 466                             	.L23:
 467                             	.LBB705:
 468                             	.LBB695:
 469                             	.LBB689:
  88:../src/tensorflow/lite/micro/kernels/conv.cc **** 
 470                             		.loc 1 88 3 is_stmt 1
  88:../src/tensorflow/lite/micro/kernels/conv.cc **** 
 471                             		.loc 1 88 3
 472 019d A8 6D                   		mov.L	4[r6], r5
 473 019f EC 55                   		mov.L	[r5], r5
 474 01a1 61 15                   		cmp	#1, r5
 475 01a3 3A A4 00                		beq	.L25
  88:../src/tensorflow/lite/micro/kernels/conv.cc **** 
 476                             		.loc 1 88 3
  88:../src/tensorflow/lite/micro/kernels/conv.cc **** 
 477                             		.loc 1 88 3
 478 01a6 ED 7A 05                		mov.L	20[r7], r10
 479                             	.LVL47:
 480 01a9 3E 06 01                		mov.L	#1, 24[r0]
 481                             	.LVL48:
 482 01ac A1 0D                   		mov.L	r5, 20[r0]
 483 01ae F9 02 04 68 00 00 00    		mov.L	#.LC4, 16[r0]
 484 01b5 F9 02 03 6A 00 00 00    		mov.L	#.LC5, 12[r0]
 485 01bc 3E 02 58                		mov.L	#0x58, 8[r0]
 486 01bf F9 02 01 24 00 00 00    		mov.L	#.LC2, 4[r0]
 487 01c6 EF 71                   		mov.L	r7, r1
 488 01c8 F8 02 7E 00 00 00       		mov.L	#.LC6, [r0]
 489 01ce 66 16                   		mov.L	#1, r6
 490                             	.LVL49:
 491 01d0 7F 1A                   		jsr	r10
 492                             	.LVL50:
  88:../src/tensorflow/lite/micro/kernels/conv.cc **** 
 493                             		.loc 1 88 3
 494                             	.LBE689:
 495                             	.LBE695:
 171:../src/tensorflow/lite/micro/kernels/conv.cc ****       context, node, params, input_dims.w, input_dims.h, filter_dims.w,
 496                             		.loc 1 171 3
 497 01d2 2E A6                   		bra	.L24
 498                             	.LVL51:
 499                             	.L50:
 500                             	.LBE705:
 501                             	.LBB706:
 502                             	.LBB569:
  36:C:\Users\a5116938\Desktop\e2_studio_workspace\EEMBC_final\RX65N_Cloud_Kit\src/tensorflow/lite/kernels/internal\tensor_ctypes.h ****   }
 503                             		.loc 2 36 5
 504                             	.LBB565:
 505                             	.LBB566:
 142:C:\Users\a5116938\Desktop\e2_studio_workspace\EEMBC_final\RX65N_Cloud_Kit\src/tensorflow/lite/kernels/internal\types.h **** 
 506                             		.loc 3 142 27 is_stmt 0
 507 01d4 3E 89 00                		mov.L	#0, 100[r0]
 508                             	.LVL52:
 509                             	.LBE566:
 510                             	.LBE565:
 511                             	.LBE569:
 512                             	.LBE706:
 135:../src/tensorflow/lite/micro/kernels/conv.cc **** 
 513                             		.loc 1 135 3 is_stmt 1
 514                             	.LBB707:
 515                             	.LBB589:
  35:C:\Users\a5116938\Desktop\e2_studio_workspace\EEMBC_final\RX65N_Cloud_Kit\src/tensorflow/lite/kernels/internal\tensor_ctypes.h ****     return RuntimeShape();
 516                             		.loc 2 35 3
 517 01d7 61 08                   		cmp	#0, r8
 518 01d9 3B 89 FE                		bne	.L12
 519                             	.LVL53:
 520 01dc 76 10 01 00             		.balign 8,3,4
 521                             	.L52:
  36:C:\Users\a5116938\Desktop\e2_studio_workspace\EEMBC_final\RX65N_Cloud_Kit\src/tensorflow/lite/kernels/internal\tensor_ctypes.h ****   }
 522                             		.loc 2 36 5
 523                             	.LBB585:
 524                             	.LBB586:
 142:C:\Users\a5116938\Desktop\e2_studio_workspace\EEMBC_final\RX65N_Cloud_Kit\src/tensorflow/lite/kernels/internal\types.h **** 
 525                             		.loc 3 142 27 is_stmt 0
 526 01e0 3E 83 00                		mov.L	#0, 76[r0]
 527                             	.LVL54:
 528                             	.LBE586:
 529                             	.LBE585:
 530                             	.LBE589:
 531                             	.LBE707:
 138:../src/tensorflow/lite/micro/kernels/conv.cc ****   input_dims.n = MatchingDim(input_shape, 0, output_shape, 0);
 532                             		.loc 1 138 3 is_stmt 1
 139:../src/tensorflow/lite/micro/kernels/conv.cc ****   input_dims.h = input->dims->data[1];
 533                             		.loc 1 139 3
 534                             	.LBB708:
 535                             	.LBB602:
 536                             		.loc 3 440 3
 537                             	.LBB600:
 538                             	.LBB596:
 196:C:\Users\a5116938\Desktop\e2_studio_workspace\EEMBC_final\RX65N_Cloud_Kit\src/tensorflow/lite/kernels/internal\types.h ****     TFLITE_DCHECK_LT(i, size_);
 539                             		.loc 3 196 5
 197:C:\Users\a5116938\Desktop\e2_studio_workspace\EEMBC_final\RX65N_Cloud_Kit\src/tensorflow/lite/kernels/internal\types.h ****     return size_ > kMaxSmallSize ? dims_pointer_[i] : dims_[i];
 540                             		.loc 3 197 5
 541 01e3 ED 0C 19                		mov.L	100[r0], r12
 542 01e6 61 0C                   		cmp	#0, r12
 543 01e8 2B 05 38 B1 FE          		bgt	.L53
 544                             	.LVL55:
 545 01ed FC 13 00                		.balign 8,3,3
 546                             	.L7:
 547                             	.LBE596:
 548                             	.LBE600:
 549                             	.LBE602:
 550                             	.LBE708:
 123:../src/tensorflow/lite/micro/kernels/conv.cc ****   TFLITE_DCHECK(node->builtin_data != nullptr);
 551                             		.loc 1 123 3 is_stmt 0 discriminator 1
 552 01f0 05 00 00 00             		bsr	_abort
 553                             	.LVL56:
 554                             	.L37:
 555                             	.LBB709:
 556                             	.LBB603:
 557                             	.LBB601:
 558                             	.LBB597:
 198:C:\Users\a5116938\Desktop\e2_studio_workspace\EEMBC_final\RX65N_Cloud_Kit\src/tensorflow/lite/kernels/internal\types.h ****   }
 559                             		.loc 3 198 34
 560 01f4 ED 05 2D                		mov.L	180[r0], r5
 561 01f7 38 B4 FE                		bra	.L16
 562                             	.LVL57:
 563                             	.L17:
 564                             	.LBE597:
 565                             	.LBE601:
 566                             		.loc 3 440 3
 567 01fa ED 0F 2C                		mov.L	176[r0], r15
 568 01fd 47 F5                   		cmp	r15, r5
 569 01ff 3A CB FE                		beq	.L18
 570                             	.LBE603:
 571                             	.LBE709:
 123:../src/tensorflow/lite/micro/kernels/conv.cc ****   TFLITE_DCHECK(node->builtin_data != nullptr);
 572                             		.loc 1 123 3
 573 0202 05 00 00 00             		bsr	_abort
 574                             	.LVL58:
 575                             	.L19:
 576                             	.LBB710:
 577                             	.LBB606:
 198:C:\Users\a5116938\Desktop\e2_studio_workspace\EEMBC_final\RX65N_Cloud_Kit\src/tensorflow/lite/kernels/internal\types.h ****   }
 578                             		.loc 3 198 34
 579 0206 AF 0B                   		mov.L	116[r0], r3
 580 0208 38 E8 FE                		bra	.L20
 581                             	.LVL59:
 582                             	.L21:
 583                             	.LBE606:
 584                             	.LBE710:
 585                             	.LBB711:
 586                             	.LBB609:
 587 020b ED 0E 17                		mov.L	92[r0], r14
 588                             	.LVL60:
 589                             	.LBE609:
 590                             	.LBE711:
 147:../src/tensorflow/lite/micro/kernels/conv.cc ****   filter_dims.w = filter->dims->data[2];
 591                             		.loc 1 147 17
 592 020e E7 0D 24                		mov.L	r13, 144[r0]
 148:../src/tensorflow/lite/micro/kernels/conv.cc ****   filter_dims.c = input_dims.c;
 593                             		.loc 1 148 17
 594 0211 E7 0F 25                		mov.L	r15, 148[r0]
 146:../src/tensorflow/lite/micro/kernels/conv.cc ****   filter_dims.h = filter->dims->data[1];
 595                             		.loc 1 146 17
 596 0214 E7 0E 23                		mov.L	r14, 140[r0]
 147:../src/tensorflow/lite/micro/kernels/conv.cc ****   filter_dims.w = filter->dims->data[2];
 597                             		.loc 1 147 3 is_stmt 1
 148:../src/tensorflow/lite/micro/kernels/conv.cc ****   filter_dims.c = input_dims.c;
 598                             		.loc 1 148 3
 149:../src/tensorflow/lite/micro/kernels/conv.cc **** 
 599                             		.loc 1 149 3
 149:../src/tensorflow/lite/micro/kernels/conv.cc **** 
 600                             		.loc 1 149 17 is_stmt 0
 601 0217 E7 03 26                		mov.L	r3, 152[r0]
 152:../src/tensorflow/lite/micro/kernels/conv.cc ****   output_dims.n = input_dims.n;
 602                             		.loc 1 152 3 is_stmt 1
 153:../src/tensorflow/lite/micro/kernels/conv.cc ****   output_dims.h = output->dims->data[1];
 603                             		.loc 1 153 3
 153:../src/tensorflow/lite/micro/kernels/conv.cc ****   output_dims.h = output->dims->data[1];
 604                             		.loc 1 153 17 is_stmt 0
 605 021a A7 8D                   		mov.L	r5, 124[r0]
 154:../src/tensorflow/lite/micro/kernels/conv.cc ****   output_dims.w = output->dims->data[2];
 606                             		.loc 1 154 3 is_stmt 1
 154:../src/tensorflow/lite/micro/kernels/conv.cc ****   output_dims.w = output->dims->data[2];
 607                             		.loc 1 154 17 is_stmt 0
 608 021c E7 01 20                		mov.L	r1, 128[r0]
 155:../src/tensorflow/lite/micro/kernels/conv.cc ****   output_dims.c = output_shape.Dims(3);
 609                             		.loc 1 155 3 is_stmt 1
 155:../src/tensorflow/lite/micro/kernels/conv.cc ****   output_dims.c = output_shape.Dims(3);
 610                             		.loc 1 155 17 is_stmt 0
 611 021f E7 02 21                		mov.L	r2, 132[r0]
 156:../src/tensorflow/lite/micro/kernels/conv.cc **** 
 612                             		.loc 1 156 3 is_stmt 1
 613                             	.LVL61:
 614                             	.LBB712:
 615                             	.LBB613:
 196:C:\Users\a5116938\Desktop\e2_studio_workspace\EEMBC_final\RX65N_Cloud_Kit\src/tensorflow/lite/kernels/internal\types.h ****     TFLITE_DCHECK_LT(i, size_);
 616                             		.loc 3 196 5
 197:C:\Users\a5116938\Desktop\e2_studio_workspace\EEMBC_final\RX65N_Cloud_Kit\src/tensorflow/lite/kernels/internal\types.h ****     return size_ > kMaxSmallSize ? dims_pointer_[i] : dims_[i];
 617                             		.loc 3 197 5
 198:C:\Users\a5116938\Desktop\e2_studio_workspace\EEMBC_final\RX65N_Cloud_Kit\src/tensorflow/lite/kernels/internal\types.h ****   }
 618                             		.loc 3 198 5
 619 0222 38 0E FF                		bra	.L22
 620                             	.LVL62:
 621                             	.L35:
 622                             	.LBE613:
 623                             	.LBE712:
 624                             	.LBB713:
 625                             	.LBB590:
 626                             	.LBB587:
 627                             	.LBB584:
 628                             	.LBB583:
 629                             	.LBB582:
 630                             	.LBB581:
 211:C:\Users\a5116938\Desktop\e2_studio_workspace\EEMBC_final\RX65N_Cloud_Kit\src/tensorflow/lite/kernels/internal\types.h ****   }
 631                             		.loc 3 211 34 is_stmt 0
 632 0225 71 01 50                		add	#0x50, r0, r1
 633                             	.LVL63:
 634 0228 38 64 FE                		bra	.L14
 635                             	.LVL64:
 636                             	.L51:
 637                             	.LBE581:
 638                             	.LBE582:
 639                             	.LBE583:
 640                             	.LBE584:
 641                             	.LBE587:
 642                             	.LBE590:
 643                             	.LBE713:
 644                             	.LBB714:
 645                             	.LBB570:
 646                             	.LBB567:
 647                             	.LBB564:
 648                             	.LBB563:
 649                             	.LBB561:
 650                             	.LBB557:
 232:C:\Users\a5116938\Desktop\e2_studio_workspace\EEMBC_final\RX65N_Cloud_Kit\src/tensorflow/lite/kernels/internal\types.h **** #endif  // TF_LITE_STATIC_MEMORY
 651                             		.loc 3 232 7 is_stmt 1
 232:C:\Users\a5116938\Desktop\e2_studio_workspace\EEMBC_final\RX65N_Cloud_Kit\src/tensorflow/lite/kernels/internal\types.h **** #endif  // TF_LITE_STATIC_MEMORY
 652                             		.loc 3 232 51 is_stmt 0
 653 022b 74 01 FF FF FF 1F       		cmp	#0x1fffffff, r1
 654 0231 EF 31                   		mov.L	r3, r1
 655                             	.LVL65:
 656 0233 2B 05                   		ble 1f
 657 0235 FB 16 FF                		mov #-1, r1
 658                             	1:
 659 0238 E7 03 30                		mov.L	r3, 192[r0]
 660 023b 05 00 00 00             		bsr	__Znam
 661                             	.LVL66:
 232:C:\Users\a5116938\Desktop\e2_studio_workspace\EEMBC_final\RX65N_Cloud_Kit\src/tensorflow/lite/kernels/internal\types.h **** #endif  // TF_LITE_STATIC_MEMORY
 662                             		.loc 3 232 21
 663 023f A6 81                   		mov.L	r1, 104[r0]
 664                             	.LBE557:
 665                             	.LBE561:
 239:C:\Users\a5116938\Desktop\e2_studio_workspace\EEMBC_final\RX65N_Cloud_Kit\src/tensorflow/lite/kernels/internal\types.h ****     std::memcpy(dst_dims, dims_data, dimensions_count * sizeof(int32_t));
 666                             		.loc 3 239 5 is_stmt 1
 667                             	.LVL67:
 668                             	.LBB562:
 669                             	.LBB560:
 211:C:\Users\a5116938\Desktop\e2_studio_workspace\EEMBC_final\RX65N_Cloud_Kit\src/tensorflow/lite/kernels/internal\types.h ****   }
 670                             		.loc 3 211 5
 671 0241 ED 03 30                		mov.L	192[r0], r3
 672 0244 38 14 FE                		bra	.L10
 673                             	.LVL68:
 674                             	.L25:
 675                             	.LBE560:
 676                             	.LBE562:
 677                             	.LBE563:
 678                             	.LBE564:
 679                             	.LBE567:
 680                             	.LBE570:
 681                             	.LBE714:
 682                             	.LBB715:
 683                             	.LBB696:
 684                             	.LBB690:
 685                             	.LBB618:
 686                             	.LBB619:
 687                             	.LBB620:
 688                             	.LBB621:
 689                             		.file 4 "C:\\Users\\a5116938\\Desktop\\e2_studio_workspace\\EEMBC_final\\RX65N_Cloud_Kit\\src/tens
   1:C:\Users\a5116938\Desktop\e2_studio_workspace\EEMBC_final\RX65N_Cloud_Kit\src/tensorflow/lite/kernels\padding.h **** /* Copyright 2017 The TensorFlow Authors. All Rights Reserved.
   2:C:\Users\a5116938\Desktop\e2_studio_workspace\EEMBC_final\RX65N_Cloud_Kit\src/tensorflow/lite/kernels\padding.h **** 
   3:C:\Users\a5116938\Desktop\e2_studio_workspace\EEMBC_final\RX65N_Cloud_Kit\src/tensorflow/lite/kernels\padding.h **** Licensed under the Apache License, Version 2.0 (the "License");
   4:C:\Users\a5116938\Desktop\e2_studio_workspace\EEMBC_final\RX65N_Cloud_Kit\src/tensorflow/lite/kernels\padding.h **** you may not use this file except in compliance with the License.
   5:C:\Users\a5116938\Desktop\e2_studio_workspace\EEMBC_final\RX65N_Cloud_Kit\src/tensorflow/lite/kernels\padding.h **** You may obtain a copy of the License at
   6:C:\Users\a5116938\Desktop\e2_studio_workspace\EEMBC_final\RX65N_Cloud_Kit\src/tensorflow/lite/kernels\padding.h **** 
   7:C:\Users\a5116938\Desktop\e2_studio_workspace\EEMBC_final\RX65N_Cloud_Kit\src/tensorflow/lite/kernels\padding.h ****     http://www.apache.org/licenses/LICENSE-2.0
   8:C:\Users\a5116938\Desktop\e2_studio_workspace\EEMBC_final\RX65N_Cloud_Kit\src/tensorflow/lite/kernels\padding.h **** 
   9:C:\Users\a5116938\Desktop\e2_studio_workspace\EEMBC_final\RX65N_Cloud_Kit\src/tensorflow/lite/kernels\padding.h **** Unless required by applicable law or agreed to in writing, software
  10:C:\Users\a5116938\Desktop\e2_studio_workspace\EEMBC_final\RX65N_Cloud_Kit\src/tensorflow/lite/kernels\padding.h **** distributed under the License is distributed on an "AS IS" BASIS,
  11:C:\Users\a5116938\Desktop\e2_studio_workspace\EEMBC_final\RX65N_Cloud_Kit\src/tensorflow/lite/kernels\padding.h **** WITHOUT WARRANTIES OR CONDITIONS OF ANY KIND, either express or implied.
  12:C:\Users\a5116938\Desktop\e2_studio_workspace\EEMBC_final\RX65N_Cloud_Kit\src/tensorflow/lite/kernels\padding.h **** See the License for the specific language governing permissions and
  13:C:\Users\a5116938\Desktop\e2_studio_workspace\EEMBC_final\RX65N_Cloud_Kit\src/tensorflow/lite/kernels\padding.h **** limitations under the License.
  14:C:\Users\a5116938\Desktop\e2_studio_workspace\EEMBC_final\RX65N_Cloud_Kit\src/tensorflow/lite/kernels\padding.h **** ==============================================================================*/
  15:C:\Users\a5116938\Desktop\e2_studio_workspace\EEMBC_final\RX65N_Cloud_Kit\src/tensorflow/lite/kernels\padding.h **** #ifndef TENSORFLOW_LITE_KERNELS_PADDING_H_
  16:C:\Users\a5116938\Desktop\e2_studio_workspace\EEMBC_final\RX65N_Cloud_Kit\src/tensorflow/lite/kernels\padding.h **** #define TENSORFLOW_LITE_KERNELS_PADDING_H_
  17:C:\Users\a5116938\Desktop\e2_studio_workspace\EEMBC_final\RX65N_Cloud_Kit\src/tensorflow/lite/kernels\padding.h **** 
  18:C:\Users\a5116938\Desktop\e2_studio_workspace\EEMBC_final\RX65N_Cloud_Kit\src/tensorflow/lite/kernels\padding.h **** #include "tensorflow/lite/c/builtin_op_data.h"
  19:C:\Users\a5116938\Desktop\e2_studio_workspace\EEMBC_final\RX65N_Cloud_Kit\src/tensorflow/lite/kernels\padding.h **** 
  20:C:\Users\a5116938\Desktop\e2_studio_workspace\EEMBC_final\RX65N_Cloud_Kit\src/tensorflow/lite/kernels\padding.h **** namespace tflite {
  21:C:\Users\a5116938\Desktop\e2_studio_workspace\EEMBC_final\RX65N_Cloud_Kit\src/tensorflow/lite/kernels\padding.h **** 
  22:C:\Users\a5116938\Desktop\e2_studio_workspace\EEMBC_final\RX65N_Cloud_Kit\src/tensorflow/lite/kernels\padding.h **** // TODO(renjieliu): Migrate others to use ComputePaddingWithLeftover.
  23:C:\Users\a5116938\Desktop\e2_studio_workspace\EEMBC_final\RX65N_Cloud_Kit\src/tensorflow/lite/kernels\padding.h **** inline int ComputePadding(int stride, int dilation_rate, int in_size,
  24:C:\Users\a5116938\Desktop\e2_studio_workspace\EEMBC_final\RX65N_Cloud_Kit\src/tensorflow/lite/kernels\padding.h ****                           int filter_size, int out_size) {
  25:C:\Users\a5116938\Desktop\e2_studio_workspace\EEMBC_final\RX65N_Cloud_Kit\src/tensorflow/lite/kernels\padding.h ****   int effective_filter_size = (filter_size - 1) * dilation_rate + 1;
  26:C:\Users\a5116938\Desktop\e2_studio_workspace\EEMBC_final\RX65N_Cloud_Kit\src/tensorflow/lite/kernels\padding.h ****   int padding = ((out_size - 1) * stride + effective_filter_size - in_size) / 2;
  27:C:\Users\a5116938\Desktop\e2_studio_workspace\EEMBC_final\RX65N_Cloud_Kit\src/tensorflow/lite/kernels\padding.h ****   return padding > 0 ? padding : 0;
  28:C:\Users\a5116938\Desktop\e2_studio_workspace\EEMBC_final\RX65N_Cloud_Kit\src/tensorflow/lite/kernels\padding.h **** }
  29:C:\Users\a5116938\Desktop\e2_studio_workspace\EEMBC_final\RX65N_Cloud_Kit\src/tensorflow/lite/kernels\padding.h **** 
  30:C:\Users\a5116938\Desktop\e2_studio_workspace\EEMBC_final\RX65N_Cloud_Kit\src/tensorflow/lite/kernels\padding.h **** // It's not guaranteed that padding is symmetric. It's important to keep
  31:C:\Users\a5116938\Desktop\e2_studio_workspace\EEMBC_final\RX65N_Cloud_Kit\src/tensorflow/lite/kernels\padding.h **** // offset for algorithms need all paddings.
  32:C:\Users\a5116938\Desktop\e2_studio_workspace\EEMBC_final\RX65N_Cloud_Kit\src/tensorflow/lite/kernels\padding.h **** inline int ComputePaddingWithOffset(int stride, int dilation_rate, int in_size,
  33:C:\Users\a5116938\Desktop\e2_studio_workspace\EEMBC_final\RX65N_Cloud_Kit\src/tensorflow/lite/kernels\padding.h ****                                     int filter_size, int out_size,
  34:C:\Users\a5116938\Desktop\e2_studio_workspace\EEMBC_final\RX65N_Cloud_Kit\src/tensorflow/lite/kernels\padding.h ****                                     int* offset) {
  35:C:\Users\a5116938\Desktop\e2_studio_workspace\EEMBC_final\RX65N_Cloud_Kit\src/tensorflow/lite/kernels\padding.h ****   int effective_filter_size = (filter_size - 1) * dilation_rate + 1;
  36:C:\Users\a5116938\Desktop\e2_studio_workspace\EEMBC_final\RX65N_Cloud_Kit\src/tensorflow/lite/kernels\padding.h ****   int total_padding =
  37:C:\Users\a5116938\Desktop\e2_studio_workspace\EEMBC_final\RX65N_Cloud_Kit\src/tensorflow/lite/kernels\padding.h ****       ((out_size - 1) * stride + effective_filter_size - in_size);
  38:C:\Users\a5116938\Desktop\e2_studio_workspace\EEMBC_final\RX65N_Cloud_Kit\src/tensorflow/lite/kernels\padding.h ****   total_padding = total_padding > 0 ? total_padding : 0;
  39:C:\Users\a5116938\Desktop\e2_studio_workspace\EEMBC_final\RX65N_Cloud_Kit\src/tensorflow/lite/kernels\padding.h ****   *offset = total_padding % 2;
  40:C:\Users\a5116938\Desktop\e2_studio_workspace\EEMBC_final\RX65N_Cloud_Kit\src/tensorflow/lite/kernels\padding.h ****   return total_padding / 2;
  41:C:\Users\a5116938\Desktop\e2_studio_workspace\EEMBC_final\RX65N_Cloud_Kit\src/tensorflow/lite/kernels\padding.h **** }
  42:C:\Users\a5116938\Desktop\e2_studio_workspace\EEMBC_final\RX65N_Cloud_Kit\src/tensorflow/lite/kernels\padding.h **** 
  43:C:\Users\a5116938\Desktop\e2_studio_workspace\EEMBC_final\RX65N_Cloud_Kit\src/tensorflow/lite/kernels\padding.h **** // Matching GetWindowedOutputSize in TensorFlow.
  44:C:\Users\a5116938\Desktop\e2_studio_workspace\EEMBC_final\RX65N_Cloud_Kit\src/tensorflow/lite/kernels\padding.h **** inline int ComputeOutSize(TfLitePadding padding, int image_size,
  45:C:\Users\a5116938\Desktop\e2_studio_workspace\EEMBC_final\RX65N_Cloud_Kit\src/tensorflow/lite/kernels\padding.h ****                           int filter_size, int stride, int dilation_rate = 1) {
  46:C:\Users\a5116938\Desktop\e2_studio_workspace\EEMBC_final\RX65N_Cloud_Kit\src/tensorflow/lite/kernels\padding.h ****   int effective_filter_size = (filter_size - 1) * dilation_rate + 1;
 690                             		.loc 4 46 49 is_stmt 0
 691 0247 ED 05 2B                		mov.L	172[r0], r5
 692 024a A9 53                   		mov.L	16[r5], r3
 693 024c A9 59                   		mov.L	20[r5], r1
 694                             		.loc 4 46 44
 695 024e ED 04 25                		mov.L	148[r0], r4
 696 0251 60 14                   		sub	#1, r4
 697 0253 ED 05 24                		mov.L	144[r0], r5
 698 0256 60 15                   		sub	#1, r5
 699                             	.LBE621:
 700                             	.LBE620:
 701                             	.LBE619:
 702                             	.LBE618:
  91:../src/tensorflow/lite/micro/kernels/conv.cc ****   data->padding = ComputePaddingHeightWidth(
 703                             		.loc 1 91 8
 704 0258 ED 0D 2B                		mov.L	172[r0], r13
 705 025b EC D2                   		mov.L	[r13], r2
 706                             	.LBB680:
 707                             	.LBB676:
 708                             	.LBB631:
 709                             	.LBB622:
 710                             		.loc 4 46 49
 711 025d 4F 34                   		mul	r3, r4
 712 025f 4F 15                   		mul	r1, r5
 713                             	.LBE622:
 714                             	.LBE631:
 715                             	.LBE676:
 716                             	.LBE680:
 717                             	.LBE690:
 718                             	.LBE696:
 171:../src/tensorflow/lite/micro/kernels/conv.cc ****       context, node, params, input_dims.w, input_dims.h, filter_dims.w,
 719                             		.loc 1 171 3
 720 0261 ED 0E 29                		mov.L	164[r0], r14
 721 0264 ED 0D 28                		mov.L	160[r0], r13
 722                             	.LBB697:
 723                             	.LBB691:
  91:../src/tensorflow/lite/micro/kernels/conv.cc ****   data->padding = ComputePaddingHeightWidth(
 724                             		.loc 1 91 3 is_stmt 1
 725                             	.LVL69:
  92:../src/tensorflow/lite/micro/kernels/conv.cc ****       params->stride_height, params->stride_width,
 726                             		.loc 1 92 3
  93:../src/tensorflow/lite/micro/kernels/conv.cc ****       params->dilation_height_factor, params->dilation_width_factor, height,
 727                             		.loc 1 93 15 is_stmt 0
 728 0267 ED 0F 2B                		mov.L	172[r0], r15
 729 026a ED F3 02                		mov.L	8[r15], r3
  93:../src/tensorflow/lite/micro/kernels/conv.cc ****       params->dilation_height_factor, params->dilation_width_factor, height,
 730                             		.loc 1 93 38
 731 026d ED F1 01                		mov.L	4[r15], r1
 732                             	.LVL70:
 733                             	.LBB681:
 734                             	.LBB677:
  47:C:\Users\a5116938\Desktop\e2_studio_workspace\EEMBC_final\RX65N_Cloud_Kit\src/tensorflow/lite/kernels\padding.h ****   switch (padding) {
  48:C:\Users\a5116938\Desktop\e2_studio_workspace\EEMBC_final\RX65N_Cloud_Kit\src/tensorflow/lite/kernels\padding.h ****     case kTfLitePaddingSame:
  49:C:\Users\a5116938\Desktop\e2_studio_workspace\EEMBC_final\RX65N_Cloud_Kit\src/tensorflow/lite/kernels\padding.h ****       return (image_size + stride - 1) / stride;
  50:C:\Users\a5116938\Desktop\e2_studio_workspace\EEMBC_final\RX65N_Cloud_Kit\src/tensorflow/lite/kernels\padding.h ****     case kTfLitePaddingValid:
  51:C:\Users\a5116938\Desktop\e2_studio_workspace\EEMBC_final\RX65N_Cloud_Kit\src/tensorflow/lite/kernels\padding.h ****       return (image_size + stride - effective_filter_size) / stride;
  52:C:\Users\a5116938\Desktop\e2_studio_workspace\EEMBC_final\RX65N_Cloud_Kit\src/tensorflow/lite/kernels\padding.h ****     default:
  53:C:\Users\a5116938\Desktop\e2_studio_workspace\EEMBC_final\RX65N_Cloud_Kit\src/tensorflow/lite/kernels\padding.h ****       return 0;
  54:C:\Users\a5116938\Desktop\e2_studio_workspace\EEMBC_final\RX65N_Cloud_Kit\src/tensorflow/lite/kernels\padding.h ****   }
  55:C:\Users\a5116938\Desktop\e2_studio_workspace\EEMBC_final\RX65N_Cloud_Kit\src/tensorflow/lite/kernels\padding.h **** }
  56:C:\Users\a5116938\Desktop\e2_studio_workspace\EEMBC_final\RX65N_Cloud_Kit\src/tensorflow/lite/kernels\padding.h **** 
  57:C:\Users\a5116938\Desktop\e2_studio_workspace\EEMBC_final\RX65N_Cloud_Kit\src/tensorflow/lite/kernels\padding.h **** inline TfLitePaddingValues ComputePaddingHeightWidth(
  58:C:\Users\a5116938\Desktop\e2_studio_workspace\EEMBC_final\RX65N_Cloud_Kit\src/tensorflow/lite/kernels\padding.h ****     int stride_height, int stride_width, int dilation_rate_height,
  59:C:\Users\a5116938\Desktop\e2_studio_workspace\EEMBC_final\RX65N_Cloud_Kit\src/tensorflow/lite/kernels\padding.h ****     int dilation_rate_width, int in_height, int in_width, int filter_height,
  60:C:\Users\a5116938\Desktop\e2_studio_workspace\EEMBC_final\RX65N_Cloud_Kit\src/tensorflow/lite/kernels\padding.h ****     int filter_width, TfLitePadding padding, int* out_height, int* out_width) {
  61:C:\Users\a5116938\Desktop\e2_studio_workspace\EEMBC_final\RX65N_Cloud_Kit\src/tensorflow/lite/kernels\padding.h ****   *out_width = ComputeOutSize(padding, in_width, filter_width, stride_width,
 735                             		.loc 4 61 3 is_stmt 1
 736                             	.LBB632:
 737                             	.LBB623:
  46:C:\Users\a5116938\Desktop\e2_studio_workspace\EEMBC_final\RX65N_Cloud_Kit\src/tensorflow/lite/kernels\padding.h ****   switch (padding) {
 738                             		.loc 4 46 3
  46:C:\Users\a5116938\Desktop\e2_studio_workspace\EEMBC_final\RX65N_Cloud_Kit\src/tensorflow/lite/kernels\padding.h ****   switch (padding) {
 739                             		.loc 4 46 7 is_stmt 0
 740 0270 62 14                   		add	#1, r4
 741 0272 E7 04 2F                		mov.L	r4, 188[r0]
 742                             	.LVL71:
  47:C:\Users\a5116938\Desktop\e2_studio_workspace\EEMBC_final\RX65N_Cloud_Kit\src/tensorflow/lite/kernels\padding.h ****   switch (padding) {
 743                             		.loc 4 47 3 is_stmt 1
 744 0275 71 5F 01                		add	#1, r5, r15
 745                             	.LVL72:
 746 0278 61 12                   		cmp	#1, r2
 747 027a 3A 50 01                		beq	.L26
 748 027d 61 22                   		cmp	#2, r2
 749 027f 3B 43 01                		bne	.L54
 750 0282 EF 42                   		mov.L	r4, r2
 751                             	.LVL73:
  50:C:\Users\a5116938\Desktop\e2_studio_workspace\EEMBC_final\RX65N_Cloud_Kit\src/tensorflow/lite/kernels\padding.h ****       return (image_size + stride - effective_filter_size) / stride;
 752                             		.loc 4 50 5
  51:C:\Users\a5116938\Desktop\e2_studio_workspace\EEMBC_final\RX65N_Cloud_Kit\src/tensorflow/lite/kernels\padding.h ****     default:
 753                             		.loc 4 51 7
 754                             	.LBE623:
 755                             	.LBE632:
  62:C:\Users\a5116938\Desktop\e2_studio_workspace\EEMBC_final\RX65N_Cloud_Kit\src/tensorflow/lite/kernels\padding.h ****                               dilation_rate_width);
  63:C:\Users\a5116938\Desktop\e2_studio_workspace\EEMBC_final\RX65N_Cloud_Kit\src/tensorflow/lite/kernels\padding.h ****   *out_height = ComputeOutSize(padding, in_height, filter_height, stride_height,
 756                             		.loc 4 63 3
 757                             	.LBB633:
 758                             	.LBB634:
  46:C:\Users\a5116938\Desktop\e2_studio_workspace\EEMBC_final\RX65N_Cloud_Kit\src/tensorflow/lite/kernels\padding.h ****   switch (padding) {
 759                             		.loc 4 46 3
  47:C:\Users\a5116938\Desktop\e2_studio_workspace\EEMBC_final\RX65N_Cloud_Kit\src/tensorflow/lite/kernels\padding.h ****     case kTfLitePaddingSame:
 760                             		.loc 4 47 3
  50:C:\Users\a5116938\Desktop\e2_studio_workspace\EEMBC_final\RX65N_Cloud_Kit\src/tensorflow/lite/kernels\padding.h ****       return (image_size + stride - effective_filter_size) / stride;
 761                             		.loc 4 50 5
  51:C:\Users\a5116938\Desktop\e2_studio_workspace\EEMBC_final\RX65N_Cloud_Kit\src/tensorflow/lite/kernels\padding.h ****     default:
 762                             		.loc 4 51 7
  51:C:\Users\a5116938\Desktop\e2_studio_workspace\EEMBC_final\RX65N_Cloud_Kit\src/tensorflow/lite/kernels\padding.h ****     default:
 763                             		.loc 4 51 26 is_stmt 0
 764 0284 FF 25 3D                		add	r3, r13, r5
 765                             	.LBE634:
 766                             	.LBE633:
 767                             	.LBB640:
 768                             	.LBB624:
 769 0287 FF 24 1E                		add	r1, r14, r4
 770                             	.LVL74:
 771                             	.LBE624:
 772                             	.LBE640:
 773                             	.LBB641:
 774                             	.LBB635:
  51:C:\Users\a5116938\Desktop\e2_studio_workspace\EEMBC_final\RX65N_Cloud_Kit\src/tensorflow/lite/kernels\padding.h ****     default:
 775                             		.loc 4 51 35
 776 028a 43 F5                   		sub	r15, r5
 777                             	.LBE635:
 778                             	.LBE641:
 779                             	.LBB642:
 780                             	.LBB625:
 781 028c 43 24                   		sub	r2, r4
 782                             	.LBE625:
 783                             	.LBE642:
 784                             	.LBB643:
 785                             	.LBB636:
  51:C:\Users\a5116938\Desktop\e2_studio_workspace\EEMBC_final\RX65N_Cloud_Kit\src/tensorflow/lite/kernels\padding.h ****     default:
 786                             		.loc 4 51 62
 787 028e FC 23 35                		div	r3, r5
 788                             	.LBE636:
 789                             	.LBE643:
 790                             	.LBB644:
 791                             	.LBB626:
 792 0291 FC 23 14                		div	r1, r4
 793                             	.LVL75:
 794 0294 60 15                   		sub	#1, r5
 795 0296 60 14                   		sub	#1, r4
 796                             	.LVL76:
 797                             		.balign 8,3,1
 798                             	.L28:
 799                             	.LBE626:
 800                             	.LBE644:
 801                             	.LBB645:
 802                             	.LBB646:
  37:C:\Users\a5116938\Desktop\e2_studio_workspace\EEMBC_final\RX65N_Cloud_Kit\src/tensorflow/lite/kernels\padding.h ****   total_padding = total_padding > 0 ? total_padding : 0;
 803                             		.loc 4 37 23
 804 0298 4F 53                   		mul	r5, r3
 805                             	.LVL77:
 806                             	.LBE646:
 807                             	.LBE645:
 808                             	.LBB652:
 809                             	.LBB653:
 810 029a 4F 14                   		mul	r1, r4
 811                             	.LBE653:
 812                             	.LBE652:
 813                             	.LBB659:
 814                             	.LBB647:
  37:C:\Users\a5116938\Desktop\e2_studio_workspace\EEMBC_final\RX65N_Cloud_Kit\src/tensorflow/lite/kernels\padding.h ****   total_padding = total_padding > 0 ? total_padding : 0;
 815                             		.loc 4 37 32
 816 029c 4B F3                   		add	r15, r3
 817                             	.LBE647:
 818                             	.LBE659:
 819                             	.LBB660:
 820                             	.LBB654:
 821 029e 06 89 04 2F             		add	188[r0], r4
 822                             	.LBE654:
 823                             	.LBE660:
 824                             	.LBB661:
 825                             	.LBB648:
  36:C:\Users\a5116938\Desktop\e2_studio_workspace\EEMBC_final\RX65N_Cloud_Kit\src/tensorflow/lite/kernels\padding.h ****       ((out_size - 1) * stride + effective_filter_size - in_size);
 826                             		.loc 4 36 7
 827 02a2 FF 05 D3                		sub	r13, r3, r5
  38:C:\Users\a5116938\Desktop\e2_studio_workspace\EEMBC_final\RX65N_Cloud_Kit\src/tensorflow/lite/kernels\padding.h ****   *offset = total_padding % 2;
 828                             		.loc 4 38 17
 829 02a5 FD 74 45 00             		max	#0, r5
 830                             	.LBE648:
 831                             	.LBE661:
 832                             	.LBB662:
 833                             	.LBB655:
  36:C:\Users\a5116938\Desktop\e2_studio_workspace\EEMBC_final\RX65N_Cloud_Kit\src/tensorflow/lite/kernels\padding.h ****       ((out_size - 1) * stride + effective_filter_size - in_size);
 834                             		.loc 4 36 7
 835 02a9 43 E4                   		sub	r14, r4
  38:C:\Users\a5116938\Desktop\e2_studio_workspace\EEMBC_final\RX65N_Cloud_Kit\src/tensorflow/lite/kernels\padding.h ****   *offset = total_padding % 2;
 836                             		.loc 4 38 17
 837 02ab FD 74 44 00             		max	#0, r4
 838                             	.LBE655:
 839                             	.LBE662:
 840                             	.LBE677:
 841                             	.LBE681:
 842                             	.LBE691:
 843                             	.LBE697:
 171:../src/tensorflow/lite/micro/kernels/conv.cc ****       context, node, params, input_dims.w, input_dims.h, filter_dims.w,
 844                             		.loc 1 171 3
 845 02af EC 93                   		mov.L	[r9], r3
 846                             	.LVL78:
 847                             	.LBB698:
 848                             	.LBB692:
 849                             	.LBB682:
 850                             	.LBB678:
  64:C:\Users\a5116938\Desktop\e2_studio_workspace\EEMBC_final\RX65N_Cloud_Kit\src/tensorflow/lite/kernels\padding.h ****                                dilation_rate_height);
  65:C:\Users\a5116938\Desktop\e2_studio_workspace\EEMBC_final\RX65N_Cloud_Kit\src/tensorflow/lite/kernels\padding.h **** 
  66:C:\Users\a5116938\Desktop\e2_studio_workspace\EEMBC_final\RX65N_Cloud_Kit\src/tensorflow/lite/kernels\padding.h ****   TfLitePaddingValues padding_values;
 851                             		.loc 4 66 3 is_stmt 1
  67:C:\Users\a5116938\Desktop\e2_studio_workspace\EEMBC_final\RX65N_Cloud_Kit\src/tensorflow/lite/kernels\padding.h ****   int offset = 0;
 852                             		.loc 4 67 3
  68:C:\Users\a5116938\Desktop\e2_studio_workspace\EEMBC_final\RX65N_Cloud_Kit\src/tensorflow/lite/kernels\padding.h ****   padding_values.height =
 853                             		.loc 4 68 3
 854                             	.LBB663:
 855                             	.LBB649:
  35:C:\Users\a5116938\Desktop\e2_studio_workspace\EEMBC_final\RX65N_Cloud_Kit\src/tensorflow/lite/kernels\padding.h ****   int total_padding =
 856                             		.loc 4 35 3
  36:C:\Users\a5116938\Desktop\e2_studio_workspace\EEMBC_final\RX65N_Cloud_Kit\src/tensorflow/lite/kernels\padding.h ****       ((out_size - 1) * stride + effective_filter_size - in_size);
 857                             		.loc 4 36 3
  38:C:\Users\a5116938\Desktop\e2_studio_workspace\EEMBC_final\RX65N_Cloud_Kit\src/tensorflow/lite/kernels\padding.h ****   *offset = total_padding % 2;
 858                             		.loc 4 38 3
  39:C:\Users\a5116938\Desktop\e2_studio_workspace\EEMBC_final\RX65N_Cloud_Kit\src/tensorflow/lite/kernels\padding.h ****   return total_padding / 2;
 859                             		.loc 4 39 3
  40:C:\Users\a5116938\Desktop\e2_studio_workspace\EEMBC_final\RX65N_Cloud_Kit\src/tensorflow/lite/kernels\padding.h **** }
 860                             		.loc 4 40 3
 861                             	.LBE649:
 862                             	.LBE663:
  69:C:\Users\a5116938\Desktop\e2_studio_workspace\EEMBC_final\RX65N_Cloud_Kit\src/tensorflow/lite/kernels\padding.h ****       ComputePaddingWithOffset(stride_height, dilation_rate_height, in_height,
  70:C:\Users\a5116938\Desktop\e2_studio_workspace\EEMBC_final\RX65N_Cloud_Kit\src/tensorflow/lite/kernels\padding.h ****                                filter_height, *out_height, &offset);
  71:C:\Users\a5116938\Desktop\e2_studio_workspace\EEMBC_final\RX65N_Cloud_Kit\src/tensorflow/lite/kernels\padding.h ****   padding_values.height_offset = offset;
 863                             		.loc 4 71 3
  72:C:\Users\a5116938\Desktop\e2_studio_workspace\EEMBC_final\RX65N_Cloud_Kit\src/tensorflow/lite/kernels\padding.h ****   padding_values.width =
 864                             		.loc 4 72 3
 865                             	.LBB664:
 866                             	.LBB656:
  35:C:\Users\a5116938\Desktop\e2_studio_workspace\EEMBC_final\RX65N_Cloud_Kit\src/tensorflow/lite/kernels\padding.h ****   int total_padding =
 867                             		.loc 4 35 3
  36:C:\Users\a5116938\Desktop\e2_studio_workspace\EEMBC_final\RX65N_Cloud_Kit\src/tensorflow/lite/kernels\padding.h ****       ((out_size - 1) * stride + effective_filter_size - in_size);
 868                             		.loc 4 36 3
  38:C:\Users\a5116938\Desktop\e2_studio_workspace\EEMBC_final\RX65N_Cloud_Kit\src/tensorflow/lite/kernels\padding.h ****   *offset = total_padding % 2;
 869                             		.loc 4 38 3
  39:C:\Users\a5116938\Desktop\e2_studio_workspace\EEMBC_final\RX65N_Cloud_Kit\src/tensorflow/lite/kernels\padding.h ****   return total_padding / 2;
 870                             		.loc 4 39 3
  40:C:\Users\a5116938\Desktop\e2_studio_workspace\EEMBC_final\RX65N_Cloud_Kit\src/tensorflow/lite/kernels\padding.h **** }
 871                             		.loc 4 40 3
 872                             	.LBE656:
 873                             	.LBE664:
  73:C:\Users\a5116938\Desktop\e2_studio_workspace\EEMBC_final\RX65N_Cloud_Kit\src/tensorflow/lite/kernels\padding.h ****       ComputePaddingWithOffset(stride_width, dilation_rate_width, in_width,
  74:C:\Users\a5116938\Desktop\e2_studio_workspace\EEMBC_final\RX65N_Cloud_Kit\src/tensorflow/lite/kernels\padding.h ****                                filter_width, *out_width, &offset);
  75:C:\Users\a5116938\Desktop\e2_studio_workspace\EEMBC_final\RX65N_Cloud_Kit\src/tensorflow/lite/kernels\padding.h ****   padding_values.width_offset = offset;
 874                             		.loc 4 75 3
  76:C:\Users\a5116938\Desktop\e2_studio_workspace\EEMBC_final\RX65N_Cloud_Kit\src/tensorflow/lite/kernels\padding.h ****   return padding_values;
 875                             		.loc 4 76 3
 876                             	.LBB665:
 877                             	.LBB657:
  40:C:\Users\a5116938\Desktop\e2_studio_workspace\EEMBC_final\RX65N_Cloud_Kit\src/tensorflow/lite/kernels\padding.h **** }
 878                             		.loc 4 40 26 is_stmt 0
 879 02b1 FD A1 41                		shar	#1, r4, r1
 880                             	.LBE657:
 881                             	.LBE665:
 882                             	.LBB666:
 883                             	.LBB650:
 884 02b4 FD A1 52                		shar	#1, r5, r2
 885                             	.LBE650:
 886                             	.LBE666:
 887                             	.LBB667:
 888                             	.LBB658:
  39:C:\Users\a5116938\Desktop\e2_studio_workspace\EEMBC_final\RX65N_Cloud_Kit\src/tensorflow/lite/kernels\padding.h ****   return total_padding / 2;
 889                             		.loc 4 39 27
 890 02b7 64 14                   		and #1, r4
 891                             	.LBE658:
 892                             	.LBE667:
 893                             	.LBB668:
 894                             	.LBB651:
 895 02b9 64 15                   		and #1, r5
 896                             	.LBE651:
 897                             	.LBE668:
 898                             	.LBE678:
 899                             	.LBE682:
  95:../src/tensorflow/lite/micro/kernels/conv.cc **** 
 900                             		.loc 1 95 75
 901 02bb E3 A1                   		mov.L	r1, [r10]
 902 02bd E7 A2 01                		mov.L	r2, 4[r10]
 903 02c0 E7 A4 02                		mov.L	r4, 8[r10]
 904 02c3 E7 A5 03                		mov.L	r5, 12[r10]
  99:../src/tensorflow/lite/micro/kernels/conv.cc ****     const TfLiteTensor* input = GetInput(context, node, kInputTensor);
 905                             		.loc 1 99 3 is_stmt 1
 906                             	.LBB683:
 907 02c6 61 13                   		cmp	#1, r3
 908 02c8 3A E9 00                		beq	.L29
 909                             	.LBB684:
 100:../src/tensorflow/lite/micro/kernels/conv.cc ****     const TfLiteTensor* filter = GetInput(context, node, kFilterTensor);
 910                             		.loc 1 100 5
 100:../src/tensorflow/lite/micro/kernels/conv.cc ****     const TfLiteTensor* filter = GetInput(context, node, kFilterTensor);
 911                             		.loc 1 100 41 is_stmt 0
 912 02cb 66 03                   		mov.L	#0, r3
 913 02cd EF 62                   		mov.L	r6, r2
 914 02cf EF 71                   		mov.L	r7, r1
 915 02d1 05 00 00 00             		bsr	__ZN6tflite8GetInputEPK13TfLiteContextPK10TfLiteNodei
 916                             	.LVL79:
 917 02d5 E7 01 2F                		mov.L	r1, 188[r0]
 918                             	.LVL80:
 101:../src/tensorflow/lite/micro/kernels/conv.cc ****     const TfLiteTensor* bias =
 919                             		.loc 1 101 5 is_stmt 1
 101:../src/tensorflow/lite/micro/kernels/conv.cc ****     const TfLiteTensor* bias =
 920                             		.loc 1 101 42 is_stmt 0
 921 02d8 66 13                   		mov.L	#1, r3
 922 02da EF 62                   		mov.L	r6, r2
 923 02dc EF 71                   		mov.L	r7, r1
 924                             	.LVL81:
 925 02de 05 00 00 00             		bsr	__ZN6tflite8GetInputEPK13TfLiteContextPK10TfLiteNodei
 926                             	.LVL82:
 927 02e2 EF 1D                   		mov.L	r1, r13
 928                             	.LVL83:
 102:../src/tensorflow/lite/micro/kernels/conv.cc ****         GetOptionalInputTensor(context, node, kBiasTensor);
 929                             		.loc 1 102 5 is_stmt 1
 103:../src/tensorflow/lite/micro/kernels/conv.cc ****     TfLiteTensor* output = GetOutput(context, node, kOutputTensor);
 930                             		.loc 1 103 31 is_stmt 0
 931 02e4 66 23                   		mov.L	#2, r3
 932 02e6 EF 62                   		mov.L	r6, r2
 933 02e8 EF 71                   		mov.L	r7, r1
 934                             	.LVL84:
 935 02ea 05 00 00 00             		bsr	__ZN6tflite22GetOptionalInputTensorEPK13TfLiteContextPK10TfLiteNodei
 936                             	.LVL85:
 937 02ee EF 14                   		mov.L	r1, r4
 938                             	.LVL86:
 104:../src/tensorflow/lite/micro/kernels/conv.cc ****     int num_channels = filter->dims->data[kConvQuantizedDimension];
 939                             		.loc 1 104 5 is_stmt 1
 104:../src/tensorflow/lite/micro/kernels/conv.cc ****     int num_channels = filter->dims->data[kConvQuantizedDimension];
 940                             		.loc 1 104 37 is_stmt 0
 941 02f0 66 03                   		mov.L	#0, r3
 942 02f2 EF 62                   		mov.L	r6, r2
 943 02f4 EF 71                   		mov.L	r7, r1
 944                             	.LVL87:
 945 02f6 E7 04 30                		mov.L	r4, 192[r0]
 946 02f9 05 00 00 00             		bsr	__ZN6tflite9GetOutputEP13TfLiteContextPK10TfLiteNodei
 947                             	.LVL88:
 105:../src/tensorflow/lite/micro/kernels/conv.cc **** 
 948                             		.loc 1 105 5 is_stmt 1
 107:../src/tensorflow/lite/micro/kernels/conv.cc ****         context, input, filter, bias, output, params->activation,
 949                             		.loc 1 107 5
 950                             	.LBB685:
 107:../src/tensorflow/lite/micro/kernels/conv.cc ****         context, input, filter, bias, output, params->activation,
 951                             		.loc 1 107 5
 952                             	.LBE685:
 105:../src/tensorflow/lite/micro/kernels/conv.cc **** 
 953                             		.loc 1 105 9 is_stmt 0
 954 02fd ED D5 02                		mov.L	8[r13], r5
 955                             	.LBB686:
 107:../src/tensorflow/lite/micro/kernels/conv.cc ****         context, input, filter, bias, output, params->activation,
 956                             		.loc 1 107 5
 957 0300 71 AE 30                		add	#48, r10, r14
 958 0303 E5 50 01 08             		mov.L	4[r5], 32[r0]
 959                             	.LVL89:
 960 0307 71 A6 2C                		add	#44, r10, r6
 961                             	.LVL90:
 962 030a 71 A2 20                		add	#32, r10, r2
 963 030d E5 A0 0A 07             		mov.L	40[r10], 28[r0]
 964 0311 71 A3 1C                		add	#28, r10, r3
 965 0314 ED 05 2B                		mov.L	172[r0], r5
 966 0317 62 C5                   		add	#12, r5
 967 0319 E5 A0 09 06             		mov.L	36[r10], 24[r0]
 968 031d ED 04 30                		mov.L	192[r0], r4
 969 0320 E3 01                   		mov.L	r1, [r0]
 970 0322 E7 0E 05                		mov.L	r14, 20[r0]
 971 0325 A1 06                   		mov.L	r6, 16[r0]
 972 0327 A0 8A                   		mov.L	r2, 12[r0]
 973 0329 A0 83                   		mov.L	r3, 8[r0]
 974 032b EF D3                   		mov.L	r13, r3
 975 032d A0 0D                   		mov.L	r5, 4[r0]
 976 032f ED 02 2F                		mov.L	188[r0], r2
 977 0332 EF 71                   		mov.L	r7, r1
 978                             	.LVL91:
 979 0334 05 00 00 00             		bsr	__ZN6tflite37PopulateConvolutionQuantizationParamsEP13TfLiteContextPK12TfLiteTensorS4_S4_PS2_R
 980                             	.LVL92:
 981 0338 71 16 00                		add	#0, r1, r6
 982 033b 3B 3D FE                		bne	.L24
 983                             	.LBE686:
 984                             	.LBE684:
 985                             	.LBE683:
 986                             	.LBE692:
 987                             	.LBE698:
 988                             	.LBE715:
 175:../src/tensorflow/lite/micro/kernels/conv.cc ****   data->filter_zero_point = filter->params.zero_point;
 989                             		.loc 1 175 42
 990 033e ED 95 04                		mov.L	16[r9], r5
 177:../src/tensorflow/lite/micro/kernels/conv.cc **** 
 991                             		.loc 1 177 44
 992 0341 ED 86 04                		mov.L	16[r8], r6
 993 0344 EC 94                   		mov.L	[r9], r4
 175:../src/tensorflow/lite/micro/kernels/conv.cc ****   data->filter_zero_point = filter->params.zero_point;
 994                             		.loc 1 175 3 is_stmt 1
 176:../src/tensorflow/lite/micro/kernels/conv.cc ****   data->output_zero_point = output->params.zero_point;
 995                             		.loc 1 176 27 is_stmt 0
 996 0346 ED 09 2E                		mov.L	184[r0], r9
 997                             	.LVL93:
 998 0349 E5 9A 04 05             		mov.L	16[r9], 20[r10]
 175:../src/tensorflow/lite/micro/kernels/conv.cc ****   data->filter_zero_point = filter->params.zero_point;
 999                             		.loc 1 175 26
 1000 034d E7 A5 04                		mov.L	r5, 16[r10]
 176:../src/tensorflow/lite/micro/kernels/conv.cc ****   data->output_zero_point = output->params.zero_point;
 1001                             		.loc 1 176 3 is_stmt 1
 177:../src/tensorflow/lite/micro/kernels/conv.cc **** 
 1002                             		.loc 1 177 3
 177:../src/tensorflow/lite/micro/kernels/conv.cc **** 
 1003                             		.loc 1 177 27 is_stmt 0
 1004 0350 E7 A6 06                		mov.L	r6, 24[r10]
 179:../src/tensorflow/lite/micro/kernels/conv.cc ****     // Initialize cmsis-nn convolution parameters
 1005                             		.loc 1 179 3 is_stmt 1
 1006                             	.LBB716:
 1007 0353 61 94                   		cmp	#9, r4
 1008 0355 20 0C                   		beq	.L55
 1009                             	.LVL94:
 1010 0357 03                      		.balign 8,3,1
 1011                             	.L30:
 1012                             	.LBE716:
 1013                             	.LBB718:
 201:../src/tensorflow/lite/micro/kernels/conv.cc ****   }
 1014                             		.loc 1 201 5
 1015                             	.LBE718:
 203:../src/tensorflow/lite/micro/kernels/conv.cc **** }
 1016                             		.loc 1 203 10 is_stmt 0
 1017 0358 66 06                   		mov.L	#0, r6
 1018                             	.LBB720:
 201:../src/tensorflow/lite/micro/kernels/conv.cc ****   }
 1019                             		.loc 1 201 22
 1020 035a F9 A6 0D FF             		mov.L	#-1, 52[r10]
 1021 035e 38 1A FE                		bra	.L24
 1022                             	.LVL95:
 1023                             	.L55:
 1024                             	.LBE720:
 1025                             	.LBB721:
 1026                             	.LBB717:
 181:../src/tensorflow/lite/micro/kernels/conv.cc ****     conv_params.input_offset = -input->params.zero_point;
 1027                             		.loc 1 181 5 is_stmt 1
 182:../src/tensorflow/lite/micro/kernels/conv.cc ****     conv_params.output_offset = output->params.zero_point;
 1028                             		.loc 1 182 5
 182:../src/tensorflow/lite/micro/kernels/conv.cc ****     conv_params.output_offset = output->params.zero_point;
 1029                             		.loc 1 182 32 is_stmt 0
 1030 0361 7E 15                   		neg	r5
 193:../src/tensorflow/lite/micro/kernels/conv.cc ****         &conv_params, &input_dims, &filter_dims, &output_dims);
 1031                             		.loc 1 193 55
 1032 0363 71 04 7C                		add	#0x7c, r0, r4
 1033 0366 72 03 8C 00             		add	#0x8c, r0, r3
 1034 036a 72 02 9C 00             		add	#0x9c, r0, r2
 184:../src/tensorflow/lite/micro/kernels/conv.cc ****     conv_params.stride.w = params->stride_width;
 1035                             		.loc 1 184 26
 1036 036e ED 0D 2B                		mov.L	172[r0], r13
 1037                             	.LVL96:
 1038 0371 E5 D0 02 0C             		mov.L	8[r13], 48[r0]
 193:../src/tensorflow/lite/micro/kernels/conv.cc ****         &conv_params, &input_dims, &filter_dims, &output_dims);
 1039                             		.loc 1 193 55
 1040 0375 75 41 24                		mov.L	#36, r1
 1041 0378 4B 01                   		add	r0, r1
 185:../src/tensorflow/lite/micro/kernels/conv.cc ****     conv_params.dilation.h = params->dilation_height_factor;
 1042                             		.loc 1 185 26
 1043 037a E5 D0 01 0B             		mov.L	4[r13], 44[r0]
 182:../src/tensorflow/lite/micro/kernels/conv.cc ****     conv_params.output_offset = output->params.zero_point;
 1044                             		.loc 1 182 30
 1045 037e A2 0D                   		mov.L	r5, 36[r0]
 183:../src/tensorflow/lite/micro/kernels/conv.cc ****     conv_params.stride.h = params->stride_height;
 1046                             		.loc 1 183 5 is_stmt 1
 186:../src/tensorflow/lite/micro/kernels/conv.cc ****     conv_params.dilation.w = params->dilation_width_factor;
 1047                             		.loc 1 186 28 is_stmt 0
 1048 0380 E5 D0 05 10             		mov.L	20[r13], 64[r0]
 187:../src/tensorflow/lite/micro/kernels/conv.cc ****     conv_params.padding.h = data->padding.height;
 1049                             		.loc 1 187 28
 1050 0384 E5 D0 04 0F             		mov.L	16[r13], 60[r0]
 188:../src/tensorflow/lite/micro/kernels/conv.cc ****     conv_params.padding.w = data->padding.width;
 1051                             		.loc 1 188 27
 1052 0388 E5 A0 01 0E             		mov.L	4[r10], 56[r0]
 189:../src/tensorflow/lite/micro/kernels/conv.cc ****     conv_params.activation.min = data->output_activation_min;
 1053                             		.loc 1 189 27
 1054 038c E4 A0 0D                		mov.L	[r10], 52[r0]
 190:../src/tensorflow/lite/micro/kernels/conv.cc ****     conv_params.activation.max = data->output_activation_max;
 1055                             		.loc 1 190 32
 1056 038f E5 A0 0B 11             		mov.L	44[r10], 68[r0]
 191:../src/tensorflow/lite/micro/kernels/conv.cc **** 
 1057                             		.loc 1 191 32
 1058 0393 E5 A0 0C 12             		mov.L	48[r10], 72[r0]
 183:../src/tensorflow/lite/micro/kernels/conv.cc ****     conv_params.stride.h = params->stride_height;
 1059                             		.loc 1 183 31
 1060 0397 A2 86                   		mov.L	r6, 40[r0]
 184:../src/tensorflow/lite/micro/kernels/conv.cc ****     conv_params.stride.w = params->stride_width;
 1061                             		.loc 1 184 5 is_stmt 1
 185:../src/tensorflow/lite/micro/kernels/conv.cc ****     conv_params.dilation.h = params->dilation_height_factor;
 1062                             		.loc 1 185 5
 186:../src/tensorflow/lite/micro/kernels/conv.cc ****     conv_params.dilation.w = params->dilation_width_factor;
 1063                             		.loc 1 186 5
 187:../src/tensorflow/lite/micro/kernels/conv.cc ****     conv_params.padding.h = data->padding.height;
 1064                             		.loc 1 187 5
 188:../src/tensorflow/lite/micro/kernels/conv.cc ****     conv_params.padding.w = data->padding.width;
 1065                             		.loc 1 188 5
 189:../src/tensorflow/lite/micro/kernels/conv.cc ****     conv_params.activation.min = data->output_activation_min;
 1066                             		.loc 1 189 5
 190:../src/tensorflow/lite/micro/kernels/conv.cc ****     conv_params.activation.max = data->output_activation_max;
 1067                             		.loc 1 190 5
 191:../src/tensorflow/lite/micro/kernels/conv.cc **** 
 1068                             		.loc 1 191 5
 193:../src/tensorflow/lite/micro/kernels/conv.cc ****         &conv_params, &input_dims, &filter_dims, &output_dims);
 1069                             		.loc 1 193 5
 193:../src/tensorflow/lite/micro/kernels/conv.cc ****         &conv_params, &input_dims, &filter_dims, &output_dims);
 1070                             		.loc 1 193 55 is_stmt 0
 1071 0399 05 00 00 00             		bsr	_arm_convolve_wrapper_s8_get_buffer_size
 1072                             	.LVL97:
 1073                             	.LBE717:
 1074                             	.LBE721:
 197:../src/tensorflow/lite/micro/kernels/conv.cc ****     TF_LITE_ENSURE_STATUS(context->RequestScratchBufferInArena(
 1075                             		.loc 1 197 3 is_stmt 1
 1076                             	.LBB722:
 1077 039d 61 01                   		cmp	#0, r1
 1078 039f 2B B9                   		ble	.L30
 1079                             	.LBE722:
 198:../src/tensorflow/lite/micro/kernels/conv.cc ****         context, buf_size, &data->buffer_idx));
 1080                             		.loc 1 198 5
 1081                             	.LBB723:
 1082                             	.LBB719:
 198:../src/tensorflow/lite/micro/kernels/conv.cc ****         context, buf_size, &data->buffer_idx));
 1083                             		.loc 1 198 5
 1084 03a1 AC 75                   		mov.L	64[r7], r5
 1085 03a3 71 A3 34                		add	#52, r10, r3
 1086 03a6 EF 12                   		mov.L	r1, r2
 1087 03a8 EF 71                   		mov.L	r7, r1
 1088                             	.LVL98:
 1089 03aa 7F 15                   		jsr	r5
 1090                             	.LVL99:
 1091 03ac EF 16                   		mov.L	r1, r6
 1092                             	.LVL100:
 198:../src/tensorflow/lite/micro/kernels/conv.cc ****         context, buf_size, &data->buffer_idx));
 1093                             		.loc 1 198 5
 1094 03ae 38 CA FD                		bra	.L24
 1095                             	.LVL101:
 1096                             	.L29:
 1097                             	.LBE719:
 1098                             	.LBE723:
 175:../src/tensorflow/lite/micro/kernels/conv.cc ****   data->filter_zero_point = filter->params.zero_point;
 1099                             		.loc 1 175 3
 175:../src/tensorflow/lite/micro/kernels/conv.cc ****   data->filter_zero_point = filter->params.zero_point;
 1100                             		.loc 1 175 26 is_stmt 0
 1101 03b1 E5 9A 04 04             		mov.L	16[r9], 16[r10]
 176:../src/tensorflow/lite/micro/kernels/conv.cc ****   data->output_zero_point = output->params.zero_point;
 1102                             		.loc 1 176 3 is_stmt 1
 176:../src/tensorflow/lite/micro/kernels/conv.cc ****   data->output_zero_point = output->params.zero_point;
 1103                             		.loc 1 176 27 is_stmt 0
 1104 03b5 ED 05 2E                		mov.L	184[r0], r5
 1105 03b8 E5 5A 04 05             		mov.L	16[r5], 20[r10]
 177:../src/tensorflow/lite/micro/kernels/conv.cc **** 
 1106                             		.loc 1 177 3 is_stmt 1
 177:../src/tensorflow/lite/micro/kernels/conv.cc **** 
 1107                             		.loc 1 177 27 is_stmt 0
 1108 03bc E5 8A 04 06             		mov.L	16[r8], 24[r10]
 179:../src/tensorflow/lite/micro/kernels/conv.cc ****     // Initialize cmsis-nn convolution parameters
 1109                             		.loc 1 179 3 is_stmt 1
 1110 03c0 2E 98                   		bra	.L30
 1111                             	.LVL102:
 1112                             	.L54:
 1113                             	.LBB724:
 1114                             	.LBB699:
 1115                             	.LBB693:
 1116                             	.LBB687:
 1117                             	.LBB679:
 1118                             	.LBB669:
 1119                             	.LBB627:
  47:C:\Users\a5116938\Desktop\e2_studio_workspace\EEMBC_final\RX65N_Cloud_Kit\src/tensorflow/lite/kernels\padding.h ****     case kTfLitePaddingSame:
 1120                             		.loc 4 47 3 is_stmt 0
 1121 03c2 FB 46 FF                		mov.L	#-1, r4
 1122                             	.LVL103:
 1123 03c5 EF 45                   		mov.L	r4, r5
 1124 03c7 38 D1 FE                		bra	.L28
 1125                             	.LVL104:
 1126                             	.L26:
  48:C:\Users\a5116938\Desktop\e2_studio_workspace\EEMBC_final\RX65N_Cloud_Kit\src/tensorflow/lite/kernels\padding.h ****       return (image_size + stride - 1) / stride;
 1127                             		.loc 4 48 5 is_stmt 1
  49:C:\Users\a5116938\Desktop\e2_studio_workspace\EEMBC_final\RX65N_Cloud_Kit\src/tensorflow/lite/kernels\padding.h ****     case kTfLitePaddingValid:
 1128                             		.loc 4 49 7
 1129                             	.LBE627:
 1130                             	.LBE669:
  63:C:\Users\a5116938\Desktop\e2_studio_workspace\EEMBC_final\RX65N_Cloud_Kit\src/tensorflow/lite/kernels\padding.h ****                                dilation_rate_height);
 1131                             		.loc 4 63 3
 1132                             	.LBB670:
 1133                             	.LBB637:
  46:C:\Users\a5116938\Desktop\e2_studio_workspace\EEMBC_final\RX65N_Cloud_Kit\src/tensorflow/lite/kernels\padding.h ****   switch (padding) {
 1134                             		.loc 4 46 3
  47:C:\Users\a5116938\Desktop\e2_studio_workspace\EEMBC_final\RX65N_Cloud_Kit\src/tensorflow/lite/kernels\padding.h ****     case kTfLitePaddingSame:
 1135                             		.loc 4 47 3
  48:C:\Users\a5116938\Desktop\e2_studio_workspace\EEMBC_final\RX65N_Cloud_Kit\src/tensorflow/lite/kernels\padding.h ****       return (image_size + stride - 1) / stride;
 1136                             		.loc 4 48 5
  49:C:\Users\a5116938\Desktop\e2_studio_workspace\EEMBC_final\RX65N_Cloud_Kit\src/tensorflow/lite/kernels\padding.h ****     case kTfLitePaddingValid:
 1137                             		.loc 4 49 7
  49:C:\Users\a5116938\Desktop\e2_studio_workspace\EEMBC_final\RX65N_Cloud_Kit\src/tensorflow/lite/kernels\padding.h ****     case kTfLitePaddingValid:
 1138                             		.loc 4 49 26 is_stmt 0
 1139 03ca FF 25 3D                		add	r3, r13, r5
 1140                             	.LBE637:
 1141                             	.LBE670:
 1142                             	.LBB671:
 1143                             	.LBB628:
 1144 03cd FF 24 1E                		add	r1, r14, r4
 1145                             	.LBE628:
 1146                             	.LBE671:
 1147                             	.LBB672:
 1148                             	.LBB638:
  49:C:\Users\a5116938\Desktop\e2_studio_workspace\EEMBC_final\RX65N_Cloud_Kit\src/tensorflow/lite/kernels\padding.h ****     case kTfLitePaddingValid:
 1149                             		.loc 4 49 35
 1150 03d0 60 15                   		sub	#1, r5
 1151                             	.LBE638:
 1152                             	.LBE672:
 1153                             	.LBB673:
 1154                             	.LBB629:
 1155 03d2 60 14                   		sub	#1, r4
 1156                             	.LBE629:
 1157                             	.LBE673:
 1158                             	.LBB674:
 1159                             	.LBB639:
  49:C:\Users\a5116938\Desktop\e2_studio_workspace\EEMBC_final\RX65N_Cloud_Kit\src/tensorflow/lite/kernels\padding.h ****     case kTfLitePaddingValid:
 1160                             		.loc 4 49 42
 1161 03d4 FC 23 35                		div	r3, r5
 1162                             	.LBE639:
 1163                             	.LBE674:
 1164                             	.LBB675:
 1165                             	.LBB630:
 1166 03d7 FC 23 14                		div	r1, r4
 1167                             	.LVL105:
 1168 03da 60 15                   		sub	#1, r5
 1169 03dc 60 14                   		sub	#1, r4
 1170                             	.LVL106:
 1171 03de 38 BA FE                		bra	.L28
 1172                             	.LBE630:
 1173                             	.LBE675:
 1174                             	.LBE679:
 1175                             	.LBE687:
 1176                             	.LBE693:
 1177                             	.LBE699:
 1178                             	.LBE724:
 1179                             	.LFE2259:
 1181 03e1 FD 70 40 00 00 00 80    		.section	.text._ZN6tflite12_GLOBAL__N_123EvalQuantizedPerChannelEP13TfLiteContextP10TfLiteNodeP16T
 1183                             	__ZN6tflite12_GLOBAL__N_123EvalQuantizedPerChannelEP13TfLiteContextP10TfLiteNodeP16TfLiteConvParams
 1184                             	.LFB2810:
 205:../src/tensorflow/lite/micro/kernels/conv.cc **** 
 206:../src/tensorflow/lite/micro/kernels/conv.cc **** TfLiteStatus EvalQuantized(TfLiteContext* context, TfLiteNode* node,
 207:../src/tensorflow/lite/micro/kernels/conv.cc ****                            TfLiteConvParams* params, const OpData& data,
 208:../src/tensorflow/lite/micro/kernels/conv.cc ****                            const TfLiteEvalTensor* input,
 209:../src/tensorflow/lite/micro/kernels/conv.cc ****                            const TfLiteEvalTensor* filter,
 210:../src/tensorflow/lite/micro/kernels/conv.cc ****                            const TfLiteEvalTensor* bias,
 211:../src/tensorflow/lite/micro/kernels/conv.cc ****                            TfLiteEvalTensor* im2col,
 212:../src/tensorflow/lite/micro/kernels/conv.cc ****                            TfLiteEvalTensor* hwcn_weights,
 213:../src/tensorflow/lite/micro/kernels/conv.cc ****                            TfLiteEvalTensor* output) {
 214:../src/tensorflow/lite/micro/kernels/conv.cc ****   const int32_t input_offset = -data.input_zero_point;
 215:../src/tensorflow/lite/micro/kernels/conv.cc ****   const int32_t filter_offset = -data.filter_zero_point;
 216:../src/tensorflow/lite/micro/kernels/conv.cc ****   const int32_t output_offset = data.output_zero_point;
 217:../src/tensorflow/lite/micro/kernels/conv.cc **** 
 218:../src/tensorflow/lite/micro/kernels/conv.cc ****   ConvParams op_params;
 219:../src/tensorflow/lite/micro/kernels/conv.cc ****   op_params.padding_type = RuntimePaddingType(params->padding);
 220:../src/tensorflow/lite/micro/kernels/conv.cc ****   op_params.padding_values.width = data.padding.width;
 221:../src/tensorflow/lite/micro/kernels/conv.cc ****   op_params.padding_values.height = data.padding.height;
 222:../src/tensorflow/lite/micro/kernels/conv.cc ****   op_params.stride_width = params->stride_width;
 223:../src/tensorflow/lite/micro/kernels/conv.cc ****   op_params.stride_height = params->stride_height;
 224:../src/tensorflow/lite/micro/kernels/conv.cc ****   op_params.dilation_width_factor = params->dilation_width_factor;
 225:../src/tensorflow/lite/micro/kernels/conv.cc ****   op_params.dilation_height_factor = params->dilation_height_factor;
 226:../src/tensorflow/lite/micro/kernels/conv.cc ****   op_params.input_offset = input_offset;
 227:../src/tensorflow/lite/micro/kernels/conv.cc ****   op_params.weights_offset = filter_offset;
 228:../src/tensorflow/lite/micro/kernels/conv.cc ****   op_params.output_offset = output_offset;
 229:../src/tensorflow/lite/micro/kernels/conv.cc ****   op_params.output_multiplier = data.output_multiplier;
 230:../src/tensorflow/lite/micro/kernels/conv.cc ****   op_params.output_shift = -data.output_shift;
 231:../src/tensorflow/lite/micro/kernels/conv.cc ****   op_params.quantized_activation_min = data.output_activation_min;
 232:../src/tensorflow/lite/micro/kernels/conv.cc ****   op_params.quantized_activation_max = data.output_activation_max;
 233:../src/tensorflow/lite/micro/kernels/conv.cc ****   reference_ops::Conv(op_params, tflite::micro::GetTensorShape(input),
 234:../src/tensorflow/lite/micro/kernels/conv.cc ****                       tflite::micro::GetTensorData<uint8_t>(input),
 235:../src/tensorflow/lite/micro/kernels/conv.cc ****                       tflite::micro::GetTensorShape(filter),
 236:../src/tensorflow/lite/micro/kernels/conv.cc ****                       tflite::micro::GetTensorData<uint8_t>(filter),
 237:../src/tensorflow/lite/micro/kernels/conv.cc ****                       tflite::micro::GetTensorShape(bias),
 238:../src/tensorflow/lite/micro/kernels/conv.cc ****                       tflite::micro::GetTensorData<int32_t>(bias),
 239:../src/tensorflow/lite/micro/kernels/conv.cc ****                       tflite::micro::GetTensorShape(output),
 240:../src/tensorflow/lite/micro/kernels/conv.cc ****                       tflite::micro::GetTensorData<uint8_t>(output),
 241:../src/tensorflow/lite/micro/kernels/conv.cc ****                       tflite::micro::GetTensorShape(im2col),
 242:../src/tensorflow/lite/micro/kernels/conv.cc ****                       tflite::micro::GetTensorData<uint8_t>(im2col), nullptr);
 243:../src/tensorflow/lite/micro/kernels/conv.cc ****   return kTfLiteOk;
 244:../src/tensorflow/lite/micro/kernels/conv.cc **** }
 245:../src/tensorflow/lite/micro/kernels/conv.cc **** 
 246:../src/tensorflow/lite/micro/kernels/conv.cc **** TfLiteStatus EvalQuantizedPerChannel(
 1185                             		.loc 1 246 14 is_stmt 1
 1186                             	.LVL107:
 1187 0000 6E 6D                   		pushm	r6-r13
 1188                             	.LCFI2:
 1189 0002 72 00 E0 FD             		add	#-544, r0
 1190                             	.LCFI3:
 1191                             	.LVL108:
 247:../src/tensorflow/lite/micro/kernels/conv.cc ****     TfLiteContext* context, TfLiteNode* node, TfLiteConvParams* params,
 248:../src/tensorflow/lite/micro/kernels/conv.cc ****     const OpData& data, const TfLiteEvalTensor* input,
 249:../src/tensorflow/lite/micro/kernels/conv.cc ****     const TfLiteEvalTensor* filter, const TfLiteEvalTensor* bias,
 250:../src/tensorflow/lite/micro/kernels/conv.cc ****     TfLiteEvalTensor* output, TfLiteEvalTensor* im2col) {
 251:../src/tensorflow/lite/micro/kernels/conv.cc ****   cmsis_nn_conv_params conv_params;
 1192                             		.loc 1 251 3
 252:../src/tensorflow/lite/micro/kernels/conv.cc ****   conv_params.dilation.h = params->dilation_height_factor;
 1193                             		.loc 1 252 3
 1194                             		.loc 1 252 36 is_stmt 0
 1195 0006 A9 2D                   		mov.L	20[r2], r5
 253:../src/tensorflow/lite/micro/kernels/conv.cc ****   conv_params.dilation.w = params->dilation_width_factor;
 1196                             		.loc 1 253 36
 1197 0008 ED 2A 04                		mov.L	16[r2], r10
 246:../src/tensorflow/lite/micro/kernels/conv.cc ****     TfLiteContext* context, TfLiteNode* node, TfLiteConvParams* params,
 1198                             		.loc 1 246 14
 1199 000b FB 7A 44 02             		mov.L	#0x244, r7
 1200 000f 4B 07                   		add	r0, r7
 252:../src/tensorflow/lite/micro/kernels/conv.cc ****   conv_params.dilation.h = params->dilation_height_factor;
 1201                             		.loc 1 252 26
 1202 0011 A3 85                   		mov.L	r5, 56[r0]
 1203                             		.loc 1 253 3 is_stmt 1
 246:../src/tensorflow/lite/micro/kernels/conv.cc ****     TfLiteContext* context, TfLiteNode* node, TfLiteConvParams* params,
 1204                             		.loc 1 246 14 is_stmt 0
 1205 0013 EF 4C                   		mov.L	r4, r12
 1206                             		.loc 1 253 26
 1207 0015 E7 0A 0D                		mov.L	r10, 52[r0]
 254:../src/tensorflow/lite/micro/kernels/conv.cc ****   // TODO(#43557) Remove checks for dilation and call to reference
 255:../src/tensorflow/lite/micro/kernels/conv.cc ****   // implementation when dilation is supported in the optimized implementation
 256:../src/tensorflow/lite/micro/kernels/conv.cc ****   // by CMSIS-NN.
 257:../src/tensorflow/lite/micro/kernels/conv.cc ****   if (conv_params.dilation.h == 1 && conv_params.dilation.w == 1) {
 1208                             		.loc 1 257 3 is_stmt 1
 246:../src/tensorflow/lite/micro/kernels/conv.cc ****     TfLiteContext* context, TfLiteNode* node, TfLiteConvParams* params,
 1209                             		.loc 1 246 14 is_stmt 0
 1210 0018 EC 79                   		mov.L	[r7], r9
 1211 001a A8 7E                   		mov.L	4[r7], r6
 1212 001c ED 78 02                		mov.L	8[r7], r8
 1213 001f E5 30 04 69             		mov.L	16[r3], 420[r0]
 1214 0023 E5 30 06 66             		mov.L	24[r3], 408[r0]
 1215 0027 ED 2D 02                		mov.L	8[r2], r13
 1216 002a A8 2C                   		mov.L	4[r2], r4
 1217                             	.LVL109:
 1218 002c A8 3F                   		mov.L	4[r3], r7
 1219 002e EC 3B                   		mov.L	[r3], r11
 1220 0030 E5 30 0B 58             		mov.L	44[r3], 352[r0]
 1221 0034 E5 30 0C 60             		mov.L	48[r3], 384[r0]
 1222 0038 E5 30 09 68             		mov.L	36[r3], 416[r0]
 1223 003c E5 30 0A 67             		mov.L	40[r3], 412[r0]
 1224                             	.LBB907:
 1225                             		.loc 1 257 3
 1226 0040 61 15                   		cmp	#1, r5
 1227 0042 1E                      		bne	.L57
 1228                             		.loc 1 257 35
 1229 0043 61 1A                   		cmp	#1, r10
 1230 0045 3A B8 04                		beq	.L198
 1231                             		.balign 8,3,2
 1232                             	.L57:
 1233                             	.LBB908:
 258:../src/tensorflow/lite/micro/kernels/conv.cc ****     // Initialize cmsis-nn convolution parameters
 259:../src/tensorflow/lite/micro/kernels/conv.cc ****     conv_params.input_offset = -data.input_zero_point;
 260:../src/tensorflow/lite/micro/kernels/conv.cc ****     conv_params.output_offset = data.output_zero_point;
 261:../src/tensorflow/lite/micro/kernels/conv.cc ****     conv_params.stride.h = params->stride_height;
 262:../src/tensorflow/lite/micro/kernels/conv.cc ****     conv_params.stride.w = params->stride_width;
 263:../src/tensorflow/lite/micro/kernels/conv.cc ****     conv_params.padding.h = data.padding.height;
 264:../src/tensorflow/lite/micro/kernels/conv.cc ****     conv_params.padding.w = data.padding.width;
 265:../src/tensorflow/lite/micro/kernels/conv.cc ****     conv_params.activation.min = data.output_activation_min;
 266:../src/tensorflow/lite/micro/kernels/conv.cc ****     conv_params.activation.max = data.output_activation_max;
 267:../src/tensorflow/lite/micro/kernels/conv.cc **** 
 268:../src/tensorflow/lite/micro/kernels/conv.cc ****     // Initialize cmsis-nn per channel quantization parameters
 269:../src/tensorflow/lite/micro/kernels/conv.cc ****     cmsis_nn_per_channel_quant_params quant_params;
 270:../src/tensorflow/lite/micro/kernels/conv.cc ****     quant_params.multiplier =
 271:../src/tensorflow/lite/micro/kernels/conv.cc ****         const_cast<int32_t*>(data.per_channel_output_multiplier);
 272:../src/tensorflow/lite/micro/kernels/conv.cc ****     quant_params.shift = const_cast<int32_t*>(data.per_channel_output_shift);
 273:../src/tensorflow/lite/micro/kernels/conv.cc **** 
 274:../src/tensorflow/lite/micro/kernels/conv.cc ****     RuntimeShape filter_shape = tflite::micro::GetTensorShape(filter);
 275:../src/tensorflow/lite/micro/kernels/conv.cc ****     RuntimeShape input_shape = tflite::micro::GetTensorShape(input);
 276:../src/tensorflow/lite/micro/kernels/conv.cc ****     RuntimeShape output_shape = tflite::micro::GetTensorShape(output);
 277:../src/tensorflow/lite/micro/kernels/conv.cc ****     RuntimeShape bias_shape = tflite::micro::GetTensorShape(bias);
 278:../src/tensorflow/lite/micro/kernels/conv.cc **** 
 279:../src/tensorflow/lite/micro/kernels/conv.cc ****     // Consistency check.
 280:../src/tensorflow/lite/micro/kernels/conv.cc ****     TFLITE_DCHECK_LE(conv_params.activation.min, conv_params.activation.max);
 281:../src/tensorflow/lite/micro/kernels/conv.cc ****     TFLITE_DCHECK_EQ(input_shape.DimensionsCount(), 4);
 282:../src/tensorflow/lite/micro/kernels/conv.cc ****     TFLITE_DCHECK_EQ(filter_shape.DimensionsCount(), 4);
 283:../src/tensorflow/lite/micro/kernels/conv.cc ****     TFLITE_DCHECK_EQ(output_shape.DimensionsCount(), 4);
 284:../src/tensorflow/lite/micro/kernels/conv.cc ****     const int batch_size = MatchingDim(input_shape, 0, output_shape, 0);
 285:../src/tensorflow/lite/micro/kernels/conv.cc ****     const int input_depth = MatchingDim(input_shape, 3, filter_shape, 3);
 286:../src/tensorflow/lite/micro/kernels/conv.cc ****     const int output_depth = MatchingDim(filter_shape, 0, output_shape, 3);
 287:../src/tensorflow/lite/micro/kernels/conv.cc ****     if (tflite::micro::GetTensorData<int8_t>(bias)) {
 288:../src/tensorflow/lite/micro/kernels/conv.cc ****       TFLITE_DCHECK_EQ(bias_shape.FlatSize(), output_depth);
 289:../src/tensorflow/lite/micro/kernels/conv.cc ****     }
 290:../src/tensorflow/lite/micro/kernels/conv.cc **** 
 291:../src/tensorflow/lite/micro/kernels/conv.cc ****     // Initialize cmsis-nn dimensions
 292:../src/tensorflow/lite/micro/kernels/conv.cc ****     // Input
 293:../src/tensorflow/lite/micro/kernels/conv.cc ****     cmsis_nn_dims input_dims;
 294:../src/tensorflow/lite/micro/kernels/conv.cc ****     input_dims.n = batch_size;
 295:../src/tensorflow/lite/micro/kernels/conv.cc ****     input_dims.h = input_shape.Dims(1);
 296:../src/tensorflow/lite/micro/kernels/conv.cc ****     input_dims.w = input_shape.Dims(2);
 297:../src/tensorflow/lite/micro/kernels/conv.cc ****     input_dims.c = input_depth;
 298:../src/tensorflow/lite/micro/kernels/conv.cc **** 
 299:../src/tensorflow/lite/micro/kernels/conv.cc ****     // Filter
 300:../src/tensorflow/lite/micro/kernels/conv.cc ****     cmsis_nn_dims filter_dims;
 301:../src/tensorflow/lite/micro/kernels/conv.cc ****     filter_dims.n = output_depth;
 302:../src/tensorflow/lite/micro/kernels/conv.cc ****     filter_dims.h = filter_shape.Dims(1);
 303:../src/tensorflow/lite/micro/kernels/conv.cc ****     filter_dims.w = filter_shape.Dims(2);
 304:../src/tensorflow/lite/micro/kernels/conv.cc ****     filter_dims.c = input_depth;
 305:../src/tensorflow/lite/micro/kernels/conv.cc **** 
 306:../src/tensorflow/lite/micro/kernels/conv.cc ****     // Bias
 307:../src/tensorflow/lite/micro/kernels/conv.cc ****     cmsis_nn_dims bias_dims;
 308:../src/tensorflow/lite/micro/kernels/conv.cc ****     bias_dims.n = 1;
 309:../src/tensorflow/lite/micro/kernels/conv.cc ****     bias_dims.h = 1;
 310:../src/tensorflow/lite/micro/kernels/conv.cc ****     bias_dims.w = 1;
 311:../src/tensorflow/lite/micro/kernels/conv.cc ****     bias_dims.c = output_depth;
 312:../src/tensorflow/lite/micro/kernels/conv.cc **** 
 313:../src/tensorflow/lite/micro/kernels/conv.cc ****     // Output
 314:../src/tensorflow/lite/micro/kernels/conv.cc ****     cmsis_nn_dims output_dims;
 315:../src/tensorflow/lite/micro/kernels/conv.cc ****     output_dims.n = batch_size;
 316:../src/tensorflow/lite/micro/kernels/conv.cc ****     output_dims.h = output_shape.Dims(1);
 317:../src/tensorflow/lite/micro/kernels/conv.cc ****     output_dims.w = output_shape.Dims(2);
 318:../src/tensorflow/lite/micro/kernels/conv.cc ****     output_dims.c = output_depth;
 319:../src/tensorflow/lite/micro/kernels/conv.cc **** 
 320:../src/tensorflow/lite/micro/kernels/conv.cc ****     // Initialize cmsis-nn context
 321:../src/tensorflow/lite/micro/kernels/conv.cc ****     cmsis_nn_context ctx;
 322:../src/tensorflow/lite/micro/kernels/conv.cc ****     ctx.buf = nullptr;
 323:../src/tensorflow/lite/micro/kernels/conv.cc ****     ctx.size = 0;
 324:../src/tensorflow/lite/micro/kernels/conv.cc **** 
 325:../src/tensorflow/lite/micro/kernels/conv.cc ****     if (data.buffer_idx > -1) {
 326:../src/tensorflow/lite/micro/kernels/conv.cc ****       ctx.buf = context->GetScratchBuffer(context, data.buffer_idx);
 327:../src/tensorflow/lite/micro/kernels/conv.cc ****       // Note: ctx.size is currently not used in cmsis-nn.
 328:../src/tensorflow/lite/micro/kernels/conv.cc ****       // The buffer should be allocated in the Prepare function through
 329:../src/tensorflow/lite/micro/kernels/conv.cc ****       // arm_convolve_wrapper_s8_get_buffer_size
 330:../src/tensorflow/lite/micro/kernels/conv.cc ****     }
 331:../src/tensorflow/lite/micro/kernels/conv.cc **** 
 332:../src/tensorflow/lite/micro/kernels/conv.cc ****     // arm_convolve_wrapper_s8 dispatches the optimized kernel accordingly with
 333:../src/tensorflow/lite/micro/kernels/conv.cc ****     // the parameters passed
 334:../src/tensorflow/lite/micro/kernels/conv.cc ****     TFLITE_DCHECK_EQ(
 335:../src/tensorflow/lite/micro/kernels/conv.cc ****         arm_convolve_wrapper_s8(
 336:../src/tensorflow/lite/micro/kernels/conv.cc ****             &ctx, &conv_params, &quant_params, &input_dims,
 337:../src/tensorflow/lite/micro/kernels/conv.cc ****             tflite::micro::GetTensorData<int8_t>(input), &filter_dims,
 338:../src/tensorflow/lite/micro/kernels/conv.cc ****             tflite::micro::GetTensorData<int8_t>(filter), &bias_dims,
 339:../src/tensorflow/lite/micro/kernels/conv.cc ****             tflite::micro::GetTensorData<int32_t>(bias), &output_dims,
 340:../src/tensorflow/lite/micro/kernels/conv.cc ****             tflite::micro::GetTensorData<int8_t>(output)),
 341:../src/tensorflow/lite/micro/kernels/conv.cc ****         ARM_MATH_SUCCESS);
 342:../src/tensorflow/lite/micro/kernels/conv.cc ****   } else {
 343:../src/tensorflow/lite/micro/kernels/conv.cc ****     // TODO(b/154032858): Investigate removing extra copies.
 344:../src/tensorflow/lite/micro/kernels/conv.cc ****     ConvParams op_params;
 1234                             		.loc 1 344 5 is_stmt 1
 345:../src/tensorflow/lite/micro/kernels/conv.cc ****     op_params.input_offset = -data.input_zero_point;
 1235                             		.loc 1 345 5
 346:../src/tensorflow/lite/micro/kernels/conv.cc ****     op_params.output_offset = data.output_zero_point;
 1236                             		.loc 1 346 5
 347:../src/tensorflow/lite/micro/kernels/conv.cc ****     op_params.stride_height = params->stride_height;
 1237                             		.loc 1 347 5
 348:../src/tensorflow/lite/micro/kernels/conv.cc ****     op_params.stride_width = params->stride_width;
 349:../src/tensorflow/lite/micro/kernels/conv.cc ****     op_params.dilation_height_factor = params->dilation_height_factor;
 350:../src/tensorflow/lite/micro/kernels/conv.cc ****     op_params.dilation_width_factor = params->dilation_width_factor;
 351:../src/tensorflow/lite/micro/kernels/conv.cc ****     op_params.padding_values.height = data.padding.height;
 352:../src/tensorflow/lite/micro/kernels/conv.cc ****     op_params.padding_values.width = data.padding.width;
 353:../src/tensorflow/lite/micro/kernels/conv.cc ****     op_params.quantized_activation_min = data.output_activation_min;
 354:../src/tensorflow/lite/micro/kernels/conv.cc ****     op_params.quantized_activation_max = data.output_activation_max;
 355:../src/tensorflow/lite/micro/kernels/conv.cc **** 
 356:../src/tensorflow/lite/micro/kernels/conv.cc ****     reference_integer_ops::ConvPerChannel(
 357:../src/tensorflow/lite/micro/kernels/conv.cc ****         op_params, data.per_channel_output_multiplier,
 358:../src/tensorflow/lite/micro/kernels/conv.cc ****         data.per_channel_output_shift, tflite::micro::GetTensorShape(input),
 1238                             		.loc 1 358 69 is_stmt 0
 1239 0048 71 0F 44                		add	#0x44, r0, r15
 1240 004b EF C1                   		mov.L	r12, r1
 1241                             	.LVL110:
 347:../src/tensorflow/lite/micro/kernels/conv.cc ****     op_params.stride_height = params->stride_height;
 1242                             		.loc 1 347 29
 1243 004d D7 0D FC                		mov.W	r13, 504[r0]
 348:../src/tensorflow/lite/micro/kernels/conv.cc ****     op_params.stride_width = params->stride_width;
 1244                             		.loc 1 348 5 is_stmt 1
 348:../src/tensorflow/lite/micro/kernels/conv.cc ****     op_params.stride_width = params->stride_width;
 1245                             		.loc 1 348 28 is_stmt 0
 1246 0050 D7 04 FD                		mov.W	r4, 506[r0]
 349:../src/tensorflow/lite/micro/kernels/conv.cc ****     op_params.dilation_width_factor = params->dilation_width_factor;
 1247                             		.loc 1 349 5 is_stmt 1
 349:../src/tensorflow/lite/micro/kernels/conv.cc ****     op_params.dilation_width_factor = params->dilation_width_factor;
 1248                             		.loc 1 349 38 is_stmt 0
 1249 0053 D7 05 EF                		mov.W	r5, 478[r0]
 350:../src/tensorflow/lite/micro/kernels/conv.cc ****     op_params.padding_values.height = data.padding.height;
 1250                             		.loc 1 350 5 is_stmt 1
 350:../src/tensorflow/lite/micro/kernels/conv.cc ****     op_params.padding_values.height = data.padding.height;
 1251                             		.loc 1 350 37 is_stmt 0
 1252 0056 D7 0A EE                		mov.W	r10, 476[r0]
 351:../src/tensorflow/lite/micro/kernels/conv.cc ****     op_params.padding_values.width = data.padding.width;
 1253                             		.loc 1 351 5 is_stmt 1
 352:../src/tensorflow/lite/micro/kernels/conv.cc ****     op_params.quantized_activation_min = data.output_activation_min;
 1254                             		.loc 1 352 5
 353:../src/tensorflow/lite/micro/kernels/conv.cc ****     op_params.quantized_activation_max = data.output_activation_max;
 1255                             		.loc 1 353 5
 354:../src/tensorflow/lite/micro/kernels/conv.cc **** 
 1256                             		.loc 1 354 5
 356:../src/tensorflow/lite/micro/kernels/conv.cc ****         op_params, data.per_channel_output_multiplier,
 1257                             		.loc 1 356 5
 1258                             		.loc 1 358 69 is_stmt 0
 1259 0059 05 00 00 00             		bsr	__ZN6tflite5micro14GetTensorShapeEPK16TfLiteEvalTensor
 1260                             	.LVL111:
 1261                             	.LBB909:
 1262                             	.LBB910:
 1263                             		.file 5 "C:\\Users\\a5116938\\Desktop\\e2_studio_workspace\\EEMBC_final\\RX65N_Cloud_Kit\\src/tens
   1:C:\Users\a5116938\Desktop\e2_studio_workspace\EEMBC_final\RX65N_Cloud_Kit\src/tensorflow/lite/micro/kernels\kernel_util.h **** /* Copyright 2020 The TensorFlow Authors. All Rights Reserved.
   2:C:\Users\a5116938\Desktop\e2_studio_workspace\EEMBC_final\RX65N_Cloud_Kit\src/tensorflow/lite/micro/kernels\kernel_util.h **** 
   3:C:\Users\a5116938\Desktop\e2_studio_workspace\EEMBC_final\RX65N_Cloud_Kit\src/tensorflow/lite/micro/kernels\kernel_util.h **** Licensed under the Apache License, Version 2.0 (the "License");
   4:C:\Users\a5116938\Desktop\e2_studio_workspace\EEMBC_final\RX65N_Cloud_Kit\src/tensorflow/lite/micro/kernels\kernel_util.h **** you may not use this file except in compliance with the License.
   5:C:\Users\a5116938\Desktop\e2_studio_workspace\EEMBC_final\RX65N_Cloud_Kit\src/tensorflow/lite/micro/kernels\kernel_util.h **** You may obtain a copy of the License at
   6:C:\Users\a5116938\Desktop\e2_studio_workspace\EEMBC_final\RX65N_Cloud_Kit\src/tensorflow/lite/micro/kernels\kernel_util.h **** 
   7:C:\Users\a5116938\Desktop\e2_studio_workspace\EEMBC_final\RX65N_Cloud_Kit\src/tensorflow/lite/micro/kernels\kernel_util.h ****     http://www.apache.org/licenses/LICENSE-2.0
   8:C:\Users\a5116938\Desktop\e2_studio_workspace\EEMBC_final\RX65N_Cloud_Kit\src/tensorflow/lite/micro/kernels\kernel_util.h **** 
   9:C:\Users\a5116938\Desktop\e2_studio_workspace\EEMBC_final\RX65N_Cloud_Kit\src/tensorflow/lite/micro/kernels\kernel_util.h **** Unless required by applicable law or agreed to in writing, software
  10:C:\Users\a5116938\Desktop\e2_studio_workspace\EEMBC_final\RX65N_Cloud_Kit\src/tensorflow/lite/micro/kernels\kernel_util.h **** distributed under the License is distributed on an "AS IS" BASIS,
  11:C:\Users\a5116938\Desktop\e2_studio_workspace\EEMBC_final\RX65N_Cloud_Kit\src/tensorflow/lite/micro/kernels\kernel_util.h **** WITHOUT WARRANTIES OR CONDITIONS OF ANY KIND, either express or implied.
  12:C:\Users\a5116938\Desktop\e2_studio_workspace\EEMBC_final\RX65N_Cloud_Kit\src/tensorflow/lite/micro/kernels\kernel_util.h **** See the License for the specific language governing permissions and
  13:C:\Users\a5116938\Desktop\e2_studio_workspace\EEMBC_final\RX65N_Cloud_Kit\src/tensorflow/lite/micro/kernels\kernel_util.h **** limitations under the License.
  14:C:\Users\a5116938\Desktop\e2_studio_workspace\EEMBC_final\RX65N_Cloud_Kit\src/tensorflow/lite/micro/kernels\kernel_util.h **** ==============================================================================*/
  15:C:\Users\a5116938\Desktop\e2_studio_workspace\EEMBC_final\RX65N_Cloud_Kit\src/tensorflow/lite/micro/kernels\kernel_util.h **** 
  16:C:\Users\a5116938\Desktop\e2_studio_workspace\EEMBC_final\RX65N_Cloud_Kit\src/tensorflow/lite/micro/kernels\kernel_util.h **** #ifndef TENSORFLOW_LITE_MICRO_KERNELS_KERNEL_UTIL_H_
  17:C:\Users\a5116938\Desktop\e2_studio_workspace\EEMBC_final\RX65N_Cloud_Kit\src/tensorflow/lite/micro/kernels\kernel_util.h **** #define TENSORFLOW_LITE_MICRO_KERNELS_KERNEL_UTIL_H_
  18:C:\Users\a5116938\Desktop\e2_studio_workspace\EEMBC_final\RX65N_Cloud_Kit\src/tensorflow/lite/micro/kernels\kernel_util.h **** 
  19:C:\Users\a5116938\Desktop\e2_studio_workspace\EEMBC_final\RX65N_Cloud_Kit\src/tensorflow/lite/micro/kernels\kernel_util.h **** #include <cstdint>
  20:C:\Users\a5116938\Desktop\e2_studio_workspace\EEMBC_final\RX65N_Cloud_Kit\src/tensorflow/lite/micro/kernels\kernel_util.h **** 
  21:C:\Users\a5116938\Desktop\e2_studio_workspace\EEMBC_final\RX65N_Cloud_Kit\src/tensorflow/lite/micro/kernels\kernel_util.h **** #include "tensorflow/lite/c/common.h"
  22:C:\Users\a5116938\Desktop\e2_studio_workspace\EEMBC_final\RX65N_Cloud_Kit\src/tensorflow/lite/micro/kernels\kernel_util.h **** #include "tensorflow/lite/kernels/internal/compatibility.h"
  23:C:\Users\a5116938\Desktop\e2_studio_workspace\EEMBC_final\RX65N_Cloud_Kit\src/tensorflow/lite/micro/kernels\kernel_util.h **** #include "tensorflow/lite/kernels/internal/types.h"
  24:C:\Users\a5116938\Desktop\e2_studio_workspace\EEMBC_final\RX65N_Cloud_Kit\src/tensorflow/lite/micro/kernels\kernel_util.h **** 
  25:C:\Users\a5116938\Desktop\e2_studio_workspace\EEMBC_final\RX65N_Cloud_Kit\src/tensorflow/lite/micro/kernels\kernel_util.h **** namespace tflite {
  26:C:\Users\a5116938\Desktop\e2_studio_workspace\EEMBC_final\RX65N_Cloud_Kit\src/tensorflow/lite/micro/kernels\kernel_util.h **** namespace micro {
  27:C:\Users\a5116938\Desktop\e2_studio_workspace\EEMBC_final\RX65N_Cloud_Kit\src/tensorflow/lite/micro/kernels\kernel_util.h **** 
  28:C:\Users\a5116938\Desktop\e2_studio_workspace\EEMBC_final\RX65N_Cloud_Kit\src/tensorflow/lite/micro/kernels\kernel_util.h **** // Returns a mutable tensor for a given input index. is_variable must be checked
  29:C:\Users\a5116938\Desktop\e2_studio_workspace\EEMBC_final\RX65N_Cloud_Kit\src/tensorflow/lite/micro/kernels\kernel_util.h **** // during prepare when the full TfLiteTensor is available.
  30:C:\Users\a5116938\Desktop\e2_studio_workspace\EEMBC_final\RX65N_Cloud_Kit\src/tensorflow/lite/micro/kernels\kernel_util.h **** inline TfLiteEvalTensor* GetMutableEvalInput(const TfLiteContext* context,
  31:C:\Users\a5116938\Desktop\e2_studio_workspace\EEMBC_final\RX65N_Cloud_Kit\src/tensorflow/lite/micro/kernels\kernel_util.h ****                                              const TfLiteNode* node,
  32:C:\Users\a5116938\Desktop\e2_studio_workspace\EEMBC_final\RX65N_Cloud_Kit\src/tensorflow/lite/micro/kernels\kernel_util.h ****                                              int index) {
  33:C:\Users\a5116938\Desktop\e2_studio_workspace\EEMBC_final\RX65N_Cloud_Kit\src/tensorflow/lite/micro/kernels\kernel_util.h ****   TFLITE_DCHECK(context != nullptr);
  34:C:\Users\a5116938\Desktop\e2_studio_workspace\EEMBC_final\RX65N_Cloud_Kit\src/tensorflow/lite/micro/kernels\kernel_util.h ****   TFLITE_DCHECK(node != nullptr);
  35:C:\Users\a5116938\Desktop\e2_studio_workspace\EEMBC_final\RX65N_Cloud_Kit\src/tensorflow/lite/micro/kernels\kernel_util.h ****   return context->GetEvalTensor(context, node->inputs->data[index]);
  36:C:\Users\a5116938\Desktop\e2_studio_workspace\EEMBC_final\RX65N_Cloud_Kit\src/tensorflow/lite/micro/kernels\kernel_util.h **** }
  37:C:\Users\a5116938\Desktop\e2_studio_workspace\EEMBC_final\RX65N_Cloud_Kit\src/tensorflow/lite/micro/kernels\kernel_util.h **** 
  38:C:\Users\a5116938\Desktop\e2_studio_workspace\EEMBC_final\RX65N_Cloud_Kit\src/tensorflow/lite/micro/kernels\kernel_util.h **** // Returns the TfLiteEvalTensor struct for a given input index in a node.
  39:C:\Users\a5116938\Desktop\e2_studio_workspace\EEMBC_final\RX65N_Cloud_Kit\src/tensorflow/lite/micro/kernels\kernel_util.h **** inline const TfLiteEvalTensor* GetEvalInput(const TfLiteContext* context,
  40:C:\Users\a5116938\Desktop\e2_studio_workspace\EEMBC_final\RX65N_Cloud_Kit\src/tensorflow/lite/micro/kernels\kernel_util.h ****                                             const TfLiteNode* node, int index) {
  41:C:\Users\a5116938\Desktop\e2_studio_workspace\EEMBC_final\RX65N_Cloud_Kit\src/tensorflow/lite/micro/kernels\kernel_util.h ****   return GetMutableEvalInput(context, node, index);
  42:C:\Users\a5116938\Desktop\e2_studio_workspace\EEMBC_final\RX65N_Cloud_Kit\src/tensorflow/lite/micro/kernels\kernel_util.h **** }
  43:C:\Users\a5116938\Desktop\e2_studio_workspace\EEMBC_final\RX65N_Cloud_Kit\src/tensorflow/lite/micro/kernels\kernel_util.h **** 
  44:C:\Users\a5116938\Desktop\e2_studio_workspace\EEMBC_final\RX65N_Cloud_Kit\src/tensorflow/lite/micro/kernels\kernel_util.h **** // Returns the TfLiteEvalTensor struct for a given output index in a node.
  45:C:\Users\a5116938\Desktop\e2_studio_workspace\EEMBC_final\RX65N_Cloud_Kit\src/tensorflow/lite/micro/kernels\kernel_util.h **** inline TfLiteEvalTensor* GetEvalOutput(const TfLiteContext* context,
  46:C:\Users\a5116938\Desktop\e2_studio_workspace\EEMBC_final\RX65N_Cloud_Kit\src/tensorflow/lite/micro/kernels\kernel_util.h ****                                        const TfLiteNode* node, int index) {
  47:C:\Users\a5116938\Desktop\e2_studio_workspace\EEMBC_final\RX65N_Cloud_Kit\src/tensorflow/lite/micro/kernels\kernel_util.h ****   TFLITE_DCHECK(context != nullptr);
  48:C:\Users\a5116938\Desktop\e2_studio_workspace\EEMBC_final\RX65N_Cloud_Kit\src/tensorflow/lite/micro/kernels\kernel_util.h ****   TFLITE_DCHECK(node != nullptr);
  49:C:\Users\a5116938\Desktop\e2_studio_workspace\EEMBC_final\RX65N_Cloud_Kit\src/tensorflow/lite/micro/kernels\kernel_util.h ****   return context->GetEvalTensor(context, node->outputs->data[index]);
  50:C:\Users\a5116938\Desktop\e2_studio_workspace\EEMBC_final\RX65N_Cloud_Kit\src/tensorflow/lite/micro/kernels\kernel_util.h **** }
  51:C:\Users\a5116938\Desktop\e2_studio_workspace\EEMBC_final\RX65N_Cloud_Kit\src/tensorflow/lite/micro/kernels\kernel_util.h **** 
  52:C:\Users\a5116938\Desktop\e2_studio_workspace\EEMBC_final\RX65N_Cloud_Kit\src/tensorflow/lite/micro/kernels\kernel_util.h **** // Returns data for a TfLiteEvalTensor struct.
  53:C:\Users\a5116938\Desktop\e2_studio_workspace\EEMBC_final\RX65N_Cloud_Kit\src/tensorflow/lite/micro/kernels\kernel_util.h **** template <typename T>
  54:C:\Users\a5116938\Desktop\e2_studio_workspace\EEMBC_final\RX65N_Cloud_Kit\src/tensorflow/lite/micro/kernels\kernel_util.h **** T* GetTensorData(TfLiteEvalTensor* tensor) {
  55:C:\Users\a5116938\Desktop\e2_studio_workspace\EEMBC_final\RX65N_Cloud_Kit\src/tensorflow/lite/micro/kernels\kernel_util.h ****   return tensor != nullptr ? reinterpret_cast<T*>(tensor->data.raw) : nullptr;
  56:C:\Users\a5116938\Desktop\e2_studio_workspace\EEMBC_final\RX65N_Cloud_Kit\src/tensorflow/lite/micro/kernels\kernel_util.h **** }
  57:C:\Users\a5116938\Desktop\e2_studio_workspace\EEMBC_final\RX65N_Cloud_Kit\src/tensorflow/lite/micro/kernels\kernel_util.h **** 
  58:C:\Users\a5116938\Desktop\e2_studio_workspace\EEMBC_final\RX65N_Cloud_Kit\src/tensorflow/lite/micro/kernels\kernel_util.h **** // Returns const data for a TfLiteEvalTensor struct.
  59:C:\Users\a5116938\Desktop\e2_studio_workspace\EEMBC_final\RX65N_Cloud_Kit\src/tensorflow/lite/micro/kernels\kernel_util.h **** template <typename T>
  60:C:\Users\a5116938\Desktop\e2_studio_workspace\EEMBC_final\RX65N_Cloud_Kit\src/tensorflow/lite/micro/kernels\kernel_util.h **** const T* GetTensorData(const TfLiteEvalTensor* tensor) {
  61:C:\Users\a5116938\Desktop\e2_studio_workspace\EEMBC_final\RX65N_Cloud_Kit\src/tensorflow/lite/micro/kernels\kernel_util.h ****   TFLITE_DCHECK(tensor != nullptr);
 1264                             		.loc 5 61 3
 1265 005d 61 0C                   		cmp	#0, r12
 1266 005f 3A 95 04                		beq	.L59
 1267                             	.LBE910:
 1268                             	.LBE909:
 359:../src/tensorflow/lite/micro/kernels/conv.cc ****         tflite::micro::GetTensorData<int8_t>(input),
 360:../src/tensorflow/lite/micro/kernels/conv.cc ****         tflite::micro::GetTensorShape(filter),
 1269                             		.loc 1 360 38
 1270 0062 71 0F 5C                		add	#0x5c, r0, r15
 1271 0065 EF 91                   		mov.L	r9, r1
 1272                             	.LBB912:
 1273                             	.LBB911:
  62:C:\Users\a5116938\Desktop\e2_studio_workspace\EEMBC_final\RX65N_Cloud_Kit\src/tensorflow/lite/micro/kernels\kernel_util.h ****   return reinterpret_cast<const T*>(tensor->data.raw);
 1274                             		.loc 5 62 53
 1275 0067 E4 C0 78                		mov.L	[r12], 480[r0]
 1276                             	.LVL112:
 1277                             	.LBE911:
 1278                             	.LBE912:
 1279                             		.loc 1 360 38
 1280 006a 05 00 00 00             		bsr	__ZN6tflite5micro14GetTensorShapeEPK16TfLiteEvalTensor
 1281                             	.LVL113:
 1282                             	.LBB913:
 1283                             	.LBB914:
  61:C:\Users\a5116938\Desktop\e2_studio_workspace\EEMBC_final\RX65N_Cloud_Kit\src/tensorflow/lite/micro/kernels\kernel_util.h ****   return reinterpret_cast<const T*>(tensor->data.raw);
 1284                             		.loc 5 61 3
 1285 006e 61 09                   		cmp	#0, r9
 1286 0070 3A 84 04                		beq	.L59
 1287                             	.LBE914:
 1288                             	.LBE913:
 361:../src/tensorflow/lite/micro/kernels/conv.cc ****         tflite::micro::GetTensorData<int8_t>(filter),
 362:../src/tensorflow/lite/micro/kernels/conv.cc ****         tflite::micro::GetTensorShape(bias),
 1289                             		.loc 1 362 38
 1290 0073 71 0F 74                		add	#0x74, r0, r15
 1291 0076 EF 61                   		mov.L	r6, r1
 1292                             	.LBB916:
 1293                             	.LBB915:
 1294                             		.loc 5 62 53
 1295 0078 E4 90 79                		mov.L	[r9], 484[r0]
 1296                             	.LVL114:
 1297                             	.LBE915:
 1298                             	.LBE916:
 1299                             		.loc 1 362 38
 1300 007b 05 00 00 00             		bsr	__ZN6tflite5micro14GetTensorShapeEPK16TfLiteEvalTensor
 1301                             	.LVL115:
 1302                             	.LBB917:
 1303                             	.LBB918:
  61:C:\Users\a5116938\Desktop\e2_studio_workspace\EEMBC_final\RX65N_Cloud_Kit\src/tensorflow/lite/micro/kernels\kernel_util.h ****   return reinterpret_cast<const T*>(tensor->data.raw);
 1304                             		.loc 5 61 3
 1305 007f 61 06                   		cmp	#0, r6
 1306 0081 3A 73 04                		beq	.L59
 1307                             	.LBE918:
 1308                             	.LBE917:
 363:../src/tensorflow/lite/micro/kernels/conv.cc ****         tflite::micro::GetTensorData<int32_t>(bias),
 364:../src/tensorflow/lite/micro/kernels/conv.cc ****         tflite::micro::GetTensorShape(output),
 1309                             		.loc 1 364 38
 1310 0084 72 0F 8C 00             		add	#0x8c, r0, r15
 1311 0088 EF 81                   		mov.L	r8, r1
 1312                             	.LBB920:
 1313                             	.LBB919:
 1314                             		.loc 5 62 53
 1315 008a E4 60 56                		mov.L	[r6], 344[r0]
 1316                             	.LVL116:
 1317                             	.LBE919:
 1318                             	.LBE920:
 1319                             		.loc 1 364 38
 1320 008d 05 00 00 00             		bsr	__ZN6tflite5micro14GetTensorShapeEPK16TfLiteEvalTensor
 1321                             	.LVL117:
 1322                             	.LBB921:
 1323                             	.LBB922:
  55:C:\Users\a5116938\Desktop\e2_studio_workspace\EEMBC_final\RX65N_Cloud_Kit\src/tensorflow/lite/micro/kernels\kernel_util.h **** }
 1324                             		.loc 5 55 28
 1325 0091 61 08                   		cmp	#0, r8
 1326 0093 13                      		beq	.L72
 1327 0094 EC 88                   		mov.L	[r8], r8
 1328                             	.LVL118:
 1329                             		.balign 8,3,1
 1330                             	.L72:
 1331                             	.LBE922:
 1332                             	.LBE921:
 1333                             	.LBB923:
 1334                             	.LBB924:
 1335                             		.file 6 "C:\\Users\\a5116938\\Desktop\\e2_studio_workspace\\EEMBC_final\\RX65N_Cloud_Kit\\src/tens
   1:C:\Users\a5116938\Desktop\e2_studio_workspace\EEMBC_final\RX65N_Cloud_Kit\src/tensorflow/lite/kernels/internal/reference/integer_ops\conv.h **** /* Copyright 2019 The TensorFlow Authors. All Rights Reserved.
   2:C:\Users\a5116938\Desktop\e2_studio_workspace\EEMBC_final\RX65N_Cloud_Kit\src/tensorflow/lite/kernels/internal/reference/integer_ops\conv.h **** 
   3:C:\Users\a5116938\Desktop\e2_studio_workspace\EEMBC_final\RX65N_Cloud_Kit\src/tensorflow/lite/kernels/internal/reference/integer_ops\conv.h **** Licensed under the Apache License, Version 2.0 (the "License");
   4:C:\Users\a5116938\Desktop\e2_studio_workspace\EEMBC_final\RX65N_Cloud_Kit\src/tensorflow/lite/kernels/internal/reference/integer_ops\conv.h **** you may not use this file except in compliance with the License.
   5:C:\Users\a5116938\Desktop\e2_studio_workspace\EEMBC_final\RX65N_Cloud_Kit\src/tensorflow/lite/kernels/internal/reference/integer_ops\conv.h **** You may obtain a copy of the License at
   6:C:\Users\a5116938\Desktop\e2_studio_workspace\EEMBC_final\RX65N_Cloud_Kit\src/tensorflow/lite/kernels/internal/reference/integer_ops\conv.h **** 
   7:C:\Users\a5116938\Desktop\e2_studio_workspace\EEMBC_final\RX65N_Cloud_Kit\src/tensorflow/lite/kernels/internal/reference/integer_ops\conv.h ****     http://www.apache.org/licenses/LICENSE-2.0
   8:C:\Users\a5116938\Desktop\e2_studio_workspace\EEMBC_final\RX65N_Cloud_Kit\src/tensorflow/lite/kernels/internal/reference/integer_ops\conv.h **** 
   9:C:\Users\a5116938\Desktop\e2_studio_workspace\EEMBC_final\RX65N_Cloud_Kit\src/tensorflow/lite/kernels/internal/reference/integer_ops\conv.h **** Unless required by applicable law or agreed to in writing, software
  10:C:\Users\a5116938\Desktop\e2_studio_workspace\EEMBC_final\RX65N_Cloud_Kit\src/tensorflow/lite/kernels/internal/reference/integer_ops\conv.h **** distributed under the License is distributed on an "AS IS" BASIS,
  11:C:\Users\a5116938\Desktop\e2_studio_workspace\EEMBC_final\RX65N_Cloud_Kit\src/tensorflow/lite/kernels/internal/reference/integer_ops\conv.h **** WITHOUT WARRANTIES OR CONDITIONS OF ANY KIND, either express or implied.
  12:C:\Users\a5116938\Desktop\e2_studio_workspace\EEMBC_final\RX65N_Cloud_Kit\src/tensorflow/lite/kernels/internal/reference/integer_ops\conv.h **** See the License for the specific language governing permissions and
  13:C:\Users\a5116938\Desktop\e2_studio_workspace\EEMBC_final\RX65N_Cloud_Kit\src/tensorflow/lite/kernels/internal/reference/integer_ops\conv.h **** limitations under the License.
  14:C:\Users\a5116938\Desktop\e2_studio_workspace\EEMBC_final\RX65N_Cloud_Kit\src/tensorflow/lite/kernels/internal/reference/integer_ops\conv.h **** ==============================================================================*/
  15:C:\Users\a5116938\Desktop\e2_studio_workspace\EEMBC_final\RX65N_Cloud_Kit\src/tensorflow/lite/kernels/internal/reference/integer_ops\conv.h **** #ifndef TENSORFLOW_LITE_KERNELS_INTERNAL_REFERENCE_INTEGER_OPS_CONV_H_
  16:C:\Users\a5116938\Desktop\e2_studio_workspace\EEMBC_final\RX65N_Cloud_Kit\src/tensorflow/lite/kernels/internal/reference/integer_ops\conv.h **** #define TENSORFLOW_LITE_KERNELS_INTERNAL_REFERENCE_INTEGER_OPS_CONV_H_
  17:C:\Users\a5116938\Desktop\e2_studio_workspace\EEMBC_final\RX65N_Cloud_Kit\src/tensorflow/lite/kernels/internal/reference/integer_ops\conv.h **** 
  18:C:\Users\a5116938\Desktop\e2_studio_workspace\EEMBC_final\RX65N_Cloud_Kit\src/tensorflow/lite/kernels/internal/reference/integer_ops\conv.h **** #include "tensorflow/lite/kernels/internal/common.h"
  19:C:\Users\a5116938\Desktop\e2_studio_workspace\EEMBC_final\RX65N_Cloud_Kit\src/tensorflow/lite/kernels/internal/reference/integer_ops\conv.h **** 
  20:C:\Users\a5116938\Desktop\e2_studio_workspace\EEMBC_final\RX65N_Cloud_Kit\src/tensorflow/lite/kernels/internal/reference/integer_ops\conv.h **** namespace tflite {
  21:C:\Users\a5116938\Desktop\e2_studio_workspace\EEMBC_final\RX65N_Cloud_Kit\src/tensorflow/lite/kernels/internal/reference/integer_ops\conv.h **** namespace reference_integer_ops {
  22:C:\Users\a5116938\Desktop\e2_studio_workspace\EEMBC_final\RX65N_Cloud_Kit\src/tensorflow/lite/kernels/internal/reference/integer_ops\conv.h **** 
  23:C:\Users\a5116938\Desktop\e2_studio_workspace\EEMBC_final\RX65N_Cloud_Kit\src/tensorflow/lite/kernels/internal/reference/integer_ops\conv.h **** // Fixed-point per-channel-quantization convolution reference kernel.
  24:C:\Users\a5116938\Desktop\e2_studio_workspace\EEMBC_final\RX65N_Cloud_Kit\src/tensorflow/lite/kernels/internal/reference/integer_ops\conv.h **** inline void ConvPerChannel(
  25:C:\Users\a5116938\Desktop\e2_studio_workspace\EEMBC_final\RX65N_Cloud_Kit\src/tensorflow/lite/kernels/internal/reference/integer_ops\conv.h ****     const ConvParams& params, const int32_t* output_multiplier,
  26:C:\Users\a5116938\Desktop\e2_studio_workspace\EEMBC_final\RX65N_Cloud_Kit\src/tensorflow/lite/kernels/internal/reference/integer_ops\conv.h ****     const int32_t* output_shift, const RuntimeShape& input_shape,
  27:C:\Users\a5116938\Desktop\e2_studio_workspace\EEMBC_final\RX65N_Cloud_Kit\src/tensorflow/lite/kernels/internal/reference/integer_ops\conv.h ****     const int8_t* input_data, const RuntimeShape& filter_shape,
  28:C:\Users\a5116938\Desktop\e2_studio_workspace\EEMBC_final\RX65N_Cloud_Kit\src/tensorflow/lite/kernels/internal/reference/integer_ops\conv.h ****     const int8_t* filter_data, const RuntimeShape& bias_shape,
  29:C:\Users\a5116938\Desktop\e2_studio_workspace\EEMBC_final\RX65N_Cloud_Kit\src/tensorflow/lite/kernels/internal/reference/integer_ops\conv.h ****     const int32_t* bias_data, const RuntimeShape& output_shape,
  30:C:\Users\a5116938\Desktop\e2_studio_workspace\EEMBC_final\RX65N_Cloud_Kit\src/tensorflow/lite/kernels/internal/reference/integer_ops\conv.h ****     int8_t* output_data) {
  31:C:\Users\a5116938\Desktop\e2_studio_workspace\EEMBC_final\RX65N_Cloud_Kit\src/tensorflow/lite/kernels/internal/reference/integer_ops\conv.h ****   // Get parameters.
  32:C:\Users\a5116938\Desktop\e2_studio_workspace\EEMBC_final\RX65N_Cloud_Kit\src/tensorflow/lite/kernels/internal/reference/integer_ops\conv.h ****   const int32_t input_offset = params.input_offset;  // r = s(q - Z)
 1336                             		.loc 6 32 3 is_stmt 1
  33:C:\Users\a5116938\Desktop\e2_studio_workspace\EEMBC_final\RX65N_Cloud_Kit\src/tensorflow/lite/kernels/internal/reference/integer_ops\conv.h ****   const int stride_width = params.stride_width;
 1337                             		.loc 6 33 3
  34:C:\Users\a5116938\Desktop\e2_studio_workspace\EEMBC_final\RX65N_Cloud_Kit\src/tensorflow/lite/kernels/internal/reference/integer_ops\conv.h ****   const int stride_height = params.stride_height;
 1338                             		.loc 6 34 3
  35:C:\Users\a5116938\Desktop\e2_studio_workspace\EEMBC_final\RX65N_Cloud_Kit\src/tensorflow/lite/kernels/internal/reference/integer_ops\conv.h ****   const int dilation_width_factor = params.dilation_width_factor;
 1339                             		.loc 6 35 3
  36:C:\Users\a5116938\Desktop\e2_studio_workspace\EEMBC_final\RX65N_Cloud_Kit\src/tensorflow/lite/kernels/internal/reference/integer_ops\conv.h ****   const int dilation_height_factor = params.dilation_height_factor;
 1340                             		.loc 6 36 3
  37:C:\Users\a5116938\Desktop\e2_studio_workspace\EEMBC_final\RX65N_Cloud_Kit\src/tensorflow/lite/kernels/internal/reference/integer_ops\conv.h ****   const int pad_width = params.padding_values.width;
 1341                             		.loc 6 37 3
 1342                             		.loc 6 37 13 is_stmt 0
 1343 0096 DF BB                   		mov.W	r11, r11
 1344 0098 E7 0B 7D                		mov.L	r11, 500[r0]
 1345                             	.LVL119:
  38:C:\Users\a5116938\Desktop\e2_studio_workspace\EEMBC_final\RX65N_Cloud_Kit\src/tensorflow/lite/kernels/internal/reference/integer_ops\conv.h ****   const int pad_height = params.padding_values.height;
 1346                             		.loc 6 38 3 is_stmt 1
 1347                             		.loc 6 38 13 is_stmt 0
 1348 009b DF 77                   		mov.W	r7, r7
 1349 009d E7 07 7F                		mov.L	r7, 508[r0]
 1350                             	.LVL120:
  39:C:\Users\a5116938\Desktop\e2_studio_workspace\EEMBC_final\RX65N_Cloud_Kit\src/tensorflow/lite/kernels/internal/reference/integer_ops\conv.h ****   const int32_t output_offset = params.output_offset;
 1351                             		.loc 6 39 3 is_stmt 1
  40:C:\Users\a5116938\Desktop\e2_studio_workspace\EEMBC_final\RX65N_Cloud_Kit\src/tensorflow/lite/kernels/internal/reference/integer_ops\conv.h **** 
  41:C:\Users\a5116938\Desktop\e2_studio_workspace\EEMBC_final\RX65N_Cloud_Kit\src/tensorflow/lite/kernels/internal/reference/integer_ops\conv.h ****   // Set min and max value of the output.
  42:C:\Users\a5116938\Desktop\e2_studio_workspace\EEMBC_final\RX65N_Cloud_Kit\src/tensorflow/lite/kernels/internal/reference/integer_ops\conv.h ****   const int32_t output_activation_min = params.quantized_activation_min;
 1352                             		.loc 6 42 3
  43:C:\Users\a5116938\Desktop\e2_studio_workspace\EEMBC_final\RX65N_Cloud_Kit\src/tensorflow/lite/kernels/internal/reference/integer_ops\conv.h ****   const int32_t output_activation_max = params.quantized_activation_max;
 1353                             		.loc 6 43 3
  44:C:\Users\a5116938\Desktop\e2_studio_workspace\EEMBC_final\RX65N_Cloud_Kit\src/tensorflow/lite/kernels/internal/reference/integer_ops\conv.h **** 
  45:C:\Users\a5116938\Desktop\e2_studio_workspace\EEMBC_final\RX65N_Cloud_Kit\src/tensorflow/lite/kernels/internal/reference/integer_ops\conv.h ****   // Consistency check.
  46:C:\Users\a5116938\Desktop\e2_studio_workspace\EEMBC_final\RX65N_Cloud_Kit\src/tensorflow/lite/kernels/internal/reference/integer_ops\conv.h ****   TFLITE_DCHECK_LE(output_activation_min, output_activation_max);
 1354                             		.loc 6 46 3
 1355 00a0 ED 02 58                		mov.L	352[r0], r2
 1356 00a3 ED 03 60                		mov.L	384[r0], r3
 1357 00a6 47 32                   		cmp	r3, r2
 1358 00a8 2B 05 38 4A 04          		bgt	.L59
  47:C:\Users\a5116938\Desktop\e2_studio_workspace\EEMBC_final\RX65N_Cloud_Kit\src/tensorflow/lite/kernels/internal/reference/integer_ops\conv.h ****   TFLITE_DCHECK_EQ(input_shape.DimensionsCount(), 4);
 1359                             		.loc 6 47 3
 1360                             	.LVL121:
 1361                             	.LBE924:
 1362                             	.LBE923:
 1363                             	.LBE908:
 1364                             	.LBE907:
 194:C:\Users\a5116938\Desktop\e2_studio_workspace\EEMBC_final\RX65N_Cloud_Kit\src/tensorflow/lite/kernels/internal\types.h ****   inline int32_t Dims(int i) const {
 1365                             		.loc 3 194 44
 1366                             	.LBB1335:
 1367                             	.LBB1248:
 1368                             	.LBB1222:
 1369                             	.LBB1204:
 1370                             		.loc 6 47 3 is_stmt 0
 1371 00ad AC 0F                   		mov.L	68[r0], r7
 1372                             	.LVL122:
 1373 00af 61 47                   		cmp	#4, r7
 1374 00b1 3B 43 04                		bne	.L59
  48:C:\Users\a5116938\Desktop\e2_studio_workspace\EEMBC_final\RX65N_Cloud_Kit\src/tensorflow/lite/kernels/internal/reference/integer_ops\conv.h ****   TFLITE_DCHECK_EQ(filter_shape.DimensionsCount(), 4);
 1375                             		.loc 6 48 3 is_stmt 1
 1376                             	.LVL123:
 1377                             	.LBE1204:
 1378                             	.LBE1222:
 1379                             	.LBE1248:
 1380                             	.LBE1335:
 194:C:\Users\a5116938\Desktop\e2_studio_workspace\EEMBC_final\RX65N_Cloud_Kit\src/tensorflow/lite/kernels/internal\types.h ****   inline int32_t Dims(int i) const {
 1381                             		.loc 3 194 44
 1382                             	.LBB1336:
 1383                             	.LBB1249:
 1384                             	.LBB1223:
 1385                             	.LBB1205:
 1386                             		.loc 6 48 3 is_stmt 0
 1387 00b4 AD 8F                   		mov.L	92[r0], r7
 1388 00b6 61 47                   		cmp	#4, r7
 1389 00b8 3B 3C 04                		bne	.L59
  49:C:\Users\a5116938\Desktop\e2_studio_workspace\EEMBC_final\RX65N_Cloud_Kit\src/tensorflow/lite/kernels/internal/reference/integer_ops\conv.h ****   TFLITE_DCHECK_EQ(output_shape.DimensionsCount(), 4);
 1390                             		.loc 6 49 3 is_stmt 1
 1391                             	.LVL124:
 1392                             	.LBE1205:
 1393                             	.LBE1223:
 1394                             	.LBE1249:
 1395                             	.LBE1336:
 194:C:\Users\a5116938\Desktop\e2_studio_workspace\EEMBC_final\RX65N_Cloud_Kit\src/tensorflow/lite/kernels/internal\types.h ****   inline int32_t Dims(int i) const {
 1396                             		.loc 3 194 44
 1397                             	.LBB1337:
 1398                             	.LBB1250:
 1399                             	.LBB1224:
 1400                             	.LBB1206:
 1401                             		.loc 6 49 3 is_stmt 0
 1402 00bb ED 07 23                		mov.L	140[r0], r7
 1403 00be 61 47                   		cmp	#4, r7
 1404 00c0 3B 34 04                		bne	.L59
  50:C:\Users\a5116938\Desktop\e2_studio_workspace\EEMBC_final\RX65N_Cloud_Kit\src/tensorflow/lite/kernels/internal/reference/integer_ops\conv.h ****   const int batches = MatchingDim(input_shape, 0, output_shape, 0);
 1405                             		.loc 6 50 3 is_stmt 1
 1406                             	.LVL125:
 1407                             	.LBB925:
 1408                             	.LBB926:
 1409                             		.loc 3 440 3
 1410                             	.LBB927:
 1411                             	.LBB928:
 196:C:\Users\a5116938\Desktop\e2_studio_workspace\EEMBC_final\RX65N_Cloud_Kit\src/tensorflow/lite/kernels/internal\types.h ****     TFLITE_DCHECK_LT(i, size_);
 1412                             		.loc 3 196 5
 197:C:\Users\a5116938\Desktop\e2_studio_workspace\EEMBC_final\RX65N_Cloud_Kit\src/tensorflow/lite/kernels/internal\types.h ****     return size_ > kMaxSmallSize ? dims_pointer_[i] : dims_[i];
 1413                             		.loc 3 197 5
 198:C:\Users\a5116938\Desktop\e2_studio_workspace\EEMBC_final\RX65N_Cloud_Kit\src/tensorflow/lite/kernels/internal\types.h ****   }
 1414                             		.loc 3 198 5
 1415                             	.LBE928:
 1416                             	.LBE927:
 1417                             	.LBB929:
 1418                             	.LBB930:
 196:C:\Users\a5116938\Desktop\e2_studio_workspace\EEMBC_final\RX65N_Cloud_Kit\src/tensorflow/lite/kernels/internal\types.h ****     TFLITE_DCHECK_LT(i, size_);
 1419                             		.loc 3 196 5
 197:C:\Users\a5116938\Desktop\e2_studio_workspace\EEMBC_final\RX65N_Cloud_Kit\src/tensorflow/lite/kernels/internal\types.h ****     return size_ > kMaxSmallSize ? dims_pointer_[i] : dims_[i];
 1420                             		.loc 3 197 5
 198:C:\Users\a5116938\Desktop\e2_studio_workspace\EEMBC_final\RX65N_Cloud_Kit\src/tensorflow/lite/kernels/internal\types.h ****   }
 1421                             		.loc 3 198 5
 198:C:\Users\a5116938\Desktop\e2_studio_workspace\EEMBC_final\RX65N_Cloud_Kit\src/tensorflow/lite/kernels/internal\types.h ****   }
 1422                             		.loc 3 198 34 is_stmt 0
 1423 00c3 E5 00 24 65             		mov.L	144[r0], 404[r0]
 1424                             	.LVL126:
 1425                             	.LBE930:
 1426                             	.LBE929:
 1427                             		.loc 3 440 3
 1428 00c7 ED 04 65                		mov.L	404[r0], r4
 1429 00ca 06 85 04 12             		cmp	72[r0].L, r4
 1430 00ce 3B 26 04                		bne	.L59
 441:C:\Users\a5116938\Desktop\e2_studio_workspace\EEMBC_final\RX65N_Cloud_Kit\src/tensorflow/lite/kernels/internal\types.h ****   return std::min(shape1.Dims(index1), shape2.Dims(index2));
 1431                             		.loc 3 441 3 is_stmt 1
 1432                             	.LVL127:
 1433                             	.LBE926:
 1434                             	.LBE925:
 1435                             	.LBE1206:
 1436                             	.LBE1224:
 1437                             	.LBE1250:
 1438                             	.LBE1337:
 196:C:\Users\a5116938\Desktop\e2_studio_workspace\EEMBC_final\RX65N_Cloud_Kit\src/tensorflow/lite/kernels/internal\types.h ****     TFLITE_DCHECK_LT(i, size_);
 1439                             		.loc 3 196 5
 197:C:\Users\a5116938\Desktop\e2_studio_workspace\EEMBC_final\RX65N_Cloud_Kit\src/tensorflow/lite/kernels/internal\types.h ****     return size_ > kMaxSmallSize ? dims_pointer_[i] : dims_[i];
 1440                             		.loc 3 197 5
 198:C:\Users\a5116938\Desktop\e2_studio_workspace\EEMBC_final\RX65N_Cloud_Kit\src/tensorflow/lite/kernels/internal\types.h ****   }
 1441                             		.loc 3 198 5
 1442                             	.LBB1338:
 1443                             	.LBB1251:
 1444                             	.LBB1225:
 1445                             	.LBB1207:
  51:C:\Users\a5116938\Desktop\e2_studio_workspace\EEMBC_final\RX65N_Cloud_Kit\src/tensorflow/lite/kernels/internal/reference/integer_ops\conv.h ****   const int input_depth = MatchingDim(input_shape, 3, filter_shape, 3);
 1446                             		.loc 6 51 3
 1447                             	.LBB931:
 1448                             	.LBB932:
 440:C:\Users\a5116938\Desktop\e2_studio_workspace\EEMBC_final\RX65N_Cloud_Kit\src/tensorflow/lite/kernels/internal\types.h ****   return std::min(shape1.Dims(index1), shape2.Dims(index2));
 1449                             		.loc 3 440 3
 1450                             	.LBB933:
 1451                             	.LBB934:
 196:C:\Users\a5116938\Desktop\e2_studio_workspace\EEMBC_final\RX65N_Cloud_Kit\src/tensorflow/lite/kernels/internal\types.h ****     TFLITE_DCHECK_LT(i, size_);
 1452                             		.loc 3 196 5
 197:C:\Users\a5116938\Desktop\e2_studio_workspace\EEMBC_final\RX65N_Cloud_Kit\src/tensorflow/lite/kernels/internal\types.h ****     return size_ > kMaxSmallSize ? dims_pointer_[i] : dims_[i];
 1453                             		.loc 3 197 5
 198:C:\Users\a5116938\Desktop\e2_studio_workspace\EEMBC_final\RX65N_Cloud_Kit\src/tensorflow/lite/kernels/internal\types.h ****   }
 1454                             		.loc 3 198 5
 198:C:\Users\a5116938\Desktop\e2_studio_workspace\EEMBC_final\RX65N_Cloud_Kit\src/tensorflow/lite/kernels/internal\types.h ****   }
 1455                             		.loc 3 198 34 is_stmt 0
 1456 00d1 E5 00 15 57             		mov.L	84[r0], 348[r0]
 1457                             	.LVL128:
 1458                             	.LBE934:
 1459                             	.LBE933:
 1460                             	.LBB935:
 1461                             	.LBB936:
 196:C:\Users\a5116938\Desktop\e2_studio_workspace\EEMBC_final\RX65N_Cloud_Kit\src/tensorflow/lite/kernels/internal\types.h ****     TFLITE_DCHECK_LT(i, size_);
 1462                             		.loc 3 196 5 is_stmt 1
 197:C:\Users\a5116938\Desktop\e2_studio_workspace\EEMBC_final\RX65N_Cloud_Kit\src/tensorflow/lite/kernels/internal\types.h ****     return size_ > kMaxSmallSize ? dims_pointer_[i] : dims_[i];
 1463                             		.loc 3 197 5
 198:C:\Users\a5116938\Desktop\e2_studio_workspace\EEMBC_final\RX65N_Cloud_Kit\src/tensorflow/lite/kernels/internal\types.h ****   }
 1464                             		.loc 3 198 5
 1465                             	.LBE936:
 1466                             	.LBE935:
 440:C:\Users\a5116938\Desktop\e2_studio_workspace\EEMBC_final\RX65N_Cloud_Kit\src/tensorflow/lite/kernels/internal\types.h ****   return std::min(shape1.Dims(index1), shape2.Dims(index2));
 1467                             		.loc 3 440 3 is_stmt 0
 1468 00d5 AE 8F                   		mov.L	108[r0], r7
 1469 00d7 ED 06 57                		mov.L	348[r0], r6
 1470 00da 47 67                   		cmp	r6, r7
 1471 00dc 3B 18 04                		bne	.L59
 1472                             		.loc 3 441 3 is_stmt 1
 1473                             	.LVL129:
 1474                             	.LBE932:
 1475                             	.LBE931:
 1476                             	.LBE1207:
 1477                             	.LBE1225:
 1478                             	.LBE1251:
 1479                             	.LBE1338:
 196:C:\Users\a5116938\Desktop\e2_studio_workspace\EEMBC_final\RX65N_Cloud_Kit\src/tensorflow/lite/kernels/internal\types.h ****     TFLITE_DCHECK_LT(i, size_);
 1480                             		.loc 3 196 5
 197:C:\Users\a5116938\Desktop\e2_studio_workspace\EEMBC_final\RX65N_Cloud_Kit\src/tensorflow/lite/kernels/internal\types.h ****     return size_ > kMaxSmallSize ? dims_pointer_[i] : dims_[i];
 1481                             		.loc 3 197 5
 198:C:\Users\a5116938\Desktop\e2_studio_workspace\EEMBC_final\RX65N_Cloud_Kit\src/tensorflow/lite/kernels/internal\types.h ****   }
 1482                             		.loc 3 198 5
 1483                             	.LBB1339:
 1484                             	.LBB1252:
 1485                             	.LBB1226:
 1486                             	.LBB1208:
  52:C:\Users\a5116938\Desktop\e2_studio_workspace\EEMBC_final\RX65N_Cloud_Kit\src/tensorflow/lite/kernels/internal/reference/integer_ops\conv.h ****   const int output_depth = MatchingDim(filter_shape, 0, output_shape, 3);
 1487                             		.loc 6 52 3
 1488                             	.LBB937:
 1489                             	.LBB938:
 440:C:\Users\a5116938\Desktop\e2_studio_workspace\EEMBC_final\RX65N_Cloud_Kit\src/tensorflow/lite/kernels/internal\types.h ****   return std::min(shape1.Dims(index1), shape2.Dims(index2));
 1490                             		.loc 3 440 3
 1491                             	.LBB939:
 1492                             	.LBB940:
 196:C:\Users\a5116938\Desktop\e2_studio_workspace\EEMBC_final\RX65N_Cloud_Kit\src/tensorflow/lite/kernels/internal\types.h ****     TFLITE_DCHECK_LT(i, size_);
 1493                             		.loc 3 196 5
 197:C:\Users\a5116938\Desktop\e2_studio_workspace\EEMBC_final\RX65N_Cloud_Kit\src/tensorflow/lite/kernels/internal\types.h ****     return size_ > kMaxSmallSize ? dims_pointer_[i] : dims_[i];
 1494                             		.loc 3 197 5
 198:C:\Users\a5116938\Desktop\e2_studio_workspace\EEMBC_final\RX65N_Cloud_Kit\src/tensorflow/lite/kernels/internal\types.h ****   }
 1495                             		.loc 3 198 5
 198:C:\Users\a5116938\Desktop\e2_studio_workspace\EEMBC_final\RX65N_Cloud_Kit\src/tensorflow/lite/kernels/internal\types.h ****   }
 1496                             		.loc 3 198 34 is_stmt 0
 1497 00df ED 0D 18                		mov.L	96[r0], r13
 1498                             	.LVL130:
 1499                             	.LBE940:
 1500                             	.LBE939:
 1501                             	.LBB941:
 1502                             	.LBB942:
 196:C:\Users\a5116938\Desktop\e2_studio_workspace\EEMBC_final\RX65N_Cloud_Kit\src/tensorflow/lite/kernels/internal\types.h ****     TFLITE_DCHECK_LT(i, size_);
 1503                             		.loc 3 196 5 is_stmt 1
 197:C:\Users\a5116938\Desktop\e2_studio_workspace\EEMBC_final\RX65N_Cloud_Kit\src/tensorflow/lite/kernels/internal\types.h ****     return size_ > kMaxSmallSize ? dims_pointer_[i] : dims_[i];
 1504                             		.loc 3 197 5
 198:C:\Users\a5116938\Desktop\e2_studio_workspace\EEMBC_final\RX65N_Cloud_Kit\src/tensorflow/lite/kernels/internal\types.h ****   }
 1505                             		.loc 3 198 5
 1506                             	.LBE942:
 1507                             	.LBE941:
 440:C:\Users\a5116938\Desktop\e2_studio_workspace\EEMBC_final\RX65N_Cloud_Kit\src/tensorflow/lite/kernels/internal\types.h ****   return std::min(shape1.Dims(index1), shape2.Dims(index2));
 1508                             		.loc 3 440 3 is_stmt 0
 1509 00e2 ED 07 27                		mov.L	156[r0], r7
 1510 00e5 47 D7                   		cmp	r13, r7
 1511 00e7 3B 0D 04                		bne	.L59
 1512                             		.loc 3 441 3 is_stmt 1
 1513                             	.LVL131:
 1514                             	.LBE938:
 1515                             	.LBE937:
 1516                             	.LBE1208:
 1517                             	.LBE1226:
 1518                             	.LBE1252:
 1519                             	.LBE1339:
 196:C:\Users\a5116938\Desktop\e2_studio_workspace\EEMBC_final\RX65N_Cloud_Kit\src/tensorflow/lite/kernels/internal\types.h ****     TFLITE_DCHECK_LT(i, size_);
 1520                             		.loc 3 196 5
 197:C:\Users\a5116938\Desktop\e2_studio_workspace\EEMBC_final\RX65N_Cloud_Kit\src/tensorflow/lite/kernels/internal\types.h ****     return size_ > kMaxSmallSize ? dims_pointer_[i] : dims_[i];
 1521                             		.loc 3 197 5
 198:C:\Users\a5116938\Desktop\e2_studio_workspace\EEMBC_final\RX65N_Cloud_Kit\src/tensorflow/lite/kernels/internal\types.h ****   }
 1522                             		.loc 3 198 5
 1523                             	.LBB1340:
 1524                             	.LBB1253:
 1525                             	.LBB1227:
 1526                             	.LBB1209:
  53:C:\Users\a5116938\Desktop\e2_studio_workspace\EEMBC_final\RX65N_Cloud_Kit\src/tensorflow/lite/kernels/internal/reference/integer_ops\conv.h ****   if (bias_data) {
 1527                             		.loc 6 53 3
 1528 00ea ED 05 56                		mov.L	344[r0], r5
 1529 00ed 61 05                   		cmp	#0, r5
 1530 00ef 20 29                   		beq	.L121
  54:C:\Users\a5116938\Desktop\e2_studio_workspace\EEMBC_final\RX65N_Cloud_Kit\src/tensorflow/lite/kernels/internal/reference/integer_ops\conv.h ****     TFLITE_DCHECK_EQ(bias_shape.FlatSize(), output_depth);
 1531                             		.loc 6 54 5
 1532                             	.LVL132:
 1533                             	.LBB943:
 1534                             	.LBB944:
 272:C:\Users\a5116938\Desktop\e2_studio_workspace\EEMBC_final\RX65N_Cloud_Kit\src/tensorflow/lite/kernels/internal\types.h ****     const int* dims_data = reinterpret_cast<const int*>(DimsData());
 1535                             		.loc 3 272 5
 273:C:\Users\a5116938\Desktop\e2_studio_workspace\EEMBC_final\RX65N_Cloud_Kit\src/tensorflow/lite/kernels/internal\types.h ****     for (int i = 0; i < size_; i++) {
 1536                             		.loc 3 273 5
 1537                             	.LBB945:
 1538                             	.LBB946:
 214:C:\Users\a5116938\Desktop\e2_studio_workspace\EEMBC_final\RX65N_Cloud_Kit\src/tensorflow/lite/kernels/internal\types.h ****   }
 1539                             		.loc 3 214 5
 214:C:\Users\a5116938\Desktop\e2_studio_workspace\EEMBC_final\RX65N_Cloud_Kit\src/tensorflow/lite/kernels/internal\types.h ****   }
 1540                             		.loc 3 214 12 is_stmt 0
 1541 00f1 AF 0D                   		mov.L	116[r0], r5
 214:C:\Users\a5116938\Desktop\e2_studio_workspace\EEMBC_final\RX65N_Cloud_Kit\src/tensorflow/lite/kernels/internal\types.h ****   }
 1542                             		.loc 3 214 34
 1543 00f3 61 55                   		cmp	#5, r5
 1544 00f5 2B 05 38 EE 03          		bgt	.L199
 1545                             	.LVL133:
 1546                             	.LBE946:
 1547                             	.LBE945:
 274:C:\Users\a5116938\Desktop\e2_studio_workspace\EEMBC_final\RX65N_Cloud_Kit\src/tensorflow/lite/kernels/internal\types.h ****       buffer_size *= dims_data[i];
 1548                             		.loc 3 274 5 is_stmt 1
 1549                             	.LBB949:
 274:C:\Users\a5116938\Desktop\e2_studio_workspace\EEMBC_final\RX65N_Cloud_Kit\src/tensorflow/lite/kernels/internal\types.h ****       buffer_size *= dims_data[i];
 1550                             		.loc 3 274 23 is_stmt 0
 1551 00fa 61 05                   		cmp	#0, r5
 1552 00fc 2A 05 38 AA 05          		ble	.L127
 1553                             	.LBE949:
 1554                             	.LBB950:
 1555                             	.LBB947:
 214:C:\Users\a5116938\Desktop\e2_studio_workspace\EEMBC_final\RX65N_Cloud_Kit\src/tensorflow/lite/kernels/internal\types.h ****   }
 1556                             		.loc 3 214 34
 1557 0101 71 03 78                		add	#0x78, r0, r3
 1558                             	.LVL134:
 1559                             		.balign 8,3,1
 1560                             	.L75:
 1561 0104 66 1A                   		mov.L	#1, r10
 1562 0106 66 07                   		mov.L	#0, r7
 1563                             	.LVL135:
 1564                             		.balign 8,3,3
 1565                             	.L77:
 1566                             	.LBE947:
 1567                             	.LBE950:
 1568                             	.LBB951:
 275:C:\Users\a5116938\Desktop\e2_studio_workspace\EEMBC_final\RX65N_Cloud_Kit\src/tensorflow/lite/kernels/internal\types.h ****     }
 1569                             		.loc 3 275 7 is_stmt 1
 275:C:\Users\a5116938\Desktop\e2_studio_workspace\EEMBC_final\RX65N_Cloud_Kit\src/tensorflow/lite/kernels/internal\types.h ****     }
 1570                             		.loc 3 275 19 is_stmt 0
 1571 0108 FE 67 34                		mov.L	[r7,r3], r4
 274:C:\Users\a5116938\Desktop\e2_studio_workspace\EEMBC_final\RX65N_Cloud_Kit\src/tensorflow/lite/kernels/internal\types.h ****       buffer_size *= dims_data[i];
 1572                             		.loc 3 274 5
 1573 010b 62 17                   		add	#1, r7
 1574                             	.LVL136:
 275:C:\Users\a5116938\Desktop\e2_studio_workspace\EEMBC_final\RX65N_Cloud_Kit\src/tensorflow/lite/kernels/internal\types.h ****     }
 1575                             		.loc 3 275 19
 1576 010d 4F 4A                   		mul	r4, r10
 1577                             	.LVL137:
 274:C:\Users\a5116938\Desktop\e2_studio_workspace\EEMBC_final\RX65N_Cloud_Kit\src/tensorflow/lite/kernels/internal\types.h ****       buffer_size *= dims_data[i];
 1578                             		.loc 3 274 23
 1579 010f 47 75                   		cmp	r7, r5
 1580 0111 2A F7                   		bgt	.L77
 1581                             	.LVL138:
 1582                             		.balign 8,3,1
 1583                             	.L76:
 1584                             	.LBE951:
 277:C:\Users\a5116938\Desktop\e2_studio_workspace\EEMBC_final\RX65N_Cloud_Kit\src/tensorflow/lite/kernels/internal\types.h ****   }
 1585                             		.loc 3 277 5 is_stmt 1
 1586                             	.LBE944:
 1587                             	.LBE943:
 1588                             		.loc 6 54 5 is_stmt 0
 1589 0113 47 DA                   		cmp	r13, r10
 1590 0115 3B DF 03                		bne	.L59
 1591                             		.balign 8,3,1
 1592                             	.L121:
  55:C:\Users\a5116938\Desktop\e2_studio_workspace\EEMBC_final\RX65N_Cloud_Kit\src/tensorflow/lite/kernels/internal/reference/integer_ops\conv.h ****   }
  56:C:\Users\a5116938\Desktop\e2_studio_workspace\EEMBC_final\RX65N_Cloud_Kit\src/tensorflow/lite/kernels/internal/reference/integer_ops\conv.h **** 
  57:C:\Users\a5116938\Desktop\e2_studio_workspace\EEMBC_final\RX65N_Cloud_Kit\src/tensorflow/lite/kernels/internal/reference/integer_ops\conv.h ****   // Check dimensions of the tensors.
  58:C:\Users\a5116938\Desktop\e2_studio_workspace\EEMBC_final\RX65N_Cloud_Kit\src/tensorflow/lite/kernels/internal/reference/integer_ops\conv.h ****   const int input_height = input_shape.Dims(1);
 1593                             		.loc 6 58 3 is_stmt 1
 1594                             	.LVL139:
 1595                             	.LBB955:
 1596                             	.LBB956:
 196:C:\Users\a5116938\Desktop\e2_studio_workspace\EEMBC_final\RX65N_Cloud_Kit\src/tensorflow/lite/kernels/internal\types.h ****     TFLITE_DCHECK_LT(i, size_);
 1597                             		.loc 3 196 5
 197:C:\Users\a5116938\Desktop\e2_studio_workspace\EEMBC_final\RX65N_Cloud_Kit\src/tensorflow/lite/kernels/internal\types.h ****     return size_ > kMaxSmallSize ? dims_pointer_[i] : dims_[i];
 1598                             		.loc 3 197 5
 198:C:\Users\a5116938\Desktop\e2_studio_workspace\EEMBC_final\RX65N_Cloud_Kit\src/tensorflow/lite/kernels/internal\types.h ****   }
 1599                             		.loc 3 198 5
 198:C:\Users\a5116938\Desktop\e2_studio_workspace\EEMBC_final\RX65N_Cloud_Kit\src/tensorflow/lite/kernels/internal\types.h ****   }
 1600                             		.loc 3 198 34 is_stmt 0
 1601 0118 E5 00 13 7B             		mov.L	76[r0], 492[r0]
 1602                             	.LVL140:
 1603                             	.LBE956:
 1604                             	.LBE955:
  59:C:\Users\a5116938\Desktop\e2_studio_workspace\EEMBC_final\RX65N_Cloud_Kit\src/tensorflow/lite/kernels/internal/reference/integer_ops\conv.h ****   const int input_width = input_shape.Dims(2);
 1605                             		.loc 6 59 3 is_stmt 1
 1606                             	.LBB957:
 1607                             	.LBB958:
 196:C:\Users\a5116938\Desktop\e2_studio_workspace\EEMBC_final\RX65N_Cloud_Kit\src/tensorflow/lite/kernels/internal\types.h ****     TFLITE_DCHECK_LT(i, size_);
 1608                             		.loc 3 196 5
 197:C:\Users\a5116938\Desktop\e2_studio_workspace\EEMBC_final\RX65N_Cloud_Kit\src/tensorflow/lite/kernels/internal\types.h ****     return size_ > kMaxSmallSize ? dims_pointer_[i] : dims_[i];
 1609                             		.loc 3 197 5
 198:C:\Users\a5116938\Desktop\e2_studio_workspace\EEMBC_final\RX65N_Cloud_Kit\src/tensorflow/lite/kernels/internal\types.h ****   }
 1610                             		.loc 3 198 5
 198:C:\Users\a5116938\Desktop\e2_studio_workspace\EEMBC_final\RX65N_Cloud_Kit\src/tensorflow/lite/kernels/internal\types.h ****   }
 1611                             		.loc 3 198 34 is_stmt 0
 1612 011c E5 00 14 7A             		mov.L	80[r0], 488[r0]
 1613                             	.LVL141:
 1614                             	.LBE958:
 1615                             	.LBE957:
  60:C:\Users\a5116938\Desktop\e2_studio_workspace\EEMBC_final\RX65N_Cloud_Kit\src/tensorflow/lite/kernels/internal/reference/integer_ops\conv.h ****   const int filter_height = filter_shape.Dims(1);
 1616                             		.loc 6 60 3 is_stmt 1
 1617                             	.LBB959:
 1618                             	.LBB960:
 196:C:\Users\a5116938\Desktop\e2_studio_workspace\EEMBC_final\RX65N_Cloud_Kit\src/tensorflow/lite/kernels/internal\types.h ****     TFLITE_DCHECK_LT(i, size_);
 1619                             		.loc 3 196 5
 197:C:\Users\a5116938\Desktop\e2_studio_workspace\EEMBC_final\RX65N_Cloud_Kit\src/tensorflow/lite/kernels/internal\types.h ****     return size_ > kMaxSmallSize ? dims_pointer_[i] : dims_[i];
 1620                             		.loc 3 197 5
 198:C:\Users\a5116938\Desktop\e2_studio_workspace\EEMBC_final\RX65N_Cloud_Kit\src/tensorflow/lite/kernels/internal\types.h ****   }
 1621                             		.loc 3 198 5
 198:C:\Users\a5116938\Desktop\e2_studio_workspace\EEMBC_final\RX65N_Cloud_Kit\src/tensorflow/lite/kernels/internal\types.h ****   }
 1622                             		.loc 3 198 34 is_stmt 0
 1623 0120 E5 00 19 62             		mov.L	100[r0], 392[r0]
 1624                             	.LVL142:
 1625                             	.LBE960:
 1626                             	.LBE959:
  61:C:\Users\a5116938\Desktop\e2_studio_workspace\EEMBC_final\RX65N_Cloud_Kit\src/tensorflow/lite/kernels/internal/reference/integer_ops\conv.h ****   const int filter_width = filter_shape.Dims(2);
 1627                             		.loc 6 61 3 is_stmt 1
 1628                             	.LBB961:
 1629                             	.LBB962:
 196:C:\Users\a5116938\Desktop\e2_studio_workspace\EEMBC_final\RX65N_Cloud_Kit\src/tensorflow/lite/kernels/internal\types.h ****     TFLITE_DCHECK_LT(i, size_);
 1630                             		.loc 3 196 5
 197:C:\Users\a5116938\Desktop\e2_studio_workspace\EEMBC_final\RX65N_Cloud_Kit\src/tensorflow/lite/kernels/internal\types.h ****     return size_ > kMaxSmallSize ? dims_pointer_[i] : dims_[i];
 1631                             		.loc 3 197 5
 198:C:\Users\a5116938\Desktop\e2_studio_workspace\EEMBC_final\RX65N_Cloud_Kit\src/tensorflow/lite/kernels/internal\types.h ****   }
 1632                             		.loc 3 198 5
 198:C:\Users\a5116938\Desktop\e2_studio_workspace\EEMBC_final\RX65N_Cloud_Kit\src/tensorflow/lite/kernels/internal\types.h ****   }
 1633                             		.loc 3 198 34 is_stmt 0
 1634 0124 E5 00 1A 61             		mov.L	104[r0], 388[r0]
 1635                             	.LVL143:
 1636                             	.LBE962:
 1637                             	.LBE961:
  62:C:\Users\a5116938\Desktop\e2_studio_workspace\EEMBC_final\RX65N_Cloud_Kit\src/tensorflow/lite/kernels/internal/reference/integer_ops\conv.h ****   const int output_height = output_shape.Dims(1);
 1638                             		.loc 6 62 3 is_stmt 1
 1639                             	.LBB963:
 1640                             	.LBB964:
 196:C:\Users\a5116938\Desktop\e2_studio_workspace\EEMBC_final\RX65N_Cloud_Kit\src/tensorflow/lite/kernels/internal\types.h ****     TFLITE_DCHECK_LT(i, size_);
 1641                             		.loc 3 196 5
 197:C:\Users\a5116938\Desktop\e2_studio_workspace\EEMBC_final\RX65N_Cloud_Kit\src/tensorflow/lite/kernels/internal\types.h ****     return size_ > kMaxSmallSize ? dims_pointer_[i] : dims_[i];
 1642                             		.loc 3 197 5
 198:C:\Users\a5116938\Desktop\e2_studio_workspace\EEMBC_final\RX65N_Cloud_Kit\src/tensorflow/lite/kernels/internal\types.h ****   }
 1643                             		.loc 3 198 5
 198:C:\Users\a5116938\Desktop\e2_studio_workspace\EEMBC_final\RX65N_Cloud_Kit\src/tensorflow/lite/kernels/internal\types.h ****   }
 1644                             		.loc 3 198 34 is_stmt 0
 1645 0128 E5 00 25 76             		mov.L	148[r0], 472[r0]
 1646                             	.LVL144:
 1647                             	.LBE964:
 1648                             	.LBE963:
  63:C:\Users\a5116938\Desktop\e2_studio_workspace\EEMBC_final\RX65N_Cloud_Kit\src/tensorflow/lite/kernels/internal/reference/integer_ops\conv.h ****   const int output_width = output_shape.Dims(2);
 1649                             		.loc 6 63 3 is_stmt 1
 1650                             	.LBB965:
 1651                             	.LBB966:
 196:C:\Users\a5116938\Desktop\e2_studio_workspace\EEMBC_final\RX65N_Cloud_Kit\src/tensorflow/lite/kernels/internal\types.h ****     TFLITE_DCHECK_LT(i, size_);
 1652                             		.loc 3 196 5
 197:C:\Users\a5116938\Desktop\e2_studio_workspace\EEMBC_final\RX65N_Cloud_Kit\src/tensorflow/lite/kernels/internal\types.h ****     return size_ > kMaxSmallSize ? dims_pointer_[i] : dims_[i];
 1653                             		.loc 3 197 5
 198:C:\Users\a5116938\Desktop\e2_studio_workspace\EEMBC_final\RX65N_Cloud_Kit\src/tensorflow/lite/kernels/internal\types.h ****   }
 1654                             		.loc 3 198 5
 198:C:\Users\a5116938\Desktop\e2_studio_workspace\EEMBC_final\RX65N_Cloud_Kit\src/tensorflow/lite/kernels/internal\types.h ****   }
 1655                             		.loc 3 198 34 is_stmt 0
 1656 012c E5 00 26 6A             		mov.L	152[r0], 424[r0]
 1657                             	.LVL145:
 1658                             	.LBE966:
 1659                             	.LBE965:
  64:C:\Users\a5116938\Desktop\e2_studio_workspace\EEMBC_final\RX65N_Cloud_Kit\src/tensorflow/lite/kernels/internal/reference/integer_ops\conv.h ****   for (int batch = 0; batch < batches; ++batch) {
 1660                             		.loc 6 64 3 is_stmt 1
 1661                             	.LBB967:
 1662                             		.loc 6 64 12 is_stmt 0
 1663 0130 66 09                   		mov.L	#0, r9
 1664                             		.loc 6 64 29
 1665 0132 ED 05 65                		mov.L	404[r0], r5
 1666 0135 61 05                   		cmp	#0, r5
 1667 0137 2A 05 38 3C 03          		ble	.L79
 1668                             	.LBB968:
 1669                             	.LBB969:
 1670                             	.LBB970:
 1671                             	.LBB971:
 1672                             	.LBB972:
 1673                             	.LBB973:
 1674                             	.LBB974:
 1675                             	.LBB975:
 1676                             	.LBB976:
 1677                             	.LBB977:
 1678                             		.file 7 "C:\\Users\\a5116938\\Desktop\\e2_studio_workspace\\EEMBC_final\\RX65N_Cloud_Kit\\src\\thi
   1:C:\Users\a5116938\Desktop\e2_studio_workspace\EEMBC_final\RX65N_Cloud_Kit\src\third_party\gemmlowp/fixedpoint\fixedpoint.h **** // Copyright 2015 The Gemmlowp Authors. All Rights Reserved.
   2:C:\Users\a5116938\Desktop\e2_studio_workspace\EEMBC_final\RX65N_Cloud_Kit\src\third_party\gemmlowp/fixedpoint\fixedpoint.h **** //
   3:C:\Users\a5116938\Desktop\e2_studio_workspace\EEMBC_final\RX65N_Cloud_Kit\src\third_party\gemmlowp/fixedpoint\fixedpoint.h **** // Licensed under the Apache License, Version 2.0 (the "License");
   4:C:\Users\a5116938\Desktop\e2_studio_workspace\EEMBC_final\RX65N_Cloud_Kit\src\third_party\gemmlowp/fixedpoint\fixedpoint.h **** // you may not use this file except in compliance with the License.
   5:C:\Users\a5116938\Desktop\e2_studio_workspace\EEMBC_final\RX65N_Cloud_Kit\src\third_party\gemmlowp/fixedpoint\fixedpoint.h **** // You may obtain a copy of the License at
   6:C:\Users\a5116938\Desktop\e2_studio_workspace\EEMBC_final\RX65N_Cloud_Kit\src\third_party\gemmlowp/fixedpoint\fixedpoint.h **** //
   7:C:\Users\a5116938\Desktop\e2_studio_workspace\EEMBC_final\RX65N_Cloud_Kit\src\third_party\gemmlowp/fixedpoint\fixedpoint.h **** //     http://www.apache.org/licenses/LICENSE-2.0
   8:C:\Users\a5116938\Desktop\e2_studio_workspace\EEMBC_final\RX65N_Cloud_Kit\src\third_party\gemmlowp/fixedpoint\fixedpoint.h **** //
   9:C:\Users\a5116938\Desktop\e2_studio_workspace\EEMBC_final\RX65N_Cloud_Kit\src\third_party\gemmlowp/fixedpoint\fixedpoint.h **** // Unless required by applicable law or agreed to in writing, software
  10:C:\Users\a5116938\Desktop\e2_studio_workspace\EEMBC_final\RX65N_Cloud_Kit\src\third_party\gemmlowp/fixedpoint\fixedpoint.h **** // distributed under the License is distributed on an "AS IS" BASIS,
  11:C:\Users\a5116938\Desktop\e2_studio_workspace\EEMBC_final\RX65N_Cloud_Kit\src\third_party\gemmlowp/fixedpoint\fixedpoint.h **** // WITHOUT WARRANTIES OR CONDITIONS OF ANY KIND, either express or implied.
  12:C:\Users\a5116938\Desktop\e2_studio_workspace\EEMBC_final\RX65N_Cloud_Kit\src\third_party\gemmlowp/fixedpoint\fixedpoint.h **** // See the License for the specific language governing permissions and
  13:C:\Users\a5116938\Desktop\e2_studio_workspace\EEMBC_final\RX65N_Cloud_Kit\src\third_party\gemmlowp/fixedpoint\fixedpoint.h **** // limitations under the License.
  14:C:\Users\a5116938\Desktop\e2_studio_workspace\EEMBC_final\RX65N_Cloud_Kit\src\third_party\gemmlowp/fixedpoint\fixedpoint.h **** 
  15:C:\Users\a5116938\Desktop\e2_studio_workspace\EEMBC_final\RX65N_Cloud_Kit\src\third_party\gemmlowp/fixedpoint\fixedpoint.h **** // fixedpoint.h: fixed-point arithmetic, with basic operations and
  16:C:\Users\a5116938\Desktop\e2_studio_workspace\EEMBC_final\RX65N_Cloud_Kit\src\third_party\gemmlowp/fixedpoint\fixedpoint.h **** // a few math functions such as tanh.
  17:C:\Users\a5116938\Desktop\e2_studio_workspace\EEMBC_final\RX65N_Cloud_Kit\src\third_party\gemmlowp/fixedpoint\fixedpoint.h **** 
  18:C:\Users\a5116938\Desktop\e2_studio_workspace\EEMBC_final\RX65N_Cloud_Kit\src\third_party\gemmlowp/fixedpoint\fixedpoint.h **** #ifndef GEMMLOWP_INTERNAL_FIXEDPOINT_H_
  19:C:\Users\a5116938\Desktop\e2_studio_workspace\EEMBC_final\RX65N_Cloud_Kit\src\third_party\gemmlowp/fixedpoint\fixedpoint.h **** #define GEMMLOWP_INTERNAL_FIXEDPOINT_H_
  20:C:\Users\a5116938\Desktop\e2_studio_workspace\EEMBC_final\RX65N_Cloud_Kit\src\third_party\gemmlowp/fixedpoint\fixedpoint.h **** 
  21:C:\Users\a5116938\Desktop\e2_studio_workspace\EEMBC_final\RX65N_Cloud_Kit\src\third_party\gemmlowp/fixedpoint\fixedpoint.h **** #include <algorithm>
  22:C:\Users\a5116938\Desktop\e2_studio_workspace\EEMBC_final\RX65N_Cloud_Kit\src\third_party\gemmlowp/fixedpoint\fixedpoint.h **** #include <cassert>
  23:C:\Users\a5116938\Desktop\e2_studio_workspace\EEMBC_final\RX65N_Cloud_Kit\src\third_party\gemmlowp/fixedpoint\fixedpoint.h **** #include <cmath>
  24:C:\Users\a5116938\Desktop\e2_studio_workspace\EEMBC_final\RX65N_Cloud_Kit\src\third_party\gemmlowp/fixedpoint\fixedpoint.h **** #include <cstdint>
  25:C:\Users\a5116938\Desktop\e2_studio_workspace\EEMBC_final\RX65N_Cloud_Kit\src\third_party\gemmlowp/fixedpoint\fixedpoint.h **** #include <limits>
  26:C:\Users\a5116938\Desktop\e2_studio_workspace\EEMBC_final\RX65N_Cloud_Kit\src\third_party\gemmlowp/fixedpoint\fixedpoint.h **** 
  27:C:\Users\a5116938\Desktop\e2_studio_workspace\EEMBC_final\RX65N_Cloud_Kit\src\third_party\gemmlowp/fixedpoint\fixedpoint.h **** #include "../internal/detect_platform.h"
  28:C:\Users\a5116938\Desktop\e2_studio_workspace\EEMBC_final\RX65N_Cloud_Kit\src\third_party\gemmlowp/fixedpoint\fixedpoint.h **** 
  29:C:\Users\a5116938\Desktop\e2_studio_workspace\EEMBC_final\RX65N_Cloud_Kit\src\third_party\gemmlowp/fixedpoint\fixedpoint.h **** namespace gemmlowp {
  30:C:\Users\a5116938\Desktop\e2_studio_workspace\EEMBC_final\RX65N_Cloud_Kit\src\third_party\gemmlowp/fixedpoint\fixedpoint.h **** 
  31:C:\Users\a5116938\Desktop\e2_studio_workspace\EEMBC_final\RX65N_Cloud_Kit\src\third_party\gemmlowp/fixedpoint\fixedpoint.h **** // Part 1: Low-level integer-arithmetic primitives.
  32:C:\Users\a5116938\Desktop\e2_studio_workspace\EEMBC_final\RX65N_Cloud_Kit\src\third_party\gemmlowp/fixedpoint\fixedpoint.h **** // The implementations here are generic implementations valid for
  33:C:\Users\a5116938\Desktop\e2_studio_workspace\EEMBC_final\RX65N_Cloud_Kit\src\third_party\gemmlowp/fixedpoint\fixedpoint.h **** // scalar types (e.g. std::int32_t). Architecture-specific SIMD types
  34:C:\Users\a5116938\Desktop\e2_studio_workspace\EEMBC_final\RX65N_Cloud_Kit\src\third_party\gemmlowp/fixedpoint\fixedpoint.h **** // (e.g. NEON int32x4_t) may be supported by providing
  35:C:\Users\a5116938\Desktop\e2_studio_workspace\EEMBC_final\RX65N_Cloud_Kit\src\third_party\gemmlowp/fixedpoint\fixedpoint.h **** // specializations for them in separate files.
  36:C:\Users\a5116938\Desktop\e2_studio_workspace\EEMBC_final\RX65N_Cloud_Kit\src\third_party\gemmlowp/fixedpoint\fixedpoint.h **** //
  37:C:\Users\a5116938\Desktop\e2_studio_workspace\EEMBC_final\RX65N_Cloud_Kit\src\third_party\gemmlowp/fixedpoint\fixedpoint.h **** // The purpose of these primitives is two-fold:
  38:C:\Users\a5116938\Desktop\e2_studio_workspace\EEMBC_final\RX65N_Cloud_Kit\src\third_party\gemmlowp/fixedpoint\fixedpoint.h **** //  - They will be used to implement higher-level fixed-point
  39:C:\Users\a5116938\Desktop\e2_studio_workspace\EEMBC_final\RX65N_Cloud_Kit\src\third_party\gemmlowp/fixedpoint\fixedpoint.h **** //    abstractions, namely the FixedPoint class and its arithmetic
  40:C:\Users\a5116938\Desktop\e2_studio_workspace\EEMBC_final\RX65N_Cloud_Kit\src\third_party\gemmlowp/fixedpoint\fixedpoint.h **** //    operators.
  41:C:\Users\a5116938\Desktop\e2_studio_workspace\EEMBC_final\RX65N_Cloud_Kit\src\third_party\gemmlowp/fixedpoint\fixedpoint.h **** //  - They will be directly used to implement some more involved
  42:C:\Users\a5116938\Desktop\e2_studio_workspace\EEMBC_final\RX65N_Cloud_Kit\src\third_party\gemmlowp/fixedpoint\fixedpoint.h **** //    fixed-point computations, e.g. the fixed-point implementation
  43:C:\Users\a5116938\Desktop\e2_studio_workspace\EEMBC_final\RX65N_Cloud_Kit\src\third_party\gemmlowp/fixedpoint\fixedpoint.h **** //    of math functions such as tanh.
  44:C:\Users\a5116938\Desktop\e2_studio_workspace\EEMBC_final\RX65N_Cloud_Kit\src\third_party\gemmlowp/fixedpoint\fixedpoint.h **** 
  45:C:\Users\a5116938\Desktop\e2_studio_workspace\EEMBC_final\RX65N_Cloud_Kit\src\third_party\gemmlowp/fixedpoint\fixedpoint.h **** // Some compile-time traits around raw types to handle SIMD aspects:
  46:C:\Users\a5116938\Desktop\e2_studio_workspace\EEMBC_final\RX65N_Cloud_Kit\src\third_party\gemmlowp/fixedpoint\fixedpoint.h **** // number of lanes, underlying scalar type.
  47:C:\Users\a5116938\Desktop\e2_studio_workspace\EEMBC_final\RX65N_Cloud_Kit\src\third_party\gemmlowp/fixedpoint\fixedpoint.h **** template <typename tIntegerType>
  48:C:\Users\a5116938\Desktop\e2_studio_workspace\EEMBC_final\RX65N_Cloud_Kit\src\third_party\gemmlowp/fixedpoint\fixedpoint.h **** struct FixedPointRawTypeTraits {};
  49:C:\Users\a5116938\Desktop\e2_studio_workspace\EEMBC_final\RX65N_Cloud_Kit\src\third_party\gemmlowp/fixedpoint\fixedpoint.h **** 
  50:C:\Users\a5116938\Desktop\e2_studio_workspace\EEMBC_final\RX65N_Cloud_Kit\src\third_party\gemmlowp/fixedpoint\fixedpoint.h **** template <>
  51:C:\Users\a5116938\Desktop\e2_studio_workspace\EEMBC_final\RX65N_Cloud_Kit\src\third_party\gemmlowp/fixedpoint\fixedpoint.h **** struct FixedPointRawTypeTraits<std::int32_t> {
  52:C:\Users\a5116938\Desktop\e2_studio_workspace\EEMBC_final\RX65N_Cloud_Kit\src\third_party\gemmlowp/fixedpoint\fixedpoint.h ****   typedef std::int32_t ScalarRawType;
  53:C:\Users\a5116938\Desktop\e2_studio_workspace\EEMBC_final\RX65N_Cloud_Kit\src\third_party\gemmlowp/fixedpoint\fixedpoint.h ****   static constexpr int kLanes = 1;
  54:C:\Users\a5116938\Desktop\e2_studio_workspace\EEMBC_final\RX65N_Cloud_Kit\src\third_party\gemmlowp/fixedpoint\fixedpoint.h **** };
  55:C:\Users\a5116938\Desktop\e2_studio_workspace\EEMBC_final\RX65N_Cloud_Kit\src\third_party\gemmlowp/fixedpoint\fixedpoint.h **** 
  56:C:\Users\a5116938\Desktop\e2_studio_workspace\EEMBC_final\RX65N_Cloud_Kit\src\third_party\gemmlowp/fixedpoint\fixedpoint.h **** template <>
  57:C:\Users\a5116938\Desktop\e2_studio_workspace\EEMBC_final\RX65N_Cloud_Kit\src\third_party\gemmlowp/fixedpoint\fixedpoint.h **** struct FixedPointRawTypeTraits<std::int16_t> {
  58:C:\Users\a5116938\Desktop\e2_studio_workspace\EEMBC_final\RX65N_Cloud_Kit\src\third_party\gemmlowp/fixedpoint\fixedpoint.h ****   typedef std::int16_t ScalarRawType;
  59:C:\Users\a5116938\Desktop\e2_studio_workspace\EEMBC_final\RX65N_Cloud_Kit\src\third_party\gemmlowp/fixedpoint\fixedpoint.h ****   static constexpr int kLanes = 1;
  60:C:\Users\a5116938\Desktop\e2_studio_workspace\EEMBC_final\RX65N_Cloud_Kit\src\third_party\gemmlowp/fixedpoint\fixedpoint.h **** };
  61:C:\Users\a5116938\Desktop\e2_studio_workspace\EEMBC_final\RX65N_Cloud_Kit\src\third_party\gemmlowp/fixedpoint\fixedpoint.h **** 
  62:C:\Users\a5116938\Desktop\e2_studio_workspace\EEMBC_final\RX65N_Cloud_Kit\src\third_party\gemmlowp/fixedpoint\fixedpoint.h **** // Returns a SIMD value duplicating a scalar value across all lanes.
  63:C:\Users\a5116938\Desktop\e2_studio_workspace\EEMBC_final\RX65N_Cloud_Kit\src\third_party\gemmlowp/fixedpoint\fixedpoint.h **** template <typename tRawType>
  64:C:\Users\a5116938\Desktop\e2_studio_workspace\EEMBC_final\RX65N_Cloud_Kit\src\third_party\gemmlowp/fixedpoint\fixedpoint.h **** tRawType Dup(typename FixedPointRawTypeTraits<tRawType>::ScalarRawType x) {
  65:C:\Users\a5116938\Desktop\e2_studio_workspace\EEMBC_final\RX65N_Cloud_Kit\src\third_party\gemmlowp/fixedpoint\fixedpoint.h ****   return x;
  66:C:\Users\a5116938\Desktop\e2_studio_workspace\EEMBC_final\RX65N_Cloud_Kit\src\third_party\gemmlowp/fixedpoint\fixedpoint.h **** }
  67:C:\Users\a5116938\Desktop\e2_studio_workspace\EEMBC_final\RX65N_Cloud_Kit\src\third_party\gemmlowp/fixedpoint\fixedpoint.h **** 
  68:C:\Users\a5116938\Desktop\e2_studio_workspace\EEMBC_final\RX65N_Cloud_Kit\src\third_party\gemmlowp/fixedpoint\fixedpoint.h **** // Plain bit-wise AND
  69:C:\Users\a5116938\Desktop\e2_studio_workspace\EEMBC_final\RX65N_Cloud_Kit\src\third_party\gemmlowp/fixedpoint\fixedpoint.h **** template <typename tIntegerType>
  70:C:\Users\a5116938\Desktop\e2_studio_workspace\EEMBC_final\RX65N_Cloud_Kit\src\third_party\gemmlowp/fixedpoint\fixedpoint.h **** tIntegerType BitAnd(tIntegerType a, tIntegerType b) {
  71:C:\Users\a5116938\Desktop\e2_studio_workspace\EEMBC_final\RX65N_Cloud_Kit\src\third_party\gemmlowp/fixedpoint\fixedpoint.h ****   return a & b;
  72:C:\Users\a5116938\Desktop\e2_studio_workspace\EEMBC_final\RX65N_Cloud_Kit\src\third_party\gemmlowp/fixedpoint\fixedpoint.h **** }
  73:C:\Users\a5116938\Desktop\e2_studio_workspace\EEMBC_final\RX65N_Cloud_Kit\src\third_party\gemmlowp/fixedpoint\fixedpoint.h **** 
  74:C:\Users\a5116938\Desktop\e2_studio_workspace\EEMBC_final\RX65N_Cloud_Kit\src\third_party\gemmlowp/fixedpoint\fixedpoint.h **** // Plain bit-wise OR
  75:C:\Users\a5116938\Desktop\e2_studio_workspace\EEMBC_final\RX65N_Cloud_Kit\src\third_party\gemmlowp/fixedpoint\fixedpoint.h **** template <typename tIntegerType>
  76:C:\Users\a5116938\Desktop\e2_studio_workspace\EEMBC_final\RX65N_Cloud_Kit\src\third_party\gemmlowp/fixedpoint\fixedpoint.h **** tIntegerType BitOr(tIntegerType a, tIntegerType b) {
  77:C:\Users\a5116938\Desktop\e2_studio_workspace\EEMBC_final\RX65N_Cloud_Kit\src\third_party\gemmlowp/fixedpoint\fixedpoint.h ****   return a | b;
  78:C:\Users\a5116938\Desktop\e2_studio_workspace\EEMBC_final\RX65N_Cloud_Kit\src\third_party\gemmlowp/fixedpoint\fixedpoint.h **** }
  79:C:\Users\a5116938\Desktop\e2_studio_workspace\EEMBC_final\RX65N_Cloud_Kit\src\third_party\gemmlowp/fixedpoint\fixedpoint.h **** 
  80:C:\Users\a5116938\Desktop\e2_studio_workspace\EEMBC_final\RX65N_Cloud_Kit\src\third_party\gemmlowp/fixedpoint\fixedpoint.h **** // Plain bit-wise XOR
  81:C:\Users\a5116938\Desktop\e2_studio_workspace\EEMBC_final\RX65N_Cloud_Kit\src\third_party\gemmlowp/fixedpoint\fixedpoint.h **** template <typename tIntegerType>
  82:C:\Users\a5116938\Desktop\e2_studio_workspace\EEMBC_final\RX65N_Cloud_Kit\src\third_party\gemmlowp/fixedpoint\fixedpoint.h **** tIntegerType BitXor(tIntegerType a, tIntegerType b) {
  83:C:\Users\a5116938\Desktop\e2_studio_workspace\EEMBC_final\RX65N_Cloud_Kit\src\third_party\gemmlowp/fixedpoint\fixedpoint.h ****   return a ^ b;
  84:C:\Users\a5116938\Desktop\e2_studio_workspace\EEMBC_final\RX65N_Cloud_Kit\src\third_party\gemmlowp/fixedpoint\fixedpoint.h **** }
  85:C:\Users\a5116938\Desktop\e2_studio_workspace\EEMBC_final\RX65N_Cloud_Kit\src\third_party\gemmlowp/fixedpoint\fixedpoint.h **** 
  86:C:\Users\a5116938\Desktop\e2_studio_workspace\EEMBC_final\RX65N_Cloud_Kit\src\third_party\gemmlowp/fixedpoint\fixedpoint.h **** // Plain bit-wise NOT
  87:C:\Users\a5116938\Desktop\e2_studio_workspace\EEMBC_final\RX65N_Cloud_Kit\src\third_party\gemmlowp/fixedpoint\fixedpoint.h **** template <typename tIntegerType>
  88:C:\Users\a5116938\Desktop\e2_studio_workspace\EEMBC_final\RX65N_Cloud_Kit\src\third_party\gemmlowp/fixedpoint\fixedpoint.h **** tIntegerType BitNot(tIntegerType a) {
  89:C:\Users\a5116938\Desktop\e2_studio_workspace\EEMBC_final\RX65N_Cloud_Kit\src\third_party\gemmlowp/fixedpoint\fixedpoint.h ****   return ~a;
  90:C:\Users\a5116938\Desktop\e2_studio_workspace\EEMBC_final\RX65N_Cloud_Kit\src\third_party\gemmlowp/fixedpoint\fixedpoint.h **** }
  91:C:\Users\a5116938\Desktop\e2_studio_workspace\EEMBC_final\RX65N_Cloud_Kit\src\third_party\gemmlowp/fixedpoint\fixedpoint.h **** 
  92:C:\Users\a5116938\Desktop\e2_studio_workspace\EEMBC_final\RX65N_Cloud_Kit\src\third_party\gemmlowp/fixedpoint\fixedpoint.h **** // Integer addition. Not saturating. Overflow is undefined behavior.
  93:C:\Users\a5116938\Desktop\e2_studio_workspace\EEMBC_final\RX65N_Cloud_Kit\src\third_party\gemmlowp/fixedpoint\fixedpoint.h **** template <typename tIntegerType>
  94:C:\Users\a5116938\Desktop\e2_studio_workspace\EEMBC_final\RX65N_Cloud_Kit\src\third_party\gemmlowp/fixedpoint\fixedpoint.h **** tIntegerType Add(tIntegerType a, tIntegerType b) {
  95:C:\Users\a5116938\Desktop\e2_studio_workspace\EEMBC_final\RX65N_Cloud_Kit\src\third_party\gemmlowp/fixedpoint\fixedpoint.h ****   return a + b;
  96:C:\Users\a5116938\Desktop\e2_studio_workspace\EEMBC_final\RX65N_Cloud_Kit\src\third_party\gemmlowp/fixedpoint\fixedpoint.h **** }
  97:C:\Users\a5116938\Desktop\e2_studio_workspace\EEMBC_final\RX65N_Cloud_Kit\src\third_party\gemmlowp/fixedpoint\fixedpoint.h **** 
  98:C:\Users\a5116938\Desktop\e2_studio_workspace\EEMBC_final\RX65N_Cloud_Kit\src\third_party\gemmlowp/fixedpoint\fixedpoint.h **** // Integer multiplication. Not saturating. Overflow is undefined behavior.
  99:C:\Users\a5116938\Desktop\e2_studio_workspace\EEMBC_final\RX65N_Cloud_Kit\src\third_party\gemmlowp/fixedpoint\fixedpoint.h **** template <typename tIntegerType>
 100:C:\Users\a5116938\Desktop\e2_studio_workspace\EEMBC_final\RX65N_Cloud_Kit\src\third_party\gemmlowp/fixedpoint\fixedpoint.h **** tIntegerType Mul(tIntegerType a, tIntegerType b) {
 101:C:\Users\a5116938\Desktop\e2_studio_workspace\EEMBC_final\RX65N_Cloud_Kit\src\third_party\gemmlowp/fixedpoint\fixedpoint.h ****   return a * b;
 102:C:\Users\a5116938\Desktop\e2_studio_workspace\EEMBC_final\RX65N_Cloud_Kit\src\third_party\gemmlowp/fixedpoint\fixedpoint.h **** }
 103:C:\Users\a5116938\Desktop\e2_studio_workspace\EEMBC_final\RX65N_Cloud_Kit\src\third_party\gemmlowp/fixedpoint\fixedpoint.h **** 
 104:C:\Users\a5116938\Desktop\e2_studio_workspace\EEMBC_final\RX65N_Cloud_Kit\src\third_party\gemmlowp/fixedpoint\fixedpoint.h **** // Integer subtraction. Not saturating. Overflow is undefined behavior.
 105:C:\Users\a5116938\Desktop\e2_studio_workspace\EEMBC_final\RX65N_Cloud_Kit\src\third_party\gemmlowp/fixedpoint\fixedpoint.h **** template <typename tIntegerType>
 106:C:\Users\a5116938\Desktop\e2_studio_workspace\EEMBC_final\RX65N_Cloud_Kit\src\third_party\gemmlowp/fixedpoint\fixedpoint.h **** tIntegerType Sub(tIntegerType a, tIntegerType b) {
 107:C:\Users\a5116938\Desktop\e2_studio_workspace\EEMBC_final\RX65N_Cloud_Kit\src\third_party\gemmlowp/fixedpoint\fixedpoint.h ****   return a - b;
 108:C:\Users\a5116938\Desktop\e2_studio_workspace\EEMBC_final\RX65N_Cloud_Kit\src\third_party\gemmlowp/fixedpoint\fixedpoint.h **** }
 109:C:\Users\a5116938\Desktop\e2_studio_workspace\EEMBC_final\RX65N_Cloud_Kit\src\third_party\gemmlowp/fixedpoint\fixedpoint.h **** 
 110:C:\Users\a5116938\Desktop\e2_studio_workspace\EEMBC_final\RX65N_Cloud_Kit\src\third_party\gemmlowp/fixedpoint\fixedpoint.h **** // Integer unary negative. Not saturating. Overflow is undefined behavior.
 111:C:\Users\a5116938\Desktop\e2_studio_workspace\EEMBC_final\RX65N_Cloud_Kit\src\third_party\gemmlowp/fixedpoint\fixedpoint.h **** template <typename tIntegerType>
 112:C:\Users\a5116938\Desktop\e2_studio_workspace\EEMBC_final\RX65N_Cloud_Kit\src\third_party\gemmlowp/fixedpoint\fixedpoint.h **** tIntegerType Neg(tIntegerType a) {
 113:C:\Users\a5116938\Desktop\e2_studio_workspace\EEMBC_final\RX65N_Cloud_Kit\src\third_party\gemmlowp/fixedpoint\fixedpoint.h ****   return -a;
 114:C:\Users\a5116938\Desktop\e2_studio_workspace\EEMBC_final\RX65N_Cloud_Kit\src\third_party\gemmlowp/fixedpoint\fixedpoint.h **** }
 115:C:\Users\a5116938\Desktop\e2_studio_workspace\EEMBC_final\RX65N_Cloud_Kit\src\third_party\gemmlowp/fixedpoint\fixedpoint.h **** 
 116:C:\Users\a5116938\Desktop\e2_studio_workspace\EEMBC_final\RX65N_Cloud_Kit\src\third_party\gemmlowp/fixedpoint\fixedpoint.h **** // Integer arithmetic left-shift, equivalent to multiplying with a power of two.
 117:C:\Users\a5116938\Desktop\e2_studio_workspace\EEMBC_final\RX65N_Cloud_Kit\src\third_party\gemmlowp/fixedpoint\fixedpoint.h **** // Negative values are OK. In case of overflow, no Undefined
 118:C:\Users\a5116938\Desktop\e2_studio_workspace\EEMBC_final\RX65N_Cloud_Kit\src\third_party\gemmlowp/fixedpoint\fixedpoint.h **** // Behavior, but the results are implementation-defined (in practice,
 119:C:\Users\a5116938\Desktop\e2_studio_workspace\EEMBC_final\RX65N_Cloud_Kit\src\third_party\gemmlowp/fixedpoint\fixedpoint.h **** // they currently are saturated, but we make no commitment to that). The idea
 120:C:\Users\a5116938\Desktop\e2_studio_workspace\EEMBC_final\RX65N_Cloud_Kit\src\third_party\gemmlowp/fixedpoint\fixedpoint.h **** // is that the caller will want to implement the overflowing cases with
 121:C:\Users\a5116938\Desktop\e2_studio_workspace\EEMBC_final\RX65N_Cloud_Kit\src\third_party\gemmlowp/fixedpoint\fixedpoint.h **** // saturation with compare-and-mask, so we don't care about the results
 122:C:\Users\a5116938\Desktop\e2_studio_workspace\EEMBC_final\RX65N_Cloud_Kit\src\third_party\gemmlowp/fixedpoint\fixedpoint.h **** // in the overflow case, we just want to avoid undefined behavior.
 123:C:\Users\a5116938\Desktop\e2_studio_workspace\EEMBC_final\RX65N_Cloud_Kit\src\third_party\gemmlowp/fixedpoint\fixedpoint.h **** //
 124:C:\Users\a5116938\Desktop\e2_studio_workspace\EEMBC_final\RX65N_Cloud_Kit\src\third_party\gemmlowp/fixedpoint\fixedpoint.h **** // tIntegerType may be int32 or any narrower signed type.
 125:C:\Users\a5116938\Desktop\e2_studio_workspace\EEMBC_final\RX65N_Cloud_Kit\src\third_party\gemmlowp/fixedpoint\fixedpoint.h **** template <typename tIntegerType, typename OffsetType>
 126:C:\Users\a5116938\Desktop\e2_studio_workspace\EEMBC_final\RX65N_Cloud_Kit\src\third_party\gemmlowp/fixedpoint\fixedpoint.h **** tIntegerType ShiftLeft(tIntegerType a, OffsetType offset) {
 127:C:\Users\a5116938\Desktop\e2_studio_workspace\EEMBC_final\RX65N_Cloud_Kit\src\third_party\gemmlowp/fixedpoint\fixedpoint.h ****   const std::int64_t wide_a = static_cast<std::int64_t>(a);
 128:C:\Users\a5116938\Desktop\e2_studio_workspace\EEMBC_final\RX65N_Cloud_Kit\src\third_party\gemmlowp/fixedpoint\fixedpoint.h ****   const std::int64_t wide_shifted = wide_a * (1 << offset);
 129:C:\Users\a5116938\Desktop\e2_studio_workspace\EEMBC_final\RX65N_Cloud_Kit\src\third_party\gemmlowp/fixedpoint\fixedpoint.h ****   const auto min = std::numeric_limits<tIntegerType>::min();
 130:C:\Users\a5116938\Desktop\e2_studio_workspace\EEMBC_final\RX65N_Cloud_Kit\src\third_party\gemmlowp/fixedpoint\fixedpoint.h ****   const auto max = std::numeric_limits<tIntegerType>::max();
 131:C:\Users\a5116938\Desktop\e2_studio_workspace\EEMBC_final\RX65N_Cloud_Kit\src\third_party\gemmlowp/fixedpoint\fixedpoint.h ****   return wide_shifted < min
 132:C:\Users\a5116938\Desktop\e2_studio_workspace\EEMBC_final\RX65N_Cloud_Kit\src\third_party\gemmlowp/fixedpoint\fixedpoint.h ****              ? min
 133:C:\Users\a5116938\Desktop\e2_studio_workspace\EEMBC_final\RX65N_Cloud_Kit\src\third_party\gemmlowp/fixedpoint\fixedpoint.h ****              : wide_shifted > max ? max
 134:C:\Users\a5116938\Desktop\e2_studio_workspace\EEMBC_final\RX65N_Cloud_Kit\src\third_party\gemmlowp/fixedpoint\fixedpoint.h ****                                   : static_cast<tIntegerType>(wide_shifted);
 135:C:\Users\a5116938\Desktop\e2_studio_workspace\EEMBC_final\RX65N_Cloud_Kit\src\third_party\gemmlowp/fixedpoint\fixedpoint.h **** }
 136:C:\Users\a5116938\Desktop\e2_studio_workspace\EEMBC_final\RX65N_Cloud_Kit\src\third_party\gemmlowp/fixedpoint\fixedpoint.h **** 
 137:C:\Users\a5116938\Desktop\e2_studio_workspace\EEMBC_final\RX65N_Cloud_Kit\src\third_party\gemmlowp/fixedpoint\fixedpoint.h **** // Integer arithmetic right-shift. Not rounding.
 138:C:\Users\a5116938\Desktop\e2_studio_workspace\EEMBC_final\RX65N_Cloud_Kit\src\third_party\gemmlowp/fixedpoint\fixedpoint.h **** // Relying on implementation-defined, but in-practice-consistent,
 139:C:\Users\a5116938\Desktop\e2_studio_workspace\EEMBC_final\RX65N_Cloud_Kit\src\third_party\gemmlowp/fixedpoint\fixedpoint.h **** // C++ compiler behavior.
 140:C:\Users\a5116938\Desktop\e2_studio_workspace\EEMBC_final\RX65N_Cloud_Kit\src\third_party\gemmlowp/fixedpoint\fixedpoint.h **** template <typename tIntegerType>
 141:C:\Users\a5116938\Desktop\e2_studio_workspace\EEMBC_final\RX65N_Cloud_Kit\src\third_party\gemmlowp/fixedpoint\fixedpoint.h **** tIntegerType ShiftRight(tIntegerType a, int offset) {
 142:C:\Users\a5116938\Desktop\e2_studio_workspace\EEMBC_final\RX65N_Cloud_Kit\src\third_party\gemmlowp/fixedpoint\fixedpoint.h ****   return a >> offset;
 143:C:\Users\a5116938\Desktop\e2_studio_workspace\EEMBC_final\RX65N_Cloud_Kit\src\third_party\gemmlowp/fixedpoint\fixedpoint.h **** }
 144:C:\Users\a5116938\Desktop\e2_studio_workspace\EEMBC_final\RX65N_Cloud_Kit\src\third_party\gemmlowp/fixedpoint\fixedpoint.h **** 
 145:C:\Users\a5116938\Desktop\e2_studio_workspace\EEMBC_final\RX65N_Cloud_Kit\src\third_party\gemmlowp/fixedpoint\fixedpoint.h **** // Each bit of the result is set to the corresponding bit of either then_val or
 146:C:\Users\a5116938\Desktop\e2_studio_workspace\EEMBC_final\RX65N_Cloud_Kit\src\third_party\gemmlowp/fixedpoint\fixedpoint.h **** // else_val depending on whether the corresponding bit of if_mask is set.
 147:C:\Users\a5116938\Desktop\e2_studio_workspace\EEMBC_final\RX65N_Cloud_Kit\src\third_party\gemmlowp/fixedpoint\fixedpoint.h **** // Equivalent to the VBSL instruction in ARM NEON.
 148:C:\Users\a5116938\Desktop\e2_studio_workspace\EEMBC_final\RX65N_Cloud_Kit\src\third_party\gemmlowp/fixedpoint\fixedpoint.h **** template <typename tIntegerType>
 149:C:\Users\a5116938\Desktop\e2_studio_workspace\EEMBC_final\RX65N_Cloud_Kit\src\third_party\gemmlowp/fixedpoint\fixedpoint.h **** tIntegerType SelectUsingMask(tIntegerType if_mask, tIntegerType then_val,
 150:C:\Users\a5116938\Desktop\e2_studio_workspace\EEMBC_final\RX65N_Cloud_Kit\src\third_party\gemmlowp/fixedpoint\fixedpoint.h ****                              tIntegerType else_val) {
 151:C:\Users\a5116938\Desktop\e2_studio_workspace\EEMBC_final\RX65N_Cloud_Kit\src\third_party\gemmlowp/fixedpoint\fixedpoint.h ****   return BitXor(BitAnd(if_mask, then_val), BitAnd(BitNot(if_mask), else_val));
 152:C:\Users\a5116938\Desktop\e2_studio_workspace\EEMBC_final\RX65N_Cloud_Kit\src\third_party\gemmlowp/fixedpoint\fixedpoint.h **** }
 153:C:\Users\a5116938\Desktop\e2_studio_workspace\EEMBC_final\RX65N_Cloud_Kit\src\third_party\gemmlowp/fixedpoint\fixedpoint.h **** 
 154:C:\Users\a5116938\Desktop\e2_studio_workspace\EEMBC_final\RX65N_Cloud_Kit\src\third_party\gemmlowp/fixedpoint\fixedpoint.h **** // For each input scalar, the corresponding bits of the result are set if the
 155:C:\Users\a5116938\Desktop\e2_studio_workspace\EEMBC_final\RX65N_Cloud_Kit\src\third_party\gemmlowp/fixedpoint\fixedpoint.h **** // input scalar is non-zero.
 156:C:\Users\a5116938\Desktop\e2_studio_workspace\EEMBC_final\RX65N_Cloud_Kit\src\third_party\gemmlowp/fixedpoint\fixedpoint.h **** template <typename tIntegerType>
 157:C:\Users\a5116938\Desktop\e2_studio_workspace\EEMBC_final\RX65N_Cloud_Kit\src\third_party\gemmlowp/fixedpoint\fixedpoint.h **** tIntegerType MaskIfNonZero(tIntegerType a) {
 158:C:\Users\a5116938\Desktop\e2_studio_workspace\EEMBC_final\RX65N_Cloud_Kit\src\third_party\gemmlowp/fixedpoint\fixedpoint.h ****   static constexpr tIntegerType zero = 0;
 159:C:\Users\a5116938\Desktop\e2_studio_workspace\EEMBC_final\RX65N_Cloud_Kit\src\third_party\gemmlowp/fixedpoint\fixedpoint.h ****   return a ? BitNot(zero) : zero;
 160:C:\Users\a5116938\Desktop\e2_studio_workspace\EEMBC_final\RX65N_Cloud_Kit\src\third_party\gemmlowp/fixedpoint\fixedpoint.h **** }
 161:C:\Users\a5116938\Desktop\e2_studio_workspace\EEMBC_final\RX65N_Cloud_Kit\src\third_party\gemmlowp/fixedpoint\fixedpoint.h **** 
 162:C:\Users\a5116938\Desktop\e2_studio_workspace\EEMBC_final\RX65N_Cloud_Kit\src\third_party\gemmlowp/fixedpoint\fixedpoint.h **** // For each input scalar, the corresponding bits of the result are set if the
 163:C:\Users\a5116938\Desktop\e2_studio_workspace\EEMBC_final\RX65N_Cloud_Kit\src\third_party\gemmlowp/fixedpoint\fixedpoint.h **** // input scalar is zero.
 164:C:\Users\a5116938\Desktop\e2_studio_workspace\EEMBC_final\RX65N_Cloud_Kit\src\third_party\gemmlowp/fixedpoint\fixedpoint.h **** template <typename tIntegerType>
 165:C:\Users\a5116938\Desktop\e2_studio_workspace\EEMBC_final\RX65N_Cloud_Kit\src\third_party\gemmlowp/fixedpoint\fixedpoint.h **** tIntegerType MaskIfZero(tIntegerType a) {
 166:C:\Users\a5116938\Desktop\e2_studio_workspace\EEMBC_final\RX65N_Cloud_Kit\src\third_party\gemmlowp/fixedpoint\fixedpoint.h ****   return MaskIfNonZero<tIntegerType>(!a);
 167:C:\Users\a5116938\Desktop\e2_studio_workspace\EEMBC_final\RX65N_Cloud_Kit\src\third_party\gemmlowp/fixedpoint\fixedpoint.h **** }
 168:C:\Users\a5116938\Desktop\e2_studio_workspace\EEMBC_final\RX65N_Cloud_Kit\src\third_party\gemmlowp/fixedpoint\fixedpoint.h **** 
 169:C:\Users\a5116938\Desktop\e2_studio_workspace\EEMBC_final\RX65N_Cloud_Kit\src\third_party\gemmlowp/fixedpoint\fixedpoint.h **** // For each pair of input scalars, the corresponding bits of the result are
 170:C:\Users\a5116938\Desktop\e2_studio_workspace\EEMBC_final\RX65N_Cloud_Kit\src\third_party\gemmlowp/fixedpoint\fixedpoint.h **** // set if the input scalars are equal.
 171:C:\Users\a5116938\Desktop\e2_studio_workspace\EEMBC_final\RX65N_Cloud_Kit\src\third_party\gemmlowp/fixedpoint\fixedpoint.h **** template <typename tIntegerType>
 172:C:\Users\a5116938\Desktop\e2_studio_workspace\EEMBC_final\RX65N_Cloud_Kit\src\third_party\gemmlowp/fixedpoint\fixedpoint.h **** tIntegerType MaskIfEqual(tIntegerType a, tIntegerType b) {
 173:C:\Users\a5116938\Desktop\e2_studio_workspace\EEMBC_final\RX65N_Cloud_Kit\src\third_party\gemmlowp/fixedpoint\fixedpoint.h ****   return MaskIfNonZero<tIntegerType>(a == b);
 174:C:\Users\a5116938\Desktop\e2_studio_workspace\EEMBC_final\RX65N_Cloud_Kit\src\third_party\gemmlowp/fixedpoint\fixedpoint.h **** }
 175:C:\Users\a5116938\Desktop\e2_studio_workspace\EEMBC_final\RX65N_Cloud_Kit\src\third_party\gemmlowp/fixedpoint\fixedpoint.h **** 
 176:C:\Users\a5116938\Desktop\e2_studio_workspace\EEMBC_final\RX65N_Cloud_Kit\src\third_party\gemmlowp/fixedpoint\fixedpoint.h **** // For each pair of input scalars, the corresponding bits of the result are
 177:C:\Users\a5116938\Desktop\e2_studio_workspace\EEMBC_final\RX65N_Cloud_Kit\src\third_party\gemmlowp/fixedpoint\fixedpoint.h **** // set if the input scalars are not equal.
 178:C:\Users\a5116938\Desktop\e2_studio_workspace\EEMBC_final\RX65N_Cloud_Kit\src\third_party\gemmlowp/fixedpoint\fixedpoint.h **** template <typename tIntegerType>
 179:C:\Users\a5116938\Desktop\e2_studio_workspace\EEMBC_final\RX65N_Cloud_Kit\src\third_party\gemmlowp/fixedpoint\fixedpoint.h **** tIntegerType MaskIfNotEqual(tIntegerType a, tIntegerType b) {
 180:C:\Users\a5116938\Desktop\e2_studio_workspace\EEMBC_final\RX65N_Cloud_Kit\src\third_party\gemmlowp/fixedpoint\fixedpoint.h ****   return MaskIfNonZero<tIntegerType>(a != b);
 181:C:\Users\a5116938\Desktop\e2_studio_workspace\EEMBC_final\RX65N_Cloud_Kit\src\third_party\gemmlowp/fixedpoint\fixedpoint.h **** }
 182:C:\Users\a5116938\Desktop\e2_studio_workspace\EEMBC_final\RX65N_Cloud_Kit\src\third_party\gemmlowp/fixedpoint\fixedpoint.h **** 
 183:C:\Users\a5116938\Desktop\e2_studio_workspace\EEMBC_final\RX65N_Cloud_Kit\src\third_party\gemmlowp/fixedpoint\fixedpoint.h **** // For each pair of input scalars, the corresponding bits of the result are
 184:C:\Users\a5116938\Desktop\e2_studio_workspace\EEMBC_final\RX65N_Cloud_Kit\src\third_party\gemmlowp/fixedpoint\fixedpoint.h **** // set if the input scalars a, b satisfy a > b.
 185:C:\Users\a5116938\Desktop\e2_studio_workspace\EEMBC_final\RX65N_Cloud_Kit\src\third_party\gemmlowp/fixedpoint\fixedpoint.h **** template <typename tIntegerType>
 186:C:\Users\a5116938\Desktop\e2_studio_workspace\EEMBC_final\RX65N_Cloud_Kit\src\third_party\gemmlowp/fixedpoint\fixedpoint.h **** tIntegerType MaskIfGreaterThan(tIntegerType a, tIntegerType b) {
 187:C:\Users\a5116938\Desktop\e2_studio_workspace\EEMBC_final\RX65N_Cloud_Kit\src\third_party\gemmlowp/fixedpoint\fixedpoint.h ****   return MaskIfNonZero<tIntegerType>(a > b);
 188:C:\Users\a5116938\Desktop\e2_studio_workspace\EEMBC_final\RX65N_Cloud_Kit\src\third_party\gemmlowp/fixedpoint\fixedpoint.h **** }
 189:C:\Users\a5116938\Desktop\e2_studio_workspace\EEMBC_final\RX65N_Cloud_Kit\src\third_party\gemmlowp/fixedpoint\fixedpoint.h **** 
 190:C:\Users\a5116938\Desktop\e2_studio_workspace\EEMBC_final\RX65N_Cloud_Kit\src\third_party\gemmlowp/fixedpoint\fixedpoint.h **** // For each pair of input scalars, the corresponding bits of the result are
 191:C:\Users\a5116938\Desktop\e2_studio_workspace\EEMBC_final\RX65N_Cloud_Kit\src\third_party\gemmlowp/fixedpoint\fixedpoint.h **** // set if the input scalars a, b satisfy a >= b.
 192:C:\Users\a5116938\Desktop\e2_studio_workspace\EEMBC_final\RX65N_Cloud_Kit\src\third_party\gemmlowp/fixedpoint\fixedpoint.h **** template <typename tIntegerType>
 193:C:\Users\a5116938\Desktop\e2_studio_workspace\EEMBC_final\RX65N_Cloud_Kit\src\third_party\gemmlowp/fixedpoint\fixedpoint.h **** tIntegerType MaskIfGreaterThanOrEqual(tIntegerType a, tIntegerType b) {
 194:C:\Users\a5116938\Desktop\e2_studio_workspace\EEMBC_final\RX65N_Cloud_Kit\src\third_party\gemmlowp/fixedpoint\fixedpoint.h ****   return MaskIfNonZero<tIntegerType>(a >= b);
 195:C:\Users\a5116938\Desktop\e2_studio_workspace\EEMBC_final\RX65N_Cloud_Kit\src\third_party\gemmlowp/fixedpoint\fixedpoint.h **** }
 196:C:\Users\a5116938\Desktop\e2_studio_workspace\EEMBC_final\RX65N_Cloud_Kit\src\third_party\gemmlowp/fixedpoint\fixedpoint.h **** 
 197:C:\Users\a5116938\Desktop\e2_studio_workspace\EEMBC_final\RX65N_Cloud_Kit\src\third_party\gemmlowp/fixedpoint\fixedpoint.h **** // For each pair of input scalars, the corresponding bits of the result are
 198:C:\Users\a5116938\Desktop\e2_studio_workspace\EEMBC_final\RX65N_Cloud_Kit\src\third_party\gemmlowp/fixedpoint\fixedpoint.h **** // set if the input scalars a, b satisfy a < b.
 199:C:\Users\a5116938\Desktop\e2_studio_workspace\EEMBC_final\RX65N_Cloud_Kit\src\third_party\gemmlowp/fixedpoint\fixedpoint.h **** template <typename tIntegerType>
 200:C:\Users\a5116938\Desktop\e2_studio_workspace\EEMBC_final\RX65N_Cloud_Kit\src\third_party\gemmlowp/fixedpoint\fixedpoint.h **** tIntegerType MaskIfLessThan(tIntegerType a, tIntegerType b) {
 201:C:\Users\a5116938\Desktop\e2_studio_workspace\EEMBC_final\RX65N_Cloud_Kit\src\third_party\gemmlowp/fixedpoint\fixedpoint.h ****   return MaskIfNonZero<tIntegerType>(a < b);
 202:C:\Users\a5116938\Desktop\e2_studio_workspace\EEMBC_final\RX65N_Cloud_Kit\src\third_party\gemmlowp/fixedpoint\fixedpoint.h **** }
 203:C:\Users\a5116938\Desktop\e2_studio_workspace\EEMBC_final\RX65N_Cloud_Kit\src\third_party\gemmlowp/fixedpoint\fixedpoint.h **** 
 204:C:\Users\a5116938\Desktop\e2_studio_workspace\EEMBC_final\RX65N_Cloud_Kit\src\third_party\gemmlowp/fixedpoint\fixedpoint.h **** // For each pair of input scalars, the corresponding bits of the result are
 205:C:\Users\a5116938\Desktop\e2_studio_workspace\EEMBC_final\RX65N_Cloud_Kit\src\third_party\gemmlowp/fixedpoint\fixedpoint.h **** // set if the input scalars a, b satisfy a <= b.
 206:C:\Users\a5116938\Desktop\e2_studio_workspace\EEMBC_final\RX65N_Cloud_Kit\src\third_party\gemmlowp/fixedpoint\fixedpoint.h **** template <typename tIntegerType>
 207:C:\Users\a5116938\Desktop\e2_studio_workspace\EEMBC_final\RX65N_Cloud_Kit\src\third_party\gemmlowp/fixedpoint\fixedpoint.h **** tIntegerType MaskIfLessThanOrEqual(tIntegerType a, tIntegerType b) {
 208:C:\Users\a5116938\Desktop\e2_studio_workspace\EEMBC_final\RX65N_Cloud_Kit\src\third_party\gemmlowp/fixedpoint\fixedpoint.h ****   return MaskIfNonZero<tIntegerType>(a <= b);
 209:C:\Users\a5116938\Desktop\e2_studio_workspace\EEMBC_final\RX65N_Cloud_Kit\src\third_party\gemmlowp/fixedpoint\fixedpoint.h **** }
 210:C:\Users\a5116938\Desktop\e2_studio_workspace\EEMBC_final\RX65N_Cloud_Kit\src\third_party\gemmlowp/fixedpoint\fixedpoint.h **** 
 211:C:\Users\a5116938\Desktop\e2_studio_workspace\EEMBC_final\RX65N_Cloud_Kit\src\third_party\gemmlowp/fixedpoint\fixedpoint.h **** // Returns true if all of the input scalars are nonzero.
 212:C:\Users\a5116938\Desktop\e2_studio_workspace\EEMBC_final\RX65N_Cloud_Kit\src\third_party\gemmlowp/fixedpoint\fixedpoint.h **** // This function may currently assume that each of the input scalars has either
 213:C:\Users\a5116938\Desktop\e2_studio_workspace\EEMBC_final\RX65N_Cloud_Kit\src\third_party\gemmlowp/fixedpoint\fixedpoint.h **** // all or none of its bits set. Otherwise, its behavior is currently undefined.
 214:C:\Users\a5116938\Desktop\e2_studio_workspace\EEMBC_final\RX65N_Cloud_Kit\src\third_party\gemmlowp/fixedpoint\fixedpoint.h **** template <typename tIntegerType>
 215:C:\Users\a5116938\Desktop\e2_studio_workspace\EEMBC_final\RX65N_Cloud_Kit\src\third_party\gemmlowp/fixedpoint\fixedpoint.h **** bool All(tIntegerType a) {
 216:C:\Users\a5116938\Desktop\e2_studio_workspace\EEMBC_final\RX65N_Cloud_Kit\src\third_party\gemmlowp/fixedpoint\fixedpoint.h ****   return a;
 217:C:\Users\a5116938\Desktop\e2_studio_workspace\EEMBC_final\RX65N_Cloud_Kit\src\third_party\gemmlowp/fixedpoint\fixedpoint.h **** }
 218:C:\Users\a5116938\Desktop\e2_studio_workspace\EEMBC_final\RX65N_Cloud_Kit\src\third_party\gemmlowp/fixedpoint\fixedpoint.h **** 
 219:C:\Users\a5116938\Desktop\e2_studio_workspace\EEMBC_final\RX65N_Cloud_Kit\src\third_party\gemmlowp/fixedpoint\fixedpoint.h **** // Returns true if any of the input scalars are nonzero.
 220:C:\Users\a5116938\Desktop\e2_studio_workspace\EEMBC_final\RX65N_Cloud_Kit\src\third_party\gemmlowp/fixedpoint\fixedpoint.h **** // This function may currently assume that each of the input scalars has either
 221:C:\Users\a5116938\Desktop\e2_studio_workspace\EEMBC_final\RX65N_Cloud_Kit\src\third_party\gemmlowp/fixedpoint\fixedpoint.h **** // all or none of its bits set. Otherwise, its behavior is currently undefined.
 222:C:\Users\a5116938\Desktop\e2_studio_workspace\EEMBC_final\RX65N_Cloud_Kit\src\third_party\gemmlowp/fixedpoint\fixedpoint.h **** template <typename tIntegerType>
 223:C:\Users\a5116938\Desktop\e2_studio_workspace\EEMBC_final\RX65N_Cloud_Kit\src\third_party\gemmlowp/fixedpoint\fixedpoint.h **** bool Any(tIntegerType a) {
 224:C:\Users\a5116938\Desktop\e2_studio_workspace\EEMBC_final\RX65N_Cloud_Kit\src\third_party\gemmlowp/fixedpoint\fixedpoint.h ****   return a;
 225:C:\Users\a5116938\Desktop\e2_studio_workspace\EEMBC_final\RX65N_Cloud_Kit\src\third_party\gemmlowp/fixedpoint\fixedpoint.h **** }
 226:C:\Users\a5116938\Desktop\e2_studio_workspace\EEMBC_final\RX65N_Cloud_Kit\src\third_party\gemmlowp/fixedpoint\fixedpoint.h **** 
 227:C:\Users\a5116938\Desktop\e2_studio_workspace\EEMBC_final\RX65N_Cloud_Kit\src\third_party\gemmlowp/fixedpoint\fixedpoint.h **** // Returns (a+b)/2, rounded to the nearest integer.
 228:C:\Users\a5116938\Desktop\e2_studio_workspace\EEMBC_final\RX65N_Cloud_Kit\src\third_party\gemmlowp/fixedpoint\fixedpoint.h **** // Equivalent to VRHADD in the ARM NEON instruction set.
 229:C:\Users\a5116938\Desktop\e2_studio_workspace\EEMBC_final\RX65N_Cloud_Kit\src\third_party\gemmlowp/fixedpoint\fixedpoint.h **** template <typename IntegerType>
 230:C:\Users\a5116938\Desktop\e2_studio_workspace\EEMBC_final\RX65N_Cloud_Kit\src\third_party\gemmlowp/fixedpoint\fixedpoint.h **** IntegerType RoundingHalfSum(IntegerType a, IntegerType b) {
 231:C:\Users\a5116938\Desktop\e2_studio_workspace\EEMBC_final\RX65N_Cloud_Kit\src\third_party\gemmlowp/fixedpoint\fixedpoint.h ****   static_assert(std::is_same<IntegerType, void>::value, "unimplemented");
 232:C:\Users\a5116938\Desktop\e2_studio_workspace\EEMBC_final\RX65N_Cloud_Kit\src\third_party\gemmlowp/fixedpoint\fixedpoint.h ****   (void)b;
 233:C:\Users\a5116938\Desktop\e2_studio_workspace\EEMBC_final\RX65N_Cloud_Kit\src\third_party\gemmlowp/fixedpoint\fixedpoint.h ****   return a;
 234:C:\Users\a5116938\Desktop\e2_studio_workspace\EEMBC_final\RX65N_Cloud_Kit\src\third_party\gemmlowp/fixedpoint\fixedpoint.h **** }
 235:C:\Users\a5116938\Desktop\e2_studio_workspace\EEMBC_final\RX65N_Cloud_Kit\src\third_party\gemmlowp/fixedpoint\fixedpoint.h **** 
 236:C:\Users\a5116938\Desktop\e2_studio_workspace\EEMBC_final\RX65N_Cloud_Kit\src\third_party\gemmlowp/fixedpoint\fixedpoint.h **** template <>
 237:C:\Users\a5116938\Desktop\e2_studio_workspace\EEMBC_final\RX65N_Cloud_Kit\src\third_party\gemmlowp/fixedpoint\fixedpoint.h **** inline std::int32_t RoundingHalfSum(std::int32_t a, std::int32_t b) {
 238:C:\Users\a5116938\Desktop\e2_studio_workspace\EEMBC_final\RX65N_Cloud_Kit\src\third_party\gemmlowp/fixedpoint\fixedpoint.h ****   std::int64_t a64 = a;
 239:C:\Users\a5116938\Desktop\e2_studio_workspace\EEMBC_final\RX65N_Cloud_Kit\src\third_party\gemmlowp/fixedpoint\fixedpoint.h ****   std::int64_t b64 = b;
 240:C:\Users\a5116938\Desktop\e2_studio_workspace\EEMBC_final\RX65N_Cloud_Kit\src\third_party\gemmlowp/fixedpoint\fixedpoint.h ****   std::int64_t sum = a64 + b64;
 241:C:\Users\a5116938\Desktop\e2_studio_workspace\EEMBC_final\RX65N_Cloud_Kit\src\third_party\gemmlowp/fixedpoint\fixedpoint.h ****   std::int64_t sign = sum >= 0 ? 1 : -1;
 242:C:\Users\a5116938\Desktop\e2_studio_workspace\EEMBC_final\RX65N_Cloud_Kit\src\third_party\gemmlowp/fixedpoint\fixedpoint.h ****   return static_cast<std::int32_t>((sum + sign) / 2);
 243:C:\Users\a5116938\Desktop\e2_studio_workspace\EEMBC_final\RX65N_Cloud_Kit\src\third_party\gemmlowp/fixedpoint\fixedpoint.h **** }
 244:C:\Users\a5116938\Desktop\e2_studio_workspace\EEMBC_final\RX65N_Cloud_Kit\src\third_party\gemmlowp/fixedpoint\fixedpoint.h **** 
 245:C:\Users\a5116938\Desktop\e2_studio_workspace\EEMBC_final\RX65N_Cloud_Kit\src\third_party\gemmlowp/fixedpoint\fixedpoint.h **** template <>
 246:C:\Users\a5116938\Desktop\e2_studio_workspace\EEMBC_final\RX65N_Cloud_Kit\src\third_party\gemmlowp/fixedpoint\fixedpoint.h **** inline std::int16_t RoundingHalfSum(std::int16_t a, std::int16_t b) {
 247:C:\Users\a5116938\Desktop\e2_studio_workspace\EEMBC_final\RX65N_Cloud_Kit\src\third_party\gemmlowp/fixedpoint\fixedpoint.h ****   std::int32_t a32 = a;
 248:C:\Users\a5116938\Desktop\e2_studio_workspace\EEMBC_final\RX65N_Cloud_Kit\src\third_party\gemmlowp/fixedpoint\fixedpoint.h ****   std::int32_t b32 = b;
 249:C:\Users\a5116938\Desktop\e2_studio_workspace\EEMBC_final\RX65N_Cloud_Kit\src\third_party\gemmlowp/fixedpoint\fixedpoint.h ****   std::int32_t sum = a32 + b32;
 250:C:\Users\a5116938\Desktop\e2_studio_workspace\EEMBC_final\RX65N_Cloud_Kit\src\third_party\gemmlowp/fixedpoint\fixedpoint.h ****   std::int32_t sign = sum >= 0 ? 1 : -1;
 251:C:\Users\a5116938\Desktop\e2_studio_workspace\EEMBC_final\RX65N_Cloud_Kit\src\third_party\gemmlowp/fixedpoint\fixedpoint.h ****   return static_cast<std::int16_t>((sum + sign) / 2);
 252:C:\Users\a5116938\Desktop\e2_studio_workspace\EEMBC_final\RX65N_Cloud_Kit\src\third_party\gemmlowp/fixedpoint\fixedpoint.h **** }
 253:C:\Users\a5116938\Desktop\e2_studio_workspace\EEMBC_final\RX65N_Cloud_Kit\src\third_party\gemmlowp/fixedpoint\fixedpoint.h **** 
 254:C:\Users\a5116938\Desktop\e2_studio_workspace\EEMBC_final\RX65N_Cloud_Kit\src\third_party\gemmlowp/fixedpoint\fixedpoint.h **** template <typename IntegerType>
 255:C:\Users\a5116938\Desktop\e2_studio_workspace\EEMBC_final\RX65N_Cloud_Kit\src\third_party\gemmlowp/fixedpoint\fixedpoint.h **** IntegerType SaturatingAdd(IntegerType a, IntegerType b) {
 256:C:\Users\a5116938\Desktop\e2_studio_workspace\EEMBC_final\RX65N_Cloud_Kit\src\third_party\gemmlowp/fixedpoint\fixedpoint.h ****   static_assert(std::is_same<IntegerType, void>::value, "unimplemented");
 257:C:\Users\a5116938\Desktop\e2_studio_workspace\EEMBC_final\RX65N_Cloud_Kit\src\third_party\gemmlowp/fixedpoint\fixedpoint.h ****   (void)b;
 258:C:\Users\a5116938\Desktop\e2_studio_workspace\EEMBC_final\RX65N_Cloud_Kit\src\third_party\gemmlowp/fixedpoint\fixedpoint.h ****   return a;
 259:C:\Users\a5116938\Desktop\e2_studio_workspace\EEMBC_final\RX65N_Cloud_Kit\src\third_party\gemmlowp/fixedpoint\fixedpoint.h **** }
 260:C:\Users\a5116938\Desktop\e2_studio_workspace\EEMBC_final\RX65N_Cloud_Kit\src\third_party\gemmlowp/fixedpoint\fixedpoint.h **** 
 261:C:\Users\a5116938\Desktop\e2_studio_workspace\EEMBC_final\RX65N_Cloud_Kit\src\third_party\gemmlowp/fixedpoint\fixedpoint.h **** // So far this is only needed for int16.
 262:C:\Users\a5116938\Desktop\e2_studio_workspace\EEMBC_final\RX65N_Cloud_Kit\src\third_party\gemmlowp/fixedpoint\fixedpoint.h **** template <>
 263:C:\Users\a5116938\Desktop\e2_studio_workspace\EEMBC_final\RX65N_Cloud_Kit\src\third_party\gemmlowp/fixedpoint\fixedpoint.h **** inline std::int16_t SaturatingAdd(std::int16_t a, std::int16_t b) {
 264:C:\Users\a5116938\Desktop\e2_studio_workspace\EEMBC_final\RX65N_Cloud_Kit\src\third_party\gemmlowp/fixedpoint\fixedpoint.h ****   std::int32_t a32 = a;
 265:C:\Users\a5116938\Desktop\e2_studio_workspace\EEMBC_final\RX65N_Cloud_Kit\src\third_party\gemmlowp/fixedpoint\fixedpoint.h ****   std::int32_t b32 = b;
 266:C:\Users\a5116938\Desktop\e2_studio_workspace\EEMBC_final\RX65N_Cloud_Kit\src\third_party\gemmlowp/fixedpoint\fixedpoint.h ****   std::int32_t sum = a32 + b32;
 267:C:\Users\a5116938\Desktop\e2_studio_workspace\EEMBC_final\RX65N_Cloud_Kit\src\third_party\gemmlowp/fixedpoint\fixedpoint.h ****   return static_cast<std::int16_t>(
 268:C:\Users\a5116938\Desktop\e2_studio_workspace\EEMBC_final\RX65N_Cloud_Kit\src\third_party\gemmlowp/fixedpoint\fixedpoint.h ****       std::min(static_cast<std::int32_t>(32767),
 269:C:\Users\a5116938\Desktop\e2_studio_workspace\EEMBC_final\RX65N_Cloud_Kit\src\third_party\gemmlowp/fixedpoint\fixedpoint.h ****                std::max(static_cast<std::int32_t>(-32768), sum)));
 270:C:\Users\a5116938\Desktop\e2_studio_workspace\EEMBC_final\RX65N_Cloud_Kit\src\third_party\gemmlowp/fixedpoint\fixedpoint.h **** }
 271:C:\Users\a5116938\Desktop\e2_studio_workspace\EEMBC_final\RX65N_Cloud_Kit\src\third_party\gemmlowp/fixedpoint\fixedpoint.h **** 
 272:C:\Users\a5116938\Desktop\e2_studio_workspace\EEMBC_final\RX65N_Cloud_Kit\src\third_party\gemmlowp/fixedpoint\fixedpoint.h **** template <>
 273:C:\Users\a5116938\Desktop\e2_studio_workspace\EEMBC_final\RX65N_Cloud_Kit\src\third_party\gemmlowp/fixedpoint\fixedpoint.h **** inline std::int8_t SaturatingAdd(std::int8_t a, std::int8_t b) {
 274:C:\Users\a5116938\Desktop\e2_studio_workspace\EEMBC_final\RX65N_Cloud_Kit\src\third_party\gemmlowp/fixedpoint\fixedpoint.h ****   std::int16_t a16 = a;
 275:C:\Users\a5116938\Desktop\e2_studio_workspace\EEMBC_final\RX65N_Cloud_Kit\src\third_party\gemmlowp/fixedpoint\fixedpoint.h ****   std::int16_t b16 = b;
 276:C:\Users\a5116938\Desktop\e2_studio_workspace\EEMBC_final\RX65N_Cloud_Kit\src\third_party\gemmlowp/fixedpoint\fixedpoint.h ****   std::int16_t sum = a16 + b16;
 277:C:\Users\a5116938\Desktop\e2_studio_workspace\EEMBC_final\RX65N_Cloud_Kit\src\third_party\gemmlowp/fixedpoint\fixedpoint.h ****   return static_cast<std::int8_t>(std::min(
 278:C:\Users\a5116938\Desktop\e2_studio_workspace\EEMBC_final\RX65N_Cloud_Kit\src\third_party\gemmlowp/fixedpoint\fixedpoint.h ****       static_cast<int16_t>(std::numeric_limits<int8_t>::max()),
 279:C:\Users\a5116938\Desktop\e2_studio_workspace\EEMBC_final\RX65N_Cloud_Kit\src\third_party\gemmlowp/fixedpoint\fixedpoint.h ****       std::max(static_cast<int16_t>(std::numeric_limits<int8_t>::min()), sum)));
 280:C:\Users\a5116938\Desktop\e2_studio_workspace\EEMBC_final\RX65N_Cloud_Kit\src\third_party\gemmlowp/fixedpoint\fixedpoint.h **** }
 281:C:\Users\a5116938\Desktop\e2_studio_workspace\EEMBC_final\RX65N_Cloud_Kit\src\third_party\gemmlowp/fixedpoint\fixedpoint.h **** 
 282:C:\Users\a5116938\Desktop\e2_studio_workspace\EEMBC_final\RX65N_Cloud_Kit\src\third_party\gemmlowp/fixedpoint\fixedpoint.h **** // Returns a+b, saturating if the integers are 16bit or narrower,
 283:C:\Users\a5116938\Desktop\e2_studio_workspace\EEMBC_final\RX65N_Cloud_Kit\src\third_party\gemmlowp/fixedpoint\fixedpoint.h **** // otherwise just a plain addition.
 284:C:\Users\a5116938\Desktop\e2_studio_workspace\EEMBC_final\RX65N_Cloud_Kit\src\third_party\gemmlowp/fixedpoint\fixedpoint.h **** template <typename IntegerType, bool Is16Bit>
 285:C:\Users\a5116938\Desktop\e2_studio_workspace\EEMBC_final\RX65N_Cloud_Kit\src\third_party\gemmlowp/fixedpoint\fixedpoint.h **** struct AddSaturatingIf16BitImpl {
 286:C:\Users\a5116938\Desktop\e2_studio_workspace\EEMBC_final\RX65N_Cloud_Kit\src\third_party\gemmlowp/fixedpoint\fixedpoint.h ****   static IntegerType Run(IntegerType a, IntegerType b) { return Add(a, b); }
 287:C:\Users\a5116938\Desktop\e2_studio_workspace\EEMBC_final\RX65N_Cloud_Kit\src\third_party\gemmlowp/fixedpoint\fixedpoint.h **** };
 288:C:\Users\a5116938\Desktop\e2_studio_workspace\EEMBC_final\RX65N_Cloud_Kit\src\third_party\gemmlowp/fixedpoint\fixedpoint.h **** template <typename IntegerType>
 289:C:\Users\a5116938\Desktop\e2_studio_workspace\EEMBC_final\RX65N_Cloud_Kit\src\third_party\gemmlowp/fixedpoint\fixedpoint.h **** struct AddSaturatingIf16BitImpl<IntegerType, true> {
 290:C:\Users\a5116938\Desktop\e2_studio_workspace\EEMBC_final\RX65N_Cloud_Kit\src\third_party\gemmlowp/fixedpoint\fixedpoint.h ****   static IntegerType Run(IntegerType a, IntegerType b) {
 291:C:\Users\a5116938\Desktop\e2_studio_workspace\EEMBC_final\RX65N_Cloud_Kit\src\third_party\gemmlowp/fixedpoint\fixedpoint.h ****     return SaturatingAdd(a, b);
 292:C:\Users\a5116938\Desktop\e2_studio_workspace\EEMBC_final\RX65N_Cloud_Kit\src\third_party\gemmlowp/fixedpoint\fixedpoint.h ****   }
 293:C:\Users\a5116938\Desktop\e2_studio_workspace\EEMBC_final\RX65N_Cloud_Kit\src\third_party\gemmlowp/fixedpoint\fixedpoint.h **** };
 294:C:\Users\a5116938\Desktop\e2_studio_workspace\EEMBC_final\RX65N_Cloud_Kit\src\third_party\gemmlowp/fixedpoint\fixedpoint.h **** template <typename IntegerType>
 295:C:\Users\a5116938\Desktop\e2_studio_workspace\EEMBC_final\RX65N_Cloud_Kit\src\third_party\gemmlowp/fixedpoint\fixedpoint.h **** IntegerType AddSaturatingIf16Bit(IntegerType a, IntegerType b) {
 296:C:\Users\a5116938\Desktop\e2_studio_workspace\EEMBC_final\RX65N_Cloud_Kit\src\third_party\gemmlowp/fixedpoint\fixedpoint.h ****   using ScalarType =
 297:C:\Users\a5116938\Desktop\e2_studio_workspace\EEMBC_final\RX65N_Cloud_Kit\src\third_party\gemmlowp/fixedpoint\fixedpoint.h ****       typename FixedPointRawTypeTraits<IntegerType>::ScalarRawType;
 298:C:\Users\a5116938\Desktop\e2_studio_workspace\EEMBC_final\RX65N_Cloud_Kit\src\third_party\gemmlowp/fixedpoint\fixedpoint.h ****   return AddSaturatingIf16BitImpl<IntegerType, sizeof(ScalarType) == 2>::Run(a,
 299:C:\Users\a5116938\Desktop\e2_studio_workspace\EEMBC_final\RX65N_Cloud_Kit\src\third_party\gemmlowp/fixedpoint\fixedpoint.h ****                                                                              b);
 300:C:\Users\a5116938\Desktop\e2_studio_workspace\EEMBC_final\RX65N_Cloud_Kit\src\third_party\gemmlowp/fixedpoint\fixedpoint.h **** }
 301:C:\Users\a5116938\Desktop\e2_studio_workspace\EEMBC_final\RX65N_Cloud_Kit\src\third_party\gemmlowp/fixedpoint\fixedpoint.h **** 
 302:C:\Users\a5116938\Desktop\e2_studio_workspace\EEMBC_final\RX65N_Cloud_Kit\src\third_party\gemmlowp/fixedpoint\fixedpoint.h **** // Returns the integer that represents the product of two fixed-point
 303:C:\Users\a5116938\Desktop\e2_studio_workspace\EEMBC_final\RX65N_Cloud_Kit\src\third_party\gemmlowp/fixedpoint\fixedpoint.h **** // numbers, interpreting all integers as fixed-point values in the
 304:C:\Users\a5116938\Desktop\e2_studio_workspace\EEMBC_final\RX65N_Cloud_Kit\src\third_party\gemmlowp/fixedpoint\fixedpoint.h **** // interval [-1, 1), rounding to the nearest value, and saturating
 305:C:\Users\a5116938\Desktop\e2_studio_workspace\EEMBC_final\RX65N_Cloud_Kit\src\third_party\gemmlowp/fixedpoint\fixedpoint.h **** // -1 * -1 to the maximum value (since 1 is not in the half-open
 306:C:\Users\a5116938\Desktop\e2_studio_workspace\EEMBC_final\RX65N_Cloud_Kit\src\third_party\gemmlowp/fixedpoint\fixedpoint.h **** // interval [-1, 1)).
 307:C:\Users\a5116938\Desktop\e2_studio_workspace\EEMBC_final\RX65N_Cloud_Kit\src\third_party\gemmlowp/fixedpoint\fixedpoint.h **** //
 308:C:\Users\a5116938\Desktop\e2_studio_workspace\EEMBC_final\RX65N_Cloud_Kit\src\third_party\gemmlowp/fixedpoint\fixedpoint.h **** // [The explanation below specializes to std::int32_t for example purpose.]
 309:C:\Users\a5116938\Desktop\e2_studio_workspace\EEMBC_final\RX65N_Cloud_Kit\src\third_party\gemmlowp/fixedpoint\fixedpoint.h **** //
 310:C:\Users\a5116938\Desktop\e2_studio_workspace\EEMBC_final\RX65N_Cloud_Kit\src\third_party\gemmlowp/fixedpoint\fixedpoint.h **** // The mapping between IntegerType and the interval [-1, 1) is unique and
 311:C:\Users\a5116938\Desktop\e2_studio_workspace\EEMBC_final\RX65N_Cloud_Kit\src\third_party\gemmlowp/fixedpoint\fixedpoint.h **** // implied by IntegerType, which is assumed to be signed. For example,
 312:C:\Users\a5116938\Desktop\e2_studio_workspace\EEMBC_final\RX65N_Cloud_Kit\src\third_party\gemmlowp/fixedpoint\fixedpoint.h **** // for IntegerType==std::int32_t, the mapping is
 313:C:\Users\a5116938\Desktop\e2_studio_workspace\EEMBC_final\RX65N_Cloud_Kit\src\third_party\gemmlowp/fixedpoint\fixedpoint.h **** //   real_value = integer_value / 2^31.
 314:C:\Users\a5116938\Desktop\e2_studio_workspace\EEMBC_final\RX65N_Cloud_Kit\src\third_party\gemmlowp/fixedpoint\fixedpoint.h **** // So in this case, and leaving aside rounding and saturating, this
 315:C:\Users\a5116938\Desktop\e2_studio_workspace\EEMBC_final\RX65N_Cloud_Kit\src\third_party\gemmlowp/fixedpoint\fixedpoint.h **** // function computes ((a / 2^31) * (b / 2^31)) * 2^31, which simplifies to
 316:C:\Users\a5116938\Desktop\e2_studio_workspace\EEMBC_final\RX65N_Cloud_Kit\src\third_party\gemmlowp/fixedpoint\fixedpoint.h **** //   (a * b) / 2^31.
 317:C:\Users\a5116938\Desktop\e2_studio_workspace\EEMBC_final\RX65N_Cloud_Kit\src\third_party\gemmlowp/fixedpoint\fixedpoint.h **** //
 318:C:\Users\a5116938\Desktop\e2_studio_workspace\EEMBC_final\RX65N_Cloud_Kit\src\third_party\gemmlowp/fixedpoint\fixedpoint.h **** // The 'doubling' part in the name of this function comes from the fact that
 319:C:\Users\a5116938\Desktop\e2_studio_workspace\EEMBC_final\RX65N_Cloud_Kit\src\third_party\gemmlowp/fixedpoint\fixedpoint.h **** // this operation is very close to a "multiply-high" operation, keeping only
 320:C:\Users\a5116938\Desktop\e2_studio_workspace\EEMBC_final\RX65N_Cloud_Kit\src\third_party\gemmlowp/fixedpoint\fixedpoint.h **** // the top half bits, except that that would be effectively computing
 321:C:\Users\a5116938\Desktop\e2_studio_workspace\EEMBC_final\RX65N_Cloud_Kit\src\third_party\gemmlowp/fixedpoint\fixedpoint.h **** //   (a * b) / 2^32,
 322:C:\Users\a5116938\Desktop\e2_studio_workspace\EEMBC_final\RX65N_Cloud_Kit\src\third_party\gemmlowp/fixedpoint\fixedpoint.h **** // so here we are computing 2x that, since
 323:C:\Users\a5116938\Desktop\e2_studio_workspace\EEMBC_final\RX65N_Cloud_Kit\src\third_party\gemmlowp/fixedpoint\fixedpoint.h **** //   1/2^31 = 2 * 1/2^32.
 324:C:\Users\a5116938\Desktop\e2_studio_workspace\EEMBC_final\RX65N_Cloud_Kit\src\third_party\gemmlowp/fixedpoint\fixedpoint.h **** // The idea is to use all of the available 32 bits in the destination int32
 325:C:\Users\a5116938\Desktop\e2_studio_workspace\EEMBC_final\RX65N_Cloud_Kit\src\third_party\gemmlowp/fixedpoint\fixedpoint.h **** // value.
 326:C:\Users\a5116938\Desktop\e2_studio_workspace\EEMBC_final\RX65N_Cloud_Kit\src\third_party\gemmlowp/fixedpoint\fixedpoint.h **** //
 327:C:\Users\a5116938\Desktop\e2_studio_workspace\EEMBC_final\RX65N_Cloud_Kit\src\third_party\gemmlowp/fixedpoint\fixedpoint.h **** // [End of the explanation specializing to int32.]
 328:C:\Users\a5116938\Desktop\e2_studio_workspace\EEMBC_final\RX65N_Cloud_Kit\src\third_party\gemmlowp/fixedpoint\fixedpoint.h **** //
 329:C:\Users\a5116938\Desktop\e2_studio_workspace\EEMBC_final\RX65N_Cloud_Kit\src\third_party\gemmlowp/fixedpoint\fixedpoint.h **** // This is equivalent to the VQRDMULH instruction in ARM NEON.
 330:C:\Users\a5116938\Desktop\e2_studio_workspace\EEMBC_final\RX65N_Cloud_Kit\src\third_party\gemmlowp/fixedpoint\fixedpoint.h **** template <typename IntegerType>
 331:C:\Users\a5116938\Desktop\e2_studio_workspace\EEMBC_final\RX65N_Cloud_Kit\src\third_party\gemmlowp/fixedpoint\fixedpoint.h **** IntegerType SaturatingRoundingDoublingHighMul(IntegerType a, IntegerType b) {
 332:C:\Users\a5116938\Desktop\e2_studio_workspace\EEMBC_final\RX65N_Cloud_Kit\src\third_party\gemmlowp/fixedpoint\fixedpoint.h ****   static_assert(std::is_same<IntegerType, void>::value, "unimplemented");
 333:C:\Users\a5116938\Desktop\e2_studio_workspace\EEMBC_final\RX65N_Cloud_Kit\src\third_party\gemmlowp/fixedpoint\fixedpoint.h ****   (void)b;
 334:C:\Users\a5116938\Desktop\e2_studio_workspace\EEMBC_final\RX65N_Cloud_Kit\src\third_party\gemmlowp/fixedpoint\fixedpoint.h ****   return a;
 335:C:\Users\a5116938\Desktop\e2_studio_workspace\EEMBC_final\RX65N_Cloud_Kit\src\third_party\gemmlowp/fixedpoint\fixedpoint.h **** }
 336:C:\Users\a5116938\Desktop\e2_studio_workspace\EEMBC_final\RX65N_Cloud_Kit\src\third_party\gemmlowp/fixedpoint\fixedpoint.h **** 
 337:C:\Users\a5116938\Desktop\e2_studio_workspace\EEMBC_final\RX65N_Cloud_Kit\src\third_party\gemmlowp/fixedpoint\fixedpoint.h **** // This function implements the same computation as the ARMv7 NEON VQRDMULH
 338:C:\Users\a5116938\Desktop\e2_studio_workspace\EEMBC_final\RX65N_Cloud_Kit\src\third_party\gemmlowp/fixedpoint\fixedpoint.h **** // instruction.
 339:C:\Users\a5116938\Desktop\e2_studio_workspace\EEMBC_final\RX65N_Cloud_Kit\src\third_party\gemmlowp/fixedpoint\fixedpoint.h **** template <>
 340:C:\Users\a5116938\Desktop\e2_studio_workspace\EEMBC_final\RX65N_Cloud_Kit\src\third_party\gemmlowp/fixedpoint\fixedpoint.h **** inline std::int32_t SaturatingRoundingDoublingHighMul(std::int32_t a,
 341:C:\Users\a5116938\Desktop\e2_studio_workspace\EEMBC_final\RX65N_Cloud_Kit\src\third_party\gemmlowp/fixedpoint\fixedpoint.h ****                                                       std::int32_t b) {
 342:C:\Users\a5116938\Desktop\e2_studio_workspace\EEMBC_final\RX65N_Cloud_Kit\src\third_party\gemmlowp/fixedpoint\fixedpoint.h ****   bool overflow = a == b && a == std::numeric_limits<std::int32_t>::min();
 343:C:\Users\a5116938\Desktop\e2_studio_workspace\EEMBC_final\RX65N_Cloud_Kit\src\third_party\gemmlowp/fixedpoint\fixedpoint.h ****   std::int64_t a_64(a);
 344:C:\Users\a5116938\Desktop\e2_studio_workspace\EEMBC_final\RX65N_Cloud_Kit\src\third_party\gemmlowp/fixedpoint\fixedpoint.h ****   std::int64_t b_64(b);
 345:C:\Users\a5116938\Desktop\e2_studio_workspace\EEMBC_final\RX65N_Cloud_Kit\src\third_party\gemmlowp/fixedpoint\fixedpoint.h ****   std::int64_t ab_64 = a_64 * b_64;
 346:C:\Users\a5116938\Desktop\e2_studio_workspace\EEMBC_final\RX65N_Cloud_Kit\src\third_party\gemmlowp/fixedpoint\fixedpoint.h ****   std::int32_t nudge = ab_64 >= 0 ? (1 << 30) : (1 - (1 << 30));
 347:C:\Users\a5116938\Desktop\e2_studio_workspace\EEMBC_final\RX65N_Cloud_Kit\src\third_party\gemmlowp/fixedpoint\fixedpoint.h ****   std::int32_t ab_x2_high32 =
 348:C:\Users\a5116938\Desktop\e2_studio_workspace\EEMBC_final\RX65N_Cloud_Kit\src\third_party\gemmlowp/fixedpoint\fixedpoint.h ****       static_cast<std::int32_t>((ab_64 + nudge) / (1ll << 31));
 349:C:\Users\a5116938\Desktop\e2_studio_workspace\EEMBC_final\RX65N_Cloud_Kit\src\third_party\gemmlowp/fixedpoint\fixedpoint.h ****   return overflow ? std::numeric_limits<std::int32_t>::max() : ab_x2_high32;
 350:C:\Users\a5116938\Desktop\e2_studio_workspace\EEMBC_final\RX65N_Cloud_Kit\src\third_party\gemmlowp/fixedpoint\fixedpoint.h **** }
 351:C:\Users\a5116938\Desktop\e2_studio_workspace\EEMBC_final\RX65N_Cloud_Kit\src\third_party\gemmlowp/fixedpoint\fixedpoint.h **** 
 352:C:\Users\a5116938\Desktop\e2_studio_workspace\EEMBC_final\RX65N_Cloud_Kit\src\third_party\gemmlowp/fixedpoint\fixedpoint.h **** template <>
 353:C:\Users\a5116938\Desktop\e2_studio_workspace\EEMBC_final\RX65N_Cloud_Kit\src\third_party\gemmlowp/fixedpoint\fixedpoint.h **** inline std::int16_t SaturatingRoundingDoublingHighMul(std::int16_t a,
 354:C:\Users\a5116938\Desktop\e2_studio_workspace\EEMBC_final\RX65N_Cloud_Kit\src\third_party\gemmlowp/fixedpoint\fixedpoint.h ****                                                       std::int16_t b) {
 355:C:\Users\a5116938\Desktop\e2_studio_workspace\EEMBC_final\RX65N_Cloud_Kit\src\third_party\gemmlowp/fixedpoint\fixedpoint.h ****   bool overflow = a == b && a == std::numeric_limits<std::int16_t>::min();
 356:C:\Users\a5116938\Desktop\e2_studio_workspace\EEMBC_final\RX65N_Cloud_Kit\src\third_party\gemmlowp/fixedpoint\fixedpoint.h ****   std::int32_t a_32(a);
 357:C:\Users\a5116938\Desktop\e2_studio_workspace\EEMBC_final\RX65N_Cloud_Kit\src\third_party\gemmlowp/fixedpoint\fixedpoint.h ****   std::int32_t b_32(b);
 358:C:\Users\a5116938\Desktop\e2_studio_workspace\EEMBC_final\RX65N_Cloud_Kit\src\third_party\gemmlowp/fixedpoint\fixedpoint.h ****   std::int32_t ab_32 = a_32 * b_32;
 359:C:\Users\a5116938\Desktop\e2_studio_workspace\EEMBC_final\RX65N_Cloud_Kit\src\third_party\gemmlowp/fixedpoint\fixedpoint.h ****   std::int16_t nudge = ab_32 >= 0 ? (1 << 14) : (1 - (1 << 14));
 360:C:\Users\a5116938\Desktop\e2_studio_workspace\EEMBC_final\RX65N_Cloud_Kit\src\third_party\gemmlowp/fixedpoint\fixedpoint.h ****   std::int16_t ab_x2_high16 =
 361:C:\Users\a5116938\Desktop\e2_studio_workspace\EEMBC_final\RX65N_Cloud_Kit\src\third_party\gemmlowp/fixedpoint\fixedpoint.h ****       static_cast<std::int16_t>((ab_32 + nudge) / (1 << 15));
 362:C:\Users\a5116938\Desktop\e2_studio_workspace\EEMBC_final\RX65N_Cloud_Kit\src\third_party\gemmlowp/fixedpoint\fixedpoint.h ****   return overflow ? std::numeric_limits<std::int16_t>::max() : ab_x2_high16;
 363:C:\Users\a5116938\Desktop\e2_studio_workspace\EEMBC_final\RX65N_Cloud_Kit\src\third_party\gemmlowp/fixedpoint\fixedpoint.h **** }
 364:C:\Users\a5116938\Desktop\e2_studio_workspace\EEMBC_final\RX65N_Cloud_Kit\src\third_party\gemmlowp/fixedpoint\fixedpoint.h **** 
 365:C:\Users\a5116938\Desktop\e2_studio_workspace\EEMBC_final\RX65N_Cloud_Kit\src\third_party\gemmlowp/fixedpoint\fixedpoint.h **** // Correctly-rounded-to-nearest division by a power-of-two.
 366:C:\Users\a5116938\Desktop\e2_studio_workspace\EEMBC_final\RX65N_Cloud_Kit\src\third_party\gemmlowp/fixedpoint\fixedpoint.h **** // Also known as a rounding arithmetic right shift.
 367:C:\Users\a5116938\Desktop\e2_studio_workspace\EEMBC_final\RX65N_Cloud_Kit\src\third_party\gemmlowp/fixedpoint\fixedpoint.h **** template <typename IntegerType, typename ExponentType>
 368:C:\Users\a5116938\Desktop\e2_studio_workspace\EEMBC_final\RX65N_Cloud_Kit\src\third_party\gemmlowp/fixedpoint\fixedpoint.h **** inline IntegerType RoundingDivideByPOT(IntegerType x, ExponentType exponent) {
 369:C:\Users\a5116938\Desktop\e2_studio_workspace\EEMBC_final\RX65N_Cloud_Kit\src\third_party\gemmlowp/fixedpoint\fixedpoint.h ****   assert(exponent >= 0);
 370:C:\Users\a5116938\Desktop\e2_studio_workspace\EEMBC_final\RX65N_Cloud_Kit\src\third_party\gemmlowp/fixedpoint\fixedpoint.h ****   assert(exponent <= 31);
 371:C:\Users\a5116938\Desktop\e2_studio_workspace\EEMBC_final\RX65N_Cloud_Kit\src\third_party\gemmlowp/fixedpoint\fixedpoint.h ****   const IntegerType mask = Dup<IntegerType>((1ll << exponent) - 1);
 1679                             		.loc 7 371 50
 1680 013c EF 9F                   		mov.L	r9, r15
 1681 013e E7 0D 64                		mov.L	r13, 400[r0]
 1682 0141 E7 08 7C                		mov.L	r8, 496[r0]
 1683                             	.LVL146:
 1684                             		.balign 8,3,2
 1685                             	.L78:
 1686                             	.LBE977:
 1687                             	.LBE976:
 1688                             	.LBE975:
 1689                             	.LBE974:
 1690                             	.LBE973:
 1691                             	.LBE972:
 1692                             	.LBE971:
 1693                             	.LBE970:
 1694                             	.LBE969:
  65:C:\Users\a5116938\Desktop\e2_studio_workspace\EEMBC_final\RX65N_Cloud_Kit\src/tensorflow/lite/kernels/internal/reference/integer_ops\conv.h ****     for (int out_y = 0; out_y < output_height; ++out_y) {
 1695                             		.loc 6 65 31
 1696 0144 ED 06 76                		mov.L	472[r0], r6
 1697 0147 61 06                   		cmp	#0, r6
 1698 0149 2A 05 38 0F 03          		ble	.L83
 1699 014e DD 0A FC                		mov.W	504[r0], r10
 1700 0151 E7 0A 81                		mov.L	r10, 516[r0]
 1701 0154 ED 01 7F                		mov.L	508[r0], r1
 1702 0157 7E 11                   		neg	r1
 1703 0159 E7 01 5B                		mov.L	r1, 364[r0]
 1704                             		.loc 6 65 14
 1705 015c F9 06 5A 00             		mov.L	#0, 360[r0]
 1706 0160 DD 02 FD                		mov.W	506[r0], r2
 1707 0163 E7 02 80                		mov.L	r2, 512[r0]
 1708                             	.LVL147:
 1709 0166 EF 00                   		.balign 8,3,2
 1710                             	.L84:
 1711                             	.LBB1165:
  66:C:\Users\a5116938\Desktop\e2_studio_workspace\EEMBC_final\RX65N_Cloud_Kit\src/tensorflow/lite/kernels/internal/reference/integer_ops\conv.h ****       const int in_y_origin = (out_y * stride_height) - pad_height;
 1712                             		.loc 6 66 7 is_stmt 1
  67:C:\Users\a5116938\Desktop\e2_studio_workspace\EEMBC_final\RX65N_Cloud_Kit\src/tensorflow/lite/kernels/internal/reference/integer_ops\conv.h ****       for (int out_x = 0; out_x < output_width; ++out_x) {
 1713                             		.loc 6 67 7
 1714                             	.LBB1152:
 1715                             		.loc 6 67 33 is_stmt 0
 1716 0168 ED 03 6A                		mov.L	424[r0], r3
 1717 016b 61 03                   		cmp	#0, r3
 1718 016d 2A 05 38 D1 02          		ble	.L86
 1719 0172 ED 07 7D                		mov.L	500[r0], r7
 1720 0175 7E 17                   		neg	r7
 1721 0177 E7 07 59                		mov.L	r7, 356[r0]
 1722                             		.loc 6 67 16
 1723 017a 66 0E                   		mov.L	#0, r14
 1724 017c DD 0A EF                		mov.W	478[r0], r10
 1725 017f E7 0A 63                		mov.L	r10, 396[r0]
 1726                             	.LBB1139:
 1727                             	.LBB1125:
 1728                             	.LBB1110:
 1729                             	.LBB1010:
 1730                             	.LBB1004:
 1731                             	.LBB995:
 1732                             	.LBB996:
 349:C:\Users\a5116938\Desktop\e2_studio_workspace\EEMBC_final\RX65N_Cloud_Kit\src\third_party\gemmlowp/fixedpoint\fixedpoint.h **** }
 1733                             		.loc 7 349 19
 1734 0182 EF ED                   		mov.L	r14, r13
 1735                             	.LVL148:
 1736                             		.balign 8,3,1
 1737                             	.L87:
 1738                             	.LBE996:
 1739                             	.LBE995:
 1740                             	.LBE1004:
 1741                             	.LBE1010:
 1742                             	.LBE1110:
 1743                             	.LBE1125:
  68:C:\Users\a5116938\Desktop\e2_studio_workspace\EEMBC_final\RX65N_Cloud_Kit\src/tensorflow/lite/kernels/internal/reference/integer_ops\conv.h ****         const int in_x_origin = (out_x * stride_width) - pad_width;
 1744                             		.loc 6 68 9 is_stmt 1
  69:C:\Users\a5116938\Desktop\e2_studio_workspace\EEMBC_final\RX65N_Cloud_Kit\src/tensorflow/lite/kernels/internal/reference/integer_ops\conv.h ****         for (int out_channel = 0; out_channel < output_depth; ++out_channel) {
 1745                             		.loc 6 69 9
 1746                             	.LBB1126:
 1747                             		.loc 6 69 18 is_stmt 0
 1748 0184 66 0E                   		mov.L	#0, r14
 1749 0186 DD 01 EE                		mov.W	476[r0], r1
 1750 0189 E7 01 5F                		mov.L	r1, 380[r0]
 1751                             		.loc 6 69 47
 1752 018c ED 02 64                		mov.L	400[r0], r2
 1753 018f EF D8                   		mov.L	r13, r8
 1754 0191 61 02                   		cmp	#0, r2
 1755 0193 2A 05 38 95 02          		ble	.L107
 1756                             	.LVL149:
 1757                             		.balign 8,3,2
 1758                             	.L85:
 1759                             	.LBB1111:
  70:C:\Users\a5116938\Desktop\e2_studio_workspace\EEMBC_final\RX65N_Cloud_Kit\src/tensorflow/lite/kernels/internal/reference/integer_ops\conv.h ****           int32_t acc = 0;
 1760                             		.loc 6 70 11 is_stmt 1
  71:C:\Users\a5116938\Desktop\e2_studio_workspace\EEMBC_final\RX65N_Cloud_Kit\src/tensorflow/lite/kernels/internal/reference/integer_ops\conv.h ****           for (int filter_y = 0; filter_y < filter_height; ++filter_y) {
 1761                             		.loc 6 71 11
 1762                             	.LBB1011:
 1763                             		.loc 6 71 43 is_stmt 0
 1764 0198 ED 05 62                		mov.L	392[r0], r5
 1765 019b 61 05                   		cmp	#0, r5
 1766 019d 2A 05 38 59 03          		ble	.L130
 1767                             	.LBB1012:
 1768                             	.LBB1013:
 1769                             	.LBB1014:
 1770                             	.LBB1015:
 1771                             	.LBB1016:
 1772                             	.LBB1017:
 1773                             	.LBB1018:
 389:C:\Users\a5116938\Desktop\e2_studio_workspace\EEMBC_final\RX65N_Cloud_Kit\src/tensorflow/lite/kernels/internal\types.h ****   TFLITE_DCHECK(i2 >= 0 && i2 < dims_data[2]);
 1774                             		.loc 3 389 3
 1775 01a2 E5 00 13 5E             		mov.L	76[r0], 376[r0]
 390:C:\Users\a5116938\Desktop\e2_studio_workspace\EEMBC_final\RX65N_Cloud_Kit\src/tensorflow/lite/kernels/internal\types.h ****   TFLITE_DCHECK(i3 >= 0 && i3 < dims_data[3]);
 1776                             		.loc 3 390 3
 1777 01a6 ED 09 14                		mov.L	80[r0], r9
 1778                             	.LBE1018:
 1779                             	.LBE1017:
 1780                             	.LBB1027:
 1781                             	.LBB1028:
 1782 01a9 ED 0C 1A                		mov.L	104[r0], r12
 389:C:\Users\a5116938\Desktop\e2_studio_workspace\EEMBC_final\RX65N_Cloud_Kit\src/tensorflow/lite/kernels/internal\types.h ****   TFLITE_DCHECK(i2 >= 0 && i2 < dims_data[2]);
 1783                             		.loc 3 389 3
 1784 01ac E5 00 19 5D             		mov.L	100[r0], 372[r0]
 1785                             	.LBE1028:
 1786                             	.LBE1027:
 1787                             	.LBB1034:
 1788                             	.LBB1019:
 392:C:\Users\a5116938\Desktop\e2_studio_workspace\EEMBC_final\RX65N_Cloud_Kit\src/tensorflow/lite/kernels/internal\types.h **** }
 1789                             		.loc 3 392 15
 1790 01b0 ED 0A 5E                		mov.L	376[r0], r10
 1791 01b3 4F FA                   		mul	r15, r10
 1792                             	.LBE1019:
 1793                             	.LBE1034:
 1794                             	.LBB1035:
 1795                             	.LBB1029:
 391:C:\Users\a5116938\Desktop\e2_studio_workspace\EEMBC_final\RX65N_Cloud_Kit\src/tensorflow/lite/kernels/internal\types.h ****   return ((i0 * dims_data[1] + i1) * dims_data[2] + i2) * dims_data[3] + i3;
 1796                             		.loc 3 391 3
 1797 01b5 AE 8E                   		mov.L	108[r0], r6
 1798 01b7 06 89 0A 5B             		add	364[r0], r10
 1799                             	.LBE1029:
 1800                             	.LBE1035:
 1801                             	.LBB1036:
 1802                             	.LBB1020:
 1803 01bb AD 0D                   		mov.L	84[r0], r5
 1804 01bd 4F 9A                   		mul	r9, r10
 1805 01bf ED 07 5D                		mov.L	372[r0], r7
 1806 01c2 4F C7                   		mul	r12, r7
 1807 01c4 06 89 0A 59             		add	356[r0], r10
 1808 01c8 4F 67                   		mul	r6, r7
 1809 01ca FF 34 95                		mul	r9, r5, r4
 1810 01cd 4F 5A                   		mul	r5, r10
 1811 01cf 4F E7                   		mul	r14, r7
 386:C:\Users\a5116938\Desktop\e2_studio_workspace\EEMBC_final\RX65N_Cloud_Kit\src/tensorflow/lite/kernels/internal\types.h ****   const int* dims_data = reinterpret_cast<const int*>(shape.DimsDataUpTo5D());
 1812                             		.loc 3 386 3
 1813 01d1 E5 00 11 6C             		mov.L	68[r0], 432[r0]
 388:C:\Users\a5116938\Desktop\e2_studio_workspace\EEMBC_final\RX65N_Cloud_Kit\src/tensorflow/lite/kernels/internal\types.h ****   TFLITE_DCHECK(i1 >= 0 && i1 < dims_data[1]);
 1814                             		.loc 3 388 3
 1815 01d5 E5 00 12 71             		mov.L	72[r0], 452[r0]
 1816                             	.LBE1020:
 1817                             	.LBE1036:
 1818                             	.LBB1037:
 1819                             	.LBB1030:
 386:C:\Users\a5116938\Desktop\e2_studio_workspace\EEMBC_final\RX65N_Cloud_Kit\src/tensorflow/lite/kernels/internal\types.h ****   const int* dims_data = reinterpret_cast<const int*>(shape.DimsDataUpTo5D());
 1820                             		.loc 3 386 3
 1821 01d9 E5 00 17 6D             		mov.L	92[r0], 436[r0]
 388:C:\Users\a5116938\Desktop\e2_studio_workspace\EEMBC_final\RX65N_Cloud_Kit\src/tensorflow/lite/kernels/internal\types.h ****   TFLITE_DCHECK(i1 >= 0 && i1 < dims_data[1]);
 1822                             		.loc 3 388 3
 1823 01dd E5 00 18 6E             		mov.L	96[r0], 440[r0]
 1824 01e1 ED 01 63                		mov.L	396[r0], r1
 1825 01e4 4F 41                   		mul	r4, r1
 1826 01e6 E7 01 6B                		mov.L	r1, 428[r0]
 1827 01e9 ED 02 78                		mov.L	480[r0], r2
 1828 01ec 4B A2                   		add	r10, r2
 1829 01ee E7 02 55                		mov.L	r2, 340[r0]
 1830 01f1 FF 33 C6                		mul	r12, r6, r3
 1831 01f4 E7 03 70                		mov.L	r3, 448[r0]
 1832 01f7 ED 0D 79                		mov.L	484[r0], r13
 1833 01fa 4B 7D                   		add	r7, r13
 1834 01fc ED 04 5F                		mov.L	380[r0], r4
 1835 01ff 4F 54                   		mul	r5, r4
 1836 0201 E7 04 6F                		mov.L	r4, 444[r0]
 391:C:\Users\a5116938\Desktop\e2_studio_workspace\EEMBC_final\RX65N_Cloud_Kit\src/tensorflow/lite/kernels/internal\types.h ****   return ((i0 * dims_data[1] + i1) * dims_data[2] + i2) * dims_data[3] + i3;
 1837                             		.loc 3 391 3
 1838 0204 ED 0A 5B                		mov.L	364[r0], r10
 1839                             	.LBE1030:
 1840                             	.LBE1037:
 1841                             	.LBE1016:
 1842                             	.LBE1015:
 1843                             	.LBE1014:
 1844                             	.LBE1013:
 1845                             	.LBE1012:
 1846                             	.LBE1011:
  70:C:\Users\a5116938\Desktop\e2_studio_workspace\EEMBC_final\RX65N_Cloud_Kit\src/tensorflow/lite/kernels/internal/reference/integer_ops\conv.h ****           for (int filter_y = 0; filter_y < filter_height; ++filter_y) {
 1847                             		.loc 6 70 19
 1848 0207 66 07                   		mov.L	#0, r7
 1849                             	.LBB1084:
 1850                             		.loc 6 71 20
 1851 0209 66 01                   		mov.L	#0, r1
 1852 020b E7 09 73                		mov.L	r9, 460[r0]
 1853 020e E7 0C 74                		mov.L	r12, 464[r0]
 1854 0211 EF 6C                   		mov.L	r6, r12
 1855 0213 EF 59                   		mov.L	r5, r9
 1856                             	.LVL150:
 1857                             		.balign 8,3,2
 1858                             	.L95:
 1859                             	.LBB1077:
  72:C:\Users\a5116938\Desktop\e2_studio_workspace\EEMBC_final\RX65N_Cloud_Kit\src/tensorflow/lite/kernels/internal/reference/integer_ops\conv.h ****             const int in_y = in_y_origin + dilation_height_factor * filter_y;
 1860                             		.loc 6 72 13 is_stmt 1
  73:C:\Users\a5116938\Desktop\e2_studio_workspace\EEMBC_final\RX65N_Cloud_Kit\src/tensorflow/lite/kernels/internal/reference/integer_ops\conv.h ****             for (int filter_x = 0; filter_x < filter_width; ++filter_x) {
 1861                             		.loc 6 73 13
 1862                             	.LBB1070:
 1863                             		.loc 6 73 45 is_stmt 0
 1864 0215 ED 05 61                		mov.L	388[r0], r5
 1865 0218 61 05                   		cmp	#0, r5
 1866 021a 2A 05 38 E9 00          		ble	.L89
 1867 021f EF DB                   		mov.L	r13, r11
 1868 0221 ED 06 55                		mov.L	340[r0], r6
 1869 0224 ED 05 59                		mov.L	356[r0], r5
 1870                             		.loc 6 73 22
 1871 0227 66 02                   		mov.L	#0, r2
 1872 0229 E7 0D 75                		mov.L	r13, 468[r0]
 1873 022c EF 8D                   		mov.L	r8, r13
 1874 022e 2E 16                   		bra	.L94
 1875                             	.LVL151:
 1876                             	.L90:
 1877                             		.loc 6 73 13
 1878 0230 62 12                   		add	#1, r2
 1879                             	.LVL152:
 1880 0232 06 89 05 5F             		add	380[r0], r5
 1881 0236 06 89 06 6F             		add	444[r0], r6
 1882 023a 4B CB                   		add	r12, r11
 1883                             		.loc 6 73 45
 1884 023c ED 04 61                		mov.L	388[r0], r4
 1885 023f 47 42                   		cmp	r4, r2
 1886 0241 3A BF 00                		beq	.L200
 1887                             	.LVL153:
 1888                             		.balign 8,3,1
 1889                             	.L94:
 1890                             	.LBB1063:
  74:C:\Users\a5116938\Desktop\e2_studio_workspace\EEMBC_final\RX65N_Cloud_Kit\src/tensorflow/lite/kernels/internal/reference/integer_ops\conv.h ****               const int in_x = in_x_origin + dilation_width_factor * filter_x;
 1891                             		.loc 6 74 15 is_stmt 1
  75:C:\Users\a5116938\Desktop\e2_studio_workspace\EEMBC_final\RX65N_Cloud_Kit\src/tensorflow/lite/kernels/internal/reference/integer_ops\conv.h **** 
  76:C:\Users\a5116938\Desktop\e2_studio_workspace\EEMBC_final\RX65N_Cloud_Kit\src/tensorflow/lite/kernels/internal/reference/integer_ops\conv.h ****               // Zero padding by omitting the areas outside the image.
  77:C:\Users\a5116938\Desktop\e2_studio_workspace\EEMBC_final\RX65N_Cloud_Kit\src/tensorflow/lite/kernels/internal/reference/integer_ops\conv.h ****               const bool is_point_inside_image =
 1892                             		.loc 6 77 15
  78:C:\Users\a5116938\Desktop\e2_studio_workspace\EEMBC_final\RX65N_Cloud_Kit\src/tensorflow/lite/kernels/internal/reference/integer_ops\conv.h ****                   (in_x >= 0) && (in_x < input_width) && (in_y >= 0) &&
 1893                             		.loc 6 78 70 is_stmt 0
 1894 0244 61 05                   		cmp	#0, r5
 1895 0246 29 EA                   		blt	.L90
 1896                             		.loc 6 78 31
 1897 0248 ED 03 7A                		mov.L	488[r0], r3
 1898 024b 47 53                   		cmp	r5, r3
 1899 024d 2B E3                   		ble	.L90
 1900                             		.loc 6 78 55
 1901 024f 61 0A                   		cmp	#0, r10
 1902 0251 29 DF                   		blt	.L90
 1903                             		.loc 6 78 70
 1904 0253 ED 04 7B                		mov.L	492[r0], r4
 1905 0256 47 4A                   		cmp	r4, r10
 1906 0258 28 D8                   		bge	.L90
 1907                             	.LVL154:
 1908                             	.LBB1056:
  79:C:\Users\a5116938\Desktop\e2_studio_workspace\EEMBC_final\RX65N_Cloud_Kit\src/tensorflow/lite/kernels/internal/reference/integer_ops\conv.h ****                   (in_y < input_height);
  80:C:\Users\a5116938\Desktop\e2_studio_workspace\EEMBC_final\RX65N_Cloud_Kit\src/tensorflow/lite/kernels/internal/reference/integer_ops\conv.h **** 
  81:C:\Users\a5116938\Desktop\e2_studio_workspace\EEMBC_final\RX65N_Cloud_Kit\src/tensorflow/lite/kernels/internal/reference/integer_ops\conv.h ****               if (!is_point_inside_image) {
  82:C:\Users\a5116938\Desktop\e2_studio_workspace\EEMBC_final\RX65N_Cloud_Kit\src/tensorflow/lite/kernels/internal/reference/integer_ops\conv.h ****                 continue;
  83:C:\Users\a5116938\Desktop\e2_studio_workspace\EEMBC_final\RX65N_Cloud_Kit\src/tensorflow/lite/kernels/internal/reference/integer_ops\conv.h ****               }
  84:C:\Users\a5116938\Desktop\e2_studio_workspace\EEMBC_final\RX65N_Cloud_Kit\src/tensorflow/lite/kernels/internal/reference/integer_ops\conv.h **** 
  85:C:\Users\a5116938\Desktop\e2_studio_workspace\EEMBC_final\RX65N_Cloud_Kit\src/tensorflow/lite/kernels/internal/reference/integer_ops\conv.h ****               for (int in_channel = 0; in_channel < input_depth; ++in_channel) {
 1909                             		.loc 6 85 51
 1910 025a ED 03 57                		mov.L	348[r0], r3
 1911 025d 61 03                   		cmp	#0, r3
 1912 025f 2B D1                   		ble	.L90
 1913                             	.LBB1047:
  86:C:\Users\a5116938\Desktop\e2_studio_workspace\EEMBC_final\RX65N_Cloud_Kit\src/tensorflow/lite/kernels/internal/reference/integer_ops\conv.h ****                 int32_t input_val = input_data[Offset(input_shape, batch, in_y,
 1914                             		.loc 6 86 17 is_stmt 1
 1915                             	.LVL155:
 1916                             	.LBB1038:
 1917                             	.LBB1021:
 386:C:\Users\a5116938\Desktop\e2_studio_workspace\EEMBC_final\RX65N_Cloud_Kit\src/tensorflow/lite/kernels/internal\types.h ****   const int* dims_data = reinterpret_cast<const int*>(shape.DimsDataUpTo5D());
 1918                             		.loc 3 386 3
 1919                             	.LBE1021:
 1920                             	.LBE1038:
 1921                             	.LBE1047:
 1922                             	.LBE1056:
 1923                             	.LBE1063:
 1924                             	.LBE1070:
 1925                             	.LBE1077:
 1926                             	.LBE1084:
 1927                             	.LBE1111:
 1928                             	.LBE1126:
 1929                             	.LBE1139:
 1930                             	.LBE1152:
 1931                             	.LBE1165:
 1932                             	.LBE968:
 1933                             	.LBE967:
 1934                             	.LBE1209:
 1935                             	.LBE1227:
 1936                             	.LBE1253:
 1937                             	.LBE1340:
 194:C:\Users\a5116938\Desktop\e2_studio_workspace\EEMBC_final\RX65N_Cloud_Kit\src/tensorflow/lite/kernels/internal\types.h ****   inline int32_t Dims(int i) const {
 1938                             		.loc 3 194 44
 1939                             	.LBB1341:
 1940                             	.LBB1254:
 1941                             	.LBB1228:
 1942                             	.LBB1210:
 1943                             	.LBB1190:
 1944                             	.LBB1178:
 1945                             	.LBB1166:
 1946                             	.LBB1153:
 1947                             	.LBB1140:
 1948                             	.LBB1127:
 1949                             	.LBB1112:
 1950                             	.LBB1085:
 1951                             	.LBB1078:
 1952                             	.LBB1071:
 1953                             	.LBB1064:
 1954                             	.LBB1057:
 1955                             	.LBB1048:
 1956                             	.LBB1039:
 1957                             	.LBB1022:
 386:C:\Users\a5116938\Desktop\e2_studio_workspace\EEMBC_final\RX65N_Cloud_Kit\src/tensorflow/lite/kernels/internal\types.h ****   const int* dims_data = reinterpret_cast<const int*>(shape.DimsDataUpTo5D());
 1958                             		.loc 3 386 3 is_stmt 0
 1959 0261 ED 04 6C                		mov.L	432[r0], r4
 1960 0264 61 44                   		cmp	#4, r4
 1961 0266 3B 8E 02                		bne	.L59
 387:C:\Users\a5116938\Desktop\e2_studio_workspace\EEMBC_final\RX65N_Cloud_Kit\src/tensorflow/lite/kernels/internal\types.h ****   TFLITE_DCHECK(i0 >= 0 && i0 < dims_data[0]);
 1962                             		.loc 3 387 3 is_stmt 1
 1963                             	.LVL156:
 1964                             	.LBE1022:
 1965                             	.LBE1039:
 1966                             	.LBE1048:
 1967                             	.LBE1057:
 1968                             	.LBE1064:
 1969                             	.LBE1071:
 1970                             	.LBE1078:
 1971                             	.LBE1085:
 1972                             	.LBE1112:
 1973                             	.LBE1127:
 1974                             	.LBE1140:
 1975                             	.LBE1153:
 1976                             	.LBE1166:
 1977                             	.LBE1178:
 1978                             	.LBE1190:
 1979                             	.LBE1210:
 1980                             	.LBE1228:
 1981                             	.LBE1254:
 1982                             	.LBE1341:
 217:C:\Users\a5116938\Desktop\e2_studio_workspace\EEMBC_final\RX65N_Cloud_Kit\src/tensorflow/lite/kernels/internal\types.h **** 
 1983                             		.loc 3 217 50
 1984                             	.LBB1342:
 1985                             	.LBB1255:
 1986                             	.LBB1229:
 1987                             	.LBB1211:
 1988                             	.LBB1191:
 1989                             	.LBB1179:
 1990                             	.LBB1167:
 1991                             	.LBB1154:
 1992                             	.LBB1141:
 1993                             	.LBB1128:
 1994                             	.LBB1113:
 1995                             	.LBB1086:
 1996                             	.LBB1079:
 1997                             	.LBB1072:
 1998                             	.LBB1065:
 1999                             	.LBB1058:
 2000                             	.LBB1049:
 2001                             	.LBB1040:
 2002                             	.LBB1023:
 388:C:\Users\a5116938\Desktop\e2_studio_workspace\EEMBC_final\RX65N_Cloud_Kit\src/tensorflow/lite/kernels/internal\types.h ****   TFLITE_DCHECK(i1 >= 0 && i1 < dims_data[1]);
 2003                             		.loc 3 388 3
 2004 0269 ED 03 71                		mov.L	452[r0], r3
 2005 026c 47 3F                   		cmp	r3, r15
 2006 026e 29 05 38 84 02          		bge	.L59
 389:C:\Users\a5116938\Desktop\e2_studio_workspace\EEMBC_final\RX65N_Cloud_Kit\src/tensorflow/lite/kernels/internal\types.h ****   TFLITE_DCHECK(i2 >= 0 && i2 < dims_data[2]);
 2007                             		.loc 3 389 3
 2008 0273 ED 04 5E                		mov.L	376[r0], r4
 2009 0276 47 4A                   		cmp	r4, r10
 2010 0278 29 05 38 7A 02          		bge	.L59
 390:C:\Users\a5116938\Desktop\e2_studio_workspace\EEMBC_final\RX65N_Cloud_Kit\src/tensorflow/lite/kernels/internal\types.h ****   TFLITE_DCHECK(i3 >= 0 && i3 < dims_data[3]);
 2011                             		.loc 3 390 3
 2012 027d ED 03 73                		mov.L	460[r0], r3
 2013 0280 47 53                   		cmp	r5, r3
 2014 0282 2A 05 38 70 02          		ble	.L59
 391:C:\Users\a5116938\Desktop\e2_studio_workspace\EEMBC_final\RX65N_Cloud_Kit\src/tensorflow/lite/kernels/internal\types.h ****   return ((i0 * dims_data[1] + i1) * dims_data[2] + i2) * dims_data[3] + i3;
 2015                             		.loc 3 391 3
 2016 0287 61 09                   		cmp	#0, r9
 2017 0289 2A 05 38 69 02          		ble	.L59
 2018 028e ED 04 6D                		mov.L	436[r0], r4
 2019 0291 61 44                   		cmp	#4, r4
 2020 0293 3B 61 02                		bne	.L59
 2021 0296 ED 03 74                		mov.L	464[r0], r3
 2022 0299 47 32                   		cmp	r3, r2
 2023 029b 29 05 38 57 02          		bge	.L59
 2024 02a0 ED 04 5D                		mov.L	372[r0], r4
 2025 02a3 47 41                   		cmp	r4, r1
 2026 02a5 29 05 38 4D 02          		bge	.L59
 2027 02aa ED 03 6E                		mov.L	440[r0], r3
 2028 02ad 47 3E                   		cmp	r3, r14
 2029 02af 29 05 38 43 02          		bge	.L59
 2030 02b4 EF B8                   		mov.L	r11, r8
 2031 02b6 E7 06 5C                		mov.L	r6, 368[r0]
 2032                             	.LBE1023:
 2033                             	.LBE1040:
 2034                             	.LBE1049:
  85:C:\Users\a5116938\Desktop\e2_studio_workspace\EEMBC_final\RX65N_Cloud_Kit\src/tensorflow/lite/kernels/internal/reference/integer_ops\conv.h ****                 int32_t input_val = input_data[Offset(input_shape, batch, in_y,
 2035                             		.loc 6 85 24 is_stmt 0
 2036 02b9 66 04                   		mov.L	#0, r4
 2037 02bb E7 0A 84                		mov.L	r10, 528[r0]
 2038 02be 0E                      		bra	.L92
 2039                             	.LVL157:
 2040                             	.L93:
 2041                             	.LBB1050:
 2042                             		.loc 6 86 17 is_stmt 1
 2043                             	.LBB1041:
 2044                             	.LBB1024:
 386:C:\Users\a5116938\Desktop\e2_studio_workspace\EEMBC_final\RX65N_Cloud_Kit\src/tensorflow/lite/kernels/internal\types.h ****   const int* dims_data = reinterpret_cast<const int*>(shape.DimsDataUpTo5D());
 2045                             		.loc 3 386 3
 2046                             	.LBE1024:
 2047                             	.LBE1041:
 2048                             	.LBE1050:
 2049                             	.LBE1058:
 2050                             	.LBE1065:
 2051                             	.LBE1072:
 2052                             	.LBE1079:
 2053                             	.LBE1086:
 2054                             	.LBE1113:
 2055                             	.LBE1128:
 2056                             	.LBE1141:
 2057                             	.LBE1154:
 2058                             	.LBE1167:
 2059                             	.LBE1179:
 2060                             	.LBE1191:
 2061                             	.LBE1211:
 2062                             	.LBE1229:
 2063                             	.LBE1255:
 2064                             	.LBE1342:
 194:C:\Users\a5116938\Desktop\e2_studio_workspace\EEMBC_final\RX65N_Cloud_Kit\src/tensorflow/lite/kernels/internal\types.h ****   inline int32_t Dims(int i) const {
 2065                             		.loc 3 194 44
 2066                             	.LBB1343:
 2067                             	.LBB1256:
 2068                             	.LBB1230:
 2069                             	.LBB1212:
 2070                             	.LBB1192:
 2071                             	.LBB1180:
 2072                             	.LBB1168:
 2073                             	.LBB1155:
 2074                             	.LBB1142:
 2075                             	.LBB1129:
 2076                             	.LBB1114:
 2077                             	.LBB1087:
 2078                             	.LBB1080:
 2079                             	.LBB1073:
 2080                             	.LBB1066:
 2081                             	.LBB1059:
 2082                             	.LBB1051:
 2083                             	.LBB1042:
 2084                             	.LBB1025:
 387:C:\Users\a5116938\Desktop\e2_studio_workspace\EEMBC_final\RX65N_Cloud_Kit\src/tensorflow/lite/kernels/internal\types.h ****   TFLITE_DCHECK(i0 >= 0 && i0 < dims_data[0]);
 2085                             		.loc 3 387 3
 2086                             	.LBE1025:
 2087                             	.LBE1042:
 2088                             	.LBE1051:
 2089                             	.LBE1059:
 2090                             	.LBE1066:
 2091                             	.LBE1073:
 2092                             	.LBE1080:
 2093                             	.LBE1087:
 2094                             	.LBE1114:
 2095                             	.LBE1129:
 2096                             	.LBE1142:
 2097                             	.LBE1155:
 2098                             	.LBE1168:
 2099                             	.LBE1180:
 2100                             	.LBE1192:
 2101                             	.LBE1212:
 2102                             	.LBE1230:
 2103                             	.LBE1256:
 2104                             	.LBE1343:
 217:C:\Users\a5116938\Desktop\e2_studio_workspace\EEMBC_final\RX65N_Cloud_Kit\src/tensorflow/lite/kernels/internal\types.h **** 
 2105                             		.loc 3 217 50
 2106                             	.LBB1344:
 2107                             	.LBB1257:
 2108                             	.LBB1231:
 2109                             	.LBB1213:
 2110                             	.LBB1193:
 2111                             	.LBB1181:
 2112                             	.LBB1169:
 2113                             	.LBB1156:
 2114                             	.LBB1143:
 2115                             	.LBB1130:
 2116                             	.LBB1115:
 2117                             	.LBB1088:
 2118                             	.LBB1081:
 2119                             	.LBB1074:
 2120                             	.LBB1067:
 2121                             	.LBB1060:
 2122                             	.LBB1052:
 2123                             	.LBB1043:
 2124                             	.LBB1026:
 388:C:\Users\a5116938\Desktop\e2_studio_workspace\EEMBC_final\RX65N_Cloud_Kit\src/tensorflow/lite/kernels/internal\types.h ****   TFLITE_DCHECK(i1 >= 0 && i1 < dims_data[1]);
 2125                             		.loc 3 388 3
 389:C:\Users\a5116938\Desktop\e2_studio_workspace\EEMBC_final\RX65N_Cloud_Kit\src/tensorflow/lite/kernels/internal\types.h ****   TFLITE_DCHECK(i2 >= 0 && i2 < dims_data[2]);
 2126                             		.loc 3 389 3
 390:C:\Users\a5116938\Desktop\e2_studio_workspace\EEMBC_final\RX65N_Cloud_Kit\src/tensorflow/lite/kernels/internal\types.h ****   TFLITE_DCHECK(i3 >= 0 && i3 < dims_data[3]);
 2127                             		.loc 3 390 3
 391:C:\Users\a5116938\Desktop\e2_studio_workspace\EEMBC_final\RX65N_Cloud_Kit\src/tensorflow/lite/kernels/internal\types.h ****   return ((i0 * dims_data[1] + i1) * dims_data[2] + i2) * dims_data[3] + i3;
 2128                             		.loc 3 391 3
 2129 02bf 47 94                   		cmp	r9, r4
 2130 02c1 3A 33 02                		beq	.L59
 2131                             	.LVL158:
 2132                             		.balign 8,3,2
 2133                             	.L92:
 392:C:\Users\a5116938\Desktop\e2_studio_workspace\EEMBC_final\RX65N_Cloud_Kit\src/tensorflow/lite/kernels/internal\types.h **** }
 2134                             		.loc 3 392 3
 2135                             	.LBE1026:
 2136                             	.LBE1043:
  87:C:\Users\a5116938\Desktop\e2_studio_workspace\EEMBC_final\RX65N_Cloud_Kit\src/tensorflow/lite/kernels/internal/reference/integer_ops\conv.h ****                                                       in_x, in_channel)];
 2137                             		.loc 6 87 72 is_stmt 0
 2138 02c4 ED 0A 5C                		mov.L	368[r0], r10
 2139 02c7 FD 28 A3                		mov.B	[r10+], r3
 2140 02ca E7 0A 5C                		mov.L	r10, 368[r0]
 2141                             	.LVL159:
  88:C:\Users\a5116938\Desktop\e2_studio_workspace\EEMBC_final\RX65N_Cloud_Kit\src/tensorflow/lite/kernels/internal/reference/integer_ops\conv.h ****                 int32_t filter_val = filter_data[Offset(
 2142                             		.loc 6 88 17 is_stmt 1
 2143                             	.LBB1044:
 2144                             	.LBB1031:
 386:C:\Users\a5116938\Desktop\e2_studio_workspace\EEMBC_final\RX65N_Cloud_Kit\src/tensorflow/lite/kernels/internal\types.h ****   const int* dims_data = reinterpret_cast<const int*>(shape.DimsDataUpTo5D());
 2145                             		.loc 3 386 3
 2146                             	.LBE1031:
 2147                             	.LBE1044:
 2148                             	.LBE1052:
 2149                             	.LBE1060:
 2150                             	.LBE1067:
 2151                             	.LBE1074:
 2152                             	.LBE1081:
 2153                             	.LBE1088:
 2154                             	.LBE1115:
 2155                             	.LBE1130:
 2156                             	.LBE1143:
 2157                             	.LBE1156:
 2158                             	.LBE1169:
 2159                             	.LBE1181:
 2160                             	.LBE1193:
 2161                             	.LBE1213:
 2162                             	.LBE1231:
 2163                             	.LBE1257:
 2164                             	.LBE1344:
 194:C:\Users\a5116938\Desktop\e2_studio_workspace\EEMBC_final\RX65N_Cloud_Kit\src/tensorflow/lite/kernels/internal\types.h ****   inline int32_t Dims(int i) const {
 2165                             		.loc 3 194 44
 2166                             	.LBB1345:
 2167                             	.LBB1258:
 2168                             	.LBB1232:
 2169                             	.LBB1214:
 2170                             	.LBB1194:
 2171                             	.LBB1182:
 2172                             	.LBB1170:
 2173                             	.LBB1157:
 2174                             	.LBB1144:
 2175                             	.LBB1131:
 2176                             	.LBB1116:
 2177                             	.LBB1089:
 2178                             	.LBB1082:
 2179                             	.LBB1075:
 2180                             	.LBB1068:
 2181                             	.LBB1061:
 2182                             	.LBB1053:
 2183                             	.LBB1045:
 2184                             	.LBB1032:
 387:C:\Users\a5116938\Desktop\e2_studio_workspace\EEMBC_final\RX65N_Cloud_Kit\src/tensorflow/lite/kernels/internal\types.h ****   TFLITE_DCHECK(i0 >= 0 && i0 < dims_data[0]);
 2185                             		.loc 3 387 3
 2186                             	.LBE1032:
 2187                             	.LBE1045:
 2188                             	.LBE1053:
 2189                             	.LBE1061:
 2190                             	.LBE1068:
 2191                             	.LBE1075:
 2192                             	.LBE1082:
 2193                             	.LBE1089:
 2194                             	.LBE1116:
 2195                             	.LBE1131:
 2196                             	.LBE1144:
 2197                             	.LBE1157:
 2198                             	.LBE1170:
 2199                             	.LBE1182:
 2200                             	.LBE1194:
 2201                             	.LBE1214:
 2202                             	.LBE1232:
 2203                             	.LBE1258:
 2204                             	.LBE1345:
 217:C:\Users\a5116938\Desktop\e2_studio_workspace\EEMBC_final\RX65N_Cloud_Kit\src/tensorflow/lite/kernels/internal\types.h **** 
 2205                             		.loc 3 217 50
 2206                             	.LBB1346:
 2207                             	.LBB1259:
 2208                             	.LBB1233:
 2209                             	.LBB1215:
 2210                             	.LBB1195:
 2211                             	.LBB1183:
 2212                             	.LBB1171:
 2213                             	.LBB1158:
 2214                             	.LBB1145:
 2215                             	.LBB1132:
 2216                             	.LBB1117:
 2217                             	.LBB1090:
 2218                             	.LBB1083:
 2219                             	.LBB1076:
 2220                             	.LBB1069:
 2221                             	.LBB1062:
 2222                             	.LBB1054:
 2223                             	.LBB1046:
 2224                             	.LBB1033:
 388:C:\Users\a5116938\Desktop\e2_studio_workspace\EEMBC_final\RX65N_Cloud_Kit\src/tensorflow/lite/kernels/internal\types.h ****   TFLITE_DCHECK(i1 >= 0 && i1 < dims_data[1]);
 2225                             		.loc 3 388 3
 389:C:\Users\a5116938\Desktop\e2_studio_workspace\EEMBC_final\RX65N_Cloud_Kit\src/tensorflow/lite/kernels/internal\types.h ****   TFLITE_DCHECK(i2 >= 0 && i2 < dims_data[2]);
 2226                             		.loc 3 389 3
 390:C:\Users\a5116938\Desktop\e2_studio_workspace\EEMBC_final\RX65N_Cloud_Kit\src/tensorflow/lite/kernels/internal\types.h ****   TFLITE_DCHECK(i3 >= 0 && i3 < dims_data[3]);
 2227                             		.loc 3 390 3
 391:C:\Users\a5116938\Desktop\e2_studio_workspace\EEMBC_final\RX65N_Cloud_Kit\src/tensorflow/lite/kernels/internal\types.h ****   return ((i0 * dims_data[1] + i1) * dims_data[2] + i2) * dims_data[3] + i3;
 2228                             		.loc 3 391 3
 2229 02cd 47 C4                   		cmp	r12, r4
 2230 02cf 29 05 38 23 02          		bge	.L59
 392:C:\Users\a5116938\Desktop\e2_studio_workspace\EEMBC_final\RX65N_Cloud_Kit\src/tensorflow/lite/kernels/internal\types.h **** }
 2231                             		.loc 3 392 3
 2232                             	.LVL160:
 2233                             	.LBE1033:
 2234                             	.LBE1046:
  89:C:\Users\a5116938\Desktop\e2_studio_workspace\EEMBC_final\RX65N_Cloud_Kit\src/tensorflow/lite/kernels/internal/reference/integer_ops\conv.h ****                     filter_shape, out_channel, filter_y, filter_x, in_channel)];
  90:C:\Users\a5116938\Desktop\e2_studio_workspace\EEMBC_final\RX65N_Cloud_Kit\src/tensorflow/lite/kernels/internal/reference/integer_ops\conv.h ****                 // Accumulate with 32 bits accumulator.
  91:C:\Users\a5116938\Desktop\e2_studio_workspace\EEMBC_final\RX65N_Cloud_Kit\src/tensorflow/lite/kernels/internal/reference/integer_ops\conv.h ****                 // In the nudging process during model quantization, we force
  92:C:\Users\a5116938\Desktop\e2_studio_workspace\EEMBC_final\RX65N_Cloud_Kit\src/tensorflow/lite/kernels/internal/reference/integer_ops\conv.h ****                 // real value of 0.0 be represented by a quantized value. This
  93:C:\Users\a5116938\Desktop\e2_studio_workspace\EEMBC_final\RX65N_Cloud_Kit\src/tensorflow/lite/kernels/internal/reference/integer_ops\conv.h ****                 // guarantees that the input_offset is a int8_t, even though
  94:C:\Users\a5116938\Desktop\e2_studio_workspace\EEMBC_final\RX65N_Cloud_Kit\src/tensorflow/lite/kernels/internal/reference/integer_ops\conv.h ****                 // it is represented using int32_t. int32_t += int8_t *
  95:C:\Users\a5116938\Desktop\e2_studio_workspace\EEMBC_final\RX65N_Cloud_Kit\src/tensorflow/lite/kernels/internal/reference/integer_ops\conv.h ****                 // (int8_t - int8_t) so the highest value we can get from each
  96:C:\Users\a5116938\Desktop\e2_studio_workspace\EEMBC_final\RX65N_Cloud_Kit\src/tensorflow/lite/kernels/internal/reference/integer_ops\conv.h ****                 // accumulation is [-127, 127] * ([-128, 127] -
  97:C:\Users\a5116938\Desktop\e2_studio_workspace\EEMBC_final\RX65N_Cloud_Kit\src/tensorflow/lite/kernels/internal/reference/integer_ops\conv.h ****                 // [-128, 127]), which is [-32512, 32512]. log2(32512)
  98:C:\Users\a5116938\Desktop\e2_studio_workspace\EEMBC_final\RX65N_Cloud_Kit\src/tensorflow/lite/kernels/internal/reference/integer_ops\conv.h ****                 // = 14.98, which means we can accumulate at least 2^16
  99:C:\Users\a5116938\Desktop\e2_studio_workspace\EEMBC_final\RX65N_Cloud_Kit\src/tensorflow/lite/kernels/internal/reference/integer_ops\conv.h ****                 // multiplications without overflow. The accumulator is
 100:C:\Users\a5116938\Desktop\e2_studio_workspace\EEMBC_final\RX65N_Cloud_Kit\src/tensorflow/lite/kernels/internal/reference/integer_ops\conv.h ****                 // applied to a filter so the accumulation logic will hold as
 101:C:\Users\a5116938\Desktop\e2_studio_workspace\EEMBC_final\RX65N_Cloud_Kit\src/tensorflow/lite/kernels/internal/reference/integer_ops\conv.h ****                 // long as the filter size (filter_y * filter_x * in_channel)
 102:C:\Users\a5116938\Desktop\e2_studio_workspace\EEMBC_final\RX65N_Cloud_Kit\src/tensorflow/lite/kernels/internal/reference/integer_ops\conv.h ****                 // does not exceed 2^16, which is the case in all the models
 103:C:\Users\a5116938\Desktop\e2_studio_workspace\EEMBC_final\RX65N_Cloud_Kit\src/tensorflow/lite/kernels/internal/reference/integer_ops\conv.h ****                 // we have seen so far.
 104:C:\Users\a5116938\Desktop\e2_studio_workspace\EEMBC_final\RX65N_Cloud_Kit\src/tensorflow/lite/kernels/internal/reference/integer_ops\conv.h ****                 // TODO(jianlijianli): Add a check to make sure the
 105:C:\Users\a5116938\Desktop\e2_studio_workspace\EEMBC_final\RX65N_Cloud_Kit\src/tensorflow/lite/kernels/internal/reference/integer_ops\conv.h ****                 // accumulator depth is smaller than 2^16.
 106:C:\Users\a5116938\Desktop\e2_studio_workspace\EEMBC_final\RX65N_Cloud_Kit\src/tensorflow/lite/kernels/internal/reference/integer_ops\conv.h ****                 acc += filter_val * (input_val + input_offset);
 2235                             		.loc 6 106 17
 2236                             		.loc 6 106 35 is_stmt 0
 2237 02d4 ED 0A 69                		mov.L	420[r0], r10
 2238 02d7 43 A3                   		sub	r10, r3
 2239                             	.LVL161:
  89:C:\Users\a5116938\Desktop\e2_studio_workspace\EEMBC_final\RX65N_Cloud_Kit\src/tensorflow/lite/kernels/internal/reference/integer_ops\conv.h ****                     filter_shape, out_channel, filter_y, filter_x, in_channel)];
 2240                             		.loc 6 89 79
 2241 02d9 FD 28 8A                		mov.B	[r8+], r10
 2242                             	.LVL162:
 2243                             	.LBE1054:
  85:C:\Users\a5116938\Desktop\e2_studio_workspace\EEMBC_final\RX65N_Cloud_Kit\src/tensorflow/lite/kernels/internal/reference/integer_ops\conv.h ****                 int32_t input_val = input_data[Offset(input_shape, batch, in_y,
 2244                             		.loc 6 85 15
 2245 02dc 62 14                   		add	#1, r4
 2246                             	.LVL163:
 2247                             	.LBB1055:
 2248                             		.loc 6 106 35
 2249 02de 4F A3                   		mul	r10, r3
 2250                             		.loc 6 106 21
 2251 02e0 4B 37                   		add	r3, r7
 2252                             	.LVL164:
 2253                             	.LBE1055:
  85:C:\Users\a5116938\Desktop\e2_studio_workspace\EEMBC_final\RX65N_Cloud_Kit\src/tensorflow/lite/kernels/internal/reference/integer_ops\conv.h ****                 int32_t input_val = input_data[Offset(input_shape, batch, in_y,
 2254                             		.loc 6 85 51
 2255 02e2 ED 03 57                		mov.L	348[r0], r3
 2256 02e5 47 34                   		cmp	r3, r4
 2257 02e7 29 D8                   		blt	.L93
 2258 02e9 ED 0A 84                		mov.L	528[r0], r10
 2259                             	.LVL165:
 2260                             	.LBE1062:
 2261                             	.LBE1069:
  73:C:\Users\a5116938\Desktop\e2_studio_workspace\EEMBC_final\RX65N_Cloud_Kit\src/tensorflow/lite/kernels/internal/reference/integer_ops\conv.h ****               const int in_x = in_x_origin + dilation_width_factor * filter_x;
 2262                             		.loc 6 73 13
 2263 02ec 62 12                   		add	#1, r2
 2264                             	.LVL166:
 2265 02ee 06 89 05 5F             		add	380[r0], r5
 2266 02f2 06 89 06 6F             		add	444[r0], r6
 2267 02f6 4B CB                   		add	r12, r11
  73:C:\Users\a5116938\Desktop\e2_studio_workspace\EEMBC_final\RX65N_Cloud_Kit\src/tensorflow/lite/kernels/internal/reference/integer_ops\conv.h ****               const int in_x = in_x_origin + dilation_width_factor * filter_x;
 2268                             		.loc 6 73 45
 2269 02f8 ED 04 61                		mov.L	388[r0], r4
 2270                             	.LVL167:
 2271 02fb 47 42                   		cmp	r4, r2
 2272 02fd 3B 47 FF                		bne	.L94
 2273                             	.LVL168:
 2274                             		.balign 8,3,1
 2275                             	.L200:
 2276 0300 EF D8                   		mov.L	r13, r8
 2277 0302 ED 0D 75                		mov.L	468[r0], r13
 2278                             	.LVL169:
 2279                             		.balign 8,3,1
 2280                             	.L89:
 2281                             	.LBE1076:
 2282                             	.LBE1083:
  71:C:\Users\a5116938\Desktop\e2_studio_workspace\EEMBC_final\RX65N_Cloud_Kit\src/tensorflow/lite/kernels/internal/reference/integer_ops\conv.h ****             const int in_y = in_y_origin + dilation_height_factor * filter_y;
 2283                             		.loc 6 71 11
 2284 0305 62 11                   		add	#1, r1
 2285                             	.LVL170:
 2286 0307 06 89 0A 63             		add	396[r0], r10
 2287 030b ED 05 55                		mov.L	340[r0], r5
 2288 030e 06 89 05 6B             		add	428[r0], r5
 2289 0312 E7 05 55                		mov.L	r5, 340[r0]
 2290 0315 06 89 0D 70             		add	448[r0], r13
  71:C:\Users\a5116938\Desktop\e2_studio_workspace\EEMBC_final\RX65N_Cloud_Kit\src/tensorflow/lite/kernels/internal/reference/integer_ops\conv.h ****             const int in_y = in_y_origin + dilation_height_factor * filter_y;
 2291                             		.loc 6 71 43
 2292 0319 ED 06 62                		mov.L	392[r0], r6
 2293 031c 47 61                   		cmp	r6, r1
 2294 031e 3B F7 FE                		bne	.L95
 2295                             	.LVL171:
 2296                             		.balign 8,3,2
 2297                             	.L88:
 2298                             	.LBE1090:
 107:C:\Users\a5116938\Desktop\e2_studio_workspace\EEMBC_final\RX65N_Cloud_Kit\src/tensorflow/lite/kernels/internal/reference/integer_ops\conv.h ****               }
 108:C:\Users\a5116938\Desktop\e2_studio_workspace\EEMBC_final\RX65N_Cloud_Kit\src/tensorflow/lite/kernels/internal/reference/integer_ops\conv.h ****             }
 109:C:\Users\a5116938\Desktop\e2_studio_workspace\EEMBC_final\RX65N_Cloud_Kit\src/tensorflow/lite/kernels/internal/reference/integer_ops\conv.h ****           }
 110:C:\Users\a5116938\Desktop\e2_studio_workspace\EEMBC_final\RX65N_Cloud_Kit\src/tensorflow/lite/kernels/internal/reference/integer_ops\conv.h **** 
 111:C:\Users\a5116938\Desktop\e2_studio_workspace\EEMBC_final\RX65N_Cloud_Kit\src/tensorflow/lite/kernels/internal/reference/integer_ops\conv.h ****           if (bias_data) {
 2299                             		.loc 6 111 11 is_stmt 1
 2300 0321 ED 0A 56                		mov.L	344[r0], r10
 2301 0324 61 0A                   		cmp	#0, r10
 2302 0326 20 0C                   		beq	.L96
 112:C:\Users\a5116938\Desktop\e2_studio_workspace\EEMBC_final\RX65N_Cloud_Kit\src/tensorflow/lite/kernels/internal/reference/integer_ops\conv.h ****             acc += bias_data[out_channel];
 2303                             		.loc 6 112 13
 2304                             		.loc 6 112 17 is_stmt 0
 2305 0328 FD C2 EA                		shll	#2, r14, r10
 2306 032b 06 89 0A 56             		add	344[r0], r10
 2307 032f 06 88 A7                		add	[r10].L, r7
 2308                             	.LVL172:
 2309                             		.balign 8,3,2
 2310                             	.L96:
 113:C:\Users\a5116938\Desktop\e2_studio_workspace\EEMBC_final\RX65N_Cloud_Kit\src/tensorflow/lite/kernels/internal/reference/integer_ops\conv.h ****           }
 114:C:\Users\a5116938\Desktop\e2_studio_workspace\EEMBC_final\RX65N_Cloud_Kit\src/tensorflow/lite/kernels/internal/reference/integer_ops\conv.h ****           acc = MultiplyByQuantizedMultiplier(
 2311                             		.loc 6 114 11 is_stmt 1
 2312                             		.loc 6 114 46 is_stmt 0
 2313 0332 ED 02 67                		mov.L	412[r0], r2
 2314 0335 FE 6E 25                		mov.L	[r14,r2], r5
 2315                             	.LVL173:
 2316                             	.LBB1091:
 2317                             	.LBB1005:
 2318                             		.file 8 "C:\\Users\\a5116938\\Desktop\\e2_studio_workspace\\EEMBC_final\\RX65N_Cloud_Kit\\src/tens
   1:C:\Users\a5116938\Desktop\e2_studio_workspace\EEMBC_final\RX65N_Cloud_Kit\src/tensorflow/lite/kernels/internal\common.h **** /* Copyright 2017 The TensorFlow Authors. All Rights Reserved.
   2:C:\Users\a5116938\Desktop\e2_studio_workspace\EEMBC_final\RX65N_Cloud_Kit\src/tensorflow/lite/kernels/internal\common.h **** 
   3:C:\Users\a5116938\Desktop\e2_studio_workspace\EEMBC_final\RX65N_Cloud_Kit\src/tensorflow/lite/kernels/internal\common.h **** Licensed under the Apache License, Version 2.0 (the "License");
   4:C:\Users\a5116938\Desktop\e2_studio_workspace\EEMBC_final\RX65N_Cloud_Kit\src/tensorflow/lite/kernels/internal\common.h **** you may not use this file except in compliance with the License.
   5:C:\Users\a5116938\Desktop\e2_studio_workspace\EEMBC_final\RX65N_Cloud_Kit\src/tensorflow/lite/kernels/internal\common.h **** You may obtain a copy of the License at
   6:C:\Users\a5116938\Desktop\e2_studio_workspace\EEMBC_final\RX65N_Cloud_Kit\src/tensorflow/lite/kernels/internal\common.h **** 
   7:C:\Users\a5116938\Desktop\e2_studio_workspace\EEMBC_final\RX65N_Cloud_Kit\src/tensorflow/lite/kernels/internal\common.h ****     http://www.apache.org/licenses/LICENSE-2.0
   8:C:\Users\a5116938\Desktop\e2_studio_workspace\EEMBC_final\RX65N_Cloud_Kit\src/tensorflow/lite/kernels/internal\common.h **** 
   9:C:\Users\a5116938\Desktop\e2_studio_workspace\EEMBC_final\RX65N_Cloud_Kit\src/tensorflow/lite/kernels/internal\common.h **** Unless required by applicable law or agreed to in writing, software
  10:C:\Users\a5116938\Desktop\e2_studio_workspace\EEMBC_final\RX65N_Cloud_Kit\src/tensorflow/lite/kernels/internal\common.h **** distributed under the License is distributed on an "AS IS" BASIS,
  11:C:\Users\a5116938\Desktop\e2_studio_workspace\EEMBC_final\RX65N_Cloud_Kit\src/tensorflow/lite/kernels/internal\common.h **** WITHOUT WARRANTIES OR CONDITIONS OF ANY KIND, either express or implied.
  12:C:\Users\a5116938\Desktop\e2_studio_workspace\EEMBC_final\RX65N_Cloud_Kit\src/tensorflow/lite/kernels/internal\common.h **** See the License for the specific language governing permissions and
  13:C:\Users\a5116938\Desktop\e2_studio_workspace\EEMBC_final\RX65N_Cloud_Kit\src/tensorflow/lite/kernels/internal\common.h **** limitations under the License.
  14:C:\Users\a5116938\Desktop\e2_studio_workspace\EEMBC_final\RX65N_Cloud_Kit\src/tensorflow/lite/kernels/internal\common.h **** ==============================================================================*/
  15:C:\Users\a5116938\Desktop\e2_studio_workspace\EEMBC_final\RX65N_Cloud_Kit\src/tensorflow/lite/kernels/internal\common.h **** #ifndef TENSORFLOW_LITE_KERNELS_INTERNAL_COMMON_H_
  16:C:\Users\a5116938\Desktop\e2_studio_workspace\EEMBC_final\RX65N_Cloud_Kit\src/tensorflow/lite/kernels/internal\common.h **** #define TENSORFLOW_LITE_KERNELS_INTERNAL_COMMON_H_
  17:C:\Users\a5116938\Desktop\e2_studio_workspace\EEMBC_final\RX65N_Cloud_Kit\src/tensorflow/lite/kernels/internal\common.h **** 
  18:C:\Users\a5116938\Desktop\e2_studio_workspace\EEMBC_final\RX65N_Cloud_Kit\src/tensorflow/lite/kernels/internal\common.h **** #ifndef ALLOW_SLOW_GENERIC_DEPTHWISECONV_FALLBACK
  19:C:\Users\a5116938\Desktop\e2_studio_workspace\EEMBC_final\RX65N_Cloud_Kit\src/tensorflow/lite/kernels/internal\common.h **** #ifdef GEMMLOWP_ALLOW_SLOW_SCALAR_FALLBACK
  20:C:\Users\a5116938\Desktop\e2_studio_workspace\EEMBC_final\RX65N_Cloud_Kit\src/tensorflow/lite/kernels/internal\common.h **** #define ALLOW_SLOW_GENERIC_DEPTHWISECONV_FALLBACK
  21:C:\Users\a5116938\Desktop\e2_studio_workspace\EEMBC_final\RX65N_Cloud_Kit\src/tensorflow/lite/kernels/internal\common.h **** #endif
  22:C:\Users\a5116938\Desktop\e2_studio_workspace\EEMBC_final\RX65N_Cloud_Kit\src/tensorflow/lite/kernels/internal\common.h **** #endif
  23:C:\Users\a5116938\Desktop\e2_studio_workspace\EEMBC_final\RX65N_Cloud_Kit\src/tensorflow/lite/kernels/internal\common.h **** 
  24:C:\Users\a5116938\Desktop\e2_studio_workspace\EEMBC_final\RX65N_Cloud_Kit\src/tensorflow/lite/kernels/internal\common.h **** #include <functional>
  25:C:\Users\a5116938\Desktop\e2_studio_workspace\EEMBC_final\RX65N_Cloud_Kit\src/tensorflow/lite/kernels/internal\common.h **** 
  26:C:\Users\a5116938\Desktop\e2_studio_workspace\EEMBC_final\RX65N_Cloud_Kit\src/tensorflow/lite/kernels/internal\common.h **** #include "fixedpoint/fixedpoint.h"
  27:C:\Users\a5116938\Desktop\e2_studio_workspace\EEMBC_final\RX65N_Cloud_Kit\src/tensorflow/lite/kernels/internal\common.h **** #include "tensorflow/lite/kernels/internal/cppmath.h"
  28:C:\Users\a5116938\Desktop\e2_studio_workspace\EEMBC_final\RX65N_Cloud_Kit\src/tensorflow/lite/kernels/internal\common.h **** #include "tensorflow/lite/kernels/internal/optimized/neon_check.h"
  29:C:\Users\a5116938\Desktop\e2_studio_workspace\EEMBC_final\RX65N_Cloud_Kit\src/tensorflow/lite/kernels/internal\common.h **** #include "tensorflow/lite/kernels/internal/types.h"
  30:C:\Users\a5116938\Desktop\e2_studio_workspace\EEMBC_final\RX65N_Cloud_Kit\src/tensorflow/lite/kernels/internal\common.h **** 
  31:C:\Users\a5116938\Desktop\e2_studio_workspace\EEMBC_final\RX65N_Cloud_Kit\src/tensorflow/lite/kernels/internal\common.h **** namespace tflite {
  32:C:\Users\a5116938\Desktop\e2_studio_workspace\EEMBC_final\RX65N_Cloud_Kit\src/tensorflow/lite/kernels/internal\common.h **** 
  33:C:\Users\a5116938\Desktop\e2_studio_workspace\EEMBC_final\RX65N_Cloud_Kit\src/tensorflow/lite/kernels/internal\common.h **** constexpr int kReverseShift = -1;
  34:C:\Users\a5116938\Desktop\e2_studio_workspace\EEMBC_final\RX65N_Cloud_Kit\src/tensorflow/lite/kernels/internal\common.h **** 
  35:C:\Users\a5116938\Desktop\e2_studio_workspace\EEMBC_final\RX65N_Cloud_Kit\src/tensorflow/lite/kernels/internal\common.h **** inline void GetActivationMinMax(FusedActivationFunctionType ac,
  36:C:\Users\a5116938\Desktop\e2_studio_workspace\EEMBC_final\RX65N_Cloud_Kit\src/tensorflow/lite/kernels/internal\common.h ****                                 float* output_activation_min,
  37:C:\Users\a5116938\Desktop\e2_studio_workspace\EEMBC_final\RX65N_Cloud_Kit\src/tensorflow/lite/kernels/internal\common.h ****                                 float* output_activation_max) {
  38:C:\Users\a5116938\Desktop\e2_studio_workspace\EEMBC_final\RX65N_Cloud_Kit\src/tensorflow/lite/kernels/internal\common.h ****   switch (ac) {
  39:C:\Users\a5116938\Desktop\e2_studio_workspace\EEMBC_final\RX65N_Cloud_Kit\src/tensorflow/lite/kernels/internal\common.h ****     case FusedActivationFunctionType::kNone:
  40:C:\Users\a5116938\Desktop\e2_studio_workspace\EEMBC_final\RX65N_Cloud_Kit\src/tensorflow/lite/kernels/internal\common.h ****       *output_activation_min = std::numeric_limits<float>::lowest();
  41:C:\Users\a5116938\Desktop\e2_studio_workspace\EEMBC_final\RX65N_Cloud_Kit\src/tensorflow/lite/kernels/internal\common.h ****       *output_activation_max = std::numeric_limits<float>::max();
  42:C:\Users\a5116938\Desktop\e2_studio_workspace\EEMBC_final\RX65N_Cloud_Kit\src/tensorflow/lite/kernels/internal\common.h ****       break;
  43:C:\Users\a5116938\Desktop\e2_studio_workspace\EEMBC_final\RX65N_Cloud_Kit\src/tensorflow/lite/kernels/internal\common.h ****     case FusedActivationFunctionType::kRelu:
  44:C:\Users\a5116938\Desktop\e2_studio_workspace\EEMBC_final\RX65N_Cloud_Kit\src/tensorflow/lite/kernels/internal\common.h ****       *output_activation_min = 0.f;
  45:C:\Users\a5116938\Desktop\e2_studio_workspace\EEMBC_final\RX65N_Cloud_Kit\src/tensorflow/lite/kernels/internal\common.h ****       *output_activation_max = std::numeric_limits<float>::max();
  46:C:\Users\a5116938\Desktop\e2_studio_workspace\EEMBC_final\RX65N_Cloud_Kit\src/tensorflow/lite/kernels/internal\common.h ****       break;
  47:C:\Users\a5116938\Desktop\e2_studio_workspace\EEMBC_final\RX65N_Cloud_Kit\src/tensorflow/lite/kernels/internal\common.h ****     case FusedActivationFunctionType::kRelu1:
  48:C:\Users\a5116938\Desktop\e2_studio_workspace\EEMBC_final\RX65N_Cloud_Kit\src/tensorflow/lite/kernels/internal\common.h ****       *output_activation_min = -1.f;
  49:C:\Users\a5116938\Desktop\e2_studio_workspace\EEMBC_final\RX65N_Cloud_Kit\src/tensorflow/lite/kernels/internal\common.h ****       *output_activation_max = 1.f;
  50:C:\Users\a5116938\Desktop\e2_studio_workspace\EEMBC_final\RX65N_Cloud_Kit\src/tensorflow/lite/kernels/internal\common.h ****       break;
  51:C:\Users\a5116938\Desktop\e2_studio_workspace\EEMBC_final\RX65N_Cloud_Kit\src/tensorflow/lite/kernels/internal\common.h ****     case FusedActivationFunctionType::kRelu6:
  52:C:\Users\a5116938\Desktop\e2_studio_workspace\EEMBC_final\RX65N_Cloud_Kit\src/tensorflow/lite/kernels/internal\common.h ****       *output_activation_min = 0.f;
  53:C:\Users\a5116938\Desktop\e2_studio_workspace\EEMBC_final\RX65N_Cloud_Kit\src/tensorflow/lite/kernels/internal\common.h ****       *output_activation_max = 6.f;
  54:C:\Users\a5116938\Desktop\e2_studio_workspace\EEMBC_final\RX65N_Cloud_Kit\src/tensorflow/lite/kernels/internal\common.h ****       break;
  55:C:\Users\a5116938\Desktop\e2_studio_workspace\EEMBC_final\RX65N_Cloud_Kit\src/tensorflow/lite/kernels/internal\common.h ****   }
  56:C:\Users\a5116938\Desktop\e2_studio_workspace\EEMBC_final\RX65N_Cloud_Kit\src/tensorflow/lite/kernels/internal\common.h **** }
  57:C:\Users\a5116938\Desktop\e2_studio_workspace\EEMBC_final\RX65N_Cloud_Kit\src/tensorflow/lite/kernels/internal\common.h **** 
  58:C:\Users\a5116938\Desktop\e2_studio_workspace\EEMBC_final\RX65N_Cloud_Kit\src/tensorflow/lite/kernels/internal\common.h **** template <typename T>
  59:C:\Users\a5116938\Desktop\e2_studio_workspace\EEMBC_final\RX65N_Cloud_Kit\src/tensorflow/lite/kernels/internal\common.h **** inline T ActivationFunctionWithMinMax(T x, T output_activation_min,
  60:C:\Users\a5116938\Desktop\e2_studio_workspace\EEMBC_final\RX65N_Cloud_Kit\src/tensorflow/lite/kernels/internal\common.h ****                                       T output_activation_max) {
  61:C:\Users\a5116938\Desktop\e2_studio_workspace\EEMBC_final\RX65N_Cloud_Kit\src/tensorflow/lite/kernels/internal\common.h ****   using std::max;
  62:C:\Users\a5116938\Desktop\e2_studio_workspace\EEMBC_final\RX65N_Cloud_Kit\src/tensorflow/lite/kernels/internal\common.h ****   using std::min;
  63:C:\Users\a5116938\Desktop\e2_studio_workspace\EEMBC_final\RX65N_Cloud_Kit\src/tensorflow/lite/kernels/internal\common.h ****   return min(max(x, output_activation_min), output_activation_max);
  64:C:\Users\a5116938\Desktop\e2_studio_workspace\EEMBC_final\RX65N_Cloud_Kit\src/tensorflow/lite/kernels/internal\common.h **** }
  65:C:\Users\a5116938\Desktop\e2_studio_workspace\EEMBC_final\RX65N_Cloud_Kit\src/tensorflow/lite/kernels/internal\common.h **** 
  66:C:\Users\a5116938\Desktop\e2_studio_workspace\EEMBC_final\RX65N_Cloud_Kit\src/tensorflow/lite/kernels/internal\common.h **** // Legacy function, left for compatibility only.
  67:C:\Users\a5116938\Desktop\e2_studio_workspace\EEMBC_final\RX65N_Cloud_Kit\src/tensorflow/lite/kernels/internal\common.h **** template <FusedActivationFunctionType Ac>
  68:C:\Users\a5116938\Desktop\e2_studio_workspace\EEMBC_final\RX65N_Cloud_Kit\src/tensorflow/lite/kernels/internal\common.h **** float ActivationFunction(float x) {
  69:C:\Users\a5116938\Desktop\e2_studio_workspace\EEMBC_final\RX65N_Cloud_Kit\src/tensorflow/lite/kernels/internal\common.h ****   float output_activation_min, output_activation_max;
  70:C:\Users\a5116938\Desktop\e2_studio_workspace\EEMBC_final\RX65N_Cloud_Kit\src/tensorflow/lite/kernels/internal\common.h ****   GetActivationMinMax(Ac, &output_activation_min, &output_activation_max);
  71:C:\Users\a5116938\Desktop\e2_studio_workspace\EEMBC_final\RX65N_Cloud_Kit\src/tensorflow/lite/kernels/internal\common.h ****   return ActivationFunctionWithMinMax(x, output_activation_min,
  72:C:\Users\a5116938\Desktop\e2_studio_workspace\EEMBC_final\RX65N_Cloud_Kit\src/tensorflow/lite/kernels/internal\common.h ****                                       output_activation_max);
  73:C:\Users\a5116938\Desktop\e2_studio_workspace\EEMBC_final\RX65N_Cloud_Kit\src/tensorflow/lite/kernels/internal\common.h **** }
  74:C:\Users\a5116938\Desktop\e2_studio_workspace\EEMBC_final\RX65N_Cloud_Kit\src/tensorflow/lite/kernels/internal\common.h **** 
  75:C:\Users\a5116938\Desktop\e2_studio_workspace\EEMBC_final\RX65N_Cloud_Kit\src/tensorflow/lite/kernels/internal\common.h **** inline void BiasAndClamp(float clamp_min, float clamp_max, int bias_size,
  76:C:\Users\a5116938\Desktop\e2_studio_workspace\EEMBC_final\RX65N_Cloud_Kit\src/tensorflow/lite/kernels/internal\common.h ****                          const float* bias_data, int array_size,
  77:C:\Users\a5116938\Desktop\e2_studio_workspace\EEMBC_final\RX65N_Cloud_Kit\src/tensorflow/lite/kernels/internal\common.h ****                          float* array_data) {
  78:C:\Users\a5116938\Desktop\e2_studio_workspace\EEMBC_final\RX65N_Cloud_Kit\src/tensorflow/lite/kernels/internal\common.h ****   // Note: see b/132215220: in May 2019 we thought it would be OK to replace
  79:C:\Users\a5116938\Desktop\e2_studio_workspace\EEMBC_final\RX65N_Cloud_Kit\src/tensorflow/lite/kernels/internal\common.h ****   // this with the Eigen one-liner:
  80:C:\Users\a5116938\Desktop\e2_studio_workspace\EEMBC_final\RX65N_Cloud_Kit\src/tensorflow/lite/kernels/internal\common.h ****   //   return (array.colwise() + bias).cwiseMin(clamp_max).cwiseMin(clamp_max).
  81:C:\Users\a5116938\Desktop\e2_studio_workspace\EEMBC_final\RX65N_Cloud_Kit\src/tensorflow/lite/kernels/internal\common.h ****   // This turned out to severely regress performance: +4ms (i.e. 8%) on
  82:C:\Users\a5116938\Desktop\e2_studio_workspace\EEMBC_final\RX65N_Cloud_Kit\src/tensorflow/lite/kernels/internal\common.h ****   // MobileNet v2 / 1.0 / 224. So we keep custom NEON code for now.
  83:C:\Users\a5116938\Desktop\e2_studio_workspace\EEMBC_final\RX65N_Cloud_Kit\src/tensorflow/lite/kernels/internal\common.h ****   TFLITE_DCHECK_EQ((array_size % bias_size), 0);
  84:C:\Users\a5116938\Desktop\e2_studio_workspace\EEMBC_final\RX65N_Cloud_Kit\src/tensorflow/lite/kernels/internal\common.h **** #ifdef USE_NEON
  85:C:\Users\a5116938\Desktop\e2_studio_workspace\EEMBC_final\RX65N_Cloud_Kit\src/tensorflow/lite/kernels/internal\common.h ****   float* array_ptr = array_data;
  86:C:\Users\a5116938\Desktop\e2_studio_workspace\EEMBC_final\RX65N_Cloud_Kit\src/tensorflow/lite/kernels/internal\common.h ****   float* array_end_ptr = array_ptr + array_size;
  87:C:\Users\a5116938\Desktop\e2_studio_workspace\EEMBC_final\RX65N_Cloud_Kit\src/tensorflow/lite/kernels/internal\common.h ****   const auto clamp_min_vec = vdupq_n_f32(clamp_min);
  88:C:\Users\a5116938\Desktop\e2_studio_workspace\EEMBC_final\RX65N_Cloud_Kit\src/tensorflow/lite/kernels/internal\common.h ****   const auto clamp_max_vec = vdupq_n_f32(clamp_max);
  89:C:\Users\a5116938\Desktop\e2_studio_workspace\EEMBC_final\RX65N_Cloud_Kit\src/tensorflow/lite/kernels/internal\common.h ****   for (; array_ptr != array_end_ptr; array_ptr += bias_size) {
  90:C:\Users\a5116938\Desktop\e2_studio_workspace\EEMBC_final\RX65N_Cloud_Kit\src/tensorflow/lite/kernels/internal\common.h ****     int i = 0;
  91:C:\Users\a5116938\Desktop\e2_studio_workspace\EEMBC_final\RX65N_Cloud_Kit\src/tensorflow/lite/kernels/internal\common.h ****     for (; i <= bias_size - 16; i += 16) {
  92:C:\Users\a5116938\Desktop\e2_studio_workspace\EEMBC_final\RX65N_Cloud_Kit\src/tensorflow/lite/kernels/internal\common.h ****       auto b0 = vld1q_f32(bias_data + i);
  93:C:\Users\a5116938\Desktop\e2_studio_workspace\EEMBC_final\RX65N_Cloud_Kit\src/tensorflow/lite/kernels/internal\common.h ****       auto b1 = vld1q_f32(bias_data + i + 4);
  94:C:\Users\a5116938\Desktop\e2_studio_workspace\EEMBC_final\RX65N_Cloud_Kit\src/tensorflow/lite/kernels/internal\common.h ****       auto b2 = vld1q_f32(bias_data + i + 8);
  95:C:\Users\a5116938\Desktop\e2_studio_workspace\EEMBC_final\RX65N_Cloud_Kit\src/tensorflow/lite/kernels/internal\common.h ****       auto b3 = vld1q_f32(bias_data + i + 12);
  96:C:\Users\a5116938\Desktop\e2_studio_workspace\EEMBC_final\RX65N_Cloud_Kit\src/tensorflow/lite/kernels/internal\common.h ****       auto a0 = vld1q_f32(array_ptr + i);
  97:C:\Users\a5116938\Desktop\e2_studio_workspace\EEMBC_final\RX65N_Cloud_Kit\src/tensorflow/lite/kernels/internal\common.h ****       auto a1 = vld1q_f32(array_ptr + i + 4);
  98:C:\Users\a5116938\Desktop\e2_studio_workspace\EEMBC_final\RX65N_Cloud_Kit\src/tensorflow/lite/kernels/internal\common.h ****       auto a2 = vld1q_f32(array_ptr + i + 8);
  99:C:\Users\a5116938\Desktop\e2_studio_workspace\EEMBC_final\RX65N_Cloud_Kit\src/tensorflow/lite/kernels/internal\common.h ****       auto a3 = vld1q_f32(array_ptr + i + 12);
 100:C:\Users\a5116938\Desktop\e2_studio_workspace\EEMBC_final\RX65N_Cloud_Kit\src/tensorflow/lite/kernels/internal\common.h ****       auto x0 = vaddq_f32(a0, b0);
 101:C:\Users\a5116938\Desktop\e2_studio_workspace\EEMBC_final\RX65N_Cloud_Kit\src/tensorflow/lite/kernels/internal\common.h ****       auto x1 = vaddq_f32(a1, b1);
 102:C:\Users\a5116938\Desktop\e2_studio_workspace\EEMBC_final\RX65N_Cloud_Kit\src/tensorflow/lite/kernels/internal\common.h ****       auto x2 = vaddq_f32(a2, b2);
 103:C:\Users\a5116938\Desktop\e2_studio_workspace\EEMBC_final\RX65N_Cloud_Kit\src/tensorflow/lite/kernels/internal\common.h ****       auto x3 = vaddq_f32(a3, b3);
 104:C:\Users\a5116938\Desktop\e2_studio_workspace\EEMBC_final\RX65N_Cloud_Kit\src/tensorflow/lite/kernels/internal\common.h ****       x0 = vmaxq_f32(clamp_min_vec, x0);
 105:C:\Users\a5116938\Desktop\e2_studio_workspace\EEMBC_final\RX65N_Cloud_Kit\src/tensorflow/lite/kernels/internal\common.h ****       x1 = vmaxq_f32(clamp_min_vec, x1);
 106:C:\Users\a5116938\Desktop\e2_studio_workspace\EEMBC_final\RX65N_Cloud_Kit\src/tensorflow/lite/kernels/internal\common.h ****       x2 = vmaxq_f32(clamp_min_vec, x2);
 107:C:\Users\a5116938\Desktop\e2_studio_workspace\EEMBC_final\RX65N_Cloud_Kit\src/tensorflow/lite/kernels/internal\common.h ****       x3 = vmaxq_f32(clamp_min_vec, x3);
 108:C:\Users\a5116938\Desktop\e2_studio_workspace\EEMBC_final\RX65N_Cloud_Kit\src/tensorflow/lite/kernels/internal\common.h ****       x0 = vminq_f32(clamp_max_vec, x0);
 109:C:\Users\a5116938\Desktop\e2_studio_workspace\EEMBC_final\RX65N_Cloud_Kit\src/tensorflow/lite/kernels/internal\common.h ****       x1 = vminq_f32(clamp_max_vec, x1);
 110:C:\Users\a5116938\Desktop\e2_studio_workspace\EEMBC_final\RX65N_Cloud_Kit\src/tensorflow/lite/kernels/internal\common.h ****       x2 = vminq_f32(clamp_max_vec, x2);
 111:C:\Users\a5116938\Desktop\e2_studio_workspace\EEMBC_final\RX65N_Cloud_Kit\src/tensorflow/lite/kernels/internal\common.h ****       x3 = vminq_f32(clamp_max_vec, x3);
 112:C:\Users\a5116938\Desktop\e2_studio_workspace\EEMBC_final\RX65N_Cloud_Kit\src/tensorflow/lite/kernels/internal\common.h ****       vst1q_f32(array_ptr + i, x0);
 113:C:\Users\a5116938\Desktop\e2_studio_workspace\EEMBC_final\RX65N_Cloud_Kit\src/tensorflow/lite/kernels/internal\common.h ****       vst1q_f32(array_ptr + i + 4, x1);
 114:C:\Users\a5116938\Desktop\e2_studio_workspace\EEMBC_final\RX65N_Cloud_Kit\src/tensorflow/lite/kernels/internal\common.h ****       vst1q_f32(array_ptr + i + 8, x2);
 115:C:\Users\a5116938\Desktop\e2_studio_workspace\EEMBC_final\RX65N_Cloud_Kit\src/tensorflow/lite/kernels/internal\common.h ****       vst1q_f32(array_ptr + i + 12, x3);
 116:C:\Users\a5116938\Desktop\e2_studio_workspace\EEMBC_final\RX65N_Cloud_Kit\src/tensorflow/lite/kernels/internal\common.h ****     }
 117:C:\Users\a5116938\Desktop\e2_studio_workspace\EEMBC_final\RX65N_Cloud_Kit\src/tensorflow/lite/kernels/internal\common.h ****     for (; i <= bias_size - 4; i += 4) {
 118:C:\Users\a5116938\Desktop\e2_studio_workspace\EEMBC_final\RX65N_Cloud_Kit\src/tensorflow/lite/kernels/internal\common.h ****       auto b = vld1q_f32(bias_data + i);
 119:C:\Users\a5116938\Desktop\e2_studio_workspace\EEMBC_final\RX65N_Cloud_Kit\src/tensorflow/lite/kernels/internal\common.h ****       auto a = vld1q_f32(array_ptr + i);
 120:C:\Users\a5116938\Desktop\e2_studio_workspace\EEMBC_final\RX65N_Cloud_Kit\src/tensorflow/lite/kernels/internal\common.h ****       auto x = vaddq_f32(a, b);
 121:C:\Users\a5116938\Desktop\e2_studio_workspace\EEMBC_final\RX65N_Cloud_Kit\src/tensorflow/lite/kernels/internal\common.h ****       x = vmaxq_f32(clamp_min_vec, x);
 122:C:\Users\a5116938\Desktop\e2_studio_workspace\EEMBC_final\RX65N_Cloud_Kit\src/tensorflow/lite/kernels/internal\common.h ****       x = vminq_f32(clamp_max_vec, x);
 123:C:\Users\a5116938\Desktop\e2_studio_workspace\EEMBC_final\RX65N_Cloud_Kit\src/tensorflow/lite/kernels/internal\common.h ****       vst1q_f32(array_ptr + i, x);
 124:C:\Users\a5116938\Desktop\e2_studio_workspace\EEMBC_final\RX65N_Cloud_Kit\src/tensorflow/lite/kernels/internal\common.h ****     }
 125:C:\Users\a5116938\Desktop\e2_studio_workspace\EEMBC_final\RX65N_Cloud_Kit\src/tensorflow/lite/kernels/internal\common.h ****     for (; i < bias_size; i++) {
 126:C:\Users\a5116938\Desktop\e2_studio_workspace\EEMBC_final\RX65N_Cloud_Kit\src/tensorflow/lite/kernels/internal\common.h ****       array_ptr[i] = ActivationFunctionWithMinMax(array_ptr[i] + bias_data[i],
 127:C:\Users\a5116938\Desktop\e2_studio_workspace\EEMBC_final\RX65N_Cloud_Kit\src/tensorflow/lite/kernels/internal\common.h ****                                                   clamp_min, clamp_max);
 128:C:\Users\a5116938\Desktop\e2_studio_workspace\EEMBC_final\RX65N_Cloud_Kit\src/tensorflow/lite/kernels/internal\common.h ****     }
 129:C:\Users\a5116938\Desktop\e2_studio_workspace\EEMBC_final\RX65N_Cloud_Kit\src/tensorflow/lite/kernels/internal\common.h ****   }
 130:C:\Users\a5116938\Desktop\e2_studio_workspace\EEMBC_final\RX65N_Cloud_Kit\src/tensorflow/lite/kernels/internal\common.h **** #else  // not NEON
 131:C:\Users\a5116938\Desktop\e2_studio_workspace\EEMBC_final\RX65N_Cloud_Kit\src/tensorflow/lite/kernels/internal\common.h ****   for (int array_offset = 0; array_offset < array_size;
 132:C:\Users\a5116938\Desktop\e2_studio_workspace\EEMBC_final\RX65N_Cloud_Kit\src/tensorflow/lite/kernels/internal\common.h ****        array_offset += bias_size) {
 133:C:\Users\a5116938\Desktop\e2_studio_workspace\EEMBC_final\RX65N_Cloud_Kit\src/tensorflow/lite/kernels/internal\common.h ****     for (int i = 0; i < bias_size; i++) {
 134:C:\Users\a5116938\Desktop\e2_studio_workspace\EEMBC_final\RX65N_Cloud_Kit\src/tensorflow/lite/kernels/internal\common.h ****       array_data[array_offset + i] = ActivationFunctionWithMinMax(
 135:C:\Users\a5116938\Desktop\e2_studio_workspace\EEMBC_final\RX65N_Cloud_Kit\src/tensorflow/lite/kernels/internal\common.h ****           array_data[array_offset + i] + bias_data[i], clamp_min, clamp_max);
 136:C:\Users\a5116938\Desktop\e2_studio_workspace\EEMBC_final\RX65N_Cloud_Kit\src/tensorflow/lite/kernels/internal\common.h ****     }
 137:C:\Users\a5116938\Desktop\e2_studio_workspace\EEMBC_final\RX65N_Cloud_Kit\src/tensorflow/lite/kernels/internal\common.h ****   }
 138:C:\Users\a5116938\Desktop\e2_studio_workspace\EEMBC_final\RX65N_Cloud_Kit\src/tensorflow/lite/kernels/internal\common.h **** #endif
 139:C:\Users\a5116938\Desktop\e2_studio_workspace\EEMBC_final\RX65N_Cloud_Kit\src/tensorflow/lite/kernels/internal\common.h **** }
 140:C:\Users\a5116938\Desktop\e2_studio_workspace\EEMBC_final\RX65N_Cloud_Kit\src/tensorflow/lite/kernels/internal\common.h **** 
 141:C:\Users\a5116938\Desktop\e2_studio_workspace\EEMBC_final\RX65N_Cloud_Kit\src/tensorflow/lite/kernels/internal\common.h **** inline int32_t MultiplyByQuantizedMultiplierSmallerThanOneExp(
 142:C:\Users\a5116938\Desktop\e2_studio_workspace\EEMBC_final\RX65N_Cloud_Kit\src/tensorflow/lite/kernels/internal\common.h ****     int32_t x, int32_t quantized_multiplier, int left_shift) {
 143:C:\Users\a5116938\Desktop\e2_studio_workspace\EEMBC_final\RX65N_Cloud_Kit\src/tensorflow/lite/kernels/internal\common.h ****   using gemmlowp::RoundingDivideByPOT;
 144:C:\Users\a5116938\Desktop\e2_studio_workspace\EEMBC_final\RX65N_Cloud_Kit\src/tensorflow/lite/kernels/internal\common.h ****   using gemmlowp::SaturatingRoundingDoublingHighMul;
 145:C:\Users\a5116938\Desktop\e2_studio_workspace\EEMBC_final\RX65N_Cloud_Kit\src/tensorflow/lite/kernels/internal\common.h ****   return RoundingDivideByPOT(
 146:C:\Users\a5116938\Desktop\e2_studio_workspace\EEMBC_final\RX65N_Cloud_Kit\src/tensorflow/lite/kernels/internal\common.h ****       SaturatingRoundingDoublingHighMul(x, quantized_multiplier), -left_shift);
 147:C:\Users\a5116938\Desktop\e2_studio_workspace\EEMBC_final\RX65N_Cloud_Kit\src/tensorflow/lite/kernels/internal\common.h **** }
 148:C:\Users\a5116938\Desktop\e2_studio_workspace\EEMBC_final\RX65N_Cloud_Kit\src/tensorflow/lite/kernels/internal\common.h **** 
 149:C:\Users\a5116938\Desktop\e2_studio_workspace\EEMBC_final\RX65N_Cloud_Kit\src/tensorflow/lite/kernels/internal\common.h **** inline int32_t MultiplyByQuantizedMultiplierGreaterThanOne(
 150:C:\Users\a5116938\Desktop\e2_studio_workspace\EEMBC_final\RX65N_Cloud_Kit\src/tensorflow/lite/kernels/internal\common.h ****     int32_t x, int32_t quantized_multiplier, int left_shift) {
 151:C:\Users\a5116938\Desktop\e2_studio_workspace\EEMBC_final\RX65N_Cloud_Kit\src/tensorflow/lite/kernels/internal\common.h ****   using gemmlowp::SaturatingRoundingDoublingHighMul;
 152:C:\Users\a5116938\Desktop\e2_studio_workspace\EEMBC_final\RX65N_Cloud_Kit\src/tensorflow/lite/kernels/internal\common.h ****   return SaturatingRoundingDoublingHighMul(x * (1 << left_shift),
 153:C:\Users\a5116938\Desktop\e2_studio_workspace\EEMBC_final\RX65N_Cloud_Kit\src/tensorflow/lite/kernels/internal\common.h ****                                            quantized_multiplier);
 154:C:\Users\a5116938\Desktop\e2_studio_workspace\EEMBC_final\RX65N_Cloud_Kit\src/tensorflow/lite/kernels/internal\common.h **** }
 155:C:\Users\a5116938\Desktop\e2_studio_workspace\EEMBC_final\RX65N_Cloud_Kit\src/tensorflow/lite/kernels/internal\common.h **** 
 156:C:\Users\a5116938\Desktop\e2_studio_workspace\EEMBC_final\RX65N_Cloud_Kit\src/tensorflow/lite/kernels/internal\common.h **** inline int32_t MultiplyByQuantizedMultiplier(int32_t x,
 157:C:\Users\a5116938\Desktop\e2_studio_workspace\EEMBC_final\RX65N_Cloud_Kit\src/tensorflow/lite/kernels/internal\common.h ****                                              int32_t quantized_multiplier,
 158:C:\Users\a5116938\Desktop\e2_studio_workspace\EEMBC_final\RX65N_Cloud_Kit\src/tensorflow/lite/kernels/internal\common.h ****                                              int shift) {
 159:C:\Users\a5116938\Desktop\e2_studio_workspace\EEMBC_final\RX65N_Cloud_Kit\src/tensorflow/lite/kernels/internal\common.h ****   using gemmlowp::RoundingDivideByPOT;
 2319                             		.loc 8 159 3 is_stmt 1
 160:C:\Users\a5116938\Desktop\e2_studio_workspace\EEMBC_final\RX65N_Cloud_Kit\src/tensorflow/lite/kernels/internal\common.h ****   using gemmlowp::SaturatingRoundingDoublingHighMul;
 2320                             		.loc 8 160 3
 161:C:\Users\a5116938\Desktop\e2_studio_workspace\EEMBC_final\RX65N_Cloud_Kit\src/tensorflow/lite/kernels/internal\common.h ****   int left_shift = shift > 0 ? shift : 0;
 2321                             		.loc 8 161 3
 2322                             	.LBE1005:
 2323                             	.LBE1091:
 2324                             		.loc 6 114 46 is_stmt 0
 2325 0338 ED 03 68                		mov.L	416[r0], r3
 2326 033b FE 6E 34                		mov.L	[r14,r3], r4
 2327                             	.LBB1092:
 2328                             	.LBB1006:
 2329                             		.loc 8 161 7
 2330 033e 66 0A                   		mov.L	#0, r10
 2331 0340 FC 13 5A                		max	r5, r10
 2332                             	.LVL174:
 162:C:\Users\a5116938\Desktop\e2_studio_workspace\EEMBC_final\RX65N_Cloud_Kit\src/tensorflow/lite/kernels/internal\common.h ****   int right_shift = shift > 0 ? 0 : -shift;
 2333                             		.loc 8 162 3 is_stmt 1
 2334                             		.loc 8 162 31 is_stmt 0
 2335 0343 61 05                   		cmp	#0, r5
 2336 0345 2A 05 38 62 01          		ble	.L201
 2337 034a 66 05                   		mov.L	#0, r5
 2338                             	.LVL175:
 163:C:\Users\a5116938\Desktop\e2_studio_workspace\EEMBC_final\RX65N_Cloud_Kit\src/tensorflow/lite/kernels/internal\common.h ****   return RoundingDivideByPOT(SaturatingRoundingDoublingHighMul(
 2339                             		.loc 8 163 3 is_stmt 1
 2340                             		.loc 8 163 29 is_stmt 0
 2341 034c FD 62 A7                		shll	r10, r7
 2342                             	.LVL176:
 2343                             	.LBB999:
 2344                             	.LBB997:
 342:C:\Users\a5116938\Desktop\e2_studio_workspace\EEMBC_final\RX65N_Cloud_Kit\src\third_party\gemmlowp/fixedpoint\fixedpoint.h ****   std::int64_t a_64(a);
 2345                             		.loc 7 342 3 is_stmt 1
 2346 034f EF 41                   		mov.L	r4, r1
 2347 0351 FC 1B 71                		emul	r7, r1
 2348 0354 EF 1A                   		mov.L	r1, r10
 2349                             	.LVL177:
 2350 0356 EF 2B                   		mov.L	r2, r11
 342:C:\Users\a5116938\Desktop\e2_studio_workspace\EEMBC_final\RX65N_Cloud_Kit\src\third_party\gemmlowp/fixedpoint\fixedpoint.h ****   std::int64_t a_64(a);
 2351                             		.loc 7 342 26 is_stmt 0
 2352 0358 47 74                   		cmp	r7, r4
 2353 035a 3A 62 01                		beq	.L202
 2354                             	.LVL178:
 2355                             		.balign 8,3,1
 2356                             	.L98:
 343:C:\Users\a5116938\Desktop\e2_studio_workspace\EEMBC_final\RX65N_Cloud_Kit\src\third_party\gemmlowp/fixedpoint\fixedpoint.h ****   std::int64_t b_64(b);
 2357                             		.loc 7 343 3 is_stmt 1
 344:C:\Users\a5116938\Desktop\e2_studio_workspace\EEMBC_final\RX65N_Cloud_Kit\src\third_party\gemmlowp/fixedpoint\fixedpoint.h ****   std::int64_t ab_64 = a_64 * b_64;
 2358                             		.loc 7 344 3
 345:C:\Users\a5116938\Desktop\e2_studio_workspace\EEMBC_final\RX65N_Cloud_Kit\src\third_party\gemmlowp/fixedpoint\fixedpoint.h ****   std::int32_t nudge = ab_64 >= 0 ? (1 << 30) : (1 - (1 << 30));
 2359                             		.loc 7 345 3
 346:C:\Users\a5116938\Desktop\e2_studio_workspace\EEMBC_final\RX65N_Cloud_Kit\src\third_party\gemmlowp/fixedpoint\fixedpoint.h ****   std::int32_t ab_x2_high32 =
 2360                             		.loc 7 346 3
 346:C:\Users\a5116938\Desktop\e2_studio_workspace\EEMBC_final\RX65N_Cloud_Kit\src\third_party\gemmlowp/fixedpoint\fixedpoint.h ****   std::int32_t ab_x2_high32 =
 2361                             		.loc 7 346 35 is_stmt 0
 2362 035d 62 02                   		add	#0, r2
 2363                             	.LVL179:
 2364 035f 28 27                   		bge	.L124
 2365 0361 FB 32 01 00 00 C0       		mov.L	#-1073741823, r3
 2366 0367 FB 76 FF                		mov.L	#-1, r7
 2367                             	.LVL180:
 2368                             		.balign 8,3,2
 2369                             	.L126:
 348:C:\Users\a5116938\Desktop\e2_studio_workspace\EEMBC_final\RX65N_Cloud_Kit\src\third_party\gemmlowp/fixedpoint\fixedpoint.h ****   return overflow ? std::numeric_limits<std::int32_t>::max() : ab_x2_high32;
 2370                             		.loc 7 348 49
 2371 036a FF 24 3A                		add	r3, r10, r4
 2372 036d FC 0B B7                		adc	r11, r7
 2373 0370 26 0E                   		bpz	.L102
 2374 0372 70 42 FF FF FF 7F       		add	#0x7fffffff, r4, r2
 2375 0378 FD 74 27 00             		adc	#0, r7
 2376 037c EF 24                   		mov.L	r2, r4
 2377                             		.balign 8,3,1
 2378                             	.L102:
 2379 037e 6C 17                   		shll	#1, r7
 2380 0380 69 F4                   		shlr	#31, r4
 2381 0382 57 74                   		or	r7, r4
 2382 0384 2E 14                   		bra	.L101
 2383                             	.LVL181:
 2384                             	.L124:
 347:C:\Users\a5116938\Desktop\e2_studio_workspace\EEMBC_final\RX65N_Cloud_Kit\src\third_party\gemmlowp/fixedpoint\fixedpoint.h ****       static_cast<std::int32_t>((ab_64 + nudge) / (1ll << 31));
 2385                             		.loc 7 347 3 is_stmt 1
 349:C:\Users\a5116938\Desktop\e2_studio_workspace\EEMBC_final\RX65N_Cloud_Kit\src\third_party\gemmlowp/fixedpoint\fixedpoint.h **** }
 2386                             		.loc 7 349 3
 348:C:\Users\a5116938\Desktop\e2_studio_workspace\EEMBC_final\RX65N_Cloud_Kit\src\third_party\gemmlowp/fixedpoint\fixedpoint.h ****   return overflow ? std::numeric_limits<std::int32_t>::max() : ab_x2_high32;
 2387                             		.loc 7 348 40 is_stmt 0
 2388 0386 EF B4                   		mov.L	r11, r4
 2389                             	.LVL182:
 2390 0388 70 A3 00 00 00 40       		add	#0x40000000, r10, r3
 2391                             	.LVL183:
 2392 038e FD 74 24 00             		adc	#0, r4
 348:C:\Users\a5116938\Desktop\e2_studio_workspace\EEMBC_final\RX65N_Cloud_Kit\src\third_party\gemmlowp/fixedpoint\fixedpoint.h ****   return overflow ? std::numeric_limits<std::int32_t>::max() : ab_x2_high32;
 2393                             		.loc 7 348 49
 2394 0392 6C 14                   		shll	#1, r4
 2395 0394 69 F3                   		shlr	#31, r3
 2396 0396 57 34                   		or	r3, r4
 2397                             	.LVL184:
 2398                             		.balign 8,3,2
 2399                             	.L101:
 2400                             	.LBE997:
 2401                             	.LBE999:
 2402                             	.LBB1000:
 2403                             	.LBB992:
 370:C:\Users\a5116938\Desktop\e2_studio_workspace\EEMBC_final\RX65N_Cloud_Kit\src\third_party\gemmlowp/fixedpoint\fixedpoint.h ****   const IntegerType mask = Dup<IntegerType>((1ll << exponent) - 1);
 2404                             		.loc 7 370 3
 2405 0398 75 55 1F                		cmp	#31, r5
 2406 039b 2B 05 38 16 03          		bgt	.L203
 2407                             		.loc 7 371 50
 2408 03a0 71 5A E0                		add	#-32, r5, r10
 2409 03a3 66 17                   		mov.L	#1, r7
 2410 03a5 FD 62 57                		shll	r5, r7
 2411 03a8 6B FA                   		shar	#31, r10
 2412                             	.LBB978:
 2413                             	.LBB979:
  71:C:\Users\a5116938\Desktop\e2_studio_workspace\EEMBC_final\RX65N_Cloud_Kit\src\third_party\gemmlowp/fixedpoint\fixedpoint.h **** }
 2414                             		.loc 7 71 14
 2415 03aa FD 9F 43                		shlr	#31, r4, r3
 2416                             	.LBE979:
 2417                             	.LBE978:
 2418                             		.loc 7 371 50
 2419 03ad 53 7A                   		and	r7, r10
 2420                             	.LBB980:
 2421                             	.LBB981:
 142:C:\Users\a5116938\Desktop\e2_studio_workspace\EEMBC_final\RX65N_Cloud_Kit\src\third_party\gemmlowp/fixedpoint\fixedpoint.h **** }
 2422                             		.loc 7 142 15
 2423 03af EF 46                   		mov.L	r4, r6
 2424 03b1 FD 61 56                		shar	r5, r6
 2425                             	.LBE981:
 2426                             	.LBE980:
 2427                             		.loc 7 371 63
 2428 03b4 60 1A                   		sub	#1, r10
 2429                             	.LVL185:
 2430                             	.LBE992:
 2431                             	.LBE1000:
 2432                             	.LBE1006:
 2433                             	.LBE1092:
 115:C:\Users\a5116938\Desktop\e2_studio_workspace\EEMBC_final\RX65N_Cloud_Kit\src/tensorflow/lite/kernels/internal/reference/integer_ops\conv.h ****               acc, output_multiplier[out_channel], output_shift[out_channel]);
 116:C:\Users\a5116938\Desktop\e2_studio_workspace\EEMBC_final\RX65N_Cloud_Kit\src/tensorflow/lite/kernels/internal/reference/integer_ops\conv.h ****           acc += output_offset;
 2434                             		.loc 6 116 11 is_stmt 1
 2435                             	.LBB1093:
 2436                             	.LBB1007:
 2437                             	.LBB1001:
 2438                             	.LBB993:
 2439                             	.LBB982:
 2440                             	.LBB983:
 142:C:\Users\a5116938\Desktop\e2_studio_workspace\EEMBC_final\RX65N_Cloud_Kit\src\third_party\gemmlowp/fixedpoint\fixedpoint.h **** }
 2441                             		.loc 7 142 15 is_stmt 0
 2442 03b6 FD A1 A2                		shar	#1, r10, r2
 2443                             	.LBE983:
 2444                             	.LBE982:
 2445                             	.LBB984:
 2446                             	.LBB985:
  71:C:\Users\a5116938\Desktop\e2_studio_workspace\EEMBC_final\RX65N_Cloud_Kit\src\third_party\gemmlowp/fixedpoint\fixedpoint.h **** }
 2447                             		.loc 7 71 14
 2448 03b9 53 A4                   		and	r10, r4
 2449                             	.LVL186:
 2450                             	.LBE985:
 2451                             	.LBE984:
 2452                             	.LBB986:
 2453                             	.LBB987:
  95:C:\Users\a5116938\Desktop\e2_studio_workspace\EEMBC_final\RX65N_Cloud_Kit\src\third_party\gemmlowp/fixedpoint\fixedpoint.h **** }
 2454                             		.loc 7 95 14
 2455 03bb 4B 23                   		add	r2, r3
 2456                             	.LBE987:
 2457                             	.LBE986:
 2458                             	.LBB988:
 2459                             	.LBB989:
  71:C:\Users\a5116938\Desktop\e2_studio_workspace\EEMBC_final\RX65N_Cloud_Kit\src\third_party\gemmlowp/fixedpoint\fixedpoint.h **** }
 2460                             		.loc 7 71 14
 2461 03bd 47 34                   		cmp	r3, r4
 2462 03bf FC DB AA                		scgt.L	r10
 2463                             	.LVL187:
 2464                             	.LBE989:
 2465                             	.LBE988:
 2466                             	.LBB990:
 2467                             	.LBB991:
  95:C:\Users\a5116938\Desktop\e2_studio_workspace\EEMBC_final\RX65N_Cloud_Kit\src\third_party\gemmlowp/fixedpoint\fixedpoint.h **** }
 2468                             		.loc 7 95 14
 2469 03c2 4B 6A                   		add	r6, r10
 2470                             	.LBE991:
 2471                             	.LBE990:
 2472                             	.LBE993:
 2473                             	.LBE1001:
 2474                             	.LBE1007:
 2475                             	.LBE1093:
 2476                             		.loc 6 116 15
 2477 03c4 06 89 0A 66             		add	408[r0], r10
 2478                             	.LVL188:
 117:C:\Users\a5116938\Desktop\e2_studio_workspace\EEMBC_final\RX65N_Cloud_Kit\src/tensorflow/lite/kernels/internal/reference/integer_ops\conv.h ****           acc = std::max(acc, output_activation_min);
 2479                             		.loc 6 117 11 is_stmt 1
 2480                             	.LBB1094:
 2481                             	.LBB1095:
 2482                             		.file 9 "c:\\gcc for renesas rx 8.3.0.202004-gnurx-elf\\rx-elf\\rx-elf\\rx-elf\\include\\c++\\8.3.
   1:c:\gcc for renesas rx 8.3.0.202004-gnurx-elf\rx-elf\rx-elf\rx-elf\include\c++\8.3.0.202004-gnurx\bits\stl_algobase.h **** // Core algorithmic facilities -*- C++ -*-
   2:c:\gcc for renesas rx 8.3.0.202004-gnurx-elf\rx-elf\rx-elf\rx-elf\include\c++\8.3.0.202004-gnurx\bits\stl_algobase.h **** 
   3:c:\gcc for renesas rx 8.3.0.202004-gnurx-elf\rx-elf\rx-elf\rx-elf\include\c++\8.3.0.202004-gnurx\bits\stl_algobase.h **** // Copyright (C) 2001-2018 Free Software Foundation, Inc.
   4:c:\gcc for renesas rx 8.3.0.202004-gnurx-elf\rx-elf\rx-elf\rx-elf\include\c++\8.3.0.202004-gnurx\bits\stl_algobase.h **** //
   5:c:\gcc for renesas rx 8.3.0.202004-gnurx-elf\rx-elf\rx-elf\rx-elf\include\c++\8.3.0.202004-gnurx\bits\stl_algobase.h **** // This file is part of the GNU ISO C++ Library.  This library is free
   6:c:\gcc for renesas rx 8.3.0.202004-gnurx-elf\rx-elf\rx-elf\rx-elf\include\c++\8.3.0.202004-gnurx\bits\stl_algobase.h **** // software; you can redistribute it and/or modify it under the
   7:c:\gcc for renesas rx 8.3.0.202004-gnurx-elf\rx-elf\rx-elf\rx-elf\include\c++\8.3.0.202004-gnurx\bits\stl_algobase.h **** // terms of the GNU General Public License as published by the
   8:c:\gcc for renesas rx 8.3.0.202004-gnurx-elf\rx-elf\rx-elf\rx-elf\include\c++\8.3.0.202004-gnurx\bits\stl_algobase.h **** // Free Software Foundation; either version 3, or (at your option)
   9:c:\gcc for renesas rx 8.3.0.202004-gnurx-elf\rx-elf\rx-elf\rx-elf\include\c++\8.3.0.202004-gnurx\bits\stl_algobase.h **** // any later version.
  10:c:\gcc for renesas rx 8.3.0.202004-gnurx-elf\rx-elf\rx-elf\rx-elf\include\c++\8.3.0.202004-gnurx\bits\stl_algobase.h **** 
  11:c:\gcc for renesas rx 8.3.0.202004-gnurx-elf\rx-elf\rx-elf\rx-elf\include\c++\8.3.0.202004-gnurx\bits\stl_algobase.h **** // This library is distributed in the hope that it will be useful,
  12:c:\gcc for renesas rx 8.3.0.202004-gnurx-elf\rx-elf\rx-elf\rx-elf\include\c++\8.3.0.202004-gnurx\bits\stl_algobase.h **** // but WITHOUT ANY WARRANTY; without even the implied warranty of
  13:c:\gcc for renesas rx 8.3.0.202004-gnurx-elf\rx-elf\rx-elf\rx-elf\include\c++\8.3.0.202004-gnurx\bits\stl_algobase.h **** // MERCHANTABILITY or FITNESS FOR A PARTICULAR PURPOSE.  See the
  14:c:\gcc for renesas rx 8.3.0.202004-gnurx-elf\rx-elf\rx-elf\rx-elf\include\c++\8.3.0.202004-gnurx\bits\stl_algobase.h **** // GNU General Public License for more details.
  15:c:\gcc for renesas rx 8.3.0.202004-gnurx-elf\rx-elf\rx-elf\rx-elf\include\c++\8.3.0.202004-gnurx\bits\stl_algobase.h **** 
  16:c:\gcc for renesas rx 8.3.0.202004-gnurx-elf\rx-elf\rx-elf\rx-elf\include\c++\8.3.0.202004-gnurx\bits\stl_algobase.h **** // Under Section 7 of GPL version 3, you are granted additional
  17:c:\gcc for renesas rx 8.3.0.202004-gnurx-elf\rx-elf\rx-elf\rx-elf\include\c++\8.3.0.202004-gnurx\bits\stl_algobase.h **** // permissions described in the GCC Runtime Library Exception, version
  18:c:\gcc for renesas rx 8.3.0.202004-gnurx-elf\rx-elf\rx-elf\rx-elf\include\c++\8.3.0.202004-gnurx\bits\stl_algobase.h **** // 3.1, as published by the Free Software Foundation.
  19:c:\gcc for renesas rx 8.3.0.202004-gnurx-elf\rx-elf\rx-elf\rx-elf\include\c++\8.3.0.202004-gnurx\bits\stl_algobase.h **** 
  20:c:\gcc for renesas rx 8.3.0.202004-gnurx-elf\rx-elf\rx-elf\rx-elf\include\c++\8.3.0.202004-gnurx\bits\stl_algobase.h **** // You should have received a copy of the GNU General Public License and
  21:c:\gcc for renesas rx 8.3.0.202004-gnurx-elf\rx-elf\rx-elf\rx-elf\include\c++\8.3.0.202004-gnurx\bits\stl_algobase.h **** // a copy of the GCC Runtime Library Exception along with this program;
  22:c:\gcc for renesas rx 8.3.0.202004-gnurx-elf\rx-elf\rx-elf\rx-elf\include\c++\8.3.0.202004-gnurx\bits\stl_algobase.h **** // see the files COPYING3 and COPYING.RUNTIME respectively.  If not, see
  23:c:\gcc for renesas rx 8.3.0.202004-gnurx-elf\rx-elf\rx-elf\rx-elf\include\c++\8.3.0.202004-gnurx\bits\stl_algobase.h **** // <http://www.gnu.org/licenses/>.
  24:c:\gcc for renesas rx 8.3.0.202004-gnurx-elf\rx-elf\rx-elf\rx-elf\include\c++\8.3.0.202004-gnurx\bits\stl_algobase.h **** 
  25:c:\gcc for renesas rx 8.3.0.202004-gnurx-elf\rx-elf\rx-elf\rx-elf\include\c++\8.3.0.202004-gnurx\bits\stl_algobase.h **** /*
  26:c:\gcc for renesas rx 8.3.0.202004-gnurx-elf\rx-elf\rx-elf\rx-elf\include\c++\8.3.0.202004-gnurx\bits\stl_algobase.h ****  *
  27:c:\gcc for renesas rx 8.3.0.202004-gnurx-elf\rx-elf\rx-elf\rx-elf\include\c++\8.3.0.202004-gnurx\bits\stl_algobase.h ****  * Copyright (c) 1994
  28:c:\gcc for renesas rx 8.3.0.202004-gnurx-elf\rx-elf\rx-elf\rx-elf\include\c++\8.3.0.202004-gnurx\bits\stl_algobase.h ****  * Hewlett-Packard Company
  29:c:\gcc for renesas rx 8.3.0.202004-gnurx-elf\rx-elf\rx-elf\rx-elf\include\c++\8.3.0.202004-gnurx\bits\stl_algobase.h ****  *
  30:c:\gcc for renesas rx 8.3.0.202004-gnurx-elf\rx-elf\rx-elf\rx-elf\include\c++\8.3.0.202004-gnurx\bits\stl_algobase.h ****  * Permission to use, copy, modify, distribute and sell this software
  31:c:\gcc for renesas rx 8.3.0.202004-gnurx-elf\rx-elf\rx-elf\rx-elf\include\c++\8.3.0.202004-gnurx\bits\stl_algobase.h ****  * and its documentation for any purpose is hereby granted without fee,
  32:c:\gcc for renesas rx 8.3.0.202004-gnurx-elf\rx-elf\rx-elf\rx-elf\include\c++\8.3.0.202004-gnurx\bits\stl_algobase.h ****  * provided that the above copyright notice appear in all copies and
  33:c:\gcc for renesas rx 8.3.0.202004-gnurx-elf\rx-elf\rx-elf\rx-elf\include\c++\8.3.0.202004-gnurx\bits\stl_algobase.h ****  * that both that copyright notice and this permission notice appear
  34:c:\gcc for renesas rx 8.3.0.202004-gnurx-elf\rx-elf\rx-elf\rx-elf\include\c++\8.3.0.202004-gnurx\bits\stl_algobase.h ****  * in supporting documentation.  Hewlett-Packard Company makes no
  35:c:\gcc for renesas rx 8.3.0.202004-gnurx-elf\rx-elf\rx-elf\rx-elf\include\c++\8.3.0.202004-gnurx\bits\stl_algobase.h ****  * representations about the suitability of this software for any
  36:c:\gcc for renesas rx 8.3.0.202004-gnurx-elf\rx-elf\rx-elf\rx-elf\include\c++\8.3.0.202004-gnurx\bits\stl_algobase.h ****  * purpose.  It is provided "as is" without express or implied warranty.
  37:c:\gcc for renesas rx 8.3.0.202004-gnurx-elf\rx-elf\rx-elf\rx-elf\include\c++\8.3.0.202004-gnurx\bits\stl_algobase.h ****  *
  38:c:\gcc for renesas rx 8.3.0.202004-gnurx-elf\rx-elf\rx-elf\rx-elf\include\c++\8.3.0.202004-gnurx\bits\stl_algobase.h ****  *
  39:c:\gcc for renesas rx 8.3.0.202004-gnurx-elf\rx-elf\rx-elf\rx-elf\include\c++\8.3.0.202004-gnurx\bits\stl_algobase.h ****  * Copyright (c) 1996-1998
  40:c:\gcc for renesas rx 8.3.0.202004-gnurx-elf\rx-elf\rx-elf\rx-elf\include\c++\8.3.0.202004-gnurx\bits\stl_algobase.h ****  * Silicon Graphics Computer Systems, Inc.
  41:c:\gcc for renesas rx 8.3.0.202004-gnurx-elf\rx-elf\rx-elf\rx-elf\include\c++\8.3.0.202004-gnurx\bits\stl_algobase.h ****  *
  42:c:\gcc for renesas rx 8.3.0.202004-gnurx-elf\rx-elf\rx-elf\rx-elf\include\c++\8.3.0.202004-gnurx\bits\stl_algobase.h ****  * Permission to use, copy, modify, distribute and sell this software
  43:c:\gcc for renesas rx 8.3.0.202004-gnurx-elf\rx-elf\rx-elf\rx-elf\include\c++\8.3.0.202004-gnurx\bits\stl_algobase.h ****  * and its documentation for any purpose is hereby granted without fee,
  44:c:\gcc for renesas rx 8.3.0.202004-gnurx-elf\rx-elf\rx-elf\rx-elf\include\c++\8.3.0.202004-gnurx\bits\stl_algobase.h ****  * provided that the above copyright notice appear in all copies and
  45:c:\gcc for renesas rx 8.3.0.202004-gnurx-elf\rx-elf\rx-elf\rx-elf\include\c++\8.3.0.202004-gnurx\bits\stl_algobase.h ****  * that both that copyright notice and this permission notice appear
  46:c:\gcc for renesas rx 8.3.0.202004-gnurx-elf\rx-elf\rx-elf\rx-elf\include\c++\8.3.0.202004-gnurx\bits\stl_algobase.h ****  * in supporting documentation.  Silicon Graphics makes no
  47:c:\gcc for renesas rx 8.3.0.202004-gnurx-elf\rx-elf\rx-elf\rx-elf\include\c++\8.3.0.202004-gnurx\bits\stl_algobase.h ****  * representations about the suitability of this software for any
  48:c:\gcc for renesas rx 8.3.0.202004-gnurx-elf\rx-elf\rx-elf\rx-elf\include\c++\8.3.0.202004-gnurx\bits\stl_algobase.h ****  * purpose.  It is provided "as is" without express or implied warranty.
  49:c:\gcc for renesas rx 8.3.0.202004-gnurx-elf\rx-elf\rx-elf\rx-elf\include\c++\8.3.0.202004-gnurx\bits\stl_algobase.h ****  */
  50:c:\gcc for renesas rx 8.3.0.202004-gnurx-elf\rx-elf\rx-elf\rx-elf\include\c++\8.3.0.202004-gnurx\bits\stl_algobase.h **** 
  51:c:\gcc for renesas rx 8.3.0.202004-gnurx-elf\rx-elf\rx-elf\rx-elf\include\c++\8.3.0.202004-gnurx\bits\stl_algobase.h **** /** @file bits/stl_algobase.h
  52:c:\gcc for renesas rx 8.3.0.202004-gnurx-elf\rx-elf\rx-elf\rx-elf\include\c++\8.3.0.202004-gnurx\bits\stl_algobase.h ****  *  This is an internal header file, included by other library headers.
  53:c:\gcc for renesas rx 8.3.0.202004-gnurx-elf\rx-elf\rx-elf\rx-elf\include\c++\8.3.0.202004-gnurx\bits\stl_algobase.h ****  *  Do not attempt to use it directly. @headername{algorithm}
  54:c:\gcc for renesas rx 8.3.0.202004-gnurx-elf\rx-elf\rx-elf\rx-elf\include\c++\8.3.0.202004-gnurx\bits\stl_algobase.h ****  */
  55:c:\gcc for renesas rx 8.3.0.202004-gnurx-elf\rx-elf\rx-elf\rx-elf\include\c++\8.3.0.202004-gnurx\bits\stl_algobase.h **** 
  56:c:\gcc for renesas rx 8.3.0.202004-gnurx-elf\rx-elf\rx-elf\rx-elf\include\c++\8.3.0.202004-gnurx\bits\stl_algobase.h **** #ifndef _STL_ALGOBASE_H
  57:c:\gcc for renesas rx 8.3.0.202004-gnurx-elf\rx-elf\rx-elf\rx-elf\include\c++\8.3.0.202004-gnurx\bits\stl_algobase.h **** #define _STL_ALGOBASE_H 1
  58:c:\gcc for renesas rx 8.3.0.202004-gnurx-elf\rx-elf\rx-elf\rx-elf\include\c++\8.3.0.202004-gnurx\bits\stl_algobase.h **** 
  59:c:\gcc for renesas rx 8.3.0.202004-gnurx-elf\rx-elf\rx-elf\rx-elf\include\c++\8.3.0.202004-gnurx\bits\stl_algobase.h **** #include <bits/c++config.h>
  60:c:\gcc for renesas rx 8.3.0.202004-gnurx-elf\rx-elf\rx-elf\rx-elf\include\c++\8.3.0.202004-gnurx\bits\stl_algobase.h **** #include <bits/functexcept.h>
  61:c:\gcc for renesas rx 8.3.0.202004-gnurx-elf\rx-elf\rx-elf\rx-elf\include\c++\8.3.0.202004-gnurx\bits\stl_algobase.h **** #include <bits/cpp_type_traits.h>
  62:c:\gcc for renesas rx 8.3.0.202004-gnurx-elf\rx-elf\rx-elf\rx-elf\include\c++\8.3.0.202004-gnurx\bits\stl_algobase.h **** #include <ext/type_traits.h>
  63:c:\gcc for renesas rx 8.3.0.202004-gnurx-elf\rx-elf\rx-elf\rx-elf\include\c++\8.3.0.202004-gnurx\bits\stl_algobase.h **** #include <ext/numeric_traits.h>
  64:c:\gcc for renesas rx 8.3.0.202004-gnurx-elf\rx-elf\rx-elf\rx-elf\include\c++\8.3.0.202004-gnurx\bits\stl_algobase.h **** #include <bits/stl_pair.h>
  65:c:\gcc for renesas rx 8.3.0.202004-gnurx-elf\rx-elf\rx-elf\rx-elf\include\c++\8.3.0.202004-gnurx\bits\stl_algobase.h **** #include <bits/stl_iterator_base_types.h>
  66:c:\gcc for renesas rx 8.3.0.202004-gnurx-elf\rx-elf\rx-elf\rx-elf\include\c++\8.3.0.202004-gnurx\bits\stl_algobase.h **** #include <bits/stl_iterator_base_funcs.h>
  67:c:\gcc for renesas rx 8.3.0.202004-gnurx-elf\rx-elf\rx-elf\rx-elf\include\c++\8.3.0.202004-gnurx\bits\stl_algobase.h **** #include <bits/stl_iterator.h>
  68:c:\gcc for renesas rx 8.3.0.202004-gnurx-elf\rx-elf\rx-elf\rx-elf\include\c++\8.3.0.202004-gnurx\bits\stl_algobase.h **** #include <bits/concept_check.h>
  69:c:\gcc for renesas rx 8.3.0.202004-gnurx-elf\rx-elf\rx-elf\rx-elf\include\c++\8.3.0.202004-gnurx\bits\stl_algobase.h **** #include <debug/debug.h>
  70:c:\gcc for renesas rx 8.3.0.202004-gnurx-elf\rx-elf\rx-elf\rx-elf\include\c++\8.3.0.202004-gnurx\bits\stl_algobase.h **** #include <bits/move.h> // For std::swap
  71:c:\gcc for renesas rx 8.3.0.202004-gnurx-elf\rx-elf\rx-elf\rx-elf\include\c++\8.3.0.202004-gnurx\bits\stl_algobase.h **** #include <bits/predefined_ops.h>
  72:c:\gcc for renesas rx 8.3.0.202004-gnurx-elf\rx-elf\rx-elf\rx-elf\include\c++\8.3.0.202004-gnurx\bits\stl_algobase.h **** 
  73:c:\gcc for renesas rx 8.3.0.202004-gnurx-elf\rx-elf\rx-elf\rx-elf\include\c++\8.3.0.202004-gnurx\bits\stl_algobase.h **** namespace std _GLIBCXX_VISIBILITY(default)
  74:c:\gcc for renesas rx 8.3.0.202004-gnurx-elf\rx-elf\rx-elf\rx-elf\include\c++\8.3.0.202004-gnurx\bits\stl_algobase.h **** {
  75:c:\gcc for renesas rx 8.3.0.202004-gnurx-elf\rx-elf\rx-elf\rx-elf\include\c++\8.3.0.202004-gnurx\bits\stl_algobase.h **** _GLIBCXX_BEGIN_NAMESPACE_VERSION
  76:c:\gcc for renesas rx 8.3.0.202004-gnurx-elf\rx-elf\rx-elf\rx-elf\include\c++\8.3.0.202004-gnurx\bits\stl_algobase.h **** 
  77:c:\gcc for renesas rx 8.3.0.202004-gnurx-elf\rx-elf\rx-elf\rx-elf\include\c++\8.3.0.202004-gnurx\bits\stl_algobase.h **** #if __cplusplus < 201103L
  78:c:\gcc for renesas rx 8.3.0.202004-gnurx-elf\rx-elf\rx-elf\rx-elf\include\c++\8.3.0.202004-gnurx\bits\stl_algobase.h ****   // See http://gcc.gnu.org/ml/libstdc++/2004-08/msg00167.html: in a
  79:c:\gcc for renesas rx 8.3.0.202004-gnurx-elf\rx-elf\rx-elf\rx-elf\include\c++\8.3.0.202004-gnurx\bits\stl_algobase.h ****   // nutshell, we are partially implementing the resolution of DR 187,
  80:c:\gcc for renesas rx 8.3.0.202004-gnurx-elf\rx-elf\rx-elf\rx-elf\include\c++\8.3.0.202004-gnurx\bits\stl_algobase.h ****   // when it's safe, i.e., the value_types are equal.
  81:c:\gcc for renesas rx 8.3.0.202004-gnurx-elf\rx-elf\rx-elf\rx-elf\include\c++\8.3.0.202004-gnurx\bits\stl_algobase.h ****   template<bool _BoolType>
  82:c:\gcc for renesas rx 8.3.0.202004-gnurx-elf\rx-elf\rx-elf\rx-elf\include\c++\8.3.0.202004-gnurx\bits\stl_algobase.h ****     struct __iter_swap
  83:c:\gcc for renesas rx 8.3.0.202004-gnurx-elf\rx-elf\rx-elf\rx-elf\include\c++\8.3.0.202004-gnurx\bits\stl_algobase.h ****     {
  84:c:\gcc for renesas rx 8.3.0.202004-gnurx-elf\rx-elf\rx-elf\rx-elf\include\c++\8.3.0.202004-gnurx\bits\stl_algobase.h ****       template<typename _ForwardIterator1, typename _ForwardIterator2>
  85:c:\gcc for renesas rx 8.3.0.202004-gnurx-elf\rx-elf\rx-elf\rx-elf\include\c++\8.3.0.202004-gnurx\bits\stl_algobase.h **** 	static void
  86:c:\gcc for renesas rx 8.3.0.202004-gnurx-elf\rx-elf\rx-elf\rx-elf\include\c++\8.3.0.202004-gnurx\bits\stl_algobase.h **** 	iter_swap(_ForwardIterator1 __a, _ForwardIterator2 __b)
  87:c:\gcc for renesas rx 8.3.0.202004-gnurx-elf\rx-elf\rx-elf\rx-elf\include\c++\8.3.0.202004-gnurx\bits\stl_algobase.h **** 	{
  88:c:\gcc for renesas rx 8.3.0.202004-gnurx-elf\rx-elf\rx-elf\rx-elf\include\c++\8.3.0.202004-gnurx\bits\stl_algobase.h **** 	  typedef typename iterator_traits<_ForwardIterator1>::value_type
  89:c:\gcc for renesas rx 8.3.0.202004-gnurx-elf\rx-elf\rx-elf\rx-elf\include\c++\8.3.0.202004-gnurx\bits\stl_algobase.h **** 	    _ValueType1;
  90:c:\gcc for renesas rx 8.3.0.202004-gnurx-elf\rx-elf\rx-elf\rx-elf\include\c++\8.3.0.202004-gnurx\bits\stl_algobase.h **** 	  _ValueType1 __tmp = *__a;
  91:c:\gcc for renesas rx 8.3.0.202004-gnurx-elf\rx-elf\rx-elf\rx-elf\include\c++\8.3.0.202004-gnurx\bits\stl_algobase.h **** 	  *__a = *__b;
  92:c:\gcc for renesas rx 8.3.0.202004-gnurx-elf\rx-elf\rx-elf\rx-elf\include\c++\8.3.0.202004-gnurx\bits\stl_algobase.h **** 	  *__b = __tmp;
  93:c:\gcc for renesas rx 8.3.0.202004-gnurx-elf\rx-elf\rx-elf\rx-elf\include\c++\8.3.0.202004-gnurx\bits\stl_algobase.h **** 	}
  94:c:\gcc for renesas rx 8.3.0.202004-gnurx-elf\rx-elf\rx-elf\rx-elf\include\c++\8.3.0.202004-gnurx\bits\stl_algobase.h ****     };
  95:c:\gcc for renesas rx 8.3.0.202004-gnurx-elf\rx-elf\rx-elf\rx-elf\include\c++\8.3.0.202004-gnurx\bits\stl_algobase.h **** 
  96:c:\gcc for renesas rx 8.3.0.202004-gnurx-elf\rx-elf\rx-elf\rx-elf\include\c++\8.3.0.202004-gnurx\bits\stl_algobase.h ****   template<>
  97:c:\gcc for renesas rx 8.3.0.202004-gnurx-elf\rx-elf\rx-elf\rx-elf\include\c++\8.3.0.202004-gnurx\bits\stl_algobase.h ****     struct __iter_swap<true>
  98:c:\gcc for renesas rx 8.3.0.202004-gnurx-elf\rx-elf\rx-elf\rx-elf\include\c++\8.3.0.202004-gnurx\bits\stl_algobase.h ****     {
  99:c:\gcc for renesas rx 8.3.0.202004-gnurx-elf\rx-elf\rx-elf\rx-elf\include\c++\8.3.0.202004-gnurx\bits\stl_algobase.h ****       template<typename _ForwardIterator1, typename _ForwardIterator2>
 100:c:\gcc for renesas rx 8.3.0.202004-gnurx-elf\rx-elf\rx-elf\rx-elf\include\c++\8.3.0.202004-gnurx\bits\stl_algobase.h **** 	static void
 101:c:\gcc for renesas rx 8.3.0.202004-gnurx-elf\rx-elf\rx-elf\rx-elf\include\c++\8.3.0.202004-gnurx\bits\stl_algobase.h **** 	iter_swap(_ForwardIterator1 __a, _ForwardIterator2 __b)
 102:c:\gcc for renesas rx 8.3.0.202004-gnurx-elf\rx-elf\rx-elf\rx-elf\include\c++\8.3.0.202004-gnurx\bits\stl_algobase.h **** 	{
 103:c:\gcc for renesas rx 8.3.0.202004-gnurx-elf\rx-elf\rx-elf\rx-elf\include\c++\8.3.0.202004-gnurx\bits\stl_algobase.h **** 	  swap(*__a, *__b);
 104:c:\gcc for renesas rx 8.3.0.202004-gnurx-elf\rx-elf\rx-elf\rx-elf\include\c++\8.3.0.202004-gnurx\bits\stl_algobase.h **** 	}
 105:c:\gcc for renesas rx 8.3.0.202004-gnurx-elf\rx-elf\rx-elf\rx-elf\include\c++\8.3.0.202004-gnurx\bits\stl_algobase.h ****     };
 106:c:\gcc for renesas rx 8.3.0.202004-gnurx-elf\rx-elf\rx-elf\rx-elf\include\c++\8.3.0.202004-gnurx\bits\stl_algobase.h **** #endif
 107:c:\gcc for renesas rx 8.3.0.202004-gnurx-elf\rx-elf\rx-elf\rx-elf\include\c++\8.3.0.202004-gnurx\bits\stl_algobase.h **** 
 108:c:\gcc for renesas rx 8.3.0.202004-gnurx-elf\rx-elf\rx-elf\rx-elf\include\c++\8.3.0.202004-gnurx\bits\stl_algobase.h ****   /**
 109:c:\gcc for renesas rx 8.3.0.202004-gnurx-elf\rx-elf\rx-elf\rx-elf\include\c++\8.3.0.202004-gnurx\bits\stl_algobase.h ****    *  @brief Swaps the contents of two iterators.
 110:c:\gcc for renesas rx 8.3.0.202004-gnurx-elf\rx-elf\rx-elf\rx-elf\include\c++\8.3.0.202004-gnurx\bits\stl_algobase.h ****    *  @ingroup mutating_algorithms
 111:c:\gcc for renesas rx 8.3.0.202004-gnurx-elf\rx-elf\rx-elf\rx-elf\include\c++\8.3.0.202004-gnurx\bits\stl_algobase.h ****    *  @param  __a  An iterator.
 112:c:\gcc for renesas rx 8.3.0.202004-gnurx-elf\rx-elf\rx-elf\rx-elf\include\c++\8.3.0.202004-gnurx\bits\stl_algobase.h ****    *  @param  __b  Another iterator.
 113:c:\gcc for renesas rx 8.3.0.202004-gnurx-elf\rx-elf\rx-elf\rx-elf\include\c++\8.3.0.202004-gnurx\bits\stl_algobase.h ****    *  @return   Nothing.
 114:c:\gcc for renesas rx 8.3.0.202004-gnurx-elf\rx-elf\rx-elf\rx-elf\include\c++\8.3.0.202004-gnurx\bits\stl_algobase.h ****    *
 115:c:\gcc for renesas rx 8.3.0.202004-gnurx-elf\rx-elf\rx-elf\rx-elf\include\c++\8.3.0.202004-gnurx\bits\stl_algobase.h ****    *  This function swaps the values pointed to by two iterators, not the
 116:c:\gcc for renesas rx 8.3.0.202004-gnurx-elf\rx-elf\rx-elf\rx-elf\include\c++\8.3.0.202004-gnurx\bits\stl_algobase.h ****    *  iterators themselves.
 117:c:\gcc for renesas rx 8.3.0.202004-gnurx-elf\rx-elf\rx-elf\rx-elf\include\c++\8.3.0.202004-gnurx\bits\stl_algobase.h ****   */
 118:c:\gcc for renesas rx 8.3.0.202004-gnurx-elf\rx-elf\rx-elf\rx-elf\include\c++\8.3.0.202004-gnurx\bits\stl_algobase.h ****   template<typename _ForwardIterator1, typename _ForwardIterator2>
 119:c:\gcc for renesas rx 8.3.0.202004-gnurx-elf\rx-elf\rx-elf\rx-elf\include\c++\8.3.0.202004-gnurx\bits\stl_algobase.h ****     inline void
 120:c:\gcc for renesas rx 8.3.0.202004-gnurx-elf\rx-elf\rx-elf\rx-elf\include\c++\8.3.0.202004-gnurx\bits\stl_algobase.h ****     iter_swap(_ForwardIterator1 __a, _ForwardIterator2 __b)
 121:c:\gcc for renesas rx 8.3.0.202004-gnurx-elf\rx-elf\rx-elf\rx-elf\include\c++\8.3.0.202004-gnurx\bits\stl_algobase.h ****     {
 122:c:\gcc for renesas rx 8.3.0.202004-gnurx-elf\rx-elf\rx-elf\rx-elf\include\c++\8.3.0.202004-gnurx\bits\stl_algobase.h ****       // concept requirements
 123:c:\gcc for renesas rx 8.3.0.202004-gnurx-elf\rx-elf\rx-elf\rx-elf\include\c++\8.3.0.202004-gnurx\bits\stl_algobase.h ****       __glibcxx_function_requires(_Mutable_ForwardIteratorConcept<
 124:c:\gcc for renesas rx 8.3.0.202004-gnurx-elf\rx-elf\rx-elf\rx-elf\include\c++\8.3.0.202004-gnurx\bits\stl_algobase.h **** 				  _ForwardIterator1>)
 125:c:\gcc for renesas rx 8.3.0.202004-gnurx-elf\rx-elf\rx-elf\rx-elf\include\c++\8.3.0.202004-gnurx\bits\stl_algobase.h ****       __glibcxx_function_requires(_Mutable_ForwardIteratorConcept<
 126:c:\gcc for renesas rx 8.3.0.202004-gnurx-elf\rx-elf\rx-elf\rx-elf\include\c++\8.3.0.202004-gnurx\bits\stl_algobase.h **** 				  _ForwardIterator2>)
 127:c:\gcc for renesas rx 8.3.0.202004-gnurx-elf\rx-elf\rx-elf\rx-elf\include\c++\8.3.0.202004-gnurx\bits\stl_algobase.h **** 
 128:c:\gcc for renesas rx 8.3.0.202004-gnurx-elf\rx-elf\rx-elf\rx-elf\include\c++\8.3.0.202004-gnurx\bits\stl_algobase.h **** #if __cplusplus < 201103L
 129:c:\gcc for renesas rx 8.3.0.202004-gnurx-elf\rx-elf\rx-elf\rx-elf\include\c++\8.3.0.202004-gnurx\bits\stl_algobase.h ****       typedef typename iterator_traits<_ForwardIterator1>::value_type
 130:c:\gcc for renesas rx 8.3.0.202004-gnurx-elf\rx-elf\rx-elf\rx-elf\include\c++\8.3.0.202004-gnurx\bits\stl_algobase.h **** 	_ValueType1;
 131:c:\gcc for renesas rx 8.3.0.202004-gnurx-elf\rx-elf\rx-elf\rx-elf\include\c++\8.3.0.202004-gnurx\bits\stl_algobase.h ****       typedef typename iterator_traits<_ForwardIterator2>::value_type
 132:c:\gcc for renesas rx 8.3.0.202004-gnurx-elf\rx-elf\rx-elf\rx-elf\include\c++\8.3.0.202004-gnurx\bits\stl_algobase.h **** 	_ValueType2;
 133:c:\gcc for renesas rx 8.3.0.202004-gnurx-elf\rx-elf\rx-elf\rx-elf\include\c++\8.3.0.202004-gnurx\bits\stl_algobase.h **** 
 134:c:\gcc for renesas rx 8.3.0.202004-gnurx-elf\rx-elf\rx-elf\rx-elf\include\c++\8.3.0.202004-gnurx\bits\stl_algobase.h ****       __glibcxx_function_requires(_ConvertibleConcept<_ValueType1,
 135:c:\gcc for renesas rx 8.3.0.202004-gnurx-elf\rx-elf\rx-elf\rx-elf\include\c++\8.3.0.202004-gnurx\bits\stl_algobase.h **** 				  _ValueType2>)
 136:c:\gcc for renesas rx 8.3.0.202004-gnurx-elf\rx-elf\rx-elf\rx-elf\include\c++\8.3.0.202004-gnurx\bits\stl_algobase.h ****       __glibcxx_function_requires(_ConvertibleConcept<_ValueType2,
 137:c:\gcc for renesas rx 8.3.0.202004-gnurx-elf\rx-elf\rx-elf\rx-elf\include\c++\8.3.0.202004-gnurx\bits\stl_algobase.h **** 				  _ValueType1>)
 138:c:\gcc for renesas rx 8.3.0.202004-gnurx-elf\rx-elf\rx-elf\rx-elf\include\c++\8.3.0.202004-gnurx\bits\stl_algobase.h **** 
 139:c:\gcc for renesas rx 8.3.0.202004-gnurx-elf\rx-elf\rx-elf\rx-elf\include\c++\8.3.0.202004-gnurx\bits\stl_algobase.h ****       typedef typename iterator_traits<_ForwardIterator1>::reference
 140:c:\gcc for renesas rx 8.3.0.202004-gnurx-elf\rx-elf\rx-elf\rx-elf\include\c++\8.3.0.202004-gnurx\bits\stl_algobase.h **** 	_ReferenceType1;
 141:c:\gcc for renesas rx 8.3.0.202004-gnurx-elf\rx-elf\rx-elf\rx-elf\include\c++\8.3.0.202004-gnurx\bits\stl_algobase.h ****       typedef typename iterator_traits<_ForwardIterator2>::reference
 142:c:\gcc for renesas rx 8.3.0.202004-gnurx-elf\rx-elf\rx-elf\rx-elf\include\c++\8.3.0.202004-gnurx\bits\stl_algobase.h **** 	_ReferenceType2;
 143:c:\gcc for renesas rx 8.3.0.202004-gnurx-elf\rx-elf\rx-elf\rx-elf\include\c++\8.3.0.202004-gnurx\bits\stl_algobase.h ****       std::__iter_swap<__are_same<_ValueType1, _ValueType2>::__value
 144:c:\gcc for renesas rx 8.3.0.202004-gnurx-elf\rx-elf\rx-elf\rx-elf\include\c++\8.3.0.202004-gnurx\bits\stl_algobase.h **** 	&& __are_same<_ValueType1&, _ReferenceType1>::__value
 145:c:\gcc for renesas rx 8.3.0.202004-gnurx-elf\rx-elf\rx-elf\rx-elf\include\c++\8.3.0.202004-gnurx\bits\stl_algobase.h **** 	&& __are_same<_ValueType2&, _ReferenceType2>::__value>::
 146:c:\gcc for renesas rx 8.3.0.202004-gnurx-elf\rx-elf\rx-elf\rx-elf\include\c++\8.3.0.202004-gnurx\bits\stl_algobase.h **** 	iter_swap(__a, __b);
 147:c:\gcc for renesas rx 8.3.0.202004-gnurx-elf\rx-elf\rx-elf\rx-elf\include\c++\8.3.0.202004-gnurx\bits\stl_algobase.h **** #else
 148:c:\gcc for renesas rx 8.3.0.202004-gnurx-elf\rx-elf\rx-elf\rx-elf\include\c++\8.3.0.202004-gnurx\bits\stl_algobase.h ****       swap(*__a, *__b);
 149:c:\gcc for renesas rx 8.3.0.202004-gnurx-elf\rx-elf\rx-elf\rx-elf\include\c++\8.3.0.202004-gnurx\bits\stl_algobase.h **** #endif
 150:c:\gcc for renesas rx 8.3.0.202004-gnurx-elf\rx-elf\rx-elf\rx-elf\include\c++\8.3.0.202004-gnurx\bits\stl_algobase.h ****     }
 151:c:\gcc for renesas rx 8.3.0.202004-gnurx-elf\rx-elf\rx-elf\rx-elf\include\c++\8.3.0.202004-gnurx\bits\stl_algobase.h **** 
 152:c:\gcc for renesas rx 8.3.0.202004-gnurx-elf\rx-elf\rx-elf\rx-elf\include\c++\8.3.0.202004-gnurx\bits\stl_algobase.h ****   /**
 153:c:\gcc for renesas rx 8.3.0.202004-gnurx-elf\rx-elf\rx-elf\rx-elf\include\c++\8.3.0.202004-gnurx\bits\stl_algobase.h ****    *  @brief Swap the elements of two sequences.
 154:c:\gcc for renesas rx 8.3.0.202004-gnurx-elf\rx-elf\rx-elf\rx-elf\include\c++\8.3.0.202004-gnurx\bits\stl_algobase.h ****    *  @ingroup mutating_algorithms
 155:c:\gcc for renesas rx 8.3.0.202004-gnurx-elf\rx-elf\rx-elf\rx-elf\include\c++\8.3.0.202004-gnurx\bits\stl_algobase.h ****    *  @param  __first1  A forward iterator.
 156:c:\gcc for renesas rx 8.3.0.202004-gnurx-elf\rx-elf\rx-elf\rx-elf\include\c++\8.3.0.202004-gnurx\bits\stl_algobase.h ****    *  @param  __last1   A forward iterator.
 157:c:\gcc for renesas rx 8.3.0.202004-gnurx-elf\rx-elf\rx-elf\rx-elf\include\c++\8.3.0.202004-gnurx\bits\stl_algobase.h ****    *  @param  __first2  A forward iterator.
 158:c:\gcc for renesas rx 8.3.0.202004-gnurx-elf\rx-elf\rx-elf\rx-elf\include\c++\8.3.0.202004-gnurx\bits\stl_algobase.h ****    *  @return   An iterator equal to @p first2+(last1-first1).
 159:c:\gcc for renesas rx 8.3.0.202004-gnurx-elf\rx-elf\rx-elf\rx-elf\include\c++\8.3.0.202004-gnurx\bits\stl_algobase.h ****    *
 160:c:\gcc for renesas rx 8.3.0.202004-gnurx-elf\rx-elf\rx-elf\rx-elf\include\c++\8.3.0.202004-gnurx\bits\stl_algobase.h ****    *  Swaps each element in the range @p [first1,last1) with the
 161:c:\gcc for renesas rx 8.3.0.202004-gnurx-elf\rx-elf\rx-elf\rx-elf\include\c++\8.3.0.202004-gnurx\bits\stl_algobase.h ****    *  corresponding element in the range @p [first2,(last1-first1)).
 162:c:\gcc for renesas rx 8.3.0.202004-gnurx-elf\rx-elf\rx-elf\rx-elf\include\c++\8.3.0.202004-gnurx\bits\stl_algobase.h ****    *  The ranges must not overlap.
 163:c:\gcc for renesas rx 8.3.0.202004-gnurx-elf\rx-elf\rx-elf\rx-elf\include\c++\8.3.0.202004-gnurx\bits\stl_algobase.h ****   */
 164:c:\gcc for renesas rx 8.3.0.202004-gnurx-elf\rx-elf\rx-elf\rx-elf\include\c++\8.3.0.202004-gnurx\bits\stl_algobase.h ****   template<typename _ForwardIterator1, typename _ForwardIterator2>
 165:c:\gcc for renesas rx 8.3.0.202004-gnurx-elf\rx-elf\rx-elf\rx-elf\include\c++\8.3.0.202004-gnurx\bits\stl_algobase.h ****     _ForwardIterator2
 166:c:\gcc for renesas rx 8.3.0.202004-gnurx-elf\rx-elf\rx-elf\rx-elf\include\c++\8.3.0.202004-gnurx\bits\stl_algobase.h ****     swap_ranges(_ForwardIterator1 __first1, _ForwardIterator1 __last1,
 167:c:\gcc for renesas rx 8.3.0.202004-gnurx-elf\rx-elf\rx-elf\rx-elf\include\c++\8.3.0.202004-gnurx\bits\stl_algobase.h **** 		_ForwardIterator2 __first2)
 168:c:\gcc for renesas rx 8.3.0.202004-gnurx-elf\rx-elf\rx-elf\rx-elf\include\c++\8.3.0.202004-gnurx\bits\stl_algobase.h ****     {
 169:c:\gcc for renesas rx 8.3.0.202004-gnurx-elf\rx-elf\rx-elf\rx-elf\include\c++\8.3.0.202004-gnurx\bits\stl_algobase.h ****       // concept requirements
 170:c:\gcc for renesas rx 8.3.0.202004-gnurx-elf\rx-elf\rx-elf\rx-elf\include\c++\8.3.0.202004-gnurx\bits\stl_algobase.h ****       __glibcxx_function_requires(_Mutable_ForwardIteratorConcept<
 171:c:\gcc for renesas rx 8.3.0.202004-gnurx-elf\rx-elf\rx-elf\rx-elf\include\c++\8.3.0.202004-gnurx\bits\stl_algobase.h **** 				  _ForwardIterator1>)
 172:c:\gcc for renesas rx 8.3.0.202004-gnurx-elf\rx-elf\rx-elf\rx-elf\include\c++\8.3.0.202004-gnurx\bits\stl_algobase.h ****       __glibcxx_function_requires(_Mutable_ForwardIteratorConcept<
 173:c:\gcc for renesas rx 8.3.0.202004-gnurx-elf\rx-elf\rx-elf\rx-elf\include\c++\8.3.0.202004-gnurx\bits\stl_algobase.h **** 				  _ForwardIterator2>)
 174:c:\gcc for renesas rx 8.3.0.202004-gnurx-elf\rx-elf\rx-elf\rx-elf\include\c++\8.3.0.202004-gnurx\bits\stl_algobase.h ****       __glibcxx_requires_valid_range(__first1, __last1);
 175:c:\gcc for renesas rx 8.3.0.202004-gnurx-elf\rx-elf\rx-elf\rx-elf\include\c++\8.3.0.202004-gnurx\bits\stl_algobase.h **** 
 176:c:\gcc for renesas rx 8.3.0.202004-gnurx-elf\rx-elf\rx-elf\rx-elf\include\c++\8.3.0.202004-gnurx\bits\stl_algobase.h ****       for (; __first1 != __last1; ++__first1, (void)++__first2)
 177:c:\gcc for renesas rx 8.3.0.202004-gnurx-elf\rx-elf\rx-elf\rx-elf\include\c++\8.3.0.202004-gnurx\bits\stl_algobase.h **** 	std::iter_swap(__first1, __first2);
 178:c:\gcc for renesas rx 8.3.0.202004-gnurx-elf\rx-elf\rx-elf\rx-elf\include\c++\8.3.0.202004-gnurx\bits\stl_algobase.h ****       return __first2;
 179:c:\gcc for renesas rx 8.3.0.202004-gnurx-elf\rx-elf\rx-elf\rx-elf\include\c++\8.3.0.202004-gnurx\bits\stl_algobase.h ****     }
 180:c:\gcc for renesas rx 8.3.0.202004-gnurx-elf\rx-elf\rx-elf\rx-elf\include\c++\8.3.0.202004-gnurx\bits\stl_algobase.h **** 
 181:c:\gcc for renesas rx 8.3.0.202004-gnurx-elf\rx-elf\rx-elf\rx-elf\include\c++\8.3.0.202004-gnurx\bits\stl_algobase.h ****   /**
 182:c:\gcc for renesas rx 8.3.0.202004-gnurx-elf\rx-elf\rx-elf\rx-elf\include\c++\8.3.0.202004-gnurx\bits\stl_algobase.h ****    *  @brief This does what you think it does.
 183:c:\gcc for renesas rx 8.3.0.202004-gnurx-elf\rx-elf\rx-elf\rx-elf\include\c++\8.3.0.202004-gnurx\bits\stl_algobase.h ****    *  @ingroup sorting_algorithms
 184:c:\gcc for renesas rx 8.3.0.202004-gnurx-elf\rx-elf\rx-elf\rx-elf\include\c++\8.3.0.202004-gnurx\bits\stl_algobase.h ****    *  @param  __a  A thing of arbitrary type.
 185:c:\gcc for renesas rx 8.3.0.202004-gnurx-elf\rx-elf\rx-elf\rx-elf\include\c++\8.3.0.202004-gnurx\bits\stl_algobase.h ****    *  @param  __b  Another thing of arbitrary type.
 186:c:\gcc for renesas rx 8.3.0.202004-gnurx-elf\rx-elf\rx-elf\rx-elf\include\c++\8.3.0.202004-gnurx\bits\stl_algobase.h ****    *  @return   The lesser of the parameters.
 187:c:\gcc for renesas rx 8.3.0.202004-gnurx-elf\rx-elf\rx-elf\rx-elf\include\c++\8.3.0.202004-gnurx\bits\stl_algobase.h ****    *
 188:c:\gcc for renesas rx 8.3.0.202004-gnurx-elf\rx-elf\rx-elf\rx-elf\include\c++\8.3.0.202004-gnurx\bits\stl_algobase.h ****    *  This is the simple classic generic implementation.  It will work on
 189:c:\gcc for renesas rx 8.3.0.202004-gnurx-elf\rx-elf\rx-elf\rx-elf\include\c++\8.3.0.202004-gnurx\bits\stl_algobase.h ****    *  temporary expressions, since they are only evaluated once, unlike a
 190:c:\gcc for renesas rx 8.3.0.202004-gnurx-elf\rx-elf\rx-elf\rx-elf\include\c++\8.3.0.202004-gnurx\bits\stl_algobase.h ****    *  preprocessor macro.
 191:c:\gcc for renesas rx 8.3.0.202004-gnurx-elf\rx-elf\rx-elf\rx-elf\include\c++\8.3.0.202004-gnurx\bits\stl_algobase.h ****   */
 192:c:\gcc for renesas rx 8.3.0.202004-gnurx-elf\rx-elf\rx-elf\rx-elf\include\c++\8.3.0.202004-gnurx\bits\stl_algobase.h ****   template<typename _Tp>
 193:c:\gcc for renesas rx 8.3.0.202004-gnurx-elf\rx-elf\rx-elf\rx-elf\include\c++\8.3.0.202004-gnurx\bits\stl_algobase.h ****     _GLIBCXX14_CONSTEXPR
 194:c:\gcc for renesas rx 8.3.0.202004-gnurx-elf\rx-elf\rx-elf\rx-elf\include\c++\8.3.0.202004-gnurx\bits\stl_algobase.h ****     inline const _Tp&
 195:c:\gcc for renesas rx 8.3.0.202004-gnurx-elf\rx-elf\rx-elf\rx-elf\include\c++\8.3.0.202004-gnurx\bits\stl_algobase.h ****     min(const _Tp& __a, const _Tp& __b)
 196:c:\gcc for renesas rx 8.3.0.202004-gnurx-elf\rx-elf\rx-elf\rx-elf\include\c++\8.3.0.202004-gnurx\bits\stl_algobase.h ****     {
 197:c:\gcc for renesas rx 8.3.0.202004-gnurx-elf\rx-elf\rx-elf\rx-elf\include\c++\8.3.0.202004-gnurx\bits\stl_algobase.h ****       // concept requirements
 198:c:\gcc for renesas rx 8.3.0.202004-gnurx-elf\rx-elf\rx-elf\rx-elf\include\c++\8.3.0.202004-gnurx\bits\stl_algobase.h ****       __glibcxx_function_requires(_LessThanComparableConcept<_Tp>)
 199:c:\gcc for renesas rx 8.3.0.202004-gnurx-elf\rx-elf\rx-elf\rx-elf\include\c++\8.3.0.202004-gnurx\bits\stl_algobase.h ****       //return __b < __a ? __b : __a;
 200:c:\gcc for renesas rx 8.3.0.202004-gnurx-elf\rx-elf\rx-elf\rx-elf\include\c++\8.3.0.202004-gnurx\bits\stl_algobase.h ****       if (__b < __a)
 201:c:\gcc for renesas rx 8.3.0.202004-gnurx-elf\rx-elf\rx-elf\rx-elf\include\c++\8.3.0.202004-gnurx\bits\stl_algobase.h **** 	return __b;
 202:c:\gcc for renesas rx 8.3.0.202004-gnurx-elf\rx-elf\rx-elf\rx-elf\include\c++\8.3.0.202004-gnurx\bits\stl_algobase.h ****       return __a;
 203:c:\gcc for renesas rx 8.3.0.202004-gnurx-elf\rx-elf\rx-elf\rx-elf\include\c++\8.3.0.202004-gnurx\bits\stl_algobase.h ****     }
 204:c:\gcc for renesas rx 8.3.0.202004-gnurx-elf\rx-elf\rx-elf\rx-elf\include\c++\8.3.0.202004-gnurx\bits\stl_algobase.h **** 
 205:c:\gcc for renesas rx 8.3.0.202004-gnurx-elf\rx-elf\rx-elf\rx-elf\include\c++\8.3.0.202004-gnurx\bits\stl_algobase.h ****   /**
 206:c:\gcc for renesas rx 8.3.0.202004-gnurx-elf\rx-elf\rx-elf\rx-elf\include\c++\8.3.0.202004-gnurx\bits\stl_algobase.h ****    *  @brief This does what you think it does.
 207:c:\gcc for renesas rx 8.3.0.202004-gnurx-elf\rx-elf\rx-elf\rx-elf\include\c++\8.3.0.202004-gnurx\bits\stl_algobase.h ****    *  @ingroup sorting_algorithms
 208:c:\gcc for renesas rx 8.3.0.202004-gnurx-elf\rx-elf\rx-elf\rx-elf\include\c++\8.3.0.202004-gnurx\bits\stl_algobase.h ****    *  @param  __a  A thing of arbitrary type.
 209:c:\gcc for renesas rx 8.3.0.202004-gnurx-elf\rx-elf\rx-elf\rx-elf\include\c++\8.3.0.202004-gnurx\bits\stl_algobase.h ****    *  @param  __b  Another thing of arbitrary type.
 210:c:\gcc for renesas rx 8.3.0.202004-gnurx-elf\rx-elf\rx-elf\rx-elf\include\c++\8.3.0.202004-gnurx\bits\stl_algobase.h ****    *  @return   The greater of the parameters.
 211:c:\gcc for renesas rx 8.3.0.202004-gnurx-elf\rx-elf\rx-elf\rx-elf\include\c++\8.3.0.202004-gnurx\bits\stl_algobase.h ****    *
 212:c:\gcc for renesas rx 8.3.0.202004-gnurx-elf\rx-elf\rx-elf\rx-elf\include\c++\8.3.0.202004-gnurx\bits\stl_algobase.h ****    *  This is the simple classic generic implementation.  It will work on
 213:c:\gcc for renesas rx 8.3.0.202004-gnurx-elf\rx-elf\rx-elf\rx-elf\include\c++\8.3.0.202004-gnurx\bits\stl_algobase.h ****    *  temporary expressions, since they are only evaluated once, unlike a
 214:c:\gcc for renesas rx 8.3.0.202004-gnurx-elf\rx-elf\rx-elf\rx-elf\include\c++\8.3.0.202004-gnurx\bits\stl_algobase.h ****    *  preprocessor macro.
 215:c:\gcc for renesas rx 8.3.0.202004-gnurx-elf\rx-elf\rx-elf\rx-elf\include\c++\8.3.0.202004-gnurx\bits\stl_algobase.h ****   */
 216:c:\gcc for renesas rx 8.3.0.202004-gnurx-elf\rx-elf\rx-elf\rx-elf\include\c++\8.3.0.202004-gnurx\bits\stl_algobase.h ****   template<typename _Tp>
 217:c:\gcc for renesas rx 8.3.0.202004-gnurx-elf\rx-elf\rx-elf\rx-elf\include\c++\8.3.0.202004-gnurx\bits\stl_algobase.h ****     _GLIBCXX14_CONSTEXPR
 218:c:\gcc for renesas rx 8.3.0.202004-gnurx-elf\rx-elf\rx-elf\rx-elf\include\c++\8.3.0.202004-gnurx\bits\stl_algobase.h ****     inline const _Tp&
 219:c:\gcc for renesas rx 8.3.0.202004-gnurx-elf\rx-elf\rx-elf\rx-elf\include\c++\8.3.0.202004-gnurx\bits\stl_algobase.h ****     max(const _Tp& __a, const _Tp& __b)
 220:c:\gcc for renesas rx 8.3.0.202004-gnurx-elf\rx-elf\rx-elf\rx-elf\include\c++\8.3.0.202004-gnurx\bits\stl_algobase.h ****     {
 221:c:\gcc for renesas rx 8.3.0.202004-gnurx-elf\rx-elf\rx-elf\rx-elf\include\c++\8.3.0.202004-gnurx\bits\stl_algobase.h ****       // concept requirements
 222:c:\gcc for renesas rx 8.3.0.202004-gnurx-elf\rx-elf\rx-elf\rx-elf\include\c++\8.3.0.202004-gnurx\bits\stl_algobase.h ****       __glibcxx_function_requires(_LessThanComparableConcept<_Tp>)
 223:c:\gcc for renesas rx 8.3.0.202004-gnurx-elf\rx-elf\rx-elf\rx-elf\include\c++\8.3.0.202004-gnurx\bits\stl_algobase.h ****       //return  __a < __b ? __b : __a;
 224:c:\gcc for renesas rx 8.3.0.202004-gnurx-elf\rx-elf\rx-elf\rx-elf\include\c++\8.3.0.202004-gnurx\bits\stl_algobase.h ****       if (__a < __b)
 2483                             		.loc 9 224 7 is_stmt 0
 2484 03c8 ED 07 58                		mov.L	352[r0], r7
 2485                             	.LVL189:
 2486 03cb 47 7A                   		cmp	r7, r10
 2487 03cd 28 05 38 1B 01          		blt	.L134
 2488                             	.LVL190:
 2489                             	.LBE1095:
 2490                             	.LBE1094:
 118:C:\Users\a5116938\Desktop\e2_studio_workspace\EEMBC_final\RX65N_Cloud_Kit\src/tensorflow/lite/kernels/internal/reference/integer_ops\conv.h ****           acc = std::min(acc, output_activation_max);
 2491                             		.loc 6 118 11 is_stmt 1
 2492 03d2 ED 02 60                		mov.L	384[r0], r2
 2493 03d5 FC 17 2A                		min	r2, r10
 2494                             	.LVL191:
 119:C:\Users\a5116938\Desktop\e2_studio_workspace\EEMBC_final\RX65N_Cloud_Kit\src/tensorflow/lite/kernels/internal/reference/integer_ops\conv.h ****           output_data[Offset(output_shape, batch, out_y, out_x, out_channel)] =
 2495                             		.loc 6 119 11
 2496                             	.LBB1096:
 2497                             	.LBB1097:
 386:C:\Users\a5116938\Desktop\e2_studio_workspace\EEMBC_final\RX65N_Cloud_Kit\src/tensorflow/lite/kernels/internal\types.h ****   const int* dims_data = reinterpret_cast<const int*>(shape.DimsDataUpTo5D());
 2498                             		.loc 3 386 3
 2499                             	.LBE1097:
 2500                             	.LBE1096:
 2501                             	.LBE1117:
 2502                             	.LBE1132:
 2503                             	.LBE1145:
 2504                             	.LBE1158:
 2505                             	.LBE1171:
 2506                             	.LBE1183:
 2507                             	.LBE1195:
 2508                             	.LBE1215:
 2509                             	.LBE1233:
 2510                             	.LBE1259:
 2511                             	.LBE1346:
 194:C:\Users\a5116938\Desktop\e2_studio_workspace\EEMBC_final\RX65N_Cloud_Kit\src/tensorflow/lite/kernels/internal\types.h ****   inline int32_t Dims(int i) const {
 2512                             		.loc 3 194 44
 2513                             	.LBB1347:
 2514                             	.LBB1260:
 2515                             	.LBB1234:
 2516                             	.LBB1216:
 2517                             	.LBB1196:
 2518                             	.LBB1184:
 2519                             	.LBB1172:
 2520                             	.LBB1159:
 2521                             	.LBB1146:
 2522                             	.LBB1133:
 2523                             	.LBB1118:
 2524                             	.LBB1103:
 2525                             	.LBB1098:
 386:C:\Users\a5116938\Desktop\e2_studio_workspace\EEMBC_final\RX65N_Cloud_Kit\src/tensorflow/lite/kernels/internal\types.h ****   const int* dims_data = reinterpret_cast<const int*>(shape.DimsDataUpTo5D());
 2526                             		.loc 3 386 3 is_stmt 0
 2527 03d8 ED 07 23                		mov.L	140[r0], r7
 2528 03db 61 47                   		cmp	#4, r7
 2529 03dd 3B 17 01                		bne	.L59
 2530                             	.LVL192:
 2531                             		.balign 8,3,4
 2532                             	.L117:
 388:C:\Users\a5116938\Desktop\e2_studio_workspace\EEMBC_final\RX65N_Cloud_Kit\src/tensorflow/lite/kernels/internal\types.h ****   TFLITE_DCHECK(i1 >= 0 && i1 < dims_data[1]);
 2533                             		.loc 3 388 3
 2534 03e0 06 85 0F 24             		cmp	144[r0].L, r15
 2535 03e4 29 05 38 0E 01          		bge	.L59
 389:C:\Users\a5116938\Desktop\e2_studio_workspace\EEMBC_final\RX65N_Cloud_Kit\src/tensorflow/lite/kernels/internal\types.h ****   TFLITE_DCHECK(i2 >= 0 && i2 < dims_data[2]);
 2536                             		.loc 3 389 3 is_stmt 1
 2537 03e9 ED 07 25                		mov.L	148[r0], r7
 2538 03ec ED 03 5A                		mov.L	360[r0], r3
 2539                             	.LVL193:
 2540 03ef 47 73                   		cmp	r7, r3
 2541 03f1 29 05 38 01 01          		bge	.L59
 390:C:\Users\a5116938\Desktop\e2_studio_workspace\EEMBC_final\RX65N_Cloud_Kit\src/tensorflow/lite/kernels/internal\types.h ****   TFLITE_DCHECK(i3 >= 0 && i3 < dims_data[3]);
 2542                             		.loc 3 390 3
 2543 03f6 ED 04 26                		mov.L	152[r0], r4
 2544                             	.LVL194:
 2545 03f9 47 48                   		cmp	r4, r8
 2546 03fb 29 05 38 F7 00          		bge	.L59
 391:C:\Users\a5116938\Desktop\e2_studio_workspace\EEMBC_final\RX65N_Cloud_Kit\src/tensorflow/lite/kernels/internal\types.h ****   return ((i0 * dims_data[1] + i1) * dims_data[2] + i2) * dims_data[3] + i3;
 2547                             		.loc 3 391 3
 2548 0400 ED 05 27                		mov.L	156[r0], r5
 2549                             	.LVL195:
 2550 0403 47 5E                   		cmp	r5, r14
 2551 0405 29 05 38 ED 00          		bge	.L59
 392:C:\Users\a5116938\Desktop\e2_studio_workspace\EEMBC_final\RX65N_Cloud_Kit\src/tensorflow/lite/kernels/internal\types.h **** }
 2552                             		.loc 3 392 3
 2553                             	.LVL196:
 392:C:\Users\a5116938\Desktop\e2_studio_workspace\EEMBC_final\RX65N_Cloud_Kit\src/tensorflow/lite/kernels/internal\types.h **** }
 2554                             		.loc 3 392 15 is_stmt 0
 2555 040a 4F F7                   		mul	r15, r7
 2556                             	.LBE1098:
 2557                             	.LBE1103:
 2558                             		.loc 6 119 79
 2559 040c ED 03 7C                		mov.L	496[r0], r3
 2560 040f 4B E3                   		add	r14, r3
 2561                             	.LBB1104:
 2562                             	.LBB1099:
 392:C:\Users\a5116938\Desktop\e2_studio_workspace\EEMBC_final\RX65N_Cloud_Kit\src/tensorflow/lite/kernels/internal\types.h **** }
 2563                             		.loc 3 392 30
 2564 0411 06 89 07 5A             		add	360[r0], r7
 2565                             	.LBE1099:
 2566                             	.LBE1104:
 2567                             	.LBE1118:
  69:C:\Users\a5116938\Desktop\e2_studio_workspace\EEMBC_final\RX65N_Cloud_Kit\src/tensorflow/lite/kernels/internal/reference/integer_ops\conv.h ****           int32_t acc = 0;
 2568                             		.loc 6 69 9
 2569 0415 62 1E                   		add	#1, r14
 2570                             	.LVL197:
 2571                             	.LBB1119:
 2572                             	.LBB1105:
 2573                             	.LBB1100:
 392:C:\Users\a5116938\Desktop\e2_studio_workspace\EEMBC_final\RX65N_Cloud_Kit\src/tensorflow/lite/kernels/internal\types.h **** }
 2574                             		.loc 3 392 36
 2575 0417 4F 47                   		mul	r4, r7
 392:C:\Users\a5116938\Desktop\e2_studio_workspace\EEMBC_final\RX65N_Cloud_Kit\src/tensorflow/lite/kernels/internal\types.h **** }
 2576                             		.loc 3 392 51
 2577 0419 4B 87                   		add	r8, r7
 392:C:\Users\a5116938\Desktop\e2_studio_workspace\EEMBC_final\RX65N_Cloud_Kit\src/tensorflow/lite/kernels/internal\types.h **** }
 2578                             		.loc 3 392 57
 2579 041b 4F 57                   		mul	r5, r7
 2580                             	.LBE1100:
 2581                             	.LBE1105:
 2582                             		.loc 6 119 79
 2583 041d FE 07 3A                		mov.B	r10, [r7,r3]
 2584                             	.LVL198:
 2585                             	.LBE1119:
  69:C:\Users\a5116938\Desktop\e2_studio_workspace\EEMBC_final\RX65N_Cloud_Kit\src/tensorflow/lite/kernels/internal/reference/integer_ops\conv.h ****           int32_t acc = 0;
 2586                             		.loc 6 69 47
 2587 0420 ED 04 64                		mov.L	400[r0], r4
 2588 0423 47 4E                   		cmp	r4, r14
 2589 0425 3B 73 FD                		bne	.L85
 2590 0428 EF 8D                   		mov.L	r8, r13
 2591                             	.LVL199:
 2592                             		.balign 8,3,1
 2593                             	.L107:
 2594                             	.LBE1133:
 2595                             	.LBE1146:
  67:C:\Users\a5116938\Desktop\e2_studio_workspace\EEMBC_final\RX65N_Cloud_Kit\src/tensorflow/lite/kernels/internal/reference/integer_ops\conv.h ****         const int in_x_origin = (out_x * stride_width) - pad_width;
 2596                             		.loc 6 67 7
 2597 042a 62 1D                   		add	#1, r13
 2598                             	.LVL200:
 2599 042c ED 03 59                		mov.L	356[r0], r3
 2600 042f 06 89 03 80             		add	512[r0], r3
 2601 0433 E7 03 59                		mov.L	r3, 356[r0]
  67:C:\Users\a5116938\Desktop\e2_studio_workspace\EEMBC_final\RX65N_Cloud_Kit\src/tensorflow/lite/kernels/internal/reference/integer_ops\conv.h ****         const int in_x_origin = (out_x * stride_width) - pad_width;
 2602                             		.loc 6 67 33
 2603 0436 ED 04 6A                		mov.L	424[r0], r4
 2604 0439 47 4D                   		cmp	r4, r13
 2605 043b 3B 49 FD                		bne	.L87
 2606                             	.LVL201:
 2607 043e EF 00                   		.balign 8,3,2
 2608                             	.L86:
 2609                             	.LBE1159:
 2610                             	.LBE1172:
  65:C:\Users\a5116938\Desktop\e2_studio_workspace\EEMBC_final\RX65N_Cloud_Kit\src/tensorflow/lite/kernels/internal/reference/integer_ops\conv.h ****       const int in_y_origin = (out_y * stride_height) - pad_height;
 2611                             		.loc 6 65 5
 2612 0440 ED 04 5A                		mov.L	360[r0], r4
 2613 0443 62 14                   		add	#1, r4
 2614 0445 E7 04 5A                		mov.L	r4, 360[r0]
 2615                             	.LVL202:
 2616 0448 ED 05 5B                		mov.L	364[r0], r5
 2617 044b 06 89 05 81             		add	516[r0], r5
 2618 044f E7 05 5B                		mov.L	r5, 364[r0]
  65:C:\Users\a5116938\Desktop\e2_studio_workspace\EEMBC_final\RX65N_Cloud_Kit\src/tensorflow/lite/kernels/internal/reference/integer_ops\conv.h ****       const int in_y_origin = (out_y * stride_height) - pad_height;
 2619                             		.loc 6 65 31
 2620 0452 ED 06 76                		mov.L	472[r0], r6
 2621 0455 47 64                   		cmp	r6, r4
 2622 0457 3B 11 FD                		bne	.L84
 2623                             	.LVL203:
 2624                             		.balign 8,3,1
 2625                             	.L83:
 2626                             	.LBE1184:
  64:C:\Users\a5116938\Desktop\e2_studio_workspace\EEMBC_final\RX65N_Cloud_Kit\src/tensorflow/lite/kernels/internal/reference/integer_ops\conv.h ****     for (int out_y = 0; out_y < output_height; ++out_y) {
 2627                             		.loc 6 64 3
 2628 045a 62 1F                   		add	#1, r15
 2629                             	.LVL204:
  64:C:\Users\a5116938\Desktop\e2_studio_workspace\EEMBC_final\RX65N_Cloud_Kit\src/tensorflow/lite/kernels/internal/reference/integer_ops\conv.h ****     for (int out_y = 0; out_y < output_height; ++out_y) {
 2630                             		.loc 6 64 29
 2631 045c ED 07 65                		mov.L	404[r0], r7
 2632 045f 47 7F                   		cmp	r7, r15
 2633 0461 3B E3 FC                		bne	.L78
 2634                             	.LVL205:
 2635                             	.LBE1196:
 2636                             	.LBE1216:
 2637                             	.LBE1234:
 2638                             	.LBB1235:
 2639                             	.LBB1236:
 185:C:\Users\a5116938\Desktop\e2_studio_workspace\EEMBC_final\RX65N_Cloud_Kit\src/tensorflow/lite/kernels/internal\types.h **** #ifdef TF_LITE_STATIC_MEMORY
 2640                             		.loc 3 185 5 is_stmt 1
 2641 0464 ED 07 23                		mov.L	140[r0], r7
 2642 0467 61 57                   		cmp	#5, r7
 2643 0469 2B 0C                   		ble	.L79
 189:C:\Users\a5116938\Desktop\e2_studio_workspace\EEMBC_final\RX65N_Cloud_Kit\src/tensorflow/lite/kernels/internal\types.h **** #endif  // TF_LITE_STATIC_MEMORY
 2644                             		.loc 3 189 7
 189:C:\Users\a5116938\Desktop\e2_studio_workspace\EEMBC_final\RX65N_Cloud_Kit\src/tensorflow/lite/kernels/internal\types.h **** #endif  // TF_LITE_STATIC_MEMORY
 2645                             		.loc 3 189 16 is_stmt 0
 2646 046b ED 01 24                		mov.L	144[r0], r1
 189:C:\Users\a5116938\Desktop\e2_studio_workspace\EEMBC_final\RX65N_Cloud_Kit\src/tensorflow/lite/kernels/internal\types.h **** #endif  // TF_LITE_STATIC_MEMORY
 2647                             		.loc 3 189 29
 2648 046e 61 01                   		cmp	#0, r1
 2649 0470 15                      		beq	.L79
 189:C:\Users\a5116938\Desktop\e2_studio_workspace\EEMBC_final\RX65N_Cloud_Kit\src/tensorflow/lite/kernels/internal\types.h **** #endif  // TF_LITE_STATIC_MEMORY
 2650                             		.loc 3 189 16
 2651 0471 05 00 00 00             		bsr	__ZdaPv
 2652                             	.LVL206:
 2653                             		.balign 8,3,1
 2654                             	.L79:
 2655                             	.LBE1236:
 2656                             	.LBE1235:
 2657                             	.LBB1237:
 2658                             	.LBB1238:
 185:C:\Users\a5116938\Desktop\e2_studio_workspace\EEMBC_final\RX65N_Cloud_Kit\src/tensorflow/lite/kernels/internal\types.h **** #ifdef TF_LITE_STATIC_MEMORY
 2659                             		.loc 3 185 5 is_stmt 1
 2660 0475 AF 0F                   		mov.L	116[r0], r7
 2661 0477 61 57                   		cmp	#5, r7
 2662 0479 2B 0B                   		ble	.L109
 189:C:\Users\a5116938\Desktop\e2_studio_workspace\EEMBC_final\RX65N_Cloud_Kit\src/tensorflow/lite/kernels/internal\types.h **** #endif  // TF_LITE_STATIC_MEMORY
 2663                             		.loc 3 189 7
 189:C:\Users\a5116938\Desktop\e2_studio_workspace\EEMBC_final\RX65N_Cloud_Kit\src/tensorflow/lite/kernels/internal\types.h **** #endif  // TF_LITE_STATIC_MEMORY
 2664                             		.loc 3 189 16 is_stmt 0
 2665 047b AF 81                   		mov.L	120[r0], r1
 189:C:\Users\a5116938\Desktop\e2_studio_workspace\EEMBC_final\RX65N_Cloud_Kit\src/tensorflow/lite/kernels/internal\types.h **** #endif  // TF_LITE_STATIC_MEMORY
 2666                             		.loc 3 189 29
 2667 047d 61 01                   		cmp	#0, r1
 2668 047f 15                      		beq	.L109
 189:C:\Users\a5116938\Desktop\e2_studio_workspace\EEMBC_final\RX65N_Cloud_Kit\src/tensorflow/lite/kernels/internal\types.h **** #endif  // TF_LITE_STATIC_MEMORY
 2669                             		.loc 3 189 16
 2670 0480 05 00 00 00             		bsr	__ZdaPv
 2671                             	.LVL207:
 2672                             		.balign 8,3,1
 2673                             	.L109:
 2674                             	.LBE1238:
 2675                             	.LBE1237:
 2676                             	.LBB1239:
 2677                             	.LBB1240:
 185:C:\Users\a5116938\Desktop\e2_studio_workspace\EEMBC_final\RX65N_Cloud_Kit\src/tensorflow/lite/kernels/internal\types.h **** #ifdef TF_LITE_STATIC_MEMORY
 2678                             		.loc 3 185 5 is_stmt 1
 2679 0484 AD 8F                   		mov.L	92[r0], r7
 2680 0486 61 57                   		cmp	#5, r7
 2681 0488 2B 0B                   		ble	.L110
 189:C:\Users\a5116938\Desktop\e2_studio_workspace\EEMBC_final\RX65N_Cloud_Kit\src/tensorflow/lite/kernels/internal\types.h **** #endif  // TF_LITE_STATIC_MEMORY
 2682                             		.loc 3 189 7
 189:C:\Users\a5116938\Desktop\e2_studio_workspace\EEMBC_final\RX65N_Cloud_Kit\src/tensorflow/lite/kernels/internal\types.h **** #endif  // TF_LITE_STATIC_MEMORY
 2683                             		.loc 3 189 16 is_stmt 0
 2684 048a AE 01                   		mov.L	96[r0], r1
 189:C:\Users\a5116938\Desktop\e2_studio_workspace\EEMBC_final\RX65N_Cloud_Kit\src/tensorflow/lite/kernels/internal\types.h **** #endif  // TF_LITE_STATIC_MEMORY
 2685                             		.loc 3 189 29
 2686 048c 61 01                   		cmp	#0, r1
 2687 048e 15                      		beq	.L110
 189:C:\Users\a5116938\Desktop\e2_studio_workspace\EEMBC_final\RX65N_Cloud_Kit\src/tensorflow/lite/kernels/internal\types.h **** #endif  // TF_LITE_STATIC_MEMORY
 2688                             		.loc 3 189 16
 2689 048f 05 00 00 00             		bsr	__ZdaPv
 2690                             	.LVL208:
 2691                             		.balign 8,3,1
 2692                             	.L110:
 2693                             	.LBE1240:
 2694                             	.LBE1239:
 2695                             	.LBB1241:
 2696                             	.LBB1242:
 185:C:\Users\a5116938\Desktop\e2_studio_workspace\EEMBC_final\RX65N_Cloud_Kit\src/tensorflow/lite/kernels/internal\types.h **** #ifdef TF_LITE_STATIC_MEMORY
 2697                             		.loc 3 185 5 is_stmt 1
 2698 0493 AC 0F                   		mov.L	68[r0], r7
 2699 0495 61 57                   		cmp	#5, r7
 2700 0497 2B 0D                   		ble	.L152
 189:C:\Users\a5116938\Desktop\e2_studio_workspace\EEMBC_final\RX65N_Cloud_Kit\src/tensorflow/lite/kernels/internal\types.h **** #endif  // TF_LITE_STATIC_MEMORY
 2701                             		.loc 3 189 7
 189:C:\Users\a5116938\Desktop\e2_studio_workspace\EEMBC_final\RX65N_Cloud_Kit\src/tensorflow/lite/kernels/internal\types.h **** #endif  // TF_LITE_STATIC_MEMORY
 2702                             		.loc 3 189 16 is_stmt 0
 2703 0499 AC 81                   		mov.L	72[r0], r1
 189:C:\Users\a5116938\Desktop\e2_studio_workspace\EEMBC_final\RX65N_Cloud_Kit\src/tensorflow/lite/kernels/internal\types.h **** #endif  // TF_LITE_STATIC_MEMORY
 2704                             		.loc 3 189 29
 2705 049b 61 01                   		cmp	#0, r1
 2706 049d 17                      		beq	.L152
 2707                             	.LVL209:
 2708 049e EF 00                   		.balign 8,3,3
 2709                             	.L197:
 189:C:\Users\a5116938\Desktop\e2_studio_workspace\EEMBC_final\RX65N_Cloud_Kit\src/tensorflow/lite/kernels/internal\types.h **** #endif  // TF_LITE_STATIC_MEMORY
 2710                             		.loc 3 189 16
 2711 04a0 05 00 00 00             		bsr	__ZdaPv
 2712                             	.LVL210:
 2713                             	.LBE1242:
 2714                             	.LBE1241:
 2715                             	.LBE1260:
 2716                             	.LBE1347:
 365:../src/tensorflow/lite/micro/kernels/conv.cc ****         tflite::micro::GetTensorData<int8_t>(output));
 366:../src/tensorflow/lite/micro/kernels/conv.cc ****   }
 367:../src/tensorflow/lite/micro/kernels/conv.cc ****   return kTfLiteOk;
 2717                             		.loc 1 367 3 is_stmt 1
 2718                             		.balign 8,3,1
 2719                             	.L152:
 368:../src/tensorflow/lite/micro/kernels/conv.cc **** }
 2720                             		.loc 1 368 1 is_stmt 0
 2721 04a4 66 01                   		mov.L	#0, r1
 2722 04a6 3F 6D 90                		rtsd	#576, r6-r13
 2723                             	.LVL211:
 2724                             	.L201:
 2725                             	.LBB1348:
 2726                             	.LBB1261:
 2727                             	.LBB1243:
 2728                             	.LBB1217:
 2729                             	.LBB1197:
 2730                             	.LBB1185:
 2731                             	.LBB1173:
 2732                             	.LBB1160:
 2733                             	.LBB1147:
 2734                             	.LBB1134:
 2735                             	.LBB1120:
 2736                             	.LBB1106:
 2737                             	.LBB1008:
 162:C:\Users\a5116938\Desktop\e2_studio_workspace\EEMBC_final\RX65N_Cloud_Kit\src/tensorflow/lite/kernels/internal\common.h ****   return RoundingDivideByPOT(SaturatingRoundingDoublingHighMul(
 2738                             		.loc 8 162 31
 2739 04a9 7E 15                   		neg	r5
 2740                             	.LVL212:
 2741                             		.loc 8 163 3 is_stmt 1
 2742                             		.loc 8 163 29 is_stmt 0
 2743 04ab FD 62 A7                		shll	r10, r7
 2744                             	.LVL213:
 2745                             	.LBB1002:
 2746                             	.LBB998:
 342:C:\Users\a5116938\Desktop\e2_studio_workspace\EEMBC_final\RX65N_Cloud_Kit\src\third_party\gemmlowp/fixedpoint\fixedpoint.h ****   std::int64_t a_64(a);
 2747                             		.loc 7 342 3 is_stmt 1
 2748 04ae EF 41                   		mov.L	r4, r1
 2749 04b0 FC 1B 71                		emul	r7, r1
 2750 04b3 EF 1A                   		mov.L	r1, r10
 2751                             	.LVL214:
 2752 04b5 EF 2B                   		mov.L	r2, r11
 342:C:\Users\a5116938\Desktop\e2_studio_workspace\EEMBC_final\RX65N_Cloud_Kit\src\third_party\gemmlowp/fixedpoint\fixedpoint.h ****   std::int64_t a_64(a);
 2753                             		.loc 7 342 26 is_stmt 0
 2754 04b7 47 74                   		cmp	r7, r4
 2755 04b9 3B A4 FE                		bne	.L98
 2756                             		.balign 8,3,1
 2757                             	.L202:
 2758                             	.LVL215:
 343:C:\Users\a5116938\Desktop\e2_studio_workspace\EEMBC_final\RX65N_Cloud_Kit\src\third_party\gemmlowp/fixedpoint\fixedpoint.h ****   std::int64_t b_64(b);
 2759                             		.loc 7 343 3 is_stmt 1
 344:C:\Users\a5116938\Desktop\e2_studio_workspace\EEMBC_final\RX65N_Cloud_Kit\src\third_party\gemmlowp/fixedpoint\fixedpoint.h ****   std::int64_t ab_64 = a_64 * b_64;
 2760                             		.loc 7 344 3
 345:C:\Users\a5116938\Desktop\e2_studio_workspace\EEMBC_final\RX65N_Cloud_Kit\src\third_party\gemmlowp/fixedpoint\fixedpoint.h ****   std::int32_t nudge = ab_64 >= 0 ? (1 << 30) : (1 - (1 << 30));
 2761                             		.loc 7 345 3
 346:C:\Users\a5116938\Desktop\e2_studio_workspace\EEMBC_final\RX65N_Cloud_Kit\src\third_party\gemmlowp/fixedpoint\fixedpoint.h ****   std::int32_t ab_x2_high32 =
 2762                             		.loc 7 346 3
 346:C:\Users\a5116938\Desktop\e2_studio_workspace\EEMBC_final\RX65N_Cloud_Kit\src\third_party\gemmlowp/fixedpoint\fixedpoint.h ****   std::int32_t ab_x2_high32 =
 2763                             		.loc 7 346 35 is_stmt 0
 2764 04bc 61 02                   		cmp	#0, r2
 2765 04be FB 32 01 00 00 C0       		mov.L	#-1073741823, r3
 2766 04c4 29 08                   		blt 1f
 2767 04c6 FB 32 00 00 00 40       		mov #0x40000000, r3
 2768                             	1:
 2769 04cc FB 76 FF                		mov.L	#-1, r7
 2770                             	.LVL216:
 2771 04cf 29 04                   		blt 1f
 2772 04d1 66 07                   		mov #0, r7
 2773                             	1:
 347:C:\Users\a5116938\Desktop\e2_studio_workspace\EEMBC_final\RX65N_Cloud_Kit\src\third_party\gemmlowp/fixedpoint\fixedpoint.h ****       static_cast<std::int32_t>((ab_64 + nudge) / (1ll << 31));
 2774                             		.loc 7 347 3 is_stmt 1
 2775                             	.LVL217:
 349:C:\Users\a5116938\Desktop\e2_studio_workspace\EEMBC_final\RX65N_Cloud_Kit\src\third_party\gemmlowp/fixedpoint\fixedpoint.h **** }
 2776                             		.loc 7 349 3
 349:C:\Users\a5116938\Desktop\e2_studio_workspace\EEMBC_final\RX65N_Cloud_Kit\src\third_party\gemmlowp/fixedpoint\fixedpoint.h **** }
 2777                             		.loc 7 349 19 is_stmt 0
 2778 04d3 74 04 00 00 00 80       		cmp	#-2147483648, r4
 2779 04d9 3B 91 FE                		bne	.L126
 2780 04dc FB 42 FF FF FF 7F       		mov.L	#0x7fffffff, r4
 2781                             	.LVL218:
 2782 04e2 38 B6 FE                		bra	.L101
 2783                             	.LVL219:
 2784                             	.L199:
 2785                             	.LBE998:
 2786                             	.LBE1002:
 2787                             	.LBE1008:
 2788                             	.LBE1106:
 2789                             	.LBE1120:
 2790                             	.LBE1134:
 2791                             	.LBE1147:
 2792                             	.LBE1160:
 2793                             	.LBE1173:
 2794                             	.LBE1185:
 2795                             	.LBE1197:
 2796                             	.LBB1198:
 2797                             	.LBB953:
 2798                             	.LBB952:
 2799                             	.LBB948:
 214:C:\Users\a5116938\Desktop\e2_studio_workspace\EEMBC_final\RX65N_Cloud_Kit\src/tensorflow/lite/kernels/internal\types.h ****   }
 2800                             		.loc 3 214 34
 2801 04e5 AF 83                   		mov.L	120[r0], r3
 2802                             	.LVL220:
 2803                             	.LBE948:
 2804                             	.LBE952:
 274:C:\Users\a5116938\Desktop\e2_studio_workspace\EEMBC_final\RX65N_Cloud_Kit\src/tensorflow/lite/kernels/internal\types.h ****       buffer_size *= dims_data[i];
 2805                             		.loc 3 274 5 is_stmt 1
 2806 04e7 38 1D FC                		bra	.L75
 2807                             	.LVL221:
 2808                             	.L134:
 2809 04ea EF 7A                   		mov.L	r7, r10
 2810                             	.LVL222:
 2811                             	.LBE953:
 2812                             	.LBE1198:
 2813                             	.LBB1199:
 2814                             	.LBB1186:
 2815                             	.LBB1174:
 2816                             	.LBB1161:
 2817                             	.LBB1148:
 2818                             	.LBB1135:
 2819                             	.LBB1121:
 2820                             		.loc 6 119 11
 2821                             	.LBB1107:
 2822                             	.LBB1101:
 386:C:\Users\a5116938\Desktop\e2_studio_workspace\EEMBC_final\RX65N_Cloud_Kit\src/tensorflow/lite/kernels/internal\types.h ****   const int* dims_data = reinterpret_cast<const int*>(shape.DimsDataUpTo5D());
 2823                             		.loc 3 386 3
 2824                             	.LBE1101:
 2825                             	.LBE1107:
 2826                             	.LBE1121:
 2827                             	.LBE1135:
 2828                             	.LBE1148:
 2829                             	.LBE1161:
 2830                             	.LBE1174:
 2831                             	.LBE1186:
 2832                             	.LBE1199:
 2833                             	.LBE1217:
 2834                             	.LBE1243:
 2835                             	.LBE1261:
 2836                             	.LBE1348:
 194:C:\Users\a5116938\Desktop\e2_studio_workspace\EEMBC_final\RX65N_Cloud_Kit\src/tensorflow/lite/kernels/internal\types.h ****   inline int32_t Dims(int i) const {
 2837                             		.loc 3 194 44
 2838                             	.LBB1349:
 2839                             	.LBB1262:
 2840                             	.LBB1244:
 2841                             	.LBB1218:
 2842                             	.LBB1200:
 2843                             	.LBB1187:
 2844                             	.LBB1175:
 2845                             	.LBB1162:
 2846                             	.LBB1149:
 2847                             	.LBB1136:
 2848                             	.LBB1122:
 2849                             	.LBB1108:
 2850                             	.LBB1102:
 386:C:\Users\a5116938\Desktop\e2_studio_workspace\EEMBC_final\RX65N_Cloud_Kit\src/tensorflow/lite/kernels/internal\types.h ****   const int* dims_data = reinterpret_cast<const int*>(shape.DimsDataUpTo5D());
 2851                             		.loc 3 386 3 is_stmt 0
 2852 04ec ED 07 23                		mov.L	140[r0], r7
 2853 04ef 61 47                   		cmp	#4, r7
 2854 04f1 3A EF FE                		beq	.L117
 2855                             	.LVL223:
 2856                             		.balign 8,3,3
 2857                             	.L59:
 2858                             	.LBE1102:
 2859                             	.LBE1108:
 2860                             	.LBE1122:
 2861                             	.LBE1136:
 2862                             	.LBE1149:
 2863                             	.LBE1162:
 2864                             	.LBE1175:
 2865                             	.LBE1187:
 2866                             	.LBE1200:
 2867                             	.LBE1218:
 2868                             	.LBE1244:
 2869                             	.LBE1262:
 2870                             	.LBB1263:
 280:../src/tensorflow/lite/micro/kernels/conv.cc ****     TFLITE_DCHECK_EQ(input_shape.DimensionsCount(), 4);
 2871                             		.loc 1 280 5
 2872 04f4 05 00 00 00             		bsr	_abort
 2873                             	.LVL224:
 2874                             	.L130:
 2875                             	.LBE1263:
 2876                             	.LBB1324:
 2877                             	.LBB1245:
 2878                             	.LBB1219:
 2879                             	.LBB1201:
 2880                             	.LBB1188:
 2881                             	.LBB1176:
 2882                             	.LBB1163:
 2883                             	.LBB1150:
 2884                             	.LBB1137:
 2885                             	.LBB1123:
  70:C:\Users\a5116938\Desktop\e2_studio_workspace\EEMBC_final\RX65N_Cloud_Kit\src/tensorflow/lite/kernels/internal/reference/integer_ops\conv.h ****           for (int filter_y = 0; filter_y < filter_height; ++filter_y) {
 2886                             		.loc 6 70 19
 2887 04f8 66 07                   		mov.L	#0, r7
 2888 04fa 38 27 FE                		bra	.L88
 2889                             	.LVL225:
 2890                             	.L198:
 2891 04fd EF 1E                   		mov.L	r1, r14
 2892                             	.LBE1123:
 2893                             	.LBE1137:
 2894                             	.LBE1150:
 2895                             	.LBE1163:
 2896                             	.LBE1176:
 2897                             	.LBE1188:
 2898                             	.LBE1201:
 2899                             	.LBE1219:
 2900                             	.LBE1245:
 2901                             	.LBE1324:
 2902                             	.LBB1325:
 259:../src/tensorflow/lite/micro/kernels/conv.cc ****     conv_params.output_offset = data.output_zero_point;
 2903                             		.loc 1 259 5 is_stmt 1
 274:../src/tensorflow/lite/micro/kernels/conv.cc ****     RuntimeShape input_shape = tflite::micro::GetTensorShape(input);
 2904                             		.loc 1 274 69 is_stmt 0
 2905 04ff 72 0F EC 00             		add	#0xec, r0, r15
 2906 0503 EF 91                   		mov.L	r9, r1
 2907                             	.LVL226:
 259:../src/tensorflow/lite/micro/kernels/conv.cc ****     conv_params.output_offset = data.output_zero_point;
 2908                             		.loc 1 259 30
 2909 0505 ED 05 69                		mov.L	420[r0], r5
 2910 0508 7E 15                   		neg	r5
 260:../src/tensorflow/lite/micro/kernels/conv.cc ****     conv_params.stride.h = params->stride_height;
 2911                             		.loc 1 260 31
 2912 050a E5 00 66 08             		mov.L	408[r0], 32[r0]
 259:../src/tensorflow/lite/micro/kernels/conv.cc ****     conv_params.output_offset = data.output_zero_point;
 2913                             		.loc 1 259 30
 2914 050e A1 8D                   		mov.L	r5, 28[r0]
 260:../src/tensorflow/lite/micro/kernels/conv.cc ****     conv_params.stride.h = params->stride_height;
 2915                             		.loc 1 260 5 is_stmt 1
 261:../src/tensorflow/lite/micro/kernels/conv.cc ****     conv_params.stride.w = params->stride_width;
 2916                             		.loc 1 261 5
 261:../src/tensorflow/lite/micro/kernels/conv.cc ****     conv_params.stride.w = params->stride_width;
 2917                             		.loc 1 261 26 is_stmt 0
 2918 0510 E7 0D 0A                		mov.L	r13, 40[r0]
 262:../src/tensorflow/lite/micro/kernels/conv.cc ****     conv_params.padding.h = data.padding.height;
 2919                             		.loc 1 262 5 is_stmt 1
 262:../src/tensorflow/lite/micro/kernels/conv.cc ****     conv_params.padding.h = data.padding.height;
 2920                             		.loc 1 262 26 is_stmt 0
 2921 0513 A2 0C                   		mov.L	r4, 36[r0]
 263:../src/tensorflow/lite/micro/kernels/conv.cc ****     conv_params.padding.w = data.padding.width;
 2922                             		.loc 1 263 5 is_stmt 1
 263:../src/tensorflow/lite/micro/kernels/conv.cc ****     conv_params.padding.w = data.padding.width;
 2923                             		.loc 1 263 27 is_stmt 0
 2924 0515 A3 07                   		mov.L	r7, 48[r0]
 264:../src/tensorflow/lite/micro/kernels/conv.cc ****     conv_params.activation.min = data.output_activation_min;
 2925                             		.loc 1 264 5 is_stmt 1
 264:../src/tensorflow/lite/micro/kernels/conv.cc ****     conv_params.activation.min = data.output_activation_min;
 2926                             		.loc 1 264 27 is_stmt 0
 2927 0517 E7 0B 0B                		mov.L	r11, 44[r0]
 265:../src/tensorflow/lite/micro/kernels/conv.cc ****     conv_params.activation.max = data.output_activation_max;
 2928                             		.loc 1 265 5 is_stmt 1
 265:../src/tensorflow/lite/micro/kernels/conv.cc ****     conv_params.activation.max = data.output_activation_max;
 2929                             		.loc 1 265 32 is_stmt 0
 2930 051a E5 00 58 0F             		mov.L	352[r0], 60[r0]
 266:../src/tensorflow/lite/micro/kernels/conv.cc **** 
 2931                             		.loc 1 266 5 is_stmt 1
 266:../src/tensorflow/lite/micro/kernels/conv.cc **** 
 2932                             		.loc 1 266 32 is_stmt 0
 2933 051e E5 00 60 10             		mov.L	384[r0], 64[r0]
 269:../src/tensorflow/lite/micro/kernels/conv.cc ****     quant_params.multiplier =
 2934                             		.loc 1 269 5 is_stmt 1
 270:../src/tensorflow/lite/micro/kernels/conv.cc ****         const_cast<int32_t*>(data.per_channel_output_multiplier);
 2935                             		.loc 1 270 5
 270:../src/tensorflow/lite/micro/kernels/conv.cc ****         const_cast<int32_t*>(data.per_channel_output_multiplier);
 2936                             		.loc 1 270 29 is_stmt 0
 2937 0522 E5 00 68 53             		mov.L	416[r0], 332[r0]
 272:../src/tensorflow/lite/micro/kernels/conv.cc **** 
 2938                             		.loc 1 272 5 is_stmt 1
 272:../src/tensorflow/lite/micro/kernels/conv.cc **** 
 2939                             		.loc 1 272 24 is_stmt 0
 2940 0526 E5 00 67 54             		mov.L	412[r0], 336[r0]
 274:../src/tensorflow/lite/micro/kernels/conv.cc ****     RuntimeShape input_shape = tflite::micro::GetTensorShape(input);
 2941                             		.loc 1 274 5 is_stmt 1
 274:../src/tensorflow/lite/micro/kernels/conv.cc ****     RuntimeShape input_shape = tflite::micro::GetTensorShape(input);
 2942                             		.loc 1 274 69 is_stmt 0
 2943 052a E7 03 83                		mov.L	r3, 524[r0]
 2944 052d E7 0E 82                		mov.L	r14, 520[r0]
 2945 0530 05 00 00 00             		bsr	__ZN6tflite5micro14GetTensorShapeEPK16TfLiteEvalTensor
 2946                             	.LVL227:
 275:../src/tensorflow/lite/micro/kernels/conv.cc ****     RuntimeShape output_shape = tflite::micro::GetTensorShape(output);
 2947                             		.loc 1 275 5 is_stmt 1
 275:../src/tensorflow/lite/micro/kernels/conv.cc ****     RuntimeShape output_shape = tflite::micro::GetTensorShape(output);
 2948                             		.loc 1 275 67 is_stmt 0
 2949 0534 72 0F D4 00             		add	#0xd4, r0, r15
 2950 0538 EF C1                   		mov.L	r12, r1
 2951 053a 05 00 00 00             		bsr	__ZN6tflite5micro14GetTensorShapeEPK16TfLiteEvalTensor
 2952                             	.LVL228:
 276:../src/tensorflow/lite/micro/kernels/conv.cc ****     RuntimeShape bias_shape = tflite::micro::GetTensorShape(bias);
 2953                             		.loc 1 276 5 is_stmt 1
 276:../src/tensorflow/lite/micro/kernels/conv.cc ****     RuntimeShape bias_shape = tflite::micro::GetTensorShape(bias);
 2954                             		.loc 1 276 69 is_stmt 0
 2955 053e 72 0F BC 00             		add	#0xbc, r0, r15
 2956 0542 EF 81                   		mov.L	r8, r1
 2957 0544 05 00 00 00             		bsr	__ZN6tflite5micro14GetTensorShapeEPK16TfLiteEvalTensor
 2958                             	.LVL229:
 277:../src/tensorflow/lite/micro/kernels/conv.cc **** 
 2959                             		.loc 1 277 5 is_stmt 1
 277:../src/tensorflow/lite/micro/kernels/conv.cc **** 
 2960                             		.loc 1 277 65 is_stmt 0
 2961 0548 72 0F A4 00             		add	#0xa4, r0, r15
 2962 054c EF 61                   		mov.L	r6, r1
 2963 054e 05 00 00 00             		bsr	__ZN6tflite5micro14GetTensorShapeEPK16TfLiteEvalTensor
 2964                             	.LVL230:
 280:../src/tensorflow/lite/micro/kernels/conv.cc ****     TFLITE_DCHECK_EQ(input_shape.DimensionsCount(), 4);
 2965                             		.loc 1 280 5 is_stmt 1
 2966 0552 AB 8F                   		mov.L	60[r0], r7
 2967 0554 ED 03 83                		mov.L	524[r0], r3
 2968 0557 ED 0E 82                		mov.L	520[r0], r14
 2969 055a 06 85 07 10             		cmp	64[r0].L, r7
 2970 055e 2A 96                   		bgt	.L59
 281:../src/tensorflow/lite/micro/kernels/conv.cc ****     TFLITE_DCHECK_EQ(filter_shape.DimensionsCount(), 4);
 2971                             		.loc 1 281 5
 2972                             	.LVL231:
 2973                             	.LBE1325:
 2974                             	.LBE1349:
 194:C:\Users\a5116938\Desktop\e2_studio_workspace\EEMBC_final\RX65N_Cloud_Kit\src/tensorflow/lite/kernels/internal\types.h ****   inline int32_t Dims(int i) const {
 2975                             		.loc 3 194 44
 2976                             	.LBB1350:
 2977                             	.LBB1326:
 281:../src/tensorflow/lite/micro/kernels/conv.cc ****     TFLITE_DCHECK_EQ(filter_shape.DimensionsCount(), 4);
 2978                             		.loc 1 281 5 is_stmt 0
 2979 0560 ED 07 35                		mov.L	212[r0], r7
 2980 0563 61 47                   		cmp	#4, r7
 2981 0565 21 8F                   		bne	.L59
 282:../src/tensorflow/lite/micro/kernels/conv.cc ****     TFLITE_DCHECK_EQ(output_shape.DimensionsCount(), 4);
 2982                             		.loc 1 282 5 is_stmt 1
 2983                             	.LVL232:
 2984                             	.LBE1326:
 2985                             	.LBE1350:
 194:C:\Users\a5116938\Desktop\e2_studio_workspace\EEMBC_final\RX65N_Cloud_Kit\src/tensorflow/lite/kernels/internal\types.h ****   inline int32_t Dims(int i) const {
 2986                             		.loc 3 194 44
 2987                             	.LBB1351:
 2988                             	.LBB1327:
 282:../src/tensorflow/lite/micro/kernels/conv.cc ****     TFLITE_DCHECK_EQ(output_shape.DimensionsCount(), 4);
 2989                             		.loc 1 282 5 is_stmt 0
 2990 0567 ED 07 3B                		mov.L	236[r0], r7
 2991 056a 61 47                   		cmp	#4, r7
 2992 056c 21 88                   		bne	.L59
 283:../src/tensorflow/lite/micro/kernels/conv.cc ****     const int batch_size = MatchingDim(input_shape, 0, output_shape, 0);
 2993                             		.loc 1 283 5 is_stmt 1
 2994                             	.LVL233:
 2995                             	.LBE1327:
 2996                             	.LBE1351:
 194:C:\Users\a5116938\Desktop\e2_studio_workspace\EEMBC_final\RX65N_Cloud_Kit\src/tensorflow/lite/kernels/internal\types.h ****   inline int32_t Dims(int i) const {
 2997                             		.loc 3 194 44
 2998                             	.LBB1352:
 2999                             	.LBB1328:
 283:../src/tensorflow/lite/micro/kernels/conv.cc ****     const int batch_size = MatchingDim(input_shape, 0, output_shape, 0);
 3000                             		.loc 1 283 5 is_stmt 0
 3001 056e ED 07 2F                		mov.L	188[r0], r7
 3002 0571 61 47                   		cmp	#4, r7
 3003 0573 21 81                   		bne	.L59
 284:../src/tensorflow/lite/micro/kernels/conv.cc ****     const int input_depth = MatchingDim(input_shape, 3, filter_shape, 3);
 3004                             		.loc 1 284 5 is_stmt 1
 3005                             	.LVL234:
 3006                             	.LBB1264:
 3007                             	.LBB1265:
 440:C:\Users\a5116938\Desktop\e2_studio_workspace\EEMBC_final\RX65N_Cloud_Kit\src/tensorflow/lite/kernels/internal\types.h ****   return std::min(shape1.Dims(index1), shape2.Dims(index2));
 3008                             		.loc 3 440 3
 3009                             	.LBB1266:
 3010                             	.LBB1267:
 196:C:\Users\a5116938\Desktop\e2_studio_workspace\EEMBC_final\RX65N_Cloud_Kit\src/tensorflow/lite/kernels/internal\types.h ****     TFLITE_DCHECK_LT(i, size_);
 3011                             		.loc 3 196 5
 197:C:\Users\a5116938\Desktop\e2_studio_workspace\EEMBC_final\RX65N_Cloud_Kit\src/tensorflow/lite/kernels/internal\types.h ****     return size_ > kMaxSmallSize ? dims_pointer_[i] : dims_[i];
 3012                             		.loc 3 197 5
 198:C:\Users\a5116938\Desktop\e2_studio_workspace\EEMBC_final\RX65N_Cloud_Kit\src/tensorflow/lite/kernels/internal\types.h ****   }
 3013                             		.loc 3 198 5
 3014                             	.LBE1267:
 3015                             	.LBE1266:
 3016                             	.LBB1268:
 3017                             	.LBB1269:
 196:C:\Users\a5116938\Desktop\e2_studio_workspace\EEMBC_final\RX65N_Cloud_Kit\src/tensorflow/lite/kernels/internal\types.h ****     TFLITE_DCHECK_LT(i, size_);
 3018                             		.loc 3 196 5
 197:C:\Users\a5116938\Desktop\e2_studio_workspace\EEMBC_final\RX65N_Cloud_Kit\src/tensorflow/lite/kernels/internal\types.h ****     return size_ > kMaxSmallSize ? dims_pointer_[i] : dims_[i];
 3019                             		.loc 3 197 5
 198:C:\Users\a5116938\Desktop\e2_studio_workspace\EEMBC_final\RX65N_Cloud_Kit\src/tensorflow/lite/kernels/internal\types.h ****   }
 3020                             		.loc 3 198 5
 198:C:\Users\a5116938\Desktop\e2_studio_workspace\EEMBC_final\RX65N_Cloud_Kit\src/tensorflow/lite/kernels/internal\types.h ****   }
 3021                             		.loc 3 198 34 is_stmt 0
 3022 0575 ED 0B 30                		mov.L	192[r0], r11
 3023                             	.LVL235:
 3024                             	.LBE1269:
 3025                             	.LBE1268:
 440:C:\Users\a5116938\Desktop\e2_studio_workspace\EEMBC_final\RX65N_Cloud_Kit\src/tensorflow/lite/kernels/internal\types.h ****   return std::min(shape1.Dims(index1), shape2.Dims(index2));
 3026                             		.loc 3 440 3
 3027 0578 06 85 0B 36             		cmp	216[r0].L, r11
 3028 057c 3B 78 FF                		bne	.L59
 3029                             		.loc 3 441 3 is_stmt 1
 3030                             	.LVL236:
 3031                             	.LBE1265:
 3032                             	.LBE1264:
 3033                             	.LBE1328:
 3034                             	.LBE1352:
 196:C:\Users\a5116938\Desktop\e2_studio_workspace\EEMBC_final\RX65N_Cloud_Kit\src/tensorflow/lite/kernels/internal\types.h ****     TFLITE_DCHECK_LT(i, size_);
 3035                             		.loc 3 196 5
 197:C:\Users\a5116938\Desktop\e2_studio_workspace\EEMBC_final\RX65N_Cloud_Kit\src/tensorflow/lite/kernels/internal\types.h ****     return size_ > kMaxSmallSize ? dims_pointer_[i] : dims_[i];
 3036                             		.loc 3 197 5
 198:C:\Users\a5116938\Desktop\e2_studio_workspace\EEMBC_final\RX65N_Cloud_Kit\src/tensorflow/lite/kernels/internal\types.h ****   }
 3037                             		.loc 3 198 5
 3038                             	.LBB1353:
 3039                             	.LBB1329:
 285:../src/tensorflow/lite/micro/kernels/conv.cc ****     const int output_depth = MatchingDim(filter_shape, 0, output_shape, 3);
 3040                             		.loc 1 285 5
 3041                             	.LBB1270:
 3042                             	.LBB1271:
 440:C:\Users\a5116938\Desktop\e2_studio_workspace\EEMBC_final\RX65N_Cloud_Kit\src/tensorflow/lite/kernels/internal\types.h ****   return std::min(shape1.Dims(index1), shape2.Dims(index2));
 3043                             		.loc 3 440 3
 3044                             	.LBB1272:
 3045                             	.LBB1273:
 196:C:\Users\a5116938\Desktop\e2_studio_workspace\EEMBC_final\RX65N_Cloud_Kit\src/tensorflow/lite/kernels/internal\types.h ****     TFLITE_DCHECK_LT(i, size_);
 3046                             		.loc 3 196 5
 197:C:\Users\a5116938\Desktop\e2_studio_workspace\EEMBC_final\RX65N_Cloud_Kit\src/tensorflow/lite/kernels/internal\types.h ****     return size_ > kMaxSmallSize ? dims_pointer_[i] : dims_[i];
 3047                             		.loc 3 197 5
 198:C:\Users\a5116938\Desktop\e2_studio_workspace\EEMBC_final\RX65N_Cloud_Kit\src/tensorflow/lite/kernels/internal\types.h ****   }
 3048                             		.loc 3 198 5
 198:C:\Users\a5116938\Desktop\e2_studio_workspace\EEMBC_final\RX65N_Cloud_Kit\src/tensorflow/lite/kernels/internal\types.h ****   }
 3049                             		.loc 3 198 34 is_stmt 0
 3050 057f ED 0D 39                		mov.L	228[r0], r13
 3051                             	.LVL237:
 3052                             	.LBE1273:
 3053                             	.LBE1272:
 3054                             	.LBB1274:
 3055                             	.LBB1275:
 196:C:\Users\a5116938\Desktop\e2_studio_workspace\EEMBC_final\RX65N_Cloud_Kit\src/tensorflow/lite/kernels/internal\types.h ****     TFLITE_DCHECK_LT(i, size_);
 3056                             		.loc 3 196 5 is_stmt 1
 197:C:\Users\a5116938\Desktop\e2_studio_workspace\EEMBC_final\RX65N_Cloud_Kit\src/tensorflow/lite/kernels/internal\types.h ****     return size_ > kMaxSmallSize ? dims_pointer_[i] : dims_[i];
 3057                             		.loc 3 197 5
 198:C:\Users\a5116938\Desktop\e2_studio_workspace\EEMBC_final\RX65N_Cloud_Kit\src/tensorflow/lite/kernels/internal\types.h ****   }
 3058                             		.loc 3 198 5
 3059                             	.LBE1275:
 3060                             	.LBE1274:
 440:C:\Users\a5116938\Desktop\e2_studio_workspace\EEMBC_final\RX65N_Cloud_Kit\src/tensorflow/lite/kernels/internal\types.h ****   return std::min(shape1.Dims(index1), shape2.Dims(index2));
 3061                             		.loc 3 440 3 is_stmt 0
 3062 0582 ED 07 3F                		mov.L	252[r0], r7
 3063 0585 47 D7                   		cmp	r13, r7
 3064 0587 3B 6D FF                		bne	.L59
 3065                             		.loc 3 441 3 is_stmt 1
 3066                             	.LVL238:
 3067                             	.LBE1271:
 3068                             	.LBE1270:
 3069                             	.LBE1329:
 3070                             	.LBE1353:
 196:C:\Users\a5116938\Desktop\e2_studio_workspace\EEMBC_final\RX65N_Cloud_Kit\src/tensorflow/lite/kernels/internal\types.h ****     TFLITE_DCHECK_LT(i, size_);
 3071                             		.loc 3 196 5
 197:C:\Users\a5116938\Desktop\e2_studio_workspace\EEMBC_final\RX65N_Cloud_Kit\src/tensorflow/lite/kernels/internal\types.h ****     return size_ > kMaxSmallSize ? dims_pointer_[i] : dims_[i];
 3072                             		.loc 3 197 5
 198:C:\Users\a5116938\Desktop\e2_studio_workspace\EEMBC_final\RX65N_Cloud_Kit\src/tensorflow/lite/kernels/internal\types.h ****   }
 3073                             		.loc 3 198 5
 3074                             	.LBB1354:
 3075                             	.LBB1330:
 286:../src/tensorflow/lite/micro/kernels/conv.cc ****     if (tflite::micro::GetTensorData<int8_t>(bias)) {
 3076                             		.loc 1 286 5
 3077                             	.LBB1276:
 3078                             	.LBB1277:
 440:C:\Users\a5116938\Desktop\e2_studio_workspace\EEMBC_final\RX65N_Cloud_Kit\src/tensorflow/lite/kernels/internal\types.h ****   return std::min(shape1.Dims(index1), shape2.Dims(index2));
 3079                             		.loc 3 440 3
 3080                             	.LBB1278:
 3081                             	.LBB1279:
 196:C:\Users\a5116938\Desktop\e2_studio_workspace\EEMBC_final\RX65N_Cloud_Kit\src/tensorflow/lite/kernels/internal\types.h ****     TFLITE_DCHECK_LT(i, size_);
 3082                             		.loc 3 196 5
 197:C:\Users\a5116938\Desktop\e2_studio_workspace\EEMBC_final\RX65N_Cloud_Kit\src/tensorflow/lite/kernels/internal\types.h ****     return size_ > kMaxSmallSize ? dims_pointer_[i] : dims_[i];
 3083                             		.loc 3 197 5
 198:C:\Users\a5116938\Desktop\e2_studio_workspace\EEMBC_final\RX65N_Cloud_Kit\src/tensorflow/lite/kernels/internal\types.h ****   }
 3084                             		.loc 3 198 5
 198:C:\Users\a5116938\Desktop\e2_studio_workspace\EEMBC_final\RX65N_Cloud_Kit\src/tensorflow/lite/kernels/internal\types.h ****   }
 3085                             		.loc 3 198 34 is_stmt 0
 3086 058a ED 01 3C                		mov.L	240[r0], r1
 3087                             	.LVL239:
 3088                             	.LBE1279:
 3089                             	.LBE1278:
 3090                             	.LBB1280:
 3091                             	.LBB1281:
 196:C:\Users\a5116938\Desktop\e2_studio_workspace\EEMBC_final\RX65N_Cloud_Kit\src/tensorflow/lite/kernels/internal\types.h ****     TFLITE_DCHECK_LT(i, size_);
 3092                             		.loc 3 196 5 is_stmt 1
 197:C:\Users\a5116938\Desktop\e2_studio_workspace\EEMBC_final\RX65N_Cloud_Kit\src/tensorflow/lite/kernels/internal\types.h ****     return size_ > kMaxSmallSize ? dims_pointer_[i] : dims_[i];
 3093                             		.loc 3 197 5
 198:C:\Users\a5116938\Desktop\e2_studio_workspace\EEMBC_final\RX65N_Cloud_Kit\src/tensorflow/lite/kernels/internal\types.h ****   }
 3094                             		.loc 3 198 5
 3095                             	.LBE1281:
 3096                             	.LBE1280:
 440:C:\Users\a5116938\Desktop\e2_studio_workspace\EEMBC_final\RX65N_Cloud_Kit\src/tensorflow/lite/kernels/internal\types.h ****   return std::min(shape1.Dims(index1), shape2.Dims(index2));
 3097                             		.loc 3 440 3 is_stmt 0
 3098 058d ED 07 33                		mov.L	204[r0], r7
 3099 0590 47 17                   		cmp	r1, r7
 3100 0592 3B 62 FF                		bne	.L59
 3101                             		.loc 3 441 3 is_stmt 1
 3102                             	.LVL240:
 3103                             	.LBE1277:
 3104                             	.LBE1276:
 3105                             	.LBE1330:
 3106                             	.LBE1354:
 196:C:\Users\a5116938\Desktop\e2_studio_workspace\EEMBC_final\RX65N_Cloud_Kit\src/tensorflow/lite/kernels/internal\types.h ****     TFLITE_DCHECK_LT(i, size_);
 3107                             		.loc 3 196 5
 197:C:\Users\a5116938\Desktop\e2_studio_workspace\EEMBC_final\RX65N_Cloud_Kit\src/tensorflow/lite/kernels/internal\types.h ****     return size_ > kMaxSmallSize ? dims_pointer_[i] : dims_[i];
 3108                             		.loc 3 197 5
 198:C:\Users\a5116938\Desktop\e2_studio_workspace\EEMBC_final\RX65N_Cloud_Kit\src/tensorflow/lite/kernels/internal\types.h ****   }
 3109                             		.loc 3 198 5
 3110                             	.LBB1355:
 3111                             	.LBB1331:
 287:../src/tensorflow/lite/micro/kernels/conv.cc ****       TFLITE_DCHECK_EQ(bias_shape.FlatSize(), output_depth);
 3112                             		.loc 1 287 5
 3113                             	.LBB1282:
 3114                             	.LBB1283:
  61:C:\Users\a5116938\Desktop\e2_studio_workspace\EEMBC_final\RX65N_Cloud_Kit\src/tensorflow/lite/micro/kernels\kernel_util.h ****   return reinterpret_cast<const T*>(tensor->data.raw);
 3115                             		.loc 5 61 3 is_stmt 0
 3116 0595 61 06                   		cmp	#0, r6
 3117 0597 3A 5D FF                		beq	.L59
 3118                             	.LVL241:
 3119                             	.LBE1283:
 3120                             	.LBE1282:
 287:../src/tensorflow/lite/micro/kernels/conv.cc ****       TFLITE_DCHECK_EQ(bias_shape.FlatSize(), output_depth);
 3121                             		.loc 1 287 5
 3122 059a EC 67                   		mov.L	[r6], r7
 3123 059c 61 07                   		cmp	#0, r7
 3124 059e 20 27                   		beq	.L61
 288:../src/tensorflow/lite/micro/kernels/conv.cc ****     }
 3125                             		.loc 1 288 7 is_stmt 1
 3126                             	.LVL242:
 3127                             	.LBB1284:
 3128                             	.LBB1285:
 272:C:\Users\a5116938\Desktop\e2_studio_workspace\EEMBC_final\RX65N_Cloud_Kit\src/tensorflow/lite/kernels/internal\types.h ****     const int* dims_data = reinterpret_cast<const int*>(DimsData());
 3129                             		.loc 3 272 5
 273:C:\Users\a5116938\Desktop\e2_studio_workspace\EEMBC_final\RX65N_Cloud_Kit\src/tensorflow/lite/kernels/internal\types.h ****     for (int i = 0; i < size_; i++) {
 3130                             		.loc 3 273 5
 3131                             	.LBB1286:
 3132                             	.LBB1287:
 214:C:\Users\a5116938\Desktop\e2_studio_workspace\EEMBC_final\RX65N_Cloud_Kit\src/tensorflow/lite/kernels/internal\types.h ****   }
 3133                             		.loc 3 214 5
 214:C:\Users\a5116938\Desktop\e2_studio_workspace\EEMBC_final\RX65N_Cloud_Kit\src/tensorflow/lite/kernels/internal\types.h ****   }
 3134                             		.loc 3 214 12 is_stmt 0
 3135 05a0 ED 04 29                		mov.L	164[r0], r4
 214:C:\Users\a5116938\Desktop\e2_studio_workspace\EEMBC_final\RX65N_Cloud_Kit\src/tensorflow/lite/kernels/internal\types.h ****   }
 3136                             		.loc 3 214 34
 3137 05a3 61 54                   		cmp	#5, r4
 3138 05a5 2B 05 38 06 01          		bgt	.L204
 3139                             	.LVL243:
 3140                             	.LBE1287:
 3141                             	.LBE1286:
 274:C:\Users\a5116938\Desktop\e2_studio_workspace\EEMBC_final\RX65N_Cloud_Kit\src/tensorflow/lite/kernels/internal\types.h ****       buffer_size *= dims_data[i];
 3142                             		.loc 3 274 5 is_stmt 1
 3143                             	.LBB1290:
 274:C:\Users\a5116938\Desktop\e2_studio_workspace\EEMBC_final\RX65N_Cloud_Kit\src/tensorflow/lite/kernels/internal\types.h ****       buffer_size *= dims_data[i];
 3144                             		.loc 3 274 23 is_stmt 0
 3145 05aa 61 04                   		cmp	#0, r4
 3146 05ac 2B 14                   		ble	.L64
 3147                             	.LBE1290:
 3148                             	.LBB1291:
 3149                             	.LBB1288:
 214:C:\Users\a5116938\Desktop\e2_studio_workspace\EEMBC_final\RX65N_Cloud_Kit\src/tensorflow/lite/kernels/internal\types.h ****   }
 3150                             		.loc 3 214 34
 3151 05ae 72 02 A8 00             		add	#0xa8, r0, r2
 3152                             	.LVL244:
 3153                             		.balign 8,3,1
 3154                             	.L63:
 3155 05b2 66 07                   		mov.L	#0, r7
 3156                             	.LVL245:
 3157                             		.balign 8,3,3
 3158                             	.L65:
 3159                             	.LBE1288:
 3160                             	.LBE1291:
 3161                             	.LBB1292:
 275:C:\Users\a5116938\Desktop\e2_studio_workspace\EEMBC_final\RX65N_Cloud_Kit\src/tensorflow/lite/kernels/internal\types.h ****     }
 3162                             		.loc 3 275 7 is_stmt 1
 275:C:\Users\a5116938\Desktop\e2_studio_workspace\EEMBC_final\RX65N_Cloud_Kit\src/tensorflow/lite/kernels/internal\types.h ****     }
 3163                             		.loc 3 275 19 is_stmt 0
 3164 05b4 FE 67 25                		mov.L	[r7,r2], r5
 274:C:\Users\a5116938\Desktop\e2_studio_workspace\EEMBC_final\RX65N_Cloud_Kit\src/tensorflow/lite/kernels/internal\types.h ****       buffer_size *= dims_data[i];
 3165                             		.loc 3 274 5
 3166 05b7 62 17                   		add	#1, r7
 3167                             	.LVL246:
 275:C:\Users\a5116938\Desktop\e2_studio_workspace\EEMBC_final\RX65N_Cloud_Kit\src/tensorflow/lite/kernels/internal\types.h ****     }
 3168                             		.loc 3 275 19
 3169 05b9 4F 5A                   		mul	r5, r10
 3170                             	.LVL247:
 274:C:\Users\a5116938\Desktop\e2_studio_workspace\EEMBC_final\RX65N_Cloud_Kit\src/tensorflow/lite/kernels/internal\types.h ****       buffer_size *= dims_data[i];
 3171                             		.loc 3 274 23
 3172 05bb 47 74                   		cmp	r7, r4
 3173 05bd 2A F7                   		bgt	.L65
 3174                             	.LVL248:
 3175 05bf 03                      		.balign 8,3,1
 3176                             	.L64:
 3177                             	.LBE1292:
 277:C:\Users\a5116938\Desktop\e2_studio_workspace\EEMBC_final\RX65N_Cloud_Kit\src/tensorflow/lite/kernels/internal\types.h ****   }
 3178                             		.loc 3 277 5 is_stmt 1
 3179                             	.LBE1285:
 3180                             	.LBE1284:
 288:../src/tensorflow/lite/micro/kernels/conv.cc ****     }
 3181                             		.loc 1 288 7 is_stmt 0
 3182 05c0 47 1A                   		cmp	r1, r10
 3183 05c2 3B 32 FF                		bne	.L59
 3184                             		.balign 8,3,1
 3185                             	.L61:
 293:../src/tensorflow/lite/micro/kernels/conv.cc ****     input_dims.n = batch_size;
 3186                             		.loc 1 293 5 is_stmt 1
 294:../src/tensorflow/lite/micro/kernels/conv.cc ****     input_dims.h = input_shape.Dims(1);
 3187                             		.loc 1 294 5
 325:../src/tensorflow/lite/micro/kernels/conv.cc ****       ctx.buf = context->GetScratchBuffer(context, data.buffer_idx);
 3188                             		.loc 1 325 14 is_stmt 0
 3189 05c5 AB 3A                   		mov.L	52[r3], r2
 294:../src/tensorflow/lite/micro/kernels/conv.cc ****     input_dims.h = input_shape.Dims(1);
 3190                             		.loc 1 294 18
 3191 05c7 E7 0B 4D                		mov.L	r11, 308[r0]
 295:../src/tensorflow/lite/micro/kernels/conv.cc ****     input_dims.w = input_shape.Dims(2);
 3192                             		.loc 1 295 5 is_stmt 1
 3193                             	.LVL249:
 3194                             	.LBB1295:
 3195                             	.LBB1296:
 196:C:\Users\a5116938\Desktop\e2_studio_workspace\EEMBC_final\RX65N_Cloud_Kit\src/tensorflow/lite/kernels/internal\types.h ****     TFLITE_DCHECK_LT(i, size_);
 3196                             		.loc 3 196 5
 197:C:\Users\a5116938\Desktop\e2_studio_workspace\EEMBC_final\RX65N_Cloud_Kit\src/tensorflow/lite/kernels/internal\types.h ****     return size_ > kMaxSmallSize ? dims_pointer_[i] : dims_[i];
 3197                             		.loc 3 197 5
 198:C:\Users\a5116938\Desktop\e2_studio_workspace\EEMBC_final\RX65N_Cloud_Kit\src/tensorflow/lite/kernels/internal\types.h ****   }
 3198                             		.loc 3 198 5
 3199                             	.LBE1296:
 3200                             	.LBE1295:
 295:../src/tensorflow/lite/micro/kernels/conv.cc ****     input_dims.w = input_shape.Dims(2);
 3201                             		.loc 1 295 18 is_stmt 0
 3202 05ca E5 00 37 4E             		mov.L	220[r0], 312[r0]
 296:../src/tensorflow/lite/micro/kernels/conv.cc ****     input_dims.c = input_depth;
 3203                             		.loc 1 296 5 is_stmt 1
 3204                             	.LVL250:
 3205                             	.LBB1297:
 3206                             	.LBB1298:
 196:C:\Users\a5116938\Desktop\e2_studio_workspace\EEMBC_final\RX65N_Cloud_Kit\src/tensorflow/lite/kernels/internal\types.h ****     TFLITE_DCHECK_LT(i, size_);
 3207                             		.loc 3 196 5
 197:C:\Users\a5116938\Desktop\e2_studio_workspace\EEMBC_final\RX65N_Cloud_Kit\src/tensorflow/lite/kernels/internal\types.h ****     return size_ > kMaxSmallSize ? dims_pointer_[i] : dims_[i];
 3208                             		.loc 3 197 5
 198:C:\Users\a5116938\Desktop\e2_studio_workspace\EEMBC_final\RX65N_Cloud_Kit\src/tensorflow/lite/kernels/internal\types.h ****   }
 3209                             		.loc 3 198 5
 3210                             	.LBE1298:
 3211                             	.LBE1297:
 296:../src/tensorflow/lite/micro/kernels/conv.cc ****     input_dims.c = input_depth;
 3212                             		.loc 1 296 18 is_stmt 0
 3213 05ce E5 00 38 4F             		mov.L	224[r0], 316[r0]
 297:../src/tensorflow/lite/micro/kernels/conv.cc **** 
 3214                             		.loc 1 297 5 is_stmt 1
 297:../src/tensorflow/lite/micro/kernels/conv.cc **** 
 3215                             		.loc 1 297 18 is_stmt 0
 3216 05d2 E7 0D 50                		mov.L	r13, 320[r0]
 300:../src/tensorflow/lite/micro/kernels/conv.cc ****     filter_dims.n = output_depth;
 3217                             		.loc 1 300 5 is_stmt 1
 301:../src/tensorflow/lite/micro/kernels/conv.cc ****     filter_dims.h = filter_shape.Dims(1);
 3218                             		.loc 1 301 5
 302:../src/tensorflow/lite/micro/kernels/conv.cc ****     filter_dims.w = filter_shape.Dims(2);
 3219                             		.loc 1 302 19 is_stmt 0
 3220 05d5 E5 00 3D 4A             		mov.L	244[r0], 296[r0]
 303:../src/tensorflow/lite/micro/kernels/conv.cc ****     filter_dims.c = input_depth;
 3221                             		.loc 1 303 19
 3222 05d9 E5 00 3E 4B             		mov.L	248[r0], 300[r0]
 301:../src/tensorflow/lite/micro/kernels/conv.cc ****     filter_dims.h = filter_shape.Dims(1);
 3223                             		.loc 1 301 19
 3224 05dd E7 01 49                		mov.L	r1, 292[r0]
 302:../src/tensorflow/lite/micro/kernels/conv.cc ****     filter_dims.w = filter_shape.Dims(2);
 3225                             		.loc 1 302 5 is_stmt 1
 3226                             	.LVL251:
 3227                             	.LBB1299:
 3228                             	.LBB1300:
 196:C:\Users\a5116938\Desktop\e2_studio_workspace\EEMBC_final\RX65N_Cloud_Kit\src/tensorflow/lite/kernels/internal\types.h ****     TFLITE_DCHECK_LT(i, size_);
 3229                             		.loc 3 196 5
 197:C:\Users\a5116938\Desktop\e2_studio_workspace\EEMBC_final\RX65N_Cloud_Kit\src/tensorflow/lite/kernels/internal\types.h ****     return size_ > kMaxSmallSize ? dims_pointer_[i] : dims_[i];
 3230                             		.loc 3 197 5
 198:C:\Users\a5116938\Desktop\e2_studio_workspace\EEMBC_final\RX65N_Cloud_Kit\src/tensorflow/lite/kernels/internal\types.h ****   }
 3231                             		.loc 3 198 5
 3232                             	.LBE1300:
 3233                             	.LBE1299:
 303:../src/tensorflow/lite/micro/kernels/conv.cc ****     filter_dims.c = input_depth;
 3234                             		.loc 1 303 5
 3235                             	.LBB1301:
 3236                             	.LBB1302:
 196:C:\Users\a5116938\Desktop\e2_studio_workspace\EEMBC_final\RX65N_Cloud_Kit\src/tensorflow/lite/kernels/internal\types.h ****     TFLITE_DCHECK_LT(i, size_);
 3237                             		.loc 3 196 5
 197:C:\Users\a5116938\Desktop\e2_studio_workspace\EEMBC_final\RX65N_Cloud_Kit\src/tensorflow/lite/kernels/internal\types.h ****     return size_ > kMaxSmallSize ? dims_pointer_[i] : dims_[i];
 3238                             		.loc 3 197 5
 198:C:\Users\a5116938\Desktop\e2_studio_workspace\EEMBC_final\RX65N_Cloud_Kit\src/tensorflow/lite/kernels/internal\types.h ****   }
 3239                             		.loc 3 198 5
 3240                             	.LBE1302:
 3241                             	.LBE1301:
 304:../src/tensorflow/lite/micro/kernels/conv.cc **** 
 3242                             		.loc 1 304 5
 304:../src/tensorflow/lite/micro/kernels/conv.cc **** 
 3243                             		.loc 1 304 19 is_stmt 0
 3244 05e0 E7 0D 4C                		mov.L	r13, 304[r0]
 307:../src/tensorflow/lite/micro/kernels/conv.cc ****     bias_dims.n = 1;
 3245                             		.loc 1 307 5 is_stmt 1
 308:../src/tensorflow/lite/micro/kernels/conv.cc ****     bias_dims.h = 1;
 3246                             		.loc 1 308 5
 308:../src/tensorflow/lite/micro/kernels/conv.cc ****     bias_dims.h = 1;
 3247                             		.loc 1 308 17 is_stmt 0
 3248 05e3 F9 06 45 01             		mov.L	#1, 276[r0]
 309:../src/tensorflow/lite/micro/kernels/conv.cc ****     bias_dims.w = 1;
 3249                             		.loc 1 309 5 is_stmt 1
 309:../src/tensorflow/lite/micro/kernels/conv.cc ****     bias_dims.w = 1;
 3250                             		.loc 1 309 17 is_stmt 0
 3251 05e7 F9 06 46 01             		mov.L	#1, 280[r0]
 310:../src/tensorflow/lite/micro/kernels/conv.cc ****     bias_dims.c = output_depth;
 3252                             		.loc 1 310 5 is_stmt 1
 310:../src/tensorflow/lite/micro/kernels/conv.cc ****     bias_dims.c = output_depth;
 3253                             		.loc 1 310 17 is_stmt 0
 3254 05eb F9 06 47 01             		mov.L	#1, 284[r0]
 311:../src/tensorflow/lite/micro/kernels/conv.cc **** 
 3255                             		.loc 1 311 5 is_stmt 1
 311:../src/tensorflow/lite/micro/kernels/conv.cc **** 
 3256                             		.loc 1 311 17 is_stmt 0
 3257 05ef E7 01 48                		mov.L	r1, 288[r0]
 314:../src/tensorflow/lite/micro/kernels/conv.cc ****     output_dims.n = batch_size;
 3258                             		.loc 1 314 5 is_stmt 1
 315:../src/tensorflow/lite/micro/kernels/conv.cc ****     output_dims.h = output_shape.Dims(1);
 3259                             		.loc 1 315 5
 316:../src/tensorflow/lite/micro/kernels/conv.cc ****     output_dims.w = output_shape.Dims(2);
 3260                             		.loc 1 316 19 is_stmt 0
 3261 05f2 E5 00 31 42             		mov.L	196[r0], 264[r0]
 317:../src/tensorflow/lite/micro/kernels/conv.cc ****     output_dims.c = output_depth;
 3262                             		.loc 1 317 19
 3263 05f6 E5 00 32 43             		mov.L	200[r0], 268[r0]
 315:../src/tensorflow/lite/micro/kernels/conv.cc ****     output_dims.h = output_shape.Dims(1);
 3264                             		.loc 1 315 19
 3265 05fa E7 0B 41                		mov.L	r11, 260[r0]
 316:../src/tensorflow/lite/micro/kernels/conv.cc ****     output_dims.w = output_shape.Dims(2);
 3266                             		.loc 1 316 5 is_stmt 1
 3267                             	.LVL252:
 3268                             	.LBB1303:
 3269                             	.LBB1304:
 196:C:\Users\a5116938\Desktop\e2_studio_workspace\EEMBC_final\RX65N_Cloud_Kit\src/tensorflow/lite/kernels/internal\types.h ****     TFLITE_DCHECK_LT(i, size_);
 3270                             		.loc 3 196 5
 197:C:\Users\a5116938\Desktop\e2_studio_workspace\EEMBC_final\RX65N_Cloud_Kit\src/tensorflow/lite/kernels/internal\types.h ****     return size_ > kMaxSmallSize ? dims_pointer_[i] : dims_[i];
 3271                             		.loc 3 197 5
 198:C:\Users\a5116938\Desktop\e2_studio_workspace\EEMBC_final\RX65N_Cloud_Kit\src/tensorflow/lite/kernels/internal\types.h ****   }
 3272                             		.loc 3 198 5
 3273                             	.LBE1304:
 3274                             	.LBE1303:
 317:../src/tensorflow/lite/micro/kernels/conv.cc ****     output_dims.c = output_depth;
 3275                             		.loc 1 317 5
 3276                             	.LBB1305:
 3277                             	.LBB1306:
 196:C:\Users\a5116938\Desktop\e2_studio_workspace\EEMBC_final\RX65N_Cloud_Kit\src/tensorflow/lite/kernels/internal\types.h ****     TFLITE_DCHECK_LT(i, size_);
 3278                             		.loc 3 196 5
 197:C:\Users\a5116938\Desktop\e2_studio_workspace\EEMBC_final\RX65N_Cloud_Kit\src/tensorflow/lite/kernels/internal\types.h ****     return size_ > kMaxSmallSize ? dims_pointer_[i] : dims_[i];
 3279                             		.loc 3 197 5
 198:C:\Users\a5116938\Desktop\e2_studio_workspace\EEMBC_final\RX65N_Cloud_Kit\src/tensorflow/lite/kernels/internal\types.h ****   }
 3280                             		.loc 3 198 5
 3281                             	.LBE1306:
 3282                             	.LBE1305:
 318:../src/tensorflow/lite/micro/kernels/conv.cc **** 
 3283                             		.loc 1 318 5
 318:../src/tensorflow/lite/micro/kernels/conv.cc **** 
 3284                             		.loc 1 318 19 is_stmt 0
 3285 05fd E7 01 44                		mov.L	r1, 272[r0]
 321:../src/tensorflow/lite/micro/kernels/conv.cc ****     ctx.buf = nullptr;
 3286                             		.loc 1 321 5 is_stmt 1
 322:../src/tensorflow/lite/micro/kernels/conv.cc ****     ctx.size = 0;
 3287                             		.loc 1 322 5
 322:../src/tensorflow/lite/micro/kernels/conv.cc ****     ctx.size = 0;
 3288                             		.loc 1 322 13 is_stmt 0
 3289 0600 F9 06 51 00             		mov.L	#0, 324[r0]
 323:../src/tensorflow/lite/micro/kernels/conv.cc **** 
 3290                             		.loc 1 323 5 is_stmt 1
 323:../src/tensorflow/lite/micro/kernels/conv.cc **** 
 3291                             		.loc 1 323 14 is_stmt 0
 3292 0604 F9 06 52 00             		mov.L	#0, 328[r0]
 325:../src/tensorflow/lite/micro/kernels/conv.cc ****       ctx.buf = context->GetScratchBuffer(context, data.buffer_idx);
 3293                             		.loc 1 325 5 is_stmt 1
 3294 0608 61 02                   		cmp	#0, r2
 3295 060a 29 0C                   		blt	.L113
 326:../src/tensorflow/lite/micro/kernels/conv.cc ****       // Note: ctx.size is currently not used in cmsis-nn.
 3296                             		.loc 1 326 7
 326:../src/tensorflow/lite/micro/kernels/conv.cc ****       // Note: ctx.size is currently not used in cmsis-nn.
 3297                             		.loc 1 326 42 is_stmt 0
 3298 060c ED E7 11                		mov.L	68[r14], r7
 3299 060f EF E1                   		mov.L	r14, r1
 3300                             	.LVL253:
 3301 0611 7F 17                   		jsr	r7
 3302                             	.LVL254:
 326:../src/tensorflow/lite/micro/kernels/conv.cc ****       // Note: ctx.size is currently not used in cmsis-nn.
 3303                             		.loc 1 326 15
 3304 0613 E7 01 51                		mov.L	r1, 324[r0]
 3305                             		.balign 8,3,1
 3306                             	.L113:
 334:../src/tensorflow/lite/micro/kernels/conv.cc ****         arm_convolve_wrapper_s8(
 3307                             		.loc 1 334 5 is_stmt 1
 3308                             	.LVL255:
 3309                             	.LBB1307:
 3310                             	.LBB1308:
  61:C:\Users\a5116938\Desktop\e2_studio_workspace\EEMBC_final\RX65N_Cloud_Kit\src/tensorflow/lite/micro/kernels\kernel_util.h ****   return reinterpret_cast<const T*>(tensor->data.raw);
 3311                             		.loc 5 61 3 is_stmt 0
 3312 0616 61 0C                   		cmp	#0, r12
 3313 0618 3A DC FE                		beq	.L59
 3314                             		.loc 5 62 53
 3315 061b EC CA                   		mov.L	[r12], r10
 3316                             	.LVL256:
 3317                             	.LBE1308:
 3318                             	.LBE1307:
 3319                             	.LBB1309:
 3320                             	.LBB1310:
  61:C:\Users\a5116938\Desktop\e2_studio_workspace\EEMBC_final\RX65N_Cloud_Kit\src/tensorflow/lite/micro/kernels\kernel_util.h ****   return reinterpret_cast<const T*>(tensor->data.raw);
 3321                             		.loc 5 61 3
 3322 061d 61 09                   		cmp	#0, r9
 3323 061f 3A D5 FE                		beq	.L59
 3324                             		.loc 5 62 53
 3325 0622 EC 95                   		mov.L	[r9], r5
 3326                             	.LVL257:
 3327                             	.LBE1310:
 3328                             	.LBE1309:
 3329                             	.LBB1311:
 3330                             	.LBB1312:
 3331 0624 EC 63                   		mov.L	[r6], r3
 3332                             	.LVL258:
 3333                             	.LBE1312:
 3334                             	.LBE1311:
 3335                             	.LBB1313:
 3336                             	.LBB1314:
  55:C:\Users\a5116938\Desktop\e2_studio_workspace\EEMBC_final\RX65N_Cloud_Kit\src/tensorflow/lite/micro/kernels\kernel_util.h **** }
 3337                             		.loc 5 55 28
 3338 0626 61 08                   		cmp	#0, r8
 3339 0628 13                      		beq	.L66
 3340 0629 EC 88                   		mov.L	[r8], r8
 3341                             	.LVL259:
 3342                             		.balign 8,3,3
 3343                             	.L66:
 3344                             	.LBE1314:
 3345                             	.LBE1313:
 334:../src/tensorflow/lite/micro/kernels/conv.cc ****         arm_convolve_wrapper_s8(
 3346                             		.loc 1 334 5
 3347 062b 72 02 04 01             		add	#0x104, r0, r2
 3348 062f 72 04 14 01             		add	#0x114, r0, r4
 3349 0633 72 07 24 01             		add	#0x124, r0, r7
 3350 0637 E7 08 06                		mov.L	r8, 24[r0]
 3351 063a A1 0A                   		mov.L	r2, 20[r0]
 3352 063c A1 03                   		mov.L	r3, 16[r0]
 3353 063e A0 8C                   		mov.L	r4, 12[r0]
 3354 0640 A0 85                   		mov.L	r5, 8[r0]
 3355 0642 E3 0A                   		mov.L	r10, [r0]
 3356 0644 A0 0F                   		mov.L	r7, 4[r0]
 3357 0646 72 04 34 01             		add	#0x134, r0, r4
 3358 064a 72 03 4C 01             		add	#0x14c, r0, r3
 3359 064e 75 42 1C                		mov.L	#28, r2
 3360 0651 4B 02                   		add	r0, r2
 3361 0653 72 01 44 01             		add	#0x144, r0, r1
 3362 0657 05 00 00 00             		bsr	_arm_convolve_wrapper_s8
 3363                             	.LVL260:
 3364 065b 61 01                   		cmp	#0, r1
 3365 065d 3B 97 FE                		bne	.L59
 3366                             	.LVL261:
 3367                             	.LBB1315:
 3368                             	.LBB1316:
 185:C:\Users\a5116938\Desktop\e2_studio_workspace\EEMBC_final\RX65N_Cloud_Kit\src/tensorflow/lite/kernels/internal\types.h **** #ifdef TF_LITE_STATIC_MEMORY
 3369                             		.loc 3 185 5 is_stmt 1
 3370 0660 ED 07 29                		mov.L	164[r0], r7
 3371 0663 61 57                   		cmp	#5, r7
 3372 0665 2B 0C                   		ble	.L67
 189:C:\Users\a5116938\Desktop\e2_studio_workspace\EEMBC_final\RX65N_Cloud_Kit\src/tensorflow/lite/kernels/internal\types.h **** #endif  // TF_LITE_STATIC_MEMORY
 3373                             		.loc 3 189 7
 189:C:\Users\a5116938\Desktop\e2_studio_workspace\EEMBC_final\RX65N_Cloud_Kit\src/tensorflow/lite/kernels/internal\types.h **** #endif  // TF_LITE_STATIC_MEMORY
 3374                             		.loc 3 189 16 is_stmt 0
 3375 0667 ED 01 2A                		mov.L	168[r0], r1
 189:C:\Users\a5116938\Desktop\e2_studio_workspace\EEMBC_final\RX65N_Cloud_Kit\src/tensorflow/lite/kernels/internal\types.h **** #endif  // TF_LITE_STATIC_MEMORY
 3376                             		.loc 3 189 29
 3377 066a 61 01                   		cmp	#0, r1
 3378 066c 15                      		beq	.L67
 189:C:\Users\a5116938\Desktop\e2_studio_workspace\EEMBC_final\RX65N_Cloud_Kit\src/tensorflow/lite/kernels/internal\types.h **** #endif  // TF_LITE_STATIC_MEMORY
 3379                             		.loc 3 189 16
 3380 066d 05 00 00 00             		bsr	__ZdaPv
 3381                             	.LVL262:
 3382                             		.balign 8,3,2
 3383                             	.L67:
 3384                             	.LBE1316:
 3385                             	.LBE1315:
 3386                             	.LBB1317:
 3387                             	.LBB1318:
 185:C:\Users\a5116938\Desktop\e2_studio_workspace\EEMBC_final\RX65N_Cloud_Kit\src/tensorflow/lite/kernels/internal\types.h **** #ifdef TF_LITE_STATIC_MEMORY
 3388                             		.loc 3 185 5 is_stmt 1
 3389 0671 ED 07 2F                		mov.L	188[r0], r7
 3390 0674 61 57                   		cmp	#5, r7
 3391 0676 2B 0C                   		ble	.L68
 189:C:\Users\a5116938\Desktop\e2_studio_workspace\EEMBC_final\RX65N_Cloud_Kit\src/tensorflow/lite/kernels/internal\types.h **** #endif  // TF_LITE_STATIC_MEMORY
 3392                             		.loc 3 189 7
 189:C:\Users\a5116938\Desktop\e2_studio_workspace\EEMBC_final\RX65N_Cloud_Kit\src/tensorflow/lite/kernels/internal\types.h **** #endif  // TF_LITE_STATIC_MEMORY
 3393                             		.loc 3 189 16 is_stmt 0
 3394 0678 ED 01 30                		mov.L	192[r0], r1
 189:C:\Users\a5116938\Desktop\e2_studio_workspace\EEMBC_final\RX65N_Cloud_Kit\src/tensorflow/lite/kernels/internal\types.h **** #endif  // TF_LITE_STATIC_MEMORY
 3395                             		.loc 3 189 29
 3396 067b 61 01                   		cmp	#0, r1
 3397 067d 15                      		beq	.L68
 189:C:\Users\a5116938\Desktop\e2_studio_workspace\EEMBC_final\RX65N_Cloud_Kit\src/tensorflow/lite/kernels/internal\types.h **** #endif  // TF_LITE_STATIC_MEMORY
 3398                             		.loc 3 189 16
 3399 067e 05 00 00 00             		bsr	__ZdaPv
 3400                             	.LVL263:
 3401                             		.balign 8,3,2
 3402                             	.L68:
 3403                             	.LBE1318:
 3404                             	.LBE1317:
 3405                             	.LBB1319:
 3406                             	.LBB1320:
 185:C:\Users\a5116938\Desktop\e2_studio_workspace\EEMBC_final\RX65N_Cloud_Kit\src/tensorflow/lite/kernels/internal\types.h **** #ifdef TF_LITE_STATIC_MEMORY
 3407                             		.loc 3 185 5 is_stmt 1
 3408 0682 ED 07 35                		mov.L	212[r0], r7
 3409 0685 61 57                   		cmp	#5, r7
 3410 0687 2B 0C                   		ble	.L69
 189:C:\Users\a5116938\Desktop\e2_studio_workspace\EEMBC_final\RX65N_Cloud_Kit\src/tensorflow/lite/kernels/internal\types.h **** #endif  // TF_LITE_STATIC_MEMORY
 3411                             		.loc 3 189 7
 189:C:\Users\a5116938\Desktop\e2_studio_workspace\EEMBC_final\RX65N_Cloud_Kit\src/tensorflow/lite/kernels/internal\types.h **** #endif  // TF_LITE_STATIC_MEMORY
 3412                             		.loc 3 189 16 is_stmt 0
 3413 0689 ED 01 36                		mov.L	216[r0], r1
 189:C:\Users\a5116938\Desktop\e2_studio_workspace\EEMBC_final\RX65N_Cloud_Kit\src/tensorflow/lite/kernels/internal\types.h **** #endif  // TF_LITE_STATIC_MEMORY
 3414                             		.loc 3 189 29
 3415 068c 61 01                   		cmp	#0, r1
 3416 068e 15                      		beq	.L69
 189:C:\Users\a5116938\Desktop\e2_studio_workspace\EEMBC_final\RX65N_Cloud_Kit\src/tensorflow/lite/kernels/internal\types.h **** #endif  // TF_LITE_STATIC_MEMORY
 3417                             		.loc 3 189 16
 3418 068f 05 00 00 00             		bsr	__ZdaPv
 3419                             	.LVL264:
 3420                             		.balign 8,3,2
 3421                             	.L69:
 3422                             	.LBE1320:
 3423                             	.LBE1319:
 3424                             	.LBB1321:
 3425                             	.LBB1322:
 185:C:\Users\a5116938\Desktop\e2_studio_workspace\EEMBC_final\RX65N_Cloud_Kit\src/tensorflow/lite/kernels/internal\types.h **** #ifdef TF_LITE_STATIC_MEMORY
 3426                             		.loc 3 185 5 is_stmt 1
 3427 0693 ED 07 3B                		mov.L	236[r0], r7
 3428 0696 61 57                   		cmp	#5, r7
 3429 0698 2A 05 38 0A FE          		ble	.L152
 189:C:\Users\a5116938\Desktop\e2_studio_workspace\EEMBC_final\RX65N_Cloud_Kit\src/tensorflow/lite/kernels/internal\types.h **** #endif  // TF_LITE_STATIC_MEMORY
 3430                             		.loc 3 189 7
 189:C:\Users\a5116938\Desktop\e2_studio_workspace\EEMBC_final\RX65N_Cloud_Kit\src/tensorflow/lite/kernels/internal\types.h **** #endif  // TF_LITE_STATIC_MEMORY
 3431                             		.loc 3 189 16 is_stmt 0
 3432 069d ED 01 3C                		mov.L	240[r0], r1
 189:C:\Users\a5116938\Desktop\e2_studio_workspace\EEMBC_final\RX65N_Cloud_Kit\src/tensorflow/lite/kernels/internal\types.h **** #endif  // TF_LITE_STATIC_MEMORY
 3433                             		.loc 3 189 29
 3434 06a0 61 01                   		cmp	#0, r1
 3435 06a2 3B FE FD                		bne	.L197
 3436 06a5 38 FF FD                		bra	.L152
 3437                             	.LVL265:
 3438                             	.L127:
 3439                             	.LBE1322:
 3440                             	.LBE1321:
 3441                             	.LBE1331:
 3442                             	.LBB1332:
 3443                             	.LBB1246:
 3444                             	.LBB1220:
 3445                             	.LBB1202:
 3446                             	.LBB954:
 272:C:\Users\a5116938\Desktop\e2_studio_workspace\EEMBC_final\RX65N_Cloud_Kit\src/tensorflow/lite/kernels/internal\types.h ****     const int* dims_data = reinterpret_cast<const int*>(DimsData());
 3447                             		.loc 3 272 9
 3448 06a8 66 1A                   		mov.L	#1, r10
 3449 06aa 38 69 FA                		bra	.L76
 3450                             	.LVL266:
 3451                             	.L204:
 3452                             	.LBE954:
 3453                             	.LBE1202:
 3454                             	.LBE1220:
 3455                             	.LBE1246:
 3456                             	.LBE1332:
 3457                             	.LBB1333:
 3458                             	.LBB1323:
 3459                             	.LBB1294:
 3460                             	.LBB1293:
 3461                             	.LBB1289:
 214:C:\Users\a5116938\Desktop\e2_studio_workspace\EEMBC_final\RX65N_Cloud_Kit\src/tensorflow/lite/kernels/internal\types.h ****   }
 3462                             		.loc 3 214 34
 3463 06ad ED 02 2A                		mov.L	168[r0], r2
 3464                             	.LVL267:
 3465                             	.LBE1289:
 3466                             	.LBE1293:
 274:C:\Users\a5116938\Desktop\e2_studio_workspace\EEMBC_final\RX65N_Cloud_Kit\src/tensorflow/lite/kernels/internal\types.h ****       buffer_size *= dims_data[i];
 3467                             		.loc 3 274 5 is_stmt 1
 3468 06b0 38 02 FF                		bra	.L63
 3469                             	.LVL268:
 3470                             	.L203:
 3471                             	.LBE1294:
 3472                             	.LBE1323:
 3473                             	.LBE1333:
 3474                             	.LBB1334:
 3475                             	.LBB1247:
 3476                             	.LBB1221:
 3477                             	.LBB1203:
 3478                             	.LBB1189:
 3479                             	.LBB1177:
 3480                             	.LBB1164:
 3481                             	.LBB1151:
 3482                             	.LBB1138:
 3483                             	.LBB1124:
 3484                             	.LBB1109:
 3485                             	.LBB1009:
 3486                             	.LBB1003:
 3487                             	.LBB994:
 370:C:\Users\a5116938\Desktop\e2_studio_workspace\EEMBC_final\RX65N_Cloud_Kit\src\third_party\gemmlowp/fixedpoint\fixedpoint.h ****   const IntegerType mask = Dup<IntegerType>((1ll << exponent) - 1);
 3488                             		.loc 7 370 3 is_stmt 0
 3489 06b3 FB 42 00 00 00 00       		mov.L	#.LC7, r4
 3490 06b9 FB 32 00 00 00 00       		mov.L	#.LANCHOR0, r3
 3491 06bf FB 2A 72 01             		mov.L	#0x172, r2
 3492 06c3 FB 12 0F 00 00 00       		mov.L	#.LC8, r1
 3493 06c9 05 00 00 00             		bsr	___assert_func
 3494                             	.LVL269:
 3495                             	.LBE994:
 3496                             	.LBE1003:
 3497                             	.LBE1009:
 3498                             	.LBE1109:
 3499                             	.LBE1124:
 3500                             	.LBE1138:
 3501                             	.LBE1151:
 3502                             	.LBE1164:
 3503                             	.LBE1177:
 3504                             	.LBE1189:
 3505                             	.LBE1203:
 3506                             	.LBE1221:
 3507                             	.LBE1247:
 3508                             	.LBE1334:
 3509                             	.LBE1355:
 3510                             	.LFE2810:
 3512 06cd FC 13 00                		.section	.text._ZN6tflite12_GLOBAL__N_14EvalEP13TfLiteContextP10TfLiteNode,"ax",@progbits
 3514                             	__ZN6tflite12_GLOBAL__N_14EvalEP13TfLiteContextP10TfLiteNode:
 3515                             	.LFB2263:
 369:../src/tensorflow/lite/micro/kernels/conv.cc **** 
 370:../src/tensorflow/lite/micro/kernels/conv.cc **** TfLiteStatus EvalFloat(TfLiteContext* context, TfLiteNode* node,
 371:../src/tensorflow/lite/micro/kernels/conv.cc ****                        TfLiteConvParams* params, const OpData& data,
 372:../src/tensorflow/lite/micro/kernels/conv.cc ****                        const TfLiteEvalTensor* input,
 373:../src/tensorflow/lite/micro/kernels/conv.cc ****                        const TfLiteEvalTensor* filter,
 374:../src/tensorflow/lite/micro/kernels/conv.cc ****                        const TfLiteEvalTensor* bias, TfLiteEvalTensor* im2col,
 375:../src/tensorflow/lite/micro/kernels/conv.cc ****                        TfLiteEvalTensor* hwcn_weights,
 376:../src/tensorflow/lite/micro/kernels/conv.cc ****                        TfLiteEvalTensor* output) {
 377:../src/tensorflow/lite/micro/kernels/conv.cc ****   float output_activation_min, output_activation_max;
 378:../src/tensorflow/lite/micro/kernels/conv.cc ****   CalculateActivationRange(params->activation, &output_activation_min,
 379:../src/tensorflow/lite/micro/kernels/conv.cc ****                            &output_activation_max);
 380:../src/tensorflow/lite/micro/kernels/conv.cc ****   // TODO(b/154032858): Investigate removing extra copies.
 381:../src/tensorflow/lite/micro/kernels/conv.cc ****   ConvParams op_params;
 382:../src/tensorflow/lite/micro/kernels/conv.cc ****   op_params.padding_type = RuntimePaddingType(params->padding);
 383:../src/tensorflow/lite/micro/kernels/conv.cc ****   op_params.padding_values.width = data.padding.width;
 384:../src/tensorflow/lite/micro/kernels/conv.cc ****   op_params.padding_values.height = data.padding.height;
 385:../src/tensorflow/lite/micro/kernels/conv.cc ****   op_params.stride_width = params->stride_width;
 386:../src/tensorflow/lite/micro/kernels/conv.cc ****   op_params.stride_height = params->stride_height;
 387:../src/tensorflow/lite/micro/kernels/conv.cc ****   op_params.dilation_width_factor = params->dilation_width_factor;
 388:../src/tensorflow/lite/micro/kernels/conv.cc ****   op_params.dilation_height_factor = params->dilation_height_factor;
 389:../src/tensorflow/lite/micro/kernels/conv.cc ****   op_params.float_activation_min = output_activation_min;
 390:../src/tensorflow/lite/micro/kernels/conv.cc ****   op_params.float_activation_max = output_activation_max;
 391:../src/tensorflow/lite/micro/kernels/conv.cc **** 
 392:../src/tensorflow/lite/micro/kernels/conv.cc ****   reference_ops::Conv(op_params, tflite::micro::GetTensorShape(input),
 393:../src/tensorflow/lite/micro/kernels/conv.cc ****                       tflite::micro::GetTensorData<float>(input),
 394:../src/tensorflow/lite/micro/kernels/conv.cc ****                       tflite::micro::GetTensorShape(filter),
 395:../src/tensorflow/lite/micro/kernels/conv.cc ****                       tflite::micro::GetTensorData<float>(filter),
 396:../src/tensorflow/lite/micro/kernels/conv.cc ****                       tflite::micro::GetTensorShape(bias),
 397:../src/tensorflow/lite/micro/kernels/conv.cc ****                       tflite::micro::GetTensorData<float>(bias),
 398:../src/tensorflow/lite/micro/kernels/conv.cc ****                       tflite::micro::GetTensorShape(output),
 399:../src/tensorflow/lite/micro/kernels/conv.cc ****                       tflite::micro::GetTensorData<float>(output),
 400:../src/tensorflow/lite/micro/kernels/conv.cc ****                       tflite::micro::GetTensorShape(im2col),
 401:../src/tensorflow/lite/micro/kernels/conv.cc ****                       tflite::micro::GetTensorData<float>(im2col));
 402:../src/tensorflow/lite/micro/kernels/conv.cc ****   return kTfLiteOk;
 403:../src/tensorflow/lite/micro/kernels/conv.cc **** }
 404:../src/tensorflow/lite/micro/kernels/conv.cc **** 
 405:../src/tensorflow/lite/micro/kernels/conv.cc **** TfLiteStatus Eval(TfLiteContext* context, TfLiteNode* node) {
 3516                             		.loc 1 405 61 is_stmt 1
 3517                             	.LVL270:
 3518 0000 6E 6D                   		pushm	r6-r13
 3519                             	.LCFI4:
 3520 0002 72 00 28 FE             		add	#-472, r0
 3521                             	.LCFI5:
 406:../src/tensorflow/lite/micro/kernels/conv.cc ****   auto* params = reinterpret_cast<TfLiteConvParams*>(node->builtin_data);
 3522                             		.loc 1 406 3
 3523                             		.loc 1 406 9 is_stmt 0
 3524 0006 ED 29 05                		mov.L	20[r2], r9
 3525                             	.LVL271:
 407:../src/tensorflow/lite/micro/kernels/conv.cc **** 
 408:../src/tensorflow/lite/micro/kernels/conv.cc ****   const TfLiteEvalTensor* input =
 3526                             		.loc 1 408 3 is_stmt 1
  41:C:\Users\a5116938\Desktop\e2_studio_workspace\EEMBC_final\RX65N_Cloud_Kit\src/tensorflow/lite/micro/kernels\kernel_util.h **** }
 3527                             		.loc 5 41 3
 3528                             	.LBB1596:
 3529                             	.LBB1597:
 3530                             	.LBB1598:
  33:C:\Users\a5116938\Desktop\e2_studio_workspace\EEMBC_final\RX65N_Cloud_Kit\src/tensorflow/lite/micro/kernels\kernel_util.h ****   TFLITE_DCHECK(node != nullptr);
 3531                             		.loc 5 33 3
 3532 0009 61 01                   		cmp	#0, r1
 3533 000b 3A DD 00                		beq	.L208
 3534 000e EF 2C                   		mov.L	r2, r12
 3535 0010 EF 1B                   		mov.L	r1, r11
  34:C:\Users\a5116938\Desktop\e2_studio_workspace\EEMBC_final\RX65N_Cloud_Kit\src/tensorflow/lite/micro/kernels\kernel_util.h ****   return context->GetEvalTensor(context, node->inputs->data[index]);
 3536                             		.loc 5 34 3
  35:C:\Users\a5116938\Desktop\e2_studio_workspace\EEMBC_final\RX65N_Cloud_Kit\src/tensorflow/lite/micro/kernels\kernel_util.h **** }
 3537                             		.loc 5 35 3
  35:C:\Users\a5116938\Desktop\e2_studio_workspace\EEMBC_final\RX65N_Cloud_Kit\src/tensorflow/lite/micro/kernels\kernel_util.h **** }
 3538                             		.loc 5 35 32 is_stmt 0
 3539 0012 EC 2A                   		mov.L	[r2], r10
 3540 0014 AD 1F                   		mov.L	84[r1], r7
 3541 0016 ED A2 01                		mov.L	4[r10], r2
 3542                             	.LVL272:
 3543 0019 7F 17                   		jsr	r7
 3544                             	.LVL273:
 3545 001b EF 17                   		mov.L	r1, r7
 3546                             	.LVL274:
 3547                             	.LBE1598:
 3548                             	.LBE1597:
 3549                             	.LBE1596:
 409:../src/tensorflow/lite/micro/kernels/conv.cc ****       tflite::micro::GetEvalInput(context, node, kInputTensor);
 410:../src/tensorflow/lite/micro/kernels/conv.cc ****   const TfLiteEvalTensor* filter =
 3550                             		.loc 1 410 3 is_stmt 1
  41:C:\Users\a5116938\Desktop\e2_studio_workspace\EEMBC_final\RX65N_Cloud_Kit\src/tensorflow/lite/micro/kernels\kernel_util.h **** }
 3551                             		.loc 5 41 3
 3552                             	.LBB1603:
 3553                             	.LBB1604:
 3554                             	.LBB1605:
  33:C:\Users\a5116938\Desktop\e2_studio_workspace\EEMBC_final\RX65N_Cloud_Kit\src/tensorflow/lite/micro/kernels\kernel_util.h ****   TFLITE_DCHECK(node != nullptr);
 3555                             		.loc 5 33 3
  34:C:\Users\a5116938\Desktop\e2_studio_workspace\EEMBC_final\RX65N_Cloud_Kit\src/tensorflow/lite/micro/kernels\kernel_util.h ****   return context->GetEvalTensor(context, node->inputs->data[index]);
 3556                             		.loc 5 34 3
  35:C:\Users\a5116938\Desktop\e2_studio_workspace\EEMBC_final\RX65N_Cloud_Kit\src/tensorflow/lite/micro/kernels\kernel_util.h **** }
 3557                             		.loc 5 35 3
  35:C:\Users\a5116938\Desktop\e2_studio_workspace\EEMBC_final\RX65N_Cloud_Kit\src/tensorflow/lite/micro/kernels\kernel_util.h **** }
 3558                             		.loc 5 35 32 is_stmt 0
 3559 001d EC C5                   		mov.L	[r12], r5
 3560 001f ED BA 15                		mov.L	84[r11], r10
 3561 0022 EF B1                   		mov.L	r11, r1
 3562                             	.LVL275:
 3563 0024 A8 D2                   		mov.L	8[r5], r2
 3564 0026 7F 1A                   		jsr	r10
 3565                             	.LVL276:
 3566 0028 EF 1A                   		mov.L	r1, r10
 3567                             	.LVL277:
 3568                             	.LBE1605:
 3569                             	.LBE1604:
 3570                             	.LBE1603:
 411:../src/tensorflow/lite/micro/kernels/conv.cc ****       tflite::micro::GetEvalInput(context, node, kFilterTensor);
 412:../src/tensorflow/lite/micro/kernels/conv.cc ****   const TfLiteEvalTensor* bias =
 3571                             		.loc 1 412 3 is_stmt 1
 413:../src/tensorflow/lite/micro/kernels/conv.cc ****       (NumInputs(node) == 3)
 3572                             		.loc 1 413 17 is_stmt 0
 3573 002a EC C5                   		mov.L	[r12], r5
 3574                             	.LVL278:
 3575                             	.LBB1606:
 3576                             	.LBB1607:
 3577                             		.file 10 "C:\\Users\\a5116938\\Desktop\\e2_studio_workspace\\EEMBC_final\\RX65N_Cloud_Kit\\src/ten
   1:C:\Users\a5116938\Desktop\e2_studio_workspace\EEMBC_final\RX65N_Cloud_Kit\src/tensorflow/lite/kernels\kernel_util.h **** /* Copyright 2017 The TensorFlow Authors. All Rights Reserved.
   2:C:\Users\a5116938\Desktop\e2_studio_workspace\EEMBC_final\RX65N_Cloud_Kit\src/tensorflow/lite/kernels\kernel_util.h **** 
   3:C:\Users\a5116938\Desktop\e2_studio_workspace\EEMBC_final\RX65N_Cloud_Kit\src/tensorflow/lite/kernels\kernel_util.h **** Licensed under the Apache License, Version 2.0 (the "License");
   4:C:\Users\a5116938\Desktop\e2_studio_workspace\EEMBC_final\RX65N_Cloud_Kit\src/tensorflow/lite/kernels\kernel_util.h **** you may not use this file except in compliance with the License.
   5:C:\Users\a5116938\Desktop\e2_studio_workspace\EEMBC_final\RX65N_Cloud_Kit\src/tensorflow/lite/kernels\kernel_util.h **** You may obtain a copy of the License at
   6:C:\Users\a5116938\Desktop\e2_studio_workspace\EEMBC_final\RX65N_Cloud_Kit\src/tensorflow/lite/kernels\kernel_util.h **** 
   7:C:\Users\a5116938\Desktop\e2_studio_workspace\EEMBC_final\RX65N_Cloud_Kit\src/tensorflow/lite/kernels\kernel_util.h ****     http://www.apache.org/licenses/LICENSE-2.0
   8:C:\Users\a5116938\Desktop\e2_studio_workspace\EEMBC_final\RX65N_Cloud_Kit\src/tensorflow/lite/kernels\kernel_util.h **** 
   9:C:\Users\a5116938\Desktop\e2_studio_workspace\EEMBC_final\RX65N_Cloud_Kit\src/tensorflow/lite/kernels\kernel_util.h **** Unless required by applicable law or agreed to in writing, software
  10:C:\Users\a5116938\Desktop\e2_studio_workspace\EEMBC_final\RX65N_Cloud_Kit\src/tensorflow/lite/kernels\kernel_util.h **** distributed under the License is distributed on an "AS IS" BASIS,
  11:C:\Users\a5116938\Desktop\e2_studio_workspace\EEMBC_final\RX65N_Cloud_Kit\src/tensorflow/lite/kernels\kernel_util.h **** WITHOUT WARRANTIES OR CONDITIONS OF ANY KIND, either express or implied.
  12:C:\Users\a5116938\Desktop\e2_studio_workspace\EEMBC_final\RX65N_Cloud_Kit\src/tensorflow/lite/kernels\kernel_util.h **** See the License for the specific language governing permissions and
  13:C:\Users\a5116938\Desktop\e2_studio_workspace\EEMBC_final\RX65N_Cloud_Kit\src/tensorflow/lite/kernels\kernel_util.h **** limitations under the License.
  14:C:\Users\a5116938\Desktop\e2_studio_workspace\EEMBC_final\RX65N_Cloud_Kit\src/tensorflow/lite/kernels\kernel_util.h **** ==============================================================================*/
  15:C:\Users\a5116938\Desktop\e2_studio_workspace\EEMBC_final\RX65N_Cloud_Kit\src/tensorflow/lite/kernels\kernel_util.h **** #ifndef TENSORFLOW_LITE_KERNELS_KERNEL_UTIL_H_
  16:C:\Users\a5116938\Desktop\e2_studio_workspace\EEMBC_final\RX65N_Cloud_Kit\src/tensorflow/lite/kernels\kernel_util.h **** #define TENSORFLOW_LITE_KERNELS_KERNEL_UTIL_H_
  17:C:\Users\a5116938\Desktop\e2_studio_workspace\EEMBC_final\RX65N_Cloud_Kit\src/tensorflow/lite/kernels\kernel_util.h **** 
  18:C:\Users\a5116938\Desktop\e2_studio_workspace\EEMBC_final\RX65N_Cloud_Kit\src/tensorflow/lite/kernels\kernel_util.h **** #include <stdint.h>
  19:C:\Users\a5116938\Desktop\e2_studio_workspace\EEMBC_final\RX65N_Cloud_Kit\src/tensorflow/lite/kernels\kernel_util.h **** 
  20:C:\Users\a5116938\Desktop\e2_studio_workspace\EEMBC_final\RX65N_Cloud_Kit\src/tensorflow/lite/kernels\kernel_util.h **** #include <limits>
  21:C:\Users\a5116938\Desktop\e2_studio_workspace\EEMBC_final\RX65N_Cloud_Kit\src/tensorflow/lite/kernels\kernel_util.h **** 
  22:C:\Users\a5116938\Desktop\e2_studio_workspace\EEMBC_final\RX65N_Cloud_Kit\src/tensorflow/lite/kernels\kernel_util.h **** #include "tensorflow/lite/c/builtin_op_data.h"
  23:C:\Users\a5116938\Desktop\e2_studio_workspace\EEMBC_final\RX65N_Cloud_Kit\src/tensorflow/lite/kernels\kernel_util.h **** #include "tensorflow/lite/c/common.h"
  24:C:\Users\a5116938\Desktop\e2_studio_workspace\EEMBC_final\RX65N_Cloud_Kit\src/tensorflow/lite/kernels\kernel_util.h **** 
  25:C:\Users\a5116938\Desktop\e2_studio_workspace\EEMBC_final\RX65N_Cloud_Kit\src/tensorflow/lite/kernels\kernel_util.h **** namespace tflite {
  26:C:\Users\a5116938\Desktop\e2_studio_workspace\EEMBC_final\RX65N_Cloud_Kit\src/tensorflow/lite/kernels\kernel_util.h **** 
  27:C:\Users\a5116938\Desktop\e2_studio_workspace\EEMBC_final\RX65N_Cloud_Kit\src/tensorflow/lite/kernels\kernel_util.h **** // A fair number of functions in this header have historically been inline.
  28:C:\Users\a5116938\Desktop\e2_studio_workspace\EEMBC_final\RX65N_Cloud_Kit\src/tensorflow/lite/kernels\kernel_util.h **** // It is ok to change functions to not be inline if the latency with
  29:C:\Users\a5116938\Desktop\e2_studio_workspace\EEMBC_final\RX65N_Cloud_Kit\src/tensorflow/lite/kernels\kernel_util.h **** // benchmark_model for MobileNet + MobileBERT is unaffected. If such a change is
  30:C:\Users\a5116938\Desktop\e2_studio_workspace\EEMBC_final\RX65N_Cloud_Kit\src/tensorflow/lite/kernels\kernel_util.h **** // made, move the newly non-inlined function declarations to the top of this
  31:C:\Users\a5116938\Desktop\e2_studio_workspace\EEMBC_final\RX65N_Cloud_Kit\src/tensorflow/lite/kernels\kernel_util.h **** // header file.
  32:C:\Users\a5116938\Desktop\e2_studio_workspace\EEMBC_final\RX65N_Cloud_Kit\src/tensorflow/lite/kernels\kernel_util.h **** 
  33:C:\Users\a5116938\Desktop\e2_studio_workspace\EEMBC_final\RX65N_Cloud_Kit\src/tensorflow/lite/kernels\kernel_util.h **** // Note: You must check if result is not null:
  34:C:\Users\a5116938\Desktop\e2_studio_workspace\EEMBC_final\RX65N_Cloud_Kit\src/tensorflow/lite/kernels\kernel_util.h **** //
  35:C:\Users\a5116938\Desktop\e2_studio_workspace\EEMBC_final\RX65N_Cloud_Kit\src/tensorflow/lite/kernels\kernel_util.h **** //   TfLiteTensor* my_tensor = GetInput(context, node, kMyTensorIdx);
  36:C:\Users\a5116938\Desktop\e2_studio_workspace\EEMBC_final\RX65N_Cloud_Kit\src/tensorflow/lite/kernels\kernel_util.h **** //   TF_LITE_ENSURE(context, my_tensor != nullptr);
  37:C:\Users\a5116938\Desktop\e2_studio_workspace\EEMBC_final\RX65N_Cloud_Kit\src/tensorflow/lite/kernels\kernel_util.h **** //
  38:C:\Users\a5116938\Desktop\e2_studio_workspace\EEMBC_final\RX65N_Cloud_Kit\src/tensorflow/lite/kernels\kernel_util.h **** // This is because the index might point to the optional tensor constant
  39:C:\Users\a5116938\Desktop\e2_studio_workspace\EEMBC_final\RX65N_Cloud_Kit\src/tensorflow/lite/kernels\kernel_util.h **** // (kTfLiteOptionalTensor) in which case there is no tensor to return.
  40:C:\Users\a5116938\Desktop\e2_studio_workspace\EEMBC_final\RX65N_Cloud_Kit\src/tensorflow/lite/kernels\kernel_util.h **** const TfLiteTensor* GetInput(const TfLiteContext* context,
  41:C:\Users\a5116938\Desktop\e2_studio_workspace\EEMBC_final\RX65N_Cloud_Kit\src/tensorflow/lite/kernels\kernel_util.h ****                              const TfLiteNode* node, int index);
  42:C:\Users\a5116938\Desktop\e2_studio_workspace\EEMBC_final\RX65N_Cloud_Kit\src/tensorflow/lite/kernels\kernel_util.h **** 
  43:C:\Users\a5116938\Desktop\e2_studio_workspace\EEMBC_final\RX65N_Cloud_Kit\src/tensorflow/lite/kernels\kernel_util.h **** // Same as `GetInput` but returns boolean and uses output argument for tensor.
  44:C:\Users\a5116938\Desktop\e2_studio_workspace\EEMBC_final\RX65N_Cloud_Kit\src/tensorflow/lite/kernels\kernel_util.h **** //
  45:C:\Users\a5116938\Desktop\e2_studio_workspace\EEMBC_final\RX65N_Cloud_Kit\src/tensorflow/lite/kernels\kernel_util.h **** //   TfLiteTensor* my_tensor;
  46:C:\Users\a5116938\Desktop\e2_studio_workspace\EEMBC_final\RX65N_Cloud_Kit\src/tensorflow/lite/kernels\kernel_util.h **** //   TF_LITE_ENSURE_OK(context,
  47:C:\Users\a5116938\Desktop\e2_studio_workspace\EEMBC_final\RX65N_Cloud_Kit\src/tensorflow/lite/kernels\kernel_util.h **** //                     GetInputSafe(context, node, kMyTensorIdx, &my_tensor));
  48:C:\Users\a5116938\Desktop\e2_studio_workspace\EEMBC_final\RX65N_Cloud_Kit\src/tensorflow/lite/kernels\kernel_util.h **** //   // can use my_tensor directly from here onwards, it is not nullptr
  49:C:\Users\a5116938\Desktop\e2_studio_workspace\EEMBC_final\RX65N_Cloud_Kit\src/tensorflow/lite/kernels\kernel_util.h **** //
  50:C:\Users\a5116938\Desktop\e2_studio_workspace\EEMBC_final\RX65N_Cloud_Kit\src/tensorflow/lite/kernels\kernel_util.h **** // Should be used in cases where the binary size is too large.
  51:C:\Users\a5116938\Desktop\e2_studio_workspace\EEMBC_final\RX65N_Cloud_Kit\src/tensorflow/lite/kernels\kernel_util.h **** TfLiteStatus GetInputSafe(const TfLiteContext* context, const TfLiteNode* node,
  52:C:\Users\a5116938\Desktop\e2_studio_workspace\EEMBC_final\RX65N_Cloud_Kit\src/tensorflow/lite/kernels\kernel_util.h ****                           int index, const TfLiteTensor** tensor);
  53:C:\Users\a5116938\Desktop\e2_studio_workspace\EEMBC_final\RX65N_Cloud_Kit\src/tensorflow/lite/kernels\kernel_util.h **** 
  54:C:\Users\a5116938\Desktop\e2_studio_workspace\EEMBC_final\RX65N_Cloud_Kit\src/tensorflow/lite/kernels\kernel_util.h **** // Note: You must check if result is not null:
  55:C:\Users\a5116938\Desktop\e2_studio_workspace\EEMBC_final\RX65N_Cloud_Kit\src/tensorflow/lite/kernels\kernel_util.h **** //
  56:C:\Users\a5116938\Desktop\e2_studio_workspace\EEMBC_final\RX65N_Cloud_Kit\src/tensorflow/lite/kernels\kernel_util.h **** //   TfLiteTensor* my_tensor = GetVariableInput(context, node, kMyTensorIdx);
  57:C:\Users\a5116938\Desktop\e2_studio_workspace\EEMBC_final\RX65N_Cloud_Kit\src/tensorflow/lite/kernels\kernel_util.h **** //   TF_LITE_ENSURE(context, my_tensor != nullptr);
  58:C:\Users\a5116938\Desktop\e2_studio_workspace\EEMBC_final\RX65N_Cloud_Kit\src/tensorflow/lite/kernels\kernel_util.h **** //
  59:C:\Users\a5116938\Desktop\e2_studio_workspace\EEMBC_final\RX65N_Cloud_Kit\src/tensorflow/lite/kernels\kernel_util.h **** // This is because the index might point to the optional tensor constant
  60:C:\Users\a5116938\Desktop\e2_studio_workspace\EEMBC_final\RX65N_Cloud_Kit\src/tensorflow/lite/kernels\kernel_util.h **** // (kTfLiteOptionalTensor) in which case there is no tensor to return.
  61:C:\Users\a5116938\Desktop\e2_studio_workspace\EEMBC_final\RX65N_Cloud_Kit\src/tensorflow/lite/kernels\kernel_util.h **** TfLiteTensor* GetVariableInput(TfLiteContext* context, const TfLiteNode* node,
  62:C:\Users\a5116938\Desktop\e2_studio_workspace\EEMBC_final\RX65N_Cloud_Kit\src/tensorflow/lite/kernels\kernel_util.h ****                                int index);
  63:C:\Users\a5116938\Desktop\e2_studio_workspace\EEMBC_final\RX65N_Cloud_Kit\src/tensorflow/lite/kernels\kernel_util.h **** 
  64:C:\Users\a5116938\Desktop\e2_studio_workspace\EEMBC_final\RX65N_Cloud_Kit\src/tensorflow/lite/kernels\kernel_util.h **** // Note: You must check if result is not null:
  65:C:\Users\a5116938\Desktop\e2_studio_workspace\EEMBC_final\RX65N_Cloud_Kit\src/tensorflow/lite/kernels\kernel_util.h **** //
  66:C:\Users\a5116938\Desktop\e2_studio_workspace\EEMBC_final\RX65N_Cloud_Kit\src/tensorflow/lite/kernels\kernel_util.h **** //   TfLiteTensor* my_tensor = GetOutput(context, node, kMyTensorIdx);
  67:C:\Users\a5116938\Desktop\e2_studio_workspace\EEMBC_final\RX65N_Cloud_Kit\src/tensorflow/lite/kernels\kernel_util.h **** //   TF_LITE_ENSURE(context, my_tensor != nullptr);
  68:C:\Users\a5116938\Desktop\e2_studio_workspace\EEMBC_final\RX65N_Cloud_Kit\src/tensorflow/lite/kernels\kernel_util.h **** //
  69:C:\Users\a5116938\Desktop\e2_studio_workspace\EEMBC_final\RX65N_Cloud_Kit\src/tensorflow/lite/kernels\kernel_util.h **** // This is because the index might point to the optional tensor constant
  70:C:\Users\a5116938\Desktop\e2_studio_workspace\EEMBC_final\RX65N_Cloud_Kit\src/tensorflow/lite/kernels\kernel_util.h **** // (kTfLiteOptionalTensor) in which case there is no tensor to return.
  71:C:\Users\a5116938\Desktop\e2_studio_workspace\EEMBC_final\RX65N_Cloud_Kit\src/tensorflow/lite/kernels\kernel_util.h **** TfLiteTensor* GetOutput(TfLiteContext* context, const TfLiteNode* node,
  72:C:\Users\a5116938\Desktop\e2_studio_workspace\EEMBC_final\RX65N_Cloud_Kit\src/tensorflow/lite/kernels\kernel_util.h ****                         int index);
  73:C:\Users\a5116938\Desktop\e2_studio_workspace\EEMBC_final\RX65N_Cloud_Kit\src/tensorflow/lite/kernels\kernel_util.h **** 
  74:C:\Users\a5116938\Desktop\e2_studio_workspace\EEMBC_final\RX65N_Cloud_Kit\src/tensorflow/lite/kernels\kernel_util.h **** // Same as `GetOutput` but returns boolean and uses output argument for tensor.
  75:C:\Users\a5116938\Desktop\e2_studio_workspace\EEMBC_final\RX65N_Cloud_Kit\src/tensorflow/lite/kernels\kernel_util.h **** //
  76:C:\Users\a5116938\Desktop\e2_studio_workspace\EEMBC_final\RX65N_Cloud_Kit\src/tensorflow/lite/kernels\kernel_util.h **** //   TfLiteTensor* my_tensor;
  77:C:\Users\a5116938\Desktop\e2_studio_workspace\EEMBC_final\RX65N_Cloud_Kit\src/tensorflow/lite/kernels\kernel_util.h **** //   TF_LITE_ENSURE_OK(context,
  78:C:\Users\a5116938\Desktop\e2_studio_workspace\EEMBC_final\RX65N_Cloud_Kit\src/tensorflow/lite/kernels\kernel_util.h **** //                     GetOutputSafe(context, node, kMyTensorIdx, &my_tensor));
  79:C:\Users\a5116938\Desktop\e2_studio_workspace\EEMBC_final\RX65N_Cloud_Kit\src/tensorflow/lite/kernels\kernel_util.h **** //   // can use my_tensor directly from here onwards, it is not nullptr
  80:C:\Users\a5116938\Desktop\e2_studio_workspace\EEMBC_final\RX65N_Cloud_Kit\src/tensorflow/lite/kernels\kernel_util.h **** //
  81:C:\Users\a5116938\Desktop\e2_studio_workspace\EEMBC_final\RX65N_Cloud_Kit\src/tensorflow/lite/kernels\kernel_util.h **** // Should be used in cases where the binary size is too large.
  82:C:\Users\a5116938\Desktop\e2_studio_workspace\EEMBC_final\RX65N_Cloud_Kit\src/tensorflow/lite/kernels\kernel_util.h **** TfLiteStatus GetOutputSafe(const TfLiteContext* context, const TfLiteNode* node,
  83:C:\Users\a5116938\Desktop\e2_studio_workspace\EEMBC_final\RX65N_Cloud_Kit\src/tensorflow/lite/kernels\kernel_util.h ****                            int index, TfLiteTensor** tensor);
  84:C:\Users\a5116938\Desktop\e2_studio_workspace\EEMBC_final\RX65N_Cloud_Kit\src/tensorflow/lite/kernels\kernel_util.h **** 
  85:C:\Users\a5116938\Desktop\e2_studio_workspace\EEMBC_final\RX65N_Cloud_Kit\src/tensorflow/lite/kernels\kernel_util.h **** // Note: You must check if result is not null:
  86:C:\Users\a5116938\Desktop\e2_studio_workspace\EEMBC_final\RX65N_Cloud_Kit\src/tensorflow/lite/kernels\kernel_util.h **** //
  87:C:\Users\a5116938\Desktop\e2_studio_workspace\EEMBC_final\RX65N_Cloud_Kit\src/tensorflow/lite/kernels\kernel_util.h **** //   TfLiteTensor* my_tensor = GetOptionalInputTensor(context, node, kIdx);
  88:C:\Users\a5116938\Desktop\e2_studio_workspace\EEMBC_final\RX65N_Cloud_Kit\src/tensorflow/lite/kernels\kernel_util.h **** //   TF_LITE_ENSURE(context, my_tensor != nullptr);
  89:C:\Users\a5116938\Desktop\e2_studio_workspace\EEMBC_final\RX65N_Cloud_Kit\src/tensorflow/lite/kernels\kernel_util.h **** //
  90:C:\Users\a5116938\Desktop\e2_studio_workspace\EEMBC_final\RX65N_Cloud_Kit\src/tensorflow/lite/kernels\kernel_util.h **** // This is because the index might point to the optional tensor constant
  91:C:\Users\a5116938\Desktop\e2_studio_workspace\EEMBC_final\RX65N_Cloud_Kit\src/tensorflow/lite/kernels\kernel_util.h **** // (kTfLiteOptionalTensor) in which case there is no tensor to return.
  92:C:\Users\a5116938\Desktop\e2_studio_workspace\EEMBC_final\RX65N_Cloud_Kit\src/tensorflow/lite/kernels\kernel_util.h **** //
  93:C:\Users\a5116938\Desktop\e2_studio_workspace\EEMBC_final\RX65N_Cloud_Kit\src/tensorflow/lite/kernels\kernel_util.h **** // Deprecated. GetInput has the same functionality.
  94:C:\Users\a5116938\Desktop\e2_studio_workspace\EEMBC_final\RX65N_Cloud_Kit\src/tensorflow/lite/kernels\kernel_util.h **** const TfLiteTensor* GetOptionalInputTensor(const TfLiteContext* context,
  95:C:\Users\a5116938\Desktop\e2_studio_workspace\EEMBC_final\RX65N_Cloud_Kit\src/tensorflow/lite/kernels\kernel_util.h ****                                            const TfLiteNode* node, int index);
  96:C:\Users\a5116938\Desktop\e2_studio_workspace\EEMBC_final\RX65N_Cloud_Kit\src/tensorflow/lite/kernels\kernel_util.h **** 
  97:C:\Users\a5116938\Desktop\e2_studio_workspace\EEMBC_final\RX65N_Cloud_Kit\src/tensorflow/lite/kernels\kernel_util.h **** #ifndef TF_LITE_STATIC_MEMORY
  98:C:\Users\a5116938\Desktop\e2_studio_workspace\EEMBC_final\RX65N_Cloud_Kit\src/tensorflow/lite/kernels\kernel_util.h **** // Note: You must check if result is not null:
  99:C:\Users\a5116938\Desktop\e2_studio_workspace\EEMBC_final\RX65N_Cloud_Kit\src/tensorflow/lite/kernels\kernel_util.h **** //
 100:C:\Users\a5116938\Desktop\e2_studio_workspace\EEMBC_final\RX65N_Cloud_Kit\src/tensorflow/lite/kernels\kernel_util.h **** //   TfLiteTensor* my_tensor = GetTemporary(context, node, kMyTensorIdx);
 101:C:\Users\a5116938\Desktop\e2_studio_workspace\EEMBC_final\RX65N_Cloud_Kit\src/tensorflow/lite/kernels\kernel_util.h **** //   TF_LITE_ENSURE(context, my_tensor != nullptr);
 102:C:\Users\a5116938\Desktop\e2_studio_workspace\EEMBC_final\RX65N_Cloud_Kit\src/tensorflow/lite/kernels\kernel_util.h **** //
 103:C:\Users\a5116938\Desktop\e2_studio_workspace\EEMBC_final\RX65N_Cloud_Kit\src/tensorflow/lite/kernels\kernel_util.h **** // This is because the index might point to the optional tensor constant
 104:C:\Users\a5116938\Desktop\e2_studio_workspace\EEMBC_final\RX65N_Cloud_Kit\src/tensorflow/lite/kernels\kernel_util.h **** // (kTfLiteOptionalTensor) in which case there is no tensor to return.
 105:C:\Users\a5116938\Desktop\e2_studio_workspace\EEMBC_final\RX65N_Cloud_Kit\src/tensorflow/lite/kernels\kernel_util.h **** TfLiteTensor* GetTemporary(TfLiteContext* context, const TfLiteNode* node,
 106:C:\Users\a5116938\Desktop\e2_studio_workspace\EEMBC_final\RX65N_Cloud_Kit\src/tensorflow/lite/kernels\kernel_util.h ****                            int index);
 107:C:\Users\a5116938\Desktop\e2_studio_workspace\EEMBC_final\RX65N_Cloud_Kit\src/tensorflow/lite/kernels\kernel_util.h **** 
 108:C:\Users\a5116938\Desktop\e2_studio_workspace\EEMBC_final\RX65N_Cloud_Kit\src/tensorflow/lite/kernels\kernel_util.h **** // Same as `GetTemporary` but returns boolean and uses output argument for
 109:C:\Users\a5116938\Desktop\e2_studio_workspace\EEMBC_final\RX65N_Cloud_Kit\src/tensorflow/lite/kernels\kernel_util.h **** // tensor.
 110:C:\Users\a5116938\Desktop\e2_studio_workspace\EEMBC_final\RX65N_Cloud_Kit\src/tensorflow/lite/kernels\kernel_util.h **** //
 111:C:\Users\a5116938\Desktop\e2_studio_workspace\EEMBC_final\RX65N_Cloud_Kit\src/tensorflow/lite/kernels\kernel_util.h **** //   TfLiteTensor* my_tensor;
 112:C:\Users\a5116938\Desktop\e2_studio_workspace\EEMBC_final\RX65N_Cloud_Kit\src/tensorflow/lite/kernels\kernel_util.h **** //   TF_LITE_ENSURE_OK(context,
 113:C:\Users\a5116938\Desktop\e2_studio_workspace\EEMBC_final\RX65N_Cloud_Kit\src/tensorflow/lite/kernels\kernel_util.h **** //                     GetTemporarySafe(context, node, kMyTensorIdx,
 114:C:\Users\a5116938\Desktop\e2_studio_workspace\EEMBC_final\RX65N_Cloud_Kit\src/tensorflow/lite/kernels\kernel_util.h **** //                     &my_tensor));
 115:C:\Users\a5116938\Desktop\e2_studio_workspace\EEMBC_final\RX65N_Cloud_Kit\src/tensorflow/lite/kernels\kernel_util.h **** //   // can use my_tensor directly from here onwards, it is not nullptr
 116:C:\Users\a5116938\Desktop\e2_studio_workspace\EEMBC_final\RX65N_Cloud_Kit\src/tensorflow/lite/kernels\kernel_util.h **** //
 117:C:\Users\a5116938\Desktop\e2_studio_workspace\EEMBC_final\RX65N_Cloud_Kit\src/tensorflow/lite/kernels\kernel_util.h **** // Should be used in cases where the binary size is too large.
 118:C:\Users\a5116938\Desktop\e2_studio_workspace\EEMBC_final\RX65N_Cloud_Kit\src/tensorflow/lite/kernels\kernel_util.h **** TfLiteStatus GetTemporarySafe(const TfLiteContext* context,
 119:C:\Users\a5116938\Desktop\e2_studio_workspace\EEMBC_final\RX65N_Cloud_Kit\src/tensorflow/lite/kernels\kernel_util.h ****                               const TfLiteNode* node, int index,
 120:C:\Users\a5116938\Desktop\e2_studio_workspace\EEMBC_final\RX65N_Cloud_Kit\src/tensorflow/lite/kernels\kernel_util.h ****                               TfLiteTensor** tensor);
 121:C:\Users\a5116938\Desktop\e2_studio_workspace\EEMBC_final\RX65N_Cloud_Kit\src/tensorflow/lite/kernels\kernel_util.h **** 
 122:C:\Users\a5116938\Desktop\e2_studio_workspace\EEMBC_final\RX65N_Cloud_Kit\src/tensorflow/lite/kernels\kernel_util.h **** // Note: You must check if result is not null:
 123:C:\Users\a5116938\Desktop\e2_studio_workspace\EEMBC_final\RX65N_Cloud_Kit\src/tensorflow/lite/kernels\kernel_util.h **** //
 124:C:\Users\a5116938\Desktop\e2_studio_workspace\EEMBC_final\RX65N_Cloud_Kit\src/tensorflow/lite/kernels\kernel_util.h **** //   TfLiteTensor* my_tensor = GetIntermediates(context, node, kMyTensorIdx);
 125:C:\Users\a5116938\Desktop\e2_studio_workspace\EEMBC_final\RX65N_Cloud_Kit\src/tensorflow/lite/kernels\kernel_util.h **** //   TF_LITE_ENSURE(context, my_tensor != nullptr);
 126:C:\Users\a5116938\Desktop\e2_studio_workspace\EEMBC_final\RX65N_Cloud_Kit\src/tensorflow/lite/kernels\kernel_util.h **** //
 127:C:\Users\a5116938\Desktop\e2_studio_workspace\EEMBC_final\RX65N_Cloud_Kit\src/tensorflow/lite/kernels\kernel_util.h **** // This is because the index might point to the optional tensor constant
 128:C:\Users\a5116938\Desktop\e2_studio_workspace\EEMBC_final\RX65N_Cloud_Kit\src/tensorflow/lite/kernels\kernel_util.h **** // (kTfLiteOptionalTensor) in which case there is no tensor to return.
 129:C:\Users\a5116938\Desktop\e2_studio_workspace\EEMBC_final\RX65N_Cloud_Kit\src/tensorflow/lite/kernels\kernel_util.h **** const TfLiteTensor* GetIntermediates(TfLiteContext* context,
 130:C:\Users\a5116938\Desktop\e2_studio_workspace\EEMBC_final\RX65N_Cloud_Kit\src/tensorflow/lite/kernels\kernel_util.h ****                                      const TfLiteNode* node, int index);
 131:C:\Users\a5116938\Desktop\e2_studio_workspace\EEMBC_final\RX65N_Cloud_Kit\src/tensorflow/lite/kernels\kernel_util.h **** 
 132:C:\Users\a5116938\Desktop\e2_studio_workspace\EEMBC_final\RX65N_Cloud_Kit\src/tensorflow/lite/kernels\kernel_util.h **** // Same as `GetIntermediates` but returns boolean and uses output argument for
 133:C:\Users\a5116938\Desktop\e2_studio_workspace\EEMBC_final\RX65N_Cloud_Kit\src/tensorflow/lite/kernels\kernel_util.h **** // tensor.
 134:C:\Users\a5116938\Desktop\e2_studio_workspace\EEMBC_final\RX65N_Cloud_Kit\src/tensorflow/lite/kernels\kernel_util.h **** //
 135:C:\Users\a5116938\Desktop\e2_studio_workspace\EEMBC_final\RX65N_Cloud_Kit\src/tensorflow/lite/kernels\kernel_util.h **** //   TfLiteTensor* my_tensor;
 136:C:\Users\a5116938\Desktop\e2_studio_workspace\EEMBC_final\RX65N_Cloud_Kit\src/tensorflow/lite/kernels\kernel_util.h **** //   TF_LITE_ENSURE_OK(context,
 137:C:\Users\a5116938\Desktop\e2_studio_workspace\EEMBC_final\RX65N_Cloud_Kit\src/tensorflow/lite/kernels\kernel_util.h **** //                     GetIntermediatesSafe(context, node, kMyTensorIdx,
 138:C:\Users\a5116938\Desktop\e2_studio_workspace\EEMBC_final\RX65N_Cloud_Kit\src/tensorflow/lite/kernels\kernel_util.h **** //                     &my_tensor));
 139:C:\Users\a5116938\Desktop\e2_studio_workspace\EEMBC_final\RX65N_Cloud_Kit\src/tensorflow/lite/kernels\kernel_util.h **** //   // can use my_tensor directly from here onwards, it is not nullptr
 140:C:\Users\a5116938\Desktop\e2_studio_workspace\EEMBC_final\RX65N_Cloud_Kit\src/tensorflow/lite/kernels\kernel_util.h **** //
 141:C:\Users\a5116938\Desktop\e2_studio_workspace\EEMBC_final\RX65N_Cloud_Kit\src/tensorflow/lite/kernels\kernel_util.h **** // Should be used in cases where the binary size is too large.
 142:C:\Users\a5116938\Desktop\e2_studio_workspace\EEMBC_final\RX65N_Cloud_Kit\src/tensorflow/lite/kernels\kernel_util.h **** TfLiteStatus GetIntermediatesSafe(const TfLiteContext* context,
 143:C:\Users\a5116938\Desktop\e2_studio_workspace\EEMBC_final\RX65N_Cloud_Kit\src/tensorflow/lite/kernels\kernel_util.h ****                                   const TfLiteNode* node, int index,
 144:C:\Users\a5116938\Desktop\e2_studio_workspace\EEMBC_final\RX65N_Cloud_Kit\src/tensorflow/lite/kernels\kernel_util.h ****                                   TfLiteTensor** tensor);
 145:C:\Users\a5116938\Desktop\e2_studio_workspace\EEMBC_final\RX65N_Cloud_Kit\src/tensorflow/lite/kernels\kernel_util.h **** #endif  // TF_LITE_STATIC_MEMORY
 146:C:\Users\a5116938\Desktop\e2_studio_workspace\EEMBC_final\RX65N_Cloud_Kit\src/tensorflow/lite/kernels\kernel_util.h **** 
 147:C:\Users\a5116938\Desktop\e2_studio_workspace\EEMBC_final\RX65N_Cloud_Kit\src/tensorflow/lite/kernels\kernel_util.h **** inline int NumDimensions(const TfLiteTensor* t) { return t->dims->size; }
 148:C:\Users\a5116938\Desktop\e2_studio_workspace\EEMBC_final\RX65N_Cloud_Kit\src/tensorflow/lite/kernels\kernel_util.h **** inline int SizeOfDimension(const TfLiteTensor* t, int dim) {
 149:C:\Users\a5116938\Desktop\e2_studio_workspace\EEMBC_final\RX65N_Cloud_Kit\src/tensorflow/lite/kernels\kernel_util.h ****   return t->dims->data[dim];
 150:C:\Users\a5116938\Desktop\e2_studio_workspace\EEMBC_final\RX65N_Cloud_Kit\src/tensorflow/lite/kernels\kernel_util.h **** }
 151:C:\Users\a5116938\Desktop\e2_studio_workspace\EEMBC_final\RX65N_Cloud_Kit\src/tensorflow/lite/kernels\kernel_util.h **** 
 152:C:\Users\a5116938\Desktop\e2_studio_workspace\EEMBC_final\RX65N_Cloud_Kit\src/tensorflow/lite/kernels\kernel_util.h **** inline int NumInputs(const TfLiteNode* node) { return node->inputs->size; }
 3578                             		.loc 10 152 48 is_stmt 1
 3579                             	.LBE1607:
 3580                             	.LBE1606:
 414:../src/tensorflow/lite/micro/kernels/conv.cc ****           ? tflite::micro::GetEvalInput(context, node, kBiasTensor)
 3581                             		.loc 1 414 11 is_stmt 0
 3582 002c EC 54                   		mov.L	[r5], r4
 3583 002e 61 34                   		cmp	#3, r4
 3584 0030 3A 95 00                		beq	.L371
 3585 0033 66 06                   		mov.L	#0, r6
 3586                             	.LVL279:
 415:../src/tensorflow/lite/micro/kernels/conv.cc ****           : nullptr;
 416:../src/tensorflow/lite/micro/kernels/conv.cc ****   TfLiteEvalTensor* output =
 3587                             		.loc 1 416 3 is_stmt 1
 3588                             	.LBB1608:
 3589                             	.LBB1609:
  47:C:\Users\a5116938\Desktop\e2_studio_workspace\EEMBC_final\RX65N_Cloud_Kit\src/tensorflow/lite/micro/kernels\kernel_util.h ****   TFLITE_DCHECK(node != nullptr);
 3590                             		.loc 5 47 3
  48:C:\Users\a5116938\Desktop\e2_studio_workspace\EEMBC_final\RX65N_Cloud_Kit\src/tensorflow/lite/micro/kernels\kernel_util.h ****   return context->GetEvalTensor(context, node->outputs->data[index]);
 3591                             		.loc 5 48 3
  49:C:\Users\a5116938\Desktop\e2_studio_workspace\EEMBC_final\RX65N_Cloud_Kit\src/tensorflow/lite/micro/kernels\kernel_util.h **** }
 3592                             		.loc 5 49 3
  49:C:\Users\a5116938\Desktop\e2_studio_workspace\EEMBC_final\RX65N_Cloud_Kit\src/tensorflow/lite/micro/kernels\kernel_util.h **** }
 3593                             		.loc 5 49 32 is_stmt 0
 3594 0035 ED C4 01                		mov.L	4[r12], r4
 3595 0038 ED B5 15                		mov.L	84[r11], r5
 3596 003b EF B1                   		mov.L	r11, r1
 3597                             	.LVL280:
 3598 003d A8 4A                   		mov.L	4[r4], r2
 3599 003f 7F 15                   		jsr	r5
 3600                             	.LVL281:
 3601 0041 EF 1D                   		mov.L	r1, r13
 3602                             	.LVL282:
 3603                             	.LBE1609:
 3604                             	.LBE1608:
 417:../src/tensorflow/lite/micro/kernels/conv.cc ****       tflite::micro::GetEvalOutput(context, node, kOutputTensor);
 418:../src/tensorflow/lite/micro/kernels/conv.cc **** 
 419:../src/tensorflow/lite/micro/kernels/conv.cc ****   TFLITE_DCHECK(node->user_data != nullptr);
 3605                             		.loc 1 419 3 is_stmt 1
 3606 0043 ED C3 04                		mov.L	16[r12], r3
 3607 0046 61 03                   		cmp	#0, r3
 3608 0048 3A A0 00                		beq	.L208
 3609                             		.balign 8,3,1
 3610                             	.L374:
 420:../src/tensorflow/lite/micro/kernels/conv.cc ****   const OpData& data = *(static_cast<const OpData*>(node->user_data));
 3611                             		.loc 1 420 3
 3612                             	.LVL283:
 421:../src/tensorflow/lite/micro/kernels/conv.cc **** 
 422:../src/tensorflow/lite/micro/kernels/conv.cc ****   TF_LITE_ENSURE_EQ(context, input->type, output->type);
 3613                             		.loc 1 422 3
 3614                             		.loc 1 422 3
 3615 004b A8 F1                   		mov.L	8[r7], r1
 3616                             	.LVL284:
 3617 004d ED D4 02                		mov.L	8[r13], r4
 3618 0050 47 41                   		cmp	r4, r1
 3619 0052 21 1A                   		bne	.L372
 423:../src/tensorflow/lite/micro/kernels/conv.cc ****   TF_LITE_ENSURE_MSG(context, input->type == filter->type,
 3620                             		.loc 1 423 3
 3621                             		.loc 1 423 3
 3622 0054 06 85 A1 02             		cmp	8[r10].L, r1
 3623 0058 20 44                   		beq	.L211
 3624                             		.loc 1 423 3 discriminator 1
 3625                             		.loc 1 423 3 discriminator 1
 3626 005a ED B7 05                		mov.L	20[r11], r7
 3627                             	.LVL285:
 3628 005d F8 02 19 00 00 00       		mov.L	#.LC11, [r0]
 3629 0063 EF B1                   		mov.L	r11, r1
 3630 0065 7F 17                   		jsr	r7
 3631                             	.LVL286:
 3632                             		.loc 1 423 3 discriminator 1
 3633 0067 66 11                   		mov.L	#1, r1
 424:../src/tensorflow/lite/micro/kernels/conv.cc ****                      "Hybrid models are not supported on TFLite Micro.");
 425:../src/tensorflow/lite/micro/kernels/conv.cc **** 
 426:../src/tensorflow/lite/micro/kernels/conv.cc ****   switch (input->type) {  // Already know in/out types are same.
 427:../src/tensorflow/lite/micro/kernels/conv.cc ****     case kTfLiteFloat32:
 428:../src/tensorflow/lite/micro/kernels/conv.cc ****       EvalFloat(context, node, params, data, input, filter, bias, nullptr,
 429:../src/tensorflow/lite/micro/kernels/conv.cc ****                 nullptr, output);
 430:../src/tensorflow/lite/micro/kernels/conv.cc ****       break;
 431:../src/tensorflow/lite/micro/kernels/conv.cc ****     case kTfLiteInt8:
 432:../src/tensorflow/lite/micro/kernels/conv.cc ****       return EvalQuantizedPerChannel(context, node, params, data, input, filter,
 433:../src/tensorflow/lite/micro/kernels/conv.cc ****                                      bias, output, nullptr);
 434:../src/tensorflow/lite/micro/kernels/conv.cc ****       break;
 435:../src/tensorflow/lite/micro/kernels/conv.cc ****     case kTfLiteUInt8:
 436:../src/tensorflow/lite/micro/kernels/conv.cc ****       return EvalQuantized(context, node, params, data, input, filter, bias,
 437:../src/tensorflow/lite/micro/kernels/conv.cc ****                            nullptr, nullptr, output);
 438:../src/tensorflow/lite/micro/kernels/conv.cc ****       break;
 439:../src/tensorflow/lite/micro/kernels/conv.cc ****     default:
 440:../src/tensorflow/lite/micro/kernels/conv.cc ****       TF_LITE_KERNEL_LOG(context, "Type %s (%d) not supported.",
 441:../src/tensorflow/lite/micro/kernels/conv.cc ****                          TfLiteTypeGetName(input->type), input->type);
 442:../src/tensorflow/lite/micro/kernels/conv.cc ****       return kTfLiteError;
 443:../src/tensorflow/lite/micro/kernels/conv.cc ****   }
 444:../src/tensorflow/lite/micro/kernels/conv.cc ****   return kTfLiteOk;
 445:../src/tensorflow/lite/micro/kernels/conv.cc **** }
 3634                             		.loc 1 445 1 is_stmt 0 discriminator 1
 3635 0069 3F 6D 7E                		rtsd	#504, r6-r13
 3636                             	.LVL287:
 3637                             	.L372:
 422:../src/tensorflow/lite/micro/kernels/conv.cc ****   TF_LITE_ENSURE_MSG(context, input->type == filter->type,
 3638                             		.loc 1 422 3 is_stmt 1 discriminator 1
 422:../src/tensorflow/lite/micro/kernels/conv.cc ****   TF_LITE_ENSURE_MSG(context, input->type == filter->type,
 3639                             		.loc 1 422 3 discriminator 1
 3640 006c ED B7 05                		mov.L	20[r11], r7
 3641                             	.LVL288:
 3642 006f A1 84                   		mov.L	r4, 24[r0]
 3643 0071 A1 09                   		mov.L	r1, 20[r0]
 3644 0073 F9 02 04 00 00 00 00    		mov.L	#.LC9, 16[r0]
 3645 007a F9 02 03 0D 00 00 00    		mov.L	#.LC10, 12[r0]
 3646 0081 F9 0A 02 A6 01          		mov.L	#0x1a6, 8[r0]
 3647 0086 F9 02 01 24 00 00 00    		mov.L	#.LC2, 4[r0]
 3648 008d EF B1                   		mov.L	r11, r1
 3649 008f F8 02 7E 00 00 00       		mov.L	#.LC6, [r0]
 3650 0095 7F 17                   		jsr	r7
 3651                             	.LVL289:
 422:../src/tensorflow/lite/micro/kernels/conv.cc ****   TF_LITE_ENSURE_MSG(context, input->type == filter->type,
 3652                             		.loc 1 422 3 discriminator 1
 3653 0097 66 11                   		mov.L	#1, r1
 3654                             		.loc 1 445 1 is_stmt 0 discriminator 1
 3655 0099 3F 6D 7E                		rtsd	#504, r6-r13
 3656                             	.LVL290:
 3657                             	.L211:
 426:../src/tensorflow/lite/micro/kernels/conv.cc ****     case kTfLiteFloat32:
 3658                             		.loc 1 426 3 is_stmt 1
 3659 009c 61 31                   		cmp	#3, r1
 3660 009e 3A 10 03                		beq	.L212
 3661 00a1 61 91                   		cmp	#9, r1
 3662 00a3 20 49                   		beq	.L213
 3663 00a5 61 11                   		cmp	#1, r1
 3664 00a7 20 59                   		beq	.L373
 438:../src/tensorflow/lite/micro/kernels/conv.cc ****     default:
 3665                             		.loc 1 438 7
 439:../src/tensorflow/lite/micro/kernels/conv.cc ****       TF_LITE_KERNEL_LOG(context, "Type %s (%d) not supported.",
 3666                             		.loc 1 439 5
 440:../src/tensorflow/lite/micro/kernels/conv.cc ****                          TfLiteTypeGetName(input->type), input->type);
 3667                             		.loc 1 440 7
 440:../src/tensorflow/lite/micro/kernels/conv.cc ****                          TfLiteTypeGetName(input->type), input->type);
 3668                             		.loc 1 440 7
 3669 00a9 ED BA 05                		mov.L	20[r11], r10
 3670                             	.LVL291:
 3671 00ac 05 00 00 00             		bsr	_TfLiteTypeGetName
 3672                             	.LVL292:
 3673 00b0 E5 70 02 02             		mov.L	8[r7], 8[r0]
 3674 00b4 A0 09                   		mov.L	r1, 4[r0]
 3675 00b6 EF B1                   		mov.L	r11, r1
 3676 00b8 F8 02 77 00 00 00       		mov.L	#.LC12, [r0]
 3677 00be 7F 1A                   		jsr	r10
 3678                             	.LVL293:
 442:../src/tensorflow/lite/micro/kernels/conv.cc ****   }
 3679                             		.loc 1 442 7
 442:../src/tensorflow/lite/micro/kernels/conv.cc ****   }
 3680                             		.loc 1 442 14 is_stmt 0
 3681 00c0 66 11                   		mov.L	#1, r1
 3682                             		.loc 1 445 1
 3683 00c2 3F 6D 7E                		rtsd	#504, r6-r13
 3684                             	.LVL294:
 3685                             	.L371:
  41:C:\Users\a5116938\Desktop\e2_studio_workspace\EEMBC_final\RX65N_Cloud_Kit\src/tensorflow/lite/micro/kernels\kernel_util.h **** }
 3686                             		.loc 5 41 3 is_stmt 1
 3687                             	.LBB1611:
 3688                             	.LBB1612:
 3689                             	.LBB1613:
  33:C:\Users\a5116938\Desktop\e2_studio_workspace\EEMBC_final\RX65N_Cloud_Kit\src/tensorflow/lite/micro/kernels\kernel_util.h ****   TFLITE_DCHECK(node != nullptr);
 3690                             		.loc 5 33 3
  34:C:\Users\a5116938\Desktop\e2_studio_workspace\EEMBC_final\RX65N_Cloud_Kit\src/tensorflow/lite/micro/kernels\kernel_util.h ****   return context->GetEvalTensor(context, node->inputs->data[index]);
 3691                             		.loc 5 34 3
  35:C:\Users\a5116938\Desktop\e2_studio_workspace\EEMBC_final\RX65N_Cloud_Kit\src/tensorflow/lite/micro/kernels\kernel_util.h **** }
 3692                             		.loc 5 35 3
  35:C:\Users\a5116938\Desktop\e2_studio_workspace\EEMBC_final\RX65N_Cloud_Kit\src/tensorflow/lite/micro/kernels\kernel_util.h **** }
 3693                             		.loc 5 35 32 is_stmt 0
 3694 00c5 ED B4 15                		mov.L	84[r11], r4
 3695 00c8 A8 DA                   		mov.L	12[r5], r2
 3696 00ca EF B1                   		mov.L	r11, r1
 3697                             	.LVL295:
 3698 00cc 7F 14                   		jsr	r4
 3699                             	.LVL296:
 3700 00ce EF 16                   		mov.L	r1, r6
 3701                             	.LVL297:
 3702                             	.LBE1613:
 3703                             	.LBE1612:
 3704                             	.LBE1611:
 416:../src/tensorflow/lite/micro/kernels/conv.cc ****       tflite::micro::GetEvalOutput(context, node, kOutputTensor);
 3705                             		.loc 1 416 3 is_stmt 1
 3706                             	.LBB1614:
 3707                             	.LBB1610:
  47:C:\Users\a5116938\Desktop\e2_studio_workspace\EEMBC_final\RX65N_Cloud_Kit\src/tensorflow/lite/micro/kernels\kernel_util.h ****   TFLITE_DCHECK(node != nullptr);
 3708                             		.loc 5 47 3
  48:C:\Users\a5116938\Desktop\e2_studio_workspace\EEMBC_final\RX65N_Cloud_Kit\src/tensorflow/lite/micro/kernels\kernel_util.h ****   return context->GetEvalTensor(context, node->outputs->data[index]);
 3709                             		.loc 5 48 3
  49:C:\Users\a5116938\Desktop\e2_studio_workspace\EEMBC_final\RX65N_Cloud_Kit\src/tensorflow/lite/micro/kernels\kernel_util.h **** }
 3710                             		.loc 5 49 3
  49:C:\Users\a5116938\Desktop\e2_studio_workspace\EEMBC_final\RX65N_Cloud_Kit\src/tensorflow/lite/micro/kernels\kernel_util.h **** }
 3711                             		.loc 5 49 32 is_stmt 0
 3712 00d0 ED C4 01                		mov.L	4[r12], r4
 3713 00d3 ED B5 15                		mov.L	84[r11], r5
 3714 00d6 EF B1                   		mov.L	r11, r1
 3715                             	.LVL298:
 3716 00d8 A8 4A                   		mov.L	4[r4], r2
 3717 00da 7F 15                   		jsr	r5
 3718                             	.LVL299:
 3719 00dc EF 1D                   		mov.L	r1, r13
 3720                             	.LVL300:
 3721                             	.LBE1610:
 3722                             	.LBE1614:
 419:../src/tensorflow/lite/micro/kernels/conv.cc ****   const OpData& data = *(static_cast<const OpData*>(node->user_data));
 3723                             		.loc 1 419 3 is_stmt 1
 3724 00de ED C3 04                		mov.L	16[r12], r3
 3725 00e1 61 03                   		cmp	#0, r3
 3726 00e3 3B 68 FF                		bne	.L374
 3727                             	.LVL301:
 3728 00e6 EF 00                   		.balign 8,3,3
 3729                             	.L208:
 3730                             	.LBB1615:
 3731                             	.LBB1601:
 3732                             	.LBB1599:
  33:C:\Users\a5116938\Desktop\e2_studio_workspace\EEMBC_final\RX65N_Cloud_Kit\src/tensorflow/lite/micro/kernels\kernel_util.h ****   TFLITE_DCHECK(node != nullptr);
 3733                             		.loc 5 33 3 is_stmt 0
 3734 00e8 05 00 00 00             		bsr	_abort
 3735                             	.LVL302:
 3736                             	.L213:
 3737                             	.LBE1599:
 3738                             	.LBE1601:
 3739                             	.LBE1615:
 431:../src/tensorflow/lite/micro/kernels/conv.cc ****       return EvalQuantizedPerChannel(context, node, params, data, input, filter,
 3740                             		.loc 1 431 5 is_stmt 1
 432:../src/tensorflow/lite/micro/kernels/conv.cc ****                                      bias, output, nullptr);
 3741                             		.loc 1 432 7
 432:../src/tensorflow/lite/micro/kernels/conv.cc ****                                      bias, output, nullptr);
 3742                             		.loc 1 432 37 is_stmt 0
 3743 00ec E7 0D 02                		mov.L	r13, 8[r0]
 3744 00ef E3 0A                   		mov.L	r10, [r0]
 3745 00f1 A0 0E                   		mov.L	r6, 4[r0]
 3746 00f3 EF 74                   		mov.L	r7, r4
 3747 00f5 EF 92                   		mov.L	r9, r2
 3748 00f7 EF B1                   		mov.L	r11, r1
 3749 00f9 05 00 00 00             		bsr	__ZN6tflite12_GLOBAL__N_123EvalQuantizedPerChannelEP13TfLiteContextP10TfLiteNodeP16TfLiteConvP
 3750                             	.LVL303:
 3751                             		.loc 1 445 1
 3752 00fd 3F 6D 7E                		rtsd	#504, r6-r13
 3753                             	.LVL304:
 3754                             	.L373:
 427:../src/tensorflow/lite/micro/kernels/conv.cc ****       EvalFloat(context, node, params, data, input, filter, bias, nullptr,
 3755                             		.loc 1 427 5 is_stmt 1
 428:../src/tensorflow/lite/micro/kernels/conv.cc ****                 nullptr, output);
 3756                             		.loc 1 428 7
 3757                             	.LBB1616:
 3758                             	.LBB1617:
 377:../src/tensorflow/lite/micro/kernels/conv.cc ****   CalculateActivationRange(params->activation, &output_activation_min,
 3759                             		.loc 1 377 3
 378:../src/tensorflow/lite/micro/kernels/conv.cc ****                            &output_activation_max);
 3760                             		.loc 1 378 3
 378:../src/tensorflow/lite/micro/kernels/conv.cc ****                            &output_activation_max);
 3761                             		.loc 1 378 27 is_stmt 0
 3762 0100 ED 94 03                		mov.L	12[r9], r4
 3763                             	.LVL305:
 3764                             	.LBB1618:
 3765                             	.LBB1619:
 153:C:\Users\a5116938\Desktop\e2_studio_workspace\EEMBC_final\RX65N_Cloud_Kit\src/tensorflow/lite/kernels\kernel_util.h **** inline int NumOutputs(const TfLiteNode* node) { return node->outputs->size; }
 154:C:\Users\a5116938\Desktop\e2_studio_workspace\EEMBC_final\RX65N_Cloud_Kit\src/tensorflow/lite/kernels\kernel_util.h **** 
 155:C:\Users\a5116938\Desktop\e2_studio_workspace\EEMBC_final\RX65N_Cloud_Kit\src/tensorflow/lite/kernels\kernel_util.h **** #ifndef TF_LITE_STATIC_MEMORY
 156:C:\Users\a5116938\Desktop\e2_studio_workspace\EEMBC_final\RX65N_Cloud_Kit\src/tensorflow/lite/kernels\kernel_util.h **** inline int NumIntermediates(const TfLiteNode* node) {
 157:C:\Users\a5116938\Desktop\e2_studio_workspace\EEMBC_final\RX65N_Cloud_Kit\src/tensorflow/lite/kernels\kernel_util.h ****   return node->intermediates->size;
 158:C:\Users\a5116938\Desktop\e2_studio_workspace\EEMBC_final\RX65N_Cloud_Kit\src/tensorflow/lite/kernels\kernel_util.h **** }
 159:C:\Users\a5116938\Desktop\e2_studio_workspace\EEMBC_final\RX65N_Cloud_Kit\src/tensorflow/lite/kernels\kernel_util.h **** #endif  // TF_LITE_STATIC_MEMORY
 160:C:\Users\a5116938\Desktop\e2_studio_workspace\EEMBC_final\RX65N_Cloud_Kit\src/tensorflow/lite/kernels\kernel_util.h **** 
 161:C:\Users\a5116938\Desktop\e2_studio_workspace\EEMBC_final\RX65N_Cloud_Kit\src/tensorflow/lite/kernels\kernel_util.h **** inline int64_t NumElements(const TfLiteIntArray* dims) {
 162:C:\Users\a5116938\Desktop\e2_studio_workspace\EEMBC_final\RX65N_Cloud_Kit\src/tensorflow/lite/kernels\kernel_util.h ****   int64_t count = 1;
 163:C:\Users\a5116938\Desktop\e2_studio_workspace\EEMBC_final\RX65N_Cloud_Kit\src/tensorflow/lite/kernels\kernel_util.h ****   for (int i = 0; i < dims->size; ++i) {
 164:C:\Users\a5116938\Desktop\e2_studio_workspace\EEMBC_final\RX65N_Cloud_Kit\src/tensorflow/lite/kernels\kernel_util.h ****     count *= dims->data[i];
 165:C:\Users\a5116938\Desktop\e2_studio_workspace\EEMBC_final\RX65N_Cloud_Kit\src/tensorflow/lite/kernels\kernel_util.h ****   }
 166:C:\Users\a5116938\Desktop\e2_studio_workspace\EEMBC_final\RX65N_Cloud_Kit\src/tensorflow/lite/kernels\kernel_util.h ****   return count;
 167:C:\Users\a5116938\Desktop\e2_studio_workspace\EEMBC_final\RX65N_Cloud_Kit\src/tensorflow/lite/kernels\kernel_util.h **** }
 168:C:\Users\a5116938\Desktop\e2_studio_workspace\EEMBC_final\RX65N_Cloud_Kit\src/tensorflow/lite/kernels\kernel_util.h **** 
 169:C:\Users\a5116938\Desktop\e2_studio_workspace\EEMBC_final\RX65N_Cloud_Kit\src/tensorflow/lite/kernels\kernel_util.h **** inline int64_t NumElements(const TfLiteTensor* t) {
 170:C:\Users\a5116938\Desktop\e2_studio_workspace\EEMBC_final\RX65N_Cloud_Kit\src/tensorflow/lite/kernels\kernel_util.h ****   return NumElements(t->dims);
 171:C:\Users\a5116938\Desktop\e2_studio_workspace\EEMBC_final\RX65N_Cloud_Kit\src/tensorflow/lite/kernels\kernel_util.h **** }
 172:C:\Users\a5116938\Desktop\e2_studio_workspace\EEMBC_final\RX65N_Cloud_Kit\src/tensorflow/lite/kernels\kernel_util.h **** 
 173:C:\Users\a5116938\Desktop\e2_studio_workspace\EEMBC_final\RX65N_Cloud_Kit\src/tensorflow/lite/kernels\kernel_util.h **** // Determines whether tensor is constant.
 174:C:\Users\a5116938\Desktop\e2_studio_workspace\EEMBC_final\RX65N_Cloud_Kit\src/tensorflow/lite/kernels\kernel_util.h **** // TODO(b/138199592): Introduce new query which checks for constant OR
 175:C:\Users\a5116938\Desktop\e2_studio_workspace\EEMBC_final\RX65N_Cloud_Kit\src/tensorflow/lite/kernels\kernel_util.h **** // persistent-read-only, which would be useful for most tensor kernels that
 176:C:\Users\a5116938\Desktop\e2_studio_workspace\EEMBC_final\RX65N_Cloud_Kit\src/tensorflow/lite/kernels\kernel_util.h **** // are potentially dynamic based on the input tensor value availability at the
 177:C:\Users\a5116938\Desktop\e2_studio_workspace\EEMBC_final\RX65N_Cloud_Kit\src/tensorflow/lite/kernels\kernel_util.h **** // time of prepare.
 178:C:\Users\a5116938\Desktop\e2_studio_workspace\EEMBC_final\RX65N_Cloud_Kit\src/tensorflow/lite/kernels\kernel_util.h **** inline bool IsConstantTensor(const TfLiteTensor* tensor) {
 179:C:\Users\a5116938\Desktop\e2_studio_workspace\EEMBC_final\RX65N_Cloud_Kit\src/tensorflow/lite/kernels\kernel_util.h ****   return tensor->allocation_type == kTfLiteMmapRo;
 180:C:\Users\a5116938\Desktop\e2_studio_workspace\EEMBC_final\RX65N_Cloud_Kit\src/tensorflow/lite/kernels\kernel_util.h **** }
 181:C:\Users\a5116938\Desktop\e2_studio_workspace\EEMBC_final\RX65N_Cloud_Kit\src/tensorflow/lite/kernels\kernel_util.h **** 
 182:C:\Users\a5116938\Desktop\e2_studio_workspace\EEMBC_final\RX65N_Cloud_Kit\src/tensorflow/lite/kernels\kernel_util.h **** // Determines whether tensor is dynamic. Note that a tensor can be non-const and
 183:C:\Users\a5116938\Desktop\e2_studio_workspace\EEMBC_final\RX65N_Cloud_Kit\src/tensorflow/lite/kernels\kernel_util.h **** // not dynamic. This function specifically checks for a dynamic tensor.
 184:C:\Users\a5116938\Desktop\e2_studio_workspace\EEMBC_final\RX65N_Cloud_Kit\src/tensorflow/lite/kernels\kernel_util.h **** inline bool IsDynamicTensor(const TfLiteTensor* tensor) {
 185:C:\Users\a5116938\Desktop\e2_studio_workspace\EEMBC_final\RX65N_Cloud_Kit\src/tensorflow/lite/kernels\kernel_util.h ****   return tensor->allocation_type == kTfLiteDynamic;
 186:C:\Users\a5116938\Desktop\e2_studio_workspace\EEMBC_final\RX65N_Cloud_Kit\src/tensorflow/lite/kernels\kernel_util.h **** }
 187:C:\Users\a5116938\Desktop\e2_studio_workspace\EEMBC_final\RX65N_Cloud_Kit\src/tensorflow/lite/kernels\kernel_util.h **** 
 188:C:\Users\a5116938\Desktop\e2_studio_workspace\EEMBC_final\RX65N_Cloud_Kit\src/tensorflow/lite/kernels\kernel_util.h **** // Sets tensor to dynamic.
 189:C:\Users\a5116938\Desktop\e2_studio_workspace\EEMBC_final\RX65N_Cloud_Kit\src/tensorflow/lite/kernels\kernel_util.h **** inline void SetTensorToDynamic(TfLiteTensor* tensor) {
 190:C:\Users\a5116938\Desktop\e2_studio_workspace\EEMBC_final\RX65N_Cloud_Kit\src/tensorflow/lite/kernels\kernel_util.h ****   if (tensor->allocation_type != kTfLiteDynamic) {
 191:C:\Users\a5116938\Desktop\e2_studio_workspace\EEMBC_final\RX65N_Cloud_Kit\src/tensorflow/lite/kernels\kernel_util.h ****     tensor->allocation_type = kTfLiteDynamic;
 192:C:\Users\a5116938\Desktop\e2_studio_workspace\EEMBC_final\RX65N_Cloud_Kit\src/tensorflow/lite/kernels\kernel_util.h ****     tensor->data.raw = nullptr;
 193:C:\Users\a5116938\Desktop\e2_studio_workspace\EEMBC_final\RX65N_Cloud_Kit\src/tensorflow/lite/kernels\kernel_util.h ****   }
 194:C:\Users\a5116938\Desktop\e2_studio_workspace\EEMBC_final\RX65N_Cloud_Kit\src/tensorflow/lite/kernels\kernel_util.h **** }
 195:C:\Users\a5116938\Desktop\e2_studio_workspace\EEMBC_final\RX65N_Cloud_Kit\src/tensorflow/lite/kernels\kernel_util.h **** 
 196:C:\Users\a5116938\Desktop\e2_studio_workspace\EEMBC_final\RX65N_Cloud_Kit\src/tensorflow/lite/kernels\kernel_util.h **** // Sets tensor to persistent and read-only.
 197:C:\Users\a5116938\Desktop\e2_studio_workspace\EEMBC_final\RX65N_Cloud_Kit\src/tensorflow/lite/kernels\kernel_util.h **** inline void SetTensorToPersistentRo(TfLiteTensor* tensor) {
 198:C:\Users\a5116938\Desktop\e2_studio_workspace\EEMBC_final\RX65N_Cloud_Kit\src/tensorflow/lite/kernels\kernel_util.h ****   if (tensor->allocation_type != kTfLitePersistentRo) {
 199:C:\Users\a5116938\Desktop\e2_studio_workspace\EEMBC_final\RX65N_Cloud_Kit\src/tensorflow/lite/kernels\kernel_util.h ****     tensor->allocation_type = kTfLitePersistentRo;
 200:C:\Users\a5116938\Desktop\e2_studio_workspace\EEMBC_final\RX65N_Cloud_Kit\src/tensorflow/lite/kernels\kernel_util.h ****     tensor->data.raw = nullptr;
 201:C:\Users\a5116938\Desktop\e2_studio_workspace\EEMBC_final\RX65N_Cloud_Kit\src/tensorflow/lite/kernels\kernel_util.h ****   }
 202:C:\Users\a5116938\Desktop\e2_studio_workspace\EEMBC_final\RX65N_Cloud_Kit\src/tensorflow/lite/kernels\kernel_util.h **** }
 203:C:\Users\a5116938\Desktop\e2_studio_workspace\EEMBC_final\RX65N_Cloud_Kit\src/tensorflow/lite/kernels\kernel_util.h **** 
 204:C:\Users\a5116938\Desktop\e2_studio_workspace\EEMBC_final\RX65N_Cloud_Kit\src/tensorflow/lite/kernels\kernel_util.h **** // Determines whether it is a hybrid op - one that has float inputs and
 205:C:\Users\a5116938\Desktop\e2_studio_workspace\EEMBC_final\RX65N_Cloud_Kit\src/tensorflow/lite/kernels\kernel_util.h **** // quantized weights.
 206:C:\Users\a5116938\Desktop\e2_studio_workspace\EEMBC_final\RX65N_Cloud_Kit\src/tensorflow/lite/kernels\kernel_util.h **** inline bool IsHybridOp(const TfLiteTensor* input, const TfLiteTensor* weight) {
 207:C:\Users\a5116938\Desktop\e2_studio_workspace\EEMBC_final\RX65N_Cloud_Kit\src/tensorflow/lite/kernels\kernel_util.h ****   return ((weight->type == kTfLiteUInt8 || weight->type == kTfLiteInt8) &&
 208:C:\Users\a5116938\Desktop\e2_studio_workspace\EEMBC_final\RX65N_Cloud_Kit\src/tensorflow/lite/kernels\kernel_util.h ****           input->type == kTfLiteFloat32);
 209:C:\Users\a5116938\Desktop\e2_studio_workspace\EEMBC_final\RX65N_Cloud_Kit\src/tensorflow/lite/kernels\kernel_util.h **** }
 210:C:\Users\a5116938\Desktop\e2_studio_workspace\EEMBC_final\RX65N_Cloud_Kit\src/tensorflow/lite/kernels\kernel_util.h **** 
 211:C:\Users\a5116938\Desktop\e2_studio_workspace\EEMBC_final\RX65N_Cloud_Kit\src/tensorflow/lite/kernels\kernel_util.h **** // Check dimensionality match and populate OpData for Conv and DepthwiseConv.
 212:C:\Users\a5116938\Desktop\e2_studio_workspace\EEMBC_final\RX65N_Cloud_Kit\src/tensorflow/lite/kernels\kernel_util.h **** TfLiteStatus PopulateConvolutionQuantizationParams(
 213:C:\Users\a5116938\Desktop\e2_studio_workspace\EEMBC_final\RX65N_Cloud_Kit\src/tensorflow/lite/kernels\kernel_util.h ****     TfLiteContext* context, const TfLiteTensor* input,
 214:C:\Users\a5116938\Desktop\e2_studio_workspace\EEMBC_final\RX65N_Cloud_Kit\src/tensorflow/lite/kernels\kernel_util.h ****     const TfLiteTensor* filter, const TfLiteTensor* bias, TfLiteTensor* output,
 215:C:\Users\a5116938\Desktop\e2_studio_workspace\EEMBC_final\RX65N_Cloud_Kit\src/tensorflow/lite/kernels\kernel_util.h ****     const TfLiteFusedActivation& activation, int32_t* multiplier, int* shift,
 216:C:\Users\a5116938\Desktop\e2_studio_workspace\EEMBC_final\RX65N_Cloud_Kit\src/tensorflow/lite/kernels\kernel_util.h ****     int32_t* output_activation_min, int32_t* output_activation_max,
 217:C:\Users\a5116938\Desktop\e2_studio_workspace\EEMBC_final\RX65N_Cloud_Kit\src/tensorflow/lite/kernels\kernel_util.h ****     int32_t* per_channel_multiplier, int* per_channel_shift);
 218:C:\Users\a5116938\Desktop\e2_studio_workspace\EEMBC_final\RX65N_Cloud_Kit\src/tensorflow/lite/kernels\kernel_util.h **** 
 219:C:\Users\a5116938\Desktop\e2_studio_workspace\EEMBC_final\RX65N_Cloud_Kit\src/tensorflow/lite/kernels\kernel_util.h **** TfLiteStatus PopulateConvolutionQuantizationParams(
 220:C:\Users\a5116938\Desktop\e2_studio_workspace\EEMBC_final\RX65N_Cloud_Kit\src/tensorflow/lite/kernels\kernel_util.h ****     TfLiteContext* context, const TfLiteTensor* input,
 221:C:\Users\a5116938\Desktop\e2_studio_workspace\EEMBC_final\RX65N_Cloud_Kit\src/tensorflow/lite/kernels\kernel_util.h ****     const TfLiteTensor* filter, const TfLiteTensor* bias, TfLiteTensor* output,
 222:C:\Users\a5116938\Desktop\e2_studio_workspace\EEMBC_final\RX65N_Cloud_Kit\src/tensorflow/lite/kernels\kernel_util.h ****     const TfLiteFusedActivation& activation, int32_t* multiplier, int* shift,
 223:C:\Users\a5116938\Desktop\e2_studio_workspace\EEMBC_final\RX65N_Cloud_Kit\src/tensorflow/lite/kernels\kernel_util.h ****     int32_t* output_activation_min, int32_t* output_activation_max,
 224:C:\Users\a5116938\Desktop\e2_studio_workspace\EEMBC_final\RX65N_Cloud_Kit\src/tensorflow/lite/kernels\kernel_util.h ****     int32_t* per_channel_multiplier, int* per_channel_shift, int num_channels);
 225:C:\Users\a5116938\Desktop\e2_studio_workspace\EEMBC_final\RX65N_Cloud_Kit\src/tensorflow/lite/kernels\kernel_util.h **** 
 226:C:\Users\a5116938\Desktop\e2_studio_workspace\EEMBC_final\RX65N_Cloud_Kit\src/tensorflow/lite/kernels\kernel_util.h **** // Calculates the multiplication factor for a quantized convolution (or
 227:C:\Users\a5116938\Desktop\e2_studio_workspace\EEMBC_final\RX65N_Cloud_Kit\src/tensorflow/lite/kernels\kernel_util.h **** // quantized depthwise convolution) involving the given tensors. Returns an
 228:C:\Users\a5116938\Desktop\e2_studio_workspace\EEMBC_final\RX65N_Cloud_Kit\src/tensorflow/lite/kernels\kernel_util.h **** // error if the scales of the tensors are not compatible.
 229:C:\Users\a5116938\Desktop\e2_studio_workspace\EEMBC_final\RX65N_Cloud_Kit\src/tensorflow/lite/kernels\kernel_util.h **** TfLiteStatus GetQuantizedConvolutionMultipler(TfLiteContext* context,
 230:C:\Users\a5116938\Desktop\e2_studio_workspace\EEMBC_final\RX65N_Cloud_Kit\src/tensorflow/lite/kernels\kernel_util.h ****                                               const TfLiteTensor* input,
 231:C:\Users\a5116938\Desktop\e2_studio_workspace\EEMBC_final\RX65N_Cloud_Kit\src/tensorflow/lite/kernels\kernel_util.h ****                                               const TfLiteTensor* filter,
 232:C:\Users\a5116938\Desktop\e2_studio_workspace\EEMBC_final\RX65N_Cloud_Kit\src/tensorflow/lite/kernels\kernel_util.h ****                                               const TfLiteTensor* bias,
 233:C:\Users\a5116938\Desktop\e2_studio_workspace\EEMBC_final\RX65N_Cloud_Kit\src/tensorflow/lite/kernels\kernel_util.h ****                                               TfLiteTensor* output,
 234:C:\Users\a5116938\Desktop\e2_studio_workspace\EEMBC_final\RX65N_Cloud_Kit\src/tensorflow/lite/kernels\kernel_util.h ****                                               double* multiplier);
 235:C:\Users\a5116938\Desktop\e2_studio_workspace\EEMBC_final\RX65N_Cloud_Kit\src/tensorflow/lite/kernels\kernel_util.h **** 
 236:C:\Users\a5116938\Desktop\e2_studio_workspace\EEMBC_final\RX65N_Cloud_Kit\src/tensorflow/lite/kernels\kernel_util.h **** TfLiteStatus GetQuantizedConvolutionMultipler(TfLiteContext* context,
 237:C:\Users\a5116938\Desktop\e2_studio_workspace\EEMBC_final\RX65N_Cloud_Kit\src/tensorflow/lite/kernels\kernel_util.h ****                                               const TfLiteTensor* input,
 238:C:\Users\a5116938\Desktop\e2_studio_workspace\EEMBC_final\RX65N_Cloud_Kit\src/tensorflow/lite/kernels\kernel_util.h ****                                               const TfLiteTensor* filter,
 239:C:\Users\a5116938\Desktop\e2_studio_workspace\EEMBC_final\RX65N_Cloud_Kit\src/tensorflow/lite/kernels\kernel_util.h ****                                               TfLiteTensor* output,
 240:C:\Users\a5116938\Desktop\e2_studio_workspace\EEMBC_final\RX65N_Cloud_Kit\src/tensorflow/lite/kernels\kernel_util.h ****                                               double* multiplier);
 241:C:\Users\a5116938\Desktop\e2_studio_workspace\EEMBC_final\RX65N_Cloud_Kit\src/tensorflow/lite/kernels\kernel_util.h **** 
 242:C:\Users\a5116938\Desktop\e2_studio_workspace\EEMBC_final\RX65N_Cloud_Kit\src/tensorflow/lite/kernels\kernel_util.h **** // Calculates the useful quantized range of an activation layer given its
 243:C:\Users\a5116938\Desktop\e2_studio_workspace\EEMBC_final\RX65N_Cloud_Kit\src/tensorflow/lite/kernels\kernel_util.h **** // activation tensor.
 244:C:\Users\a5116938\Desktop\e2_studio_workspace\EEMBC_final\RX65N_Cloud_Kit\src/tensorflow/lite/kernels\kernel_util.h **** TfLiteStatus CalculateActivationRangeQuantized(TfLiteContext* context,
 245:C:\Users\a5116938\Desktop\e2_studio_workspace\EEMBC_final\RX65N_Cloud_Kit\src/tensorflow/lite/kernels\kernel_util.h ****                                                TfLiteFusedActivation activation,
 246:C:\Users\a5116938\Desktop\e2_studio_workspace\EEMBC_final\RX65N_Cloud_Kit\src/tensorflow/lite/kernels\kernel_util.h ****                                                TfLiteTensor* output,
 247:C:\Users\a5116938\Desktop\e2_studio_workspace\EEMBC_final\RX65N_Cloud_Kit\src/tensorflow/lite/kernels\kernel_util.h ****                                                int32_t* act_min,
 248:C:\Users\a5116938\Desktop\e2_studio_workspace\EEMBC_final\RX65N_Cloud_Kit\src/tensorflow/lite/kernels\kernel_util.h ****                                                int32_t* act_max);
 249:C:\Users\a5116938\Desktop\e2_studio_workspace\EEMBC_final\RX65N_Cloud_Kit\src/tensorflow/lite/kernels\kernel_util.h **** 
 250:C:\Users\a5116938\Desktop\e2_studio_workspace\EEMBC_final\RX65N_Cloud_Kit\src/tensorflow/lite/kernels\kernel_util.h **** // Calculates the useful range of an activation layer given its activation
 251:C:\Users\a5116938\Desktop\e2_studio_workspace\EEMBC_final\RX65N_Cloud_Kit\src/tensorflow/lite/kernels\kernel_util.h **** // tensor.a
 252:C:\Users\a5116938\Desktop\e2_studio_workspace\EEMBC_final\RX65N_Cloud_Kit\src/tensorflow/lite/kernels\kernel_util.h **** template <typename T>
 253:C:\Users\a5116938\Desktop\e2_studio_workspace\EEMBC_final\RX65N_Cloud_Kit\src/tensorflow/lite/kernels\kernel_util.h **** void CalculateActivationRange(TfLiteFusedActivation activation,
 254:C:\Users\a5116938\Desktop\e2_studio_workspace\EEMBC_final\RX65N_Cloud_Kit\src/tensorflow/lite/kernels\kernel_util.h ****                               T* activation_min, T* activation_max) {
 255:C:\Users\a5116938\Desktop\e2_studio_workspace\EEMBC_final\RX65N_Cloud_Kit\src/tensorflow/lite/kernels\kernel_util.h ****   if (activation == kTfLiteActRelu) {
 3766                             		.loc 10 255 3
 3767 0103 61 14                   		cmp	#1, r4
 3768 0105 3A 5D 07                		beq	.L304
 3769                             	.LVL306:
 3770                             	.LBB1620:
 3771                             	.LBB1621:
 256:C:\Users\a5116938\Desktop\e2_studio_workspace\EEMBC_final\RX65N_Cloud_Kit\src/tensorflow/lite/kernels\kernel_util.h ****     *activation_min = 0;
 257:C:\Users\a5116938\Desktop\e2_studio_workspace\EEMBC_final\RX65N_Cloud_Kit\src/tensorflow/lite/kernels\kernel_util.h ****     *activation_max = std::numeric_limits<T>::max();
 258:C:\Users\a5116938\Desktop\e2_studio_workspace\EEMBC_final\RX65N_Cloud_Kit\src/tensorflow/lite/kernels\kernel_util.h ****   } else if (activation == kTfLiteActRelu6) {
 3772                             		.loc 10 258 10
 3773 0108 61 34                   		cmp	#3, r4
 3774 010a 3A 64 09                		beq	.L305
 259:C:\Users\a5116938\Desktop\e2_studio_workspace\EEMBC_final\RX65N_Cloud_Kit\src/tensorflow/lite/kernels\kernel_util.h ****     *activation_min = 0;
 260:C:\Users\a5116938\Desktop\e2_studio_workspace\EEMBC_final\RX65N_Cloud_Kit\src/tensorflow/lite/kernels\kernel_util.h ****     *activation_max = 6;
 261:C:\Users\a5116938\Desktop\e2_studio_workspace\EEMBC_final\RX65N_Cloud_Kit\src/tensorflow/lite/kernels\kernel_util.h ****   } else if (activation == kTfLiteActReluN1To1) {
 3775                             		.loc 10 261 10
 3776 010d 61 24                   		cmp	#2, r4
 3777 010f 3A 6D 09                		beq	.L306
 262:C:\Users\a5116938\Desktop\e2_studio_workspace\EEMBC_final\RX65N_Cloud_Kit\src/tensorflow/lite/kernels\kernel_util.h ****     *activation_min = -1;
 263:C:\Users\a5116938\Desktop\e2_studio_workspace\EEMBC_final\RX65N_Cloud_Kit\src/tensorflow/lite/kernels\kernel_util.h ****     *activation_max = 1;
 264:C:\Users\a5116938\Desktop\e2_studio_workspace\EEMBC_final\RX65N_Cloud_Kit\src/tensorflow/lite/kernels\kernel_util.h ****   } else {
 265:C:\Users\a5116938\Desktop\e2_studio_workspace\EEMBC_final\RX65N_Cloud_Kit\src/tensorflow/lite/kernels\kernel_util.h ****     *activation_min = std::numeric_limits<T>::lowest();
 266:C:\Users\a5116938\Desktop\e2_studio_workspace\EEMBC_final\RX65N_Cloud_Kit\src/tensorflow/lite/kernels\kernel_util.h ****     *activation_max = std::numeric_limits<T>::max();
 3778                             		.loc 10 266 5
 3779 0112 F9 02 5B FF FF 7F 7F    		mov.L	#0x7f7fffff, 364[r0]
 265:C:\Users\a5116938\Desktop\e2_studio_workspace\EEMBC_final\RX65N_Cloud_Kit\src/tensorflow/lite/kernels\kernel_util.h ****     *activation_max = std::numeric_limits<T>::max();
 3780                             		.loc 10 265 5
 3781 0119 F9 02 5A FF FF 7F FF    		mov.L	#0xff7fffff, 360[r0]
 3782                             	.LVL307:
 3783                             		.balign 8,3,3
 3784                             	.L215:
 3785                             	.LBE1621:
 3786                             	.LBE1620:
 3787                             	.LBE1619:
 3788                             	.LBE1618:
 381:../src/tensorflow/lite/micro/kernels/conv.cc ****   op_params.padding_type = RuntimePaddingType(params->padding);
 3789                             		.loc 1 381 3 is_stmt 1
 382:../src/tensorflow/lite/micro/kernels/conv.cc ****   op_params.padding_values.width = data.padding.width;
 3790                             		.loc 1 382 3
 3791                             	.LBE1617:
 3792                             	.LBE1616:
  69:../src/tensorflow/lite/micro/kernels/conv.cc ****     case TfLitePadding::kTfLitePaddingSame:
 3793                             		.loc 1 69 3
 3794                             	.LBB1878:
 3795                             	.LBB1861:
 383:../src/tensorflow/lite/micro/kernels/conv.cc ****   op_params.padding_values.height = data.padding.height;
 3796                             		.loc 1 383 3
 392:../src/tensorflow/lite/micro/kernels/conv.cc ****                       tflite::micro::GetTensorData<float>(input),
 3797                             		.loc 1 392 63 is_stmt 0
 3798 0120 72 0F 94 00             		add	#0x94, r0, r15
 3799 0124 EF 71                   		mov.L	r7, r1
 383:../src/tensorflow/lite/micro/kernels/conv.cc ****   op_params.padding_values.height = data.padding.height;
 3800                             		.loc 1 383 34
 3801 0126 EC 38                   		mov.L	[r3], r8
 384:../src/tensorflow/lite/micro/kernels/conv.cc ****   op_params.stride_width = params->stride_width;
 3802                             		.loc 1 384 3 is_stmt 1
 384:../src/tensorflow/lite/micro/kernels/conv.cc ****   op_params.stride_width = params->stride_width;
 3803                             		.loc 1 384 35 is_stmt 0
 3804 0128 ED 3C 01                		mov.L	4[r3], r12
 3805                             	.LVL308:
 385:../src/tensorflow/lite/micro/kernels/conv.cc ****   op_params.stride_height = params->stride_height;
 3806                             		.loc 1 385 3 is_stmt 1
 385:../src/tensorflow/lite/micro/kernels/conv.cc ****   op_params.stride_height = params->stride_height;
 3807                             		.loc 1 385 26 is_stmt 0
 3808 012b E5 90 01 47             		mov.L	4[r9], 284[r0]
 386:../src/tensorflow/lite/micro/kernels/conv.cc ****   op_params.dilation_width_factor = params->dilation_width_factor;
 3809                             		.loc 1 386 3 is_stmt 1
 386:../src/tensorflow/lite/micro/kernels/conv.cc ****   op_params.dilation_width_factor = params->dilation_width_factor;
 3810                             		.loc 1 386 27 is_stmt 0
 3811 012f E5 90 02 48             		mov.L	8[r9], 288[r0]
 387:../src/tensorflow/lite/micro/kernels/conv.cc ****   op_params.dilation_height_factor = params->dilation_height_factor;
 3812                             		.loc 1 387 3 is_stmt 1
 387:../src/tensorflow/lite/micro/kernels/conv.cc ****   op_params.dilation_height_factor = params->dilation_height_factor;
 3813                             		.loc 1 387 35 is_stmt 0
 3814 0133 E5 90 04 4A             		mov.L	16[r9], 296[r0]
 388:../src/tensorflow/lite/micro/kernels/conv.cc ****   op_params.float_activation_min = output_activation_min;
 3815                             		.loc 1 388 3 is_stmt 1
 388:../src/tensorflow/lite/micro/kernels/conv.cc ****   op_params.float_activation_min = output_activation_min;
 3816                             		.loc 1 388 36 is_stmt 0
 3817 0137 ED 9B 05                		mov.L	20[r9], r11
 3818                             	.LVL309:
 389:../src/tensorflow/lite/micro/kernels/conv.cc ****   op_params.float_activation_max = output_activation_max;
 3819                             		.loc 1 389 3 is_stmt 1
 390:../src/tensorflow/lite/micro/kernels/conv.cc **** 
 3820                             		.loc 1 390 3
 392:../src/tensorflow/lite/micro/kernels/conv.cc ****                       tflite::micro::GetTensorData<float>(input),
 3821                             		.loc 1 392 3
 392:../src/tensorflow/lite/micro/kernels/conv.cc ****                       tflite::micro::GetTensorData<float>(input),
 3822                             		.loc 1 392 63 is_stmt 0
 3823 013a 05 00 00 00             		bsr	__ZN6tflite5micro14GetTensorShapeEPK16TfLiteEvalTensor
 3824                             	.LVL310:
 394:../src/tensorflow/lite/micro/kernels/conv.cc ****                       tflite::micro::GetTensorData<float>(filter),
 3825                             		.loc 1 394 52
 3826 013e 72 0F AC 00             		add	#0xac, r0, r15
 3827 0142 EF A1                   		mov.L	r10, r1
 3828                             	.LBB1626:
 3829                             	.LBB1627:
 3830                             		.loc 5 62 53
 3831 0144 E4 70 43                		mov.L	[r7], 268[r0]
 3832                             	.LVL311:
 3833                             	.LBE1627:
 3834                             	.LBE1626:
 394:../src/tensorflow/lite/micro/kernels/conv.cc ****                       tflite::micro::GetTensorData<float>(filter),
 3835                             		.loc 1 394 52
 3836 0147 05 00 00 00             		bsr	__ZN6tflite5micro14GetTensorShapeEPK16TfLiteEvalTensor
 3837                             	.LVL312:
 396:../src/tensorflow/lite/micro/kernels/conv.cc ****                       tflite::micro::GetTensorData<float>(bias),
 3838                             		.loc 1 396 52
 3839 014b 72 0F C4 00             		add	#0xc4, r0, r15
 3840 014f EF 61                   		mov.L	r6, r1
 3841                             	.LBB1628:
 3842                             	.LBB1629:
 3843                             		.loc 5 62 53
 3844 0151 E4 A0 64                		mov.L	[r10], 400[r0]
 3845                             	.LVL313:
 3846                             	.LBE1629:
 3847                             	.LBE1628:
 396:../src/tensorflow/lite/micro/kernels/conv.cc ****                       tflite::micro::GetTensorData<float>(bias),
 3848                             		.loc 1 396 52
 3849 0154 05 00 00 00             		bsr	__ZN6tflite5micro14GetTensorShapeEPK16TfLiteEvalTensor
 3850                             	.LVL314:
 3851                             	.LBB1630:
 3852                             	.LBB1631:
  61:C:\Users\a5116938\Desktop\e2_studio_workspace\EEMBC_final\RX65N_Cloud_Kit\src/tensorflow/lite/micro/kernels\kernel_util.h ****   return reinterpret_cast<const T*>(tensor->data.raw);
 3853                             		.loc 5 61 3
 3854 0158 61 06                   		cmp	#0, r6
 3855 015a 20 8E                   		beq	.L208
 3856                             	.LBE1631:
 3857                             	.LBE1630:
 398:../src/tensorflow/lite/micro/kernels/conv.cc ****                       tflite::micro::GetTensorData<float>(output),
 3858                             		.loc 1 398 52
 3859 015c 72 0F DC 00             		add	#0xdc, r0, r15
 3860 0160 EF D1                   		mov.L	r13, r1
 3861                             	.LBB1633:
 3862                             	.LBB1632:
 3863                             		.loc 5 62 53
 3864 0162 E4 60 54                		mov.L	[r6], 336[r0]
 3865                             	.LVL315:
 3866                             	.LBE1632:
 3867                             	.LBE1633:
 398:../src/tensorflow/lite/micro/kernels/conv.cc ****                       tflite::micro::GetTensorData<float>(output),
 3868                             		.loc 1 398 52
 3869 0165 05 00 00 00             		bsr	__ZN6tflite5micro14GetTensorShapeEPK16TfLiteEvalTensor
 3870                             	.LVL316:
 400:../src/tensorflow/lite/micro/kernels/conv.cc ****                       tflite::micro::GetTensorData<float>(im2col));
 3871                             		.loc 1 400 52
 3872 0169 72 0F F4 00             		add	#0xf4, r0, r15
 3873 016d 66 01                   		mov.L	#0, r1
 3874                             	.LBB1634:
 3875                             	.LBB1635:
  55:C:\Users\a5116938\Desktop\e2_studio_workspace\EEMBC_final\RX65N_Cloud_Kit\src/tensorflow/lite/micro/kernels\kernel_util.h **** }
 3876                             		.loc 5 55 28
 3877 016f EC D9                   		mov.L	[r13], r9
 3878                             	.LVL317:
 3879                             	.LBE1635:
 3880                             	.LBE1634:
 400:../src/tensorflow/lite/micro/kernels/conv.cc ****                       tflite::micro::GetTensorData<float>(im2col));
 3881                             		.loc 1 400 52
 3882 0171 05 00 00 00             		bsr	__ZN6tflite5micro14GetTensorShapeEPK16TfLiteEvalTensor
 3883                             	.LVL318:
 3884                             	.LBB1636:
 3885                             	.LBB1637:
 3886                             		.file 11 "C:\\Users\\a5116938\\Desktop\\e2_studio_workspace\\EEMBC_final\\RX65N_Cloud_Kit\\src/ten
   1:C:\Users\a5116938\Desktop\e2_studio_workspace\EEMBC_final\RX65N_Cloud_Kit\src/tensorflow/lite/kernels/internal/reference\conv.h **** /* Copyright 2019 The TensorFlow Authors. All Rights Reserved.
   2:C:\Users\a5116938\Desktop\e2_studio_workspace\EEMBC_final\RX65N_Cloud_Kit\src/tensorflow/lite/kernels/internal/reference\conv.h **** 
   3:C:\Users\a5116938\Desktop\e2_studio_workspace\EEMBC_final\RX65N_Cloud_Kit\src/tensorflow/lite/kernels/internal/reference\conv.h **** Licensed under the Apache License, Version 2.0 (the "License");
   4:C:\Users\a5116938\Desktop\e2_studio_workspace\EEMBC_final\RX65N_Cloud_Kit\src/tensorflow/lite/kernels/internal/reference\conv.h **** you may not use this file except in compliance with the License.
   5:C:\Users\a5116938\Desktop\e2_studio_workspace\EEMBC_final\RX65N_Cloud_Kit\src/tensorflow/lite/kernels/internal/reference\conv.h **** You may obtain a copy of the License at
   6:C:\Users\a5116938\Desktop\e2_studio_workspace\EEMBC_final\RX65N_Cloud_Kit\src/tensorflow/lite/kernels/internal/reference\conv.h **** 
   7:C:\Users\a5116938\Desktop\e2_studio_workspace\EEMBC_final\RX65N_Cloud_Kit\src/tensorflow/lite/kernels/internal/reference\conv.h ****     http://www.apache.org/licenses/LICENSE-2.0
   8:C:\Users\a5116938\Desktop\e2_studio_workspace\EEMBC_final\RX65N_Cloud_Kit\src/tensorflow/lite/kernels/internal/reference\conv.h **** 
   9:C:\Users\a5116938\Desktop\e2_studio_workspace\EEMBC_final\RX65N_Cloud_Kit\src/tensorflow/lite/kernels/internal/reference\conv.h **** Unless required by applicable law or agreed to in writing, software
  10:C:\Users\a5116938\Desktop\e2_studio_workspace\EEMBC_final\RX65N_Cloud_Kit\src/tensorflow/lite/kernels/internal/reference\conv.h **** distributed under the License is distributed on an "AS IS" BASIS,
  11:C:\Users\a5116938\Desktop\e2_studio_workspace\EEMBC_final\RX65N_Cloud_Kit\src/tensorflow/lite/kernels/internal/reference\conv.h **** WITHOUT WARRANTIES OR CONDITIONS OF ANY KIND, either express or implied.
  12:C:\Users\a5116938\Desktop\e2_studio_workspace\EEMBC_final\RX65N_Cloud_Kit\src/tensorflow/lite/kernels/internal/reference\conv.h **** See the License for the specific language governing permissions and
  13:C:\Users\a5116938\Desktop\e2_studio_workspace\EEMBC_final\RX65N_Cloud_Kit\src/tensorflow/lite/kernels/internal/reference\conv.h **** limitations under the License.
  14:C:\Users\a5116938\Desktop\e2_studio_workspace\EEMBC_final\RX65N_Cloud_Kit\src/tensorflow/lite/kernels/internal/reference\conv.h **** ==============================================================================*/
  15:C:\Users\a5116938\Desktop\e2_studio_workspace\EEMBC_final\RX65N_Cloud_Kit\src/tensorflow/lite/kernels/internal/reference\conv.h **** #ifndef TENSORFLOW_LITE_KERNELS_INTERNAL_REFERENCE_CONV_H_
  16:C:\Users\a5116938\Desktop\e2_studio_workspace\EEMBC_final\RX65N_Cloud_Kit\src/tensorflow/lite/kernels/internal/reference\conv.h **** #define TENSORFLOW_LITE_KERNELS_INTERNAL_REFERENCE_CONV_H_
  17:C:\Users\a5116938\Desktop\e2_studio_workspace\EEMBC_final\RX65N_Cloud_Kit\src/tensorflow/lite/kernels/internal/reference\conv.h **** 
  18:C:\Users\a5116938\Desktop\e2_studio_workspace\EEMBC_final\RX65N_Cloud_Kit\src/tensorflow/lite/kernels/internal/reference\conv.h **** #include "tensorflow/lite/kernels/internal/types.h"
  19:C:\Users\a5116938\Desktop\e2_studio_workspace\EEMBC_final\RX65N_Cloud_Kit\src/tensorflow/lite/kernels/internal/reference\conv.h **** #include "tensorflow/lite/kernels/internal/common.h"
  20:C:\Users\a5116938\Desktop\e2_studio_workspace\EEMBC_final\RX65N_Cloud_Kit\src/tensorflow/lite/kernels/internal/reference\conv.h **** 
  21:C:\Users\a5116938\Desktop\e2_studio_workspace\EEMBC_final\RX65N_Cloud_Kit\src/tensorflow/lite/kernels/internal/reference\conv.h **** 
  22:C:\Users\a5116938\Desktop\e2_studio_workspace\EEMBC_final\RX65N_Cloud_Kit\src/tensorflow/lite/kernels/internal/reference\conv.h **** 
  23:C:\Users\a5116938\Desktop\e2_studio_workspace\EEMBC_final\RX65N_Cloud_Kit\src/tensorflow/lite/kernels/internal/reference\conv.h **** namespace tflite {
  24:C:\Users\a5116938\Desktop\e2_studio_workspace\EEMBC_final\RX65N_Cloud_Kit\src/tensorflow/lite/kernels/internal/reference\conv.h **** 
  25:C:\Users\a5116938\Desktop\e2_studio_workspace\EEMBC_final\RX65N_Cloud_Kit\src/tensorflow/lite/kernels/internal/reference\conv.h **** namespace reference_ops {
  26:C:\Users\a5116938\Desktop\e2_studio_workspace\EEMBC_final\RX65N_Cloud_Kit\src/tensorflow/lite/kernels/internal/reference\conv.h **** 
  27:C:\Users\a5116938\Desktop\e2_studio_workspace\EEMBC_final\RX65N_Cloud_Kit\src/tensorflow/lite/kernels/internal/reference\conv.h **** 
  28:C:\Users\a5116938\Desktop\e2_studio_workspace\EEMBC_final\RX65N_Cloud_Kit\src/tensorflow/lite/kernels/internal/reference\conv.h **** inline void Conv(const ConvParams& params, const RuntimeShape& input_shape,
  29:C:\Users\a5116938\Desktop\e2_studio_workspace\EEMBC_final\RX65N_Cloud_Kit\src/tensorflow/lite/kernels/internal/reference\conv.h ****                  const float* input_data, const RuntimeShape& filter_shape,
  30:C:\Users\a5116938\Desktop\e2_studio_workspace\EEMBC_final\RX65N_Cloud_Kit\src/tensorflow/lite/kernels/internal/reference\conv.h ****                  const float* filter_data, const RuntimeShape& bias_shape,
  31:C:\Users\a5116938\Desktop\e2_studio_workspace\EEMBC_final\RX65N_Cloud_Kit\src/tensorflow/lite/kernels/internal/reference\conv.h ****                  const float* bias_data, const RuntimeShape& output_shape,
  32:C:\Users\a5116938\Desktop\e2_studio_workspace\EEMBC_final\RX65N_Cloud_Kit\src/tensorflow/lite/kernels/internal/reference\conv.h ****                  float* output_data, const RuntimeShape& im2col_shape,
  33:C:\Users\a5116938\Desktop\e2_studio_workspace\EEMBC_final\RX65N_Cloud_Kit\src/tensorflow/lite/kernels/internal/reference\conv.h ****                  float* im2col_data) {
  34:C:\Users\a5116938\Desktop\e2_studio_workspace\EEMBC_final\RX65N_Cloud_Kit\src/tensorflow/lite/kernels/internal/reference\conv.h ****   const int stride_width = params.stride_width;
 3887                             		.loc 11 34 3 is_stmt 1
  35:C:\Users\a5116938\Desktop\e2_studio_workspace\EEMBC_final\RX65N_Cloud_Kit\src/tensorflow/lite/kernels/internal/reference\conv.h ****   const int stride_height = params.stride_height;
 3888                             		.loc 11 35 3
  36:C:\Users\a5116938\Desktop\e2_studio_workspace\EEMBC_final\RX65N_Cloud_Kit\src/tensorflow/lite/kernels/internal/reference\conv.h ****   const int dilation_width_factor = params.dilation_width_factor;
 3889                             		.loc 11 36 3
  37:C:\Users\a5116938\Desktop\e2_studio_workspace\EEMBC_final\RX65N_Cloud_Kit\src/tensorflow/lite/kernels/internal/reference\conv.h ****   const int dilation_height_factor = params.dilation_height_factor;
 3890                             		.loc 11 37 3
  38:C:\Users\a5116938\Desktop\e2_studio_workspace\EEMBC_final\RX65N_Cloud_Kit\src/tensorflow/lite/kernels/internal/reference\conv.h ****   const int pad_width = params.padding_values.width;
 3891                             		.loc 11 38 3
  39:C:\Users\a5116938\Desktop\e2_studio_workspace\EEMBC_final\RX65N_Cloud_Kit\src/tensorflow/lite/kernels/internal/reference\conv.h ****   const int pad_height = params.padding_values.height;
  40:C:\Users\a5116938\Desktop\e2_studio_workspace\EEMBC_final\RX65N_Cloud_Kit\src/tensorflow/lite/kernels/internal/reference\conv.h ****   const float output_activation_min = params.float_activation_min;
  41:C:\Users\a5116938\Desktop\e2_studio_workspace\EEMBC_final\RX65N_Cloud_Kit\src/tensorflow/lite/kernels/internal/reference\conv.h ****   const float output_activation_max = params.float_activation_max;
  42:C:\Users\a5116938\Desktop\e2_studio_workspace\EEMBC_final\RX65N_Cloud_Kit\src/tensorflow/lite/kernels/internal/reference\conv.h ****   TFLITE_DCHECK_EQ(input_shape.DimensionsCount(), 4);
 3892                             		.loc 11 42 3 is_stmt 0
 3893 0175 ED 07 25                		mov.L	148[r0], r7
 3894                             	.LVL319:
  38:C:\Users\a5116938\Desktop\e2_studio_workspace\EEMBC_final\RX65N_Cloud_Kit\src/tensorflow/lite/kernels/internal/reference\conv.h ****   const int pad_width = params.padding_values.width;
 3895                             		.loc 11 38 13
 3896 0178 DF 88                   		mov.W	r8, r8
 3897 017a E7 08 5E                		mov.L	r8, 376[r0]
 3898                             	.LVL320:
  39:C:\Users\a5116938\Desktop\e2_studio_workspace\EEMBC_final\RX65N_Cloud_Kit\src/tensorflow/lite/kernels/internal/reference\conv.h ****   const int pad_height = params.padding_values.height;
 3899                             		.loc 11 39 3 is_stmt 1
  39:C:\Users\a5116938\Desktop\e2_studio_workspace\EEMBC_final\RX65N_Cloud_Kit\src/tensorflow/lite/kernels/internal/reference\conv.h ****   const int pad_height = params.padding_values.height;
 3900                             		.loc 11 39 13 is_stmt 0
 3901 017d DF CC                   		mov.W	r12, r12
 3902 017f E7 0C 5F                		mov.L	r12, 380[r0]
 3903                             	.LVL321:
  40:C:\Users\a5116938\Desktop\e2_studio_workspace\EEMBC_final\RX65N_Cloud_Kit\src/tensorflow/lite/kernels/internal/reference\conv.h ****   const float output_activation_max = params.float_activation_max;
 3904                             		.loc 11 40 3 is_stmt 1
  41:C:\Users\a5116938\Desktop\e2_studio_workspace\EEMBC_final\RX65N_Cloud_Kit\src/tensorflow/lite/kernels/internal/reference\conv.h ****   TFLITE_DCHECK_EQ(input_shape.DimensionsCount(), 4);
 3905                             		.loc 11 41 3
 3906                             		.loc 11 42 3
 3907                             	.LBE1637:
 3908                             	.LBE1636:
 3909                             	.LBE1861:
 3910                             	.LBE1878:
 194:C:\Users\a5116938\Desktop\e2_studio_workspace\EEMBC_final\RX65N_Cloud_Kit\src/tensorflow/lite/kernels/internal\types.h ****   inline int32_t Dims(int i) const {
 3911                             		.loc 3 194 44
 3912                             	.LBB1879:
 3913                             	.LBB1862:
 3914                             	.LBB1832:
 3915                             	.LBB1815:
 3916                             		.loc 11 42 3 is_stmt 0
 3917 0182 61 47                   		cmp	#4, r7
 3918 0184 3B 64 FF                		bne	.L208
  43:C:\Users\a5116938\Desktop\e2_studio_workspace\EEMBC_final\RX65N_Cloud_Kit\src/tensorflow/lite/kernels/internal/reference\conv.h ****   TFLITE_DCHECK_EQ(filter_shape.DimensionsCount(), 4);
 3919                             		.loc 11 43 3 is_stmt 1
 3920                             	.LVL322:
 3921                             	.LBE1815:
 3922                             	.LBE1832:
 3923                             	.LBE1862:
 3924                             	.LBE1879:
 194:C:\Users\a5116938\Desktop\e2_studio_workspace\EEMBC_final\RX65N_Cloud_Kit\src/tensorflow/lite/kernels/internal\types.h ****   inline int32_t Dims(int i) const {
 3925                             		.loc 3 194 44
 3926                             	.LBB1880:
 3927                             	.LBB1863:
 3928                             	.LBB1833:
 3929                             	.LBB1816:
 3930                             		.loc 11 43 3 is_stmt 0
 3931 0187 ED 07 2B                		mov.L	172[r0], r7
 3932 018a 61 47                   		cmp	#4, r7
 3933 018c 3B 5C FF                		bne	.L208
  44:C:\Users\a5116938\Desktop\e2_studio_workspace\EEMBC_final\RX65N_Cloud_Kit\src/tensorflow/lite/kernels/internal/reference\conv.h ****   TFLITE_DCHECK_EQ(output_shape.DimensionsCount(), 4);
 3934                             		.loc 11 44 3 is_stmt 1
 3935                             	.LVL323:
 3936                             	.LBE1816:
 3937                             	.LBE1833:
 3938                             	.LBE1863:
 3939                             	.LBE1880:
 194:C:\Users\a5116938\Desktop\e2_studio_workspace\EEMBC_final\RX65N_Cloud_Kit\src/tensorflow/lite/kernels/internal\types.h ****   inline int32_t Dims(int i) const {
 3940                             		.loc 3 194 44
 3941                             	.LBB1881:
 3942                             	.LBB1864:
 3943                             	.LBB1834:
 3944                             	.LBB1817:
 3945                             		.loc 11 44 3 is_stmt 0
 3946 018f ED 07 37                		mov.L	220[r0], r7
 3947 0192 61 47                   		cmp	#4, r7
 3948 0194 3B 54 FF                		bne	.L208
  45:C:\Users\a5116938\Desktop\e2_studio_workspace\EEMBC_final\RX65N_Cloud_Kit\src/tensorflow/lite/kernels/internal/reference\conv.h **** 
  46:C:\Users\a5116938\Desktop\e2_studio_workspace\EEMBC_final\RX65N_Cloud_Kit\src/tensorflow/lite/kernels/internal/reference\conv.h ****   (void)im2col_data;   // only used in optimized code.
 3949                             		.loc 11 46 3 is_stmt 1
  47:C:\Users\a5116938\Desktop\e2_studio_workspace\EEMBC_final\RX65N_Cloud_Kit\src/tensorflow/lite/kernels/internal/reference\conv.h ****   (void)im2col_shape;  // only used in optimized code.
 3950                             		.loc 11 47 3
  48:C:\Users\a5116938\Desktop\e2_studio_workspace\EEMBC_final\RX65N_Cloud_Kit\src/tensorflow/lite/kernels/internal/reference\conv.h ****   const int batches = MatchingDim(input_shape, 0, output_shape, 0);
 3951                             		.loc 11 48 3
 3952                             	.LVL324:
 3953                             	.LBB1638:
 3954                             	.LBB1639:
 440:C:\Users\a5116938\Desktop\e2_studio_workspace\EEMBC_final\RX65N_Cloud_Kit\src/tensorflow/lite/kernels/internal\types.h ****   return std::min(shape1.Dims(index1), shape2.Dims(index2));
 3955                             		.loc 3 440 3
 3956                             	.LBB1640:
 3957                             	.LBB1641:
 196:C:\Users\a5116938\Desktop\e2_studio_workspace\EEMBC_final\RX65N_Cloud_Kit\src/tensorflow/lite/kernels/internal\types.h ****     TFLITE_DCHECK_LT(i, size_);
 3958                             		.loc 3 196 5
 197:C:\Users\a5116938\Desktop\e2_studio_workspace\EEMBC_final\RX65N_Cloud_Kit\src/tensorflow/lite/kernels/internal\types.h ****     return size_ > kMaxSmallSize ? dims_pointer_[i] : dims_[i];
 3959                             		.loc 3 197 5
 198:C:\Users\a5116938\Desktop\e2_studio_workspace\EEMBC_final\RX65N_Cloud_Kit\src/tensorflow/lite/kernels/internal\types.h ****   }
 3960                             		.loc 3 198 5
 198:C:\Users\a5116938\Desktop\e2_studio_workspace\EEMBC_final\RX65N_Cloud_Kit\src/tensorflow/lite/kernels/internal\types.h ****   }
 3961                             		.loc 3 198 34 is_stmt 0
 3962 0197 E5 00 26 4C             		mov.L	152[r0], 304[r0]
 3963                             	.LVL325:
 3964                             	.LBE1641:
 3965                             	.LBE1640:
 3966                             	.LBB1642:
 3967                             	.LBB1643:
 196:C:\Users\a5116938\Desktop\e2_studio_workspace\EEMBC_final\RX65N_Cloud_Kit\src/tensorflow/lite/kernels/internal\types.h ****     TFLITE_DCHECK_LT(i, size_);
 3968                             		.loc 3 196 5 is_stmt 1
 197:C:\Users\a5116938\Desktop\e2_studio_workspace\EEMBC_final\RX65N_Cloud_Kit\src/tensorflow/lite/kernels/internal\types.h ****     return size_ > kMaxSmallSize ? dims_pointer_[i] : dims_[i];
 3969                             		.loc 3 197 5
 198:C:\Users\a5116938\Desktop\e2_studio_workspace\EEMBC_final\RX65N_Cloud_Kit\src/tensorflow/lite/kernels/internal\types.h ****   }
 3970                             		.loc 3 198 5
 198:C:\Users\a5116938\Desktop\e2_studio_workspace\EEMBC_final\RX65N_Cloud_Kit\src/tensorflow/lite/kernels/internal\types.h ****   }
 3971                             		.loc 3 198 34 is_stmt 0
 3972 019b E5 00 38 55             		mov.L	224[r0], 340[r0]
 3973                             	.LVL326:
 3974                             	.LBE1643:
 3975                             	.LBE1642:
 440:C:\Users\a5116938\Desktop\e2_studio_workspace\EEMBC_final\RX65N_Cloud_Kit\src/tensorflow/lite/kernels/internal\types.h ****   return std::min(shape1.Dims(index1), shape2.Dims(index2));
 3976                             		.loc 3 440 3
 3977 019f ED 01 55                		mov.L	340[r0], r1
 3978 01a2 ED 02 4C                		mov.L	304[r0], r2
 3979 01a5 47 21                   		cmp	r2, r1
 3980 01a7 3B 41 FF                		bne	.L208
 3981                             		.loc 3 441 3 is_stmt 1
 3982                             	.LVL327:
 3983                             	.LBE1639:
 3984                             	.LBE1638:
 3985                             	.LBE1817:
 3986                             	.LBE1834:
 3987                             	.LBE1864:
 3988                             	.LBE1881:
 196:C:\Users\a5116938\Desktop\e2_studio_workspace\EEMBC_final\RX65N_Cloud_Kit\src/tensorflow/lite/kernels/internal\types.h ****     TFLITE_DCHECK_LT(i, size_);
 3989                             		.loc 3 196 5
 197:C:\Users\a5116938\Desktop\e2_studio_workspace\EEMBC_final\RX65N_Cloud_Kit\src/tensorflow/lite/kernels/internal\types.h ****     return size_ > kMaxSmallSize ? dims_pointer_[i] : dims_[i];
 3990                             		.loc 3 197 5
 198:C:\Users\a5116938\Desktop\e2_studio_workspace\EEMBC_final\RX65N_Cloud_Kit\src/tensorflow/lite/kernels/internal\types.h ****   }
 3991                             		.loc 3 198 5
 3992                             	.LBB1882:
 3993                             	.LBB1865:
 3994                             	.LBB1835:
 3995                             	.LBB1818:
  49:C:\Users\a5116938\Desktop\e2_studio_workspace\EEMBC_final\RX65N_Cloud_Kit\src/tensorflow/lite/kernels/internal/reference\conv.h ****   const int input_depth = MatchingDim(input_shape, 3, filter_shape, 3);
 3996                             		.loc 11 49 3
 3997                             	.LBB1644:
 3998                             	.LBB1645:
 440:C:\Users\a5116938\Desktop\e2_studio_workspace\EEMBC_final\RX65N_Cloud_Kit\src/tensorflow/lite/kernels/internal\types.h ****   return std::min(shape1.Dims(index1), shape2.Dims(index2));
 3999                             		.loc 3 440 3
 4000                             	.LBB1646:
 4001                             	.LBB1647:
 196:C:\Users\a5116938\Desktop\e2_studio_workspace\EEMBC_final\RX65N_Cloud_Kit\src/tensorflow/lite/kernels/internal\types.h ****     TFLITE_DCHECK_LT(i, size_);
 4002                             		.loc 3 196 5
 197:C:\Users\a5116938\Desktop\e2_studio_workspace\EEMBC_final\RX65N_Cloud_Kit\src/tensorflow/lite/kernels/internal\types.h ****     return size_ > kMaxSmallSize ? dims_pointer_[i] : dims_[i];
 4003                             		.loc 3 197 5
 198:C:\Users\a5116938\Desktop\e2_studio_workspace\EEMBC_final\RX65N_Cloud_Kit\src/tensorflow/lite/kernels/internal\types.h ****   }
 4004                             		.loc 3 198 5
 198:C:\Users\a5116938\Desktop\e2_studio_workspace\EEMBC_final\RX65N_Cloud_Kit\src/tensorflow/lite/kernels/internal\types.h ****   }
 4005                             		.loc 3 198 34 is_stmt 0
 4006 01aa ED 0F 29                		mov.L	164[r0], r15
 4007                             	.LVL328:
 4008                             	.LBE1647:
 4009                             	.LBE1646:
 4010                             	.LBB1648:
 4011                             	.LBB1649:
 196:C:\Users\a5116938\Desktop\e2_studio_workspace\EEMBC_final\RX65N_Cloud_Kit\src/tensorflow/lite/kernels/internal\types.h ****     TFLITE_DCHECK_LT(i, size_);
 4012                             		.loc 3 196 5 is_stmt 1
 197:C:\Users\a5116938\Desktop\e2_studio_workspace\EEMBC_final\RX65N_Cloud_Kit\src/tensorflow/lite/kernels/internal\types.h ****     return size_ > kMaxSmallSize ? dims_pointer_[i] : dims_[i];
 4013                             		.loc 3 197 5
 198:C:\Users\a5116938\Desktop\e2_studio_workspace\EEMBC_final\RX65N_Cloud_Kit\src/tensorflow/lite/kernels/internal\types.h ****   }
 4014                             		.loc 3 198 5
 198:C:\Users\a5116938\Desktop\e2_studio_workspace\EEMBC_final\RX65N_Cloud_Kit\src/tensorflow/lite/kernels/internal\types.h ****   }
 4015                             		.loc 3 198 34 is_stmt 0
 4016 01ad E5 00 2F 44             		mov.L	188[r0], 272[r0]
 4017                             	.LVL329:
 4018                             	.LBE1649:
 4019                             	.LBE1648:
 440:C:\Users\a5116938\Desktop\e2_studio_workspace\EEMBC_final\RX65N_Cloud_Kit\src/tensorflow/lite/kernels/internal\types.h ****   return std::min(shape1.Dims(index1), shape2.Dims(index2));
 4020                             		.loc 3 440 3
 4021 01b1 ED 05 44                		mov.L	272[r0], r5
 4022 01b4 47 F5                   		cmp	r15, r5
 4023 01b6 3B 32 FF                		bne	.L208
 4024                             		.loc 3 441 3 is_stmt 1
 4025                             	.LVL330:
 4026                             	.LBE1645:
 4027                             	.LBE1644:
 4028                             	.LBE1818:
 4029                             	.LBE1835:
 4030                             	.LBE1865:
 4031                             	.LBE1882:
 196:C:\Users\a5116938\Desktop\e2_studio_workspace\EEMBC_final\RX65N_Cloud_Kit\src/tensorflow/lite/kernels/internal\types.h ****     TFLITE_DCHECK_LT(i, size_);
 4032                             		.loc 3 196 5
 197:C:\Users\a5116938\Desktop\e2_studio_workspace\EEMBC_final\RX65N_Cloud_Kit\src/tensorflow/lite/kernels/internal\types.h ****     return size_ > kMaxSmallSize ? dims_pointer_[i] : dims_[i];
 4033                             		.loc 3 197 5
 198:C:\Users\a5116938\Desktop\e2_studio_workspace\EEMBC_final\RX65N_Cloud_Kit\src/tensorflow/lite/kernels/internal\types.h ****   }
 4034                             		.loc 3 198 5
 4035                             	.LBB1883:
 4036                             	.LBB1866:
 4037                             	.LBB1836:
 4038                             	.LBB1819:
  50:C:\Users\a5116938\Desktop\e2_studio_workspace\EEMBC_final\RX65N_Cloud_Kit\src/tensorflow/lite/kernels/internal/reference\conv.h ****   const int output_depth = MatchingDim(filter_shape, 0, output_shape, 3);
 4039                             		.loc 11 50 3
 4040                             	.LBB1650:
 4041                             	.LBB1651:
 440:C:\Users\a5116938\Desktop\e2_studio_workspace\EEMBC_final\RX65N_Cloud_Kit\src/tensorflow/lite/kernels/internal\types.h ****   return std::min(shape1.Dims(index1), shape2.Dims(index2));
 4042                             		.loc 3 440 3
 4043                             	.LBB1652:
 4044                             	.LBB1653:
 196:C:\Users\a5116938\Desktop\e2_studio_workspace\EEMBC_final\RX65N_Cloud_Kit\src/tensorflow/lite/kernels/internal\types.h ****     TFLITE_DCHECK_LT(i, size_);
 4045                             		.loc 3 196 5
 197:C:\Users\a5116938\Desktop\e2_studio_workspace\EEMBC_final\RX65N_Cloud_Kit\src/tensorflow/lite/kernels/internal\types.h ****     return size_ > kMaxSmallSize ? dims_pointer_[i] : dims_[i];
 4046                             		.loc 3 197 5
 198:C:\Users\a5116938\Desktop\e2_studio_workspace\EEMBC_final\RX65N_Cloud_Kit\src/tensorflow/lite/kernels/internal\types.h ****   }
 4047                             		.loc 3 198 5
 198:C:\Users\a5116938\Desktop\e2_studio_workspace\EEMBC_final\RX65N_Cloud_Kit\src/tensorflow/lite/kernels/internal\types.h ****   }
 4048                             		.loc 3 198 34 is_stmt 0
 4049 01b9 E5 00 2C 46             		mov.L	176[r0], 280[r0]
 4050                             	.LVL331:
 4051                             	.LBE1653:
 4052                             	.LBE1652:
 4053                             	.LBB1654:
 4054                             	.LBB1655:
 196:C:\Users\a5116938\Desktop\e2_studio_workspace\EEMBC_final\RX65N_Cloud_Kit\src/tensorflow/lite/kernels/internal\types.h ****     TFLITE_DCHECK_LT(i, size_);
 4055                             		.loc 3 196 5 is_stmt 1
 197:C:\Users\a5116938\Desktop\e2_studio_workspace\EEMBC_final\RX65N_Cloud_Kit\src/tensorflow/lite/kernels/internal\types.h ****     return size_ > kMaxSmallSize ? dims_pointer_[i] : dims_[i];
 4056                             		.loc 3 197 5
 198:C:\Users\a5116938\Desktop\e2_studio_workspace\EEMBC_final\RX65N_Cloud_Kit\src/tensorflow/lite/kernels/internal\types.h ****   }
 4057                             		.loc 3 198 5
 198:C:\Users\a5116938\Desktop\e2_studio_workspace\EEMBC_final\RX65N_Cloud_Kit\src/tensorflow/lite/kernels/internal\types.h ****   }
 4058                             		.loc 3 198 34 is_stmt 0
 4059 01bd E5 00 3B 52             		mov.L	236[r0], 328[r0]
 4060                             	.LVL332:
 4061                             	.LBE1655:
 4062                             	.LBE1654:
 440:C:\Users\a5116938\Desktop\e2_studio_workspace\EEMBC_final\RX65N_Cloud_Kit\src/tensorflow/lite/kernels/internal\types.h ****   return std::min(shape1.Dims(index1), shape2.Dims(index2));
 4063                             		.loc 3 440 3
 4064 01c1 ED 03 52                		mov.L	328[r0], r3
 4065 01c4 ED 04 46                		mov.L	280[r0], r4
 4066 01c7 47 43                   		cmp	r4, r3
 4067 01c9 3B 1F FF                		bne	.L208
 4068                             		.loc 3 441 3 is_stmt 1
 4069                             	.LVL333:
 4070                             	.LBE1651:
 4071                             	.LBE1650:
 4072                             	.LBE1819:
 4073                             	.LBE1836:
 4074                             	.LBE1866:
 4075                             	.LBE1883:
 196:C:\Users\a5116938\Desktop\e2_studio_workspace\EEMBC_final\RX65N_Cloud_Kit\src/tensorflow/lite/kernels/internal\types.h ****     TFLITE_DCHECK_LT(i, size_);
 4076                             		.loc 3 196 5
 197:C:\Users\a5116938\Desktop\e2_studio_workspace\EEMBC_final\RX65N_Cloud_Kit\src/tensorflow/lite/kernels/internal\types.h ****     return size_ > kMaxSmallSize ? dims_pointer_[i] : dims_[i];
 4077                             		.loc 3 197 5
 198:C:\Users\a5116938\Desktop\e2_studio_workspace\EEMBC_final\RX65N_Cloud_Kit\src/tensorflow/lite/kernels/internal\types.h ****   }
 4078                             		.loc 3 198 5
 4079                             	.LBB1884:
 4080                             	.LBB1867:
 4081                             	.LBB1837:
 4082                             	.LBB1820:
  51:C:\Users\a5116938\Desktop\e2_studio_workspace\EEMBC_final\RX65N_Cloud_Kit\src/tensorflow/lite/kernels/internal/reference\conv.h ****   if (bias_data) {
 4083                             		.loc 11 51 3
 4084 01cc ED 02 54                		mov.L	336[r0], r2
 4085 01cf 61 02                   		cmp	#0, r2
 4086 01d1 20 27                   		beq	.L292
  52:C:\Users\a5116938\Desktop\e2_studio_workspace\EEMBC_final\RX65N_Cloud_Kit\src/tensorflow/lite/kernels/internal/reference\conv.h ****     TFLITE_DCHECK_EQ(bias_shape.FlatSize(), output_depth);
 4087                             		.loc 11 52 5
 4088                             	.LVL334:
 4089                             	.LBB1656:
 4090                             	.LBB1657:
 272:C:\Users\a5116938\Desktop\e2_studio_workspace\EEMBC_final\RX65N_Cloud_Kit\src/tensorflow/lite/kernels/internal\types.h ****     const int* dims_data = reinterpret_cast<const int*>(DimsData());
 4091                             		.loc 3 272 5
 273:C:\Users\a5116938\Desktop\e2_studio_workspace\EEMBC_final\RX65N_Cloud_Kit\src/tensorflow/lite/kernels/internal\types.h ****     for (int i = 0; i < size_; i++) {
 4092                             		.loc 3 273 5
 4093                             	.LBB1658:
 4094                             	.LBB1659:
 214:C:\Users\a5116938\Desktop\e2_studio_workspace\EEMBC_final\RX65N_Cloud_Kit\src/tensorflow/lite/kernels/internal\types.h ****   }
 4095                             		.loc 3 214 5
 214:C:\Users\a5116938\Desktop\e2_studio_workspace\EEMBC_final\RX65N_Cloud_Kit\src/tensorflow/lite/kernels/internal\types.h ****   }
 4096                             		.loc 3 214 12 is_stmt 0
 4097 01d3 ED 04 31                		mov.L	196[r0], r4
 214:C:\Users\a5116938\Desktop\e2_studio_workspace\EEMBC_final\RX65N_Cloud_Kit\src/tensorflow/lite/kernels/internal\types.h ****   }
 4098                             		.loc 3 214 34
 4099 01d6 61 54                   		cmp	#5, r4
 4100 01d8 2A 05 38 7D 08          		ble	.L217
 4101 01dd ED 03 32                		mov.L	200[r0], r3
 4102                             	.LVL335:
 4103                             	.LBE1659:
 4104                             	.LBE1658:
 274:C:\Users\a5116938\Desktop\e2_studio_workspace\EEMBC_final\RX65N_Cloud_Kit\src/tensorflow/lite/kernels/internal\types.h ****       buffer_size *= dims_data[i];
 4105                             		.loc 3 274 5 is_stmt 1
 4106                             		.balign 8,3,1
 4107                             	.L218:
 4108                             	.LBB1662:
 4109                             	.LBB1660:
 214:C:\Users\a5116938\Desktop\e2_studio_workspace\EEMBC_final\RX65N_Cloud_Kit\src/tensorflow/lite/kernels/internal\types.h ****   }
 4110                             		.loc 3 214 34 is_stmt 0
 4111 01e0 66 1A                   		mov.L	#1, r10
 4112                             	.LVL336:
 4113 01e2 66 07                   		mov.L	#0, r7
 4114                             	.LVL337:
 4115                             		.balign 8,3,3
 4116                             	.L220:
 4117                             	.LBE1660:
 4118                             	.LBE1662:
 4119                             	.LBB1663:
 275:C:\Users\a5116938\Desktop\e2_studio_workspace\EEMBC_final\RX65N_Cloud_Kit\src/tensorflow/lite/kernels/internal\types.h ****     }
 4120                             		.loc 3 275 7 is_stmt 1
 275:C:\Users\a5116938\Desktop\e2_studio_workspace\EEMBC_final\RX65N_Cloud_Kit\src/tensorflow/lite/kernels/internal\types.h ****     }
 4121                             		.loc 3 275 19 is_stmt 0
 4122 01e4 FE 67 35                		mov.L	[r7,r3], r5
 274:C:\Users\a5116938\Desktop\e2_studio_workspace\EEMBC_final\RX65N_Cloud_Kit\src/tensorflow/lite/kernels/internal\types.h ****       buffer_size *= dims_data[i];
 4123                             		.loc 3 274 5
 4124 01e7 62 17                   		add	#1, r7
 4125                             	.LVL338:
 275:C:\Users\a5116938\Desktop\e2_studio_workspace\EEMBC_final\RX65N_Cloud_Kit\src/tensorflow/lite/kernels/internal\types.h ****     }
 4126                             		.loc 3 275 19
 4127 01e9 4F 5A                   		mul	r5, r10
 4128                             	.LVL339:
 274:C:\Users\a5116938\Desktop\e2_studio_workspace\EEMBC_final\RX65N_Cloud_Kit\src/tensorflow/lite/kernels/internal\types.h ****       buffer_size *= dims_data[i];
 4129                             		.loc 3 274 23
 4130 01eb 47 74                   		cmp	r7, r4
 4131 01ed 2A F7                   		bgt	.L220
 4132                             	.LVL340:
 4133 01ef 03                      		.balign 8,3,2
 4134                             	.L219:
 4135                             	.LBE1663:
 277:C:\Users\a5116938\Desktop\e2_studio_workspace\EEMBC_final\RX65N_Cloud_Kit\src/tensorflow/lite/kernels/internal\types.h ****   }
 4136                             		.loc 3 277 5 is_stmt 1
 4137                             	.LBE1657:
 4138                             	.LBE1656:
 4139                             		.loc 11 52 5 is_stmt 0
 4140 01f0 ED 03 46                		mov.L	280[r0], r3
 4141 01f3 47 A3                   		cmp	r10, r3
 4142 01f5 3B F3 FE                		bne	.L208
 4143                             	.LVL341:
 4144                             		.balign 8,3,1
 4145                             	.L292:
  53:C:\Users\a5116938\Desktop\e2_studio_workspace\EEMBC_final\RX65N_Cloud_Kit\src/tensorflow/lite/kernels/internal/reference\conv.h ****   }
  54:C:\Users\a5116938\Desktop\e2_studio_workspace\EEMBC_final\RX65N_Cloud_Kit\src/tensorflow/lite/kernels/internal/reference\conv.h ****   const int input_height = input_shape.Dims(1);
 4146                             		.loc 11 54 3 is_stmt 1
 4147                             	.LBB1668:
 4148                             	.LBB1669:
 196:C:\Users\a5116938\Desktop\e2_studio_workspace\EEMBC_final\RX65N_Cloud_Kit\src/tensorflow/lite/kernels/internal\types.h ****     TFLITE_DCHECK_LT(i, size_);
 4149                             		.loc 3 196 5
 197:C:\Users\a5116938\Desktop\e2_studio_workspace\EEMBC_final\RX65N_Cloud_Kit\src/tensorflow/lite/kernels/internal\types.h ****     return size_ > kMaxSmallSize ? dims_pointer_[i] : dims_[i];
 4150                             		.loc 3 197 5
 198:C:\Users\a5116938\Desktop\e2_studio_workspace\EEMBC_final\RX65N_Cloud_Kit\src/tensorflow/lite/kernels/internal\types.h ****   }
 4151                             		.loc 3 198 5
 198:C:\Users\a5116938\Desktop\e2_studio_workspace\EEMBC_final\RX65N_Cloud_Kit\src/tensorflow/lite/kernels/internal\types.h ****   }
 4152                             		.loc 3 198 34 is_stmt 0
 4153 01f8 E5 00 27 49             		mov.L	156[r0], 292[r0]
 4154                             	.LVL342:
 4155                             	.LBE1669:
 4156                             	.LBE1668:
  55:C:\Users\a5116938\Desktop\e2_studio_workspace\EEMBC_final\RX65N_Cloud_Kit\src/tensorflow/lite/kernels/internal/reference\conv.h ****   const int input_width = input_shape.Dims(2);
 4157                             		.loc 11 55 3 is_stmt 1
 4158                             	.LBB1670:
 4159                             	.LBB1671:
 196:C:\Users\a5116938\Desktop\e2_studio_workspace\EEMBC_final\RX65N_Cloud_Kit\src/tensorflow/lite/kernels/internal\types.h ****     TFLITE_DCHECK_LT(i, size_);
 4160                             		.loc 3 196 5
 197:C:\Users\a5116938\Desktop\e2_studio_workspace\EEMBC_final\RX65N_Cloud_Kit\src/tensorflow/lite/kernels/internal\types.h ****     return size_ > kMaxSmallSize ? dims_pointer_[i] : dims_[i];
 4161                             		.loc 3 197 5
 198:C:\Users\a5116938\Desktop\e2_studio_workspace\EEMBC_final\RX65N_Cloud_Kit\src/tensorflow/lite/kernels/internal\types.h ****   }
 4162                             		.loc 3 198 5
 198:C:\Users\a5116938\Desktop\e2_studio_workspace\EEMBC_final\RX65N_Cloud_Kit\src/tensorflow/lite/kernels/internal\types.h ****   }
 4163                             		.loc 3 198 34 is_stmt 0
 4164 01fc E5 00 28 45             		mov.L	160[r0], 276[r0]
 4165                             	.LVL343:
 4166                             	.LBE1671:
 4167                             	.LBE1670:
  56:C:\Users\a5116938\Desktop\e2_studio_workspace\EEMBC_final\RX65N_Cloud_Kit\src/tensorflow/lite/kernels/internal/reference\conv.h ****   const int filter_height = filter_shape.Dims(1);
 4168                             		.loc 11 56 3 is_stmt 1
 4169                             	.LBB1672:
 4170                             	.LBB1673:
 196:C:\Users\a5116938\Desktop\e2_studio_workspace\EEMBC_final\RX65N_Cloud_Kit\src/tensorflow/lite/kernels/internal\types.h ****     TFLITE_DCHECK_LT(i, size_);
 4171                             		.loc 3 196 5
 197:C:\Users\a5116938\Desktop\e2_studio_workspace\EEMBC_final\RX65N_Cloud_Kit\src/tensorflow/lite/kernels/internal\types.h ****     return size_ > kMaxSmallSize ? dims_pointer_[i] : dims_[i];
 4172                             		.loc 3 197 5
 198:C:\Users\a5116938\Desktop\e2_studio_workspace\EEMBC_final\RX65N_Cloud_Kit\src/tensorflow/lite/kernels/internal\types.h ****   }
 4173                             		.loc 3 198 5
 198:C:\Users\a5116938\Desktop\e2_studio_workspace\EEMBC_final\RX65N_Cloud_Kit\src/tensorflow/lite/kernels/internal\types.h ****   }
 4174                             		.loc 3 198 34 is_stmt 0
 4175 0200 ED 0D 2D                		mov.L	180[r0], r13
 4176                             	.LVL344:
 4177                             	.LBE1673:
 4178                             	.LBE1672:
  57:C:\Users\a5116938\Desktop\e2_studio_workspace\EEMBC_final\RX65N_Cloud_Kit\src/tensorflow/lite/kernels/internal/reference\conv.h ****   const int filter_width = filter_shape.Dims(2);
 4179                             		.loc 11 57 3 is_stmt 1
 4180                             	.LBB1674:
 4181                             	.LBB1675:
 196:C:\Users\a5116938\Desktop\e2_studio_workspace\EEMBC_final\RX65N_Cloud_Kit\src/tensorflow/lite/kernels/internal\types.h ****     TFLITE_DCHECK_LT(i, size_);
 4182                             		.loc 3 196 5
 197:C:\Users\a5116938\Desktop\e2_studio_workspace\EEMBC_final\RX65N_Cloud_Kit\src/tensorflow/lite/kernels/internal\types.h ****     return size_ > kMaxSmallSize ? dims_pointer_[i] : dims_[i];
 4183                             		.loc 3 197 5
 198:C:\Users\a5116938\Desktop\e2_studio_workspace\EEMBC_final\RX65N_Cloud_Kit\src/tensorflow/lite/kernels/internal\types.h ****   }
 4184                             		.loc 3 198 5
 198:C:\Users\a5116938\Desktop\e2_studio_workspace\EEMBC_final\RX65N_Cloud_Kit\src/tensorflow/lite/kernels/internal\types.h ****   }
 4185                             		.loc 3 198 34 is_stmt 0
 4186 0203 ED 0E 2E                		mov.L	184[r0], r14
 4187                             	.LVL345:
 4188                             	.LBE1675:
 4189                             	.LBE1674:
  58:C:\Users\a5116938\Desktop\e2_studio_workspace\EEMBC_final\RX65N_Cloud_Kit\src/tensorflow/lite/kernels/internal/reference\conv.h ****   const int output_height = output_shape.Dims(1);
 4190                             		.loc 11 58 3 is_stmt 1
 4191                             	.LBB1676:
 4192                             	.LBB1677:
 196:C:\Users\a5116938\Desktop\e2_studio_workspace\EEMBC_final\RX65N_Cloud_Kit\src/tensorflow/lite/kernels/internal\types.h ****     TFLITE_DCHECK_LT(i, size_);
 4193                             		.loc 3 196 5
 197:C:\Users\a5116938\Desktop\e2_studio_workspace\EEMBC_final\RX65N_Cloud_Kit\src/tensorflow/lite/kernels/internal\types.h ****     return size_ > kMaxSmallSize ? dims_pointer_[i] : dims_[i];
 4194                             		.loc 3 197 5
 198:C:\Users\a5116938\Desktop\e2_studio_workspace\EEMBC_final\RX65N_Cloud_Kit\src/tensorflow/lite/kernels/internal\types.h ****   }
 4195                             		.loc 3 198 5
 198:C:\Users\a5116938\Desktop\e2_studio_workspace\EEMBC_final\RX65N_Cloud_Kit\src/tensorflow/lite/kernels/internal\types.h ****   }
 4196                             		.loc 3 198 34 is_stmt 0
 4197 0206 E5 00 39 56             		mov.L	228[r0], 344[r0]
 4198                             	.LVL346:
 4199                             	.LBE1677:
 4200                             	.LBE1676:
  59:C:\Users\a5116938\Desktop\e2_studio_workspace\EEMBC_final\RX65N_Cloud_Kit\src/tensorflow/lite/kernels/internal/reference\conv.h ****   const int output_width = output_shape.Dims(2);
 4201                             		.loc 11 59 3 is_stmt 1
 4202                             	.LBB1678:
 4203                             	.LBB1679:
 196:C:\Users\a5116938\Desktop\e2_studio_workspace\EEMBC_final\RX65N_Cloud_Kit\src/tensorflow/lite/kernels/internal\types.h ****     TFLITE_DCHECK_LT(i, size_);
 4204                             		.loc 3 196 5
 197:C:\Users\a5116938\Desktop\e2_studio_workspace\EEMBC_final\RX65N_Cloud_Kit\src/tensorflow/lite/kernels/internal\types.h ****     return size_ > kMaxSmallSize ? dims_pointer_[i] : dims_[i];
 4205                             		.loc 3 197 5
 198:C:\Users\a5116938\Desktop\e2_studio_workspace\EEMBC_final\RX65N_Cloud_Kit\src/tensorflow/lite/kernels/internal\types.h ****   }
 4206                             		.loc 3 198 5
 198:C:\Users\a5116938\Desktop\e2_studio_workspace\EEMBC_final\RX65N_Cloud_Kit\src/tensorflow/lite/kernels/internal\types.h ****   }
 4207                             		.loc 3 198 34 is_stmt 0
 4208 020a E5 00 3A 53             		mov.L	232[r0], 332[r0]
 4209                             	.LVL347:
 4210                             	.LBE1679:
 4211                             	.LBE1678:
  60:C:\Users\a5116938\Desktop\e2_studio_workspace\EEMBC_final\RX65N_Cloud_Kit\src/tensorflow/lite/kernels/internal/reference\conv.h ****   for (int batch = 0; batch < batches; ++batch) {
 4212                             		.loc 11 60 3 is_stmt 1
 4213                             	.LBB1680:
 4214                             		.loc 11 60 29 is_stmt 0
 4215 020e ED 04 55                		mov.L	340[r0], r4
 4216 0211 61 04                   		cmp	#0, r4
 4217 0213 2A 05 38 68 07          		ble	.L225
 4218 0218 ED 07 5F                		mov.L	380[r0], r7
 4219 021b ED 05 45                		mov.L	276[r0], r5
 4220 021e 4F 57                   		mul	r5, r7
 4221 0220 FD C2 F3                		shll	#2, r15, r3
 4222 0223 7E 17                   		neg	r7
 4223 0225 ED 02 56                		mov.L	344[r0], r2
 4224                             	.LVL348:
 4225 0228 ED 06 53                		mov.L	332[r0], r6
 4226                             	.LVL349:
 4227 022b 4F 62                   		mul	r6, r2
 4228 022d ED 04 49                		mov.L	292[r0], r4
 4229 0230 4F 54                   		mul	r5, r4
 4230 0232 ED 08 5E                		mov.L	376[r0], r8
 4231                             	.LVL350:
 4232 0235 43 87                   		sub	r8, r7
 4233 0237 EF 5A                   		mov.L	r5, r10
 4234 0239 4F FA                   		mul	r15, r10
 4235 023b FF 35 ED                		mul	r14, r13, r5
 4236 023e 6C 2A                   		shll	#2, r10
 4237 0240 ED 01 52                		mov.L	328[r0], r1
 4238 0243 4F 12                   		mul	r1, r2
 4239 0245 4F F4                   		mul	r15, r4
 4240 0247 4F 37                   		mul	r3, r7
 4241 0249 4F 61                   		mul	r6, r1
 4242 024b ED 06 48                		mov.L	288[r0], r6
 4243 024e DF 66                   		mov.W	r6, r6
 4244 0250 E7 06 67                		mov.L	r6, 412[r0]
 4245 0253 ED 08 47                		mov.L	284[r0], r8
 4246 0256 DF 88                   		mov.W	r8, r8
 4247 0258 E7 08 62                		mov.L	r8, 392[r0]
 4248 025b ED 06 44                		mov.L	272[r0], r6
 4249 025e 4F 65                   		mul	r6, r5
 4250 0260 4F E6                   		mul	r14, r6
 4251 0262 DF BB                   		mov.W	r11, r11
 4252                             	.LVL351:
 4253 0264 E7 0B 4D                		mov.L	r11, 308[r0]
 4254 0267 ED 08 4A                		mov.L	296[r0], r8
 4255 026a DF 88                   		mov.W	r8, r8
 4256 026c E7 08 47                		mov.L	r8, 284[r0]
 4257                             	.LVL352:
 4258 026f 6C 22                   		shll	#2, r2
 4259 0271 E7 02 6C                		mov.L	r2, 432[r0]
 4260 0274 E7 09 65                		mov.L	r9, 404[r0]
 4261 0277 6C 24                   		shll	#2, r4
 4262 0279 E7 04 6D                		mov.L	r4, 436[r0]
 4263 027c 06 89 07 43             		add	268[r0], r7
 4264 0280 E7 07 66                		mov.L	r7, 408[r0]
 4265 0283 6C 21                   		shll	#2, r1
 4266 0285 E7 01 6A                		mov.L	r1, 424[r0]
 4267 0288 ED 0B 67                		mov.L	412[r0], r11
 4268 028b 4F AB                   		mul	r10, r11
 4269 028d E7 0B 6B                		mov.L	r11, 428[r0]
 4270 0290 ED 01 52                		mov.L	328[r0], r1
 4271 0293 6C 21                   		shll	#2, r1
 4272 0295 E7 01 69                		mov.L	r1, 420[r0]
 4273 0298 ED 02 62                		mov.L	392[r0], r2
 4274 029b 4F 32                   		mul	r3, r2
 4275 029d E7 02 68                		mov.L	r2, 416[r0]
 4276 02a0 6C 25                   		shll	#2, r5
 4277 02a2 E7 05 60                		mov.L	r5, 384[r0]
 4278 02a5 6C 26                   		shll	#2, r6
 4279 02a7 E7 06 50                		mov.L	r6, 320[r0]
 4280 02aa ED 04 4D                		mov.L	308[r0], r4
 4281 02ad 4F A4                   		mul	r10, r4
 4282 02af E7 04 4F                		mov.L	r4, 316[r0]
 4283 02b2 ED 05 44                		mov.L	272[r0], r5
 4284 02b5 6C 25                   		shll	#2, r5
 4285 02b7 E7 05 48                		mov.L	r5, 288[r0]
 4286                             	.LVL353:
 4287 02ba 4F 38                   		mul	r3, r8
 4288 02bc E7 08 4A                		mov.L	r8, 296[r0]
 4289                             	.LVL354:
 4290                             		.loc 11 60 12
 4291 02bf F9 06 4B 00             		mov.L	#0, 300[r0]
 4292                             	.LVL355:
 4293                             		.balign 8,3,2
 4294                             	.L226:
 4295                             	.LBB1681:
  61:C:\Users\a5116938\Desktop\e2_studio_workspace\EEMBC_final\RX65N_Cloud_Kit\src/tensorflow/lite/kernels/internal/reference\conv.h ****     for (int out_y = 0; out_y < output_height; ++out_y) {
 4296                             		.loc 11 61 31
 4297 02c3 ED 06 56                		mov.L	344[r0], r6
 4298 02c6 61 06                   		cmp	#0, r6
 4299 02c8 2A 05 38 8F 06          		ble	.L228
 4300 02cd ED 01 5F                		mov.L	380[r0], r1
 4301 02d0 7E 11                   		neg	r1
 4302 02d2 E7 01 59                		mov.L	r1, 356[r0]
 4303 02d5 E5 00 66 63             		mov.L	408[r0], 396[r0]
 4304 02d9 E5 00 65 61             		mov.L	404[r0], 388[r0]
 4305                             		.loc 11 61 14
 4306 02dd F9 06 5D 00             		mov.L	#0, 372[r0]
 4307                             	.LVL356:
 4308                             		.balign 8,3,2
 4309                             	.L229:
 4310                             	.LBB1682:
  62:C:\Users\a5116938\Desktop\e2_studio_workspace\EEMBC_final\RX65N_Cloud_Kit\src/tensorflow/lite/kernels/internal/reference\conv.h ****       const int in_y_origin = (out_y * stride_height) - pad_height;
 4311                             		.loc 11 62 7 is_stmt 1
  63:C:\Users\a5116938\Desktop\e2_studio_workspace\EEMBC_final\RX65N_Cloud_Kit\src/tensorflow/lite/kernels/internal/reference\conv.h ****       for (int out_x = 0; out_x < output_width; ++out_x) {
 4312                             		.loc 11 63 7
 4313                             	.LBB1683:
 4314                             		.loc 11 63 33 is_stmt 0
 4315 02e1 ED 02 53                		mov.L	332[r0], r2
 4316 02e4 61 02                   		cmp	#0, r2
 4317 02e6 2A 05 38 43 06          		ble	.L231
 4318 02eb ED 08 5E                		mov.L	376[r0], r8
 4319 02ee 7E 18                   		neg	r8
 4320 02f0 E7 08 4E                		mov.L	r8, 312[r0]
 4321 02f3 E5 00 63 57             		mov.L	396[r0], 348[r0]
 4322 02f7 E5 00 61 5C             		mov.L	388[r0], 368[r0]
 4323                             		.loc 11 63 16
 4324 02fb F9 06 58 00             		mov.L	#0, 352[r0]
 4325                             	.LVL357:
 4326 02ff 03                      		.balign 8,3,2
 4327                             	.L232:
 4328                             	.LBB1684:
  64:C:\Users\a5116938\Desktop\e2_studio_workspace\EEMBC_final\RX65N_Cloud_Kit\src/tensorflow/lite/kernels/internal/reference\conv.h ****         const int in_x_origin = (out_x * stride_width) - pad_width;
 4329                             		.loc 11 64 9 is_stmt 1
  65:C:\Users\a5116938\Desktop\e2_studio_workspace\EEMBC_final\RX65N_Cloud_Kit\src/tensorflow/lite/kernels/internal/reference\conv.h ****         for (int out_channel = 0; out_channel < output_depth; ++out_channel) {
 4330                             		.loc 11 65 9
 4331                             	.LBB1685:
 4332                             		.loc 11 65 47 is_stmt 0
 4333 0300 ED 0A 46                		mov.L	280[r0], r10
 4334 0303 61 0A                   		cmp	#0, r10
 4335 0305 2A 05 38 F6 05          		ble	.L243
 4336 030a E5 00 64 51             		mov.L	400[r0], 324[r0]
 4337                             		.loc 11 65 18
 4338 030e F9 06 43 00             		mov.L	#0, 268[r0]
 4339                             	.LVL358:
 4340                             		.balign 8,3,1
 4341                             	.L233:
 4342                             	.LBB1686:
 4343                             	.LBB1687:
  66:C:\Users\a5116938\Desktop\e2_studio_workspace\EEMBC_final\RX65N_Cloud_Kit\src/tensorflow/lite/kernels/internal/reference\conv.h ****           float total = 0.f;
  67:C:\Users\a5116938\Desktop\e2_studio_workspace\EEMBC_final\RX65N_Cloud_Kit\src/tensorflow/lite/kernels/internal/reference\conv.h ****           for (int filter_y = 0; filter_y < filter_height; ++filter_y) {
 4344                             		.loc 11 67 43
 4345 0312 61 0D                   		cmp	#0, r13
 4346 0314 2A 05 38 53 07          		ble	.L308
 4347 0319 ED 09 57                		mov.L	348[r0], r9
 4348 031c ED 0C 51                		mov.L	324[r0], r12
 4349 031f ED 01 59                		mov.L	356[r0], r1
 4350                             	.LBE1687:
  66:C:\Users\a5116938\Desktop\e2_studio_workspace\EEMBC_final\RX65N_Cloud_Kit\src/tensorflow/lite/kernels/internal/reference\conv.h ****           float total = 0.f;
 4351                             		.loc 11 66 17
 4352 0322 66 0B                   		mov.L	#0x0, r11
 4353                             	.LBB1732:
 4354                             		.loc 11 67 20
 4355 0324 66 06                   		mov.L	#0, r6
 4356                             	.LVL359:
 4357                             		.balign 8,3,1
 4358                             	.L239:
 4359                             	.LBB1688:
  68:C:\Users\a5116938\Desktop\e2_studio_workspace\EEMBC_final\RX65N_Cloud_Kit\src/tensorflow/lite/kernels/internal/reference\conv.h ****             const int in_y = in_y_origin + dilation_height_factor * filter_y;
 4360                             		.loc 11 68 13 is_stmt 1
  69:C:\Users\a5116938\Desktop\e2_studio_workspace\EEMBC_final\RX65N_Cloud_Kit\src/tensorflow/lite/kernels/internal/reference\conv.h ****             for (int filter_x = 0; filter_x < filter_width; ++filter_x) {
 4361                             		.loc 11 69 13
 4362                             	.LBB1689:
 4363                             		.loc 11 69 45 is_stmt 0
 4364 0326 61 0E                   		cmp	#0, r14
 4365 0328 2A 05 38 46 05          		ble	.L235
 4366 032d EF 92                   		mov.L	r9, r2
 4367 032f EF C3                   		mov.L	r12, r3
 4368 0331 ED 0A 4E                		mov.L	312[r0], r10
 4369                             		.loc 11 69 22
 4370 0334 66 05                   		mov.L	#0, r5
 4371 0336 2E 15                   		bra	.L238
 4372                             	.LVL360:
 4373                             	.L236:
 4374                             		.loc 11 69 13
 4375 0338 62 15                   		add	#1, r5
 4376                             	.LVL361:
 4377 033a 06 89 0A 47             		add	284[r0], r10
 4378 033e 06 89 03 48             		add	288[r0], r3
 4379 0342 06 89 02 4A             		add	296[r0], r2
 4380                             		.loc 11 69 45
 4381 0346 47 E5                   		cmp	r14, r5
 4382 0348 3A 28 05                		beq	.L235
 4383                             	.LVL362:
 4384                             		.balign 8,3,1
 4385                             	.L238:
 4386                             	.LBB1690:
  70:C:\Users\a5116938\Desktop\e2_studio_workspace\EEMBC_final\RX65N_Cloud_Kit\src/tensorflow/lite/kernels/internal/reference\conv.h ****               const int in_x = in_x_origin + dilation_width_factor * filter_x;
 4387                             		.loc 11 70 15 is_stmt 1
  71:C:\Users\a5116938\Desktop\e2_studio_workspace\EEMBC_final\RX65N_Cloud_Kit\src/tensorflow/lite/kernels/internal/reference\conv.h **** 
  72:C:\Users\a5116938\Desktop\e2_studio_workspace\EEMBC_final\RX65N_Cloud_Kit\src/tensorflow/lite/kernels/internal/reference\conv.h ****               // Zero padding by omitting the areas outside the image.
  73:C:\Users\a5116938\Desktop\e2_studio_workspace\EEMBC_final\RX65N_Cloud_Kit\src/tensorflow/lite/kernels/internal/reference\conv.h ****               const bool is_point_inside_image =
 4388                             		.loc 11 73 15
  74:C:\Users\a5116938\Desktop\e2_studio_workspace\EEMBC_final\RX65N_Cloud_Kit\src/tensorflow/lite/kernels/internal/reference\conv.h ****                   (in_x >= 0) && (in_x < input_width) && (in_y >= 0) &&
 4389                             		.loc 11 74 70 is_stmt 0
 4390 034b 61 0A                   		cmp	#0, r10
 4391 034d 29 EB                   		blt	.L236
 4392                             		.loc 11 74 31
 4393 034f ED 07 45                		mov.L	276[r0], r7
 4394 0352 47 A7                   		cmp	r10, r7
 4395 0354 2B E4                   		ble	.L236
 4396                             		.loc 11 74 55
 4397 0356 61 01                   		cmp	#0, r1
 4398 0358 29 E0                   		blt	.L236
 4399                             		.loc 11 74 70
 4400 035a ED 08 49                		mov.L	292[r0], r8
 4401 035d 47 18                   		cmp	r1, r8
 4402 035f 2B D9                   		ble	.L236
 4403                             	.LVL363:
 4404                             	.LBB1691:
  75:C:\Users\a5116938\Desktop\e2_studio_workspace\EEMBC_final\RX65N_Cloud_Kit\src/tensorflow/lite/kernels/internal/reference\conv.h ****                   (in_y < input_height);
  76:C:\Users\a5116938\Desktop\e2_studio_workspace\EEMBC_final\RX65N_Cloud_Kit\src/tensorflow/lite/kernels/internal/reference\conv.h **** 
  77:C:\Users\a5116938\Desktop\e2_studio_workspace\EEMBC_final\RX65N_Cloud_Kit\src/tensorflow/lite/kernels/internal/reference\conv.h ****               if (!is_point_inside_image) {
  78:C:\Users\a5116938\Desktop\e2_studio_workspace\EEMBC_final\RX65N_Cloud_Kit\src/tensorflow/lite/kernels/internal/reference\conv.h ****                 continue;
  79:C:\Users\a5116938\Desktop\e2_studio_workspace\EEMBC_final\RX65N_Cloud_Kit\src/tensorflow/lite/kernels/internal/reference\conv.h ****               }
  80:C:\Users\a5116938\Desktop\e2_studio_workspace\EEMBC_final\RX65N_Cloud_Kit\src/tensorflow/lite/kernels/internal/reference\conv.h **** 
  81:C:\Users\a5116938\Desktop\e2_studio_workspace\EEMBC_final\RX65N_Cloud_Kit\src/tensorflow/lite/kernels/internal/reference\conv.h ****               for (int in_channel = 0; in_channel < input_depth; ++in_channel) {
 4405                             		.loc 11 81 51
 4406 0361 61 0F                   		cmp	#0, r15
 4407 0363 2B D5                   		ble	.L236
 4408                             	.LBB1692:
  82:C:\Users\a5116938\Desktop\e2_studio_workspace\EEMBC_final\RX65N_Cloud_Kit\src/tensorflow/lite/kernels/internal/reference\conv.h ****                 float input_value = input_data[Offset(input_shape, batch, in_y,
 4409                             		.loc 11 82 17 is_stmt 1
 4410                             	.LVL364:
 4411                             	.LBB1693:
 4412                             	.LBB1694:
 386:C:\Users\a5116938\Desktop\e2_studio_workspace\EEMBC_final\RX65N_Cloud_Kit\src/tensorflow/lite/kernels/internal\types.h ****   const int* dims_data = reinterpret_cast<const int*>(shape.DimsDataUpTo5D());
 4413                             		.loc 3 386 3
 4414                             	.LBE1694:
 4415                             	.LBE1693:
 4416                             	.LBE1692:
 4417                             	.LBE1691:
 4418                             	.LBE1690:
 4419                             	.LBE1689:
 4420                             	.LBE1688:
 4421                             	.LBE1732:
 4422                             	.LBE1686:
 4423                             	.LBE1685:
 4424                             	.LBE1684:
 4425                             	.LBE1683:
 4426                             	.LBE1682:
 4427                             	.LBE1681:
 4428                             	.LBE1680:
 4429                             	.LBE1820:
 4430                             	.LBE1837:
 4431                             	.LBE1867:
 4432                             	.LBE1884:
 194:C:\Users\a5116938\Desktop\e2_studio_workspace\EEMBC_final\RX65N_Cloud_Kit\src/tensorflow/lite/kernels/internal\types.h ****   inline int32_t Dims(int i) const {
 4433                             		.loc 3 194 44
 4434                             	.LBB1885:
 4435                             	.LBB1868:
 4436                             	.LBB1838:
 4437                             	.LBB1821:
 4438                             	.LBB1804:
 4439                             	.LBB1795:
 4440                             	.LBB1786:
 4441                             	.LBB1777:
 4442                             	.LBB1768:
 4443                             	.LBB1759:
 4444                             	.LBB1749:
 4445                             	.LBB1733:
 4446                             	.LBB1728:
 4447                             	.LBB1724:
 4448                             	.LBB1720:
 4449                             	.LBB1716:
 4450                             	.LBB1709:
 4451                             	.LBB1698:
 4452                             	.LBB1695:
 387:C:\Users\a5116938\Desktop\e2_studio_workspace\EEMBC_final\RX65N_Cloud_Kit\src/tensorflow/lite/kernels/internal\types.h ****   TFLITE_DCHECK(i0 >= 0 && i0 < dims_data[0]);
 4453                             		.loc 3 387 3
 4454                             	.LBE1695:
 4455                             	.LBE1698:
 4456                             	.LBE1709:
 4457                             	.LBE1716:
 4458                             	.LBE1720:
 4459                             	.LBE1724:
 4460                             	.LBE1728:
 4461                             	.LBE1733:
 4462                             	.LBE1749:
 4463                             	.LBE1759:
 4464                             	.LBE1768:
 4465                             	.LBE1777:
 4466                             	.LBE1786:
 4467                             	.LBE1795:
 4468                             	.LBE1804:
 4469                             	.LBE1821:
 4470                             	.LBE1838:
 4471                             	.LBE1868:
 4472                             	.LBE1885:
 217:C:\Users\a5116938\Desktop\e2_studio_workspace\EEMBC_final\RX65N_Cloud_Kit\src/tensorflow/lite/kernels/internal\types.h **** 
 4473                             		.loc 3 217 50
 4474                             	.LBB1886:
 4475                             	.LBB1869:
 4476                             	.LBB1839:
 4477                             	.LBB1822:
 4478                             	.LBB1805:
 4479                             	.LBB1796:
 4480                             	.LBB1787:
 4481                             	.LBB1778:
 4482                             	.LBB1769:
 4483                             	.LBB1760:
 4484                             	.LBB1750:
 4485                             	.LBB1734:
 4486                             	.LBB1729:
 4487                             	.LBB1725:
 4488                             	.LBB1721:
 4489                             	.LBB1717:
 4490                             	.LBB1710:
 4491                             	.LBB1699:
 4492                             	.LBB1696:
 388:C:\Users\a5116938\Desktop\e2_studio_workspace\EEMBC_final\RX65N_Cloud_Kit\src/tensorflow/lite/kernels/internal\types.h ****   TFLITE_DCHECK(i1 >= 0 && i1 < dims_data[1]);
 4493                             		.loc 3 388 3
 4494 0365 ED 04 4C                		mov.L	304[r0], r4
 4495 0368 ED 07 4B                		mov.L	300[r0], r7
 4496 036b 47 74                   		cmp	r7, r4
 4497 036d 2A 05 38 79 FD          		ble	.L208
 4498 0372 ED 08 46                		mov.L	280[r0], r8
 4499 0375 ED 04 43                		mov.L	268[r0], r4
 4500 0378 47 48                   		cmp	r4, r8
 4501 037a 2A 05 38 6C FD          		ble	.L208
 4502 037f 47 5E                   		cmp	r5, r14
 4503 0381 2A 05 38 65 FD          		ble	.L208
 4504 0386 47 6D                   		cmp	r6, r13
 4505 0388 2A 05 38 5E FD          		ble	.L208
 4506                             	.LBE1696:
 4507                             	.LBE1699:
 4508                             	.LBE1710:
  81:C:\Users\a5116938\Desktop\e2_studio_workspace\EEMBC_final\RX65N_Cloud_Kit\src/tensorflow/lite/kernels/internal/reference\conv.h ****                 float input_value = input_data[Offset(input_shape, batch, in_y,
 4509                             		.loc 11 81 24 is_stmt 0
 4510 038d 66 07                   		mov.L	#0, r7
 4511 038f 2E 11                   		bra	.L237
 4512                             	.LVL365:
 4513                             	.L375:
 4514                             	.LBB1711:
 4515                             	.LBB1700:
 4516                             	.LBB1701:
 392:C:\Users\a5116938\Desktop\e2_studio_workspace\EEMBC_final\RX65N_Cloud_Kit\src/tensorflow/lite/kernels/internal\types.h **** }
 4517                             		.loc 3 392 3 is_stmt 1
 4518                             	.LBE1701:
 4519                             	.LBE1700:
  83:C:\Users\a5116938\Desktop\e2_studio_workspace\EEMBC_final\RX65N_Cloud_Kit\src/tensorflow/lite/kernels/internal/reference\conv.h ****                                                       in_x, in_channel)];
  84:C:\Users\a5116938\Desktop\e2_studio_workspace\EEMBC_final\RX65N_Cloud_Kit\src/tensorflow/lite/kernels/internal/reference\conv.h ****                 float filter_value = filter_data[Offset(
  85:C:\Users\a5116938\Desktop\e2_studio_workspace\EEMBC_final\RX65N_Cloud_Kit\src/tensorflow/lite/kernels/internal/reference\conv.h ****                     filter_shape, out_channel, filter_y, filter_x, in_channel)];
  86:C:\Users\a5116938\Desktop\e2_studio_workspace\EEMBC_final\RX65N_Cloud_Kit\src/tensorflow/lite/kernels/internal/reference\conv.h ****                 total += (input_value * filter_value);
 4520                             		.loc 11 86 17
 4521                             		.loc 11 86 39 is_stmt 0
 4522 0391 FE 67 38                		mov.L	[r7,r3], r8
 4523                             	.LBE1711:
  81:C:\Users\a5116938\Desktop\e2_studio_workspace\EEMBC_final\RX65N_Cloud_Kit\src/tensorflow/lite/kernels/internal/reference\conv.h ****                 float input_value = input_data[Offset(input_shape, batch, in_y,
 4524                             		.loc 11 81 15
 4525 0394 62 17                   		add	#1, r7
 4526                             	.LVL366:
 4527                             	.LBB1712:
 4528                             		.loc 11 86 39
 4529 0396 FC 8F 84                		fmul	r8, r4
 4530                             	.LVL367:
 4531                             		.loc 11 86 23
 4532 0399 FC 8B 4B                		fadd	r4, r11
 4533                             	.LVL368:
 4534                             	.LBE1712:
  81:C:\Users\a5116938\Desktop\e2_studio_workspace\EEMBC_final\RX65N_Cloud_Kit\src/tensorflow/lite/kernels/internal/reference\conv.h ****                 float input_value = input_data[Offset(input_shape, batch, in_y,
 4535                             		.loc 11 81 51
 4536 039c 47 F7                   		cmp	r15, r7
 4537 039e 20 9A                   		beq	.L236
 4538                             	.LVL369:
 4539                             		.balign 8,3,3
 4540                             	.L237:
 4541                             	.LBB1713:
 4542                             	.LBB1705:
 4543                             	.LBB1697:
 392:C:\Users\a5116938\Desktop\e2_studio_workspace\EEMBC_final\RX65N_Cloud_Kit\src/tensorflow/lite/kernels/internal\types.h **** }
 4544                             		.loc 3 392 3 is_stmt 1
 4545                             	.LBE1697:
 4546                             	.LBE1705:
  83:C:\Users\a5116938\Desktop\e2_studio_workspace\EEMBC_final\RX65N_Cloud_Kit\src/tensorflow/lite/kernels/internal/reference\conv.h ****                                                       in_x, in_channel)];
 4547                             		.loc 11 83 72 is_stmt 0
 4548 03a0 FE 67 24                		mov.L	[r7,r2], r4
 4549                             	.LVL370:
  84:C:\Users\a5116938\Desktop\e2_studio_workspace\EEMBC_final\RX65N_Cloud_Kit\src/tensorflow/lite/kernels/internal/reference\conv.h ****                     filter_shape, out_channel, filter_y, filter_x, in_channel)];
 4550                             		.loc 11 84 17 is_stmt 1
 4551                             	.LBB1706:
 4552                             	.LBB1702:
 386:C:\Users\a5116938\Desktop\e2_studio_workspace\EEMBC_final\RX65N_Cloud_Kit\src/tensorflow/lite/kernels/internal\types.h ****   const int* dims_data = reinterpret_cast<const int*>(shape.DimsDataUpTo5D());
 4553                             		.loc 3 386 3
 4554                             	.LBE1702:
 4555                             	.LBE1706:
 4556                             	.LBE1713:
 4557                             	.LBE1717:
 4558                             	.LBE1721:
 4559                             	.LBE1725:
 4560                             	.LBE1729:
 4561                             	.LBE1734:
 4562                             	.LBE1750:
 4563                             	.LBE1760:
 4564                             	.LBE1769:
 4565                             	.LBE1778:
 4566                             	.LBE1787:
 4567                             	.LBE1796:
 4568                             	.LBE1805:
 4569                             	.LBE1822:
 4570                             	.LBE1839:
 4571                             	.LBE1869:
 4572                             	.LBE1886:
 194:C:\Users\a5116938\Desktop\e2_studio_workspace\EEMBC_final\RX65N_Cloud_Kit\src/tensorflow/lite/kernels/internal\types.h ****   inline int32_t Dims(int i) const {
 4573                             		.loc 3 194 44
 4574                             	.LBB1887:
 4575                             	.LBB1870:
 4576                             	.LBB1840:
 4577                             	.LBB1823:
 4578                             	.LBB1806:
 4579                             	.LBB1797:
 4580                             	.LBB1788:
 4581                             	.LBB1779:
 4582                             	.LBB1770:
 4583                             	.LBB1761:
 4584                             	.LBB1751:
 4585                             	.LBB1735:
 4586                             	.LBB1730:
 4587                             	.LBB1726:
 4588                             	.LBB1722:
 4589                             	.LBB1718:
 4590                             	.LBB1714:
 4591                             	.LBB1707:
 4592                             	.LBB1703:
 387:C:\Users\a5116938\Desktop\e2_studio_workspace\EEMBC_final\RX65N_Cloud_Kit\src/tensorflow/lite/kernels/internal\types.h ****   TFLITE_DCHECK(i0 >= 0 && i0 < dims_data[0]);
 4593                             		.loc 3 387 3
 4594                             	.LBE1703:
 4595                             	.LBE1707:
 4596                             	.LBE1714:
 4597                             	.LBE1718:
 4598                             	.LBE1722:
 4599                             	.LBE1726:
 4600                             	.LBE1730:
 4601                             	.LBE1735:
 4602                             	.LBE1751:
 4603                             	.LBE1761:
 4604                             	.LBE1770:
 4605                             	.LBE1779:
 4606                             	.LBE1788:
 4607                             	.LBE1797:
 4608                             	.LBE1806:
 4609                             	.LBE1823:
 4610                             	.LBE1840:
 4611                             	.LBE1870:
 4612                             	.LBE1887:
 217:C:\Users\a5116938\Desktop\e2_studio_workspace\EEMBC_final\RX65N_Cloud_Kit\src/tensorflow/lite/kernels/internal\types.h **** 
 4613                             		.loc 3 217 50
 4614                             	.LBB1888:
 4615                             	.LBB1871:
 4616                             	.LBB1841:
 4617                             	.LBB1824:
 4618                             	.LBB1807:
 4619                             	.LBB1798:
 4620                             	.LBB1789:
 4621                             	.LBB1780:
 4622                             	.LBB1771:
 4623                             	.LBB1762:
 4624                             	.LBB1752:
 4625                             	.LBB1736:
 4626                             	.LBB1731:
 4627                             	.LBB1727:
 4628                             	.LBB1723:
 4629                             	.LBB1719:
 4630                             	.LBB1715:
 4631                             	.LBB1708:
 4632                             	.LBB1704:
 388:C:\Users\a5116938\Desktop\e2_studio_workspace\EEMBC_final\RX65N_Cloud_Kit\src/tensorflow/lite/kernels/internal\types.h ****   TFLITE_DCHECK(i1 >= 0 && i1 < dims_data[1]);
 4633                             		.loc 3 388 3
 389:C:\Users\a5116938\Desktop\e2_studio_workspace\EEMBC_final\RX65N_Cloud_Kit\src/tensorflow/lite/kernels/internal\types.h ****   TFLITE_DCHECK(i2 >= 0 && i2 < dims_data[2]);
 4634                             		.loc 3 389 3
 390:C:\Users\a5116938\Desktop\e2_studio_workspace\EEMBC_final\RX65N_Cloud_Kit\src/tensorflow/lite/kernels/internal\types.h ****   TFLITE_DCHECK(i3 >= 0 && i3 < dims_data[3]);
 4635                             		.loc 3 390 3
 391:C:\Users\a5116938\Desktop\e2_studio_workspace\EEMBC_final\RX65N_Cloud_Kit\src/tensorflow/lite/kernels/internal\types.h ****   return ((i0 * dims_data[1] + i1) * dims_data[2] + i2) * dims_data[3] + i3;
 4636                             		.loc 3 391 3
 4637 03a3 ED 08 44                		mov.L	272[r0], r8
 4638 03a6 47 78                   		cmp	r7, r8
 4639 03a8 2A E9                   		bgt	.L375
 4640                             	.LBE1704:
 4641                             	.LBE1708:
 4642                             	.LBE1715:
 4643                             	.LBE1719:
 4644                             	.LBE1723:
 4645                             	.LBE1727:
 4646                             	.LBE1731:
 4647                             	.LBE1736:
 4648                             	.LBE1752:
 4649                             	.LBE1762:
 4650                             	.LBE1771:
 4651                             	.LBE1780:
 4652                             	.LBE1789:
 4653                             	.LBE1798:
 4654                             	.LBE1807:
 4655                             	.LBE1824:
 4656                             	.LBE1841:
 4657                             	.LBE1871:
 4658                             	.LBE1888:
 4659                             	.LBB1889:
 4660                             	.LBB1602:
 4661                             	.LBB1600:
  33:C:\Users\a5116938\Desktop\e2_studio_workspace\EEMBC_final\RX65N_Cloud_Kit\src/tensorflow/lite/micro/kernels\kernel_util.h ****   TFLITE_DCHECK(node != nullptr);
 4662                             		.loc 5 33 3 is_stmt 0
 4663 03aa 05 00 00 00             		bsr	_abort
 4664                             	.LVL371:
 4665                             	.L212:
 4666                             	.LBE1600:
 4667                             	.LBE1602:
 4668                             	.LBE1889:
 434:../src/tensorflow/lite/micro/kernels/conv.cc ****     case kTfLiteUInt8:
 4669                             		.loc 1 434 7 is_stmt 1
 435:../src/tensorflow/lite/micro/kernels/conv.cc ****       return EvalQuantized(context, node, params, data, input, filter, bias,
 4670                             		.loc 1 435 5
 436:../src/tensorflow/lite/micro/kernels/conv.cc ****                            nullptr, nullptr, output);
 4671                             		.loc 1 436 7
 4672                             	.LBB1890:
 4673                             	.LBB1891:
 214:../src/tensorflow/lite/micro/kernels/conv.cc ****   const int32_t filter_offset = -data.filter_zero_point;
 4674                             		.loc 1 214 3
 233:../src/tensorflow/lite/micro/kernels/conv.cc ****                       tflite::micro::GetTensorData<uint8_t>(input),
 4675                             		.loc 1 233 63 is_stmt 0
 4676 03ae 75 4F 1C                		mov.L	#28, r15
 4677 03b1 4B 0F                   		add	r0, r15
 4678 03b3 EF 71                   		mov.L	r7, r1
 230:../src/tensorflow/lite/micro/kernels/conv.cc ****   op_params.quantized_activation_min = data.output_activation_min;
 4679                             		.loc 1 230 34
 4680 03b5 E5 30 08 61             		mov.L	32[r3], 388[r0]
 214:../src/tensorflow/lite/micro/kernels/conv.cc ****   const int32_t filter_offset = -data.filter_zero_point;
 4681                             		.loc 1 214 38
 4682 03b9 E5 30 04 4E             		mov.L	16[r3], 312[r0]
 4683                             	.LVL372:
 215:../src/tensorflow/lite/micro/kernels/conv.cc ****   const int32_t output_offset = data.output_zero_point;
 4684                             		.loc 1 215 3 is_stmt 1
 215:../src/tensorflow/lite/micro/kernels/conv.cc ****   const int32_t output_offset = data.output_zero_point;
 4685                             		.loc 1 215 39 is_stmt 0
 4686 03bd E5 30 05 4F             		mov.L	20[r3], 316[r0]
 4687                             	.LVL373:
 216:../src/tensorflow/lite/micro/kernels/conv.cc **** 
 4688                             		.loc 1 216 3 is_stmt 1
 216:../src/tensorflow/lite/micro/kernels/conv.cc **** 
 4689                             		.loc 1 216 17 is_stmt 0
 4690 03c1 E5 30 06 69             		mov.L	24[r3], 420[r0]
 4691                             	.LVL374:
 218:../src/tensorflow/lite/micro/kernels/conv.cc ****   op_params.padding_type = RuntimePaddingType(params->padding);
 4692                             		.loc 1 218 3 is_stmt 1
 219:../src/tensorflow/lite/micro/kernels/conv.cc ****   op_params.padding_values.width = data.padding.width;
 4693                             		.loc 1 219 3
 4694                             	.LBE1891:
 4695                             	.LBE1890:
  69:../src/tensorflow/lite/micro/kernels/conv.cc ****     case TfLitePadding::kTfLitePaddingSame:
 4696                             		.loc 1 69 3
 4697                             	.LBB2258:
 4698                             	.LBB2239:
 220:../src/tensorflow/lite/micro/kernels/conv.cc ****   op_params.padding_values.height = data.padding.height;
 4699                             		.loc 1 220 3
 220:../src/tensorflow/lite/micro/kernels/conv.cc ****   op_params.padding_values.height = data.padding.height;
 4700                             		.loc 1 220 34 is_stmt 0
 4701 03c5 EC 3C                   		mov.L	[r3], r12
 4702                             	.LVL375:
 221:../src/tensorflow/lite/micro/kernels/conv.cc ****   op_params.stride_width = params->stride_width;
 4703                             		.loc 1 221 3 is_stmt 1
 221:../src/tensorflow/lite/micro/kernels/conv.cc ****   op_params.stride_width = params->stride_width;
 4704                             		.loc 1 221 35 is_stmt 0
 4705 03c7 ED 3B 01                		mov.L	4[r3], r11
 4706                             	.LVL376:
 222:../src/tensorflow/lite/micro/kernels/conv.cc ****   op_params.stride_height = params->stride_height;
 4707                             		.loc 1 222 3 is_stmt 1
 222:../src/tensorflow/lite/micro/kernels/conv.cc ****   op_params.stride_height = params->stride_height;
 4708                             		.loc 1 222 26 is_stmt 0
 4709 03ca D5 90 02 E2             		mov.W	4[r9], 452[r0]
 223:../src/tensorflow/lite/micro/kernels/conv.cc ****   op_params.dilation_width_factor = params->dilation_width_factor;
 4710                             		.loc 1 223 3 is_stmt 1
 223:../src/tensorflow/lite/micro/kernels/conv.cc ****   op_params.dilation_width_factor = params->dilation_width_factor;
 4711                             		.loc 1 223 27 is_stmt 0
 4712 03ce D5 90 04 E3             		mov.W	8[r9], 454[r0]
 224:../src/tensorflow/lite/micro/kernels/conv.cc ****   op_params.dilation_height_factor = params->dilation_height_factor;
 4713                             		.loc 1 224 3 is_stmt 1
 224:../src/tensorflow/lite/micro/kernels/conv.cc ****   op_params.dilation_height_factor = params->dilation_height_factor;
 4714                             		.loc 1 224 35 is_stmt 0
 4715 03d2 D5 90 08 DC             		mov.W	16[r9], 440[r0]
 225:../src/tensorflow/lite/micro/kernels/conv.cc ****   op_params.input_offset = input_offset;
 4716                             		.loc 1 225 3 is_stmt 1
 225:../src/tensorflow/lite/micro/kernels/conv.cc ****   op_params.input_offset = input_offset;
 4717                             		.loc 1 225 36 is_stmt 0
 4718 03d6 D5 90 0A DD             		mov.W	20[r9], 442[r0]
 226:../src/tensorflow/lite/micro/kernels/conv.cc ****   op_params.weights_offset = filter_offset;
 4719                             		.loc 1 226 3 is_stmt 1
 227:../src/tensorflow/lite/micro/kernels/conv.cc ****   op_params.output_offset = output_offset;
 4720                             		.loc 1 227 3
 228:../src/tensorflow/lite/micro/kernels/conv.cc ****   op_params.output_multiplier = data.output_multiplier;
 4721                             		.loc 1 228 3
 229:../src/tensorflow/lite/micro/kernels/conv.cc ****   op_params.output_shift = -data.output_shift;
 4722                             		.loc 1 229 3
 229:../src/tensorflow/lite/micro/kernels/conv.cc ****   op_params.output_shift = -data.output_shift;
 4723                             		.loc 1 229 38 is_stmt 0
 4724 03da E5 30 07 5E             		mov.L	28[r3], 376[r0]
 230:../src/tensorflow/lite/micro/kernels/conv.cc ****   op_params.quantized_activation_min = data.output_activation_min;
 4725                             		.loc 1 230 3 is_stmt 1
 231:../src/tensorflow/lite/micro/kernels/conv.cc ****   op_params.quantized_activation_max = data.output_activation_max;
 4726                             		.loc 1 231 45 is_stmt 0
 4727 03de E5 30 0B 62             		mov.L	44[r3], 392[r0]
 232:../src/tensorflow/lite/micro/kernels/conv.cc ****   reference_ops::Conv(op_params, tflite::micro::GetTensorShape(input),
 4728                             		.loc 1 232 45
 4729 03e2 E5 30 0C 68             		mov.L	48[r3], 416[r0]
 233:../src/tensorflow/lite/micro/kernels/conv.cc ****                       tflite::micro::GetTensorData<uint8_t>(input),
 4730                             		.loc 1 233 63
 4731 03e6 05 00 00 00             		bsr	__ZN6tflite5micro14GetTensorShapeEPK16TfLiteEvalTensor
 4732                             	.LVL377:
 235:../src/tensorflow/lite/micro/kernels/conv.cc ****                       tflite::micro::GetTensorData<uint8_t>(filter),
 4733                             		.loc 1 235 52
 4734 03ea 71 0F 34                		add	#52, r0, r15
 4735 03ed EF A1                   		mov.L	r10, r1
 4736                             	.LBB1892:
 4737                             	.LBB1893:
 4738                             		.loc 5 62 53
 4739 03ef E4 70 65                		mov.L	[r7], 404[r0]
 4740                             	.LBE1893:
 4741                             	.LBE1892:
 235:../src/tensorflow/lite/micro/kernels/conv.cc ****                       tflite::micro::GetTensorData<uint8_t>(filter),
 4742                             		.loc 1 235 52
 4743 03f2 05 00 00 00             		bsr	__ZN6tflite5micro14GetTensorShapeEPK16TfLiteEvalTensor
 4744                             	.LVL378:
 237:../src/tensorflow/lite/micro/kernels/conv.cc ****                       tflite::micro::GetTensorData<int32_t>(bias),
 4745                             		.loc 1 237 52
 4746 03f6 71 0F 4C                		add	#0x4c, r0, r15
 4747 03f9 EF 61                   		mov.L	r6, r1
 230:../src/tensorflow/lite/micro/kernels/conv.cc ****   op_params.quantized_activation_min = data.output_activation_min;
 4748                             		.loc 1 230 28
 4749 03fb ED 07 61                		mov.L	388[r0], r7
 4750                             	.LVL379:
 4751 03fe 7E 17                   		neg	r7
 231:../src/tensorflow/lite/micro/kernels/conv.cc ****   op_params.quantized_activation_max = data.output_activation_max;
 4752                             		.loc 1 231 3 is_stmt 1
 232:../src/tensorflow/lite/micro/kernels/conv.cc ****   reference_ops::Conv(op_params, tflite::micro::GetTensorShape(input),
 4753                             		.loc 1 232 3
 233:../src/tensorflow/lite/micro/kernels/conv.cc ****                       tflite::micro::GetTensorData<uint8_t>(input),
 4754                             		.loc 1 233 3
 4755                             	.LVL380:
 4756                             	.LBB1894:
 4757                             	.LBB1895:
 4758                             		.loc 5 62 53 is_stmt 0
 4759 0400 E4 A0 66                		mov.L	[r10], 408[r0]
 4760                             	.LVL381:
 4761                             	.LBE1895:
 4762                             	.LBE1894:
 237:../src/tensorflow/lite/micro/kernels/conv.cc ****                       tflite::micro::GetTensorData<int32_t>(bias),
 4763                             		.loc 1 237 52
 4764 0403 05 00 00 00             		bsr	__ZN6tflite5micro14GetTensorShapeEPK16TfLiteEvalTensor
 4765                             	.LVL382:
 4766                             	.LBB1896:
 4767                             	.LBB1897:
  61:C:\Users\a5116938\Desktop\e2_studio_workspace\EEMBC_final\RX65N_Cloud_Kit\src/tensorflow/lite/micro/kernels\kernel_util.h ****   return reinterpret_cast<const T*>(tensor->data.raw);
 4768                             		.loc 5 61 3
 4769 0407 61 06                   		cmp	#0, r6
 4770 0409 3A DF FC                		beq	.L208
 4771                             	.LBE1897:
 4772                             	.LBE1896:
 239:../src/tensorflow/lite/micro/kernels/conv.cc ****                       tflite::micro::GetTensorData<uint8_t>(output),
 4773                             		.loc 1 239 52
 4774 040c 71 0F 64                		add	#0x64, r0, r15
 4775 040f EF D1                   		mov.L	r13, r1
 4776                             	.LBB1899:
 4777                             	.LBB1898:
 4778                             		.loc 5 62 53
 4779 0411 E4 60 5F                		mov.L	[r6], 380[r0]
 4780                             	.LVL383:
 4781                             	.LBE1898:
 4782                             	.LBE1899:
 239:../src/tensorflow/lite/micro/kernels/conv.cc ****                       tflite::micro::GetTensorData<uint8_t>(output),
 4783                             		.loc 1 239 52
 4784 0414 05 00 00 00             		bsr	__ZN6tflite5micro14GetTensorShapeEPK16TfLiteEvalTensor
 4785                             	.LVL384:
 241:../src/tensorflow/lite/micro/kernels/conv.cc ****                       tflite::micro::GetTensorData<uint8_t>(im2col), nullptr);
 4786                             		.loc 1 241 52
 4787 0418 71 0F 7C                		add	#0x7c, r0, r15
 4788 041b 66 01                   		mov.L	#0, r1
 4789                             	.LBB1900:
 4790                             	.LBB1901:
  55:C:\Users\a5116938\Desktop\e2_studio_workspace\EEMBC_final\RX65N_Cloud_Kit\src/tensorflow/lite/micro/kernels\kernel_util.h **** }
 4791                             		.loc 5 55 28
 4792 041d E4 D0 6A                		mov.L	[r13], 424[r0]
 4793                             	.LVL385:
 4794                             	.LBE1901:
 4795                             	.LBE1900:
 241:../src/tensorflow/lite/micro/kernels/conv.cc ****                       tflite::micro::GetTensorData<uint8_t>(im2col), nullptr);
 4796                             		.loc 1 241 52
 4797 0420 05 00 00 00             		bsr	__ZN6tflite5micro14GetTensorShapeEPK16TfLiteEvalTensor
 4798                             	.LVL386:
 4799                             	.LBB1902:
 4800                             	.LBB1903:
  87:C:\Users\a5116938\Desktop\e2_studio_workspace\EEMBC_final\RX65N_Cloud_Kit\src/tensorflow/lite/kernels/internal/reference\conv.h ****               }
  88:C:\Users\a5116938\Desktop\e2_studio_workspace\EEMBC_final\RX65N_Cloud_Kit\src/tensorflow/lite/kernels/internal/reference\conv.h ****             }
  89:C:\Users\a5116938\Desktop\e2_studio_workspace\EEMBC_final\RX65N_Cloud_Kit\src/tensorflow/lite/kernels/internal/reference\conv.h ****           }
  90:C:\Users\a5116938\Desktop\e2_studio_workspace\EEMBC_final\RX65N_Cloud_Kit\src/tensorflow/lite/kernels/internal/reference\conv.h ****           float bias_value = 0.0f;
  91:C:\Users\a5116938\Desktop\e2_studio_workspace\EEMBC_final\RX65N_Cloud_Kit\src/tensorflow/lite/kernels/internal/reference\conv.h ****           if (bias_data) {
  92:C:\Users\a5116938\Desktop\e2_studio_workspace\EEMBC_final\RX65N_Cloud_Kit\src/tensorflow/lite/kernels/internal/reference\conv.h ****             bias_value = bias_data[out_channel];
  93:C:\Users\a5116938\Desktop\e2_studio_workspace\EEMBC_final\RX65N_Cloud_Kit\src/tensorflow/lite/kernels/internal/reference\conv.h ****           }
  94:C:\Users\a5116938\Desktop\e2_studio_workspace\EEMBC_final\RX65N_Cloud_Kit\src/tensorflow/lite/kernels/internal/reference\conv.h ****           output_data[Offset(output_shape, batch, out_y, out_x, out_channel)] =
  95:C:\Users\a5116938\Desktop\e2_studio_workspace\EEMBC_final\RX65N_Cloud_Kit\src/tensorflow/lite/kernels/internal/reference\conv.h ****               ActivationFunctionWithMinMax(total + bias_value,
  96:C:\Users\a5116938\Desktop\e2_studio_workspace\EEMBC_final\RX65N_Cloud_Kit\src/tensorflow/lite/kernels/internal/reference\conv.h ****                                            output_activation_min,
  97:C:\Users\a5116938\Desktop\e2_studio_workspace\EEMBC_final\RX65N_Cloud_Kit\src/tensorflow/lite/kernels/internal/reference\conv.h ****                                            output_activation_max);
  98:C:\Users\a5116938\Desktop\e2_studio_workspace\EEMBC_final\RX65N_Cloud_Kit\src/tensorflow/lite/kernels/internal/reference\conv.h ****         }
  99:C:\Users\a5116938\Desktop\e2_studio_workspace\EEMBC_final\RX65N_Cloud_Kit\src/tensorflow/lite/kernels/internal/reference\conv.h ****       }
 100:C:\Users\a5116938\Desktop\e2_studio_workspace\EEMBC_final\RX65N_Cloud_Kit\src/tensorflow/lite/kernels/internal/reference\conv.h ****     }
 101:C:\Users\a5116938\Desktop\e2_studio_workspace\EEMBC_final\RX65N_Cloud_Kit\src/tensorflow/lite/kernels/internal/reference\conv.h ****   }
 102:C:\Users\a5116938\Desktop\e2_studio_workspace\EEMBC_final\RX65N_Cloud_Kit\src/tensorflow/lite/kernels/internal/reference\conv.h **** }
 103:C:\Users\a5116938\Desktop\e2_studio_workspace\EEMBC_final\RX65N_Cloud_Kit\src/tensorflow/lite/kernels/internal/reference\conv.h **** 
 104:C:\Users\a5116938\Desktop\e2_studio_workspace\EEMBC_final\RX65N_Cloud_Kit\src/tensorflow/lite/kernels/internal/reference\conv.h **** inline void Conv(const ConvParams& params, const RuntimeShape& input_shape,
 105:C:\Users\a5116938\Desktop\e2_studio_workspace\EEMBC_final\RX65N_Cloud_Kit\src/tensorflow/lite/kernels/internal/reference\conv.h ****                  const uint8_t* input_data, const RuntimeShape& filter_shape,
 106:C:\Users\a5116938\Desktop\e2_studio_workspace\EEMBC_final\RX65N_Cloud_Kit\src/tensorflow/lite/kernels/internal/reference\conv.h ****                  const uint8_t* filter_data, const RuntimeShape& bias_shape,
 107:C:\Users\a5116938\Desktop\e2_studio_workspace\EEMBC_final\RX65N_Cloud_Kit\src/tensorflow/lite/kernels/internal/reference\conv.h ****                  const int32_t* bias_data, const RuntimeShape& output_shape,
 108:C:\Users\a5116938\Desktop\e2_studio_workspace\EEMBC_final\RX65N_Cloud_Kit\src/tensorflow/lite/kernels/internal/reference\conv.h ****                  uint8_t* output_data, const RuntimeShape& im2col_shape,
 109:C:\Users\a5116938\Desktop\e2_studio_workspace\EEMBC_final\RX65N_Cloud_Kit\src/tensorflow/lite/kernels/internal/reference\conv.h ****                  uint8_t* im2col_data, void* cpu_backend_context) {
 110:C:\Users\a5116938\Desktop\e2_studio_workspace\EEMBC_final\RX65N_Cloud_Kit\src/tensorflow/lite/kernels/internal/reference\conv.h ****   (void)cpu_backend_context;  // only used in optimized code.
 4801                             		.loc 11 110 3 is_stmt 1
 111:C:\Users\a5116938\Desktop\e2_studio_workspace\EEMBC_final\RX65N_Cloud_Kit\src/tensorflow/lite/kernels/internal/reference\conv.h ****   (void)im2col_data;   // only used in optimized code.
 4802                             		.loc 11 111 3
 112:C:\Users\a5116938\Desktop\e2_studio_workspace\EEMBC_final\RX65N_Cloud_Kit\src/tensorflow/lite/kernels/internal/reference\conv.h ****   (void)im2col_shape;  // only used in optimized code.
 4803                             		.loc 11 112 3
 113:C:\Users\a5116938\Desktop\e2_studio_workspace\EEMBC_final\RX65N_Cloud_Kit\src/tensorflow/lite/kernels/internal/reference\conv.h ****   const int stride_width = params.stride_width;
 4804                             		.loc 11 113 3
 114:C:\Users\a5116938\Desktop\e2_studio_workspace\EEMBC_final\RX65N_Cloud_Kit\src/tensorflow/lite/kernels/internal/reference\conv.h ****   const int stride_height = params.stride_height;
 4805                             		.loc 11 114 3
 115:C:\Users\a5116938\Desktop\e2_studio_workspace\EEMBC_final\RX65N_Cloud_Kit\src/tensorflow/lite/kernels/internal/reference\conv.h ****   const int dilation_width_factor = params.dilation_width_factor;
 4806                             		.loc 11 115 3
 116:C:\Users\a5116938\Desktop\e2_studio_workspace\EEMBC_final\RX65N_Cloud_Kit\src/tensorflow/lite/kernels/internal/reference\conv.h ****   const int dilation_height_factor = params.dilation_height_factor;
 4807                             		.loc 11 116 3
 117:C:\Users\a5116938\Desktop\e2_studio_workspace\EEMBC_final\RX65N_Cloud_Kit\src/tensorflow/lite/kernels/internal/reference\conv.h ****   const int pad_width = params.padding_values.width;
 4808                             		.loc 11 117 3
 4809                             		.loc 11 117 13 is_stmt 0
 4810 0424 DF CC                   		mov.W	r12, r12
 4811 0426 E7 0C 70                		mov.L	r12, 448[r0]
 4812                             	.LVL387:
 118:C:\Users\a5116938\Desktop\e2_studio_workspace\EEMBC_final\RX65N_Cloud_Kit\src/tensorflow/lite/kernels/internal/reference\conv.h ****   const int pad_height = params.padding_values.height;
 4813                             		.loc 11 118 3 is_stmt 1
 4814                             		.loc 11 118 13 is_stmt 0
 4815 0429 DF BB                   		mov.W	r11, r11
 4816 042b E7 0B 72                		mov.L	r11, 456[r0]
 4817                             	.LVL388:
 119:C:\Users\a5116938\Desktop\e2_studio_workspace\EEMBC_final\RX65N_Cloud_Kit\src/tensorflow/lite/kernels/internal/reference\conv.h ****   const int32_t input_offset = params.input_offset;
 4818                             		.loc 11 119 3 is_stmt 1
 120:C:\Users\a5116938\Desktop\e2_studio_workspace\EEMBC_final\RX65N_Cloud_Kit\src/tensorflow/lite/kernels/internal/reference\conv.h ****   const int32_t filter_offset = params.weights_offset;
 4819                             		.loc 11 120 3
 121:C:\Users\a5116938\Desktop\e2_studio_workspace\EEMBC_final\RX65N_Cloud_Kit\src/tensorflow/lite/kernels/internal/reference\conv.h ****   const int32_t output_offset = params.output_offset;
 4820                             		.loc 11 121 3
 122:C:\Users\a5116938\Desktop\e2_studio_workspace\EEMBC_final\RX65N_Cloud_Kit\src/tensorflow/lite/kernels/internal/reference\conv.h ****   const int32_t output_multiplier = params.output_multiplier;
 4821                             		.loc 11 122 3
 123:C:\Users\a5116938\Desktop\e2_studio_workspace\EEMBC_final\RX65N_Cloud_Kit\src/tensorflow/lite/kernels/internal/reference\conv.h ****   const int output_shift = params.output_shift;
 4822                             		.loc 11 123 3
 124:C:\Users\a5116938\Desktop\e2_studio_workspace\EEMBC_final\RX65N_Cloud_Kit\src/tensorflow/lite/kernels/internal/reference\conv.h ****   const int32_t output_activation_min = params.quantized_activation_min;
 4823                             		.loc 11 124 3
 125:C:\Users\a5116938\Desktop\e2_studio_workspace\EEMBC_final\RX65N_Cloud_Kit\src/tensorflow/lite/kernels/internal/reference\conv.h ****   const int32_t output_activation_max = params.quantized_activation_max;
 4824                             		.loc 11 125 3
 126:C:\Users\a5116938\Desktop\e2_studio_workspace\EEMBC_final\RX65N_Cloud_Kit\src/tensorflow/lite/kernels/internal/reference\conv.h ****   TFLITE_DCHECK_LE(output_activation_min, output_activation_max);
 4825                             		.loc 11 126 3
 4826 042e ED 0B 62                		mov.L	392[r0], r11
 4827                             	.LVL389:
 4828 0431 ED 02 68                		mov.L	416[r0], r2
 4829 0434 47 2B                   		cmp	r2, r11
 4830 0436 2B 05 38 B0 FC          		bgt	.L208
 127:C:\Users\a5116938\Desktop\e2_studio_workspace\EEMBC_final\RX65N_Cloud_Kit\src/tensorflow/lite/kernels/internal/reference\conv.h **** 
 128:C:\Users\a5116938\Desktop\e2_studio_workspace\EEMBC_final\RX65N_Cloud_Kit\src/tensorflow/lite/kernels/internal/reference\conv.h ****   TFLITE_DCHECK_EQ(input_shape.DimensionsCount(), 4);
 4831                             		.loc 11 128 3
 4832                             	.LVL390:
 4833                             	.LBE1903:
 4834                             	.LBE1902:
 4835                             	.LBE2239:
 4836                             	.LBE2258:
 194:C:\Users\a5116938\Desktop\e2_studio_workspace\EEMBC_final\RX65N_Cloud_Kit\src/tensorflow/lite/kernels/internal\types.h ****   inline int32_t Dims(int i) const {
 4837                             		.loc 3 194 44
 4838                             	.LBB2259:
 4839                             	.LBB2240:
 4840                             	.LBB2209:
 4841                             	.LBB2191:
 4842                             		.loc 11 128 3 is_stmt 0
 4843 043b ED 0A 07                		mov.L	28[r0], r10
 4844                             	.LVL391:
 4845 043e 61 4A                   		cmp	#4, r10
 4846 0440 3B A8 FC                		bne	.L208
 129:C:\Users\a5116938\Desktop\e2_studio_workspace\EEMBC_final\RX65N_Cloud_Kit\src/tensorflow/lite/kernels/internal/reference\conv.h ****   TFLITE_DCHECK_EQ(filter_shape.DimensionsCount(), 4);
 4847                             		.loc 11 129 3 is_stmt 1
 4848                             	.LVL392:
 4849                             	.LBE2191:
 4850                             	.LBE2209:
 4851                             	.LBE2240:
 4852                             	.LBE2259:
 194:C:\Users\a5116938\Desktop\e2_studio_workspace\EEMBC_final\RX65N_Cloud_Kit\src/tensorflow/lite/kernels/internal\types.h ****   inline int32_t Dims(int i) const {
 4853                             		.loc 3 194 44
 4854                             	.LBB2260:
 4855                             	.LBB2241:
 4856                             	.LBB2210:
 4857                             	.LBB2192:
 4858                             		.loc 11 129 3 is_stmt 0
 4859 0443 ED 0A 0D                		mov.L	52[r0], r10
 4860 0446 61 4A                   		cmp	#4, r10
 4861 0448 3B A0 FC                		bne	.L208
 130:C:\Users\a5116938\Desktop\e2_studio_workspace\EEMBC_final\RX65N_Cloud_Kit\src/tensorflow/lite/kernels/internal/reference\conv.h ****   TFLITE_DCHECK_EQ(output_shape.DimensionsCount(), 4);
 4862                             		.loc 11 130 3 is_stmt 1
 4863                             	.LVL393:
 4864                             	.LBE2192:
 4865                             	.LBE2210:
 4866                             	.LBE2241:
 4867                             	.LBE2260:
 194:C:\Users\a5116938\Desktop\e2_studio_workspace\EEMBC_final\RX65N_Cloud_Kit\src/tensorflow/lite/kernels/internal\types.h ****   inline int32_t Dims(int i) const {
 4868                             		.loc 3 194 44
 4869                             	.LBB2261:
 4870                             	.LBB2242:
 4871                             	.LBB2211:
 4872                             	.LBB2193:
 4873                             		.loc 11 130 3 is_stmt 0
 4874 044b ED 0A 19                		mov.L	100[r0], r10
 4875 044e 61 4A                   		cmp	#4, r10
 4876 0450 3B 98 FC                		bne	.L208
 131:C:\Users\a5116938\Desktop\e2_studio_workspace\EEMBC_final\RX65N_Cloud_Kit\src/tensorflow/lite/kernels/internal/reference\conv.h ****   const int batches = MatchingDim(input_shape, 0, output_shape, 0);
 4877                             		.loc 11 131 3 is_stmt 1
 4878                             	.LVL394:
 4879                             	.LBB1904:
 4880                             	.LBB1905:
 440:C:\Users\a5116938\Desktop\e2_studio_workspace\EEMBC_final\RX65N_Cloud_Kit\src/tensorflow/lite/kernels/internal\types.h ****   return std::min(shape1.Dims(index1), shape2.Dims(index2));
 4881                             		.loc 3 440 3
 4882                             	.LBB1906:
 4883                             	.LBB1907:
 196:C:\Users\a5116938\Desktop\e2_studio_workspace\EEMBC_final\RX65N_Cloud_Kit\src/tensorflow/lite/kernels/internal\types.h ****     TFLITE_DCHECK_LT(i, size_);
 4884                             		.loc 3 196 5
 197:C:\Users\a5116938\Desktop\e2_studio_workspace\EEMBC_final\RX65N_Cloud_Kit\src/tensorflow/lite/kernels/internal\types.h ****     return size_ > kMaxSmallSize ? dims_pointer_[i] : dims_[i];
 4885                             		.loc 3 197 5
 198:C:\Users\a5116938\Desktop\e2_studio_workspace\EEMBC_final\RX65N_Cloud_Kit\src/tensorflow/lite/kernels/internal\types.h ****   }
 4886                             		.loc 3 198 5
 4887                             	.LBE1907:
 4888                             	.LBE1906:
 4889                             	.LBB1908:
 4890                             	.LBB1909:
 196:C:\Users\a5116938\Desktop\e2_studio_workspace\EEMBC_final\RX65N_Cloud_Kit\src/tensorflow/lite/kernels/internal\types.h ****     TFLITE_DCHECK_LT(i, size_);
 4891                             		.loc 3 196 5
 197:C:\Users\a5116938\Desktop\e2_studio_workspace\EEMBC_final\RX65N_Cloud_Kit\src/tensorflow/lite/kernels/internal\types.h ****     return size_ > kMaxSmallSize ? dims_pointer_[i] : dims_[i];
 4892                             		.loc 3 197 5
 198:C:\Users\a5116938\Desktop\e2_studio_workspace\EEMBC_final\RX65N_Cloud_Kit\src/tensorflow/lite/kernels/internal\types.h ****   }
 4893                             		.loc 3 198 5
 198:C:\Users\a5116938\Desktop\e2_studio_workspace\EEMBC_final\RX65N_Cloud_Kit\src/tensorflow/lite/kernels/internal\types.h ****   }
 4894                             		.loc 3 198 34 is_stmt 0
 4895 0453 E5 00 1A 67             		mov.L	104[r0], 412[r0]
 4896                             	.LVL395:
 4897                             	.LBE1909:
 4898                             	.LBE1908:
 440:C:\Users\a5116938\Desktop\e2_studio_workspace\EEMBC_final\RX65N_Cloud_Kit\src/tensorflow/lite/kernels/internal\types.h ****   return std::min(shape1.Dims(index1), shape2.Dims(index2));
 4899                             		.loc 3 440 3
 4900 0457 ED 03 67                		mov.L	412[r0], r3
 4901 045a 06 85 03 08             		cmp	32[r0].L, r3
 4902 045e 3B 8A FC                		bne	.L208
 4903                             		.loc 3 441 3 is_stmt 1
 4904                             	.LVL396:
 4905                             	.LBE1905:
 4906                             	.LBE1904:
 4907                             	.LBE2193:
 4908                             	.LBE2211:
 4909                             	.LBE2242:
 4910                             	.LBE2261:
 196:C:\Users\a5116938\Desktop\e2_studio_workspace\EEMBC_final\RX65N_Cloud_Kit\src/tensorflow/lite/kernels/internal\types.h ****     TFLITE_DCHECK_LT(i, size_);
 4911                             		.loc 3 196 5
 197:C:\Users\a5116938\Desktop\e2_studio_workspace\EEMBC_final\RX65N_Cloud_Kit\src/tensorflow/lite/kernels/internal\types.h ****     return size_ > kMaxSmallSize ? dims_pointer_[i] : dims_[i];
 4912                             		.loc 3 197 5
 198:C:\Users\a5116938\Desktop\e2_studio_workspace\EEMBC_final\RX65N_Cloud_Kit\src/tensorflow/lite/kernels/internal\types.h ****   }
 4913                             		.loc 3 198 5
 4914                             	.LBB2262:
 4915                             	.LBB2243:
 4916                             	.LBB2212:
 4917                             	.LBB2194:
 132:C:\Users\a5116938\Desktop\e2_studio_workspace\EEMBC_final\RX65N_Cloud_Kit\src/tensorflow/lite/kernels/internal/reference\conv.h ****   const int input_depth = MatchingDim(input_shape, 3, filter_shape, 3);
 4918                             		.loc 11 132 3
 4919                             	.LBB1910:
 4920                             	.LBB1911:
 440:C:\Users\a5116938\Desktop\e2_studio_workspace\EEMBC_final\RX65N_Cloud_Kit\src/tensorflow/lite/kernels/internal\types.h ****   return std::min(shape1.Dims(index1), shape2.Dims(index2));
 4921                             		.loc 3 440 3
 4922                             	.LBB1912:
 4923                             	.LBB1913:
 196:C:\Users\a5116938\Desktop\e2_studio_workspace\EEMBC_final\RX65N_Cloud_Kit\src/tensorflow/lite/kernels/internal\types.h ****     TFLITE_DCHECK_LT(i, size_);
 4924                             		.loc 3 196 5
 197:C:\Users\a5116938\Desktop\e2_studio_workspace\EEMBC_final\RX65N_Cloud_Kit\src/tensorflow/lite/kernels/internal\types.h ****     return size_ > kMaxSmallSize ? dims_pointer_[i] : dims_[i];
 4925                             		.loc 3 197 5
 198:C:\Users\a5116938\Desktop\e2_studio_workspace\EEMBC_final\RX65N_Cloud_Kit\src/tensorflow/lite/kernels/internal\types.h ****   }
 4926                             		.loc 3 198 5
 198:C:\Users\a5116938\Desktop\e2_studio_workspace\EEMBC_final\RX65N_Cloud_Kit\src/tensorflow/lite/kernels/internal\types.h ****   }
 4927                             		.loc 3 198 34 is_stmt 0
 4928 0461 ED 0D 0B                		mov.L	44[r0], r13
 4929                             	.LVL397:
 4930                             	.LBE1913:
 4931                             	.LBE1912:
 4932                             	.LBB1914:
 4933                             	.LBB1915:
 196:C:\Users\a5116938\Desktop\e2_studio_workspace\EEMBC_final\RX65N_Cloud_Kit\src/tensorflow/lite/kernels/internal\types.h ****     TFLITE_DCHECK_LT(i, size_);
 4934                             		.loc 3 196 5 is_stmt 1
 197:C:\Users\a5116938\Desktop\e2_studio_workspace\EEMBC_final\RX65N_Cloud_Kit\src/tensorflow/lite/kernels/internal\types.h ****     return size_ > kMaxSmallSize ? dims_pointer_[i] : dims_[i];
 4935                             		.loc 3 197 5
 198:C:\Users\a5116938\Desktop\e2_studio_workspace\EEMBC_final\RX65N_Cloud_Kit\src/tensorflow/lite/kernels/internal\types.h ****   }
 4936                             		.loc 3 198 5
 4937                             	.LBE1915:
 4938                             	.LBE1914:
 440:C:\Users\a5116938\Desktop\e2_studio_workspace\EEMBC_final\RX65N_Cloud_Kit\src/tensorflow/lite/kernels/internal\types.h ****   return std::min(shape1.Dims(index1), shape2.Dims(index2));
 4939                             		.loc 3 440 3 is_stmt 0
 4940 0464 ED 0A 11                		mov.L	68[r0], r10
 4941 0467 47 DA                   		cmp	r13, r10
 4942 0469 3B 7F FC                		bne	.L208
 4943                             		.loc 3 441 3 is_stmt 1
 4944                             	.LVL398:
 4945                             	.LBE1911:
 4946                             	.LBE1910:
 4947                             	.LBE2194:
 4948                             	.LBE2212:
 4949                             	.LBE2243:
 4950                             	.LBE2262:
 196:C:\Users\a5116938\Desktop\e2_studio_workspace\EEMBC_final\RX65N_Cloud_Kit\src/tensorflow/lite/kernels/internal\types.h ****     TFLITE_DCHECK_LT(i, size_);
 4951                             		.loc 3 196 5
 197:C:\Users\a5116938\Desktop\e2_studio_workspace\EEMBC_final\RX65N_Cloud_Kit\src/tensorflow/lite/kernels/internal\types.h ****     return size_ > kMaxSmallSize ? dims_pointer_[i] : dims_[i];
 4952                             		.loc 3 197 5
 198:C:\Users\a5116938\Desktop\e2_studio_workspace\EEMBC_final\RX65N_Cloud_Kit\src/tensorflow/lite/kernels/internal\types.h ****   }
 4953                             		.loc 3 198 5
 4954                             	.LBB2263:
 4955                             	.LBB2244:
 4956                             	.LBB2213:
 4957                             	.LBB2195:
 133:C:\Users\a5116938\Desktop\e2_studio_workspace\EEMBC_final\RX65N_Cloud_Kit\src/tensorflow/lite/kernels/internal/reference\conv.h ****   const int output_depth = MatchingDim(filter_shape, 0, output_shape, 3);
 4958                             		.loc 11 133 3
 4959                             	.LBB1916:
 4960                             	.LBB1917:
 440:C:\Users\a5116938\Desktop\e2_studio_workspace\EEMBC_final\RX65N_Cloud_Kit\src/tensorflow/lite/kernels/internal\types.h ****   return std::min(shape1.Dims(index1), shape2.Dims(index2));
 4961                             		.loc 3 440 3
 4962                             	.LBB1918:
 4963                             	.LBB1919:
 196:C:\Users\a5116938\Desktop\e2_studio_workspace\EEMBC_final\RX65N_Cloud_Kit\src/tensorflow/lite/kernels/internal\types.h ****     TFLITE_DCHECK_LT(i, size_);
 4964                             		.loc 3 196 5
 197:C:\Users\a5116938\Desktop\e2_studio_workspace\EEMBC_final\RX65N_Cloud_Kit\src/tensorflow/lite/kernels/internal\types.h ****     return size_ > kMaxSmallSize ? dims_pointer_[i] : dims_[i];
 4965                             		.loc 3 197 5
 198:C:\Users\a5116938\Desktop\e2_studio_workspace\EEMBC_final\RX65N_Cloud_Kit\src/tensorflow/lite/kernels/internal\types.h ****   }
 4966                             		.loc 3 198 5
 198:C:\Users\a5116938\Desktop\e2_studio_workspace\EEMBC_final\RX65N_Cloud_Kit\src/tensorflow/lite/kernels/internal\types.h ****   }
 4967                             		.loc 3 198 34 is_stmt 0
 4968 046c E5 00 0E 5C             		mov.L	56[r0], 368[r0]
 4969                             	.LVL399:
 4970                             	.LBE1919:
 4971                             	.LBE1918:
 4972                             	.LBB1920:
 4973                             	.LBB1921:
 196:C:\Users\a5116938\Desktop\e2_studio_workspace\EEMBC_final\RX65N_Cloud_Kit\src/tensorflow/lite/kernels/internal\types.h ****     TFLITE_DCHECK_LT(i, size_);
 4974                             		.loc 3 196 5 is_stmt 1
 197:C:\Users\a5116938\Desktop\e2_studio_workspace\EEMBC_final\RX65N_Cloud_Kit\src/tensorflow/lite/kernels/internal\types.h ****     return size_ > kMaxSmallSize ? dims_pointer_[i] : dims_[i];
 4975                             		.loc 3 197 5
 198:C:\Users\a5116938\Desktop\e2_studio_workspace\EEMBC_final\RX65N_Cloud_Kit\src/tensorflow/lite/kernels/internal\types.h ****   }
 4976                             		.loc 3 198 5
 4977                             	.LBE1921:
 4978                             	.LBE1920:
 440:C:\Users\a5116938\Desktop\e2_studio_workspace\EEMBC_final\RX65N_Cloud_Kit\src/tensorflow/lite/kernels/internal\types.h ****   return std::min(shape1.Dims(index1), shape2.Dims(index2));
 4979                             		.loc 3 440 3 is_stmt 0
 4980 0470 ED 0A 1D                		mov.L	116[r0], r10
 4981 0473 ED 08 5C                		mov.L	368[r0], r8
 4982 0476 47 8A                   		cmp	r8, r10
 4983 0478 3B 70 FC                		bne	.L208
 4984                             		.loc 3 441 3 is_stmt 1
 4985                             	.LVL400:
 4986                             	.LBE1917:
 4987                             	.LBE1916:
 4988                             	.LBE2195:
 4989                             	.LBE2213:
 4990                             	.LBE2244:
 4991                             	.LBE2263:
 196:C:\Users\a5116938\Desktop\e2_studio_workspace\EEMBC_final\RX65N_Cloud_Kit\src/tensorflow/lite/kernels/internal\types.h ****     TFLITE_DCHECK_LT(i, size_);
 4992                             		.loc 3 196 5
 197:C:\Users\a5116938\Desktop\e2_studio_workspace\EEMBC_final\RX65N_Cloud_Kit\src/tensorflow/lite/kernels/internal\types.h ****     return size_ > kMaxSmallSize ? dims_pointer_[i] : dims_[i];
 4993                             		.loc 3 197 5
 198:C:\Users\a5116938\Desktop\e2_studio_workspace\EEMBC_final\RX65N_Cloud_Kit\src/tensorflow/lite/kernels/internal\types.h ****   }
 4994                             		.loc 3 198 5
 4995                             	.LBB2264:
 4996                             	.LBB2245:
 4997                             	.LBB2214:
 4998                             	.LBB2196:
 134:C:\Users\a5116938\Desktop\e2_studio_workspace\EEMBC_final\RX65N_Cloud_Kit\src/tensorflow/lite/kernels/internal/reference\conv.h ****   if (bias_data) {
 4999                             		.loc 11 134 3
 5000 047b ED 06 5F                		mov.L	380[r0], r6
 5001                             	.LVL401:
 5002 047e 61 06                   		cmp	#0, r6
 5003 0480 20 2C                   		beq	.L297
 135:C:\Users\a5116938\Desktop\e2_studio_workspace\EEMBC_final\RX65N_Cloud_Kit\src/tensorflow/lite/kernels/internal/reference\conv.h ****     TFLITE_DCHECK_EQ(bias_shape.FlatSize(), output_depth);
 5004                             		.loc 11 135 5
 5005                             	.LVL402:
 5006                             	.LBB1922:
 5007                             	.LBB1923:
 272:C:\Users\a5116938\Desktop\e2_studio_workspace\EEMBC_final\RX65N_Cloud_Kit\src/tensorflow/lite/kernels/internal\types.h ****     const int* dims_data = reinterpret_cast<const int*>(DimsData());
 5008                             		.loc 3 272 5
 273:C:\Users\a5116938\Desktop\e2_studio_workspace\EEMBC_final\RX65N_Cloud_Kit\src/tensorflow/lite/kernels/internal\types.h ****     for (int i = 0; i < size_; i++) {
 5009                             		.loc 3 273 5
 5010                             	.LBB1924:
 5011                             	.LBB1925:
 214:C:\Users\a5116938\Desktop\e2_studio_workspace\EEMBC_final\RX65N_Cloud_Kit\src/tensorflow/lite/kernels/internal\types.h ****   }
 5012                             		.loc 3 214 5
 214:C:\Users\a5116938\Desktop\e2_studio_workspace\EEMBC_final\RX65N_Cloud_Kit\src/tensorflow/lite/kernels/internal\types.h ****   }
 5013                             		.loc 3 214 12 is_stmt 0
 5014 0482 AC 8B                   		mov.L	76[r0], r3
 214:C:\Users\a5116938\Desktop\e2_studio_workspace\EEMBC_final\RX65N_Cloud_Kit\src/tensorflow/lite/kernels/internal\types.h ****   }
 5015                             		.loc 3 214 34
 5016 0484 61 53                   		cmp	#5, r3
 5017 0486 2B 05 38 CD 03          		bgt	.L376
 5018                             	.LVL403:
 5019                             	.LBE1925:
 5020                             	.LBE1924:
 274:C:\Users\a5116938\Desktop\e2_studio_workspace\EEMBC_final\RX65N_Cloud_Kit\src/tensorflow/lite/kernels/internal\types.h ****       buffer_size *= dims_data[i];
 5021                             		.loc 3 274 5 is_stmt 1
 5022                             	.LBB1928:
 274:C:\Users\a5116938\Desktop\e2_studio_workspace\EEMBC_final\RX65N_Cloud_Kit\src/tensorflow/lite/kernels/internal\types.h ****       buffer_size *= dims_data[i];
 5023                             		.loc 3 274 23 is_stmt 0
 5024 048b 61 03                   		cmp	#0, r3
 5025 048d 2A 05 38 03 06          		ble	.L311
 5026                             	.LBE1928:
 5027                             	.LBB1929:
 5028                             	.LBB1926:
 214:C:\Users\a5116938\Desktop\e2_studio_workspace\EEMBC_final\RX65N_Cloud_Kit\src/tensorflow/lite/kernels/internal\types.h ****   }
 5029                             		.loc 3 214 34
 5030 0492 71 02 50                		add	#0x50, r0, r2
 5031                             	.LVL404:
 5032                             		.balign 8,3,1
 5033                             	.L251:
 5034 0495 66 15                   		mov.L	#1, r5
 5035 0497 66 0A                   		mov.L	#0, r10
 5036                             	.LVL405:
 5037                             		.balign 8,3,3
 5038                             	.L253:
 5039                             	.LBE1926:
 5040                             	.LBE1929:
 5041                             	.LBB1930:
 275:C:\Users\a5116938\Desktop\e2_studio_workspace\EEMBC_final\RX65N_Cloud_Kit\src/tensorflow/lite/kernels/internal\types.h ****     }
 5042                             		.loc 3 275 7 is_stmt 1
 275:C:\Users\a5116938\Desktop\e2_studio_workspace\EEMBC_final\RX65N_Cloud_Kit\src/tensorflow/lite/kernels/internal\types.h ****     }
 5043                             		.loc 3 275 19 is_stmt 0
 5044 0499 FE 6A 24                		mov.L	[r10,r2], r4
 274:C:\Users\a5116938\Desktop\e2_studio_workspace\EEMBC_final\RX65N_Cloud_Kit\src/tensorflow/lite/kernels/internal\types.h ****       buffer_size *= dims_data[i];
 5045                             		.loc 3 274 5
 5046 049c 62 1A                   		add	#1, r10
 5047                             	.LVL406:
 275:C:\Users\a5116938\Desktop\e2_studio_workspace\EEMBC_final\RX65N_Cloud_Kit\src/tensorflow/lite/kernels/internal\types.h ****     }
 5048                             		.loc 3 275 19
 5049 049e 4F 45                   		mul	r4, r5
 5050                             	.LVL407:
 274:C:\Users\a5116938\Desktop\e2_studio_workspace\EEMBC_final\RX65N_Cloud_Kit\src/tensorflow/lite/kernels/internal\types.h ****       buffer_size *= dims_data[i];
 5051                             		.loc 3 274 23
 5052 04a0 47 A3                   		cmp	r10, r3
 5053 04a2 2A F7                   		bgt	.L253
 5054                             	.LVL408:
 5055                             		.balign 8,3,2
 5056                             	.L252:
 5057                             	.LBE1930:
 277:C:\Users\a5116938\Desktop\e2_studio_workspace\EEMBC_final\RX65N_Cloud_Kit\src/tensorflow/lite/kernels/internal\types.h ****   }
 5058                             		.loc 3 277 5 is_stmt 1
 5059                             	.LBE1923:
 5060                             	.LBE1922:
 5061                             		.loc 11 135 5 is_stmt 0
 5062 04a4 ED 04 5C                		mov.L	368[r0], r4
 5063 04a7 47 54                   		cmp	r5, r4
 5064 04a9 3B 3F FC                		bne	.L208
 5065                             	.LVL409:
 5066                             		.balign 8,3,1
 5067                             	.L297:
 136:C:\Users\a5116938\Desktop\e2_studio_workspace\EEMBC_final\RX65N_Cloud_Kit\src/tensorflow/lite/kernels/internal/reference\conv.h ****   }
 137:C:\Users\a5116938\Desktop\e2_studio_workspace\EEMBC_final\RX65N_Cloud_Kit\src/tensorflow/lite/kernels/internal/reference\conv.h ****   const int input_height = input_shape.Dims(1);
 5068                             		.loc 11 137 3 is_stmt 1
 5069                             	.LBB1934:
 5070                             	.LBB1935:
 196:C:\Users\a5116938\Desktop\e2_studio_workspace\EEMBC_final\RX65N_Cloud_Kit\src/tensorflow/lite/kernels/internal\types.h ****     TFLITE_DCHECK_LT(i, size_);
 5071                             		.loc 3 196 5
 197:C:\Users\a5116938\Desktop\e2_studio_workspace\EEMBC_final\RX65N_Cloud_Kit\src/tensorflow/lite/kernels/internal\types.h ****     return size_ > kMaxSmallSize ? dims_pointer_[i] : dims_[i];
 5072                             		.loc 3 197 5
 198:C:\Users\a5116938\Desktop\e2_studio_workspace\EEMBC_final\RX65N_Cloud_Kit\src/tensorflow/lite/kernels/internal\types.h ****   }
 5073                             		.loc 3 198 5
 198:C:\Users\a5116938\Desktop\e2_studio_workspace\EEMBC_final\RX65N_Cloud_Kit\src/tensorflow/lite/kernels/internal\types.h ****   }
 5074                             		.loc 3 198 34 is_stmt 0
 5075 04ac E5 00 09 51             		mov.L	36[r0], 324[r0]
 5076                             	.LVL410:
 5077                             	.LBE1935:
 5078                             	.LBE1934:
 138:C:\Users\a5116938\Desktop\e2_studio_workspace\EEMBC_final\RX65N_Cloud_Kit\src/tensorflow/lite/kernels/internal/reference\conv.h ****   const int input_width = input_shape.Dims(2);
 5079                             		.loc 11 138 3 is_stmt 1
 5080                             	.LBB1936:
 5081                             	.LBB1937:
 196:C:\Users\a5116938\Desktop\e2_studio_workspace\EEMBC_final\RX65N_Cloud_Kit\src/tensorflow/lite/kernels/internal\types.h ****     TFLITE_DCHECK_LT(i, size_);
 5082                             		.loc 3 196 5
 197:C:\Users\a5116938\Desktop\e2_studio_workspace\EEMBC_final\RX65N_Cloud_Kit\src/tensorflow/lite/kernels/internal\types.h ****     return size_ > kMaxSmallSize ? dims_pointer_[i] : dims_[i];
 5083                             		.loc 3 197 5
 198:C:\Users\a5116938\Desktop\e2_studio_workspace\EEMBC_final\RX65N_Cloud_Kit\src/tensorflow/lite/kernels/internal\types.h ****   }
 5084                             		.loc 3 198 5
 198:C:\Users\a5116938\Desktop\e2_studio_workspace\EEMBC_final\RX65N_Cloud_Kit\src/tensorflow/lite/kernels/internal\types.h ****   }
 5085                             		.loc 3 198 34 is_stmt 0
 5086 04b0 E5 00 0A 50             		mov.L	40[r0], 320[r0]
 5087                             	.LVL411:
 5088                             	.LBE1937:
 5089                             	.LBE1936:
 139:C:\Users\a5116938\Desktop\e2_studio_workspace\EEMBC_final\RX65N_Cloud_Kit\src/tensorflow/lite/kernels/internal/reference\conv.h ****   const int filter_height = filter_shape.Dims(1);
 5090                             		.loc 11 139 3 is_stmt 1
 5091                             	.LBB1938:
 5092                             	.LBB1939:
 196:C:\Users\a5116938\Desktop\e2_studio_workspace\EEMBC_final\RX65N_Cloud_Kit\src/tensorflow/lite/kernels/internal\types.h ****     TFLITE_DCHECK_LT(i, size_);
 5093                             		.loc 3 196 5
 197:C:\Users\a5116938\Desktop\e2_studio_workspace\EEMBC_final\RX65N_Cloud_Kit\src/tensorflow/lite/kernels/internal\types.h ****     return size_ > kMaxSmallSize ? dims_pointer_[i] : dims_[i];
 5094                             		.loc 3 197 5
 198:C:\Users\a5116938\Desktop\e2_studio_workspace\EEMBC_final\RX65N_Cloud_Kit\src/tensorflow/lite/kernels/internal\types.h ****   }
 5095                             		.loc 3 198 5
 198:C:\Users\a5116938\Desktop\e2_studio_workspace\EEMBC_final\RX65N_Cloud_Kit\src/tensorflow/lite/kernels/internal\types.h ****   }
 5096                             		.loc 3 198 34 is_stmt 0
 5097 04b4 E5 00 0F 56             		mov.L	60[r0], 344[r0]
 5098                             	.LVL412:
 5099                             	.LBE1939:
 5100                             	.LBE1938:
 140:C:\Users\a5116938\Desktop\e2_studio_workspace\EEMBC_final\RX65N_Cloud_Kit\src/tensorflow/lite/kernels/internal/reference\conv.h ****   const int filter_width = filter_shape.Dims(2);
 5101                             		.loc 11 140 3 is_stmt 1
 5102                             	.LBB1940:
 5103                             	.LBB1941:
 196:C:\Users\a5116938\Desktop\e2_studio_workspace\EEMBC_final\RX65N_Cloud_Kit\src/tensorflow/lite/kernels/internal\types.h ****     TFLITE_DCHECK_LT(i, size_);
 5104                             		.loc 3 196 5
 197:C:\Users\a5116938\Desktop\e2_studio_workspace\EEMBC_final\RX65N_Cloud_Kit\src/tensorflow/lite/kernels/internal\types.h ****     return size_ > kMaxSmallSize ? dims_pointer_[i] : dims_[i];
 5105                             		.loc 3 197 5
 198:C:\Users\a5116938\Desktop\e2_studio_workspace\EEMBC_final\RX65N_Cloud_Kit\src/tensorflow/lite/kernels/internal\types.h ****   }
 5106                             		.loc 3 198 5
 198:C:\Users\a5116938\Desktop\e2_studio_workspace\EEMBC_final\RX65N_Cloud_Kit\src/tensorflow/lite/kernels/internal\types.h ****   }
 5107                             		.loc 3 198 34 is_stmt 0
 5108 04b8 E5 00 10 45             		mov.L	64[r0], 276[r0]
 5109                             	.LVL413:
 5110                             	.LBE1941:
 5111                             	.LBE1940:
 141:C:\Users\a5116938\Desktop\e2_studio_workspace\EEMBC_final\RX65N_Cloud_Kit\src/tensorflow/lite/kernels/internal/reference\conv.h ****   const int output_height = output_shape.Dims(1);
 5112                             		.loc 11 141 3 is_stmt 1
 5113                             	.LBB1942:
 5114                             	.LBB1943:
 196:C:\Users\a5116938\Desktop\e2_studio_workspace\EEMBC_final\RX65N_Cloud_Kit\src/tensorflow/lite/kernels/internal\types.h ****     TFLITE_DCHECK_LT(i, size_);
 5115                             		.loc 3 196 5
 197:C:\Users\a5116938\Desktop\e2_studio_workspace\EEMBC_final\RX65N_Cloud_Kit\src/tensorflow/lite/kernels/internal\types.h ****     return size_ > kMaxSmallSize ? dims_pointer_[i] : dims_[i];
 5116                             		.loc 3 197 5
 198:C:\Users\a5116938\Desktop\e2_studio_workspace\EEMBC_final\RX65N_Cloud_Kit\src/tensorflow/lite/kernels/internal\types.h ****   }
 5117                             		.loc 3 198 5
 198:C:\Users\a5116938\Desktop\e2_studio_workspace\EEMBC_final\RX65N_Cloud_Kit\src/tensorflow/lite/kernels/internal\types.h ****   }
 5118                             		.loc 3 198 34 is_stmt 0
 5119 04bc E5 00 1B 6F             		mov.L	108[r0], 444[r0]
 5120                             	.LVL414:
 5121                             	.LBE1943:
 5122                             	.LBE1942:
 142:C:\Users\a5116938\Desktop\e2_studio_workspace\EEMBC_final\RX65N_Cloud_Kit\src/tensorflow/lite/kernels/internal/reference\conv.h ****   const int output_width = output_shape.Dims(2);
 5123                             		.loc 11 142 3 is_stmt 1
 5124                             	.LBB1944:
 5125                             	.LBB1945:
 196:C:\Users\a5116938\Desktop\e2_studio_workspace\EEMBC_final\RX65N_Cloud_Kit\src/tensorflow/lite/kernels/internal\types.h ****     TFLITE_DCHECK_LT(i, size_);
 5126                             		.loc 3 196 5
 197:C:\Users\a5116938\Desktop\e2_studio_workspace\EEMBC_final\RX65N_Cloud_Kit\src/tensorflow/lite/kernels/internal\types.h ****     return size_ > kMaxSmallSize ? dims_pointer_[i] : dims_[i];
 5127                             		.loc 3 197 5
 198:C:\Users\a5116938\Desktop\e2_studio_workspace\EEMBC_final\RX65N_Cloud_Kit\src/tensorflow/lite/kernels/internal\types.h ****   }
 5128                             		.loc 3 198 5
 198:C:\Users\a5116938\Desktop\e2_studio_workspace\EEMBC_final\RX65N_Cloud_Kit\src/tensorflow/lite/kernels/internal\types.h ****   }
 5129                             		.loc 3 198 34 is_stmt 0
 5130 04c0 E5 00 1C 6D             		mov.L	112[r0], 436[r0]
 5131                             	.LVL415:
 5132                             	.LBE1945:
 5133                             	.LBE1944:
 143:C:\Users\a5116938\Desktop\e2_studio_workspace\EEMBC_final\RX65N_Cloud_Kit\src/tensorflow/lite/kernels/internal/reference\conv.h ****   for (int batch = 0; batch < batches; ++batch) {
 5134                             		.loc 11 143 3 is_stmt 1
 5135                             	.LBB1946:
 5136                             		.loc 11 143 29 is_stmt 0
 5137 04c4 ED 05 67                		mov.L	412[r0], r5
 5138 04c7 61 05                   		cmp	#0, r5
 5139 04c9 2A 05 38 35 03          		ble	.L260
 5140 04ce ED 06 61                		mov.L	388[r0], r6
 5141                             	.LVL416:
 5142 04d1 FD 74 46 00             		max	#0, r6
 5143 04d5 E7 06 63                		mov.L	r6, 396[r0]
 5144                             	.LBB1947:
 5145                             	.LBB1948:
 5146                             	.LBB1949:
 5147                             	.LBB1950:
 5148                             	.LBB1951:
 5149                             	.LBB1952:
 5150                             	.LBB1953:
 5151                             	.LBB1954:
 5152                             	.LBB1955:
 5153                             	.LBB1956:
 5154                             		.loc 7 371 50
 5155 04d8 EF 6A                   		mov.L	r6, r10
 5156 04da 71 AA E0                		add	#-32, r10
 5157 04dd 26 05 38 7B 03          		bn	.L257
 5158 04e2 66 0A                   		mov.L	#0, r10
 5159                             		.balign 8,3,2
 5160                             	.L258:
 5161                             		.loc 7 371 63
 5162 04e4 71 AB FF                		add	#-1, r10, r11
 5163                             	.LVL417:
 5164 04e7 E7 0B 64                		mov.L	r11, 400[r0]
 5165                             	.LBE1956:
 5166                             	.LBE1955:
 5167                             	.LBE1954:
 5168                             	.LBE1953:
 5169                             	.LBE1952:
 5170                             	.LBE1951:
 5171                             	.LBE1950:
 5172                             	.LBE1949:
 5173                             	.LBE1948:
 5174                             	.LBE1947:
 5175                             		.loc 11 143 12
 5176 04ea F9 06 49 00             		mov.L	#0, 292[r0]
 5177                             	.LBB2164:
 5178                             	.LBB2150:
 5179                             	.LBB2136:
 5180                             	.LBB2122:
 5181                             	.LBB2108:
 5182                             	.LBB2093:
 5183                             	.LBB1996:
 5184                             	.LBB1989:
 161:C:\Users\a5116938\Desktop\e2_studio_workspace\EEMBC_final\RX65N_Cloud_Kit\src/tensorflow/lite/kernels/internal\common.h ****   int right_shift = shift > 0 ? 0 : -shift;
 5185                             		.loc 8 161 7
 5186 04ee FD 74 47 00             		max	#0, r7
 5187 04f2 E7 07 6C                		mov.L	r7, 432[r0]
 5188                             	.LBB1976:
 5189                             	.LBB1971:
 5190                             	.LBB1957:
 5191                             	.LBB1958:
 142:C:\Users\a5116938\Desktop\e2_studio_workspace\EEMBC_final\RX65N_Cloud_Kit\src\third_party\gemmlowp/fixedpoint\fixedpoint.h **** }
 5192                             		.loc 7 142 15
 5193 04f5 6A 1B                   		shar	#1, r11
 5194 04f7 E7 0B 6B                		mov.L	r11, 428[r0]
 5195                             	.LBE1958:
 5196                             	.LBE1957:
 5197                             	.LBE1971:
 5198                             	.LBE1976:
 5199                             	.LBB1977:
 5200                             	.LBB1978:
 346:C:\Users\a5116938\Desktop\e2_studio_workspace\EEMBC_final\RX65N_Cloud_Kit\src\third_party\gemmlowp/fixedpoint\fixedpoint.h ****   std::int32_t ab_x2_high32 =
 5201                             		.loc 7 346 35
 5202 04fa E7 0D 44                		mov.L	r13, 272[r0]
 5203                             	.LVL418:
 5204                             		.balign 8,3,2
 5205                             	.L261:
 5206                             	.LBE1978:
 5207                             	.LBE1977:
 5208                             	.LBE1989:
 5209                             	.LBE1996:
 5210                             	.LBE2093:
 5211                             	.LBE2108:
 5212                             	.LBE2122:
 5213                             	.LBE2136:
 5214                             	.LBE2150:
 144:C:\Users\a5116938\Desktop\e2_studio_workspace\EEMBC_final\RX65N_Cloud_Kit\src/tensorflow/lite/kernels/internal/reference\conv.h ****     for (int out_y = 0; out_y < output_height; ++out_y) {
 5215                             		.loc 11 144 31
 5216 04fd ED 01 6F                		mov.L	444[r0], r1
 5217 0500 61 01                   		cmp	#0, r1
 5218 0502 2A 05 38 EC 02          		ble	.L263
 5219 0507 DD 04 E3                		mov.W	454[r0], r4
 5220 050a E7 04 74                		mov.L	r4, 464[r0]
 5221 050d ED 05 72                		mov.L	456[r0], r5
 5222 0510 7E 15                   		neg	r5
 5223 0512 E7 05 5B                		mov.L	r5, 364[r0]
 5224                             		.loc 11 144 14
 5225 0515 F9 06 60 00             		mov.L	#0, 384[r0]
 5226 0519 DD 06 E2                		mov.W	452[r0], r6
 5227 051c E7 06 73                		mov.L	r6, 460[r0]
 5228                             	.LVL419:
 5229 051f 03                      		.balign 8,3,2
 5230                             	.L264:
 5231                             	.LBB2151:
 145:C:\Users\a5116938\Desktop\e2_studio_workspace\EEMBC_final\RX65N_Cloud_Kit\src/tensorflow/lite/kernels/internal/reference\conv.h ****       const int in_y_origin = (out_y * stride_height) - pad_height;
 5232                             		.loc 11 145 7 is_stmt 1
 146:C:\Users\a5116938\Desktop\e2_studio_workspace\EEMBC_final\RX65N_Cloud_Kit\src/tensorflow/lite/kernels/internal/reference\conv.h ****       for (int out_x = 0; out_x < output_width; ++out_x) {
 5233                             		.loc 11 146 7
 5234                             	.LBB2137:
 5235                             		.loc 11 146 33 is_stmt 0
 5236 0520 ED 07 6D                		mov.L	436[r0], r7
 5237 0523 61 07                   		cmp	#0, r7
 5238 0525 2A 05 38 AD 02          		ble	.L266
 5239 052a ED 01 70                		mov.L	448[r0], r1
 5240 052d 7E 11                   		neg	r1
 5241 052f E7 01 57                		mov.L	r1, 348[r0]
 5242                             		.loc 11 146 16
 5243 0532 F9 06 5D 00             		mov.L	#0, 372[r0]
 5244 0536 DD 02 DD                		mov.W	442[r0], r2
 5245 0539 E7 02 58                		mov.L	r2, 352[r0]
 5246                             	.LVL420:
 5247 053c 76 10 01 00             		.balign 8,3,4
 5248                             	.L267:
 5249                             	.LBB2123:
 147:C:\Users\a5116938\Desktop\e2_studio_workspace\EEMBC_final\RX65N_Cloud_Kit\src/tensorflow/lite/kernels/internal/reference\conv.h ****         const int in_x_origin = (out_x * stride_width) - pad_width;
 5250                             		.loc 11 147 9 is_stmt 1
 148:C:\Users\a5116938\Desktop\e2_studio_workspace\EEMBC_final\RX65N_Cloud_Kit\src/tensorflow/lite/kernels/internal/reference\conv.h ****         for (int out_channel = 0; out_channel < output_depth; ++out_channel) {
 5251                             		.loc 11 148 9
 5252                             	.LBB2109:
 5253                             		.loc 11 148 18 is_stmt 0
 5254 0540 F9 06 46 00             		mov.L	#0, 280[r0]
 5255 0544 DD 03 DC                		mov.W	440[r0], r3
 5256 0547 E7 03 4A                		mov.L	r3, 296[r0]
 5257                             		.loc 11 148 47
 5258 054a ED 04 5C                		mov.L	368[r0], r4
 5259 054d 61 04                   		cmp	#0, r4
 5260 054f 2A 05 38 69 02          		ble	.L285
 5261                             	.LVL421:
 5262                             		.balign 8,3,2
 5263                             	.L265:
 5264                             	.LBB2094:
 149:C:\Users\a5116938\Desktop\e2_studio_workspace\EEMBC_final\RX65N_Cloud_Kit\src/tensorflow/lite/kernels/internal/reference\conv.h ****           int32_t acc = 0;
 5265                             		.loc 11 149 11 is_stmt 1
 150:C:\Users\a5116938\Desktop\e2_studio_workspace\EEMBC_final\RX65N_Cloud_Kit\src/tensorflow/lite/kernels/internal/reference\conv.h ****           for (int filter_y = 0; filter_y < filter_height; ++filter_y) {
 5266                             		.loc 11 150 11
 5267                             	.LBB1997:
 5268                             		.loc 11 150 43 is_stmt 0
 5269 0554 ED 08 56                		mov.L	344[r0], r8
 5270 0557 61 08                   		cmp	#0, r8
 5271 0559 2A 05 38 07 05          		ble	.L313
 5272                             	.LBB1998:
 5273                             	.LBB1999:
 5274                             	.LBB2000:
 5275                             	.LBB2001:
 5276                             	.LBB2002:
 5277                             	.LBB2003:
 5278                             	.LBB2004:
 389:C:\Users\a5116938\Desktop\e2_studio_workspace\EEMBC_final\RX65N_Cloud_Kit\src/tensorflow/lite/kernels/internal\types.h ****   TFLITE_DCHECK(i2 >= 0 && i2 < dims_data[2]);
 5279                             		.loc 3 389 3
 5280 055e E5 00 09 4B             		mov.L	36[r0], 300[r0]
 390:C:\Users\a5116938\Desktop\e2_studio_workspace\EEMBC_final\RX65N_Cloud_Kit\src/tensorflow/lite/kernels/internal\types.h ****   TFLITE_DCHECK(i3 >= 0 && i3 < dims_data[3]);
 5281                             		.loc 3 390 3
 5282 0562 E5 00 0A 47             		mov.L	40[r0], 284[r0]
 5283                             	.LBE2004:
 5284                             	.LBE2003:
 5285                             	.LBB2013:
 5286                             	.LBB2014:
 5287 0566 E5 00 10 48             		mov.L	64[r0], 288[r0]
 389:C:\Users\a5116938\Desktop\e2_studio_workspace\EEMBC_final\RX65N_Cloud_Kit\src/tensorflow/lite/kernels/internal\types.h ****   TFLITE_DCHECK(i2 >= 0 && i2 < dims_data[2]);
 5288                             		.loc 3 389 3
 5289 056a E5 00 0F 4C             		mov.L	60[r0], 304[r0]
 5290                             	.LBE2014:
 5291                             	.LBE2013:
 5292                             	.LBB2020:
 5293                             	.LBB2005:
 392:C:\Users\a5116938\Desktop\e2_studio_workspace\EEMBC_final\RX65N_Cloud_Kit\src/tensorflow/lite/kernels/internal\types.h **** }
 5294                             		.loc 3 392 15
 5295 056e ED 01 49                		mov.L	292[r0], r1
 5296 0571 ED 0A 4B                		mov.L	300[r0], r10
 5297 0574 4F A1                   		mul	r10, r1
 5298                             	.LBE2005:
 5299                             	.LBE2020:
 5300                             	.LBB2021:
 5301                             	.LBB2015:
 391:C:\Users\a5116938\Desktop\e2_studio_workspace\EEMBC_final\RX65N_Cloud_Kit\src/tensorflow/lite/kernels/internal\types.h ****   return ((i0 * dims_data[1] + i1) * dims_data[2] + i2) * dims_data[3] + i3;
 5302                             		.loc 3 391 3
 5303 0576 ED 0F 11                		mov.L	68[r0], r15
 5304 0579 06 89 01 5B             		add	364[r0], r1
 5305                             	.LBE2015:
 5306                             	.LBE2021:
 5307                             	.LBB2022:
 5308                             	.LBB2006:
 5309 057d ED 0E 0B                		mov.L	44[r0], r14
 5310 0580 ED 0B 47                		mov.L	284[r0], r11
 5311 0583 4F B1                   		mul	r11, r1
 5312 0585 ED 09 4C                		mov.L	304[r0], r9
 5313 0588 ED 02 48                		mov.L	288[r0], r2
 5314 058b 4F 29                   		mul	r2, r9
 5315 058d 06 89 01 57             		add	348[r0], r1
 5316 0591 4F F9                   		mul	r15, r9
 5317 0593 EF B7                   		mov.L	r11, r7
 5318 0595 4F E7                   		mul	r14, r7
 5319 0597 4F E1                   		mul	r14, r1
 5320 0599 ED 03 46                		mov.L	280[r0], r3
 5321 059c 4F 39                   		mul	r3, r9
 386:C:\Users\a5116938\Desktop\e2_studio_workspace\EEMBC_final\RX65N_Cloud_Kit\src/tensorflow/lite/kernels/internal\types.h ****   const int* dims_data = reinterpret_cast<const int*>(shape.DimsDataUpTo5D());
 5322                             		.loc 3 386 3
 5323 059e E5 00 07 52             		mov.L	28[r0], 328[r0]
 388:C:\Users\a5116938\Desktop\e2_studio_workspace\EEMBC_final\RX65N_Cloud_Kit\src/tensorflow/lite/kernels/internal\types.h ****   TFLITE_DCHECK(i1 >= 0 && i1 < dims_data[1]);
 5324                             		.loc 3 388 3
 5325 05a2 E5 00 08 53             		mov.L	32[r0], 332[r0]
 5326                             	.LBE2006:
 5327                             	.LBE2022:
 5328                             	.LBB2023:
 5329                             	.LBB2016:
 386:C:\Users\a5116938\Desktop\e2_studio_workspace\EEMBC_final\RX65N_Cloud_Kit\src/tensorflow/lite/kernels/internal\types.h ****   const int* dims_data = reinterpret_cast<const int*>(shape.DimsDataUpTo5D());
 5330                             		.loc 3 386 3
 5331 05a6 E5 00 0D 54             		mov.L	52[r0], 336[r0]
 388:C:\Users\a5116938\Desktop\e2_studio_workspace\EEMBC_final\RX65N_Cloud_Kit\src/tensorflow/lite/kernels/internal\types.h ****   TFLITE_DCHECK(i1 >= 0 && i1 < dims_data[1]);
 5332                             		.loc 3 388 3
 5333 05aa E5 00 0E 55             		mov.L	56[r0], 340[r0]
 5334 05ae ED 04 58                		mov.L	352[r0], r4
 5335 05b1 4F 74                   		mul	r7, r4
 5336 05b3 E7 04 5A                		mov.L	r4, 360[r0]
 5337 05b6 06 89 01 65             		add	404[r0], r1
 5338 05ba 4F F2                   		mul	r15, r2
 5339 05bc E7 02 59                		mov.L	r2, 356[r0]
 5340 05bf 06 89 09 66             		add	408[r0], r9
 5341 05c3 ED 05 4A                		mov.L	296[r0], r5
 5342 05c6 4F E5                   		mul	r14, r5
 5343 05c8 E7 05 4D                		mov.L	r5, 308[r0]
 391:C:\Users\a5116938\Desktop\e2_studio_workspace\EEMBC_final\RX65N_Cloud_Kit\src/tensorflow/lite/kernels/internal\types.h ****   return ((i0 * dims_data[1] + i1) * dims_data[2] + i2) * dims_data[3] + i3;
 5344                             		.loc 3 391 3
 5345 05cb ED 03 5B                		mov.L	364[r0], r3
 5346                             	.LBE2016:
 5347                             	.LBE2023:
 5348                             	.LBE2002:
 5349                             	.LBE2001:
 5350                             	.LBE2000:
 5351                             	.LBE1999:
 5352                             	.LBE1998:
 5353                             	.LBE1997:
 149:C:\Users\a5116938\Desktop\e2_studio_workspace\EEMBC_final\RX65N_Cloud_Kit\src/tensorflow/lite/kernels/internal/reference\conv.h ****           for (int filter_y = 0; filter_y < filter_height; ++filter_y) {
 5354                             		.loc 11 149 19
 5355 05ce F9 06 43 00             		mov.L	#0, 268[r0]
 5356                             	.LBB2070:
 5357                             		.loc 11 150 20
 5358 05d2 66 0C                   		mov.L	#0, r12
 5359                             	.LVL422:
 5360                             		.balign 8,3,2
 5361                             	.L275:
 5362                             	.LBB2063:
 151:C:\Users\a5116938\Desktop\e2_studio_workspace\EEMBC_final\RX65N_Cloud_Kit\src/tensorflow/lite/kernels/internal/reference\conv.h ****             const int in_y = in_y_origin + dilation_height_factor * filter_y;
 5363                             		.loc 11 151 13 is_stmt 1
 152:C:\Users\a5116938\Desktop\e2_studio_workspace\EEMBC_final\RX65N_Cloud_Kit\src/tensorflow/lite/kernels/internal/reference\conv.h ****             for (int filter_x = 0; filter_x < filter_width; ++filter_x) {
 5364                             		.loc 11 152 13
 5365                             	.LBB2056:
 5366                             		.loc 11 152 45 is_stmt 0
 5367 05d4 ED 06 45                		mov.L	276[r0], r6
 5368 05d7 61 06                   		cmp	#0, r6
 5369 05d9 2A 05 38 E7 00          		ble	.L269
 5370 05de EF 9B                   		mov.L	r9, r11
 5371 05e0 EF 16                   		mov.L	r1, r6
 5372 05e2 ED 05 57                		mov.L	348[r0], r5
 5373                             		.loc 11 152 22
 5374 05e5 66 04                   		mov.L	#0, r4
 5375 05e7 2E 16                   		bra	.L274
 5376                             	.LVL423:
 5377                             	.L270:
 5378                             		.loc 11 152 13
 5379 05e9 62 14                   		add	#1, r4
 5380                             	.LVL424:
 5381 05eb 06 89 05 4A             		add	296[r0], r5
 5382 05ef 06 89 06 4D             		add	308[r0], r6
 5383 05f3 4B FB                   		add	r15, r11
 5384                             		.loc 11 152 45
 5385 05f5 ED 07 45                		mov.L	276[r0], r7
 5386 05f8 47 74                   		cmp	r7, r4
 5387 05fa 3A C8 00                		beq	.L269
 5388                             	.LVL425:
 5389                             		.balign 8,3,1
 5390                             	.L274:
 5391                             	.LBB2049:
 153:C:\Users\a5116938\Desktop\e2_studio_workspace\EEMBC_final\RX65N_Cloud_Kit\src/tensorflow/lite/kernels/internal/reference\conv.h ****               const int in_x = in_x_origin + dilation_width_factor * filter_x;
 5392                             		.loc 11 153 15 is_stmt 1
 154:C:\Users\a5116938\Desktop\e2_studio_workspace\EEMBC_final\RX65N_Cloud_Kit\src/tensorflow/lite/kernels/internal/reference\conv.h **** 
 155:C:\Users\a5116938\Desktop\e2_studio_workspace\EEMBC_final\RX65N_Cloud_Kit\src/tensorflow/lite/kernels/internal/reference\conv.h ****               // Zero padding by omitting the areas outside the image.
 156:C:\Users\a5116938\Desktop\e2_studio_workspace\EEMBC_final\RX65N_Cloud_Kit\src/tensorflow/lite/kernels/internal/reference\conv.h ****               const bool is_point_inside_image =
 5393                             		.loc 11 156 15
 157:C:\Users\a5116938\Desktop\e2_studio_workspace\EEMBC_final\RX65N_Cloud_Kit\src/tensorflow/lite/kernels/internal/reference\conv.h ****                   (in_x >= 0) && (in_x < input_width) && (in_y >= 0) &&
 5394                             		.loc 11 157 70 is_stmt 0
 5395 05fd 61 05                   		cmp	#0, r5
 5396 05ff 29 EA                   		blt	.L270
 5397                             		.loc 11 157 31
 5398 0601 ED 07 50                		mov.L	320[r0], r7
 5399 0604 47 57                   		cmp	r5, r7
 5400 0606 2B E3                   		ble	.L270
 5401                             		.loc 11 157 55
 5402 0608 61 03                   		cmp	#0, r3
 5403 060a 29 DF                   		blt	.L270
 5404                             		.loc 11 157 70
 5405 060c ED 08 51                		mov.L	324[r0], r8
 5406 060f 47 38                   		cmp	r3, r8
 5407 0611 2B D8                   		ble	.L270
 5408                             	.LVL426:
 5409                             	.LBB2042:
 158:C:\Users\a5116938\Desktop\e2_studio_workspace\EEMBC_final\RX65N_Cloud_Kit\src/tensorflow/lite/kernels/internal/reference\conv.h ****                   (in_y < input_height);
 159:C:\Users\a5116938\Desktop\e2_studio_workspace\EEMBC_final\RX65N_Cloud_Kit\src/tensorflow/lite/kernels/internal/reference\conv.h **** 
 160:C:\Users\a5116938\Desktop\e2_studio_workspace\EEMBC_final\RX65N_Cloud_Kit\src/tensorflow/lite/kernels/internal/reference\conv.h ****               if (!is_point_inside_image) {
 161:C:\Users\a5116938\Desktop\e2_studio_workspace\EEMBC_final\RX65N_Cloud_Kit\src/tensorflow/lite/kernels/internal/reference\conv.h ****                 continue;
 162:C:\Users\a5116938\Desktop\e2_studio_workspace\EEMBC_final\RX65N_Cloud_Kit\src/tensorflow/lite/kernels/internal/reference\conv.h ****               }
 163:C:\Users\a5116938\Desktop\e2_studio_workspace\EEMBC_final\RX65N_Cloud_Kit\src/tensorflow/lite/kernels/internal/reference\conv.h **** 
 164:C:\Users\a5116938\Desktop\e2_studio_workspace\EEMBC_final\RX65N_Cloud_Kit\src/tensorflow/lite/kernels/internal/reference\conv.h ****               for (int in_channel = 0; in_channel < input_depth; ++in_channel) {
 5410                             		.loc 11 164 51
 5411 0613 ED 02 44                		mov.L	272[r0], r2
 5412 0616 61 02                   		cmp	#0, r2
 5413 0618 2B D1                   		ble	.L270
 5414                             	.LBB2033:
 165:C:\Users\a5116938\Desktop\e2_studio_workspace\EEMBC_final\RX65N_Cloud_Kit\src/tensorflow/lite/kernels/internal/reference\conv.h ****                 int32_t input_val = input_data[Offset(input_shape, batch, in_y,
 5415                             		.loc 11 165 17 is_stmt 1
 5416                             	.LVL427:
 5417                             	.LBB2024:
 5418                             	.LBB2007:
 386:C:\Users\a5116938\Desktop\e2_studio_workspace\EEMBC_final\RX65N_Cloud_Kit\src/tensorflow/lite/kernels/internal\types.h ****   const int* dims_data = reinterpret_cast<const int*>(shape.DimsDataUpTo5D());
 5419                             		.loc 3 386 3
 5420                             	.LBE2007:
 5421                             	.LBE2024:
 5422                             	.LBE2033:
 5423                             	.LBE2042:
 5424                             	.LBE2049:
 5425                             	.LBE2056:
 5426                             	.LBE2063:
 5427                             	.LBE2070:
 5428                             	.LBE2094:
 5429                             	.LBE2109:
 5430                             	.LBE2123:
 5431                             	.LBE2137:
 5432                             	.LBE2151:
 5433                             	.LBE2164:
 5434                             	.LBE1946:
 5435                             	.LBE2196:
 5436                             	.LBE2214:
 5437                             	.LBE2245:
 5438                             	.LBE2264:
 194:C:\Users\a5116938\Desktop\e2_studio_workspace\EEMBC_final\RX65N_Cloud_Kit\src/tensorflow/lite/kernels/internal\types.h ****   inline int32_t Dims(int i) const {
 5439                             		.loc 3 194 44
 5440                             	.LBB2265:
 5441                             	.LBB2246:
 5442                             	.LBB2215:
 5443                             	.LBB2197:
 5444                             	.LBB2177:
 5445                             	.LBB2165:
 5446                             	.LBB2152:
 5447                             	.LBB2138:
 5448                             	.LBB2124:
 5449                             	.LBB2110:
 5450                             	.LBB2095:
 5451                             	.LBB2071:
 5452                             	.LBB2064:
 5453                             	.LBB2057:
 5454                             	.LBB2050:
 5455                             	.LBB2043:
 5456                             	.LBB2034:
 5457                             	.LBB2025:
 5458                             	.LBB2008:
 386:C:\Users\a5116938\Desktop\e2_studio_workspace\EEMBC_final\RX65N_Cloud_Kit\src/tensorflow/lite/kernels/internal\types.h ****   const int* dims_data = reinterpret_cast<const int*>(shape.DimsDataUpTo5D());
 5459                             		.loc 3 386 3 is_stmt 0
 5460 061a ED 07 52                		mov.L	328[r0], r7
 5461 061d 61 47                   		cmp	#4, r7
 5462 061f 3B C9 FA                		bne	.L208
 387:C:\Users\a5116938\Desktop\e2_studio_workspace\EEMBC_final\RX65N_Cloud_Kit\src/tensorflow/lite/kernels/internal\types.h ****   TFLITE_DCHECK(i0 >= 0 && i0 < dims_data[0]);
 5463                             		.loc 3 387 3 is_stmt 1
 5464                             	.LVL428:
 5465                             	.LBE2008:
 5466                             	.LBE2025:
 5467                             	.LBE2034:
 5468                             	.LBE2043:
 5469                             	.LBE2050:
 5470                             	.LBE2057:
 5471                             	.LBE2064:
 5472                             	.LBE2071:
 5473                             	.LBE2095:
 5474                             	.LBE2110:
 5475                             	.LBE2124:
 5476                             	.LBE2138:
 5477                             	.LBE2152:
 5478                             	.LBE2165:
 5479                             	.LBE2177:
 5480                             	.LBE2197:
 5481                             	.LBE2215:
 5482                             	.LBE2246:
 5483                             	.LBE2265:
 217:C:\Users\a5116938\Desktop\e2_studio_workspace\EEMBC_final\RX65N_Cloud_Kit\src/tensorflow/lite/kernels/internal\types.h **** 
 5484                             		.loc 3 217 50
 5485                             	.LBB2266:
 5486                             	.LBB2247:
 5487                             	.LBB2216:
 5488                             	.LBB2198:
 5489                             	.LBB2178:
 5490                             	.LBB2166:
 5491                             	.LBB2153:
 5492                             	.LBB2139:
 5493                             	.LBB2125:
 5494                             	.LBB2111:
 5495                             	.LBB2096:
 5496                             	.LBB2072:
 5497                             	.LBB2065:
 5498                             	.LBB2058:
 5499                             	.LBB2051:
 5500                             	.LBB2044:
 5501                             	.LBB2035:
 5502                             	.LBB2026:
 5503                             	.LBB2009:
 388:C:\Users\a5116938\Desktop\e2_studio_workspace\EEMBC_final\RX65N_Cloud_Kit\src/tensorflow/lite/kernels/internal\types.h ****   TFLITE_DCHECK(i1 >= 0 && i1 < dims_data[1]);
 5504                             		.loc 3 388 3
 5505 0622 ED 08 53                		mov.L	332[r0], r8
 5506 0625 ED 0A 49                		mov.L	292[r0], r10
 5507 0628 47 A8                   		cmp	r10, r8
 5508 062a 2A 05 38 BC FA          		ble	.L208
 389:C:\Users\a5116938\Desktop\e2_studio_workspace\EEMBC_final\RX65N_Cloud_Kit\src/tensorflow/lite/kernels/internal\types.h ****   TFLITE_DCHECK(i2 >= 0 && i2 < dims_data[2]);
 5509                             		.loc 3 389 3
 5510 062f ED 02 4B                		mov.L	300[r0], r2
 5511 0632 47 23                   		cmp	r2, r3
 5512 0634 29 05 38 B2 FA          		bge	.L208
 390:C:\Users\a5116938\Desktop\e2_studio_workspace\EEMBC_final\RX65N_Cloud_Kit\src/tensorflow/lite/kernels/internal\types.h ****   TFLITE_DCHECK(i3 >= 0 && i3 < dims_data[3]);
 5513                             		.loc 3 390 3
 5514 0639 ED 07 47                		mov.L	284[r0], r7
 5515 063c 47 57                   		cmp	r5, r7
 5516 063e 2A 05 38 A8 FA          		ble	.L208
 391:C:\Users\a5116938\Desktop\e2_studio_workspace\EEMBC_final\RX65N_Cloud_Kit\src/tensorflow/lite/kernels/internal\types.h ****   return ((i0 * dims_data[1] + i1) * dims_data[2] + i2) * dims_data[3] + i3;
 5517                             		.loc 3 391 3
 5518 0643 61 0E                   		cmp	#0, r14
 5519 0645 2A 05 38 A1 FA          		ble	.L208
 5520 064a ED 08 54                		mov.L	336[r0], r8
 5521 064d 61 48                   		cmp	#4, r8
 5522 064f 3B 99 FA                		bne	.L208
 5523 0652 ED 0A 48                		mov.L	288[r0], r10
 5524 0655 47 4A                   		cmp	r4, r10
 5525 0657 2A 05 38 8F FA          		ble	.L208
 5526 065c ED 02 4C                		mov.L	304[r0], r2
 5527 065f 47 C2                   		cmp	r12, r2
 5528 0661 2A 05 38 85 FA          		ble	.L208
 5529 0666 ED 07 55                		mov.L	340[r0], r7
 5530 0669 ED 08 46                		mov.L	280[r0], r8
 5531 066c 47 87                   		cmp	r8, r7
 5532 066e 2A 05 38 78 FA          		ble	.L208
 5533 0673 EF BD                   		mov.L	r11, r13
 5534 0675 EF 68                   		mov.L	r6, r8
 5535                             	.LBE2009:
 5536                             	.LBE2026:
 5537                             	.LBE2035:
 164:C:\Users\a5116938\Desktop\e2_studio_workspace\EEMBC_final\RX65N_Cloud_Kit\src/tensorflow/lite/kernels/internal/reference\conv.h ****                 int32_t input_val = input_data[Offset(input_shape, batch, in_y,
 5538                             		.loc 11 164 24 is_stmt 0
 5539 0677 66 0A                   		mov.L	#0, r10
 5540 0679 E7 0B 75                		mov.L	r11, 468[r0]
 5541 067c 0E                      		bra	.L272
 5542                             	.LVL429:
 5543                             	.L273:
 5544                             	.LBB2036:
 5545                             		.loc 11 165 17 is_stmt 1
 5546                             	.LBB2027:
 5547                             	.LBB2010:
 386:C:\Users\a5116938\Desktop\e2_studio_workspace\EEMBC_final\RX65N_Cloud_Kit\src/tensorflow/lite/kernels/internal\types.h ****   const int* dims_data = reinterpret_cast<const int*>(shape.DimsDataUpTo5D());
 5548                             		.loc 3 386 3
 5549                             	.LBE2010:
 5550                             	.LBE2027:
 5551                             	.LBE2036:
 5552                             	.LBE2044:
 5553                             	.LBE2051:
 5554                             	.LBE2058:
 5555                             	.LBE2065:
 5556                             	.LBE2072:
 5557                             	.LBE2096:
 5558                             	.LBE2111:
 5559                             	.LBE2125:
 5560                             	.LBE2139:
 5561                             	.LBE2153:
 5562                             	.LBE2166:
 5563                             	.LBE2178:
 5564                             	.LBE2198:
 5565                             	.LBE2216:
 5566                             	.LBE2247:
 5567                             	.LBE2266:
 194:C:\Users\a5116938\Desktop\e2_studio_workspace\EEMBC_final\RX65N_Cloud_Kit\src/tensorflow/lite/kernels/internal\types.h ****   inline int32_t Dims(int i) const {
 5568                             		.loc 3 194 44
 5569                             	.LBB2267:
 5570                             	.LBB2248:
 5571                             	.LBB2217:
 5572                             	.LBB2199:
 5573                             	.LBB2179:
 5574                             	.LBB2167:
 5575                             	.LBB2154:
 5576                             	.LBB2140:
 5577                             	.LBB2126:
 5578                             	.LBB2112:
 5579                             	.LBB2097:
 5580                             	.LBB2073:
 5581                             	.LBB2066:
 5582                             	.LBB2059:
 5583                             	.LBB2052:
 5584                             	.LBB2045:
 5585                             	.LBB2037:
 5586                             	.LBB2028:
 5587                             	.LBB2011:
 387:C:\Users\a5116938\Desktop\e2_studio_workspace\EEMBC_final\RX65N_Cloud_Kit\src/tensorflow/lite/kernels/internal\types.h ****   TFLITE_DCHECK(i0 >= 0 && i0 < dims_data[0]);
 5588                             		.loc 3 387 3
 5589                             	.LBE2011:
 5590                             	.LBE2028:
 5591                             	.LBE2037:
 5592                             	.LBE2045:
 5593                             	.LBE2052:
 5594                             	.LBE2059:
 5595                             	.LBE2066:
 5596                             	.LBE2073:
 5597                             	.LBE2097:
 5598                             	.LBE2112:
 5599                             	.LBE2126:
 5600                             	.LBE2140:
 5601                             	.LBE2154:
 5602                             	.LBE2167:
 5603                             	.LBE2179:
 5604                             	.LBE2199:
 5605                             	.LBE2217:
 5606                             	.LBE2248:
 5607                             	.LBE2267:
 217:C:\Users\a5116938\Desktop\e2_studio_workspace\EEMBC_final\RX65N_Cloud_Kit\src/tensorflow/lite/kernels/internal\types.h **** 
 5608                             		.loc 3 217 50
 5609                             	.LBB2268:
 5610                             	.LBB2249:
 5611                             	.LBB2218:
 5612                             	.LBB2200:
 5613                             	.LBB2180:
 5614                             	.LBB2168:
 5615                             	.LBB2155:
 5616                             	.LBB2141:
 5617                             	.LBB2127:
 5618                             	.LBB2113:
 5619                             	.LBB2098:
 5620                             	.LBB2074:
 5621                             	.LBB2067:
 5622                             	.LBB2060:
 5623                             	.LBB2053:
 5624                             	.LBB2046:
 5625                             	.LBB2038:
 5626                             	.LBB2029:
 5627                             	.LBB2012:
 388:C:\Users\a5116938\Desktop\e2_studio_workspace\EEMBC_final\RX65N_Cloud_Kit\src/tensorflow/lite/kernels/internal\types.h ****   TFLITE_DCHECK(i1 >= 0 && i1 < dims_data[1]);
 5628                             		.loc 3 388 3
 389:C:\Users\a5116938\Desktop\e2_studio_workspace\EEMBC_final\RX65N_Cloud_Kit\src/tensorflow/lite/kernels/internal\types.h ****   TFLITE_DCHECK(i2 >= 0 && i2 < dims_data[2]);
 5629                             		.loc 3 389 3
 390:C:\Users\a5116938\Desktop\e2_studio_workspace\EEMBC_final\RX65N_Cloud_Kit\src/tensorflow/lite/kernels/internal\types.h ****   TFLITE_DCHECK(i3 >= 0 && i3 < dims_data[3]);
 5630                             		.loc 3 390 3
 391:C:\Users\a5116938\Desktop\e2_studio_workspace\EEMBC_final\RX65N_Cloud_Kit\src/tensorflow/lite/kernels/internal\types.h ****   return ((i0 * dims_data[1] + i1) * dims_data[2] + i2) * dims_data[3] + i3;
 5631                             		.loc 3 391 3
 5632 067d 47 EA                   		cmp	r14, r10
 5633 067f 3A 69 FA                		beq	.L208
 5634                             	.LVL430:
 5635                             		.balign 8,3,3
 5636                             	.L272:
 392:C:\Users\a5116938\Desktop\e2_studio_workspace\EEMBC_final\RX65N_Cloud_Kit\src/tensorflow/lite/kernels/internal\types.h **** }
 5637                             		.loc 3 392 3
 5638                             	.LBE2012:
 5639                             	.LBE2029:
 166:C:\Users\a5116938\Desktop\e2_studio_workspace\EEMBC_final\RX65N_Cloud_Kit\src/tensorflow/lite/kernels/internal/reference\conv.h ****                                                       in_x, in_channel)];
 5640                             		.loc 11 166 72 is_stmt 0
 5641 0682 FD 38 87                		movu.B	[r8+], r7
 5642                             	.LVL431:
 167:C:\Users\a5116938\Desktop\e2_studio_workspace\EEMBC_final\RX65N_Cloud_Kit\src/tensorflow/lite/kernels/internal/reference\conv.h ****                 int32_t filter_val = filter_data[Offset(
 5643                             		.loc 11 167 17 is_stmt 1
 5644                             	.LBB2030:
 5645                             	.LBB2017:
 386:C:\Users\a5116938\Desktop\e2_studio_workspace\EEMBC_final\RX65N_Cloud_Kit\src/tensorflow/lite/kernels/internal\types.h ****   const int* dims_data = reinterpret_cast<const int*>(shape.DimsDataUpTo5D());
 5646                             		.loc 3 386 3
 5647                             	.LBE2017:
 5648                             	.LBE2030:
 5649                             	.LBE2038:
 5650                             	.LBE2046:
 5651                             	.LBE2053:
 5652                             	.LBE2060:
 5653                             	.LBE2067:
 5654                             	.LBE2074:
 5655                             	.LBE2098:
 5656                             	.LBE2113:
 5657                             	.LBE2127:
 5658                             	.LBE2141:
 5659                             	.LBE2155:
 5660                             	.LBE2168:
 5661                             	.LBE2180:
 5662                             	.LBE2200:
 5663                             	.LBE2218:
 5664                             	.LBE2249:
 5665                             	.LBE2268:
 194:C:\Users\a5116938\Desktop\e2_studio_workspace\EEMBC_final\RX65N_Cloud_Kit\src/tensorflow/lite/kernels/internal\types.h ****   inline int32_t Dims(int i) const {
 5666                             		.loc 3 194 44
 5667                             	.LBB2269:
 5668                             	.LBB2250:
 5669                             	.LBB2219:
 5670                             	.LBB2201:
 5671                             	.LBB2181:
 5672                             	.LBB2169:
 5673                             	.LBB2156:
 5674                             	.LBB2142:
 5675                             	.LBB2128:
 5676                             	.LBB2114:
 5677                             	.LBB2099:
 5678                             	.LBB2075:
 5679                             	.LBB2068:
 5680                             	.LBB2061:
 5681                             	.LBB2054:
 5682                             	.LBB2047:
 5683                             	.LBB2039:
 5684                             	.LBB2031:
 5685                             	.LBB2018:
 387:C:\Users\a5116938\Desktop\e2_studio_workspace\EEMBC_final\RX65N_Cloud_Kit\src/tensorflow/lite/kernels/internal\types.h ****   TFLITE_DCHECK(i0 >= 0 && i0 < dims_data[0]);
 5686                             		.loc 3 387 3
 5687                             	.LBE2018:
 5688                             	.LBE2031:
 5689                             	.LBE2039:
 5690                             	.LBE2047:
 5691                             	.LBE2054:
 5692                             	.LBE2061:
 5693                             	.LBE2068:
 5694                             	.LBE2075:
 5695                             	.LBE2099:
 5696                             	.LBE2114:
 5697                             	.LBE2128:
 5698                             	.LBE2142:
 5699                             	.LBE2156:
 5700                             	.LBE2169:
 5701                             	.LBE2181:
 5702                             	.LBE2201:
 5703                             	.LBE2219:
 5704                             	.LBE2250:
 5705                             	.LBE2269:
 217:C:\Users\a5116938\Desktop\e2_studio_workspace\EEMBC_final\RX65N_Cloud_Kit\src/tensorflow/lite/kernels/internal\types.h **** 
 5706                             		.loc 3 217 50
 5707                             	.LBB2270:
 5708                             	.LBB2251:
 5709                             	.LBB2220:
 5710                             	.LBB2202:
 5711                             	.LBB2182:
 5712                             	.LBB2170:
 5713                             	.LBB2157:
 5714                             	.LBB2143:
 5715                             	.LBB2129:
 5716                             	.LBB2115:
 5717                             	.LBB2100:
 5718                             	.LBB2076:
 5719                             	.LBB2069:
 5720                             	.LBB2062:
 5721                             	.LBB2055:
 5722                             	.LBB2048:
 5723                             	.LBB2040:
 5724                             	.LBB2032:
 5725                             	.LBB2019:
 388:C:\Users\a5116938\Desktop\e2_studio_workspace\EEMBC_final\RX65N_Cloud_Kit\src/tensorflow/lite/kernels/internal\types.h ****   TFLITE_DCHECK(i1 >= 0 && i1 < dims_data[1]);
 5726                             		.loc 3 388 3
 389:C:\Users\a5116938\Desktop\e2_studio_workspace\EEMBC_final\RX65N_Cloud_Kit\src/tensorflow/lite/kernels/internal\types.h ****   TFLITE_DCHECK(i2 >= 0 && i2 < dims_data[2]);
 5727                             		.loc 3 389 3
 390:C:\Users\a5116938\Desktop\e2_studio_workspace\EEMBC_final\RX65N_Cloud_Kit\src/tensorflow/lite/kernels/internal\types.h ****   TFLITE_DCHECK(i3 >= 0 && i3 < dims_data[3]);
 5728                             		.loc 3 390 3
 391:C:\Users\a5116938\Desktop\e2_studio_workspace\EEMBC_final\RX65N_Cloud_Kit\src/tensorflow/lite/kernels/internal\types.h ****   return ((i0 * dims_data[1] + i1) * dims_data[2] + i2) * dims_data[3] + i3;
 5729                             		.loc 3 391 3
 5730 0685 47 AF                   		cmp	r10, r15
 5731 0687 2A 05 38 5F FA          		ble	.L208
 392:C:\Users\a5116938\Desktop\e2_studio_workspace\EEMBC_final\RX65N_Cloud_Kit\src/tensorflow/lite/kernels/internal\types.h **** }
 5732                             		.loc 3 392 3
 5733                             	.LVL432:
 5734                             	.LBE2019:
 5735                             	.LBE2032:
 168:C:\Users\a5116938\Desktop\e2_studio_workspace\EEMBC_final\RX65N_Cloud_Kit\src/tensorflow/lite/kernels/internal/reference\conv.h ****                     filter_shape, out_channel, filter_y, filter_x, in_channel)];
 169:C:\Users\a5116938\Desktop\e2_studio_workspace\EEMBC_final\RX65N_Cloud_Kit\src/tensorflow/lite/kernels/internal/reference\conv.h ****                 acc +=
 5736                             		.loc 11 169 17
 170:C:\Users\a5116938\Desktop\e2_studio_workspace\EEMBC_final\RX65N_Cloud_Kit\src/tensorflow/lite/kernels/internal/reference\conv.h ****                     (filter_val + filter_offset) * (input_val + input_offset);
 5737                             		.loc 11 170 50 is_stmt 0
 5738 068c ED 0B 4E                		mov.L	312[r0], r11
 5739 068f 43 B7                   		sub	r11, r7
 5740                             	.LVL433:
 168:C:\Users\a5116938\Desktop\e2_studio_workspace\EEMBC_final\RX65N_Cloud_Kit\src/tensorflow/lite/kernels/internal/reference\conv.h ****                     filter_shape, out_channel, filter_y, filter_x, in_channel)];
 5741                             		.loc 11 168 79
 5742 0691 FD 38 D2                		movu.B	[r13+], r2
 5743                             	.LVL434:
 5744                             	.LBE2040:
 164:C:\Users\a5116938\Desktop\e2_studio_workspace\EEMBC_final\RX65N_Cloud_Kit\src/tensorflow/lite/kernels/internal/reference\conv.h ****                 int32_t input_val = input_data[Offset(input_shape, batch, in_y,
 5745                             		.loc 11 164 15
 5746 0694 62 1A                   		add	#1, r10
 5747                             	.LVL435:
 5748                             	.LBB2041:
 5749                             		.loc 11 170 50
 5750 0696 ED 0B 4F                		mov.L	316[r0], r11
 5751 0699 43 B2                   		sub	r11, r2
 5752                             	.LVL436:
 5753 069b 4F 27                   		mul	r2, r7
 169:C:\Users\a5116938\Desktop\e2_studio_workspace\EEMBC_final\RX65N_Cloud_Kit\src/tensorflow/lite/kernels/internal/reference\conv.h ****                     (filter_val + filter_offset) * (input_val + input_offset);
 5754                             		.loc 11 169 21
 5755 069d 06 89 07 43             		add	268[r0], r7
 5756 06a1 E7 07 43                		mov.L	r7, 268[r0]
 5757                             	.LVL437:
 5758                             	.LBE2041:
 164:C:\Users\a5116938\Desktop\e2_studio_workspace\EEMBC_final\RX65N_Cloud_Kit\src/tensorflow/lite/kernels/internal/reference\conv.h ****                 int32_t input_val = input_data[Offset(input_shape, batch, in_y,
 5759                             		.loc 11 164 51
 5760 06a4 ED 02 44                		mov.L	272[r0], r2
 5761 06a7 47 2A                   		cmp	r2, r10
 5762 06a9 29 D4                   		blt	.L273
 5763 06ab ED 0B 75                		mov.L	468[r0], r11
 5764                             	.LBE2048:
 5765                             	.LBE2055:
 152:C:\Users\a5116938\Desktop\e2_studio_workspace\EEMBC_final\RX65N_Cloud_Kit\src/tensorflow/lite/kernels/internal/reference\conv.h ****               const int in_x = in_x_origin + dilation_width_factor * filter_x;
 5766                             		.loc 11 152 13
 5767 06ae 62 14                   		add	#1, r4
 5768                             	.LVL438:
 5769 06b0 06 89 05 4A             		add	296[r0], r5
 5770 06b4 06 89 06 4D             		add	308[r0], r6
 5771 06b8 4B FB                   		add	r15, r11
 152:C:\Users\a5116938\Desktop\e2_studio_workspace\EEMBC_final\RX65N_Cloud_Kit\src/tensorflow/lite/kernels/internal/reference\conv.h ****               const int in_x = in_x_origin + dilation_width_factor * filter_x;
 5772                             		.loc 11 152 45
 5773 06ba ED 07 45                		mov.L	276[r0], r7
 5774                             	.LVL439:
 5775 06bd 47 74                   		cmp	r7, r4
 5776 06bf 3B 3E FF                		bne	.L274
 5777                             	.LVL440:
 5778                             		.balign 8,3,1
 5779                             	.L269:
 5780                             	.LBE2062:
 5781                             	.LBE2069:
 150:C:\Users\a5116938\Desktop\e2_studio_workspace\EEMBC_final\RX65N_Cloud_Kit\src/tensorflow/lite/kernels/internal/reference\conv.h ****             const int in_y = in_y_origin + dilation_height_factor * filter_y;
 5782                             		.loc 11 150 11
 5783 06c2 62 1C                   		add	#1, r12
 5784                             	.LVL441:
 5785 06c4 06 89 03 58             		add	352[r0], r3
 5786 06c8 06 89 01 5A             		add	360[r0], r1
 5787 06cc 06 89 09 59             		add	356[r0], r9
 150:C:\Users\a5116938\Desktop\e2_studio_workspace\EEMBC_final\RX65N_Cloud_Kit\src/tensorflow/lite/kernels/internal/reference\conv.h ****             const int in_y = in_y_origin + dilation_height_factor * filter_y;
 5788                             		.loc 11 150 43
 5789 06d0 ED 08 56                		mov.L	344[r0], r8
 5790 06d3 47 8C                   		cmp	r8, r12
 5791 06d5 3B FF FE                		bne	.L275
 5792                             	.LVL442:
 5793                             		.balign 8,3,2
 5794                             	.L268:
 5795                             	.LBE2076:
 171:C:\Users\a5116938\Desktop\e2_studio_workspace\EEMBC_final\RX65N_Cloud_Kit\src/tensorflow/lite/kernels/internal/reference\conv.h ****               }
 172:C:\Users\a5116938\Desktop\e2_studio_workspace\EEMBC_final\RX65N_Cloud_Kit\src/tensorflow/lite/kernels/internal/reference\conv.h ****             }
 173:C:\Users\a5116938\Desktop\e2_studio_workspace\EEMBC_final\RX65N_Cloud_Kit\src/tensorflow/lite/kernels/internal/reference\conv.h ****           }
 174:C:\Users\a5116938\Desktop\e2_studio_workspace\EEMBC_final\RX65N_Cloud_Kit\src/tensorflow/lite/kernels/internal/reference\conv.h ****           if (bias_data) {
 5796                             		.loc 11 174 11 is_stmt 1
 5797 06d8 ED 0A 5F                		mov.L	380[r0], r10
 5798 06db 61 0A                   		cmp	#0, r10
 5799 06dd 20 13                   		beq	.L276
 175:C:\Users\a5116938\Desktop\e2_studio_workspace\EEMBC_final\RX65N_Cloud_Kit\src/tensorflow/lite/kernels/internal/reference\conv.h ****             acc += bias_data[out_channel];
 5800                             		.loc 11 175 13
 5801                             		.loc 11 175 17 is_stmt 0
 5802 06df ED 07 46                		mov.L	280[r0], r7
 5803 06e2 6C 27                   		shll	#2, r7
 5804 06e4 4B A7                   		add	r10, r7
 5805 06e6 ED 0B 43                		mov.L	268[r0], r11
 5806 06e9 06 88 7B                		add	[r7].L, r11
 5807 06ec E7 0B 43                		mov.L	r11, 268[r0]
 5808                             	.LVL443:
 5809 06ef 03                      		.balign 8,3,2
 5810                             	.L276:
 176:C:\Users\a5116938\Desktop\e2_studio_workspace\EEMBC_final\RX65N_Cloud_Kit\src/tensorflow/lite/kernels/internal/reference\conv.h ****           }
 177:C:\Users\a5116938\Desktop\e2_studio_workspace\EEMBC_final\RX65N_Cloud_Kit\src/tensorflow/lite/kernels/internal/reference\conv.h ****           acc = MultiplyByQuantizedMultiplier(acc, output_multiplier,
 5811                             		.loc 11 177 11 is_stmt 1
 5812                             	.LBB2077:
 5813                             	.LBB1990:
 159:C:\Users\a5116938\Desktop\e2_studio_workspace\EEMBC_final\RX65N_Cloud_Kit\src/tensorflow/lite/kernels/internal\common.h ****   using gemmlowp::SaturatingRoundingDoublingHighMul;
 5814                             		.loc 8 159 3
 160:C:\Users\a5116938\Desktop\e2_studio_workspace\EEMBC_final\RX65N_Cloud_Kit\src/tensorflow/lite/kernels/internal\common.h ****   int left_shift = shift > 0 ? shift : 0;
 5815                             		.loc 8 160 3
 161:C:\Users\a5116938\Desktop\e2_studio_workspace\EEMBC_final\RX65N_Cloud_Kit\src/tensorflow/lite/kernels/internal\common.h ****   int right_shift = shift > 0 ? 0 : -shift;
 5816                             		.loc 8 161 3
 162:C:\Users\a5116938\Desktop\e2_studio_workspace\EEMBC_final\RX65N_Cloud_Kit\src/tensorflow/lite/kernels/internal\common.h ****   return RoundingDivideByPOT(SaturatingRoundingDoublingHighMul(
 5817                             		.loc 8 162 3
 5818                             		.loc 8 163 3
 5819                             		.loc 8 163 29 is_stmt 0
 5820 06f0 ED 07 43                		mov.L	268[r0], r7
 5821 06f3 ED 01 6C                		mov.L	432[r0], r1
 5822 06f6 FD 62 17                		shll	r1, r7
 5823                             	.LVL444:
 5824                             	.LBB1982:
 5825                             	.LBB1979:
 342:C:\Users\a5116938\Desktop\e2_studio_workspace\EEMBC_final\RX65N_Cloud_Kit\src\third_party\gemmlowp/fixedpoint\fixedpoint.h ****   std::int64_t a_64(a);
 5826                             		.loc 7 342 3 is_stmt 1
 5827 06f9 ED 02 5E                		mov.L	376[r0], r2
 5828 06fc FC 1B 72                		emul	r7, r2
 5829 06ff EF 2A                   		mov.L	r2, r10
 5830 0701 EF 3B                   		mov.L	r3, r11
 342:C:\Users\a5116938\Desktop\e2_studio_workspace\EEMBC_final\RX65N_Cloud_Kit\src\third_party\gemmlowp/fixedpoint\fixedpoint.h ****   std::int64_t a_64(a);
 5831                             		.loc 7 342 26 is_stmt 0
 5832 0703 ED 03 5E                		mov.L	376[r0], r3
 5833 0706 47 73                   		cmp	r7, r3
 5834 0708 3A D3 02                		beq	.L377
 5835                             	.LVL445:
 343:C:\Users\a5116938\Desktop\e2_studio_workspace\EEMBC_final\RX65N_Cloud_Kit\src\third_party\gemmlowp/fixedpoint\fixedpoint.h ****   std::int64_t b_64(b);
 5836                             		.loc 7 343 3 is_stmt 1
 344:C:\Users\a5116938\Desktop\e2_studio_workspace\EEMBC_final\RX65N_Cloud_Kit\src\third_party\gemmlowp/fixedpoint\fixedpoint.h ****   std::int64_t ab_64 = a_64 * b_64;
 5837                             		.loc 7 344 3
 345:C:\Users\a5116938\Desktop\e2_studio_workspace\EEMBC_final\RX65N_Cloud_Kit\src\third_party\gemmlowp/fixedpoint\fixedpoint.h ****   std::int32_t nudge = ab_64 >= 0 ? (1 << 30) : (1 - (1 << 30));
 5838                             		.loc 7 345 3
 346:C:\Users\a5116938\Desktop\e2_studio_workspace\EEMBC_final\RX65N_Cloud_Kit\src\third_party\gemmlowp/fixedpoint\fixedpoint.h ****   std::int32_t ab_x2_high32 =
 5839                             		.loc 7 346 3
 346:C:\Users\a5116938\Desktop\e2_studio_workspace\EEMBC_final\RX65N_Cloud_Kit\src\third_party\gemmlowp/fixedpoint\fixedpoint.h ****   std::int32_t ab_x2_high32 =
 5840                             		.loc 7 346 35 is_stmt 0
 5841 070b 61 0B                   		cmp	#0, r11
 5842 070d 28 05 38 21 03          		blt	.L378
 5843                             	.LVL446:
 347:C:\Users\a5116938\Desktop\e2_studio_workspace\EEMBC_final\RX65N_Cloud_Kit\src\third_party\gemmlowp/fixedpoint\fixedpoint.h ****       static_cast<std::int32_t>((ab_64 + nudge) / (1ll << 31));
 5844                             		.loc 7 347 3 is_stmt 1
 349:C:\Users\a5116938\Desktop\e2_studio_workspace\EEMBC_final\RX65N_Cloud_Kit\src\third_party\gemmlowp/fixedpoint\fixedpoint.h **** }
 5845                             		.loc 7 349 3
 348:C:\Users\a5116938\Desktop\e2_studio_workspace\EEMBC_final\RX65N_Cloud_Kit\src\third_party\gemmlowp/fixedpoint\fixedpoint.h ****   return overflow ? std::numeric_limits<std::int32_t>::max() : ab_x2_high32;
 5846                             		.loc 7 348 40 is_stmt 0
 5847 0712 EF B1                   		mov.L	r11, r1
 5848 0714 70 A7 00 00 00 40       		add	#0x40000000, r10, r7
 5849 071a FD 74 21 00             		adc	#0, r1
 5850 071e EF 1A                   		mov.L	r1, r10
 5851                             	.LVL447:
 348:C:\Users\a5116938\Desktop\e2_studio_workspace\EEMBC_final\RX65N_Cloud_Kit\src\third_party\gemmlowp/fixedpoint\fixedpoint.h ****   return overflow ? std::numeric_limits<std::int32_t>::max() : ab_x2_high32;
 5852                             		.loc 7 348 49
 5853 0720 6C 1A                   		shll	#1, r10
 5854 0722 69 F7                   		shlr	#31, r7
 5855 0724 57 7A                   		or	r7, r10
 5856                             	.LVL448:
 5857 0726 EF 00                   		.balign 8,3,2
 5858                             	.L280:
 5859                             	.LBE1979:
 5860                             	.LBE1982:
 5861                             	.LBB1983:
 5862                             	.LBB1972:
 370:C:\Users\a5116938\Desktop\e2_studio_workspace\EEMBC_final\RX65N_Cloud_Kit\src\third_party\gemmlowp/fixedpoint\fixedpoint.h ****   const IntegerType mask = Dup<IntegerType>((1ll << exponent) - 1);
 5863                             		.loc 7 370 3
 5864 0728 ED 04 61                		mov.L	388[r0], r4
 5865 072b 75 54 1F                		cmp	#31, r4
 5866 072e 2B 05 38 67 03          		bgt	.L379
 5867                             	.LVL449:
 5868                             	.LBE1972:
 5869                             	.LBE1983:
 5870                             	.LBE1990:
 5871                             	.LBE2077:
 178:C:\Users\a5116938\Desktop\e2_studio_workspace\EEMBC_final\RX65N_Cloud_Kit\src/tensorflow/lite/kernels/internal/reference\conv.h ****                                               output_shift);
 179:C:\Users\a5116938\Desktop\e2_studio_workspace\EEMBC_final\RX65N_Cloud_Kit\src/tensorflow/lite/kernels/internal/reference\conv.h ****           acc += output_offset;
 5872                             		.loc 11 179 11 is_stmt 1
 5873                             	.LBB2078:
 5874                             	.LBB1991:
 5875                             	.LBB1984:
 5876                             	.LBB1973:
 5877                             	.LBB1959:
 5878                             	.LBB1960:
  71:C:\Users\a5116938\Desktop\e2_studio_workspace\EEMBC_final\RX65N_Cloud_Kit\src\third_party\gemmlowp/fixedpoint\fixedpoint.h **** }
 5879                             		.loc 7 71 14 is_stmt 0
 5880 0733 FD 9F A5                		shlr	#31, r10, r5
 5881                             	.LBE1960:
 5882                             	.LBE1959:
 5883                             	.LBB1961:
 5884                             	.LBB1962:
 5885 0736 ED 07 64                		mov.L	400[r0], r7
 5886 0739 53 A7                   		and	r10, r7
 5887                             	.LVL450:
 5888                             	.LBE1962:
 5889                             	.LBE1961:
 5890                             	.LBB1963:
 5891                             	.LBB1964:
  95:C:\Users\a5116938\Desktop\e2_studio_workspace\EEMBC_final\RX65N_Cloud_Kit\src\third_party\gemmlowp/fixedpoint\fixedpoint.h **** }
 5892                             		.loc 7 95 14
 5893 073b 06 89 05 6B             		add	428[r0], r5
 5894                             	.LBE1964:
 5895                             	.LBE1963:
 5896                             	.LBB1965:
 5897                             	.LBB1966:
 142:C:\Users\a5116938\Desktop\e2_studio_workspace\EEMBC_final\RX65N_Cloud_Kit\src\third_party\gemmlowp/fixedpoint\fixedpoint.h **** }
 5898                             		.loc 7 142 15
 5899 073f ED 06 63                		mov.L	396[r0], r6
 5900 0742 FD 61 6A                		shar	r6, r10
 5901                             	.LVL451:
 5902                             	.LBE1966:
 5903                             	.LBE1965:
 5904                             	.LBB1967:
 5905                             	.LBB1968:
  71:C:\Users\a5116938\Desktop\e2_studio_workspace\EEMBC_final\RX65N_Cloud_Kit\src\third_party\gemmlowp/fixedpoint\fixedpoint.h **** }
 5906                             		.loc 7 71 14
 5907 0745 47 57                   		cmp	r5, r7
 5908 0747 FC DB 7A                		scgt.L	r7
 5909                             	.LVL452:
 5910                             	.LBE1968:
 5911                             	.LBE1967:
 5912                             	.LBB1969:
 5913                             	.LBB1970:
  95:C:\Users\a5116938\Desktop\e2_studio_workspace\EEMBC_final\RX65N_Cloud_Kit\src\third_party\gemmlowp/fixedpoint\fixedpoint.h **** }
 5914                             		.loc 7 95 14
 5915 074a 4B 7A                   		add	r7, r10
 5916                             	.LBE1970:
 5917                             	.LBE1969:
 5918                             	.LBE1973:
 5919                             	.LBE1984:
 5920                             	.LBE1991:
 5921                             	.LBE2078:
 5922                             		.loc 11 179 15
 5923 074c 06 89 0A 69             		add	420[r0], r10
 5924                             	.LVL453:
 180:C:\Users\a5116938\Desktop\e2_studio_workspace\EEMBC_final\RX65N_Cloud_Kit\src/tensorflow/lite/kernels/internal/reference\conv.h ****           acc = std::max(acc, output_activation_min);
 5925                             		.loc 11 180 11 is_stmt 1
 5926                             	.LBB2079:
 5927                             	.LBB2080:
 5928                             		.loc 9 224 7 is_stmt 0
 5929 0750 ED 07 62                		mov.L	392[r0], r7
 5930 0753 47 A7                   		cmp	r10, r7
 5931 0755 2B 05 38 AC 02          		bgt	.L316
 5932                             	.LVL454:
 5933                             	.LBE2080:
 5934                             	.LBE2079:
 181:C:\Users\a5116938\Desktop\e2_studio_workspace\EEMBC_final\RX65N_Cloud_Kit\src/tensorflow/lite/kernels/internal/reference\conv.h ****           acc = std::min(acc, output_activation_max);
 5935                             		.loc 11 181 11 is_stmt 1
 5936 075a ED 08 68                		mov.L	416[r0], r8
 5937 075d FC 17 8A                		min	r8, r10
 5938                             	.LVL455:
 5939                             		.balign 8,3,1
 5940                             	.L284:
 182:C:\Users\a5116938\Desktop\e2_studio_workspace\EEMBC_final\RX65N_Cloud_Kit\src/tensorflow/lite/kernels/internal/reference\conv.h ****           output_data[Offset(output_shape, batch, out_y, out_x, out_channel)] =
 5941                             		.loc 11 182 11
 5942                             	.LBB2081:
 5943                             	.LBB2082:
 386:C:\Users\a5116938\Desktop\e2_studio_workspace\EEMBC_final\RX65N_Cloud_Kit\src/tensorflow/lite/kernels/internal\types.h ****   const int* dims_data = reinterpret_cast<const int*>(shape.DimsDataUpTo5D());
 5944                             		.loc 3 386 3
 5945                             	.LBE2082:
 5946                             	.LBE2081:
 5947                             	.LBE2100:
 5948                             	.LBE2115:
 5949                             	.LBE2129:
 5950                             	.LBE2143:
 5951                             	.LBE2157:
 5952                             	.LBE2170:
 5953                             	.LBE2182:
 5954                             	.LBE2202:
 5955                             	.LBE2220:
 5956                             	.LBE2251:
 5957                             	.LBE2270:
 194:C:\Users\a5116938\Desktop\e2_studio_workspace\EEMBC_final\RX65N_Cloud_Kit\src/tensorflow/lite/kernels/internal\types.h ****   inline int32_t Dims(int i) const {
 5958                             		.loc 3 194 44
 5959                             	.LBB2271:
 5960                             	.LBB2252:
 5961                             	.LBB2221:
 5962                             	.LBB2203:
 5963                             	.LBB2183:
 5964                             	.LBB2171:
 5965                             	.LBB2158:
 5966                             	.LBB2144:
 5967                             	.LBB2130:
 5968                             	.LBB2116:
 5969                             	.LBB2101:
 5970                             	.LBB2086:
 5971                             	.LBB2083:
 386:C:\Users\a5116938\Desktop\e2_studio_workspace\EEMBC_final\RX65N_Cloud_Kit\src/tensorflow/lite/kernels/internal\types.h ****   const int* dims_data = reinterpret_cast<const int*>(shape.DimsDataUpTo5D());
 5972                             		.loc 3 386 3 is_stmt 0
 5973 0760 AE 0F                   		mov.L	100[r0], r7
 5974 0762 61 47                   		cmp	#4, r7
 5975 0764 3B 84 F9                		bne	.L208
 5976                             	.LVL456:
 388:C:\Users\a5116938\Desktop\e2_studio_workspace\EEMBC_final\RX65N_Cloud_Kit\src/tensorflow/lite/kernels/internal\types.h ****   TFLITE_DCHECK(i1 >= 0 && i1 < dims_data[1]);
 5977                             		.loc 3 388 3
 5978 0767 AE 87                   		mov.L	104[r0], r7
 5979 0769 ED 0B 49                		mov.L	292[r0], r11
 5980 076c 47 B7                   		cmp	r11, r7
 5981 076e 2A 05 38 78 F9          		ble	.L208
 389:C:\Users\a5116938\Desktop\e2_studio_workspace\EEMBC_final\RX65N_Cloud_Kit\src/tensorflow/lite/kernels/internal\types.h ****   TFLITE_DCHECK(i2 >= 0 && i2 < dims_data[2]);
 5982                             		.loc 3 389 3 is_stmt 1
 5983 0773 AE 8F                   		mov.L	108[r0], r7
 5984 0775 ED 01 60                		mov.L	384[r0], r1
 5985 0778 47 17                   		cmp	r1, r7
 5986 077a 2A 05 38 6C F9          		ble	.L208
 390:C:\Users\a5116938\Desktop\e2_studio_workspace\EEMBC_final\RX65N_Cloud_Kit\src/tensorflow/lite/kernels/internal\types.h ****   TFLITE_DCHECK(i3 >= 0 && i3 < dims_data[3]);
 5987                             		.loc 3 390 3
 5988 077f AF 04                   		mov.L	112[r0], r4
 5989 0781 ED 02 5D                		mov.L	372[r0], r2
 5990 0784 47 24                   		cmp	r2, r4
 5991 0786 2A 05 38 60 F9          		ble	.L208
 391:C:\Users\a5116938\Desktop\e2_studio_workspace\EEMBC_final\RX65N_Cloud_Kit\src/tensorflow/lite/kernels/internal\types.h ****   return ((i0 * dims_data[1] + i1) * dims_data[2] + i2) * dims_data[3] + i3;
 5992                             		.loc 3 391 3
 5993 078b AF 0D                   		mov.L	116[r0], r5
 5994 078d ED 03 46                		mov.L	280[r0], r3
 5995 0790 47 35                   		cmp	r3, r5
 5996 0792 2A 05 38 54 F9          		ble	.L208
 5997 0797 EF 36                   		mov.L	r3, r6
 392:C:\Users\a5116938\Desktop\e2_studio_workspace\EEMBC_final\RX65N_Cloud_Kit\src/tensorflow/lite/kernels/internal\types.h **** }
 5998                             		.loc 3 392 3
 5999                             	.LVL457:
 392:C:\Users\a5116938\Desktop\e2_studio_workspace\EEMBC_final\RX65N_Cloud_Kit\src/tensorflow/lite/kernels/internal\types.h **** }
 6000                             		.loc 3 392 15 is_stmt 0
 6001 0799 4F B7                   		mul	r11, r7
 6002                             	.LBE2083:
 6003                             	.LBE2086:
 6004                             		.loc 11 182 79
 6005 079b ED 03 6A                		mov.L	424[r0], r3
 6006 079e 06 89 03 46             		add	280[r0], r3
 6007                             	.LBB2087:
 6008                             	.LBB2084:
 392:C:\Users\a5116938\Desktop\e2_studio_workspace\EEMBC_final\RX65N_Cloud_Kit\src/tensorflow/lite/kernels/internal\types.h **** }
 6009                             		.loc 3 392 30
 6010 07a2 4B 17                   		add	r1, r7
 6011                             	.LBE2084:
 6012                             	.LBE2087:
 6013                             	.LBE2101:
 148:C:\Users\a5116938\Desktop\e2_studio_workspace\EEMBC_final\RX65N_Cloud_Kit\src/tensorflow/lite/kernels/internal/reference\conv.h ****           int32_t acc = 0;
 6014                             		.loc 11 148 9
 6015 07a4 62 16                   		add	#1, r6
 6016 07a6 E7 06 46                		mov.L	r6, 280[r0]
 6017                             	.LVL458:
 6018                             	.LBB2102:
 6019                             	.LBB2088:
 6020                             	.LBB2085:
 392:C:\Users\a5116938\Desktop\e2_studio_workspace\EEMBC_final\RX65N_Cloud_Kit\src/tensorflow/lite/kernels/internal\types.h **** }
 6021                             		.loc 3 392 36
 6022 07a9 4F 47                   		mul	r4, r7
 392:C:\Users\a5116938\Desktop\e2_studio_workspace\EEMBC_final\RX65N_Cloud_Kit\src/tensorflow/lite/kernels/internal\types.h **** }
 6023                             		.loc 3 392 51
 6024 07ab 4B 27                   		add	r2, r7
 392:C:\Users\a5116938\Desktop\e2_studio_workspace\EEMBC_final\RX65N_Cloud_Kit\src/tensorflow/lite/kernels/internal\types.h **** }
 6025                             		.loc 3 392 57
 6026 07ad 4F 57                   		mul	r5, r7
 6027                             	.LBE2085:
 6028                             	.LBE2088:
 6029                             		.loc 11 182 79
 6030 07af FE 07 3A                		mov.B	r10, [r7,r3]
 6031                             	.LVL459:
 6032                             	.LBE2102:
 148:C:\Users\a5116938\Desktop\e2_studio_workspace\EEMBC_final\RX65N_Cloud_Kit\src/tensorflow/lite/kernels/internal/reference\conv.h ****           int32_t acc = 0;
 6033                             		.loc 11 148 47
 6034 07b2 ED 07 5C                		mov.L	368[r0], r7
 6035 07b5 47 76                   		cmp	r7, r6
 6036 07b7 3B 9D FD                		bne	.L265
 6037                             	.LVL460:
 6038                             		.balign 8,3,2
 6039                             	.L285:
 6040                             	.LBE2116:
 6041                             	.LBE2130:
 146:C:\Users\a5116938\Desktop\e2_studio_workspace\EEMBC_final\RX65N_Cloud_Kit\src/tensorflow/lite/kernels/internal/reference\conv.h ****         const int in_x_origin = (out_x * stride_width) - pad_width;
 6042                             		.loc 11 146 7
 6043 07ba ED 05 5D                		mov.L	372[r0], r5
 6044 07bd 62 15                   		add	#1, r5
 6045 07bf E7 05 5D                		mov.L	r5, 372[r0]
 6046                             	.LVL461:
 6047 07c2 ED 06 57                		mov.L	348[r0], r6
 6048 07c5 06 89 06 73             		add	460[r0], r6
 6049 07c9 E7 06 57                		mov.L	r6, 348[r0]
 146:C:\Users\a5116938\Desktop\e2_studio_workspace\EEMBC_final\RX65N_Cloud_Kit\src/tensorflow/lite/kernels/internal/reference\conv.h ****         const int in_x_origin = (out_x * stride_width) - pad_width;
 6050                             		.loc 11 146 33
 6051 07cc ED 07 6D                		mov.L	436[r0], r7
 6052 07cf 47 75                   		cmp	r7, r5
 6053 07d1 3B 6F FD                		bne	.L267
 6054                             	.LVL462:
 6055                             		.balign 8,3,2
 6056                             	.L266:
 6057                             	.LBE2144:
 6058                             	.LBE2158:
 144:C:\Users\a5116938\Desktop\e2_studio_workspace\EEMBC_final\RX65N_Cloud_Kit\src/tensorflow/lite/kernels/internal/reference\conv.h ****       const int in_y_origin = (out_y * stride_height) - pad_height;
 6059                             		.loc 11 144 5
 6060 07d4 ED 08 60                		mov.L	384[r0], r8
 6061 07d7 62 18                   		add	#1, r8
 6062 07d9 E7 08 60                		mov.L	r8, 384[r0]
 6063                             	.LVL463:
 6064 07dc ED 0A 5B                		mov.L	364[r0], r10
 6065 07df 06 89 0A 74             		add	464[r0], r10
 6066 07e3 E7 0A 5B                		mov.L	r10, 364[r0]
 144:C:\Users\a5116938\Desktop\e2_studio_workspace\EEMBC_final\RX65N_Cloud_Kit\src/tensorflow/lite/kernels/internal/reference\conv.h ****       const int in_y_origin = (out_y * stride_height) - pad_height;
 6067                             		.loc 11 144 31
 6068 07e6 ED 0B 6F                		mov.L	444[r0], r11
 6069 07e9 47 B8                   		cmp	r11, r8
 6070 07eb 3B 35 FD                		bne	.L264
 6071                             	.LVL464:
 6072 07ee EF 00                   		.balign 8,3,2
 6073                             	.L263:
 6074                             	.LBE2171:
 143:C:\Users\a5116938\Desktop\e2_studio_workspace\EEMBC_final\RX65N_Cloud_Kit\src/tensorflow/lite/kernels/internal/reference\conv.h ****     for (int out_y = 0; out_y < output_height; ++out_y) {
 6075                             		.loc 11 143 3
 6076 07f0 ED 02 49                		mov.L	292[r0], r2
 6077 07f3 62 12                   		add	#1, r2
 6078 07f5 E7 02 49                		mov.L	r2, 292[r0]
 6079                             	.LVL465:
 143:C:\Users\a5116938\Desktop\e2_studio_workspace\EEMBC_final\RX65N_Cloud_Kit\src/tensorflow/lite/kernels/internal/reference\conv.h ****     for (int out_y = 0; out_y < output_height; ++out_y) {
 6080                             		.loc 11 143 29
 6081 07f8 ED 03 67                		mov.L	412[r0], r3
 6082 07fb 47 32                   		cmp	r3, r2
 6083 07fd 3B 00 FD                		bne	.L261
 6084                             	.LVL466:
 6085                             		.balign 8,3,1
 6086                             	.L260:
 6087                             	.LBE2183:
 6088                             	.LBE2203:
 6089                             	.LBE2221:
 6090                             	.LBB2222:
 6091                             	.LBB2223:
 185:C:\Users\a5116938\Desktop\e2_studio_workspace\EEMBC_final\RX65N_Cloud_Kit\src/tensorflow/lite/kernels/internal\types.h **** #ifdef TF_LITE_STATIC_MEMORY
 6092                             		.loc 3 185 5 is_stmt 1
 6093 0800 AF 8F                   		mov.L	124[r0], r7
 6094 0802 61 57                   		cmp	#5, r7
 6095 0804 2B 0C                   		ble	.L256
 189:C:\Users\a5116938\Desktop\e2_studio_workspace\EEMBC_final\RX65N_Cloud_Kit\src/tensorflow/lite/kernels/internal\types.h **** #endif  // TF_LITE_STATIC_MEMORY
 6096                             		.loc 3 189 7
 189:C:\Users\a5116938\Desktop\e2_studio_workspace\EEMBC_final\RX65N_Cloud_Kit\src/tensorflow/lite/kernels/internal\types.h **** #endif  // TF_LITE_STATIC_MEMORY
 6097                             		.loc 3 189 16 is_stmt 0
 6098 0806 ED 01 20                		mov.L	128[r0], r1
 189:C:\Users\a5116938\Desktop\e2_studio_workspace\EEMBC_final\RX65N_Cloud_Kit\src/tensorflow/lite/kernels/internal\types.h **** #endif  // TF_LITE_STATIC_MEMORY
 6099                             		.loc 3 189 29
 6100 0809 61 01                   		cmp	#0, r1
 6101 080b 15                      		beq	.L256
 189:C:\Users\a5116938\Desktop\e2_studio_workspace\EEMBC_final\RX65N_Cloud_Kit\src/tensorflow/lite/kernels/internal\types.h **** #endif  // TF_LITE_STATIC_MEMORY
 6102                             		.loc 3 189 16
 6103 080c 05 00 00 00             		bsr	__ZdaPv
 6104                             	.LVL467:
 6105                             		.balign 8,3,1
 6106                             	.L256:
 6107                             	.LBE2223:
 6108                             	.LBE2222:
 6109                             	.LBB2224:
 6110                             	.LBB2225:
 185:C:\Users\a5116938\Desktop\e2_studio_workspace\EEMBC_final\RX65N_Cloud_Kit\src/tensorflow/lite/kernels/internal\types.h **** #ifdef TF_LITE_STATIC_MEMORY
 6111                             		.loc 3 185 5 is_stmt 1
 6112 0810 AE 0F                   		mov.L	100[r0], r7
 6113 0812 61 57                   		cmp	#5, r7
 6114 0814 2B 0C                   		ble	.L286
 189:C:\Users\a5116938\Desktop\e2_studio_workspace\EEMBC_final\RX65N_Cloud_Kit\src/tensorflow/lite/kernels/internal\types.h **** #endif  // TF_LITE_STATIC_MEMORY
 6115                             		.loc 3 189 7
 189:C:\Users\a5116938\Desktop\e2_studio_workspace\EEMBC_final\RX65N_Cloud_Kit\src/tensorflow/lite/kernels/internal\types.h **** #endif  // TF_LITE_STATIC_MEMORY
 6116                             		.loc 3 189 16 is_stmt 0
 6117 0816 AE 81                   		mov.L	104[r0], r1
 189:C:\Users\a5116938\Desktop\e2_studio_workspace\EEMBC_final\RX65N_Cloud_Kit\src/tensorflow/lite/kernels/internal\types.h **** #endif  // TF_LITE_STATIC_MEMORY
 6118                             		.loc 3 189 29
 6119 0818 61 01                   		cmp	#0, r1
 6120 081a 16                      		beq	.L286
 189:C:\Users\a5116938\Desktop\e2_studio_workspace\EEMBC_final\RX65N_Cloud_Kit\src/tensorflow/lite/kernels/internal\types.h **** #endif  // TF_LITE_STATIC_MEMORY
 6121                             		.loc 3 189 16
 6122 081b 05 00 00 00             		bsr	__ZdaPv
 6123                             	.LVL468:
 6124 081f 03                      		.balign 8,3,1
 6125                             	.L286:
 6126                             	.LBE2225:
 6127                             	.LBE2224:
 6128                             	.LBB2226:
 6129                             	.LBB2227:
 185:C:\Users\a5116938\Desktop\e2_studio_workspace\EEMBC_final\RX65N_Cloud_Kit\src/tensorflow/lite/kernels/internal\types.h **** #ifdef TF_LITE_STATIC_MEMORY
 6130                             		.loc 3 185 5 is_stmt 1
 6131 0820 AC 8F                   		mov.L	76[r0], r7
 6132 0822 61 57                   		cmp	#5, r7
 6133 0824 2B 0C                   		ble	.L287
 189:C:\Users\a5116938\Desktop\e2_studio_workspace\EEMBC_final\RX65N_Cloud_Kit\src/tensorflow/lite/kernels/internal\types.h **** #endif  // TF_LITE_STATIC_MEMORY
 6134                             		.loc 3 189 7
 189:C:\Users\a5116938\Desktop\e2_studio_workspace\EEMBC_final\RX65N_Cloud_Kit\src/tensorflow/lite/kernels/internal\types.h **** #endif  // TF_LITE_STATIC_MEMORY
 6135                             		.loc 3 189 16 is_stmt 0
 6136 0826 AD 01                   		mov.L	80[r0], r1
 189:C:\Users\a5116938\Desktop\e2_studio_workspace\EEMBC_final\RX65N_Cloud_Kit\src/tensorflow/lite/kernels/internal\types.h **** #endif  // TF_LITE_STATIC_MEMORY
 6137                             		.loc 3 189 29
 6138 0828 61 01                   		cmp	#0, r1
 6139 082a 16                      		beq	.L287
 189:C:\Users\a5116938\Desktop\e2_studio_workspace\EEMBC_final\RX65N_Cloud_Kit\src/tensorflow/lite/kernels/internal\types.h **** #endif  // TF_LITE_STATIC_MEMORY
 6140                             		.loc 3 189 16
 6141 082b 05 00 00 00             		bsr	__ZdaPv
 6142                             	.LVL469:
 6143 082f 03                      		.balign 8,3,1
 6144                             	.L287:
 6145                             	.LBE2227:
 6146                             	.LBE2226:
 6147                             	.LBB2228:
 6148                             	.LBB2229:
 185:C:\Users\a5116938\Desktop\e2_studio_workspace\EEMBC_final\RX65N_Cloud_Kit\src/tensorflow/lite/kernels/internal\types.h **** #ifdef TF_LITE_STATIC_MEMORY
 6149                             		.loc 3 185 5 is_stmt 1
 6150 0830 AB 0F                   		mov.L	52[r0], r7
 6151 0832 61 57                   		cmp	#5, r7
 6152 0834 2B 0C                   		ble	.L288
 189:C:\Users\a5116938\Desktop\e2_studio_workspace\EEMBC_final\RX65N_Cloud_Kit\src/tensorflow/lite/kernels/internal\types.h **** #endif  // TF_LITE_STATIC_MEMORY
 6153                             		.loc 3 189 7
 189:C:\Users\a5116938\Desktop\e2_studio_workspace\EEMBC_final\RX65N_Cloud_Kit\src/tensorflow/lite/kernels/internal\types.h **** #endif  // TF_LITE_STATIC_MEMORY
 6154                             		.loc 3 189 16 is_stmt 0
 6155 0836 AB 81                   		mov.L	56[r0], r1
 189:C:\Users\a5116938\Desktop\e2_studio_workspace\EEMBC_final\RX65N_Cloud_Kit\src/tensorflow/lite/kernels/internal\types.h **** #endif  // TF_LITE_STATIC_MEMORY
 6156                             		.loc 3 189 29
 6157 0838 61 01                   		cmp	#0, r1
 6158 083a 16                      		beq	.L288
 189:C:\Users\a5116938\Desktop\e2_studio_workspace\EEMBC_final\RX65N_Cloud_Kit\src/tensorflow/lite/kernels/internal\types.h **** #endif  // TF_LITE_STATIC_MEMORY
 6159                             		.loc 3 189 16
 6160 083b 05 00 00 00             		bsr	__ZdaPv
 6161                             	.LVL470:
 6162 083f 03                      		.balign 8,3,1
 6163                             	.L288:
 6164                             	.LBE2229:
 6165                             	.LBE2228:
 6166                             	.LBB2230:
 6167                             	.LBB2231:
 185:C:\Users\a5116938\Desktop\e2_studio_workspace\EEMBC_final\RX65N_Cloud_Kit\src/tensorflow/lite/kernels/internal\types.h **** #ifdef TF_LITE_STATIC_MEMORY
 6168                             		.loc 3 185 5 is_stmt 1
 6169 0840 A9 8F                   		mov.L	28[r0], r7
 6170 0842 61 57                   		cmp	#5, r7
 6171 0844 2B 0C                   		ble	.L289
 189:C:\Users\a5116938\Desktop\e2_studio_workspace\EEMBC_final\RX65N_Cloud_Kit\src/tensorflow/lite/kernels/internal\types.h **** #endif  // TF_LITE_STATIC_MEMORY
 6172                             		.loc 3 189 7
 189:C:\Users\a5116938\Desktop\e2_studio_workspace\EEMBC_final\RX65N_Cloud_Kit\src/tensorflow/lite/kernels/internal\types.h **** #endif  // TF_LITE_STATIC_MEMORY
 6173                             		.loc 3 189 16 is_stmt 0
 6174 0846 AA 01                   		mov.L	32[r0], r1
 189:C:\Users\a5116938\Desktop\e2_studio_workspace\EEMBC_final\RX65N_Cloud_Kit\src/tensorflow/lite/kernels/internal\types.h **** #endif  // TF_LITE_STATIC_MEMORY
 6175                             		.loc 3 189 29
 6176 0848 61 01                   		cmp	#0, r1
 6177 084a 16                      		beq	.L289
 189:C:\Users\a5116938\Desktop\e2_studio_workspace\EEMBC_final\RX65N_Cloud_Kit\src/tensorflow/lite/kernels/internal\types.h **** #endif  // TF_LITE_STATIC_MEMORY
 6178                             		.loc 3 189 16
 6179 084b 05 00 00 00             		bsr	__ZdaPv
 6180                             	.LVL471:
 6181 084f 03                      		.balign 8,3,1
 6182                             	.L289:
 6183                             	.LBE2231:
 6184                             	.LBE2230:
 243:../src/tensorflow/lite/micro/kernels/conv.cc **** }
 6185                             		.loc 1 243 3 is_stmt 1
 6186                             	.LBE2252:
 6187                             	.LBE2271:
 436:../src/tensorflow/lite/micro/kernels/conv.cc ****                            nullptr, nullptr, output);
 6188                             		.loc 1 436 27 is_stmt 0
 6189 0850 66 01                   		mov.L	#0, r1
 6190                             		.loc 1 445 1
 6191 0852 3F 6D 7E                		rtsd	#504, r6-r13
 6192                             	.LVL472:
 6193                             	.L376:
 6194                             	.LBB2272:
 6195                             	.LBB2253:
 6196                             	.LBB2233:
 6197                             	.LBB2204:
 6198                             	.LBB2184:
 6199                             	.LBB1932:
 6200                             	.LBB1931:
 6201                             	.LBB1927:
 214:C:\Users\a5116938\Desktop\e2_studio_workspace\EEMBC_final\RX65N_Cloud_Kit\src/tensorflow/lite/kernels/internal\types.h ****   }
 6202                             		.loc 3 214 34
 6203 0855 AD 02                   		mov.L	80[r0], r2
 6204                             	.LVL473:
 6205                             	.LBE1927:
 6206                             	.LBE1931:
 274:C:\Users\a5116938\Desktop\e2_studio_workspace\EEMBC_final\RX65N_Cloud_Kit\src/tensorflow/lite/kernels/internal\types.h ****       buffer_size *= dims_data[i];
 6207                             		.loc 3 274 5 is_stmt 1
 6208 0857 38 3E FC                		bra	.L251
 6209                             	.LVL474:
 6210                             	.L257:
 6211                             	.LBE1932:
 6212                             	.LBE2184:
 6213                             	.LBB2185:
 6214                             	.LBB2172:
 6215                             	.LBB2159:
 6216                             	.LBB2145:
 6217                             	.LBB2131:
 6218                             	.LBB2117:
 6219                             	.LBB2103:
 6220                             	.LBB2089:
 6221                             	.LBB1992:
 6222                             	.LBB1985:
 6223                             	.LBB1974:
 6224                             		.loc 7 371 50 is_stmt 0
 6225 085a 66 1A                   		mov.L	#1, r10
 6226 085c FD 62 6A                		shll	r6, r10
 6227 085f 38 85 FC                		bra	.L258
 6228                             	.LVL475:
 6229                             	.L304:
 6230                             	.LBE1974:
 6231                             	.LBE1985:
 6232                             	.LBE1992:
 6233                             	.LBE2089:
 6234                             	.LBE2103:
 6235                             	.LBE2117:
 6236                             	.LBE2131:
 6237                             	.LBE2145:
 6238                             	.LBE2159:
 6239                             	.LBE2172:
 6240                             	.LBE2185:
 6241                             	.LBE2204:
 6242                             	.LBE2233:
 6243                             	.LBE2253:
 6244                             	.LBE2272:
 6245                             	.LBB2273:
 6246                             	.LBB1872:
 6247                             	.LBB1842:
 6248                             	.LBB1624:
 257:C:\Users\a5116938\Desktop\e2_studio_workspace\EEMBC_final\RX65N_Cloud_Kit\src/tensorflow/lite/kernels\kernel_util.h ****   } else if (activation == kTfLiteActRelu6) {
 6249                             		.loc 10 257 5
 6250 0862 F9 02 5B FF FF 7F 7F    		mov.L	#0x7f7fffff, 364[r0]
 256:C:\Users\a5116938\Desktop\e2_studio_workspace\EEMBC_final\RX65N_Cloud_Kit\src/tensorflow/lite/kernels\kernel_util.h ****     *activation_max = std::numeric_limits<T>::max();
 6251                             		.loc 10 256 5
 6252 0869 F9 06 5A 00             		mov.L	#0x0, 360[r0]
 6253 086d 38 B3 F8                		bra	.L215
 6254                             	.LVL476:
 6255                             	.L235:
 6256                             	.LBE1624:
 6257                             	.LBE1842:
 6258                             	.LBB1843:
 6259                             	.LBB1825:
 6260                             	.LBB1808:
 6261                             	.LBB1799:
 6262                             	.LBB1790:
 6263                             	.LBB1781:
 6264                             	.LBB1772:
 6265                             	.LBB1763:
 6266                             	.LBB1753:
 6267                             	.LBB1737:
  67:C:\Users\a5116938\Desktop\e2_studio_workspace\EEMBC_final\RX65N_Cloud_Kit\src/tensorflow/lite/kernels/internal/reference\conv.h ****             const int in_y = in_y_origin + dilation_height_factor * filter_y;
 6268                             		.loc 11 67 11
 6269 0870 62 16                   		add	#1, r6
 6270                             	.LVL477:
 6271 0872 06 89 01 4D             		add	308[r0], r1
 6272 0876 06 89 0C 50             		add	320[r0], r12
 6273 087a 06 89 09 4F             		add	316[r0], r9
  67:C:\Users\a5116938\Desktop\e2_studio_workspace\EEMBC_final\RX65N_Cloud_Kit\src/tensorflow/lite/kernels/internal/reference\conv.h ****             const int in_y = in_y_origin + dilation_height_factor * filter_y;
 6274                             		.loc 11 67 43
 6275 087e 47 D6                   		cmp	r13, r6
 6276 0880 3B A6 FA                		bne	.L239
 6277                             	.LVL478:
 6278                             		.balign 8,3,2
 6279                             	.L234:
 6280                             	.LBE1737:
  90:C:\Users\a5116938\Desktop\e2_studio_workspace\EEMBC_final\RX65N_Cloud_Kit\src/tensorflow/lite/kernels/internal/reference\conv.h ****           if (bias_data) {
 6281                             		.loc 11 90 11 is_stmt 1
  91:C:\Users\a5116938\Desktop\e2_studio_workspace\EEMBC_final\RX65N_Cloud_Kit\src/tensorflow/lite/kernels/internal/reference\conv.h ****             bias_value = bias_data[out_channel];
 6282                             		.loc 11 91 11
 6283 0883 ED 0A 54                		mov.L	336[r0], r10
 6284 0886 61 0A                   		cmp	#0, r10
 6285 0888 3A A3 01                		beq	.L309
  92:C:\Users\a5116938\Desktop\e2_studio_workspace\EEMBC_final\RX65N_Cloud_Kit\src/tensorflow/lite/kernels/internal/reference\conv.h ****           }
 6286                             		.loc 11 92 13
  92:C:\Users\a5116938\Desktop\e2_studio_workspace\EEMBC_final\RX65N_Cloud_Kit\src/tensorflow/lite/kernels/internal/reference\conv.h ****           }
 6287                             		.loc 11 92 24 is_stmt 0
 6288 088b ED 01 43                		mov.L	268[r0], r1
 6289 088e FE 61 A7                		mov.L	[r1,r10], r7
 6290                             	.LVL479:
 6291                             		.balign 8,3,2
 6292                             	.L240:
  94:C:\Users\a5116938\Desktop\e2_studio_workspace\EEMBC_final\RX65N_Cloud_Kit\src/tensorflow/lite/kernels/internal/reference\conv.h ****               ActivationFunctionWithMinMax(total + bias_value,
 6293                             		.loc 11 94 11 is_stmt 1
  95:C:\Users\a5116938\Desktop\e2_studio_workspace\EEMBC_final\RX65N_Cloud_Kit\src/tensorflow/lite/kernels/internal/reference\conv.h ****                                            output_activation_min,
 6294                             		.loc 11 95 43 is_stmt 0
 6295 0891 FC 8B 7B                		fadd	r7, r11
 6296                             	.LVL480:
 6297                             	.LBB1738:
 6298                             	.LBB1739:
 386:C:\Users\a5116938\Desktop\e2_studio_workspace\EEMBC_final\RX65N_Cloud_Kit\src/tensorflow/lite/kernels/internal\types.h ****   const int* dims_data = reinterpret_cast<const int*>(shape.DimsDataUpTo5D());
 6299                             		.loc 3 386 3 is_stmt 1
 6300                             	.LBE1739:
 6301                             	.LBE1738:
 6302                             	.LBE1753:
 6303                             	.LBE1763:
 6304                             	.LBE1772:
 6305                             	.LBE1781:
 6306                             	.LBE1790:
 6307                             	.LBE1799:
 6308                             	.LBE1808:
 6309                             	.LBE1825:
 6310                             	.LBE1843:
 6311                             	.LBE1872:
 6312                             	.LBE2273:
 194:C:\Users\a5116938\Desktop\e2_studio_workspace\EEMBC_final\RX65N_Cloud_Kit\src/tensorflow/lite/kernels/internal\types.h ****   inline int32_t Dims(int i) const {
 6313                             		.loc 3 194 44
 6314                             	.LBB2274:
 6315                             	.LBB1873:
 6316                             	.LBB1844:
 6317                             	.LBB1826:
 6318                             	.LBB1809:
 6319                             	.LBB1800:
 6320                             	.LBB1791:
 6321                             	.LBB1782:
 6322                             	.LBB1773:
 6323                             	.LBB1764:
 6324                             	.LBB1754:
 6325                             	.LBB1742:
 6326                             	.LBB1740:
 387:C:\Users\a5116938\Desktop\e2_studio_workspace\EEMBC_final\RX65N_Cloud_Kit\src/tensorflow/lite/kernels/internal\types.h ****   TFLITE_DCHECK(i0 >= 0 && i0 < dims_data[0]);
 6327                             		.loc 3 387 3
 6328                             	.LBE1740:
 6329                             	.LBE1742:
 6330                             	.LBE1754:
 6331                             	.LBE1764:
 6332                             	.LBE1773:
 6333                             	.LBE1782:
 6334                             	.LBE1791:
 6335                             	.LBE1800:
 6336                             	.LBE1809:
 6337                             	.LBE1826:
 6338                             	.LBE1844:
 6339                             	.LBE1873:
 6340                             	.LBE2274:
 217:C:\Users\a5116938\Desktop\e2_studio_workspace\EEMBC_final\RX65N_Cloud_Kit\src/tensorflow/lite/kernels/internal\types.h **** 
 6341                             		.loc 3 217 50
 6342                             	.LBB2275:
 6343                             	.LBB1874:
 6344                             	.LBB1845:
 6345                             	.LBB1827:
 6346                             	.LBB1810:
 6347                             	.LBB1801:
 6348                             	.LBB1792:
 6349                             	.LBB1783:
 6350                             	.LBB1774:
 6351                             	.LBB1765:
 6352                             	.LBB1755:
 6353                             	.LBB1743:
 6354                             	.LBB1741:
 388:C:\Users\a5116938\Desktop\e2_studio_workspace\EEMBC_final\RX65N_Cloud_Kit\src/tensorflow/lite/kernels/internal\types.h ****   TFLITE_DCHECK(i1 >= 0 && i1 < dims_data[1]);
 6355                             		.loc 3 388 3
 6356 0894 ED 08 55                		mov.L	340[r0], r8
 6357 0897 ED 0A 4B                		mov.L	300[r0], r10
 6358 089a 47 A8                   		cmp	r10, r8
 6359 089c 2A 05 38 4A F8          		ble	.L208
 389:C:\Users\a5116938\Desktop\e2_studio_workspace\EEMBC_final\RX65N_Cloud_Kit\src/tensorflow/lite/kernels/internal\types.h ****   TFLITE_DCHECK(i2 >= 0 && i2 < dims_data[2]);
 6360                             		.loc 3 389 3
 6361 08a1 ED 02 56                		mov.L	344[r0], r2
 6362 08a4 ED 03 5D                		mov.L	372[r0], r3
 6363 08a7 47 32                   		cmp	r3, r2
 6364 08a9 2A 05 38 3D F8          		ble	.L208
 390:C:\Users\a5116938\Desktop\e2_studio_workspace\EEMBC_final\RX65N_Cloud_Kit\src/tensorflow/lite/kernels/internal\types.h ****   TFLITE_DCHECK(i3 >= 0 && i3 < dims_data[3]);
 6365                             		.loc 3 390 3
 6366 08ae ED 04 53                		mov.L	332[r0], r4
 6367 08b1 ED 05 58                		mov.L	352[r0], r5
 6368 08b4 47 54                   		cmp	r5, r4
 6369 08b6 2A 05 38 30 F8          		ble	.L208
 391:C:\Users\a5116938\Desktop\e2_studio_workspace\EEMBC_final\RX65N_Cloud_Kit\src/tensorflow/lite/kernels/internal\types.h ****   return ((i0 * dims_data[1] + i1) * dims_data[2] + i2) * dims_data[3] + i3;
 6370                             		.loc 3 391 3
 6371 08bb ED 06 52                		mov.L	328[r0], r6
 6372 08be ED 07 43                		mov.L	268[r0], r7
 6373 08c1 47 76                   		cmp	r7, r6
 6374 08c3 2A 05 38 23 F8          		ble	.L208
 392:C:\Users\a5116938\Desktop\e2_studio_workspace\EEMBC_final\RX65N_Cloud_Kit\src/tensorflow/lite/kernels/internal\types.h **** }
 6375                             		.loc 3 392 3
 6376                             	.LVL481:
 6377                             	.LBE1741:
 6378                             	.LBE1743:
 6379                             	.LBB1744:
 6380                             	.LBB1745:
 6381                             	.LBB1746:
 6382                             		.loc 9 224 7 is_stmt 0
 6383 08c8 ED 08 5A                		mov.L	360[r0], r8
 6384 08cb FC 87 8B                		fcmp	r8, r11
 6385 08ce 26 04                   		bpz	.L241
 225:c:\gcc for renesas rx 8.3.0.202004-gnurx-elf\rx-elf\rx-elf\rx-elf\include\c++\8.3.0.202004-gnurx\bits\stl_algobase.h **** 	return __b;
 6386                             		.loc 9 225 9
 6387 08d0 EF 8B                   		mov.L	r8, r11
 6388                             	.LVL482:
 6389                             		.balign 8,3,2
 6390                             	.L241:
 6391                             	.LBE1746:
 6392                             	.LBE1745:
 6393                             	.LBB1747:
 6394                             	.LBB1748:
 200:c:\gcc for renesas rx 8.3.0.202004-gnurx-elf\rx-elf\rx-elf\rx-elf\include\c++\8.3.0.202004-gnurx\bits\stl_algobase.h **** 	return __b;
 6395                             		.loc 9 200 7
 6396 08d2 ED 0A 5B                		mov.L	364[r0], r10
 6397 08d5 FC 87 BA                		fcmp	r11, r10
 6398 08d8 26 05 38 2E 01          		bn	.L242
 6399                             	.LVL483:
 6400 08dd ED 01 51                		mov.L	324[r0], r1
 6401 08e0 06 89 01 60             		add	384[r0], r1
 6402 08e4 E7 01 51                		mov.L	r1, 324[r0]
 6403                             	.LBE1748:
 6404                             	.LBE1747:
 6405                             	.LBE1744:
  94:C:\Users\a5116938\Desktop\e2_studio_workspace\EEMBC_final\RX65N_Cloud_Kit\src/tensorflow/lite/kernels/internal/reference\conv.h ****               ActivationFunctionWithMinMax(total + bias_value,
 6406                             		.loc 11 94 79
 6407 08e7 ED 02 43                		mov.L	268[r0], r2
 6408 08ea ED 03 5C                		mov.L	368[r0], r3
 6409 08ed FE 22 3B                		mov.L	r11, [r2,r3]
 6410                             	.LBE1755:
  65:C:\Users\a5116938\Desktop\e2_studio_workspace\EEMBC_final\RX65N_Cloud_Kit\src/tensorflow/lite/kernels/internal/reference\conv.h ****           float total = 0.f;
 6411                             		.loc 11 65 9
 6412 08f0 62 12                   		add	#1, r2
 6413 08f2 E7 02 43                		mov.L	r2, 268[r0]
 6414                             	.LVL484:
  65:C:\Users\a5116938\Desktop\e2_studio_workspace\EEMBC_final\RX65N_Cloud_Kit\src/tensorflow/lite/kernels/internal/reference\conv.h ****           float total = 0.f;
 6415                             		.loc 11 65 47
 6416 08f5 ED 04 46                		mov.L	280[r0], r4
 6417 08f8 47 24                   		cmp	r2, r4
 6418 08fa 3B 18 FA                		bne	.L233
 6419                             	.LVL485:
 6420                             		.balign 8,3,2
 6421                             	.L243:
 6422                             	.LBE1765:
 6423                             	.LBE1774:
  63:C:\Users\a5116938\Desktop\e2_studio_workspace\EEMBC_final\RX65N_Cloud_Kit\src/tensorflow/lite/kernels/internal/reference\conv.h ****         const int in_x_origin = (out_x * stride_width) - pad_width;
 6424                             		.loc 11 63 7
 6425 08fd ED 0B 58                		mov.L	352[r0], r11
 6426 0900 62 1B                   		add	#1, r11
 6427 0902 E7 0B 58                		mov.L	r11, 352[r0]
 6428                             	.LVL486:
 6429 0905 ED 01 5C                		mov.L	368[r0], r1
 6430 0908 06 89 01 69             		add	420[r0], r1
 6431 090c E7 01 5C                		mov.L	r1, 368[r0]
 6432 090f ED 02 57                		mov.L	348[r0], r2
 6433 0912 06 89 02 68             		add	416[r0], r2
 6434 0916 E7 02 57                		mov.L	r2, 348[r0]
 6435 0919 ED 03 4E                		mov.L	312[r0], r3
 6436 091c 06 89 03 62             		add	392[r0], r3
 6437 0920 E7 03 4E                		mov.L	r3, 312[r0]
  63:C:\Users\a5116938\Desktop\e2_studio_workspace\EEMBC_final\RX65N_Cloud_Kit\src/tensorflow/lite/kernels/internal/reference\conv.h ****         const int in_x_origin = (out_x * stride_width) - pad_width;
 6438                             		.loc 11 63 33
 6439 0923 ED 04 53                		mov.L	332[r0], r4
 6440 0926 47 4B                   		cmp	r4, r11
 6441 0928 3B D8 F9                		bne	.L232
 6442                             	.LVL487:
 6443                             		.balign 8,3,2
 6444                             	.L231:
 6445                             	.LBE1783:
 6446                             	.LBE1792:
  61:C:\Users\a5116938\Desktop\e2_studio_workspace\EEMBC_final\RX65N_Cloud_Kit\src/tensorflow/lite/kernels/internal/reference\conv.h ****       const int in_y_origin = (out_y * stride_height) - pad_height;
 6447                             		.loc 11 61 5
 6448 092b ED 03 5D                		mov.L	372[r0], r3
 6449 092e 62 13                   		add	#1, r3
 6450 0930 E7 03 5D                		mov.L	r3, 372[r0]
 6451                             	.LVL488:
 6452 0933 ED 04 61                		mov.L	388[r0], r4
 6453 0936 06 89 04 6A             		add	424[r0], r4
 6454 093a E7 04 61                		mov.L	r4, 388[r0]
 6455 093d ED 05 63                		mov.L	396[r0], r5
 6456 0940 06 89 05 6B             		add	428[r0], r5
 6457 0944 E7 05 63                		mov.L	r5, 396[r0]
 6458 0947 ED 06 59                		mov.L	356[r0], r6
 6459 094a 06 89 06 67             		add	412[r0], r6
 6460 094e E7 06 59                		mov.L	r6, 356[r0]
  61:C:\Users\a5116938\Desktop\e2_studio_workspace\EEMBC_final\RX65N_Cloud_Kit\src/tensorflow/lite/kernels/internal/reference\conv.h ****       const int in_y_origin = (out_y * stride_height) - pad_height;
 6461                             		.loc 11 61 31
 6462 0951 ED 07 56                		mov.L	344[r0], r7
 6463 0954 47 73                   		cmp	r7, r3
 6464 0956 3B 8B F9                		bne	.L229
 6465                             	.LVL489:
 6466                             		.balign 8,3,2
 6467                             	.L228:
 6468                             	.LBE1801:
  60:C:\Users\a5116938\Desktop\e2_studio_workspace\EEMBC_final\RX65N_Cloud_Kit\src/tensorflow/lite/kernels/internal/reference\conv.h ****     for (int out_y = 0; out_y < output_height; ++out_y) {
 6469                             		.loc 11 60 3
 6470 0959 ED 07 4B                		mov.L	300[r0], r7
 6471 095c 62 17                   		add	#1, r7
 6472 095e E7 07 4B                		mov.L	r7, 300[r0]
 6473                             	.LVL490:
 6474 0961 ED 08 65                		mov.L	404[r0], r8
 6475 0964 06 89 08 6C             		add	432[r0], r8
 6476 0968 E7 08 65                		mov.L	r8, 404[r0]
 6477 096b ED 0A 66                		mov.L	408[r0], r10
 6478 096e 06 89 0A 6D             		add	436[r0], r10
 6479 0972 E7 0A 66                		mov.L	r10, 408[r0]
  60:C:\Users\a5116938\Desktop\e2_studio_workspace\EEMBC_final\RX65N_Cloud_Kit\src/tensorflow/lite/kernels/internal/reference\conv.h ****     for (int out_y = 0; out_y < output_height; ++out_y) {
 6480                             		.loc 11 60 29
 6481 0975 ED 0B 55                		mov.L	340[r0], r11
 6482 0978 47 B7                   		cmp	r11, r7
 6483 097a 3B 49 F9                		bne	.L226
 6484                             	.LVL491:
 6485                             		.balign 8,3,2
 6486                             	.L225:
 6487                             	.LBE1810:
 6488                             	.LBE1827:
 6489                             	.LBE1845:
 6490                             	.LBB1846:
 6491                             	.LBB1847:
 185:C:\Users\a5116938\Desktop\e2_studio_workspace\EEMBC_final\RX65N_Cloud_Kit\src/tensorflow/lite/kernels/internal\types.h **** #ifdef TF_LITE_STATIC_MEMORY
 6492                             		.loc 3 185 5 is_stmt 1
 6493 097d ED 07 3D                		mov.L	244[r0], r7
 6494 0980 61 57                   		cmp	#5, r7
 6495 0982 2B 1E                   		ble	.L245
 189:C:\Users\a5116938\Desktop\e2_studio_workspace\EEMBC_final\RX65N_Cloud_Kit\src/tensorflow/lite/kernels/internal\types.h **** #endif  // TF_LITE_STATIC_MEMORY
 6496                             		.loc 3 189 7
 189:C:\Users\a5116938\Desktop\e2_studio_workspace\EEMBC_final\RX65N_Cloud_Kit\src/tensorflow/lite/kernels/internal\types.h **** #endif  // TF_LITE_STATIC_MEMORY
 6497                             		.loc 3 189 16 is_stmt 0
 6498 0984 ED 01 3E                		mov.L	248[r0], r1
 189:C:\Users\a5116938\Desktop\e2_studio_workspace\EEMBC_final\RX65N_Cloud_Kit\src/tensorflow/lite/kernels/internal\types.h **** #endif  // TF_LITE_STATIC_MEMORY
 6499                             		.loc 3 189 29
 6500 0987 61 01                   		cmp	#0, r1
 6501 0989 20 17                   		beq	.L245
 189:C:\Users\a5116938\Desktop\e2_studio_workspace\EEMBC_final\RX65N_Cloud_Kit\src/tensorflow/lite/kernels/internal\types.h **** #endif  // TF_LITE_STATIC_MEMORY
 6502                             		.loc 3 189 16
 6503 098b 05 00 00 00             		bsr	__ZdaPv
 6504                             	.LVL492:
 6505 098f ED 07 37                		mov.L	220[r0], r7
 6506                             	.LVL493:
 6507                             	.LBE1847:
 6508                             	.LBE1846:
 6509                             	.LBB1848:
 6510                             	.LBB1849:
 185:C:\Users\a5116938\Desktop\e2_studio_workspace\EEMBC_final\RX65N_Cloud_Kit\src/tensorflow/lite/kernels/internal\types.h **** #ifdef TF_LITE_STATIC_MEMORY
 6511                             		.loc 3 185 5 is_stmt 1
 6512 0992 61 57                   		cmp	#5, r7
 6513 0994 2B 0C                   		ble	.L245
 189:C:\Users\a5116938\Desktop\e2_studio_workspace\EEMBC_final\RX65N_Cloud_Kit\src/tensorflow/lite/kernels/internal\types.h **** #endif  // TF_LITE_STATIC_MEMORY
 6514                             		.loc 3 189 7
 189:C:\Users\a5116938\Desktop\e2_studio_workspace\EEMBC_final\RX65N_Cloud_Kit\src/tensorflow/lite/kernels/internal\types.h **** #endif  // TF_LITE_STATIC_MEMORY
 6515                             		.loc 3 189 16 is_stmt 0
 6516 0996 ED 01 38                		mov.L	224[r0], r1
 189:C:\Users\a5116938\Desktop\e2_studio_workspace\EEMBC_final\RX65N_Cloud_Kit\src/tensorflow/lite/kernels/internal\types.h **** #endif  // TF_LITE_STATIC_MEMORY
 6517                             		.loc 3 189 29
 6518 0999 61 01                   		cmp	#0, r1
 6519 099b 15                      		beq	.L245
 189:C:\Users\a5116938\Desktop\e2_studio_workspace\EEMBC_final\RX65N_Cloud_Kit\src/tensorflow/lite/kernels/internal\types.h **** #endif  // TF_LITE_STATIC_MEMORY
 6520                             		.loc 3 189 16
 6521 099c 05 00 00 00             		bsr	__ZdaPv
 6522                             	.LVL494:
 6523                             		.balign 8,3,2
 6524                             	.L245:
 6525                             	.LBE1849:
 6526                             	.LBE1848:
 6527                             	.LBB1850:
 6528                             	.LBB1851:
 185:C:\Users\a5116938\Desktop\e2_studio_workspace\EEMBC_final\RX65N_Cloud_Kit\src/tensorflow/lite/kernels/internal\types.h **** #ifdef TF_LITE_STATIC_MEMORY
 6529                             		.loc 3 185 5 is_stmt 1
 6530 09a0 ED 07 31                		mov.L	196[r0], r7
 6531 09a3 61 57                   		cmp	#5, r7
 6532 09a5 2B 0C                   		ble	.L246
 189:C:\Users\a5116938\Desktop\e2_studio_workspace\EEMBC_final\RX65N_Cloud_Kit\src/tensorflow/lite/kernels/internal\types.h **** #endif  // TF_LITE_STATIC_MEMORY
 6533                             		.loc 3 189 7
 189:C:\Users\a5116938\Desktop\e2_studio_workspace\EEMBC_final\RX65N_Cloud_Kit\src/tensorflow/lite/kernels/internal\types.h **** #endif  // TF_LITE_STATIC_MEMORY
 6534                             		.loc 3 189 16 is_stmt 0
 6535 09a7 ED 01 32                		mov.L	200[r0], r1
 189:C:\Users\a5116938\Desktop\e2_studio_workspace\EEMBC_final\RX65N_Cloud_Kit\src/tensorflow/lite/kernels/internal\types.h **** #endif  // TF_LITE_STATIC_MEMORY
 6536                             		.loc 3 189 29
 6537 09aa 61 01                   		cmp	#0, r1
 6538 09ac 15                      		beq	.L246
 189:C:\Users\a5116938\Desktop\e2_studio_workspace\EEMBC_final\RX65N_Cloud_Kit\src/tensorflow/lite/kernels/internal\types.h **** #endif  // TF_LITE_STATIC_MEMORY
 6539                             		.loc 3 189 16
 6540 09ad 05 00 00 00             		bsr	__ZdaPv
 6541                             	.LVL495:
 6542                             		.balign 8,3,2
 6543                             	.L246:
 6544                             	.LBE1851:
 6545                             	.LBE1850:
 6546                             	.LBB1852:
 6547                             	.LBB1853:
 185:C:\Users\a5116938\Desktop\e2_studio_workspace\EEMBC_final\RX65N_Cloud_Kit\src/tensorflow/lite/kernels/internal\types.h **** #ifdef TF_LITE_STATIC_MEMORY
 6548                             		.loc 3 185 5 is_stmt 1
 6549 09b1 ED 07 2B                		mov.L	172[r0], r7
 6550 09b4 61 57                   		cmp	#5, r7
 6551 09b6 2B 0C                   		ble	.L247
 189:C:\Users\a5116938\Desktop\e2_studio_workspace\EEMBC_final\RX65N_Cloud_Kit\src/tensorflow/lite/kernels/internal\types.h **** #endif  // TF_LITE_STATIC_MEMORY
 6552                             		.loc 3 189 7
 189:C:\Users\a5116938\Desktop\e2_studio_workspace\EEMBC_final\RX65N_Cloud_Kit\src/tensorflow/lite/kernels/internal\types.h **** #endif  // TF_LITE_STATIC_MEMORY
 6553                             		.loc 3 189 16 is_stmt 0
 6554 09b8 ED 01 2C                		mov.L	176[r0], r1
 189:C:\Users\a5116938\Desktop\e2_studio_workspace\EEMBC_final\RX65N_Cloud_Kit\src/tensorflow/lite/kernels/internal\types.h **** #endif  // TF_LITE_STATIC_MEMORY
 6555                             		.loc 3 189 29
 6556 09bb 61 01                   		cmp	#0, r1
 6557 09bd 15                      		beq	.L247
 189:C:\Users\a5116938\Desktop\e2_studio_workspace\EEMBC_final\RX65N_Cloud_Kit\src/tensorflow/lite/kernels/internal\types.h **** #endif  // TF_LITE_STATIC_MEMORY
 6558                             		.loc 3 189 16
 6559 09be 05 00 00 00             		bsr	__ZdaPv
 6560                             	.LVL496:
 6561                             		.balign 8,3,2
 6562                             	.L247:
 6563                             	.LBE1853:
 6564                             	.LBE1852:
 6565                             	.LBB1854:
 6566                             	.LBB1855:
 185:C:\Users\a5116938\Desktop\e2_studio_workspace\EEMBC_final\RX65N_Cloud_Kit\src/tensorflow/lite/kernels/internal\types.h **** #ifdef TF_LITE_STATIC_MEMORY
 6567                             		.loc 3 185 5 is_stmt 1
 6568 09c2 ED 07 25                		mov.L	148[r0], r7
 6569 09c5 61 57                   		cmp	#5, r7
 6570 09c7 2A 05 38 87 FE          		ble	.L289
 189:C:\Users\a5116938\Desktop\e2_studio_workspace\EEMBC_final\RX65N_Cloud_Kit\src/tensorflow/lite/kernels/internal\types.h **** #endif  // TF_LITE_STATIC_MEMORY
 6571                             		.loc 3 189 7
 189:C:\Users\a5116938\Desktop\e2_studio_workspace\EEMBC_final\RX65N_Cloud_Kit\src/tensorflow/lite/kernels/internal\types.h **** #endif  // TF_LITE_STATIC_MEMORY
 6572                             		.loc 3 189 16 is_stmt 0
 6573 09cc ED 01 26                		mov.L	152[r0], r1
 189:C:\Users\a5116938\Desktop\e2_studio_workspace\EEMBC_final\RX65N_Cloud_Kit\src/tensorflow/lite/kernels/internal\types.h **** #endif  // TF_LITE_STATIC_MEMORY
 6574                             		.loc 3 189 29
 6575 09cf 61 01                   		cmp	#0, r1
 6576 09d1 3A 7F FE                		beq	.L289
 6577                             	.LBE1855:
 6578                             	.LBE1854:
 6579                             	.LBE1874:
 6580                             	.LBE2275:
 6581                             	.LBB2276:
 6582                             	.LBB2254:
 6583                             	.LBB2234:
 6584                             	.LBB2232:
 189:C:\Users\a5116938\Desktop\e2_studio_workspace\EEMBC_final\RX65N_Cloud_Kit\src/tensorflow/lite/kernels/internal\types.h **** #endif  // TF_LITE_STATIC_MEMORY
 6585                             		.loc 3 189 16
 6586 09d4 05 00 00 00             		bsr	__ZdaPv
 6587                             	.LVL497:
 6588 09d8 38 78 FE                		bra	.L289
 6589                             	.LVL498:
 6590                             	.L377:
 6591                             	.LBE2232:
 6592                             	.LBE2234:
 6593                             	.LBB2235:
 6594                             	.LBB2205:
 6595                             	.LBB2186:
 6596                             	.LBB2173:
 6597                             	.LBB2160:
 6598                             	.LBB2146:
 6599                             	.LBB2132:
 6600                             	.LBB2118:
 6601                             	.LBB2104:
 6602                             	.LBB2090:
 6603                             	.LBB1993:
 6604                             	.LBB1986:
 6605                             	.LBB1980:
 343:C:\Users\a5116938\Desktop\e2_studio_workspace\EEMBC_final\RX65N_Cloud_Kit\src\third_party\gemmlowp/fixedpoint\fixedpoint.h ****   std::int64_t b_64(b);
 6606                             		.loc 7 343 3 is_stmt 1
 344:C:\Users\a5116938\Desktop\e2_studio_workspace\EEMBC_final\RX65N_Cloud_Kit\src\third_party\gemmlowp/fixedpoint\fixedpoint.h ****   std::int64_t ab_64 = a_64 * b_64;
 6607                             		.loc 7 344 3
 345:C:\Users\a5116938\Desktop\e2_studio_workspace\EEMBC_final\RX65N_Cloud_Kit\src\third_party\gemmlowp/fixedpoint\fixedpoint.h ****   std::int32_t nudge = ab_64 >= 0 ? (1 << 30) : (1 - (1 << 30));
 6608                             		.loc 7 345 3
 346:C:\Users\a5116938\Desktop\e2_studio_workspace\EEMBC_final\RX65N_Cloud_Kit\src\third_party\gemmlowp/fixedpoint\fixedpoint.h ****   std::int32_t ab_x2_high32 =
 6609                             		.loc 7 346 3
 346:C:\Users\a5116938\Desktop\e2_studio_workspace\EEMBC_final\RX65N_Cloud_Kit\src\third_party\gemmlowp/fixedpoint\fixedpoint.h ****   std::int32_t ab_x2_high32 =
 6610                             		.loc 7 346 35 is_stmt 0
 6611 09db 61 0B                   		cmp	#0, r11
 6612 09dd FB 52 01 00 00 C0       		mov.L	#-1073741823, r5
 6613 09e3 29 08                   		blt 1f
 6614 09e5 FB 52 00 00 00 40       		mov #0x40000000, r5
 6615                             	1:
 6616 09eb FB 76 FF                		mov.L	#-1, r7
 6617 09ee 29 04                   		blt 1f
 6618 09f0 66 07                   		mov #0, r7
 6619                             	1:
 347:C:\Users\a5116938\Desktop\e2_studio_workspace\EEMBC_final\RX65N_Cloud_Kit\src\third_party\gemmlowp/fixedpoint\fixedpoint.h ****       static_cast<std::int32_t>((ab_64 + nudge) / (1ll << 31));
 6620                             		.loc 7 347 3 is_stmt 1
 6621                             	.LVL499:
 349:C:\Users\a5116938\Desktop\e2_studio_workspace\EEMBC_final\RX65N_Cloud_Kit\src\third_party\gemmlowp/fixedpoint\fixedpoint.h **** }
 6622                             		.loc 7 349 3
 349:C:\Users\a5116938\Desktop\e2_studio_workspace\EEMBC_final\RX65N_Cloud_Kit\src\third_party\gemmlowp/fixedpoint\fixedpoint.h **** }
 6623                             		.loc 7 349 19 is_stmt 0
 6624 09f2 74 03 00 00 00 80       		cmp	#-2147483648, r3
 6625 09f8 21 41                   		bne	.L302
 6626 09fa FB A2 FF FF FF 7F       		mov.L	#0x7fffffff, r10
 6627                             	.LVL500:
 6628 0a00 38 28 FD                		bra	.L280
 6629                             	.LVL501:
 6630                             	.L316:
 6631 0a03 EF 7A                   		mov.L	r7, r10
 6632                             	.LVL502:
 6633 0a05 38 5B FD                		bra	.L284
 6634                             	.LVL503:
 6635                             	.L242:
 6636 0a08 ED 05 51                		mov.L	324[r0], r5
 6637 0a0b 06 89 05 60             		add	384[r0], r5
 6638 0a0f E7 05 51                		mov.L	r5, 324[r0]
 6639                             	.LBE1980:
 6640                             	.LBE1986:
 6641                             	.LBE1993:
 6642                             	.LBE2090:
 6643                             	.LBE2104:
 6644                             	.LBE2118:
 6645                             	.LBE2132:
 6646                             	.LBE2146:
 6647                             	.LBE2160:
 6648                             	.LBE2173:
 6649                             	.LBE2186:
 6650                             	.LBE2205:
 6651                             	.LBE2235:
 6652                             	.LBE2254:
 6653                             	.LBE2276:
 6654                             	.LBB2277:
 6655                             	.LBB1875:
 6656                             	.LBB1856:
 6657                             	.LBB1828:
 6658                             	.LBB1811:
 6659                             	.LBB1802:
 6660                             	.LBB1793:
 6661                             	.LBB1784:
 6662                             	.LBB1775:
 6663                             	.LBB1766:
 6664                             	.LBB1756:
  94:C:\Users\a5116938\Desktop\e2_studio_workspace\EEMBC_final\RX65N_Cloud_Kit\src/tensorflow/lite/kernels/internal/reference\conv.h ****               ActivationFunctionWithMinMax(total + bias_value,
 6665                             		.loc 11 94 79
 6666 0a12 ED 06 43                		mov.L	268[r0], r6
 6667 0a15 ED 07 5C                		mov.L	368[r0], r7
 6668 0a18 FE 26 7A                		mov.L	r10, [r6,r7]
 6669                             	.LBE1756:
  65:C:\Users\a5116938\Desktop\e2_studio_workspace\EEMBC_final\RX65N_Cloud_Kit\src/tensorflow/lite/kernels/internal/reference\conv.h ****           float total = 0.f;
 6670                             		.loc 11 65 9
 6671 0a1b 62 16                   		add	#1, r6
 6672 0a1d E7 06 43                		mov.L	r6, 268[r0]
 6673                             	.LVL504:
  65:C:\Users\a5116938\Desktop\e2_studio_workspace\EEMBC_final\RX65N_Cloud_Kit\src/tensorflow/lite/kernels/internal/reference\conv.h ****           float total = 0.f;
 6674                             		.loc 11 65 47
 6675 0a20 ED 0A 46                		mov.L	280[r0], r10
 6676 0a23 47 A6                   		cmp	r10, r6
 6677 0a25 3B ED F8                		bne	.L233
 6678 0a28 38 D5 FE                		bra	.L243
 6679                             	.LVL505:
 6680                             	.L309:
 6681                             	.LBB1757:
  90:C:\Users\a5116938\Desktop\e2_studio_workspace\EEMBC_final\RX65N_Cloud_Kit\src/tensorflow/lite/kernels/internal/reference\conv.h ****           if (bias_data) {
 6682                             		.loc 11 90 17
 6683 0a2b 66 07                   		mov.L	#0x0, r7
 6684 0a2d 38 64 FE                		bra	.L240
 6685                             	.LVL506:
 6686                             	.L378:
 6687                             	.LBE1757:
 6688                             	.LBE1766:
 6689                             	.LBE1775:
 6690                             	.LBE1784:
 6691                             	.LBE1793:
 6692                             	.LBE1802:
 6693                             	.LBE1811:
 6694                             	.LBE1828:
 6695                             	.LBE1856:
 6696                             	.LBE1875:
 6697                             	.LBE2277:
 6698                             	.LBB2278:
 6699                             	.LBB2255:
 6700                             	.LBB2236:
 6701                             	.LBB2206:
 6702                             	.LBB2187:
 6703                             	.LBB2174:
 6704                             	.LBB2161:
 6705                             	.LBB2147:
 6706                             	.LBB2133:
 6707                             	.LBB2119:
 6708                             	.LBB2105:
 6709                             	.LBB2091:
 6710                             	.LBB1994:
 6711                             	.LBB1987:
 6712                             	.LBB1981:
 346:C:\Users\a5116938\Desktop\e2_studio_workspace\EEMBC_final\RX65N_Cloud_Kit\src\third_party\gemmlowp/fixedpoint\fixedpoint.h ****   std::int32_t ab_x2_high32 =
 6713                             		.loc 7 346 35
 6714 0a30 FB 52 01 00 00 C0       		mov.L	#-1073741823, r5
 6715 0a36 FB 76 FF                		mov.L	#-1, r7
 6716                             	.LVL507:
 6717                             		.balign 8,3,2
 6718                             	.L302:
 348:C:\Users\a5116938\Desktop\e2_studio_workspace\EEMBC_final\RX65N_Cloud_Kit\src\third_party\gemmlowp/fixedpoint\fixedpoint.h ****   return overflow ? std::numeric_limits<std::int32_t>::max() : ab_x2_high32;
 6719                             		.loc 7 348 49
 6720 0a39 FF 24 A5                		add	r10, r5, r4
 6721 0a3c FC 0B B7                		adc	r11, r7
 6722 0a3f 26 0E                   		bpz	.L281
 6723 0a41 70 42 FF FF FF 7F       		add	#0x7fffffff, r4, r2
 6724 0a47 FD 74 27 00             		adc	#0, r7
 6725 0a4b EF 24                   		mov.L	r2, r4
 6726                             		.balign 8,3,2
 6727                             	.L281:
 6728 0a4d FD C1 7A                		shll	#1, r7, r10
 6729 0a50 69 F4                   		shlr	#31, r4
 6730 0a52 57 4A                   		or	r4, r10
 6731 0a54 38 D4 FC                		bra	.L280
 6732                             	.LVL508:
 6733                             	.L217:
 6734                             	.LBE1981:
 6735                             	.LBE1987:
 6736                             	.LBE1994:
 6737                             	.LBE2091:
 6738                             	.LBE2105:
 6739                             	.LBE2119:
 6740                             	.LBE2133:
 6741                             	.LBE2147:
 6742                             	.LBE2161:
 6743                             	.LBE2174:
 6744                             	.LBE2187:
 6745                             	.LBE2206:
 6746                             	.LBE2236:
 6747                             	.LBE2255:
 6748                             	.LBE2278:
 6749                             	.LBB2279:
 6750                             	.LBB1876:
 6751                             	.LBB1857:
 6752                             	.LBB1829:
 6753                             	.LBB1812:
 6754                             	.LBB1666:
 274:C:\Users\a5116938\Desktop\e2_studio_workspace\EEMBC_final\RX65N_Cloud_Kit\src/tensorflow/lite/kernels/internal\types.h ****       buffer_size *= dims_data[i];
 6755                             		.loc 3 274 5 is_stmt 1
 6756                             	.LBB1664:
 274:C:\Users\a5116938\Desktop\e2_studio_workspace\EEMBC_final\RX65N_Cloud_Kit\src/tensorflow/lite/kernels/internal\types.h ****       buffer_size *= dims_data[i];
 6757                             		.loc 3 274 23 is_stmt 0
 6758 0a57 61 04                   		cmp	#0, r4
 6759 0a59 2B 34                   		ble	.L307
 6760                             	.LBE1664:
 6761                             	.LBB1665:
 6762                             	.LBB1661:
 214:C:\Users\a5116938\Desktop\e2_studio_workspace\EEMBC_final\RX65N_Cloud_Kit\src/tensorflow/lite/kernels/internal\types.h ****   }
 6763                             		.loc 3 214 34
 6764 0a5b 72 03 C8 00             		add	#0xc8, r0, r3
 6765                             	.LVL509:
 6766 0a5f 38 81 F7                		bra	.L218
 6767                             	.LVL510:
 6768                             	.L313:
 6769                             	.LBE1661:
 6770                             	.LBE1665:
 6771                             	.LBE1666:
 6772                             	.LBE1812:
 6773                             	.LBE1829:
 6774                             	.LBE1857:
 6775                             	.LBE1876:
 6776                             	.LBE2279:
 6777                             	.LBB2280:
 6778                             	.LBB2256:
 6779                             	.LBB2237:
 6780                             	.LBB2207:
 6781                             	.LBB2188:
 6782                             	.LBB2175:
 6783                             	.LBB2162:
 6784                             	.LBB2148:
 6785                             	.LBB2134:
 6786                             	.LBB2120:
 6787                             	.LBB2106:
 149:C:\Users\a5116938\Desktop\e2_studio_workspace\EEMBC_final\RX65N_Cloud_Kit\src/tensorflow/lite/kernels/internal/reference\conv.h ****           for (int filter_y = 0; filter_y < filter_height; ++filter_y) {
 6788                             		.loc 11 149 19
 6789 0a62 F9 06 43 00             		mov.L	#0, 268[r0]
 6790 0a66 38 72 FC                		bra	.L268
 6791                             	.LVL511:
 6792                             	.L308:
 6793                             	.LBE2106:
 6794                             	.LBE2120:
 6795                             	.LBE2134:
 6796                             	.LBE2148:
 6797                             	.LBE2162:
 6798                             	.LBE2175:
 6799                             	.LBE2188:
 6800                             	.LBE2207:
 6801                             	.LBE2237:
 6802                             	.LBE2256:
 6803                             	.LBE2280:
 6804                             	.LBB2281:
 6805                             	.LBB1877:
 6806                             	.LBB1858:
 6807                             	.LBB1830:
 6808                             	.LBB1813:
 6809                             	.LBB1803:
 6810                             	.LBB1794:
 6811                             	.LBB1785:
 6812                             	.LBB1776:
 6813                             	.LBB1767:
 6814                             	.LBB1758:
  66:C:\Users\a5116938\Desktop\e2_studio_workspace\EEMBC_final\RX65N_Cloud_Kit\src/tensorflow/lite/kernels/internal/reference\conv.h ****           for (int filter_y = 0; filter_y < filter_height; ++filter_y) {
 6815                             		.loc 11 66 17
 6816 0a69 66 0B                   		mov.L	#0x0, r11
 6817 0a6b 38 18 FE                		bra	.L234
 6818                             	.LVL512:
 6819                             	.L305:
 6820                             	.LBE1758:
 6821                             	.LBE1767:
 6822                             	.LBE1776:
 6823                             	.LBE1785:
 6824                             	.LBE1794:
 6825                             	.LBE1803:
 6826                             	.LBE1813:
 6827                             	.LBE1830:
 6828                             	.LBE1858:
 6829                             	.LBB1859:
 6830                             	.LBB1625:
 6831                             	.LBB1623:
 6832                             	.LBB1622:
 260:C:\Users\a5116938\Desktop\e2_studio_workspace\EEMBC_final\RX65N_Cloud_Kit\src/tensorflow/lite/kernels\kernel_util.h ****   } else if (activation == kTfLiteActReluN1To1) {
 6833                             		.loc 10 260 5
 6834 0a6e F9 02 5B 00 00 C0 40    		mov.L	#0x40c00000, 364[r0]
 259:C:\Users\a5116938\Desktop\e2_studio_workspace\EEMBC_final\RX65N_Cloud_Kit\src/tensorflow/lite/kernels\kernel_util.h ****     *activation_max = 6;
 6835                             		.loc 10 259 5
 6836 0a75 F9 06 5A 00             		mov.L	#0x0, 360[r0]
 6837 0a79 38 A7 F6                		bra	.L215
 6838                             	.L306:
 263:C:\Users\a5116938\Desktop\e2_studio_workspace\EEMBC_final\RX65N_Cloud_Kit\src/tensorflow/lite/kernels\kernel_util.h ****   } else {
 6839                             		.loc 10 263 5
 6840 0a7c F9 02 5B 00 00 80 3F    		mov.L	#0x3f800000, 364[r0]
 262:C:\Users\a5116938\Desktop\e2_studio_workspace\EEMBC_final\RX65N_Cloud_Kit\src/tensorflow/lite/kernels\kernel_util.h ****     *activation_max = 1;
 6841                             		.loc 10 262 5
 6842 0a83 F9 02 5A 00 00 80 BF    		mov.L	#0xbf800000, 360[r0]
 6843 0a8a 38 96 F6                		bra	.L215
 6844                             	.LVL513:
 6845                             	.L307:
 6846                             	.LBE1622:
 6847                             	.LBE1623:
 6848                             	.LBE1625:
 6849                             	.LBE1859:
 6850                             	.LBB1860:
 6851                             	.LBB1831:
 6852                             	.LBB1814:
 6853                             	.LBB1667:
 272:C:\Users\a5116938\Desktop\e2_studio_workspace\EEMBC_final\RX65N_Cloud_Kit\src/tensorflow/lite/kernels/internal\types.h ****     const int* dims_data = reinterpret_cast<const int*>(DimsData());
 6854                             		.loc 3 272 9
 6855 0a8d 66 1A                   		mov.L	#1, r10
 6856                             	.LVL514:
 6857 0a8f 38 61 F7                		bra	.L219
 6858                             	.LVL515:
 6859                             	.L311:
 6860                             	.LBE1667:
 6861                             	.LBE1814:
 6862                             	.LBE1831:
 6863                             	.LBE1860:
 6864                             	.LBE1877:
 6865                             	.LBE2281:
 6866                             	.LBB2282:
 6867                             	.LBB2257:
 6868                             	.LBB2238:
 6869                             	.LBB2208:
 6870                             	.LBB2189:
 6871                             	.LBB1933:
 6872 0a92 66 15                   		mov.L	#1, r5
 6873 0a94 38 10 FA                		bra	.L252
 6874                             	.LVL516:
 6875                             	.L379:
 6876                             	.LBE1933:
 6877                             	.LBE2189:
 6878                             	.LBB2190:
 6879                             	.LBB2176:
 6880                             	.LBB2163:
 6881                             	.LBB2149:
 6882                             	.LBB2135:
 6883                             	.LBB2121:
 6884                             	.LBB2107:
 6885                             	.LBB2092:
 6886                             	.LBB1995:
 6887                             	.LBB1988:
 6888                             	.LBB1975:
 370:C:\Users\a5116938\Desktop\e2_studio_workspace\EEMBC_final\RX65N_Cloud_Kit\src\third_party\gemmlowp/fixedpoint\fixedpoint.h ****   const IntegerType mask = Dup<IntegerType>((1ll << exponent) - 1);
 6889                             		.loc 7 370 3
 6890 0a97 FB 42 00 00 00 00       		mov.L	#.LC7, r4
 6891 0a9d FB 32 00 00 00 00       		mov.L	#.LANCHOR0, r3
 6892                             	.LVL517:
 6893 0aa3 FB 2A 72 01             		mov.L	#0x172, r2
 6894 0aa7 FB 12 0F 00 00 00       		mov.L	#.LC8, r1
 6895 0aad 05 00 00 00             		bsr	___assert_func
 6896                             	.LVL518:
 6897                             	.LBE1975:
 6898                             	.LBE1988:
 6899                             	.LBE1995:
 6900                             	.LBE2092:
 6901                             	.LBE2107:
 6902                             	.LBE2121:
 6903                             	.LBE2135:
 6904                             	.LBE2149:
 6905                             	.LBE2163:
 6906                             	.LBE2176:
 6907                             	.LBE2190:
 6908                             	.LBE2208:
 6909                             	.LBE2238:
 6910                             	.LBE2257:
 6911                             	.LBE2282:
 6912                             	.LFE2263:
 6914 0ab1 FD 70 40 00 00 00 80    		.section	.text._ZN6tflite16Register_CONV_2DEv,"ax",@progbits
 6915                             		.global	__ZN6tflite16Register_CONV_2DEv
 6917                             	__ZN6tflite16Register_CONV_2DEv:
 6918                             	.LFB2264:
 446:../src/tensorflow/lite/micro/kernels/conv.cc **** 
 447:../src/tensorflow/lite/micro/kernels/conv.cc **** }  // namespace
 448:../src/tensorflow/lite/micro/kernels/conv.cc **** 
 449:../src/tensorflow/lite/micro/kernels/conv.cc **** TfLiteRegistration Register_CONV_2D() {
 6919                             		.loc 1 449 39 is_stmt 1
 450:../src/tensorflow/lite/micro/kernels/conv.cc ****   return {/*init=*/Init,
 6920                             		.loc 1 450 3
 451:../src/tensorflow/lite/micro/kernels/conv.cc ****           /*free=*/nullptr,
 452:../src/tensorflow/lite/micro/kernels/conv.cc ****           /*prepare=*/Prepare,
 453:../src/tensorflow/lite/micro/kernels/conv.cc ****           /*invoke=*/Eval,
 454:../src/tensorflow/lite/micro/kernels/conv.cc ****           /*profiling_string=*/nullptr,
 455:../src/tensorflow/lite/micro/kernels/conv.cc ****           /*builtin_code=*/0,
 456:../src/tensorflow/lite/micro/kernels/conv.cc ****           /*custom_name=*/nullptr,
 457:../src/tensorflow/lite/micro/kernels/conv.cc ****           /*version=*/0};
 6921                             		.loc 1 457 24 is_stmt 0
 6922 0000 FB 22 00 00 00 00       		mov.L	#.LANCHOR1, r2
 6923 0006 EF F1                   		mov.L	r15, r1
 6924 0008 75 43 20                		mov.L	#32, r3
 6925 000b 7F 8F                   		smovf
 458:../src/tensorflow/lite/micro/kernels/conv.cc **** }
 6926                             		.loc 1 458 1
 6927 000d EF F1                   		mov.L	r15, r1
 6928 000f 02                      		rts
 6929                             	.LFE2264:
 6931                             		.section C,"a",@progbits
 6932                             		.p2align 2
 6933                             		.balign 4
 6934                             		.set	.LANCHOR1,. + 0
 6935                             	.LC0:
 6936 0000 00 00 00 00             		.long	__ZN6tflite12_GLOBAL__N_14InitEP13TfLiteContextPKcm
 6937 0004 00 00 00 00             		.long	0
 6938 0008 00 00 00 00             		.long	__ZN6tflite12_GLOBAL__N_17PrepareEP13TfLiteContextP10TfLiteNode
 6939 000c 00 00 00 00             		.long	__ZN6tflite12_GLOBAL__N_14EvalEP13TfLiteContextP10TfLiteNode
 6940 0010 00 00 00 00             		.long	0
 6941 0014 00 00 00 00             		.long	0
 6942 0018 00 00 00 00             		.long	0
 6943 001c 00 00 00 00             		.long	0
 6944                             		.section	.rodata._ZN6tflite12_GLOBAL__N_123EvalQuantizedPerChannelEP13TfLiteContextP10TfLiteNodeP1
 6945                             	.LC7:
 6946 0000 65 78 70 6F 6E 65 6E 74 		.string	"exponent <= 31"
 6946      20 3C 3D 20 33 31 00 
 6947                             	.LC8:
 6948 000f 43 3A 5C 55 73 65 72 73 		.string	"C:\\Users\\a5116938\\Desktop\\e2_studio_workspace\\EEMBC_final\\RX65N_Cloud_Kit\\src\\thi
 6948      5C 61 35 31 31 36 39 33 
 6948      38 5C 44 65 73 6B 74 6F 
 6948      70 5C 65 32 5F 73 74 75 
 6948      64 69 6F 5F 77 6F 72 6B 
 6949                             		.section	.rodata._ZN6tflite12_GLOBAL__N_14EvalEP13TfLiteContextP10TfLiteNode.str1.1,"aMS",@progbit
 6950                             	.LC9:
 6951 0000 6F 75 74 70 75 74 2D 3E 		.string	"output->type"
 6951      74 79 70 65 00 
 6952                             	.LC10:
 6953 000d 69 6E 70 75 74 2D 3E 74 		.string	"input->type"
 6953      79 70 65 00 
 6954                             	.LC11:
 6955 0019 2E 2E 2F 73 72 63 2F 74 		.string	"../src/tensorflow/lite/micro/kernels/conv.cc Hybrid models are not supported on TFLite Mi
 6955      65 6E 73 6F 72 66 6C 6F 
 6955      77 2F 6C 69 74 65 2F 6D 
 6955      69 63 72 6F 2F 6B 65 72 
 6955      6E 65 6C 73 2F 63 6F 6E 
 6956                             	.LC12:
 6957 0077 54 79 70 65 20 25 73 20 		.string	"Type %s (%d) not supported."
 6957      28 25 64 29 20 6E 6F 74 
 6957      20 73 75 70 70 6F 72 74 
 6957      65 64 2E 00 
 6958                             		.section	.rodata._ZN6tflite12_GLOBAL__N_17PrepareEP13TfLiteContextP10TfLiteNode.str1.1,"aMS",@prog
 6959                             	.LC1:
 6960 0000 68 61 73 5F 62 69 61 73 		.string	"has_bias || node->inputs->size == 2"
 6960      20 7C 7C 20 6E 6F 64 65 
 6960      2D 3E 69 6E 70 75 74 73 
 6960      2D 3E 73 69 7A 65 20 3D 
 6960      3D 20 32 00 
 6961                             	.LC2:
 6962 0024 2E 2E 2F 73 72 63 2F 74 		.string	"../src/tensorflow/lite/micro/kernels/conv.cc"
 6962      65 6E 73 6F 72 66 6C 6F 
 6962      77 2F 6C 69 74 65 2F 6D 
 6962      69 63 72 6F 2F 6B 65 72 
 6962      6E 65 6C 73 2F 63 6F 6E 
 6963                             	.LC3:
 6964 0051 25 73 3A 25 64 20 25 73 		.string	"%s:%d %s was not true."
 6964      20 77 61 73 20 6E 6F 74 
 6964      20 74 72 75 65 2E 00 
 6965                             	.LC4:
 6966 0068 31 00                   		.string	"1"
 6967                             	.LC5:
 6968 006a 6E 6F 64 65 2D 3E 6F 75 		.string	"node->outputs->size"
 6968      74 70 75 74 73 2D 3E 73 
 6968      69 7A 65 00 
 6969                             	.LC6:
 6970 007e 25 73 3A 25 64 20 25 73 		.string	"%s:%d %s != %s (%d != %d)"
 6970      20 21 3D 20 25 73 20 28 
 6970      25 64 20 21 3D 20 25 64 
 6970      29 00 
 6971                             		.section	.rodata._ZZN8gemmlowp19RoundingDivideByPOTIliEET_S1_T0_E19__PRETTY_FUNCTION__,"a"
 6972                             		.set	.LANCHOR0,. + 0
 6975                             	__ZZN8gemmlowp19RoundingDivideByPOTIliEET_S1_T0_E19__PRETTY_FUNCTION__:
 6976 0000 49 6E 74 65 67 65 72 54 		.string	"IntegerType gemmlowp::RoundingDivideByPOT(IntegerType, ExponentType) [with IntegerType = 
 6976      79 70 65 20 67 65 6D 6D 
 6976      6C 6F 77 70 3A 3A 52 6F 
 6976      75 6E 64 69 6E 67 44 69 
 6976      76 69 64 65 42 79 50 4F 
 7107                             	.Letext0:
 7108                             		.file 12 "c:\\gcc for renesas rx 8.3.0.202004-gnurx-elf\\rx-elf\\rx-elf\\rx-elf\\include\\c++\\8.3
 7109                             		.file 13 "c:\\gcc for renesas rx 8.3.0.202004-gnurx-elf\\rx-elf\\rx-elf\\rx-elf\\include\\c++\\8.3
 7110                             		.file 14 "c:\\gcc for renesas rx 8.3.0.202004-gnurx-elf\\rx-elf\\rx-elf\\rx-elf\\include\\c++\\8.3
 7111                             		.file 15 "c:\\gcc for renesas rx 8.3.0.202004-gnurx-elf\\rx-elf\\rx-elf\\rx-elf\\include\\c++\\8.3
 7112                             		.file 16 "c:\\gcc for renesas rx 8.3.0.202004-gnurx-elf\\rx-elf\\rx-elf\\rx-elf\\include\\c++\\8.3
 7113                             		.file 17 "c:\\gcc for renesas rx 8.3.0.202004-gnurx-elf\\rx-elf\\rx-elf\\rx-elf\\include\\c++\\8.3
 7114                             		.file 18 "c:\\gcc for renesas rx 8.3.0.202004-gnurx-elf\\rx-elf\\rx-elf\\rx-elf\\include\\c++\\8.3
 7115                             		.file 19 "c:\\gcc for renesas rx 8.3.0.202004-gnurx-elf\\rx-elf\\rx-elf\\rx-elf\\include\\c++\\8.3
 7116                             		.file 20 "c:\\gcc for renesas rx 8.3.0.202004-gnurx-elf\\rx-elf\\rx-elf\\rx-elf\\include\\c++\\8.3
 7117                             		.file 21 "c:\\gcc for renesas rx 8.3.0.202004-gnurx-elf\\rx-elf\\rx-elf\\rx-elf\\include\\c++\\8.3
 7118                             		.file 22 "c:\\gcc for renesas rx 8.3.0.202004-gnurx-elf\\rx-elf\\rx-elf\\rx-elf\\include\\c++\\8.3
 7119                             		.file 23 "c:\\gcc for renesas rx 8.3.0.202004-gnurx-elf\\rx-elf\\rx-elf\\rx-elf\\include\\c++\\8.3
 7120                             		.file 24 "c:\\gcc for renesas rx 8.3.0.202004-gnurx-elf\\rx-elf\\rx-elf\\rx-elf\\include\\c++\\8.3
 7121                             		.file 25 "c:\\gcc for renesas rx 8.3.0.202004-gnurx-elf\\rx-elf\\rx-elf\\rx-elf\\include\\c++\\8.3
 7122                             		.file 26 "c:\\gcc for renesas rx 8.3.0.202004-gnurx-elf\\rx-elf\\rx-elf\\rx-elf\\include\\c++\\8.3
 7123                             		.file 27 "c:\\gcc for renesas rx 8.3.0.202004-gnurx-elf\\rx-elf\\rx-elf\\rx-elf\\include\\c++\\8.3
 7124                             		.file 28 "c:\\gcc for renesas rx 8.3.0.202004-gnurx-elf\\rx-elf\\rx-elf\\rx-elf\\include\\c++\\8.3
 7125                             		.file 29 "c:\\gcc for renesas rx 8.3.0.202004-gnurx-elf\\rx-elf\\rx-elf\\rx-elf\\include\\c++\\8.3
 7126                             		.file 30 "c:\\gcc for renesas rx 8.3.0.202004-gnurx-elf\\rx-elf\\rx-elf\\rx-elf\\include\\c++\\8.3
 7127                             		.file 31 "c:\\gcc for renesas rx 8.3.0.202004-gnurx-elf\\rx-elf\\rx-elf\\rx-elf\\include\\c++\\8.3
 7128                             		.file 32 "c:\\gcc for renesas rx 8.3.0.202004-gnurx-elf\\rx-elf\\rx-elf\\rx-elf\\include\\c++\\8.3
 7129                             		.file 33 "c:\\gcc for renesas rx 8.3.0.202004-gnurx-elf\\rx-elf\\rx-elf\\rx-elf\\include\\c++\\8.3
 7130                             		.file 34 "c:\\gcc for renesas rx 8.3.0.202004-gnurx-elf\\rx-elf\\rx-elf\\rx-elf\\include\\c++\\8.3
 7131                             		.file 35 "c:\\gcc for renesas rx 8.3.0.202004-gnurx-elf\\rx-elf\\rx-elf\\lib\\gcc\\rx-elf\\8.3.0.2
 7132                             		.file 36 "c:\\gcc for renesas rx 8.3.0.202004-gnurx-elf\\rx-elf\\rx-elf\\rx-elf\\include\\machine\
 7133                             		.file 37 "c:\\gcc for renesas rx 8.3.0.202004-gnurx-elf\\rx-elf\\rx-elf\\rx-elf\\include\\sys\\loc
 7134                             		.file 38 "c:\\gcc for renesas rx 8.3.0.202004-gnurx-elf\\rx-elf\\rx-elf\\rx-elf\\include\\sys\\_ty
 7135                             		.file 39 "c:\\gcc for renesas rx 8.3.0.202004-gnurx-elf\\rx-elf\\rx-elf\\rx-elf\\include\\sys\\ree
 7136                             		.file 40 "c:\\gcc for renesas rx 8.3.0.202004-gnurx-elf\\rx-elf\\rx-elf\\rx-elf\\include\\stdlib.h
 7137                             		.file 41 "c:\\gcc for renesas rx 8.3.0.202004-gnurx-elf\\rx-elf\\rx-elf\\rx-elf\\include\\sys\\_st
 7138                             		.file 42 "c:\\gcc for renesas rx 8.3.0.202004-gnurx-elf\\rx-elf\\rx-elf\\rx-elf\\include\\stdint.h
 7139                             		.file 43 "c:\\gcc for renesas rx 8.3.0.202004-gnurx-elf\\rx-elf\\rx-elf\\rx-elf\\include\\string.h
 7140                             		.file 44 "c:\\gcc for renesas rx 8.3.0.202004-gnurx-elf\\rx-elf\\rx-elf\\lib\\gcc\\rx-elf\\8.3.0.2
 7141                             		.file 45 "c:\\gcc for renesas rx 8.3.0.202004-gnurx-elf\\rx-elf\\rx-elf\\rx-elf\\include\\stdio.h"
 7142                             		.file 46 "c:\\gcc for renesas rx 8.3.0.202004-gnurx-elf\\rx-elf\\rx-elf\\rx-elf\\include\\wchar.h"
 7143                             		.file 47 "c:\\gcc for renesas rx 8.3.0.202004-gnurx-elf\\rx-elf\\rx-elf\\rx-elf\\include\\locale.h
 7144                             		.file 48 "c:\\gcc for renesas rx 8.3.0.202004-gnurx-elf\\rx-elf\\rx-elf\\rx-elf\\include\\ctype.h"
 7145                             		.file 49 "c:\\gcc for renesas rx 8.3.0.202004-gnurx-elf\\rx-elf\\rx-elf\\rx-elf\\include\\sys\\err
 7146                             		.file 50 "c:\\gcc for renesas rx 8.3.0.202004-gnurx-elf\\rx-elf\\rx-elf\\rx-elf\\include\\math.h"
 7147                             		.file 51 "C:\\Users\\a5116938\\Desktop\\e2_studio_workspace\\EEMBC_final\\RX65N_Cloud_Kit\\src\\CM
 7148                             		.file 52 "c:\\gcc for renesas rx 8.3.0.202004-gnurx-elf\\rx-elf\\rx-elf\\rx-elf\\include\\c++\\8.3
 7149                             		.file 53 "C:\\Users\\a5116938\\Desktop\\e2_studio_workspace\\EEMBC_final\\RX65N_Cloud_Kit\\src\\CM
 7150                             		.file 54 "C:\\Users\\a5116938\\Desktop\\e2_studio_workspace\\EEMBC_final\\RX65N_Cloud_Kit\\src/ten
 7151                             		.file 55 "C:\\Users\\a5116938\\Desktop\\e2_studio_workspace\\EEMBC_final\\RX65N_Cloud_Kit\\src/ten
 7152                             		.file 56 "c:\\gcc for renesas rx 8.3.0.202004-gnurx-elf\\rx-elf\\rx-elf\\rx-elf\\include\\assert.h
 7153                             		.file 57 "C:\\Users\\a5116938\\Desktop\\e2_studio_workspace\\EEMBC_final\\RX65N_Cloud_Kit\\src\\CM
 7154                             		.file 58 "<built-in>"
