   1                             		.file	"elementwise.cc"
   2                             		.section P,"ax"
   3                             	.Ltext0:
   4                             		.section	.text._ZN6tflite3ops5micro11elementwise12_GLOBAL__N_114GenericPrepareIXadL_ZNS3_22IsNumer
   6                             	__ZN6tflite3ops5micro11elementwise12_GLOBAL__N_114GenericPrepareIXadL_ZNS3_22IsNumericSupportedType
   7                             	.LFB1254:
   8                             		.file 1 "../src/tensorflow/lite/micro/kernels/elementwise.cc"
   1:../src/tensorflow/lite/micro/kernels/elementwise.cc **** /* Copyright 2019 The TensorFlow Authors. All Rights Reserved.
   2:../src/tensorflow/lite/micro/kernels/elementwise.cc **** 
   3:../src/tensorflow/lite/micro/kernels/elementwise.cc **** Licensed under the Apache License, Version 2.0 (the "License");
   4:../src/tensorflow/lite/micro/kernels/elementwise.cc **** you may not use this file except in compliance with the License.
   5:../src/tensorflow/lite/micro/kernels/elementwise.cc **** You may obtain a copy of the License at
   6:../src/tensorflow/lite/micro/kernels/elementwise.cc **** 
   7:../src/tensorflow/lite/micro/kernels/elementwise.cc ****     http://www.apache.org/licenses/LICENSE-2.0
   8:../src/tensorflow/lite/micro/kernels/elementwise.cc **** 
   9:../src/tensorflow/lite/micro/kernels/elementwise.cc **** Unless required by applicable law or agreed to in writing, software
  10:../src/tensorflow/lite/micro/kernels/elementwise.cc **** distributed under the License is distributed on an "AS IS" BASIS,
  11:../src/tensorflow/lite/micro/kernels/elementwise.cc **** WITHOUT WARRANTIES OR CONDITIONS OF ANY KIND, either express or implied.
  12:../src/tensorflow/lite/micro/kernels/elementwise.cc **** See the License for the specific language governing permissions and
  13:../src/tensorflow/lite/micro/kernels/elementwise.cc **** limitations under the License.
  14:../src/tensorflow/lite/micro/kernels/elementwise.cc **** ==============================================================================*/
  15:../src/tensorflow/lite/micro/kernels/elementwise.cc **** 
  16:../src/tensorflow/lite/micro/kernels/elementwise.cc **** #include <cmath>
  17:../src/tensorflow/lite/micro/kernels/elementwise.cc **** 
  18:../src/tensorflow/lite/micro/kernels/elementwise.cc **** #include "tensorflow/lite/c/common.h"
  19:../src/tensorflow/lite/micro/kernels/elementwise.cc **** #include "tensorflow/lite/kernels/internal/tensor_ctypes.h"
  20:../src/tensorflow/lite/micro/kernels/elementwise.cc **** #include "tensorflow/lite/kernels/kernel_util.h"
  21:../src/tensorflow/lite/micro/kernels/elementwise.cc **** #include "tensorflow/lite/micro/kernels/kernel_util.h"
  22:../src/tensorflow/lite/micro/kernels/elementwise.cc **** #include "tensorflow/lite/micro/micro_utils.h"
  23:../src/tensorflow/lite/micro/kernels/elementwise.cc **** 
  24:../src/tensorflow/lite/micro/kernels/elementwise.cc **** namespace tflite {
  25:../src/tensorflow/lite/micro/kernels/elementwise.cc **** namespace ops {
  26:../src/tensorflow/lite/micro/kernels/elementwise.cc **** namespace micro {
  27:../src/tensorflow/lite/micro/kernels/elementwise.cc **** namespace elementwise {
  28:../src/tensorflow/lite/micro/kernels/elementwise.cc **** namespace {
  29:../src/tensorflow/lite/micro/kernels/elementwise.cc **** 
  30:../src/tensorflow/lite/micro/kernels/elementwise.cc **** bool IsNumericSupportedType(const TfLiteType type) {
  31:../src/tensorflow/lite/micro/kernels/elementwise.cc ****   return type == kTfLiteFloat32;
  32:../src/tensorflow/lite/micro/kernels/elementwise.cc **** }
  33:../src/tensorflow/lite/micro/kernels/elementwise.cc **** 
  34:../src/tensorflow/lite/micro/kernels/elementwise.cc **** bool IsLogicalSupportedType(const TfLiteType type) {
  35:../src/tensorflow/lite/micro/kernels/elementwise.cc ****   return type == kTfLiteBool;
  36:../src/tensorflow/lite/micro/kernels/elementwise.cc **** }
  37:../src/tensorflow/lite/micro/kernels/elementwise.cc **** 
  38:../src/tensorflow/lite/micro/kernels/elementwise.cc **** typedef bool (*IsSupportedType)(TfLiteType);
  39:../src/tensorflow/lite/micro/kernels/elementwise.cc **** template <IsSupportedType>
  40:../src/tensorflow/lite/micro/kernels/elementwise.cc **** TfLiteStatus GenericPrepare(TfLiteContext* context, TfLiteNode* node) {
   9                             		.loc 1 40 14
  10                             	.LVL0:
  11 0000 6E 6B                   		pushm	r6-r11
  12                             	.LCFI0:
  13 0002 71 00 E4                		add	#-28, r0
  14                             	.LCFI1:
  41:../src/tensorflow/lite/micro/kernels/elementwise.cc ****   TF_LITE_ENSURE_EQ(context, NumInputs(node), 1);
  42:../src/tensorflow/lite/micro/kernels/elementwise.cc ****   TF_LITE_ENSURE_EQ(context, NumOutputs(node), 1);
  43:../src/tensorflow/lite/micro/kernels/elementwise.cc ****   const TfLiteTensor* input = GetInput(context, node, 0);
  15                             		.loc 1 43 39 is_stmt 0
  16 0005 66 03                   		mov.L	#0, r3
  40:../src/tensorflow/lite/micro/kernels/elementwise.cc ****   TF_LITE_ENSURE_EQ(context, NumInputs(node), 1);
  17                             		.loc 1 40 14
  18 0007 EF 17                   		mov.L	r1, r7
  19 0009 EF 26                   		mov.L	r2, r6
  20                             		.loc 1 43 39
  21 000b 05 00 00 00             		bsr	__ZN6tflite8GetInputEPK13TfLiteContextPK10TfLiteNodei
  22                             	.LVL1:
  44:../src/tensorflow/lite/micro/kernels/elementwise.cc ****   TF_LITE_ENSURE(context, input != nullptr);
  23                             		.loc 1 44 3
  24 000f 61 01                   		cmp	#0, r1
  25 0011 20 23                   		beq	.L10
  26 0013 EF 1A                   		mov.L	r1, r10
  45:../src/tensorflow/lite/micro/kernels/elementwise.cc ****   TfLiteTensor* output = GetOutput(context, node, 0);
  27                             		.loc 1 45 35
  28 0015 66 03                   		mov.L	#0, r3
  29 0017 EF 62                   		mov.L	r6, r2
  30 0019 EF 71                   		mov.L	r7, r1
  31                             	.LVL2:
  32 001b 05 00 00 00             		bsr	__ZN6tflite9GetOutputEP13TfLiteContextPK10TfLiteNodei
  33                             	.LVL3:
  46:../src/tensorflow/lite/micro/kernels/elementwise.cc ****   TF_LITE_ENSURE(context, output != nullptr);
  34                             		.loc 1 46 3
  35 001f 71 16 00                		add	#0, r1, r6
  36                             	.LVL4:
  37 0022 20 72                   		beq	.L11
  47:../src/tensorflow/lite/micro/kernels/elementwise.cc ****   TF_LITE_ENSURE_TYPES_EQ(context, input->type, output->type);
  38                             		.loc 1 47 3
  39 0024 EC A5                   		mov.L	[r10], r5
  40 0026 06 84 65                		cmp	[r6].L, r5
  41 0029 21 2E                   		bne	.L12
  48:../src/tensorflow/lite/micro/kernels/elementwise.cc ****   if (!IsSupportedType(input->type)) {
  49:../src/tensorflow/lite/micro/kernels/elementwise.cc ****     TF_LITE_KERNEL_LOG(context, "Input data type %s (%d) is not supported.",
  50:../src/tensorflow/lite/micro/kernels/elementwise.cc ****                        TfLiteTypeGetName(input->type), input->type);
  51:../src/tensorflow/lite/micro/kernels/elementwise.cc ****     return kTfLiteError;
  52:../src/tensorflow/lite/micro/kernels/elementwise.cc ****   }
  53:../src/tensorflow/lite/micro/kernels/elementwise.cc ****   return kTfLiteOk;
  42                             		.loc 1 53 10
  43 002b 66 01                   		mov.L	#0, r1
  48:../src/tensorflow/lite/micro/kernels/elementwise.cc ****   if (!IsSupportedType(input->type)) {
  44                             		.loc 1 48 3
  45 002d 61 05                   		cmp	#0, r5
  46 002f 20 74                   		beq	.L13
  54:../src/tensorflow/lite/micro/kernels/elementwise.cc **** }
  47                             		.loc 1 54 1
  48 0031 3F 6B 0D                		rtsd	#52, r6-r11
  49                             	.LVL5:
  50                             	.L10:
  44:../src/tensorflow/lite/micro/kernels/elementwise.cc ****   TfLiteTensor* output = GetOutput(context, node, 0);
  51                             		.loc 1 44 3
  52 0034 ED 7A 05                		mov.L	20[r7], r10
  53 0037 F9 02 03 00 00 00 00    		mov.L	#.LC8, 12[r0]
  54 003e 3E 02 2C                		mov.L	#44, 8[r0]
  55                             	.LVL6:
  56                             	.L8:
  46:../src/tensorflow/lite/micro/kernels/elementwise.cc ****   TF_LITE_ENSURE_TYPES_EQ(context, input->type, output->type);
  57                             		.loc 1 46 3
  58 0041 F9 02 01 11 00 00 00    		mov.L	#.LC9, 4[r0]
  59 0048 EF 71                   		mov.L	r7, r1
  60 004a F8 02 45 00 00 00       		mov.L	#.LC10, [r0]
  61 0050 7F 1A                   		jsr	r10
  62                             	.LVL7:
  63 0052 66 11                   		mov.L	#1, r1
  64                             		.loc 1 54 1
  65 0054 3F 6B 0D                		rtsd	#52, r6-r11
  66                             	.LVL8:
  67                             	.L12:
  47:../src/tensorflow/lite/micro/kernels/elementwise.cc ****   if (!IsSupportedType(input->type)) {
  68                             		.loc 1 47 3
  69 0057 EF 51                   		mov.L	r5, r1
  70 0059 ED 7A 05                		mov.L	20[r7], r10
  71                             	.LVL9:
  72 005c 05 00 00 00             		bsr	_TfLiteTypeGetName
  73                             	.LVL10:
  74 0060 EF 1B                   		mov.L	r1, r11
  75 0062 EC 61                   		mov.L	[r6], r1
  76 0064 05 00 00 00             		bsr	_TfLiteTypeGetName
  77                             	.LVL11:
  78 0068 A1 81                   		mov.L	r1, 24[r0]
  79 006a E7 0B 05                		mov.L	r11, 20[r0]
  80 006d F9 02 04 6E 00 00 00    		mov.L	#.LC12, 16[r0]
  81 0074 F9 02 03 7B 00 00 00    		mov.L	#.LC13, 12[r0]
  82 007b 3E 02 2F                		mov.L	#47, 8[r0]
  83 007e F9 02 01 11 00 00 00    		mov.L	#.LC9, 4[r0]
  84 0085 EF 71                   		mov.L	r7, r1
  85 0087 F8 02 87 00 00 00       		mov.L	#.LC14, [r0]
  86 008d 7F 1A                   		jsr	r10
  87                             	.LVL12:
  88 008f 66 11                   		mov.L	#1, r1
  89                             		.loc 1 54 1
  90 0091 3F 6B 0D                		rtsd	#52, r6-r11
  91                             	.LVL13:
  92                             	.L11:
  46:../src/tensorflow/lite/micro/kernels/elementwise.cc ****   TF_LITE_ENSURE_TYPES_EQ(context, input->type, output->type);
  93                             		.loc 1 46 3
  94 0094 ED 7A 05                		mov.L	20[r7], r10
  95                             	.LVL14:
  96 0097 F9 02 03 5C 00 00 00    		mov.L	#.LC11, 12[r0]
  97 009e 3E 02 2E                		mov.L	#46, 8[r0]
  98 00a1 2E A0                   		bra	.L8
  99                             	.LVL15:
 100                             	.L13:
  49:../src/tensorflow/lite/micro/kernels/elementwise.cc ****                        TfLiteTypeGetName(input->type), input->type);
 101                             		.loc 1 49 5
 102 00a3 A9 7E                   		mov.L	20[r7], r6
 103 00a5 05 00 00 00             		bsr	_TfLiteTypeGetName
 104                             	.LVL16:
 105 00a9 E4 A0 02                		mov.L	[r10], 8[r0]
 106 00ac A0 09                   		mov.L	r1, 4[r0]
 107 00ae EF 71                   		mov.L	r7, r1
 108 00b0 F8 02 A1 00 00 00       		mov.L	#.LC15, [r0]
 109 00b6 7F 16                   		jsr	r6
 110                             	.LVL17:
  51:../src/tensorflow/lite/micro/kernels/elementwise.cc ****   }
 111                             		.loc 1 51 12
 112 00b8 66 11                   		mov.L	#1, r1
 113                             		.loc 1 54 1
 114 00ba 3F 6B 0D                		rtsd	#52, r6-r11
 115                             	.LFE1254:
 117                             		.set	__ZN6tflite3ops5micro11elementwise12_GLOBAL__N_114GenericPrepareIXadL_ZNS3_22IsLogicalSupport
 118                             		.section	.text._ZN6tflite3ops5micro11elementwise12_GLOBAL__N_114GenericPrepareIXadL_ZNS3_22IsNumer
 120                             	__ZN6tflite3ops5micro11elementwise12_GLOBAL__N_114GenericPrepareIXadL_ZNS3_22IsNumericSupportedType
 121                             	.LFB1237:
  40:../src/tensorflow/lite/micro/kernels/elementwise.cc ****   TF_LITE_ENSURE_EQ(context, NumInputs(node), 1);
 122                             		.loc 1 40 14 is_stmt 1
 123                             	.LVL18:
 124 0000 7E A7                   		push.l	r7
 125                             	.LCFI2:
 126 0002 71 00 E4                		add	#-28, r0
 127                             	.LCFI3:
 128                             	.LVL19:
 129                             	.LBB138:
 130                             	.LBB139:
 131                             		.file 2 "C:\\Users\\a5116938\\Desktop\\e2_studio_workspace\\EEMBC_final\\RX65N_Cloud_Kit\\src/tens
   1:C:\Users\a5116938\Desktop\e2_studio_workspace\EEMBC_final\RX65N_Cloud_Kit\src/tensorflow/lite/kernels\kernel_util.h **** /* Copyright 2017 The TensorFlow Authors. All Rights Reserved.
   2:C:\Users\a5116938\Desktop\e2_studio_workspace\EEMBC_final\RX65N_Cloud_Kit\src/tensorflow/lite/kernels\kernel_util.h **** 
   3:C:\Users\a5116938\Desktop\e2_studio_workspace\EEMBC_final\RX65N_Cloud_Kit\src/tensorflow/lite/kernels\kernel_util.h **** Licensed under the Apache License, Version 2.0 (the "License");
   4:C:\Users\a5116938\Desktop\e2_studio_workspace\EEMBC_final\RX65N_Cloud_Kit\src/tensorflow/lite/kernels\kernel_util.h **** you may not use this file except in compliance with the License.
   5:C:\Users\a5116938\Desktop\e2_studio_workspace\EEMBC_final\RX65N_Cloud_Kit\src/tensorflow/lite/kernels\kernel_util.h **** You may obtain a copy of the License at
   6:C:\Users\a5116938\Desktop\e2_studio_workspace\EEMBC_final\RX65N_Cloud_Kit\src/tensorflow/lite/kernels\kernel_util.h **** 
   7:C:\Users\a5116938\Desktop\e2_studio_workspace\EEMBC_final\RX65N_Cloud_Kit\src/tensorflow/lite/kernels\kernel_util.h ****     http://www.apache.org/licenses/LICENSE-2.0
   8:C:\Users\a5116938\Desktop\e2_studio_workspace\EEMBC_final\RX65N_Cloud_Kit\src/tensorflow/lite/kernels\kernel_util.h **** 
   9:C:\Users\a5116938\Desktop\e2_studio_workspace\EEMBC_final\RX65N_Cloud_Kit\src/tensorflow/lite/kernels\kernel_util.h **** Unless required by applicable law or agreed to in writing, software
  10:C:\Users\a5116938\Desktop\e2_studio_workspace\EEMBC_final\RX65N_Cloud_Kit\src/tensorflow/lite/kernels\kernel_util.h **** distributed under the License is distributed on an "AS IS" BASIS,
  11:C:\Users\a5116938\Desktop\e2_studio_workspace\EEMBC_final\RX65N_Cloud_Kit\src/tensorflow/lite/kernels\kernel_util.h **** WITHOUT WARRANTIES OR CONDITIONS OF ANY KIND, either express or implied.
  12:C:\Users\a5116938\Desktop\e2_studio_workspace\EEMBC_final\RX65N_Cloud_Kit\src/tensorflow/lite/kernels\kernel_util.h **** See the License for the specific language governing permissions and
  13:C:\Users\a5116938\Desktop\e2_studio_workspace\EEMBC_final\RX65N_Cloud_Kit\src/tensorflow/lite/kernels\kernel_util.h **** limitations under the License.
  14:C:\Users\a5116938\Desktop\e2_studio_workspace\EEMBC_final\RX65N_Cloud_Kit\src/tensorflow/lite/kernels\kernel_util.h **** ==============================================================================*/
  15:C:\Users\a5116938\Desktop\e2_studio_workspace\EEMBC_final\RX65N_Cloud_Kit\src/tensorflow/lite/kernels\kernel_util.h **** #ifndef TENSORFLOW_LITE_KERNELS_KERNEL_UTIL_H_
  16:C:\Users\a5116938\Desktop\e2_studio_workspace\EEMBC_final\RX65N_Cloud_Kit\src/tensorflow/lite/kernels\kernel_util.h **** #define TENSORFLOW_LITE_KERNELS_KERNEL_UTIL_H_
  17:C:\Users\a5116938\Desktop\e2_studio_workspace\EEMBC_final\RX65N_Cloud_Kit\src/tensorflow/lite/kernels\kernel_util.h **** 
  18:C:\Users\a5116938\Desktop\e2_studio_workspace\EEMBC_final\RX65N_Cloud_Kit\src/tensorflow/lite/kernels\kernel_util.h **** #include <stdint.h>
  19:C:\Users\a5116938\Desktop\e2_studio_workspace\EEMBC_final\RX65N_Cloud_Kit\src/tensorflow/lite/kernels\kernel_util.h **** 
  20:C:\Users\a5116938\Desktop\e2_studio_workspace\EEMBC_final\RX65N_Cloud_Kit\src/tensorflow/lite/kernels\kernel_util.h **** #include <limits>
  21:C:\Users\a5116938\Desktop\e2_studio_workspace\EEMBC_final\RX65N_Cloud_Kit\src/tensorflow/lite/kernels\kernel_util.h **** 
  22:C:\Users\a5116938\Desktop\e2_studio_workspace\EEMBC_final\RX65N_Cloud_Kit\src/tensorflow/lite/kernels\kernel_util.h **** #include "tensorflow/lite/c/builtin_op_data.h"
  23:C:\Users\a5116938\Desktop\e2_studio_workspace\EEMBC_final\RX65N_Cloud_Kit\src/tensorflow/lite/kernels\kernel_util.h **** #include "tensorflow/lite/c/common.h"
  24:C:\Users\a5116938\Desktop\e2_studio_workspace\EEMBC_final\RX65N_Cloud_Kit\src/tensorflow/lite/kernels\kernel_util.h **** 
  25:C:\Users\a5116938\Desktop\e2_studio_workspace\EEMBC_final\RX65N_Cloud_Kit\src/tensorflow/lite/kernels\kernel_util.h **** namespace tflite {
  26:C:\Users\a5116938\Desktop\e2_studio_workspace\EEMBC_final\RX65N_Cloud_Kit\src/tensorflow/lite/kernels\kernel_util.h **** 
  27:C:\Users\a5116938\Desktop\e2_studio_workspace\EEMBC_final\RX65N_Cloud_Kit\src/tensorflow/lite/kernels\kernel_util.h **** // A fair number of functions in this header have historically been inline.
  28:C:\Users\a5116938\Desktop\e2_studio_workspace\EEMBC_final\RX65N_Cloud_Kit\src/tensorflow/lite/kernels\kernel_util.h **** // It is ok to change functions to not be inline if the latency with
  29:C:\Users\a5116938\Desktop\e2_studio_workspace\EEMBC_final\RX65N_Cloud_Kit\src/tensorflow/lite/kernels\kernel_util.h **** // benchmark_model for MobileNet + MobileBERT is unaffected. If such a change is
  30:C:\Users\a5116938\Desktop\e2_studio_workspace\EEMBC_final\RX65N_Cloud_Kit\src/tensorflow/lite/kernels\kernel_util.h **** // made, move the newly non-inlined function declarations to the top of this
  31:C:\Users\a5116938\Desktop\e2_studio_workspace\EEMBC_final\RX65N_Cloud_Kit\src/tensorflow/lite/kernels\kernel_util.h **** // header file.
  32:C:\Users\a5116938\Desktop\e2_studio_workspace\EEMBC_final\RX65N_Cloud_Kit\src/tensorflow/lite/kernels\kernel_util.h **** 
  33:C:\Users\a5116938\Desktop\e2_studio_workspace\EEMBC_final\RX65N_Cloud_Kit\src/tensorflow/lite/kernels\kernel_util.h **** // Note: You must check if result is not null:
  34:C:\Users\a5116938\Desktop\e2_studio_workspace\EEMBC_final\RX65N_Cloud_Kit\src/tensorflow/lite/kernels\kernel_util.h **** //
  35:C:\Users\a5116938\Desktop\e2_studio_workspace\EEMBC_final\RX65N_Cloud_Kit\src/tensorflow/lite/kernels\kernel_util.h **** //   TfLiteTensor* my_tensor = GetInput(context, node, kMyTensorIdx);
  36:C:\Users\a5116938\Desktop\e2_studio_workspace\EEMBC_final\RX65N_Cloud_Kit\src/tensorflow/lite/kernels\kernel_util.h **** //   TF_LITE_ENSURE(context, my_tensor != nullptr);
  37:C:\Users\a5116938\Desktop\e2_studio_workspace\EEMBC_final\RX65N_Cloud_Kit\src/tensorflow/lite/kernels\kernel_util.h **** //
  38:C:\Users\a5116938\Desktop\e2_studio_workspace\EEMBC_final\RX65N_Cloud_Kit\src/tensorflow/lite/kernels\kernel_util.h **** // This is because the index might point to the optional tensor constant
  39:C:\Users\a5116938\Desktop\e2_studio_workspace\EEMBC_final\RX65N_Cloud_Kit\src/tensorflow/lite/kernels\kernel_util.h **** // (kTfLiteOptionalTensor) in which case there is no tensor to return.
  40:C:\Users\a5116938\Desktop\e2_studio_workspace\EEMBC_final\RX65N_Cloud_Kit\src/tensorflow/lite/kernels\kernel_util.h **** const TfLiteTensor* GetInput(const TfLiteContext* context,
  41:C:\Users\a5116938\Desktop\e2_studio_workspace\EEMBC_final\RX65N_Cloud_Kit\src/tensorflow/lite/kernels\kernel_util.h ****                              const TfLiteNode* node, int index);
  42:C:\Users\a5116938\Desktop\e2_studio_workspace\EEMBC_final\RX65N_Cloud_Kit\src/tensorflow/lite/kernels\kernel_util.h **** 
  43:C:\Users\a5116938\Desktop\e2_studio_workspace\EEMBC_final\RX65N_Cloud_Kit\src/tensorflow/lite/kernels\kernel_util.h **** // Same as `GetInput` but returns boolean and uses output argument for tensor.
  44:C:\Users\a5116938\Desktop\e2_studio_workspace\EEMBC_final\RX65N_Cloud_Kit\src/tensorflow/lite/kernels\kernel_util.h **** //
  45:C:\Users\a5116938\Desktop\e2_studio_workspace\EEMBC_final\RX65N_Cloud_Kit\src/tensorflow/lite/kernels\kernel_util.h **** //   TfLiteTensor* my_tensor;
  46:C:\Users\a5116938\Desktop\e2_studio_workspace\EEMBC_final\RX65N_Cloud_Kit\src/tensorflow/lite/kernels\kernel_util.h **** //   TF_LITE_ENSURE_OK(context,
  47:C:\Users\a5116938\Desktop\e2_studio_workspace\EEMBC_final\RX65N_Cloud_Kit\src/tensorflow/lite/kernels\kernel_util.h **** //                     GetInputSafe(context, node, kMyTensorIdx, &my_tensor));
  48:C:\Users\a5116938\Desktop\e2_studio_workspace\EEMBC_final\RX65N_Cloud_Kit\src/tensorflow/lite/kernels\kernel_util.h **** //   // can use my_tensor directly from here onwards, it is not nullptr
  49:C:\Users\a5116938\Desktop\e2_studio_workspace\EEMBC_final\RX65N_Cloud_Kit\src/tensorflow/lite/kernels\kernel_util.h **** //
  50:C:\Users\a5116938\Desktop\e2_studio_workspace\EEMBC_final\RX65N_Cloud_Kit\src/tensorflow/lite/kernels\kernel_util.h **** // Should be used in cases where the binary size is too large.
  51:C:\Users\a5116938\Desktop\e2_studio_workspace\EEMBC_final\RX65N_Cloud_Kit\src/tensorflow/lite/kernels\kernel_util.h **** TfLiteStatus GetInputSafe(const TfLiteContext* context, const TfLiteNode* node,
  52:C:\Users\a5116938\Desktop\e2_studio_workspace\EEMBC_final\RX65N_Cloud_Kit\src/tensorflow/lite/kernels\kernel_util.h ****                           int index, const TfLiteTensor** tensor);
  53:C:\Users\a5116938\Desktop\e2_studio_workspace\EEMBC_final\RX65N_Cloud_Kit\src/tensorflow/lite/kernels\kernel_util.h **** 
  54:C:\Users\a5116938\Desktop\e2_studio_workspace\EEMBC_final\RX65N_Cloud_Kit\src/tensorflow/lite/kernels\kernel_util.h **** // Note: You must check if result is not null:
  55:C:\Users\a5116938\Desktop\e2_studio_workspace\EEMBC_final\RX65N_Cloud_Kit\src/tensorflow/lite/kernels\kernel_util.h **** //
  56:C:\Users\a5116938\Desktop\e2_studio_workspace\EEMBC_final\RX65N_Cloud_Kit\src/tensorflow/lite/kernels\kernel_util.h **** //   TfLiteTensor* my_tensor = GetVariableInput(context, node, kMyTensorIdx);
  57:C:\Users\a5116938\Desktop\e2_studio_workspace\EEMBC_final\RX65N_Cloud_Kit\src/tensorflow/lite/kernels\kernel_util.h **** //   TF_LITE_ENSURE(context, my_tensor != nullptr);
  58:C:\Users\a5116938\Desktop\e2_studio_workspace\EEMBC_final\RX65N_Cloud_Kit\src/tensorflow/lite/kernels\kernel_util.h **** //
  59:C:\Users\a5116938\Desktop\e2_studio_workspace\EEMBC_final\RX65N_Cloud_Kit\src/tensorflow/lite/kernels\kernel_util.h **** // This is because the index might point to the optional tensor constant
  60:C:\Users\a5116938\Desktop\e2_studio_workspace\EEMBC_final\RX65N_Cloud_Kit\src/tensorflow/lite/kernels\kernel_util.h **** // (kTfLiteOptionalTensor) in which case there is no tensor to return.
  61:C:\Users\a5116938\Desktop\e2_studio_workspace\EEMBC_final\RX65N_Cloud_Kit\src/tensorflow/lite/kernels\kernel_util.h **** TfLiteTensor* GetVariableInput(TfLiteContext* context, const TfLiteNode* node,
  62:C:\Users\a5116938\Desktop\e2_studio_workspace\EEMBC_final\RX65N_Cloud_Kit\src/tensorflow/lite/kernels\kernel_util.h ****                                int index);
  63:C:\Users\a5116938\Desktop\e2_studio_workspace\EEMBC_final\RX65N_Cloud_Kit\src/tensorflow/lite/kernels\kernel_util.h **** 
  64:C:\Users\a5116938\Desktop\e2_studio_workspace\EEMBC_final\RX65N_Cloud_Kit\src/tensorflow/lite/kernels\kernel_util.h **** // Note: You must check if result is not null:
  65:C:\Users\a5116938\Desktop\e2_studio_workspace\EEMBC_final\RX65N_Cloud_Kit\src/tensorflow/lite/kernels\kernel_util.h **** //
  66:C:\Users\a5116938\Desktop\e2_studio_workspace\EEMBC_final\RX65N_Cloud_Kit\src/tensorflow/lite/kernels\kernel_util.h **** //   TfLiteTensor* my_tensor = GetOutput(context, node, kMyTensorIdx);
  67:C:\Users\a5116938\Desktop\e2_studio_workspace\EEMBC_final\RX65N_Cloud_Kit\src/tensorflow/lite/kernels\kernel_util.h **** //   TF_LITE_ENSURE(context, my_tensor != nullptr);
  68:C:\Users\a5116938\Desktop\e2_studio_workspace\EEMBC_final\RX65N_Cloud_Kit\src/tensorflow/lite/kernels\kernel_util.h **** //
  69:C:\Users\a5116938\Desktop\e2_studio_workspace\EEMBC_final\RX65N_Cloud_Kit\src/tensorflow/lite/kernels\kernel_util.h **** // This is because the index might point to the optional tensor constant
  70:C:\Users\a5116938\Desktop\e2_studio_workspace\EEMBC_final\RX65N_Cloud_Kit\src/tensorflow/lite/kernels\kernel_util.h **** // (kTfLiteOptionalTensor) in which case there is no tensor to return.
  71:C:\Users\a5116938\Desktop\e2_studio_workspace\EEMBC_final\RX65N_Cloud_Kit\src/tensorflow/lite/kernels\kernel_util.h **** TfLiteTensor* GetOutput(TfLiteContext* context, const TfLiteNode* node,
  72:C:\Users\a5116938\Desktop\e2_studio_workspace\EEMBC_final\RX65N_Cloud_Kit\src/tensorflow/lite/kernels\kernel_util.h ****                         int index);
  73:C:\Users\a5116938\Desktop\e2_studio_workspace\EEMBC_final\RX65N_Cloud_Kit\src/tensorflow/lite/kernels\kernel_util.h **** 
  74:C:\Users\a5116938\Desktop\e2_studio_workspace\EEMBC_final\RX65N_Cloud_Kit\src/tensorflow/lite/kernels\kernel_util.h **** // Same as `GetOutput` but returns boolean and uses output argument for tensor.
  75:C:\Users\a5116938\Desktop\e2_studio_workspace\EEMBC_final\RX65N_Cloud_Kit\src/tensorflow/lite/kernels\kernel_util.h **** //
  76:C:\Users\a5116938\Desktop\e2_studio_workspace\EEMBC_final\RX65N_Cloud_Kit\src/tensorflow/lite/kernels\kernel_util.h **** //   TfLiteTensor* my_tensor;
  77:C:\Users\a5116938\Desktop\e2_studio_workspace\EEMBC_final\RX65N_Cloud_Kit\src/tensorflow/lite/kernels\kernel_util.h **** //   TF_LITE_ENSURE_OK(context,
  78:C:\Users\a5116938\Desktop\e2_studio_workspace\EEMBC_final\RX65N_Cloud_Kit\src/tensorflow/lite/kernels\kernel_util.h **** //                     GetOutputSafe(context, node, kMyTensorIdx, &my_tensor));
  79:C:\Users\a5116938\Desktop\e2_studio_workspace\EEMBC_final\RX65N_Cloud_Kit\src/tensorflow/lite/kernels\kernel_util.h **** //   // can use my_tensor directly from here onwards, it is not nullptr
  80:C:\Users\a5116938\Desktop\e2_studio_workspace\EEMBC_final\RX65N_Cloud_Kit\src/tensorflow/lite/kernels\kernel_util.h **** //
  81:C:\Users\a5116938\Desktop\e2_studio_workspace\EEMBC_final\RX65N_Cloud_Kit\src/tensorflow/lite/kernels\kernel_util.h **** // Should be used in cases where the binary size is too large.
  82:C:\Users\a5116938\Desktop\e2_studio_workspace\EEMBC_final\RX65N_Cloud_Kit\src/tensorflow/lite/kernels\kernel_util.h **** TfLiteStatus GetOutputSafe(const TfLiteContext* context, const TfLiteNode* node,
  83:C:\Users\a5116938\Desktop\e2_studio_workspace\EEMBC_final\RX65N_Cloud_Kit\src/tensorflow/lite/kernels\kernel_util.h ****                            int index, TfLiteTensor** tensor);
  84:C:\Users\a5116938\Desktop\e2_studio_workspace\EEMBC_final\RX65N_Cloud_Kit\src/tensorflow/lite/kernels\kernel_util.h **** 
  85:C:\Users\a5116938\Desktop\e2_studio_workspace\EEMBC_final\RX65N_Cloud_Kit\src/tensorflow/lite/kernels\kernel_util.h **** // Note: You must check if result is not null:
  86:C:\Users\a5116938\Desktop\e2_studio_workspace\EEMBC_final\RX65N_Cloud_Kit\src/tensorflow/lite/kernels\kernel_util.h **** //
  87:C:\Users\a5116938\Desktop\e2_studio_workspace\EEMBC_final\RX65N_Cloud_Kit\src/tensorflow/lite/kernels\kernel_util.h **** //   TfLiteTensor* my_tensor = GetOptionalInputTensor(context, node, kIdx);
  88:C:\Users\a5116938\Desktop\e2_studio_workspace\EEMBC_final\RX65N_Cloud_Kit\src/tensorflow/lite/kernels\kernel_util.h **** //   TF_LITE_ENSURE(context, my_tensor != nullptr);
  89:C:\Users\a5116938\Desktop\e2_studio_workspace\EEMBC_final\RX65N_Cloud_Kit\src/tensorflow/lite/kernels\kernel_util.h **** //
  90:C:\Users\a5116938\Desktop\e2_studio_workspace\EEMBC_final\RX65N_Cloud_Kit\src/tensorflow/lite/kernels\kernel_util.h **** // This is because the index might point to the optional tensor constant
  91:C:\Users\a5116938\Desktop\e2_studio_workspace\EEMBC_final\RX65N_Cloud_Kit\src/tensorflow/lite/kernels\kernel_util.h **** // (kTfLiteOptionalTensor) in which case there is no tensor to return.
  92:C:\Users\a5116938\Desktop\e2_studio_workspace\EEMBC_final\RX65N_Cloud_Kit\src/tensorflow/lite/kernels\kernel_util.h **** //
  93:C:\Users\a5116938\Desktop\e2_studio_workspace\EEMBC_final\RX65N_Cloud_Kit\src/tensorflow/lite/kernels\kernel_util.h **** // Deprecated. GetInput has the same functionality.
  94:C:\Users\a5116938\Desktop\e2_studio_workspace\EEMBC_final\RX65N_Cloud_Kit\src/tensorflow/lite/kernels\kernel_util.h **** const TfLiteTensor* GetOptionalInputTensor(const TfLiteContext* context,
  95:C:\Users\a5116938\Desktop\e2_studio_workspace\EEMBC_final\RX65N_Cloud_Kit\src/tensorflow/lite/kernels\kernel_util.h ****                                            const TfLiteNode* node, int index);
  96:C:\Users\a5116938\Desktop\e2_studio_workspace\EEMBC_final\RX65N_Cloud_Kit\src/tensorflow/lite/kernels\kernel_util.h **** 
  97:C:\Users\a5116938\Desktop\e2_studio_workspace\EEMBC_final\RX65N_Cloud_Kit\src/tensorflow/lite/kernels\kernel_util.h **** #ifndef TF_LITE_STATIC_MEMORY
  98:C:\Users\a5116938\Desktop\e2_studio_workspace\EEMBC_final\RX65N_Cloud_Kit\src/tensorflow/lite/kernels\kernel_util.h **** // Note: You must check if result is not null:
  99:C:\Users\a5116938\Desktop\e2_studio_workspace\EEMBC_final\RX65N_Cloud_Kit\src/tensorflow/lite/kernels\kernel_util.h **** //
 100:C:\Users\a5116938\Desktop\e2_studio_workspace\EEMBC_final\RX65N_Cloud_Kit\src/tensorflow/lite/kernels\kernel_util.h **** //   TfLiteTensor* my_tensor = GetTemporary(context, node, kMyTensorIdx);
 101:C:\Users\a5116938\Desktop\e2_studio_workspace\EEMBC_final\RX65N_Cloud_Kit\src/tensorflow/lite/kernels\kernel_util.h **** //   TF_LITE_ENSURE(context, my_tensor != nullptr);
 102:C:\Users\a5116938\Desktop\e2_studio_workspace\EEMBC_final\RX65N_Cloud_Kit\src/tensorflow/lite/kernels\kernel_util.h **** //
 103:C:\Users\a5116938\Desktop\e2_studio_workspace\EEMBC_final\RX65N_Cloud_Kit\src/tensorflow/lite/kernels\kernel_util.h **** // This is because the index might point to the optional tensor constant
 104:C:\Users\a5116938\Desktop\e2_studio_workspace\EEMBC_final\RX65N_Cloud_Kit\src/tensorflow/lite/kernels\kernel_util.h **** // (kTfLiteOptionalTensor) in which case there is no tensor to return.
 105:C:\Users\a5116938\Desktop\e2_studio_workspace\EEMBC_final\RX65N_Cloud_Kit\src/tensorflow/lite/kernels\kernel_util.h **** TfLiteTensor* GetTemporary(TfLiteContext* context, const TfLiteNode* node,
 106:C:\Users\a5116938\Desktop\e2_studio_workspace\EEMBC_final\RX65N_Cloud_Kit\src/tensorflow/lite/kernels\kernel_util.h ****                            int index);
 107:C:\Users\a5116938\Desktop\e2_studio_workspace\EEMBC_final\RX65N_Cloud_Kit\src/tensorflow/lite/kernels\kernel_util.h **** 
 108:C:\Users\a5116938\Desktop\e2_studio_workspace\EEMBC_final\RX65N_Cloud_Kit\src/tensorflow/lite/kernels\kernel_util.h **** // Same as `GetTemporary` but returns boolean and uses output argument for
 109:C:\Users\a5116938\Desktop\e2_studio_workspace\EEMBC_final\RX65N_Cloud_Kit\src/tensorflow/lite/kernels\kernel_util.h **** // tensor.
 110:C:\Users\a5116938\Desktop\e2_studio_workspace\EEMBC_final\RX65N_Cloud_Kit\src/tensorflow/lite/kernels\kernel_util.h **** //
 111:C:\Users\a5116938\Desktop\e2_studio_workspace\EEMBC_final\RX65N_Cloud_Kit\src/tensorflow/lite/kernels\kernel_util.h **** //   TfLiteTensor* my_tensor;
 112:C:\Users\a5116938\Desktop\e2_studio_workspace\EEMBC_final\RX65N_Cloud_Kit\src/tensorflow/lite/kernels\kernel_util.h **** //   TF_LITE_ENSURE_OK(context,
 113:C:\Users\a5116938\Desktop\e2_studio_workspace\EEMBC_final\RX65N_Cloud_Kit\src/tensorflow/lite/kernels\kernel_util.h **** //                     GetTemporarySafe(context, node, kMyTensorIdx,
 114:C:\Users\a5116938\Desktop\e2_studio_workspace\EEMBC_final\RX65N_Cloud_Kit\src/tensorflow/lite/kernels\kernel_util.h **** //                     &my_tensor));
 115:C:\Users\a5116938\Desktop\e2_studio_workspace\EEMBC_final\RX65N_Cloud_Kit\src/tensorflow/lite/kernels\kernel_util.h **** //   // can use my_tensor directly from here onwards, it is not nullptr
 116:C:\Users\a5116938\Desktop\e2_studio_workspace\EEMBC_final\RX65N_Cloud_Kit\src/tensorflow/lite/kernels\kernel_util.h **** //
 117:C:\Users\a5116938\Desktop\e2_studio_workspace\EEMBC_final\RX65N_Cloud_Kit\src/tensorflow/lite/kernels\kernel_util.h **** // Should be used in cases where the binary size is too large.
 118:C:\Users\a5116938\Desktop\e2_studio_workspace\EEMBC_final\RX65N_Cloud_Kit\src/tensorflow/lite/kernels\kernel_util.h **** TfLiteStatus GetTemporarySafe(const TfLiteContext* context,
 119:C:\Users\a5116938\Desktop\e2_studio_workspace\EEMBC_final\RX65N_Cloud_Kit\src/tensorflow/lite/kernels\kernel_util.h ****                               const TfLiteNode* node, int index,
 120:C:\Users\a5116938\Desktop\e2_studio_workspace\EEMBC_final\RX65N_Cloud_Kit\src/tensorflow/lite/kernels\kernel_util.h ****                               TfLiteTensor** tensor);
 121:C:\Users\a5116938\Desktop\e2_studio_workspace\EEMBC_final\RX65N_Cloud_Kit\src/tensorflow/lite/kernels\kernel_util.h **** 
 122:C:\Users\a5116938\Desktop\e2_studio_workspace\EEMBC_final\RX65N_Cloud_Kit\src/tensorflow/lite/kernels\kernel_util.h **** // Note: You must check if result is not null:
 123:C:\Users\a5116938\Desktop\e2_studio_workspace\EEMBC_final\RX65N_Cloud_Kit\src/tensorflow/lite/kernels\kernel_util.h **** //
 124:C:\Users\a5116938\Desktop\e2_studio_workspace\EEMBC_final\RX65N_Cloud_Kit\src/tensorflow/lite/kernels\kernel_util.h **** //   TfLiteTensor* my_tensor = GetIntermediates(context, node, kMyTensorIdx);
 125:C:\Users\a5116938\Desktop\e2_studio_workspace\EEMBC_final\RX65N_Cloud_Kit\src/tensorflow/lite/kernels\kernel_util.h **** //   TF_LITE_ENSURE(context, my_tensor != nullptr);
 126:C:\Users\a5116938\Desktop\e2_studio_workspace\EEMBC_final\RX65N_Cloud_Kit\src/tensorflow/lite/kernels\kernel_util.h **** //
 127:C:\Users\a5116938\Desktop\e2_studio_workspace\EEMBC_final\RX65N_Cloud_Kit\src/tensorflow/lite/kernels\kernel_util.h **** // This is because the index might point to the optional tensor constant
 128:C:\Users\a5116938\Desktop\e2_studio_workspace\EEMBC_final\RX65N_Cloud_Kit\src/tensorflow/lite/kernels\kernel_util.h **** // (kTfLiteOptionalTensor) in which case there is no tensor to return.
 129:C:\Users\a5116938\Desktop\e2_studio_workspace\EEMBC_final\RX65N_Cloud_Kit\src/tensorflow/lite/kernels\kernel_util.h **** const TfLiteTensor* GetIntermediates(TfLiteContext* context,
 130:C:\Users\a5116938\Desktop\e2_studio_workspace\EEMBC_final\RX65N_Cloud_Kit\src/tensorflow/lite/kernels\kernel_util.h ****                                      const TfLiteNode* node, int index);
 131:C:\Users\a5116938\Desktop\e2_studio_workspace\EEMBC_final\RX65N_Cloud_Kit\src/tensorflow/lite/kernels\kernel_util.h **** 
 132:C:\Users\a5116938\Desktop\e2_studio_workspace\EEMBC_final\RX65N_Cloud_Kit\src/tensorflow/lite/kernels\kernel_util.h **** // Same as `GetIntermediates` but returns boolean and uses output argument for
 133:C:\Users\a5116938\Desktop\e2_studio_workspace\EEMBC_final\RX65N_Cloud_Kit\src/tensorflow/lite/kernels\kernel_util.h **** // tensor.
 134:C:\Users\a5116938\Desktop\e2_studio_workspace\EEMBC_final\RX65N_Cloud_Kit\src/tensorflow/lite/kernels\kernel_util.h **** //
 135:C:\Users\a5116938\Desktop\e2_studio_workspace\EEMBC_final\RX65N_Cloud_Kit\src/tensorflow/lite/kernels\kernel_util.h **** //   TfLiteTensor* my_tensor;
 136:C:\Users\a5116938\Desktop\e2_studio_workspace\EEMBC_final\RX65N_Cloud_Kit\src/tensorflow/lite/kernels\kernel_util.h **** //   TF_LITE_ENSURE_OK(context,
 137:C:\Users\a5116938\Desktop\e2_studio_workspace\EEMBC_final\RX65N_Cloud_Kit\src/tensorflow/lite/kernels\kernel_util.h **** //                     GetIntermediatesSafe(context, node, kMyTensorIdx,
 138:C:\Users\a5116938\Desktop\e2_studio_workspace\EEMBC_final\RX65N_Cloud_Kit\src/tensorflow/lite/kernels\kernel_util.h **** //                     &my_tensor));
 139:C:\Users\a5116938\Desktop\e2_studio_workspace\EEMBC_final\RX65N_Cloud_Kit\src/tensorflow/lite/kernels\kernel_util.h **** //   // can use my_tensor directly from here onwards, it is not nullptr
 140:C:\Users\a5116938\Desktop\e2_studio_workspace\EEMBC_final\RX65N_Cloud_Kit\src/tensorflow/lite/kernels\kernel_util.h **** //
 141:C:\Users\a5116938\Desktop\e2_studio_workspace\EEMBC_final\RX65N_Cloud_Kit\src/tensorflow/lite/kernels\kernel_util.h **** // Should be used in cases where the binary size is too large.
 142:C:\Users\a5116938\Desktop\e2_studio_workspace\EEMBC_final\RX65N_Cloud_Kit\src/tensorflow/lite/kernels\kernel_util.h **** TfLiteStatus GetIntermediatesSafe(const TfLiteContext* context,
 143:C:\Users\a5116938\Desktop\e2_studio_workspace\EEMBC_final\RX65N_Cloud_Kit\src/tensorflow/lite/kernels\kernel_util.h ****                                   const TfLiteNode* node, int index,
 144:C:\Users\a5116938\Desktop\e2_studio_workspace\EEMBC_final\RX65N_Cloud_Kit\src/tensorflow/lite/kernels\kernel_util.h ****                                   TfLiteTensor** tensor);
 145:C:\Users\a5116938\Desktop\e2_studio_workspace\EEMBC_final\RX65N_Cloud_Kit\src/tensorflow/lite/kernels\kernel_util.h **** #endif  // TF_LITE_STATIC_MEMORY
 146:C:\Users\a5116938\Desktop\e2_studio_workspace\EEMBC_final\RX65N_Cloud_Kit\src/tensorflow/lite/kernels\kernel_util.h **** 
 147:C:\Users\a5116938\Desktop\e2_studio_workspace\EEMBC_final\RX65N_Cloud_Kit\src/tensorflow/lite/kernels\kernel_util.h **** inline int NumDimensions(const TfLiteTensor* t) { return t->dims->size; }
 148:C:\Users\a5116938\Desktop\e2_studio_workspace\EEMBC_final\RX65N_Cloud_Kit\src/tensorflow/lite/kernels\kernel_util.h **** inline int SizeOfDimension(const TfLiteTensor* t, int dim) {
 149:C:\Users\a5116938\Desktop\e2_studio_workspace\EEMBC_final\RX65N_Cloud_Kit\src/tensorflow/lite/kernels\kernel_util.h ****   return t->dims->data[dim];
 150:C:\Users\a5116938\Desktop\e2_studio_workspace\EEMBC_final\RX65N_Cloud_Kit\src/tensorflow/lite/kernels\kernel_util.h **** }
 151:C:\Users\a5116938\Desktop\e2_studio_workspace\EEMBC_final\RX65N_Cloud_Kit\src/tensorflow/lite/kernels\kernel_util.h **** 
 152:C:\Users\a5116938\Desktop\e2_studio_workspace\EEMBC_final\RX65N_Cloud_Kit\src/tensorflow/lite/kernels\kernel_util.h **** inline int NumInputs(const TfLiteNode* node) { return node->inputs->size; }
 132                             		.loc 2 152 48
 133                             		.loc 2 152 69 is_stmt 0
 134 0005 EC 27                   		mov.L	[r2], r7
 135 0007 EC 77                   		mov.L	[r7], r7
 136                             	.LBE139:
 137                             	.LBE138:
  41:../src/tensorflow/lite/micro/kernels/elementwise.cc ****   TF_LITE_ENSURE_EQ(context, NumOutputs(node), 1);
 138                             		.loc 1 41 3
 139 0009 61 17                   		cmp	#1, r7
 140 000b 20 2E                   		beq	.L15
 141                             	.LVL20:
 142                             		.loc 2 152 48 is_stmt 1 discriminator 1
  41:../src/tensorflow/lite/micro/kernels/elementwise.cc ****   TF_LITE_ENSURE_EQ(context, NumOutputs(node), 1);
 143                             		.loc 1 41 3 is_stmt 0 discriminator 1
 144 000d A9 1D                   		mov.L	20[r1], r5
 145 000f 3E 06 01                		mov.L	#1, 24[r0]
 146 0012 A1 0F                   		mov.L	r7, 20[r0]
 147 0014 F9 02 04 00 00 00 00    		mov.L	#.LC16, 16[r0]
 148 001b F9 02 03 02 00 00 00    		mov.L	#.LC17, 12[r0]
 149 0022 3E 02 29                		mov.L	#41, 8[r0]
 150 0025 F9 02 01 11 00 00 00    		mov.L	#.LC9, 4[r0]
 151 002c F8 02 12 00 00 00       		mov.L	#.LC18, [r0]
 152 0032 7F 15                   		jsr	r5
 153                             	.LVL21:
 154 0034 66 11                   		mov.L	#1, r1
 155                             		.loc 1 54 1 discriminator 1
 156 0036 3F 77 08                		rtsd	#32, r7-r7
 157                             	.LVL22:
 158                             	.L15:
 159                             	.LBB140:
 160                             	.LBB141:
 153:C:\Users\a5116938\Desktop\e2_studio_workspace\EEMBC_final\RX65N_Cloud_Kit\src/tensorflow/lite/kernels\kernel_util.h **** inline int NumOutputs(const TfLiteNode* node) { return node->outputs->size; }
 161                             		.loc 2 153 49 is_stmt 1
 162                             		.loc 2 153 71 is_stmt 0
 163 0039 A8 2D                   		mov.L	4[r2], r5
 164 003b EC 55                   		mov.L	[r5], r5
 165                             	.LBE141:
 166                             	.LBE140:
  42:../src/tensorflow/lite/micro/kernels/elementwise.cc ****   const TfLiteTensor* input = GetInput(context, node, 0);
 167                             		.loc 1 42 3
 168 003d 61 15                   		cmp	#1, r5
 169 003f 20 2D                   		beq	.L17
 170                             	.LVL23:
 171                             		.loc 2 153 49 is_stmt 1 discriminator 1
  42:../src/tensorflow/lite/micro/kernels/elementwise.cc ****   const TfLiteTensor* input = GetInput(context, node, 0);
 172                             		.loc 1 42 3 is_stmt 0 discriminator 1
 173 0041 A9 1C                   		mov.L	20[r1], r4
 174 0043 A1 87                   		mov.L	r7, 24[r0]
 175 0045 A1 0D                   		mov.L	r5, 20[r0]
 176 0047 F9 02 04 00 00 00 00    		mov.L	#.LC16, 16[r0]
 177 004e F9 02 03 2C 00 00 00    		mov.L	#.LC19, 12[r0]
 178 0055 3E 02 2A                		mov.L	#42, 8[r0]
 179 0058 F9 02 01 11 00 00 00    		mov.L	#.LC9, 4[r0]
 180 005f F8 02 12 00 00 00       		mov.L	#.LC18, [r0]
 181 0065 7F 14                   		jsr	r4
 182                             	.LVL24:
 183 0067 EF 71                   		mov.L	r7, r1
 184                             		.loc 1 54 1 discriminator 1
 185 0069 3F 77 08                		rtsd	#32, r7-r7
 186                             	.LVL25:
 187                             	.L17:
 188                             		.loc 1 54 1
 189 006c 71 00 1C                		add	#28, r0
 190 006f 7E B7                   		pop	r7
 191 0071 04 00 00 00             		bra	__ZN6tflite3ops5micro11elementwise12_GLOBAL__N_114GenericPrepareIXadL_ZNS3_22IsNumericSupporte
 192                             	.LVL26:
 193                             	.LFE1237:
 195                             		.section	.text._ZN6tflite3ops5micro11elementwise12_GLOBAL__N_114GenericPrepareIXadL_ZNS3_22IsLogic
 197                             	__ZN6tflite3ops5micro11elementwise12_GLOBAL__N_114GenericPrepareIXadL_ZNS3_22IsLogicalSupportedType
 198                             	.LFB1238:
  40:../src/tensorflow/lite/micro/kernels/elementwise.cc ****   TF_LITE_ENSURE_EQ(context, NumInputs(node), 1);
 199                             		.loc 1 40 14 is_stmt 1
 200                             	.LVL27:
 201 0000 7E A7                   		push.l	r7
 202                             	.LCFI4:
 203 0002 71 00 E4                		add	#-28, r0
 204                             	.LCFI5:
 205                             	.LVL28:
 206                             	.LBB142:
 207                             	.LBB143:
 152:C:\Users\a5116938\Desktop\e2_studio_workspace\EEMBC_final\RX65N_Cloud_Kit\src/tensorflow/lite/kernels\kernel_util.h **** inline int NumOutputs(const TfLiteNode* node) { return node->outputs->size; }
 208                             		.loc 2 152 48
 152:C:\Users\a5116938\Desktop\e2_studio_workspace\EEMBC_final\RX65N_Cloud_Kit\src/tensorflow/lite/kernels\kernel_util.h **** inline int NumOutputs(const TfLiteNode* node) { return node->outputs->size; }
 209                             		.loc 2 152 69 is_stmt 0
 210 0005 EC 27                   		mov.L	[r2], r7
 211 0007 EC 77                   		mov.L	[r7], r7
 212                             	.LBE143:
 213                             	.LBE142:
  41:../src/tensorflow/lite/micro/kernels/elementwise.cc ****   TF_LITE_ENSURE_EQ(context, NumOutputs(node), 1);
 214                             		.loc 1 41 3
 215 0009 61 17                   		cmp	#1, r7
 216 000b 20 2E                   		beq	.L20
 217                             	.LVL29:
 152:C:\Users\a5116938\Desktop\e2_studio_workspace\EEMBC_final\RX65N_Cloud_Kit\src/tensorflow/lite/kernels\kernel_util.h **** inline int NumOutputs(const TfLiteNode* node) { return node->outputs->size; }
 218                             		.loc 2 152 48 is_stmt 1 discriminator 1
  41:../src/tensorflow/lite/micro/kernels/elementwise.cc ****   TF_LITE_ENSURE_EQ(context, NumOutputs(node), 1);
 219                             		.loc 1 41 3 is_stmt 0 discriminator 1
 220 000d A9 1D                   		mov.L	20[r1], r5
 221 000f 3E 06 01                		mov.L	#1, 24[r0]
 222 0012 A1 0F                   		mov.L	r7, 20[r0]
 223 0014 F9 02 04 00 00 00 00    		mov.L	#.LC16, 16[r0]
 224 001b F9 02 03 02 00 00 00    		mov.L	#.LC17, 12[r0]
 225 0022 3E 02 29                		mov.L	#41, 8[r0]
 226 0025 F9 02 01 11 00 00 00    		mov.L	#.LC9, 4[r0]
 227 002c F8 02 12 00 00 00       		mov.L	#.LC18, [r0]
 228 0032 7F 15                   		jsr	r5
 229                             	.LVL30:
 230 0034 66 11                   		mov.L	#1, r1
 231                             		.loc 1 54 1 discriminator 1
 232 0036 3F 77 08                		rtsd	#32, r7-r7
 233                             	.LVL31:
 234                             	.L20:
 235                             	.LBB144:
 236                             	.LBB145:
 237                             		.loc 2 153 49 is_stmt 1
 238                             		.loc 2 153 71 is_stmt 0
 239 0039 A8 2D                   		mov.L	4[r2], r5
 240 003b EC 55                   		mov.L	[r5], r5
 241                             	.LBE145:
 242                             	.LBE144:
  42:../src/tensorflow/lite/micro/kernels/elementwise.cc ****   const TfLiteTensor* input = GetInput(context, node, 0);
 243                             		.loc 1 42 3
 244 003d 61 15                   		cmp	#1, r5
 245 003f 20 2D                   		beq	.L22
 246                             	.LVL32:
 247                             		.loc 2 153 49 is_stmt 1 discriminator 1
  42:../src/tensorflow/lite/micro/kernels/elementwise.cc ****   const TfLiteTensor* input = GetInput(context, node, 0);
 248                             		.loc 1 42 3 is_stmt 0 discriminator 1
 249 0041 A9 1C                   		mov.L	20[r1], r4
 250 0043 A1 87                   		mov.L	r7, 24[r0]
 251 0045 A1 0D                   		mov.L	r5, 20[r0]
 252 0047 F9 02 04 00 00 00 00    		mov.L	#.LC16, 16[r0]
 253 004e F9 02 03 2C 00 00 00    		mov.L	#.LC19, 12[r0]
 254 0055 3E 02 2A                		mov.L	#42, 8[r0]
 255 0058 F9 02 01 11 00 00 00    		mov.L	#.LC9, 4[r0]
 256 005f F8 02 12 00 00 00       		mov.L	#.LC18, [r0]
 257 0065 7F 14                   		jsr	r4
 258                             	.LVL33:
 259 0067 EF 71                   		mov.L	r7, r1
 260                             		.loc 1 54 1 discriminator 1
 261 0069 3F 77 08                		rtsd	#32, r7-r7
 262                             	.LVL34:
 263                             	.L22:
 264                             		.loc 1 54 1
 265 006c 71 00 1C                		add	#28, r0
 266 006f 7E B7                   		pop	r7
 267 0071 04 00 00 00             		bra	__ZN6tflite3ops5micro11elementwise12_GLOBAL__N_114GenericPrepareIXadL_ZNS3_22IsLogicalSupporte
 268                             	.LVL35:
 269                             	.LFE1238:
 271                             		.section	.text._ZN6tflite3ops5micro11elementwise12_GLOBAL__N_18SqrtEvalEP13TfLiteContextP10TfLiteN
 273                             	__ZN6tflite3ops5micro11elementwise12_GLOBAL__N_18SqrtEvalEP13TfLiteContextP10TfLiteNode:
 274                             	.LFB1208:
  55:../src/tensorflow/lite/micro/kernels/elementwise.cc **** 
  56:../src/tensorflow/lite/micro/kernels/elementwise.cc **** template <typename T>
  57:../src/tensorflow/lite/micro/kernels/elementwise.cc **** inline TfLiteStatus EvalImpl(TfLiteContext* context, TfLiteNode* node,
  58:../src/tensorflow/lite/micro/kernels/elementwise.cc ****                              T func(T), TfLiteType expected_type) {
  59:../src/tensorflow/lite/micro/kernels/elementwise.cc ****   const TfLiteEvalTensor* input = tflite::micro::GetEvalInput(context, node, 0);
  60:../src/tensorflow/lite/micro/kernels/elementwise.cc ****   TfLiteEvalTensor* output = tflite::micro::GetEvalOutput(context, node, 0);
  61:../src/tensorflow/lite/micro/kernels/elementwise.cc ****   TF_LITE_ENSURE_TYPES_EQ(context, input->type, expected_type);
  62:../src/tensorflow/lite/micro/kernels/elementwise.cc ****   const size_t num_elements = ElementCount(*input->dims);
  63:../src/tensorflow/lite/micro/kernels/elementwise.cc ****   const T* in_data = tflite::micro::GetTensorData<T>(input);
  64:../src/tensorflow/lite/micro/kernels/elementwise.cc ****   T* out_data = tflite::micro::GetTensorData<T>(output);
  65:../src/tensorflow/lite/micro/kernels/elementwise.cc ****   for (size_t i = 0; i < num_elements; ++i) {
  66:../src/tensorflow/lite/micro/kernels/elementwise.cc ****     out_data[i] = func(in_data[i]);
  67:../src/tensorflow/lite/micro/kernels/elementwise.cc ****   }
  68:../src/tensorflow/lite/micro/kernels/elementwise.cc ****   return kTfLiteOk;
  69:../src/tensorflow/lite/micro/kernels/elementwise.cc **** }
  70:../src/tensorflow/lite/micro/kernels/elementwise.cc **** 
  71:../src/tensorflow/lite/micro/kernels/elementwise.cc **** inline TfLiteStatus EvalNumeric(TfLiteContext* context, TfLiteNode* node,
  72:../src/tensorflow/lite/micro/kernels/elementwise.cc ****                                 float float_func(float)) {
  73:../src/tensorflow/lite/micro/kernels/elementwise.cc ****   return EvalImpl<float>(context, node, float_func, kTfLiteFloat32);
  74:../src/tensorflow/lite/micro/kernels/elementwise.cc **** }
  75:../src/tensorflow/lite/micro/kernels/elementwise.cc **** 
  76:../src/tensorflow/lite/micro/kernels/elementwise.cc **** inline TfLiteStatus EvalLogical(TfLiteContext* context, TfLiteNode* node,
  77:../src/tensorflow/lite/micro/kernels/elementwise.cc ****                                 bool bool_func(bool)) {
  78:../src/tensorflow/lite/micro/kernels/elementwise.cc ****   return EvalImpl<bool>(context, node, bool_func, kTfLiteBool);
  79:../src/tensorflow/lite/micro/kernels/elementwise.cc **** }
  80:../src/tensorflow/lite/micro/kernels/elementwise.cc **** 
  81:../src/tensorflow/lite/micro/kernels/elementwise.cc **** TfLiteStatus AbsEval(TfLiteContext* context, TfLiteNode* node) {
  82:../src/tensorflow/lite/micro/kernels/elementwise.cc ****   return EvalNumeric(context, node, std::abs);
  83:../src/tensorflow/lite/micro/kernels/elementwise.cc **** }
  84:../src/tensorflow/lite/micro/kernels/elementwise.cc **** 
  85:../src/tensorflow/lite/micro/kernels/elementwise.cc **** TfLiteStatus SinEval(TfLiteContext* context, TfLiteNode* node) {
  86:../src/tensorflow/lite/micro/kernels/elementwise.cc ****   return EvalNumeric(context, node, std::sin);
  87:../src/tensorflow/lite/micro/kernels/elementwise.cc **** }
  88:../src/tensorflow/lite/micro/kernels/elementwise.cc **** 
  89:../src/tensorflow/lite/micro/kernels/elementwise.cc **** TfLiteStatus CosEval(TfLiteContext* context, TfLiteNode* node) {
  90:../src/tensorflow/lite/micro/kernels/elementwise.cc ****   return EvalNumeric(context, node, std::cos);
  91:../src/tensorflow/lite/micro/kernels/elementwise.cc **** }
  92:../src/tensorflow/lite/micro/kernels/elementwise.cc **** 
  93:../src/tensorflow/lite/micro/kernels/elementwise.cc **** TfLiteStatus LogEval(TfLiteContext* context, TfLiteNode* node) {
  94:../src/tensorflow/lite/micro/kernels/elementwise.cc ****   return EvalNumeric(context, node, std::log);
  95:../src/tensorflow/lite/micro/kernels/elementwise.cc **** }
  96:../src/tensorflow/lite/micro/kernels/elementwise.cc **** 
  97:../src/tensorflow/lite/micro/kernels/elementwise.cc **** TfLiteStatus SqrtEval(TfLiteContext* context, TfLiteNode* node) {
 275                             		.loc 1 97 65 is_stmt 1
 276                             	.LVL36:
 277 0000 6E 6A                   		pushm	r6-r10
 278                             	.LCFI6:
 279 0002 71 00 E4                		add	#-28, r0
 280                             	.LCFI7:
  98:../src/tensorflow/lite/micro/kernels/elementwise.cc ****   return EvalNumeric(context, node, std::sqrt);
 281                             		.loc 1 98 3
 282                             	.LVL37:
  73:../src/tensorflow/lite/micro/kernels/elementwise.cc **** }
 283                             		.loc 1 73 3
 284                             		.file 3 "C:\\Users\\a5116938\\Desktop\\e2_studio_workspace\\EEMBC_final\\RX65N_Cloud_Kit\\src/tens
   1:C:\Users\a5116938\Desktop\e2_studio_workspace\EEMBC_final\RX65N_Cloud_Kit\src/tensorflow/lite/micro/kernels\kernel_util.h **** /* Copyright 2020 The TensorFlow Authors. All Rights Reserved.
   2:C:\Users\a5116938\Desktop\e2_studio_workspace\EEMBC_final\RX65N_Cloud_Kit\src/tensorflow/lite/micro/kernels\kernel_util.h **** 
   3:C:\Users\a5116938\Desktop\e2_studio_workspace\EEMBC_final\RX65N_Cloud_Kit\src/tensorflow/lite/micro/kernels\kernel_util.h **** Licensed under the Apache License, Version 2.0 (the "License");
   4:C:\Users\a5116938\Desktop\e2_studio_workspace\EEMBC_final\RX65N_Cloud_Kit\src/tensorflow/lite/micro/kernels\kernel_util.h **** you may not use this file except in compliance with the License.
   5:C:\Users\a5116938\Desktop\e2_studio_workspace\EEMBC_final\RX65N_Cloud_Kit\src/tensorflow/lite/micro/kernels\kernel_util.h **** You may obtain a copy of the License at
   6:C:\Users\a5116938\Desktop\e2_studio_workspace\EEMBC_final\RX65N_Cloud_Kit\src/tensorflow/lite/micro/kernels\kernel_util.h **** 
   7:C:\Users\a5116938\Desktop\e2_studio_workspace\EEMBC_final\RX65N_Cloud_Kit\src/tensorflow/lite/micro/kernels\kernel_util.h ****     http://www.apache.org/licenses/LICENSE-2.0
   8:C:\Users\a5116938\Desktop\e2_studio_workspace\EEMBC_final\RX65N_Cloud_Kit\src/tensorflow/lite/micro/kernels\kernel_util.h **** 
   9:C:\Users\a5116938\Desktop\e2_studio_workspace\EEMBC_final\RX65N_Cloud_Kit\src/tensorflow/lite/micro/kernels\kernel_util.h **** Unless required by applicable law or agreed to in writing, software
  10:C:\Users\a5116938\Desktop\e2_studio_workspace\EEMBC_final\RX65N_Cloud_Kit\src/tensorflow/lite/micro/kernels\kernel_util.h **** distributed under the License is distributed on an "AS IS" BASIS,
  11:C:\Users\a5116938\Desktop\e2_studio_workspace\EEMBC_final\RX65N_Cloud_Kit\src/tensorflow/lite/micro/kernels\kernel_util.h **** WITHOUT WARRANTIES OR CONDITIONS OF ANY KIND, either express or implied.
  12:C:\Users\a5116938\Desktop\e2_studio_workspace\EEMBC_final\RX65N_Cloud_Kit\src/tensorflow/lite/micro/kernels\kernel_util.h **** See the License for the specific language governing permissions and
  13:C:\Users\a5116938\Desktop\e2_studio_workspace\EEMBC_final\RX65N_Cloud_Kit\src/tensorflow/lite/micro/kernels\kernel_util.h **** limitations under the License.
  14:C:\Users\a5116938\Desktop\e2_studio_workspace\EEMBC_final\RX65N_Cloud_Kit\src/tensorflow/lite/micro/kernels\kernel_util.h **** ==============================================================================*/
  15:C:\Users\a5116938\Desktop\e2_studio_workspace\EEMBC_final\RX65N_Cloud_Kit\src/tensorflow/lite/micro/kernels\kernel_util.h **** 
  16:C:\Users\a5116938\Desktop\e2_studio_workspace\EEMBC_final\RX65N_Cloud_Kit\src/tensorflow/lite/micro/kernels\kernel_util.h **** #ifndef TENSORFLOW_LITE_MICRO_KERNELS_KERNEL_UTIL_H_
  17:C:\Users\a5116938\Desktop\e2_studio_workspace\EEMBC_final\RX65N_Cloud_Kit\src/tensorflow/lite/micro/kernels\kernel_util.h **** #define TENSORFLOW_LITE_MICRO_KERNELS_KERNEL_UTIL_H_
  18:C:\Users\a5116938\Desktop\e2_studio_workspace\EEMBC_final\RX65N_Cloud_Kit\src/tensorflow/lite/micro/kernels\kernel_util.h **** 
  19:C:\Users\a5116938\Desktop\e2_studio_workspace\EEMBC_final\RX65N_Cloud_Kit\src/tensorflow/lite/micro/kernels\kernel_util.h **** #include <cstdint>
  20:C:\Users\a5116938\Desktop\e2_studio_workspace\EEMBC_final\RX65N_Cloud_Kit\src/tensorflow/lite/micro/kernels\kernel_util.h **** 
  21:C:\Users\a5116938\Desktop\e2_studio_workspace\EEMBC_final\RX65N_Cloud_Kit\src/tensorflow/lite/micro/kernels\kernel_util.h **** #include "tensorflow/lite/c/common.h"
  22:C:\Users\a5116938\Desktop\e2_studio_workspace\EEMBC_final\RX65N_Cloud_Kit\src/tensorflow/lite/micro/kernels\kernel_util.h **** #include "tensorflow/lite/kernels/internal/compatibility.h"
  23:C:\Users\a5116938\Desktop\e2_studio_workspace\EEMBC_final\RX65N_Cloud_Kit\src/tensorflow/lite/micro/kernels\kernel_util.h **** #include "tensorflow/lite/kernels/internal/types.h"
  24:C:\Users\a5116938\Desktop\e2_studio_workspace\EEMBC_final\RX65N_Cloud_Kit\src/tensorflow/lite/micro/kernels\kernel_util.h **** 
  25:C:\Users\a5116938\Desktop\e2_studio_workspace\EEMBC_final\RX65N_Cloud_Kit\src/tensorflow/lite/micro/kernels\kernel_util.h **** namespace tflite {
  26:C:\Users\a5116938\Desktop\e2_studio_workspace\EEMBC_final\RX65N_Cloud_Kit\src/tensorflow/lite/micro/kernels\kernel_util.h **** namespace micro {
  27:C:\Users\a5116938\Desktop\e2_studio_workspace\EEMBC_final\RX65N_Cloud_Kit\src/tensorflow/lite/micro/kernels\kernel_util.h **** 
  28:C:\Users\a5116938\Desktop\e2_studio_workspace\EEMBC_final\RX65N_Cloud_Kit\src/tensorflow/lite/micro/kernels\kernel_util.h **** // Returns a mutable tensor for a given input index. is_variable must be checked
  29:C:\Users\a5116938\Desktop\e2_studio_workspace\EEMBC_final\RX65N_Cloud_Kit\src/tensorflow/lite/micro/kernels\kernel_util.h **** // during prepare when the full TfLiteTensor is available.
  30:C:\Users\a5116938\Desktop\e2_studio_workspace\EEMBC_final\RX65N_Cloud_Kit\src/tensorflow/lite/micro/kernels\kernel_util.h **** inline TfLiteEvalTensor* GetMutableEvalInput(const TfLiteContext* context,
  31:C:\Users\a5116938\Desktop\e2_studio_workspace\EEMBC_final\RX65N_Cloud_Kit\src/tensorflow/lite/micro/kernels\kernel_util.h ****                                              const TfLiteNode* node,
  32:C:\Users\a5116938\Desktop\e2_studio_workspace\EEMBC_final\RX65N_Cloud_Kit\src/tensorflow/lite/micro/kernels\kernel_util.h ****                                              int index) {
  33:C:\Users\a5116938\Desktop\e2_studio_workspace\EEMBC_final\RX65N_Cloud_Kit\src/tensorflow/lite/micro/kernels\kernel_util.h ****   TFLITE_DCHECK(context != nullptr);
  34:C:\Users\a5116938\Desktop\e2_studio_workspace\EEMBC_final\RX65N_Cloud_Kit\src/tensorflow/lite/micro/kernels\kernel_util.h ****   TFLITE_DCHECK(node != nullptr);
  35:C:\Users\a5116938\Desktop\e2_studio_workspace\EEMBC_final\RX65N_Cloud_Kit\src/tensorflow/lite/micro/kernels\kernel_util.h ****   return context->GetEvalTensor(context, node->inputs->data[index]);
  36:C:\Users\a5116938\Desktop\e2_studio_workspace\EEMBC_final\RX65N_Cloud_Kit\src/tensorflow/lite/micro/kernels\kernel_util.h **** }
  37:C:\Users\a5116938\Desktop\e2_studio_workspace\EEMBC_final\RX65N_Cloud_Kit\src/tensorflow/lite/micro/kernels\kernel_util.h **** 
  38:C:\Users\a5116938\Desktop\e2_studio_workspace\EEMBC_final\RX65N_Cloud_Kit\src/tensorflow/lite/micro/kernels\kernel_util.h **** // Returns the TfLiteEvalTensor struct for a given input index in a node.
  39:C:\Users\a5116938\Desktop\e2_studio_workspace\EEMBC_final\RX65N_Cloud_Kit\src/tensorflow/lite/micro/kernels\kernel_util.h **** inline const TfLiteEvalTensor* GetEvalInput(const TfLiteContext* context,
  40:C:\Users\a5116938\Desktop\e2_studio_workspace\EEMBC_final\RX65N_Cloud_Kit\src/tensorflow/lite/micro/kernels\kernel_util.h ****                                             const TfLiteNode* node, int index) {
  41:C:\Users\a5116938\Desktop\e2_studio_workspace\EEMBC_final\RX65N_Cloud_Kit\src/tensorflow/lite/micro/kernels\kernel_util.h ****   return GetMutableEvalInput(context, node, index);
 285                             		.loc 3 41 3
 286                             	.LBB163:
 287                             	.LBB164:
 288                             	.LBB165:
 289                             	.LBB166:
 290                             	.LBB167:
 291                             	.LBB168:
  33:C:\Users\a5116938\Desktop\e2_studio_workspace\EEMBC_final\RX65N_Cloud_Kit\src/tensorflow/lite/micro/kernels\kernel_util.h ****   TFLITE_DCHECK(node != nullptr);
 292                             		.loc 3 33 3
 293 0005 61 01                   		cmp	#0, r1
 294 0007 3A 8E 00                		beq	.L26
  34:C:\Users\a5116938\Desktop\e2_studio_workspace\EEMBC_final\RX65N_Cloud_Kit\src/tensorflow/lite/micro/kernels\kernel_util.h ****   return context->GetEvalTensor(context, node->inputs->data[index]);
 295                             		.loc 3 34 3 is_stmt 0
 296 000a 71 2A 00                		add	#0, r2, r10
 297 000d 3A 88 00                		beq	.L26
 298 0010 EF 17                   		mov.L	r1, r7
  35:C:\Users\a5116938\Desktop\e2_studio_workspace\EEMBC_final\RX65N_Cloud_Kit\src/tensorflow/lite/micro/kernels\kernel_util.h **** }
 299                             		.loc 3 35 3 is_stmt 1
  35:C:\Users\a5116938\Desktop\e2_studio_workspace\EEMBC_final\RX65N_Cloud_Kit\src/tensorflow/lite/micro/kernels\kernel_util.h **** }
 300                             		.loc 3 35 32 is_stmt 0
 301 0012 EC A4                   		mov.L	[r10], r4
 302 0014 AD 1D                   		mov.L	84[r1], r5
 303 0016 A8 4A                   		mov.L	4[r4], r2
 304                             	.LVL38:
 305 0018 7F 15                   		jsr	r5
 306                             	.LVL39:
 307 001a EF 16                   		mov.L	r1, r6
 308                             	.LVL40:
 309                             	.LBE168:
 310                             	.LBE167:
 311                             	.LBE166:
 312                             	.LBB171:
 313                             	.LBB172:
  42:C:\Users\a5116938\Desktop\e2_studio_workspace\EEMBC_final\RX65N_Cloud_Kit\src/tensorflow/lite/micro/kernels\kernel_util.h **** }
  43:C:\Users\a5116938\Desktop\e2_studio_workspace\EEMBC_final\RX65N_Cloud_Kit\src/tensorflow/lite/micro/kernels\kernel_util.h **** 
  44:C:\Users\a5116938\Desktop\e2_studio_workspace\EEMBC_final\RX65N_Cloud_Kit\src/tensorflow/lite/micro/kernels\kernel_util.h **** // Returns the TfLiteEvalTensor struct for a given output index in a node.
  45:C:\Users\a5116938\Desktop\e2_studio_workspace\EEMBC_final\RX65N_Cloud_Kit\src/tensorflow/lite/micro/kernels\kernel_util.h **** inline TfLiteEvalTensor* GetEvalOutput(const TfLiteContext* context,
  46:C:\Users\a5116938\Desktop\e2_studio_workspace\EEMBC_final\RX65N_Cloud_Kit\src/tensorflow/lite/micro/kernels\kernel_util.h ****                                        const TfLiteNode* node, int index) {
  47:C:\Users\a5116938\Desktop\e2_studio_workspace\EEMBC_final\RX65N_Cloud_Kit\src/tensorflow/lite/micro/kernels\kernel_util.h ****   TFLITE_DCHECK(context != nullptr);
 314                             		.loc 3 47 3 is_stmt 1
  48:C:\Users\a5116938\Desktop\e2_studio_workspace\EEMBC_final\RX65N_Cloud_Kit\src/tensorflow/lite/micro/kernels\kernel_util.h ****   TFLITE_DCHECK(node != nullptr);
 315                             		.loc 3 48 3
  49:C:\Users\a5116938\Desktop\e2_studio_workspace\EEMBC_final\RX65N_Cloud_Kit\src/tensorflow/lite/micro/kernels\kernel_util.h ****   return context->GetEvalTensor(context, node->outputs->data[index]);
 316                             		.loc 3 49 3
 317                             		.loc 3 49 32 is_stmt 0
 318 001c ED A5 01                		mov.L	4[r10], r5
 319 001f ED 7A 15                		mov.L	84[r7], r10
 320                             	.LVL41:
 321 0022 EF 71                   		mov.L	r7, r1
 322                             	.LVL42:
 323 0024 A8 5A                   		mov.L	4[r5], r2
 324 0026 7F 1A                   		jsr	r10
 325                             	.LVL43:
 326 0028 EF 1A                   		mov.L	r1, r10
 327                             	.LVL44:
 328                             	.LBE172:
 329                             	.LBE171:
  61:../src/tensorflow/lite/micro/kernels/elementwise.cc ****   const size_t num_elements = ElementCount(*input->dims);
 330                             		.loc 1 61 3
 331 002a A8 E1                   		mov.L	8[r6], r1
 332                             	.LVL45:
 333 002c 61 11                   		cmp	#1, r1
 334 002e 21 2D                   		bne	.L43
  62:../src/tensorflow/lite/micro/kernels/elementwise.cc ****   const T* in_data = tflite::micro::GetTensorData<T>(input);
 335                             		.loc 1 62 43
 336 0030 A8 69                   		mov.L	4[r6], r1
 337 0032 05 00 00 00             		bsr	__ZN6tflite12ElementCountERK14TfLiteIntArray
 338                             	.LVL46:
 339                             	.LBB173:
 340                             	.LBB174:
  50:C:\Users\a5116938\Desktop\e2_studio_workspace\EEMBC_final\RX65N_Cloud_Kit\src/tensorflow/lite/micro/kernels\kernel_util.h **** }
  51:C:\Users\a5116938\Desktop\e2_studio_workspace\EEMBC_final\RX65N_Cloud_Kit\src/tensorflow/lite/micro/kernels\kernel_util.h **** 
  52:C:\Users\a5116938\Desktop\e2_studio_workspace\EEMBC_final\RX65N_Cloud_Kit\src/tensorflow/lite/micro/kernels\kernel_util.h **** // Returns data for a TfLiteEvalTensor struct.
  53:C:\Users\a5116938\Desktop\e2_studio_workspace\EEMBC_final\RX65N_Cloud_Kit\src/tensorflow/lite/micro/kernels\kernel_util.h **** template <typename T>
  54:C:\Users\a5116938\Desktop\e2_studio_workspace\EEMBC_final\RX65N_Cloud_Kit\src/tensorflow/lite/micro/kernels\kernel_util.h **** T* GetTensorData(TfLiteEvalTensor* tensor) {
  55:C:\Users\a5116938\Desktop\e2_studio_workspace\EEMBC_final\RX65N_Cloud_Kit\src/tensorflow/lite/micro/kernels\kernel_util.h ****   return tensor != nullptr ? reinterpret_cast<T*>(tensor->data.raw) : nullptr;
  56:C:\Users\a5116938\Desktop\e2_studio_workspace\EEMBC_final\RX65N_Cloud_Kit\src/tensorflow/lite/micro/kernels\kernel_util.h **** }
  57:C:\Users\a5116938\Desktop\e2_studio_workspace\EEMBC_final\RX65N_Cloud_Kit\src/tensorflow/lite/micro/kernels\kernel_util.h **** 
  58:C:\Users\a5116938\Desktop\e2_studio_workspace\EEMBC_final\RX65N_Cloud_Kit\src/tensorflow/lite/micro/kernels\kernel_util.h **** // Returns const data for a TfLiteEvalTensor struct.
  59:C:\Users\a5116938\Desktop\e2_studio_workspace\EEMBC_final\RX65N_Cloud_Kit\src/tensorflow/lite/micro/kernels\kernel_util.h **** template <typename T>
  60:C:\Users\a5116938\Desktop\e2_studio_workspace\EEMBC_final\RX65N_Cloud_Kit\src/tensorflow/lite/micro/kernels\kernel_util.h **** const T* GetTensorData(const TfLiteEvalTensor* tensor) {
  61:C:\Users\a5116938\Desktop\e2_studio_workspace\EEMBC_final\RX65N_Cloud_Kit\src/tensorflow/lite/micro/kernels\kernel_util.h ****   TFLITE_DCHECK(tensor != nullptr);
  62:C:\Users\a5116938\Desktop\e2_studio_workspace\EEMBC_final\RX65N_Cloud_Kit\src/tensorflow/lite/micro/kernels\kernel_util.h ****   return reinterpret_cast<const T*>(tensor->data.raw);
 341                             		.loc 3 62 53
 342 0036 EC 67                   		mov.L	[r6], r7
 343                             	.LVL47:
 344                             	.LBE174:
 345                             	.LBE173:
 346                             	.LBB175:
 347                             	.LBB176:
  55:C:\Users\a5116938\Desktop\e2_studio_workspace\EEMBC_final\RX65N_Cloud_Kit\src/tensorflow/lite/micro/kernels\kernel_util.h **** }
 348                             		.loc 3 55 28
 349 0038 61 0A                   		cmp	#0, r10
 350 003a 13                      		beq	.L29
 351 003b EC AA                   		mov.L	[r10], r10
 352                             	.LVL48:
 353                             		.balign 8,3,1
 354                             	.L29:
 355                             	.LBE176:
 356                             	.LBE175:
 357                             	.LBB177:
  65:../src/tensorflow/lite/micro/kernels/elementwise.cc ****     out_data[i] = func(in_data[i]);
 358                             		.loc 1 65 24
 359 003d 61 01                   		cmp	#0, r1
 360 003f 20 17                   		beq	.L30
 361 0041 6C 21                   		shll	#2, r1
 362                             	.LVL49:
 363 0043 FF 26 17                		add	r1, r7, r6
 364                             	.LVL50:
 365 0046 EF 00                   		.balign 8,3,3
 366                             	.L31:
 367                             	.LBB178:
 368                             	.LBB179:
 369                             		.file 4 "c:\\gcc for renesas rx 8.3.0.202004-gnurx-elf\\rx-elf\\rx-elf\\rx-elf\\include\\c++\\8.3.
   1:c:\gcc for renesas rx 8.3.0.202004-gnurx-elf\rx-elf\rx-elf\rx-elf\include\c++\8.3.0.202004-gnurx\cmath **** // -*- C++ -*- C forwarding header.
   2:c:\gcc for renesas rx 8.3.0.202004-gnurx-elf\rx-elf\rx-elf\rx-elf\include\c++\8.3.0.202004-gnurx\cmath **** 
   3:c:\gcc for renesas rx 8.3.0.202004-gnurx-elf\rx-elf\rx-elf\rx-elf\include\c++\8.3.0.202004-gnurx\cmath **** // Copyright (C) 1997-2018 Free Software Foundation, Inc.
   4:c:\gcc for renesas rx 8.3.0.202004-gnurx-elf\rx-elf\rx-elf\rx-elf\include\c++\8.3.0.202004-gnurx\cmath **** //
   5:c:\gcc for renesas rx 8.3.0.202004-gnurx-elf\rx-elf\rx-elf\rx-elf\include\c++\8.3.0.202004-gnurx\cmath **** // This file is part of the GNU ISO C++ Library.  This library is free
   6:c:\gcc for renesas rx 8.3.0.202004-gnurx-elf\rx-elf\rx-elf\rx-elf\include\c++\8.3.0.202004-gnurx\cmath **** // software; you can redistribute it and/or modify it under the
   7:c:\gcc for renesas rx 8.3.0.202004-gnurx-elf\rx-elf\rx-elf\rx-elf\include\c++\8.3.0.202004-gnurx\cmath **** // terms of the GNU General Public License as published by the
   8:c:\gcc for renesas rx 8.3.0.202004-gnurx-elf\rx-elf\rx-elf\rx-elf\include\c++\8.3.0.202004-gnurx\cmath **** // Free Software Foundation; either version 3, or (at your option)
   9:c:\gcc for renesas rx 8.3.0.202004-gnurx-elf\rx-elf\rx-elf\rx-elf\include\c++\8.3.0.202004-gnurx\cmath **** // any later version.
  10:c:\gcc for renesas rx 8.3.0.202004-gnurx-elf\rx-elf\rx-elf\rx-elf\include\c++\8.3.0.202004-gnurx\cmath **** 
  11:c:\gcc for renesas rx 8.3.0.202004-gnurx-elf\rx-elf\rx-elf\rx-elf\include\c++\8.3.0.202004-gnurx\cmath **** // This library is distributed in the hope that it will be useful,
  12:c:\gcc for renesas rx 8.3.0.202004-gnurx-elf\rx-elf\rx-elf\rx-elf\include\c++\8.3.0.202004-gnurx\cmath **** // but WITHOUT ANY WARRANTY; without even the implied warranty of
  13:c:\gcc for renesas rx 8.3.0.202004-gnurx-elf\rx-elf\rx-elf\rx-elf\include\c++\8.3.0.202004-gnurx\cmath **** // MERCHANTABILITY or FITNESS FOR A PARTICULAR PURPOSE.  See the
  14:c:\gcc for renesas rx 8.3.0.202004-gnurx-elf\rx-elf\rx-elf\rx-elf\include\c++\8.3.0.202004-gnurx\cmath **** // GNU General Public License for more details.
  15:c:\gcc for renesas rx 8.3.0.202004-gnurx-elf\rx-elf\rx-elf\rx-elf\include\c++\8.3.0.202004-gnurx\cmath **** 
  16:c:\gcc for renesas rx 8.3.0.202004-gnurx-elf\rx-elf\rx-elf\rx-elf\include\c++\8.3.0.202004-gnurx\cmath **** // Under Section 7 of GPL version 3, you are granted additional
  17:c:\gcc for renesas rx 8.3.0.202004-gnurx-elf\rx-elf\rx-elf\rx-elf\include\c++\8.3.0.202004-gnurx\cmath **** // permissions described in the GCC Runtime Library Exception, version
  18:c:\gcc for renesas rx 8.3.0.202004-gnurx-elf\rx-elf\rx-elf\rx-elf\include\c++\8.3.0.202004-gnurx\cmath **** // 3.1, as published by the Free Software Foundation.
  19:c:\gcc for renesas rx 8.3.0.202004-gnurx-elf\rx-elf\rx-elf\rx-elf\include\c++\8.3.0.202004-gnurx\cmath **** 
  20:c:\gcc for renesas rx 8.3.0.202004-gnurx-elf\rx-elf\rx-elf\rx-elf\include\c++\8.3.0.202004-gnurx\cmath **** // You should have received a copy of the GNU General Public License and
  21:c:\gcc for renesas rx 8.3.0.202004-gnurx-elf\rx-elf\rx-elf\rx-elf\include\c++\8.3.0.202004-gnurx\cmath **** // a copy of the GCC Runtime Library Exception along with this program;
  22:c:\gcc for renesas rx 8.3.0.202004-gnurx-elf\rx-elf\rx-elf\rx-elf\include\c++\8.3.0.202004-gnurx\cmath **** // see the files COPYING3 and COPYING.RUNTIME respectively.  If not, see
  23:c:\gcc for renesas rx 8.3.0.202004-gnurx-elf\rx-elf\rx-elf\rx-elf\include\c++\8.3.0.202004-gnurx\cmath **** // <http://www.gnu.org/licenses/>.
  24:c:\gcc for renesas rx 8.3.0.202004-gnurx-elf\rx-elf\rx-elf\rx-elf\include\c++\8.3.0.202004-gnurx\cmath **** 
  25:c:\gcc for renesas rx 8.3.0.202004-gnurx-elf\rx-elf\rx-elf\rx-elf\include\c++\8.3.0.202004-gnurx\cmath **** /** @file include/cmath
  26:c:\gcc for renesas rx 8.3.0.202004-gnurx-elf\rx-elf\rx-elf\rx-elf\include\c++\8.3.0.202004-gnurx\cmath ****  *  This is a Standard C++ Library file.  You should @c \#include this file
  27:c:\gcc for renesas rx 8.3.0.202004-gnurx-elf\rx-elf\rx-elf\rx-elf\include\c++\8.3.0.202004-gnurx\cmath ****  *  in your programs, rather than any of the @a *.h implementation files.
  28:c:\gcc for renesas rx 8.3.0.202004-gnurx-elf\rx-elf\rx-elf\rx-elf\include\c++\8.3.0.202004-gnurx\cmath ****  *
  29:c:\gcc for renesas rx 8.3.0.202004-gnurx-elf\rx-elf\rx-elf\rx-elf\include\c++\8.3.0.202004-gnurx\cmath ****  *  This is the C++ version of the Standard C Library header @c math.h,
  30:c:\gcc for renesas rx 8.3.0.202004-gnurx-elf\rx-elf\rx-elf\rx-elf\include\c++\8.3.0.202004-gnurx\cmath ****  *  and its contents are (mostly) the same as that header, but are all
  31:c:\gcc for renesas rx 8.3.0.202004-gnurx-elf\rx-elf\rx-elf\rx-elf\include\c++\8.3.0.202004-gnurx\cmath ****  *  contained in the namespace @c std (except for names which are defined
  32:c:\gcc for renesas rx 8.3.0.202004-gnurx-elf\rx-elf\rx-elf\rx-elf\include\c++\8.3.0.202004-gnurx\cmath ****  *  as macros in C).
  33:c:\gcc for renesas rx 8.3.0.202004-gnurx-elf\rx-elf\rx-elf\rx-elf\include\c++\8.3.0.202004-gnurx\cmath ****  */
  34:c:\gcc for renesas rx 8.3.0.202004-gnurx-elf\rx-elf\rx-elf\rx-elf\include\c++\8.3.0.202004-gnurx\cmath **** 
  35:c:\gcc for renesas rx 8.3.0.202004-gnurx-elf\rx-elf\rx-elf\rx-elf\include\c++\8.3.0.202004-gnurx\cmath **** //
  36:c:\gcc for renesas rx 8.3.0.202004-gnurx-elf\rx-elf\rx-elf\rx-elf\include\c++\8.3.0.202004-gnurx\cmath **** // ISO C++ 14882: 26.5  C library
  37:c:\gcc for renesas rx 8.3.0.202004-gnurx-elf\rx-elf\rx-elf\rx-elf\include\c++\8.3.0.202004-gnurx\cmath **** //
  38:c:\gcc for renesas rx 8.3.0.202004-gnurx-elf\rx-elf\rx-elf\rx-elf\include\c++\8.3.0.202004-gnurx\cmath **** 
  39:c:\gcc for renesas rx 8.3.0.202004-gnurx-elf\rx-elf\rx-elf\rx-elf\include\c++\8.3.0.202004-gnurx\cmath **** #pragma GCC system_header
  40:c:\gcc for renesas rx 8.3.0.202004-gnurx-elf\rx-elf\rx-elf\rx-elf\include\c++\8.3.0.202004-gnurx\cmath **** 
  41:c:\gcc for renesas rx 8.3.0.202004-gnurx-elf\rx-elf\rx-elf\rx-elf\include\c++\8.3.0.202004-gnurx\cmath **** #include <bits/c++config.h>
  42:c:\gcc for renesas rx 8.3.0.202004-gnurx-elf\rx-elf\rx-elf\rx-elf\include\c++\8.3.0.202004-gnurx\cmath **** #include <bits/cpp_type_traits.h>
  43:c:\gcc for renesas rx 8.3.0.202004-gnurx-elf\rx-elf\rx-elf\rx-elf\include\c++\8.3.0.202004-gnurx\cmath **** #include <ext/type_traits.h>
  44:c:\gcc for renesas rx 8.3.0.202004-gnurx-elf\rx-elf\rx-elf\rx-elf\include\c++\8.3.0.202004-gnurx\cmath **** #define _GLIBCXX_INCLUDE_NEXT_C_HEADERS
  45:c:\gcc for renesas rx 8.3.0.202004-gnurx-elf\rx-elf\rx-elf\rx-elf\include\c++\8.3.0.202004-gnurx\cmath **** #include_next <math.h>
  46:c:\gcc for renesas rx 8.3.0.202004-gnurx-elf\rx-elf\rx-elf\rx-elf\include\c++\8.3.0.202004-gnurx\cmath **** #undef _GLIBCXX_INCLUDE_NEXT_C_HEADERS
  47:c:\gcc for renesas rx 8.3.0.202004-gnurx-elf\rx-elf\rx-elf\rx-elf\include\c++\8.3.0.202004-gnurx\cmath **** #include <bits/std_abs.h>
  48:c:\gcc for renesas rx 8.3.0.202004-gnurx-elf\rx-elf\rx-elf\rx-elf\include\c++\8.3.0.202004-gnurx\cmath **** 
  49:c:\gcc for renesas rx 8.3.0.202004-gnurx-elf\rx-elf\rx-elf\rx-elf\include\c++\8.3.0.202004-gnurx\cmath **** #ifndef _GLIBCXX_CMATH
  50:c:\gcc for renesas rx 8.3.0.202004-gnurx-elf\rx-elf\rx-elf\rx-elf\include\c++\8.3.0.202004-gnurx\cmath **** #define _GLIBCXX_CMATH 1
  51:c:\gcc for renesas rx 8.3.0.202004-gnurx-elf\rx-elf\rx-elf\rx-elf\include\c++\8.3.0.202004-gnurx\cmath **** 
  52:c:\gcc for renesas rx 8.3.0.202004-gnurx-elf\rx-elf\rx-elf\rx-elf\include\c++\8.3.0.202004-gnurx\cmath **** // Get rid of those macros defined in <math.h> in lieu of real functions.
  53:c:\gcc for renesas rx 8.3.0.202004-gnurx-elf\rx-elf\rx-elf\rx-elf\include\c++\8.3.0.202004-gnurx\cmath **** #undef div
  54:c:\gcc for renesas rx 8.3.0.202004-gnurx-elf\rx-elf\rx-elf\rx-elf\include\c++\8.3.0.202004-gnurx\cmath **** #undef acos
  55:c:\gcc for renesas rx 8.3.0.202004-gnurx-elf\rx-elf\rx-elf\rx-elf\include\c++\8.3.0.202004-gnurx\cmath **** #undef asin
  56:c:\gcc for renesas rx 8.3.0.202004-gnurx-elf\rx-elf\rx-elf\rx-elf\include\c++\8.3.0.202004-gnurx\cmath **** #undef atan
  57:c:\gcc for renesas rx 8.3.0.202004-gnurx-elf\rx-elf\rx-elf\rx-elf\include\c++\8.3.0.202004-gnurx\cmath **** #undef atan2
  58:c:\gcc for renesas rx 8.3.0.202004-gnurx-elf\rx-elf\rx-elf\rx-elf\include\c++\8.3.0.202004-gnurx\cmath **** #undef ceil
  59:c:\gcc for renesas rx 8.3.0.202004-gnurx-elf\rx-elf\rx-elf\rx-elf\include\c++\8.3.0.202004-gnurx\cmath **** #undef cos
  60:c:\gcc for renesas rx 8.3.0.202004-gnurx-elf\rx-elf\rx-elf\rx-elf\include\c++\8.3.0.202004-gnurx\cmath **** #undef cosh
  61:c:\gcc for renesas rx 8.3.0.202004-gnurx-elf\rx-elf\rx-elf\rx-elf\include\c++\8.3.0.202004-gnurx\cmath **** #undef exp
  62:c:\gcc for renesas rx 8.3.0.202004-gnurx-elf\rx-elf\rx-elf\rx-elf\include\c++\8.3.0.202004-gnurx\cmath **** #undef fabs
  63:c:\gcc for renesas rx 8.3.0.202004-gnurx-elf\rx-elf\rx-elf\rx-elf\include\c++\8.3.0.202004-gnurx\cmath **** #undef floor
  64:c:\gcc for renesas rx 8.3.0.202004-gnurx-elf\rx-elf\rx-elf\rx-elf\include\c++\8.3.0.202004-gnurx\cmath **** #undef fmod
  65:c:\gcc for renesas rx 8.3.0.202004-gnurx-elf\rx-elf\rx-elf\rx-elf\include\c++\8.3.0.202004-gnurx\cmath **** #undef frexp
  66:c:\gcc for renesas rx 8.3.0.202004-gnurx-elf\rx-elf\rx-elf\rx-elf\include\c++\8.3.0.202004-gnurx\cmath **** #undef ldexp
  67:c:\gcc for renesas rx 8.3.0.202004-gnurx-elf\rx-elf\rx-elf\rx-elf\include\c++\8.3.0.202004-gnurx\cmath **** #undef log
  68:c:\gcc for renesas rx 8.3.0.202004-gnurx-elf\rx-elf\rx-elf\rx-elf\include\c++\8.3.0.202004-gnurx\cmath **** #undef log10
  69:c:\gcc for renesas rx 8.3.0.202004-gnurx-elf\rx-elf\rx-elf\rx-elf\include\c++\8.3.0.202004-gnurx\cmath **** #undef modf
  70:c:\gcc for renesas rx 8.3.0.202004-gnurx-elf\rx-elf\rx-elf\rx-elf\include\c++\8.3.0.202004-gnurx\cmath **** #undef pow
  71:c:\gcc for renesas rx 8.3.0.202004-gnurx-elf\rx-elf\rx-elf\rx-elf\include\c++\8.3.0.202004-gnurx\cmath **** #undef sin
  72:c:\gcc for renesas rx 8.3.0.202004-gnurx-elf\rx-elf\rx-elf\rx-elf\include\c++\8.3.0.202004-gnurx\cmath **** #undef sinh
  73:c:\gcc for renesas rx 8.3.0.202004-gnurx-elf\rx-elf\rx-elf\rx-elf\include\c++\8.3.0.202004-gnurx\cmath **** #undef sqrt
  74:c:\gcc for renesas rx 8.3.0.202004-gnurx-elf\rx-elf\rx-elf\rx-elf\include\c++\8.3.0.202004-gnurx\cmath **** #undef tan
  75:c:\gcc for renesas rx 8.3.0.202004-gnurx-elf\rx-elf\rx-elf\rx-elf\include\c++\8.3.0.202004-gnurx\cmath **** #undef tanh
  76:c:\gcc for renesas rx 8.3.0.202004-gnurx-elf\rx-elf\rx-elf\rx-elf\include\c++\8.3.0.202004-gnurx\cmath **** 
  77:c:\gcc for renesas rx 8.3.0.202004-gnurx-elf\rx-elf\rx-elf\rx-elf\include\c++\8.3.0.202004-gnurx\cmath **** extern "C++"
  78:c:\gcc for renesas rx 8.3.0.202004-gnurx-elf\rx-elf\rx-elf\rx-elf\include\c++\8.3.0.202004-gnurx\cmath **** {
  79:c:\gcc for renesas rx 8.3.0.202004-gnurx-elf\rx-elf\rx-elf\rx-elf\include\c++\8.3.0.202004-gnurx\cmath **** namespace std _GLIBCXX_VISIBILITY(default)
  80:c:\gcc for renesas rx 8.3.0.202004-gnurx-elf\rx-elf\rx-elf\rx-elf\include\c++\8.3.0.202004-gnurx\cmath **** {
  81:c:\gcc for renesas rx 8.3.0.202004-gnurx-elf\rx-elf\rx-elf\rx-elf\include\c++\8.3.0.202004-gnurx\cmath **** _GLIBCXX_BEGIN_NAMESPACE_VERSION
  82:c:\gcc for renesas rx 8.3.0.202004-gnurx-elf\rx-elf\rx-elf\rx-elf\include\c++\8.3.0.202004-gnurx\cmath **** 
  83:c:\gcc for renesas rx 8.3.0.202004-gnurx-elf\rx-elf\rx-elf\rx-elf\include\c++\8.3.0.202004-gnurx\cmath ****   using ::acos;
  84:c:\gcc for renesas rx 8.3.0.202004-gnurx-elf\rx-elf\rx-elf\rx-elf\include\c++\8.3.0.202004-gnurx\cmath **** 
  85:c:\gcc for renesas rx 8.3.0.202004-gnurx-elf\rx-elf\rx-elf\rx-elf\include\c++\8.3.0.202004-gnurx\cmath **** #ifndef __CORRECT_ISO_CPP_MATH_H_PROTO
  86:c:\gcc for renesas rx 8.3.0.202004-gnurx-elf\rx-elf\rx-elf\rx-elf\include\c++\8.3.0.202004-gnurx\cmath ****   inline _GLIBCXX_CONSTEXPR float
  87:c:\gcc for renesas rx 8.3.0.202004-gnurx-elf\rx-elf\rx-elf\rx-elf\include\c++\8.3.0.202004-gnurx\cmath ****   acos(float __x)
  88:c:\gcc for renesas rx 8.3.0.202004-gnurx-elf\rx-elf\rx-elf\rx-elf\include\c++\8.3.0.202004-gnurx\cmath ****   { return __builtin_acosf(__x); }
  89:c:\gcc for renesas rx 8.3.0.202004-gnurx-elf\rx-elf\rx-elf\rx-elf\include\c++\8.3.0.202004-gnurx\cmath **** 
  90:c:\gcc for renesas rx 8.3.0.202004-gnurx-elf\rx-elf\rx-elf\rx-elf\include\c++\8.3.0.202004-gnurx\cmath ****   inline _GLIBCXX_CONSTEXPR long double
  91:c:\gcc for renesas rx 8.3.0.202004-gnurx-elf\rx-elf\rx-elf\rx-elf\include\c++\8.3.0.202004-gnurx\cmath ****   acos(long double __x)
  92:c:\gcc for renesas rx 8.3.0.202004-gnurx-elf\rx-elf\rx-elf\rx-elf\include\c++\8.3.0.202004-gnurx\cmath ****   { return __builtin_acosl(__x); }
  93:c:\gcc for renesas rx 8.3.0.202004-gnurx-elf\rx-elf\rx-elf\rx-elf\include\c++\8.3.0.202004-gnurx\cmath **** #endif
  94:c:\gcc for renesas rx 8.3.0.202004-gnurx-elf\rx-elf\rx-elf\rx-elf\include\c++\8.3.0.202004-gnurx\cmath **** 
  95:c:\gcc for renesas rx 8.3.0.202004-gnurx-elf\rx-elf\rx-elf\rx-elf\include\c++\8.3.0.202004-gnurx\cmath ****   template<typename _Tp>
  96:c:\gcc for renesas rx 8.3.0.202004-gnurx-elf\rx-elf\rx-elf\rx-elf\include\c++\8.3.0.202004-gnurx\cmath ****     inline _GLIBCXX_CONSTEXPR
  97:c:\gcc for renesas rx 8.3.0.202004-gnurx-elf\rx-elf\rx-elf\rx-elf\include\c++\8.3.0.202004-gnurx\cmath ****     typename __gnu_cxx::__enable_if<__is_integer<_Tp>::__value, 
  98:c:\gcc for renesas rx 8.3.0.202004-gnurx-elf\rx-elf\rx-elf\rx-elf\include\c++\8.3.0.202004-gnurx\cmath ****                                     double>::__type
  99:c:\gcc for renesas rx 8.3.0.202004-gnurx-elf\rx-elf\rx-elf\rx-elf\include\c++\8.3.0.202004-gnurx\cmath ****     acos(_Tp __x)
 100:c:\gcc for renesas rx 8.3.0.202004-gnurx-elf\rx-elf\rx-elf\rx-elf\include\c++\8.3.0.202004-gnurx\cmath ****     { return __builtin_acos(__x); }
 101:c:\gcc for renesas rx 8.3.0.202004-gnurx-elf\rx-elf\rx-elf\rx-elf\include\c++\8.3.0.202004-gnurx\cmath **** 
 102:c:\gcc for renesas rx 8.3.0.202004-gnurx-elf\rx-elf\rx-elf\rx-elf\include\c++\8.3.0.202004-gnurx\cmath ****   using ::asin;
 103:c:\gcc for renesas rx 8.3.0.202004-gnurx-elf\rx-elf\rx-elf\rx-elf\include\c++\8.3.0.202004-gnurx\cmath **** 
 104:c:\gcc for renesas rx 8.3.0.202004-gnurx-elf\rx-elf\rx-elf\rx-elf\include\c++\8.3.0.202004-gnurx\cmath **** #ifndef __CORRECT_ISO_CPP_MATH_H_PROTO
 105:c:\gcc for renesas rx 8.3.0.202004-gnurx-elf\rx-elf\rx-elf\rx-elf\include\c++\8.3.0.202004-gnurx\cmath ****   inline _GLIBCXX_CONSTEXPR float
 106:c:\gcc for renesas rx 8.3.0.202004-gnurx-elf\rx-elf\rx-elf\rx-elf\include\c++\8.3.0.202004-gnurx\cmath ****   asin(float __x)
 107:c:\gcc for renesas rx 8.3.0.202004-gnurx-elf\rx-elf\rx-elf\rx-elf\include\c++\8.3.0.202004-gnurx\cmath ****   { return __builtin_asinf(__x); }
 108:c:\gcc for renesas rx 8.3.0.202004-gnurx-elf\rx-elf\rx-elf\rx-elf\include\c++\8.3.0.202004-gnurx\cmath **** 
 109:c:\gcc for renesas rx 8.3.0.202004-gnurx-elf\rx-elf\rx-elf\rx-elf\include\c++\8.3.0.202004-gnurx\cmath ****   inline _GLIBCXX_CONSTEXPR long double
 110:c:\gcc for renesas rx 8.3.0.202004-gnurx-elf\rx-elf\rx-elf\rx-elf\include\c++\8.3.0.202004-gnurx\cmath ****   asin(long double __x)
 111:c:\gcc for renesas rx 8.3.0.202004-gnurx-elf\rx-elf\rx-elf\rx-elf\include\c++\8.3.0.202004-gnurx\cmath ****   { return __builtin_asinl(__x); }
 112:c:\gcc for renesas rx 8.3.0.202004-gnurx-elf\rx-elf\rx-elf\rx-elf\include\c++\8.3.0.202004-gnurx\cmath **** #endif
 113:c:\gcc for renesas rx 8.3.0.202004-gnurx-elf\rx-elf\rx-elf\rx-elf\include\c++\8.3.0.202004-gnurx\cmath **** 
 114:c:\gcc for renesas rx 8.3.0.202004-gnurx-elf\rx-elf\rx-elf\rx-elf\include\c++\8.3.0.202004-gnurx\cmath ****   template<typename _Tp>
 115:c:\gcc for renesas rx 8.3.0.202004-gnurx-elf\rx-elf\rx-elf\rx-elf\include\c++\8.3.0.202004-gnurx\cmath ****     inline _GLIBCXX_CONSTEXPR
 116:c:\gcc for renesas rx 8.3.0.202004-gnurx-elf\rx-elf\rx-elf\rx-elf\include\c++\8.3.0.202004-gnurx\cmath ****     typename __gnu_cxx::__enable_if<__is_integer<_Tp>::__value,
 117:c:\gcc for renesas rx 8.3.0.202004-gnurx-elf\rx-elf\rx-elf\rx-elf\include\c++\8.3.0.202004-gnurx\cmath ****                                     double>::__type
 118:c:\gcc for renesas rx 8.3.0.202004-gnurx-elf\rx-elf\rx-elf\rx-elf\include\c++\8.3.0.202004-gnurx\cmath ****     asin(_Tp __x)
 119:c:\gcc for renesas rx 8.3.0.202004-gnurx-elf\rx-elf\rx-elf\rx-elf\include\c++\8.3.0.202004-gnurx\cmath ****     { return __builtin_asin(__x); }
 120:c:\gcc for renesas rx 8.3.0.202004-gnurx-elf\rx-elf\rx-elf\rx-elf\include\c++\8.3.0.202004-gnurx\cmath **** 
 121:c:\gcc for renesas rx 8.3.0.202004-gnurx-elf\rx-elf\rx-elf\rx-elf\include\c++\8.3.0.202004-gnurx\cmath ****   using ::atan;
 122:c:\gcc for renesas rx 8.3.0.202004-gnurx-elf\rx-elf\rx-elf\rx-elf\include\c++\8.3.0.202004-gnurx\cmath **** 
 123:c:\gcc for renesas rx 8.3.0.202004-gnurx-elf\rx-elf\rx-elf\rx-elf\include\c++\8.3.0.202004-gnurx\cmath **** #ifndef __CORRECT_ISO_CPP_MATH_H_PROTO
 124:c:\gcc for renesas rx 8.3.0.202004-gnurx-elf\rx-elf\rx-elf\rx-elf\include\c++\8.3.0.202004-gnurx\cmath ****   inline _GLIBCXX_CONSTEXPR float
 125:c:\gcc for renesas rx 8.3.0.202004-gnurx-elf\rx-elf\rx-elf\rx-elf\include\c++\8.3.0.202004-gnurx\cmath ****   atan(float __x)
 126:c:\gcc for renesas rx 8.3.0.202004-gnurx-elf\rx-elf\rx-elf\rx-elf\include\c++\8.3.0.202004-gnurx\cmath ****   { return __builtin_atanf(__x); }
 127:c:\gcc for renesas rx 8.3.0.202004-gnurx-elf\rx-elf\rx-elf\rx-elf\include\c++\8.3.0.202004-gnurx\cmath **** 
 128:c:\gcc for renesas rx 8.3.0.202004-gnurx-elf\rx-elf\rx-elf\rx-elf\include\c++\8.3.0.202004-gnurx\cmath ****   inline _GLIBCXX_CONSTEXPR long double
 129:c:\gcc for renesas rx 8.3.0.202004-gnurx-elf\rx-elf\rx-elf\rx-elf\include\c++\8.3.0.202004-gnurx\cmath ****   atan(long double __x)
 130:c:\gcc for renesas rx 8.3.0.202004-gnurx-elf\rx-elf\rx-elf\rx-elf\include\c++\8.3.0.202004-gnurx\cmath ****   { return __builtin_atanl(__x); }
 131:c:\gcc for renesas rx 8.3.0.202004-gnurx-elf\rx-elf\rx-elf\rx-elf\include\c++\8.3.0.202004-gnurx\cmath **** #endif
 132:c:\gcc for renesas rx 8.3.0.202004-gnurx-elf\rx-elf\rx-elf\rx-elf\include\c++\8.3.0.202004-gnurx\cmath **** 
 133:c:\gcc for renesas rx 8.3.0.202004-gnurx-elf\rx-elf\rx-elf\rx-elf\include\c++\8.3.0.202004-gnurx\cmath ****   template<typename _Tp>
 134:c:\gcc for renesas rx 8.3.0.202004-gnurx-elf\rx-elf\rx-elf\rx-elf\include\c++\8.3.0.202004-gnurx\cmath ****     inline _GLIBCXX_CONSTEXPR
 135:c:\gcc for renesas rx 8.3.0.202004-gnurx-elf\rx-elf\rx-elf\rx-elf\include\c++\8.3.0.202004-gnurx\cmath ****     typename __gnu_cxx::__enable_if<__is_integer<_Tp>::__value,
 136:c:\gcc for renesas rx 8.3.0.202004-gnurx-elf\rx-elf\rx-elf\rx-elf\include\c++\8.3.0.202004-gnurx\cmath ****                                     double>::__type
 137:c:\gcc for renesas rx 8.3.0.202004-gnurx-elf\rx-elf\rx-elf\rx-elf\include\c++\8.3.0.202004-gnurx\cmath ****     atan(_Tp __x)
 138:c:\gcc for renesas rx 8.3.0.202004-gnurx-elf\rx-elf\rx-elf\rx-elf\include\c++\8.3.0.202004-gnurx\cmath ****     { return __builtin_atan(__x); }
 139:c:\gcc for renesas rx 8.3.0.202004-gnurx-elf\rx-elf\rx-elf\rx-elf\include\c++\8.3.0.202004-gnurx\cmath **** 
 140:c:\gcc for renesas rx 8.3.0.202004-gnurx-elf\rx-elf\rx-elf\rx-elf\include\c++\8.3.0.202004-gnurx\cmath ****   using ::atan2;
 141:c:\gcc for renesas rx 8.3.0.202004-gnurx-elf\rx-elf\rx-elf\rx-elf\include\c++\8.3.0.202004-gnurx\cmath **** 
 142:c:\gcc for renesas rx 8.3.0.202004-gnurx-elf\rx-elf\rx-elf\rx-elf\include\c++\8.3.0.202004-gnurx\cmath **** #ifndef __CORRECT_ISO_CPP_MATH_H_PROTO
 143:c:\gcc for renesas rx 8.3.0.202004-gnurx-elf\rx-elf\rx-elf\rx-elf\include\c++\8.3.0.202004-gnurx\cmath ****   inline _GLIBCXX_CONSTEXPR float
 144:c:\gcc for renesas rx 8.3.0.202004-gnurx-elf\rx-elf\rx-elf\rx-elf\include\c++\8.3.0.202004-gnurx\cmath ****   atan2(float __y, float __x)
 145:c:\gcc for renesas rx 8.3.0.202004-gnurx-elf\rx-elf\rx-elf\rx-elf\include\c++\8.3.0.202004-gnurx\cmath ****   { return __builtin_atan2f(__y, __x); }
 146:c:\gcc for renesas rx 8.3.0.202004-gnurx-elf\rx-elf\rx-elf\rx-elf\include\c++\8.3.0.202004-gnurx\cmath **** 
 147:c:\gcc for renesas rx 8.3.0.202004-gnurx-elf\rx-elf\rx-elf\rx-elf\include\c++\8.3.0.202004-gnurx\cmath ****   inline _GLIBCXX_CONSTEXPR long double
 148:c:\gcc for renesas rx 8.3.0.202004-gnurx-elf\rx-elf\rx-elf\rx-elf\include\c++\8.3.0.202004-gnurx\cmath ****   atan2(long double __y, long double __x)
 149:c:\gcc for renesas rx 8.3.0.202004-gnurx-elf\rx-elf\rx-elf\rx-elf\include\c++\8.3.0.202004-gnurx\cmath ****   { return __builtin_atan2l(__y, __x); }
 150:c:\gcc for renesas rx 8.3.0.202004-gnurx-elf\rx-elf\rx-elf\rx-elf\include\c++\8.3.0.202004-gnurx\cmath **** #endif
 151:c:\gcc for renesas rx 8.3.0.202004-gnurx-elf\rx-elf\rx-elf\rx-elf\include\c++\8.3.0.202004-gnurx\cmath **** 
 152:c:\gcc for renesas rx 8.3.0.202004-gnurx-elf\rx-elf\rx-elf\rx-elf\include\c++\8.3.0.202004-gnurx\cmath ****   template<typename _Tp, typename _Up>
 153:c:\gcc for renesas rx 8.3.0.202004-gnurx-elf\rx-elf\rx-elf\rx-elf\include\c++\8.3.0.202004-gnurx\cmath ****     inline _GLIBCXX_CONSTEXPR
 154:c:\gcc for renesas rx 8.3.0.202004-gnurx-elf\rx-elf\rx-elf\rx-elf\include\c++\8.3.0.202004-gnurx\cmath ****     typename __gnu_cxx::__promote_2<_Tp, _Up>::__type
 155:c:\gcc for renesas rx 8.3.0.202004-gnurx-elf\rx-elf\rx-elf\rx-elf\include\c++\8.3.0.202004-gnurx\cmath ****     atan2(_Tp __y, _Up __x)
 156:c:\gcc for renesas rx 8.3.0.202004-gnurx-elf\rx-elf\rx-elf\rx-elf\include\c++\8.3.0.202004-gnurx\cmath ****     {
 157:c:\gcc for renesas rx 8.3.0.202004-gnurx-elf\rx-elf\rx-elf\rx-elf\include\c++\8.3.0.202004-gnurx\cmath ****       typedef typename __gnu_cxx::__promote_2<_Tp, _Up>::__type __type;
 158:c:\gcc for renesas rx 8.3.0.202004-gnurx-elf\rx-elf\rx-elf\rx-elf\include\c++\8.3.0.202004-gnurx\cmath ****       return atan2(__type(__y), __type(__x));
 159:c:\gcc for renesas rx 8.3.0.202004-gnurx-elf\rx-elf\rx-elf\rx-elf\include\c++\8.3.0.202004-gnurx\cmath ****     }
 160:c:\gcc for renesas rx 8.3.0.202004-gnurx-elf\rx-elf\rx-elf\rx-elf\include\c++\8.3.0.202004-gnurx\cmath **** 
 161:c:\gcc for renesas rx 8.3.0.202004-gnurx-elf\rx-elf\rx-elf\rx-elf\include\c++\8.3.0.202004-gnurx\cmath ****   using ::ceil;
 162:c:\gcc for renesas rx 8.3.0.202004-gnurx-elf\rx-elf\rx-elf\rx-elf\include\c++\8.3.0.202004-gnurx\cmath **** 
 163:c:\gcc for renesas rx 8.3.0.202004-gnurx-elf\rx-elf\rx-elf\rx-elf\include\c++\8.3.0.202004-gnurx\cmath **** #ifndef __CORRECT_ISO_CPP_MATH_H_PROTO
 164:c:\gcc for renesas rx 8.3.0.202004-gnurx-elf\rx-elf\rx-elf\rx-elf\include\c++\8.3.0.202004-gnurx\cmath ****   inline _GLIBCXX_CONSTEXPR float
 165:c:\gcc for renesas rx 8.3.0.202004-gnurx-elf\rx-elf\rx-elf\rx-elf\include\c++\8.3.0.202004-gnurx\cmath ****   ceil(float __x)
 166:c:\gcc for renesas rx 8.3.0.202004-gnurx-elf\rx-elf\rx-elf\rx-elf\include\c++\8.3.0.202004-gnurx\cmath ****   { return __builtin_ceilf(__x); }
 167:c:\gcc for renesas rx 8.3.0.202004-gnurx-elf\rx-elf\rx-elf\rx-elf\include\c++\8.3.0.202004-gnurx\cmath **** 
 168:c:\gcc for renesas rx 8.3.0.202004-gnurx-elf\rx-elf\rx-elf\rx-elf\include\c++\8.3.0.202004-gnurx\cmath ****   inline _GLIBCXX_CONSTEXPR long double
 169:c:\gcc for renesas rx 8.3.0.202004-gnurx-elf\rx-elf\rx-elf\rx-elf\include\c++\8.3.0.202004-gnurx\cmath ****   ceil(long double __x)
 170:c:\gcc for renesas rx 8.3.0.202004-gnurx-elf\rx-elf\rx-elf\rx-elf\include\c++\8.3.0.202004-gnurx\cmath ****   { return __builtin_ceill(__x); }
 171:c:\gcc for renesas rx 8.3.0.202004-gnurx-elf\rx-elf\rx-elf\rx-elf\include\c++\8.3.0.202004-gnurx\cmath **** #endif
 172:c:\gcc for renesas rx 8.3.0.202004-gnurx-elf\rx-elf\rx-elf\rx-elf\include\c++\8.3.0.202004-gnurx\cmath **** 
 173:c:\gcc for renesas rx 8.3.0.202004-gnurx-elf\rx-elf\rx-elf\rx-elf\include\c++\8.3.0.202004-gnurx\cmath ****   template<typename _Tp>
 174:c:\gcc for renesas rx 8.3.0.202004-gnurx-elf\rx-elf\rx-elf\rx-elf\include\c++\8.3.0.202004-gnurx\cmath ****     inline _GLIBCXX_CONSTEXPR
 175:c:\gcc for renesas rx 8.3.0.202004-gnurx-elf\rx-elf\rx-elf\rx-elf\include\c++\8.3.0.202004-gnurx\cmath ****     typename __gnu_cxx::__enable_if<__is_integer<_Tp>::__value, 
 176:c:\gcc for renesas rx 8.3.0.202004-gnurx-elf\rx-elf\rx-elf\rx-elf\include\c++\8.3.0.202004-gnurx\cmath ****                                     double>::__type
 177:c:\gcc for renesas rx 8.3.0.202004-gnurx-elf\rx-elf\rx-elf\rx-elf\include\c++\8.3.0.202004-gnurx\cmath ****     ceil(_Tp __x)
 178:c:\gcc for renesas rx 8.3.0.202004-gnurx-elf\rx-elf\rx-elf\rx-elf\include\c++\8.3.0.202004-gnurx\cmath ****     { return __builtin_ceil(__x); }
 179:c:\gcc for renesas rx 8.3.0.202004-gnurx-elf\rx-elf\rx-elf\rx-elf\include\c++\8.3.0.202004-gnurx\cmath **** 
 180:c:\gcc for renesas rx 8.3.0.202004-gnurx-elf\rx-elf\rx-elf\rx-elf\include\c++\8.3.0.202004-gnurx\cmath ****   using ::cos;
 181:c:\gcc for renesas rx 8.3.0.202004-gnurx-elf\rx-elf\rx-elf\rx-elf\include\c++\8.3.0.202004-gnurx\cmath **** 
 182:c:\gcc for renesas rx 8.3.0.202004-gnurx-elf\rx-elf\rx-elf\rx-elf\include\c++\8.3.0.202004-gnurx\cmath **** #ifndef __CORRECT_ISO_CPP_MATH_H_PROTO
 183:c:\gcc for renesas rx 8.3.0.202004-gnurx-elf\rx-elf\rx-elf\rx-elf\include\c++\8.3.0.202004-gnurx\cmath ****   inline _GLIBCXX_CONSTEXPR float
 184:c:\gcc for renesas rx 8.3.0.202004-gnurx-elf\rx-elf\rx-elf\rx-elf\include\c++\8.3.0.202004-gnurx\cmath ****   cos(float __x)
 185:c:\gcc for renesas rx 8.3.0.202004-gnurx-elf\rx-elf\rx-elf\rx-elf\include\c++\8.3.0.202004-gnurx\cmath ****   { return __builtin_cosf(__x); }
 186:c:\gcc for renesas rx 8.3.0.202004-gnurx-elf\rx-elf\rx-elf\rx-elf\include\c++\8.3.0.202004-gnurx\cmath **** 
 187:c:\gcc for renesas rx 8.3.0.202004-gnurx-elf\rx-elf\rx-elf\rx-elf\include\c++\8.3.0.202004-gnurx\cmath ****   inline _GLIBCXX_CONSTEXPR long double
 188:c:\gcc for renesas rx 8.3.0.202004-gnurx-elf\rx-elf\rx-elf\rx-elf\include\c++\8.3.0.202004-gnurx\cmath ****   cos(long double __x)
 189:c:\gcc for renesas rx 8.3.0.202004-gnurx-elf\rx-elf\rx-elf\rx-elf\include\c++\8.3.0.202004-gnurx\cmath ****   { return __builtin_cosl(__x); }
 190:c:\gcc for renesas rx 8.3.0.202004-gnurx-elf\rx-elf\rx-elf\rx-elf\include\c++\8.3.0.202004-gnurx\cmath **** #endif
 191:c:\gcc for renesas rx 8.3.0.202004-gnurx-elf\rx-elf\rx-elf\rx-elf\include\c++\8.3.0.202004-gnurx\cmath **** 
 192:c:\gcc for renesas rx 8.3.0.202004-gnurx-elf\rx-elf\rx-elf\rx-elf\include\c++\8.3.0.202004-gnurx\cmath ****   template<typename _Tp>
 193:c:\gcc for renesas rx 8.3.0.202004-gnurx-elf\rx-elf\rx-elf\rx-elf\include\c++\8.3.0.202004-gnurx\cmath ****     inline _GLIBCXX_CONSTEXPR
 194:c:\gcc for renesas rx 8.3.0.202004-gnurx-elf\rx-elf\rx-elf\rx-elf\include\c++\8.3.0.202004-gnurx\cmath ****     typename __gnu_cxx::__enable_if<__is_integer<_Tp>::__value,
 195:c:\gcc for renesas rx 8.3.0.202004-gnurx-elf\rx-elf\rx-elf\rx-elf\include\c++\8.3.0.202004-gnurx\cmath ****                                     double>::__type
 196:c:\gcc for renesas rx 8.3.0.202004-gnurx-elf\rx-elf\rx-elf\rx-elf\include\c++\8.3.0.202004-gnurx\cmath ****     cos(_Tp __x)
 197:c:\gcc for renesas rx 8.3.0.202004-gnurx-elf\rx-elf\rx-elf\rx-elf\include\c++\8.3.0.202004-gnurx\cmath ****     { return __builtin_cos(__x); }
 198:c:\gcc for renesas rx 8.3.0.202004-gnurx-elf\rx-elf\rx-elf\rx-elf\include\c++\8.3.0.202004-gnurx\cmath **** 
 199:c:\gcc for renesas rx 8.3.0.202004-gnurx-elf\rx-elf\rx-elf\rx-elf\include\c++\8.3.0.202004-gnurx\cmath ****   using ::cosh;
 200:c:\gcc for renesas rx 8.3.0.202004-gnurx-elf\rx-elf\rx-elf\rx-elf\include\c++\8.3.0.202004-gnurx\cmath **** 
 201:c:\gcc for renesas rx 8.3.0.202004-gnurx-elf\rx-elf\rx-elf\rx-elf\include\c++\8.3.0.202004-gnurx\cmath **** #ifndef __CORRECT_ISO_CPP_MATH_H_PROTO
 202:c:\gcc for renesas rx 8.3.0.202004-gnurx-elf\rx-elf\rx-elf\rx-elf\include\c++\8.3.0.202004-gnurx\cmath ****   inline _GLIBCXX_CONSTEXPR float
 203:c:\gcc for renesas rx 8.3.0.202004-gnurx-elf\rx-elf\rx-elf\rx-elf\include\c++\8.3.0.202004-gnurx\cmath ****   cosh(float __x)
 204:c:\gcc for renesas rx 8.3.0.202004-gnurx-elf\rx-elf\rx-elf\rx-elf\include\c++\8.3.0.202004-gnurx\cmath ****   { return __builtin_coshf(__x); }
 205:c:\gcc for renesas rx 8.3.0.202004-gnurx-elf\rx-elf\rx-elf\rx-elf\include\c++\8.3.0.202004-gnurx\cmath **** 
 206:c:\gcc for renesas rx 8.3.0.202004-gnurx-elf\rx-elf\rx-elf\rx-elf\include\c++\8.3.0.202004-gnurx\cmath ****   inline _GLIBCXX_CONSTEXPR long double
 207:c:\gcc for renesas rx 8.3.0.202004-gnurx-elf\rx-elf\rx-elf\rx-elf\include\c++\8.3.0.202004-gnurx\cmath ****   cosh(long double __x)
 208:c:\gcc for renesas rx 8.3.0.202004-gnurx-elf\rx-elf\rx-elf\rx-elf\include\c++\8.3.0.202004-gnurx\cmath ****   { return __builtin_coshl(__x); }
 209:c:\gcc for renesas rx 8.3.0.202004-gnurx-elf\rx-elf\rx-elf\rx-elf\include\c++\8.3.0.202004-gnurx\cmath **** #endif
 210:c:\gcc for renesas rx 8.3.0.202004-gnurx-elf\rx-elf\rx-elf\rx-elf\include\c++\8.3.0.202004-gnurx\cmath **** 
 211:c:\gcc for renesas rx 8.3.0.202004-gnurx-elf\rx-elf\rx-elf\rx-elf\include\c++\8.3.0.202004-gnurx\cmath ****   template<typename _Tp>
 212:c:\gcc for renesas rx 8.3.0.202004-gnurx-elf\rx-elf\rx-elf\rx-elf\include\c++\8.3.0.202004-gnurx\cmath ****     inline _GLIBCXX_CONSTEXPR
 213:c:\gcc for renesas rx 8.3.0.202004-gnurx-elf\rx-elf\rx-elf\rx-elf\include\c++\8.3.0.202004-gnurx\cmath ****     typename __gnu_cxx::__enable_if<__is_integer<_Tp>::__value,
 214:c:\gcc for renesas rx 8.3.0.202004-gnurx-elf\rx-elf\rx-elf\rx-elf\include\c++\8.3.0.202004-gnurx\cmath ****                                     double>::__type
 215:c:\gcc for renesas rx 8.3.0.202004-gnurx-elf\rx-elf\rx-elf\rx-elf\include\c++\8.3.0.202004-gnurx\cmath ****     cosh(_Tp __x)
 216:c:\gcc for renesas rx 8.3.0.202004-gnurx-elf\rx-elf\rx-elf\rx-elf\include\c++\8.3.0.202004-gnurx\cmath ****     { return __builtin_cosh(__x); }
 217:c:\gcc for renesas rx 8.3.0.202004-gnurx-elf\rx-elf\rx-elf\rx-elf\include\c++\8.3.0.202004-gnurx\cmath **** 
 218:c:\gcc for renesas rx 8.3.0.202004-gnurx-elf\rx-elf\rx-elf\rx-elf\include\c++\8.3.0.202004-gnurx\cmath ****   using ::exp;
 219:c:\gcc for renesas rx 8.3.0.202004-gnurx-elf\rx-elf\rx-elf\rx-elf\include\c++\8.3.0.202004-gnurx\cmath **** 
 220:c:\gcc for renesas rx 8.3.0.202004-gnurx-elf\rx-elf\rx-elf\rx-elf\include\c++\8.3.0.202004-gnurx\cmath **** #ifndef __CORRECT_ISO_CPP_MATH_H_PROTO
 221:c:\gcc for renesas rx 8.3.0.202004-gnurx-elf\rx-elf\rx-elf\rx-elf\include\c++\8.3.0.202004-gnurx\cmath ****   inline _GLIBCXX_CONSTEXPR float
 222:c:\gcc for renesas rx 8.3.0.202004-gnurx-elf\rx-elf\rx-elf\rx-elf\include\c++\8.3.0.202004-gnurx\cmath ****   exp(float __x)
 223:c:\gcc for renesas rx 8.3.0.202004-gnurx-elf\rx-elf\rx-elf\rx-elf\include\c++\8.3.0.202004-gnurx\cmath ****   { return __builtin_expf(__x); }
 224:c:\gcc for renesas rx 8.3.0.202004-gnurx-elf\rx-elf\rx-elf\rx-elf\include\c++\8.3.0.202004-gnurx\cmath **** 
 225:c:\gcc for renesas rx 8.3.0.202004-gnurx-elf\rx-elf\rx-elf\rx-elf\include\c++\8.3.0.202004-gnurx\cmath ****   inline _GLIBCXX_CONSTEXPR long double
 226:c:\gcc for renesas rx 8.3.0.202004-gnurx-elf\rx-elf\rx-elf\rx-elf\include\c++\8.3.0.202004-gnurx\cmath ****   exp(long double __x)
 227:c:\gcc for renesas rx 8.3.0.202004-gnurx-elf\rx-elf\rx-elf\rx-elf\include\c++\8.3.0.202004-gnurx\cmath ****   { return __builtin_expl(__x); }
 228:c:\gcc for renesas rx 8.3.0.202004-gnurx-elf\rx-elf\rx-elf\rx-elf\include\c++\8.3.0.202004-gnurx\cmath **** #endif
 229:c:\gcc for renesas rx 8.3.0.202004-gnurx-elf\rx-elf\rx-elf\rx-elf\include\c++\8.3.0.202004-gnurx\cmath **** 
 230:c:\gcc for renesas rx 8.3.0.202004-gnurx-elf\rx-elf\rx-elf\rx-elf\include\c++\8.3.0.202004-gnurx\cmath ****   template<typename _Tp>
 231:c:\gcc for renesas rx 8.3.0.202004-gnurx-elf\rx-elf\rx-elf\rx-elf\include\c++\8.3.0.202004-gnurx\cmath ****     inline _GLIBCXX_CONSTEXPR
 232:c:\gcc for renesas rx 8.3.0.202004-gnurx-elf\rx-elf\rx-elf\rx-elf\include\c++\8.3.0.202004-gnurx\cmath ****     typename __gnu_cxx::__enable_if<__is_integer<_Tp>::__value,
 233:c:\gcc for renesas rx 8.3.0.202004-gnurx-elf\rx-elf\rx-elf\rx-elf\include\c++\8.3.0.202004-gnurx\cmath ****                                     double>::__type
 234:c:\gcc for renesas rx 8.3.0.202004-gnurx-elf\rx-elf\rx-elf\rx-elf\include\c++\8.3.0.202004-gnurx\cmath ****     exp(_Tp __x)
 235:c:\gcc for renesas rx 8.3.0.202004-gnurx-elf\rx-elf\rx-elf\rx-elf\include\c++\8.3.0.202004-gnurx\cmath ****     { return __builtin_exp(__x); }
 236:c:\gcc for renesas rx 8.3.0.202004-gnurx-elf\rx-elf\rx-elf\rx-elf\include\c++\8.3.0.202004-gnurx\cmath **** 
 237:c:\gcc for renesas rx 8.3.0.202004-gnurx-elf\rx-elf\rx-elf\rx-elf\include\c++\8.3.0.202004-gnurx\cmath ****   using ::fabs;
 238:c:\gcc for renesas rx 8.3.0.202004-gnurx-elf\rx-elf\rx-elf\rx-elf\include\c++\8.3.0.202004-gnurx\cmath **** 
 239:c:\gcc for renesas rx 8.3.0.202004-gnurx-elf\rx-elf\rx-elf\rx-elf\include\c++\8.3.0.202004-gnurx\cmath **** #ifndef __CORRECT_ISO_CPP_MATH_H_PROTO
 240:c:\gcc for renesas rx 8.3.0.202004-gnurx-elf\rx-elf\rx-elf\rx-elf\include\c++\8.3.0.202004-gnurx\cmath ****   inline _GLIBCXX_CONSTEXPR float
 241:c:\gcc for renesas rx 8.3.0.202004-gnurx-elf\rx-elf\rx-elf\rx-elf\include\c++\8.3.0.202004-gnurx\cmath ****   fabs(float __x)
 242:c:\gcc for renesas rx 8.3.0.202004-gnurx-elf\rx-elf\rx-elf\rx-elf\include\c++\8.3.0.202004-gnurx\cmath ****   { return __builtin_fabsf(__x); }
 243:c:\gcc for renesas rx 8.3.0.202004-gnurx-elf\rx-elf\rx-elf\rx-elf\include\c++\8.3.0.202004-gnurx\cmath **** 
 244:c:\gcc for renesas rx 8.3.0.202004-gnurx-elf\rx-elf\rx-elf\rx-elf\include\c++\8.3.0.202004-gnurx\cmath ****   inline _GLIBCXX_CONSTEXPR long double
 245:c:\gcc for renesas rx 8.3.0.202004-gnurx-elf\rx-elf\rx-elf\rx-elf\include\c++\8.3.0.202004-gnurx\cmath ****   fabs(long double __x)
 246:c:\gcc for renesas rx 8.3.0.202004-gnurx-elf\rx-elf\rx-elf\rx-elf\include\c++\8.3.0.202004-gnurx\cmath ****   { return __builtin_fabsl(__x); }
 247:c:\gcc for renesas rx 8.3.0.202004-gnurx-elf\rx-elf\rx-elf\rx-elf\include\c++\8.3.0.202004-gnurx\cmath **** #endif
 248:c:\gcc for renesas rx 8.3.0.202004-gnurx-elf\rx-elf\rx-elf\rx-elf\include\c++\8.3.0.202004-gnurx\cmath **** 
 249:c:\gcc for renesas rx 8.3.0.202004-gnurx-elf\rx-elf\rx-elf\rx-elf\include\c++\8.3.0.202004-gnurx\cmath ****   template<typename _Tp>
 250:c:\gcc for renesas rx 8.3.0.202004-gnurx-elf\rx-elf\rx-elf\rx-elf\include\c++\8.3.0.202004-gnurx\cmath ****     inline _GLIBCXX_CONSTEXPR
 251:c:\gcc for renesas rx 8.3.0.202004-gnurx-elf\rx-elf\rx-elf\rx-elf\include\c++\8.3.0.202004-gnurx\cmath ****     typename __gnu_cxx::__enable_if<__is_integer<_Tp>::__value,
 252:c:\gcc for renesas rx 8.3.0.202004-gnurx-elf\rx-elf\rx-elf\rx-elf\include\c++\8.3.0.202004-gnurx\cmath ****                                     double>::__type
 253:c:\gcc for renesas rx 8.3.0.202004-gnurx-elf\rx-elf\rx-elf\rx-elf\include\c++\8.3.0.202004-gnurx\cmath ****     fabs(_Tp __x)
 254:c:\gcc for renesas rx 8.3.0.202004-gnurx-elf\rx-elf\rx-elf\rx-elf\include\c++\8.3.0.202004-gnurx\cmath ****     { return __builtin_fabs(__x); }
 255:c:\gcc for renesas rx 8.3.0.202004-gnurx-elf\rx-elf\rx-elf\rx-elf\include\c++\8.3.0.202004-gnurx\cmath **** 
 256:c:\gcc for renesas rx 8.3.0.202004-gnurx-elf\rx-elf\rx-elf\rx-elf\include\c++\8.3.0.202004-gnurx\cmath ****   using ::floor;
 257:c:\gcc for renesas rx 8.3.0.202004-gnurx-elf\rx-elf\rx-elf\rx-elf\include\c++\8.3.0.202004-gnurx\cmath **** 
 258:c:\gcc for renesas rx 8.3.0.202004-gnurx-elf\rx-elf\rx-elf\rx-elf\include\c++\8.3.0.202004-gnurx\cmath **** #ifndef __CORRECT_ISO_CPP_MATH_H_PROTO
 259:c:\gcc for renesas rx 8.3.0.202004-gnurx-elf\rx-elf\rx-elf\rx-elf\include\c++\8.3.0.202004-gnurx\cmath ****   inline _GLIBCXX_CONSTEXPR float
 260:c:\gcc for renesas rx 8.3.0.202004-gnurx-elf\rx-elf\rx-elf\rx-elf\include\c++\8.3.0.202004-gnurx\cmath ****   floor(float __x)
 261:c:\gcc for renesas rx 8.3.0.202004-gnurx-elf\rx-elf\rx-elf\rx-elf\include\c++\8.3.0.202004-gnurx\cmath ****   { return __builtin_floorf(__x); }
 262:c:\gcc for renesas rx 8.3.0.202004-gnurx-elf\rx-elf\rx-elf\rx-elf\include\c++\8.3.0.202004-gnurx\cmath **** 
 263:c:\gcc for renesas rx 8.3.0.202004-gnurx-elf\rx-elf\rx-elf\rx-elf\include\c++\8.3.0.202004-gnurx\cmath ****   inline _GLIBCXX_CONSTEXPR long double
 264:c:\gcc for renesas rx 8.3.0.202004-gnurx-elf\rx-elf\rx-elf\rx-elf\include\c++\8.3.0.202004-gnurx\cmath ****   floor(long double __x)
 265:c:\gcc for renesas rx 8.3.0.202004-gnurx-elf\rx-elf\rx-elf\rx-elf\include\c++\8.3.0.202004-gnurx\cmath ****   { return __builtin_floorl(__x); }
 266:c:\gcc for renesas rx 8.3.0.202004-gnurx-elf\rx-elf\rx-elf\rx-elf\include\c++\8.3.0.202004-gnurx\cmath **** #endif
 267:c:\gcc for renesas rx 8.3.0.202004-gnurx-elf\rx-elf\rx-elf\rx-elf\include\c++\8.3.0.202004-gnurx\cmath **** 
 268:c:\gcc for renesas rx 8.3.0.202004-gnurx-elf\rx-elf\rx-elf\rx-elf\include\c++\8.3.0.202004-gnurx\cmath ****   template<typename _Tp>
 269:c:\gcc for renesas rx 8.3.0.202004-gnurx-elf\rx-elf\rx-elf\rx-elf\include\c++\8.3.0.202004-gnurx\cmath ****     inline _GLIBCXX_CONSTEXPR
 270:c:\gcc for renesas rx 8.3.0.202004-gnurx-elf\rx-elf\rx-elf\rx-elf\include\c++\8.3.0.202004-gnurx\cmath ****     typename __gnu_cxx::__enable_if<__is_integer<_Tp>::__value,
 271:c:\gcc for renesas rx 8.3.0.202004-gnurx-elf\rx-elf\rx-elf\rx-elf\include\c++\8.3.0.202004-gnurx\cmath ****                                     double>::__type
 272:c:\gcc for renesas rx 8.3.0.202004-gnurx-elf\rx-elf\rx-elf\rx-elf\include\c++\8.3.0.202004-gnurx\cmath ****     floor(_Tp __x)
 273:c:\gcc for renesas rx 8.3.0.202004-gnurx-elf\rx-elf\rx-elf\rx-elf\include\c++\8.3.0.202004-gnurx\cmath ****     { return __builtin_floor(__x); }
 274:c:\gcc for renesas rx 8.3.0.202004-gnurx-elf\rx-elf\rx-elf\rx-elf\include\c++\8.3.0.202004-gnurx\cmath **** 
 275:c:\gcc for renesas rx 8.3.0.202004-gnurx-elf\rx-elf\rx-elf\rx-elf\include\c++\8.3.0.202004-gnurx\cmath ****   using ::fmod;
 276:c:\gcc for renesas rx 8.3.0.202004-gnurx-elf\rx-elf\rx-elf\rx-elf\include\c++\8.3.0.202004-gnurx\cmath **** 
 277:c:\gcc for renesas rx 8.3.0.202004-gnurx-elf\rx-elf\rx-elf\rx-elf\include\c++\8.3.0.202004-gnurx\cmath **** #ifndef __CORRECT_ISO_CPP_MATH_H_PROTO
 278:c:\gcc for renesas rx 8.3.0.202004-gnurx-elf\rx-elf\rx-elf\rx-elf\include\c++\8.3.0.202004-gnurx\cmath ****   inline _GLIBCXX_CONSTEXPR float
 279:c:\gcc for renesas rx 8.3.0.202004-gnurx-elf\rx-elf\rx-elf\rx-elf\include\c++\8.3.0.202004-gnurx\cmath ****   fmod(float __x, float __y)
 280:c:\gcc for renesas rx 8.3.0.202004-gnurx-elf\rx-elf\rx-elf\rx-elf\include\c++\8.3.0.202004-gnurx\cmath ****   { return __builtin_fmodf(__x, __y); }
 281:c:\gcc for renesas rx 8.3.0.202004-gnurx-elf\rx-elf\rx-elf\rx-elf\include\c++\8.3.0.202004-gnurx\cmath **** 
 282:c:\gcc for renesas rx 8.3.0.202004-gnurx-elf\rx-elf\rx-elf\rx-elf\include\c++\8.3.0.202004-gnurx\cmath ****   inline _GLIBCXX_CONSTEXPR long double
 283:c:\gcc for renesas rx 8.3.0.202004-gnurx-elf\rx-elf\rx-elf\rx-elf\include\c++\8.3.0.202004-gnurx\cmath ****   fmod(long double __x, long double __y)
 284:c:\gcc for renesas rx 8.3.0.202004-gnurx-elf\rx-elf\rx-elf\rx-elf\include\c++\8.3.0.202004-gnurx\cmath ****   { return __builtin_fmodl(__x, __y); }
 285:c:\gcc for renesas rx 8.3.0.202004-gnurx-elf\rx-elf\rx-elf\rx-elf\include\c++\8.3.0.202004-gnurx\cmath **** #endif
 286:c:\gcc for renesas rx 8.3.0.202004-gnurx-elf\rx-elf\rx-elf\rx-elf\include\c++\8.3.0.202004-gnurx\cmath **** 
 287:c:\gcc for renesas rx 8.3.0.202004-gnurx-elf\rx-elf\rx-elf\rx-elf\include\c++\8.3.0.202004-gnurx\cmath ****   template<typename _Tp, typename _Up>
 288:c:\gcc for renesas rx 8.3.0.202004-gnurx-elf\rx-elf\rx-elf\rx-elf\include\c++\8.3.0.202004-gnurx\cmath ****     inline _GLIBCXX_CONSTEXPR
 289:c:\gcc for renesas rx 8.3.0.202004-gnurx-elf\rx-elf\rx-elf\rx-elf\include\c++\8.3.0.202004-gnurx\cmath ****     typename __gnu_cxx::__promote_2<_Tp, _Up>::__type
 290:c:\gcc for renesas rx 8.3.0.202004-gnurx-elf\rx-elf\rx-elf\rx-elf\include\c++\8.3.0.202004-gnurx\cmath ****     fmod(_Tp __x, _Up __y)
 291:c:\gcc for renesas rx 8.3.0.202004-gnurx-elf\rx-elf\rx-elf\rx-elf\include\c++\8.3.0.202004-gnurx\cmath ****     {
 292:c:\gcc for renesas rx 8.3.0.202004-gnurx-elf\rx-elf\rx-elf\rx-elf\include\c++\8.3.0.202004-gnurx\cmath ****       typedef typename __gnu_cxx::__promote_2<_Tp, _Up>::__type __type;
 293:c:\gcc for renesas rx 8.3.0.202004-gnurx-elf\rx-elf\rx-elf\rx-elf\include\c++\8.3.0.202004-gnurx\cmath ****       return fmod(__type(__x), __type(__y));
 294:c:\gcc for renesas rx 8.3.0.202004-gnurx-elf\rx-elf\rx-elf\rx-elf\include\c++\8.3.0.202004-gnurx\cmath ****     }
 295:c:\gcc for renesas rx 8.3.0.202004-gnurx-elf\rx-elf\rx-elf\rx-elf\include\c++\8.3.0.202004-gnurx\cmath **** 
 296:c:\gcc for renesas rx 8.3.0.202004-gnurx-elf\rx-elf\rx-elf\rx-elf\include\c++\8.3.0.202004-gnurx\cmath ****   using ::frexp;
 297:c:\gcc for renesas rx 8.3.0.202004-gnurx-elf\rx-elf\rx-elf\rx-elf\include\c++\8.3.0.202004-gnurx\cmath **** 
 298:c:\gcc for renesas rx 8.3.0.202004-gnurx-elf\rx-elf\rx-elf\rx-elf\include\c++\8.3.0.202004-gnurx\cmath **** #ifndef __CORRECT_ISO_CPP_MATH_H_PROTO
 299:c:\gcc for renesas rx 8.3.0.202004-gnurx-elf\rx-elf\rx-elf\rx-elf\include\c++\8.3.0.202004-gnurx\cmath ****   inline float
 300:c:\gcc for renesas rx 8.3.0.202004-gnurx-elf\rx-elf\rx-elf\rx-elf\include\c++\8.3.0.202004-gnurx\cmath ****   frexp(float __x, int* __exp)
 301:c:\gcc for renesas rx 8.3.0.202004-gnurx-elf\rx-elf\rx-elf\rx-elf\include\c++\8.3.0.202004-gnurx\cmath ****   { return __builtin_frexpf(__x, __exp); }
 302:c:\gcc for renesas rx 8.3.0.202004-gnurx-elf\rx-elf\rx-elf\rx-elf\include\c++\8.3.0.202004-gnurx\cmath **** 
 303:c:\gcc for renesas rx 8.3.0.202004-gnurx-elf\rx-elf\rx-elf\rx-elf\include\c++\8.3.0.202004-gnurx\cmath ****   inline long double
 304:c:\gcc for renesas rx 8.3.0.202004-gnurx-elf\rx-elf\rx-elf\rx-elf\include\c++\8.3.0.202004-gnurx\cmath ****   frexp(long double __x, int* __exp)
 305:c:\gcc for renesas rx 8.3.0.202004-gnurx-elf\rx-elf\rx-elf\rx-elf\include\c++\8.3.0.202004-gnurx\cmath ****   { return __builtin_frexpl(__x, __exp); }
 306:c:\gcc for renesas rx 8.3.0.202004-gnurx-elf\rx-elf\rx-elf\rx-elf\include\c++\8.3.0.202004-gnurx\cmath **** #endif
 307:c:\gcc for renesas rx 8.3.0.202004-gnurx-elf\rx-elf\rx-elf\rx-elf\include\c++\8.3.0.202004-gnurx\cmath **** 
 308:c:\gcc for renesas rx 8.3.0.202004-gnurx-elf\rx-elf\rx-elf\rx-elf\include\c++\8.3.0.202004-gnurx\cmath ****   template<typename _Tp>
 309:c:\gcc for renesas rx 8.3.0.202004-gnurx-elf\rx-elf\rx-elf\rx-elf\include\c++\8.3.0.202004-gnurx\cmath ****     inline _GLIBCXX_CONSTEXPR
 310:c:\gcc for renesas rx 8.3.0.202004-gnurx-elf\rx-elf\rx-elf\rx-elf\include\c++\8.3.0.202004-gnurx\cmath ****     typename __gnu_cxx::__enable_if<__is_integer<_Tp>::__value, 
 311:c:\gcc for renesas rx 8.3.0.202004-gnurx-elf\rx-elf\rx-elf\rx-elf\include\c++\8.3.0.202004-gnurx\cmath ****                                     double>::__type
 312:c:\gcc for renesas rx 8.3.0.202004-gnurx-elf\rx-elf\rx-elf\rx-elf\include\c++\8.3.0.202004-gnurx\cmath ****     frexp(_Tp __x, int* __exp)
 313:c:\gcc for renesas rx 8.3.0.202004-gnurx-elf\rx-elf\rx-elf\rx-elf\include\c++\8.3.0.202004-gnurx\cmath ****     { return __builtin_frexp(__x, __exp); }
 314:c:\gcc for renesas rx 8.3.0.202004-gnurx-elf\rx-elf\rx-elf\rx-elf\include\c++\8.3.0.202004-gnurx\cmath **** 
 315:c:\gcc for renesas rx 8.3.0.202004-gnurx-elf\rx-elf\rx-elf\rx-elf\include\c++\8.3.0.202004-gnurx\cmath ****   using ::ldexp;
 316:c:\gcc for renesas rx 8.3.0.202004-gnurx-elf\rx-elf\rx-elf\rx-elf\include\c++\8.3.0.202004-gnurx\cmath **** 
 317:c:\gcc for renesas rx 8.3.0.202004-gnurx-elf\rx-elf\rx-elf\rx-elf\include\c++\8.3.0.202004-gnurx\cmath **** #ifndef __CORRECT_ISO_CPP_MATH_H_PROTO
 318:c:\gcc for renesas rx 8.3.0.202004-gnurx-elf\rx-elf\rx-elf\rx-elf\include\c++\8.3.0.202004-gnurx\cmath ****   inline _GLIBCXX_CONSTEXPR float
 319:c:\gcc for renesas rx 8.3.0.202004-gnurx-elf\rx-elf\rx-elf\rx-elf\include\c++\8.3.0.202004-gnurx\cmath ****   ldexp(float __x, int __exp)
 320:c:\gcc for renesas rx 8.3.0.202004-gnurx-elf\rx-elf\rx-elf\rx-elf\include\c++\8.3.0.202004-gnurx\cmath ****   { return __builtin_ldexpf(__x, __exp); }
 321:c:\gcc for renesas rx 8.3.0.202004-gnurx-elf\rx-elf\rx-elf\rx-elf\include\c++\8.3.0.202004-gnurx\cmath **** 
 322:c:\gcc for renesas rx 8.3.0.202004-gnurx-elf\rx-elf\rx-elf\rx-elf\include\c++\8.3.0.202004-gnurx\cmath ****   inline _GLIBCXX_CONSTEXPR long double
 323:c:\gcc for renesas rx 8.3.0.202004-gnurx-elf\rx-elf\rx-elf\rx-elf\include\c++\8.3.0.202004-gnurx\cmath ****   ldexp(long double __x, int __exp)
 324:c:\gcc for renesas rx 8.3.0.202004-gnurx-elf\rx-elf\rx-elf\rx-elf\include\c++\8.3.0.202004-gnurx\cmath ****   { return __builtin_ldexpl(__x, __exp); }
 325:c:\gcc for renesas rx 8.3.0.202004-gnurx-elf\rx-elf\rx-elf\rx-elf\include\c++\8.3.0.202004-gnurx\cmath **** #endif
 326:c:\gcc for renesas rx 8.3.0.202004-gnurx-elf\rx-elf\rx-elf\rx-elf\include\c++\8.3.0.202004-gnurx\cmath **** 
 327:c:\gcc for renesas rx 8.3.0.202004-gnurx-elf\rx-elf\rx-elf\rx-elf\include\c++\8.3.0.202004-gnurx\cmath ****   template<typename _Tp>
 328:c:\gcc for renesas rx 8.3.0.202004-gnurx-elf\rx-elf\rx-elf\rx-elf\include\c++\8.3.0.202004-gnurx\cmath ****     inline _GLIBCXX_CONSTEXPR
 329:c:\gcc for renesas rx 8.3.0.202004-gnurx-elf\rx-elf\rx-elf\rx-elf\include\c++\8.3.0.202004-gnurx\cmath ****     typename __gnu_cxx::__enable_if<__is_integer<_Tp>::__value, 
 330:c:\gcc for renesas rx 8.3.0.202004-gnurx-elf\rx-elf\rx-elf\rx-elf\include\c++\8.3.0.202004-gnurx\cmath ****                                     double>::__type
 331:c:\gcc for renesas rx 8.3.0.202004-gnurx-elf\rx-elf\rx-elf\rx-elf\include\c++\8.3.0.202004-gnurx\cmath ****     ldexp(_Tp __x, int __exp)
 332:c:\gcc for renesas rx 8.3.0.202004-gnurx-elf\rx-elf\rx-elf\rx-elf\include\c++\8.3.0.202004-gnurx\cmath ****     { return __builtin_ldexp(__x, __exp); }
 333:c:\gcc for renesas rx 8.3.0.202004-gnurx-elf\rx-elf\rx-elf\rx-elf\include\c++\8.3.0.202004-gnurx\cmath **** 
 334:c:\gcc for renesas rx 8.3.0.202004-gnurx-elf\rx-elf\rx-elf\rx-elf\include\c++\8.3.0.202004-gnurx\cmath ****   using ::log;
 335:c:\gcc for renesas rx 8.3.0.202004-gnurx-elf\rx-elf\rx-elf\rx-elf\include\c++\8.3.0.202004-gnurx\cmath **** 
 336:c:\gcc for renesas rx 8.3.0.202004-gnurx-elf\rx-elf\rx-elf\rx-elf\include\c++\8.3.0.202004-gnurx\cmath **** #ifndef __CORRECT_ISO_CPP_MATH_H_PROTO
 337:c:\gcc for renesas rx 8.3.0.202004-gnurx-elf\rx-elf\rx-elf\rx-elf\include\c++\8.3.0.202004-gnurx\cmath ****   inline _GLIBCXX_CONSTEXPR float
 338:c:\gcc for renesas rx 8.3.0.202004-gnurx-elf\rx-elf\rx-elf\rx-elf\include\c++\8.3.0.202004-gnurx\cmath ****   log(float __x)
 339:c:\gcc for renesas rx 8.3.0.202004-gnurx-elf\rx-elf\rx-elf\rx-elf\include\c++\8.3.0.202004-gnurx\cmath ****   { return __builtin_logf(__x); }
 340:c:\gcc for renesas rx 8.3.0.202004-gnurx-elf\rx-elf\rx-elf\rx-elf\include\c++\8.3.0.202004-gnurx\cmath **** 
 341:c:\gcc for renesas rx 8.3.0.202004-gnurx-elf\rx-elf\rx-elf\rx-elf\include\c++\8.3.0.202004-gnurx\cmath ****   inline _GLIBCXX_CONSTEXPR long double
 342:c:\gcc for renesas rx 8.3.0.202004-gnurx-elf\rx-elf\rx-elf\rx-elf\include\c++\8.3.0.202004-gnurx\cmath ****   log(long double __x)
 343:c:\gcc for renesas rx 8.3.0.202004-gnurx-elf\rx-elf\rx-elf\rx-elf\include\c++\8.3.0.202004-gnurx\cmath ****   { return __builtin_logl(__x); }
 344:c:\gcc for renesas rx 8.3.0.202004-gnurx-elf\rx-elf\rx-elf\rx-elf\include\c++\8.3.0.202004-gnurx\cmath **** #endif
 345:c:\gcc for renesas rx 8.3.0.202004-gnurx-elf\rx-elf\rx-elf\rx-elf\include\c++\8.3.0.202004-gnurx\cmath **** 
 346:c:\gcc for renesas rx 8.3.0.202004-gnurx-elf\rx-elf\rx-elf\rx-elf\include\c++\8.3.0.202004-gnurx\cmath ****   template<typename _Tp>
 347:c:\gcc for renesas rx 8.3.0.202004-gnurx-elf\rx-elf\rx-elf\rx-elf\include\c++\8.3.0.202004-gnurx\cmath ****     inline _GLIBCXX_CONSTEXPR
 348:c:\gcc for renesas rx 8.3.0.202004-gnurx-elf\rx-elf\rx-elf\rx-elf\include\c++\8.3.0.202004-gnurx\cmath ****     typename __gnu_cxx::__enable_if<__is_integer<_Tp>::__value, 
 349:c:\gcc for renesas rx 8.3.0.202004-gnurx-elf\rx-elf\rx-elf\rx-elf\include\c++\8.3.0.202004-gnurx\cmath ****                                     double>::__type
 350:c:\gcc for renesas rx 8.3.0.202004-gnurx-elf\rx-elf\rx-elf\rx-elf\include\c++\8.3.0.202004-gnurx\cmath ****     log(_Tp __x)
 351:c:\gcc for renesas rx 8.3.0.202004-gnurx-elf\rx-elf\rx-elf\rx-elf\include\c++\8.3.0.202004-gnurx\cmath ****     { return __builtin_log(__x); }
 352:c:\gcc for renesas rx 8.3.0.202004-gnurx-elf\rx-elf\rx-elf\rx-elf\include\c++\8.3.0.202004-gnurx\cmath **** 
 353:c:\gcc for renesas rx 8.3.0.202004-gnurx-elf\rx-elf\rx-elf\rx-elf\include\c++\8.3.0.202004-gnurx\cmath ****   using ::log10;
 354:c:\gcc for renesas rx 8.3.0.202004-gnurx-elf\rx-elf\rx-elf\rx-elf\include\c++\8.3.0.202004-gnurx\cmath **** 
 355:c:\gcc for renesas rx 8.3.0.202004-gnurx-elf\rx-elf\rx-elf\rx-elf\include\c++\8.3.0.202004-gnurx\cmath **** #ifndef __CORRECT_ISO_CPP_MATH_H_PROTO
 356:c:\gcc for renesas rx 8.3.0.202004-gnurx-elf\rx-elf\rx-elf\rx-elf\include\c++\8.3.0.202004-gnurx\cmath ****   inline _GLIBCXX_CONSTEXPR float
 357:c:\gcc for renesas rx 8.3.0.202004-gnurx-elf\rx-elf\rx-elf\rx-elf\include\c++\8.3.0.202004-gnurx\cmath ****   log10(float __x)
 358:c:\gcc for renesas rx 8.3.0.202004-gnurx-elf\rx-elf\rx-elf\rx-elf\include\c++\8.3.0.202004-gnurx\cmath ****   { return __builtin_log10f(__x); }
 359:c:\gcc for renesas rx 8.3.0.202004-gnurx-elf\rx-elf\rx-elf\rx-elf\include\c++\8.3.0.202004-gnurx\cmath **** 
 360:c:\gcc for renesas rx 8.3.0.202004-gnurx-elf\rx-elf\rx-elf\rx-elf\include\c++\8.3.0.202004-gnurx\cmath ****   inline _GLIBCXX_CONSTEXPR long double
 361:c:\gcc for renesas rx 8.3.0.202004-gnurx-elf\rx-elf\rx-elf\rx-elf\include\c++\8.3.0.202004-gnurx\cmath ****   log10(long double __x)
 362:c:\gcc for renesas rx 8.3.0.202004-gnurx-elf\rx-elf\rx-elf\rx-elf\include\c++\8.3.0.202004-gnurx\cmath ****   { return __builtin_log10l(__x); }
 363:c:\gcc for renesas rx 8.3.0.202004-gnurx-elf\rx-elf\rx-elf\rx-elf\include\c++\8.3.0.202004-gnurx\cmath **** #endif
 364:c:\gcc for renesas rx 8.3.0.202004-gnurx-elf\rx-elf\rx-elf\rx-elf\include\c++\8.3.0.202004-gnurx\cmath **** 
 365:c:\gcc for renesas rx 8.3.0.202004-gnurx-elf\rx-elf\rx-elf\rx-elf\include\c++\8.3.0.202004-gnurx\cmath ****   template<typename _Tp>
 366:c:\gcc for renesas rx 8.3.0.202004-gnurx-elf\rx-elf\rx-elf\rx-elf\include\c++\8.3.0.202004-gnurx\cmath ****     inline _GLIBCXX_CONSTEXPR
 367:c:\gcc for renesas rx 8.3.0.202004-gnurx-elf\rx-elf\rx-elf\rx-elf\include\c++\8.3.0.202004-gnurx\cmath ****     typename __gnu_cxx::__enable_if<__is_integer<_Tp>::__value,
 368:c:\gcc for renesas rx 8.3.0.202004-gnurx-elf\rx-elf\rx-elf\rx-elf\include\c++\8.3.0.202004-gnurx\cmath ****                                     double>::__type
 369:c:\gcc for renesas rx 8.3.0.202004-gnurx-elf\rx-elf\rx-elf\rx-elf\include\c++\8.3.0.202004-gnurx\cmath ****     log10(_Tp __x)
 370:c:\gcc for renesas rx 8.3.0.202004-gnurx-elf\rx-elf\rx-elf\rx-elf\include\c++\8.3.0.202004-gnurx\cmath ****     { return __builtin_log10(__x); }
 371:c:\gcc for renesas rx 8.3.0.202004-gnurx-elf\rx-elf\rx-elf\rx-elf\include\c++\8.3.0.202004-gnurx\cmath **** 
 372:c:\gcc for renesas rx 8.3.0.202004-gnurx-elf\rx-elf\rx-elf\rx-elf\include\c++\8.3.0.202004-gnurx\cmath ****   using ::modf;
 373:c:\gcc for renesas rx 8.3.0.202004-gnurx-elf\rx-elf\rx-elf\rx-elf\include\c++\8.3.0.202004-gnurx\cmath **** 
 374:c:\gcc for renesas rx 8.3.0.202004-gnurx-elf\rx-elf\rx-elf\rx-elf\include\c++\8.3.0.202004-gnurx\cmath **** #ifndef __CORRECT_ISO_CPP_MATH_H_PROTO
 375:c:\gcc for renesas rx 8.3.0.202004-gnurx-elf\rx-elf\rx-elf\rx-elf\include\c++\8.3.0.202004-gnurx\cmath ****   inline float
 376:c:\gcc for renesas rx 8.3.0.202004-gnurx-elf\rx-elf\rx-elf\rx-elf\include\c++\8.3.0.202004-gnurx\cmath ****   modf(float __x, float* __iptr)
 377:c:\gcc for renesas rx 8.3.0.202004-gnurx-elf\rx-elf\rx-elf\rx-elf\include\c++\8.3.0.202004-gnurx\cmath ****   { return __builtin_modff(__x, __iptr); }
 378:c:\gcc for renesas rx 8.3.0.202004-gnurx-elf\rx-elf\rx-elf\rx-elf\include\c++\8.3.0.202004-gnurx\cmath **** 
 379:c:\gcc for renesas rx 8.3.0.202004-gnurx-elf\rx-elf\rx-elf\rx-elf\include\c++\8.3.0.202004-gnurx\cmath ****   inline long double
 380:c:\gcc for renesas rx 8.3.0.202004-gnurx-elf\rx-elf\rx-elf\rx-elf\include\c++\8.3.0.202004-gnurx\cmath ****   modf(long double __x, long double* __iptr)
 381:c:\gcc for renesas rx 8.3.0.202004-gnurx-elf\rx-elf\rx-elf\rx-elf\include\c++\8.3.0.202004-gnurx\cmath ****   { return __builtin_modfl(__x, __iptr); }
 382:c:\gcc for renesas rx 8.3.0.202004-gnurx-elf\rx-elf\rx-elf\rx-elf\include\c++\8.3.0.202004-gnurx\cmath **** #endif
 383:c:\gcc for renesas rx 8.3.0.202004-gnurx-elf\rx-elf\rx-elf\rx-elf\include\c++\8.3.0.202004-gnurx\cmath **** 
 384:c:\gcc for renesas rx 8.3.0.202004-gnurx-elf\rx-elf\rx-elf\rx-elf\include\c++\8.3.0.202004-gnurx\cmath ****   using ::pow;
 385:c:\gcc for renesas rx 8.3.0.202004-gnurx-elf\rx-elf\rx-elf\rx-elf\include\c++\8.3.0.202004-gnurx\cmath **** 
 386:c:\gcc for renesas rx 8.3.0.202004-gnurx-elf\rx-elf\rx-elf\rx-elf\include\c++\8.3.0.202004-gnurx\cmath **** #ifndef __CORRECT_ISO_CPP_MATH_H_PROTO
 387:c:\gcc for renesas rx 8.3.0.202004-gnurx-elf\rx-elf\rx-elf\rx-elf\include\c++\8.3.0.202004-gnurx\cmath ****   inline _GLIBCXX_CONSTEXPR float
 388:c:\gcc for renesas rx 8.3.0.202004-gnurx-elf\rx-elf\rx-elf\rx-elf\include\c++\8.3.0.202004-gnurx\cmath ****   pow(float __x, float __y)
 389:c:\gcc for renesas rx 8.3.0.202004-gnurx-elf\rx-elf\rx-elf\rx-elf\include\c++\8.3.0.202004-gnurx\cmath ****   { return __builtin_powf(__x, __y); }
 390:c:\gcc for renesas rx 8.3.0.202004-gnurx-elf\rx-elf\rx-elf\rx-elf\include\c++\8.3.0.202004-gnurx\cmath **** 
 391:c:\gcc for renesas rx 8.3.0.202004-gnurx-elf\rx-elf\rx-elf\rx-elf\include\c++\8.3.0.202004-gnurx\cmath ****   inline _GLIBCXX_CONSTEXPR long double
 392:c:\gcc for renesas rx 8.3.0.202004-gnurx-elf\rx-elf\rx-elf\rx-elf\include\c++\8.3.0.202004-gnurx\cmath ****   pow(long double __x, long double __y)
 393:c:\gcc for renesas rx 8.3.0.202004-gnurx-elf\rx-elf\rx-elf\rx-elf\include\c++\8.3.0.202004-gnurx\cmath ****   { return __builtin_powl(__x, __y); }
 394:c:\gcc for renesas rx 8.3.0.202004-gnurx-elf\rx-elf\rx-elf\rx-elf\include\c++\8.3.0.202004-gnurx\cmath **** 
 395:c:\gcc for renesas rx 8.3.0.202004-gnurx-elf\rx-elf\rx-elf\rx-elf\include\c++\8.3.0.202004-gnurx\cmath **** #if __cplusplus < 201103L
 396:c:\gcc for renesas rx 8.3.0.202004-gnurx-elf\rx-elf\rx-elf\rx-elf\include\c++\8.3.0.202004-gnurx\cmath ****   // _GLIBCXX_RESOLVE_LIB_DEFECTS
 397:c:\gcc for renesas rx 8.3.0.202004-gnurx-elf\rx-elf\rx-elf\rx-elf\include\c++\8.3.0.202004-gnurx\cmath ****   // DR 550. What should the return type of pow(float,int) be?
 398:c:\gcc for renesas rx 8.3.0.202004-gnurx-elf\rx-elf\rx-elf\rx-elf\include\c++\8.3.0.202004-gnurx\cmath ****   inline double
 399:c:\gcc for renesas rx 8.3.0.202004-gnurx-elf\rx-elf\rx-elf\rx-elf\include\c++\8.3.0.202004-gnurx\cmath ****   pow(double __x, int __i)
 400:c:\gcc for renesas rx 8.3.0.202004-gnurx-elf\rx-elf\rx-elf\rx-elf\include\c++\8.3.0.202004-gnurx\cmath ****   { return __builtin_powi(__x, __i); }
 401:c:\gcc for renesas rx 8.3.0.202004-gnurx-elf\rx-elf\rx-elf\rx-elf\include\c++\8.3.0.202004-gnurx\cmath **** 
 402:c:\gcc for renesas rx 8.3.0.202004-gnurx-elf\rx-elf\rx-elf\rx-elf\include\c++\8.3.0.202004-gnurx\cmath ****   inline float
 403:c:\gcc for renesas rx 8.3.0.202004-gnurx-elf\rx-elf\rx-elf\rx-elf\include\c++\8.3.0.202004-gnurx\cmath ****   pow(float __x, int __n)
 404:c:\gcc for renesas rx 8.3.0.202004-gnurx-elf\rx-elf\rx-elf\rx-elf\include\c++\8.3.0.202004-gnurx\cmath ****   { return __builtin_powif(__x, __n); }
 405:c:\gcc for renesas rx 8.3.0.202004-gnurx-elf\rx-elf\rx-elf\rx-elf\include\c++\8.3.0.202004-gnurx\cmath **** 
 406:c:\gcc for renesas rx 8.3.0.202004-gnurx-elf\rx-elf\rx-elf\rx-elf\include\c++\8.3.0.202004-gnurx\cmath ****   inline long double
 407:c:\gcc for renesas rx 8.3.0.202004-gnurx-elf\rx-elf\rx-elf\rx-elf\include\c++\8.3.0.202004-gnurx\cmath ****   pow(long double __x, int __n)
 408:c:\gcc for renesas rx 8.3.0.202004-gnurx-elf\rx-elf\rx-elf\rx-elf\include\c++\8.3.0.202004-gnurx\cmath ****   { return __builtin_powil(__x, __n); }
 409:c:\gcc for renesas rx 8.3.0.202004-gnurx-elf\rx-elf\rx-elf\rx-elf\include\c++\8.3.0.202004-gnurx\cmath **** #endif
 410:c:\gcc for renesas rx 8.3.0.202004-gnurx-elf\rx-elf\rx-elf\rx-elf\include\c++\8.3.0.202004-gnurx\cmath **** #endif
 411:c:\gcc for renesas rx 8.3.0.202004-gnurx-elf\rx-elf\rx-elf\rx-elf\include\c++\8.3.0.202004-gnurx\cmath **** 
 412:c:\gcc for renesas rx 8.3.0.202004-gnurx-elf\rx-elf\rx-elf\rx-elf\include\c++\8.3.0.202004-gnurx\cmath ****   template<typename _Tp, typename _Up>
 413:c:\gcc for renesas rx 8.3.0.202004-gnurx-elf\rx-elf\rx-elf\rx-elf\include\c++\8.3.0.202004-gnurx\cmath ****     inline _GLIBCXX_CONSTEXPR
 414:c:\gcc for renesas rx 8.3.0.202004-gnurx-elf\rx-elf\rx-elf\rx-elf\include\c++\8.3.0.202004-gnurx\cmath ****     typename __gnu_cxx::__promote_2<_Tp, _Up>::__type
 415:c:\gcc for renesas rx 8.3.0.202004-gnurx-elf\rx-elf\rx-elf\rx-elf\include\c++\8.3.0.202004-gnurx\cmath ****     pow(_Tp __x, _Up __y)
 416:c:\gcc for renesas rx 8.3.0.202004-gnurx-elf\rx-elf\rx-elf\rx-elf\include\c++\8.3.0.202004-gnurx\cmath ****     {
 417:c:\gcc for renesas rx 8.3.0.202004-gnurx-elf\rx-elf\rx-elf\rx-elf\include\c++\8.3.0.202004-gnurx\cmath ****       typedef typename __gnu_cxx::__promote_2<_Tp, _Up>::__type __type;
 418:c:\gcc for renesas rx 8.3.0.202004-gnurx-elf\rx-elf\rx-elf\rx-elf\include\c++\8.3.0.202004-gnurx\cmath ****       return pow(__type(__x), __type(__y));
 419:c:\gcc for renesas rx 8.3.0.202004-gnurx-elf\rx-elf\rx-elf\rx-elf\include\c++\8.3.0.202004-gnurx\cmath ****     }
 420:c:\gcc for renesas rx 8.3.0.202004-gnurx-elf\rx-elf\rx-elf\rx-elf\include\c++\8.3.0.202004-gnurx\cmath **** 
 421:c:\gcc for renesas rx 8.3.0.202004-gnurx-elf\rx-elf\rx-elf\rx-elf\include\c++\8.3.0.202004-gnurx\cmath ****   using ::sin;
 422:c:\gcc for renesas rx 8.3.0.202004-gnurx-elf\rx-elf\rx-elf\rx-elf\include\c++\8.3.0.202004-gnurx\cmath **** 
 423:c:\gcc for renesas rx 8.3.0.202004-gnurx-elf\rx-elf\rx-elf\rx-elf\include\c++\8.3.0.202004-gnurx\cmath **** #ifndef __CORRECT_ISO_CPP_MATH_H_PROTO
 424:c:\gcc for renesas rx 8.3.0.202004-gnurx-elf\rx-elf\rx-elf\rx-elf\include\c++\8.3.0.202004-gnurx\cmath ****   inline _GLIBCXX_CONSTEXPR float
 425:c:\gcc for renesas rx 8.3.0.202004-gnurx-elf\rx-elf\rx-elf\rx-elf\include\c++\8.3.0.202004-gnurx\cmath ****   sin(float __x)
 426:c:\gcc for renesas rx 8.3.0.202004-gnurx-elf\rx-elf\rx-elf\rx-elf\include\c++\8.3.0.202004-gnurx\cmath ****   { return __builtin_sinf(__x); }
 427:c:\gcc for renesas rx 8.3.0.202004-gnurx-elf\rx-elf\rx-elf\rx-elf\include\c++\8.3.0.202004-gnurx\cmath **** 
 428:c:\gcc for renesas rx 8.3.0.202004-gnurx-elf\rx-elf\rx-elf\rx-elf\include\c++\8.3.0.202004-gnurx\cmath ****   inline _GLIBCXX_CONSTEXPR long double
 429:c:\gcc for renesas rx 8.3.0.202004-gnurx-elf\rx-elf\rx-elf\rx-elf\include\c++\8.3.0.202004-gnurx\cmath ****   sin(long double __x)
 430:c:\gcc for renesas rx 8.3.0.202004-gnurx-elf\rx-elf\rx-elf\rx-elf\include\c++\8.3.0.202004-gnurx\cmath ****   { return __builtin_sinl(__x); }
 431:c:\gcc for renesas rx 8.3.0.202004-gnurx-elf\rx-elf\rx-elf\rx-elf\include\c++\8.3.0.202004-gnurx\cmath **** #endif
 432:c:\gcc for renesas rx 8.3.0.202004-gnurx-elf\rx-elf\rx-elf\rx-elf\include\c++\8.3.0.202004-gnurx\cmath **** 
 433:c:\gcc for renesas rx 8.3.0.202004-gnurx-elf\rx-elf\rx-elf\rx-elf\include\c++\8.3.0.202004-gnurx\cmath ****   template<typename _Tp>
 434:c:\gcc for renesas rx 8.3.0.202004-gnurx-elf\rx-elf\rx-elf\rx-elf\include\c++\8.3.0.202004-gnurx\cmath ****     inline _GLIBCXX_CONSTEXPR
 435:c:\gcc for renesas rx 8.3.0.202004-gnurx-elf\rx-elf\rx-elf\rx-elf\include\c++\8.3.0.202004-gnurx\cmath ****     typename __gnu_cxx::__enable_if<__is_integer<_Tp>::__value, 
 436:c:\gcc for renesas rx 8.3.0.202004-gnurx-elf\rx-elf\rx-elf\rx-elf\include\c++\8.3.0.202004-gnurx\cmath ****                                     double>::__type
 437:c:\gcc for renesas rx 8.3.0.202004-gnurx-elf\rx-elf\rx-elf\rx-elf\include\c++\8.3.0.202004-gnurx\cmath ****     sin(_Tp __x)
 438:c:\gcc for renesas rx 8.3.0.202004-gnurx-elf\rx-elf\rx-elf\rx-elf\include\c++\8.3.0.202004-gnurx\cmath ****     { return __builtin_sin(__x); }
 439:c:\gcc for renesas rx 8.3.0.202004-gnurx-elf\rx-elf\rx-elf\rx-elf\include\c++\8.3.0.202004-gnurx\cmath **** 
 440:c:\gcc for renesas rx 8.3.0.202004-gnurx-elf\rx-elf\rx-elf\rx-elf\include\c++\8.3.0.202004-gnurx\cmath ****   using ::sinh;
 441:c:\gcc for renesas rx 8.3.0.202004-gnurx-elf\rx-elf\rx-elf\rx-elf\include\c++\8.3.0.202004-gnurx\cmath **** 
 442:c:\gcc for renesas rx 8.3.0.202004-gnurx-elf\rx-elf\rx-elf\rx-elf\include\c++\8.3.0.202004-gnurx\cmath **** #ifndef __CORRECT_ISO_CPP_MATH_H_PROTO
 443:c:\gcc for renesas rx 8.3.0.202004-gnurx-elf\rx-elf\rx-elf\rx-elf\include\c++\8.3.0.202004-gnurx\cmath ****   inline _GLIBCXX_CONSTEXPR float
 444:c:\gcc for renesas rx 8.3.0.202004-gnurx-elf\rx-elf\rx-elf\rx-elf\include\c++\8.3.0.202004-gnurx\cmath ****   sinh(float __x)
 445:c:\gcc for renesas rx 8.3.0.202004-gnurx-elf\rx-elf\rx-elf\rx-elf\include\c++\8.3.0.202004-gnurx\cmath ****   { return __builtin_sinhf(__x); }
 446:c:\gcc for renesas rx 8.3.0.202004-gnurx-elf\rx-elf\rx-elf\rx-elf\include\c++\8.3.0.202004-gnurx\cmath **** 
 447:c:\gcc for renesas rx 8.3.0.202004-gnurx-elf\rx-elf\rx-elf\rx-elf\include\c++\8.3.0.202004-gnurx\cmath ****   inline _GLIBCXX_CONSTEXPR long double
 448:c:\gcc for renesas rx 8.3.0.202004-gnurx-elf\rx-elf\rx-elf\rx-elf\include\c++\8.3.0.202004-gnurx\cmath ****   sinh(long double __x)
 449:c:\gcc for renesas rx 8.3.0.202004-gnurx-elf\rx-elf\rx-elf\rx-elf\include\c++\8.3.0.202004-gnurx\cmath ****   { return __builtin_sinhl(__x); }
 450:c:\gcc for renesas rx 8.3.0.202004-gnurx-elf\rx-elf\rx-elf\rx-elf\include\c++\8.3.0.202004-gnurx\cmath **** #endif
 451:c:\gcc for renesas rx 8.3.0.202004-gnurx-elf\rx-elf\rx-elf\rx-elf\include\c++\8.3.0.202004-gnurx\cmath **** 
 452:c:\gcc for renesas rx 8.3.0.202004-gnurx-elf\rx-elf\rx-elf\rx-elf\include\c++\8.3.0.202004-gnurx\cmath ****   template<typename _Tp>
 453:c:\gcc for renesas rx 8.3.0.202004-gnurx-elf\rx-elf\rx-elf\rx-elf\include\c++\8.3.0.202004-gnurx\cmath ****     inline _GLIBCXX_CONSTEXPR
 454:c:\gcc for renesas rx 8.3.0.202004-gnurx-elf\rx-elf\rx-elf\rx-elf\include\c++\8.3.0.202004-gnurx\cmath ****     typename __gnu_cxx::__enable_if<__is_integer<_Tp>::__value, 
 455:c:\gcc for renesas rx 8.3.0.202004-gnurx-elf\rx-elf\rx-elf\rx-elf\include\c++\8.3.0.202004-gnurx\cmath ****                                     double>::__type
 456:c:\gcc for renesas rx 8.3.0.202004-gnurx-elf\rx-elf\rx-elf\rx-elf\include\c++\8.3.0.202004-gnurx\cmath ****     sinh(_Tp __x)
 457:c:\gcc for renesas rx 8.3.0.202004-gnurx-elf\rx-elf\rx-elf\rx-elf\include\c++\8.3.0.202004-gnurx\cmath ****     { return __builtin_sinh(__x); }
 458:c:\gcc for renesas rx 8.3.0.202004-gnurx-elf\rx-elf\rx-elf\rx-elf\include\c++\8.3.0.202004-gnurx\cmath **** 
 459:c:\gcc for renesas rx 8.3.0.202004-gnurx-elf\rx-elf\rx-elf\rx-elf\include\c++\8.3.0.202004-gnurx\cmath ****   using ::sqrt;
 460:c:\gcc for renesas rx 8.3.0.202004-gnurx-elf\rx-elf\rx-elf\rx-elf\include\c++\8.3.0.202004-gnurx\cmath **** 
 461:c:\gcc for renesas rx 8.3.0.202004-gnurx-elf\rx-elf\rx-elf\rx-elf\include\c++\8.3.0.202004-gnurx\cmath **** #ifndef __CORRECT_ISO_CPP_MATH_H_PROTO
 462:c:\gcc for renesas rx 8.3.0.202004-gnurx-elf\rx-elf\rx-elf\rx-elf\include\c++\8.3.0.202004-gnurx\cmath ****   inline _GLIBCXX_CONSTEXPR float
 463:c:\gcc for renesas rx 8.3.0.202004-gnurx-elf\rx-elf\rx-elf\rx-elf\include\c++\8.3.0.202004-gnurx\cmath ****   sqrt(float __x)
 464:c:\gcc for renesas rx 8.3.0.202004-gnurx-elf\rx-elf\rx-elf\rx-elf\include\c++\8.3.0.202004-gnurx\cmath ****   { return __builtin_sqrtf(__x); }
 370                             		.loc 4 464 5 is_stmt 1
 371                             		.loc 4 464 27 is_stmt 0
 372 0048 FD 2A 71                		mov.L	[r7+], r1
 373                             	.LVL51:
 374 004b 05 00 00 00             		bsr	_sqrtf
 375                             	.LVL52:
 376                             	.LBE179:
 377                             	.LBE178:
  66:../src/tensorflow/lite/micro/kernels/elementwise.cc ****   }
 378                             		.loc 1 66 5
 379 004f FD 22 A1                		mov.L	r1, [r10+]
  65:../src/tensorflow/lite/micro/kernels/elementwise.cc ****     out_data[i] = func(in_data[i]);
 380                             		.loc 1 65 24
 381 0052 47 67                   		cmp	r6, r7
 382 0054 21 F4                   		bne	.L31
 383                             		.balign 8,3,1
 384                             	.L30:
 385                             	.LBE177:
  68:../src/tensorflow/lite/micro/kernels/elementwise.cc **** }
 386                             		.loc 1 68 10
 387 0056 66 01                   		mov.L	#0, r1
 388                             	.LVL53:
 389                             	.LBE165:
 390                             	.LBE164:
 391                             	.LBE163:
  99:../src/tensorflow/lite/micro/kernels/elementwise.cc **** }
 392                             		.loc 1 99 1
 393 0058 3F 6A 0C                		rtsd	#48, r6-r10
 394                             	.LVL54:
 395                             	.L43:
 396                             	.LBB185:
 397                             	.LBB183:
 398                             	.LBB181:
  61:../src/tensorflow/lite/micro/kernels/elementwise.cc ****   const size_t num_elements = ElementCount(*input->dims);
 399                             		.loc 1 61 3
 400 005b ED 7A 05                		mov.L	20[r7], r10
 401                             	.LVL55:
 402 005e 05 00 00 00             		bsr	_TfLiteTypeGetName
 403                             	.LVL56:
 404 0062 EF 16                   		mov.L	r1, r6
 405                             	.LVL57:
 406 0064 66 11                   		mov.L	#1, r1
 407 0066 05 00 00 00             		bsr	_TfLiteTypeGetName
 408                             	.LVL58:
 409 006a A1 81                   		mov.L	r1, 24[r0]
 410 006c A1 0E                   		mov.L	r6, 20[r0]
 411 006e F9 02 04 00 00 00 00    		mov.L	#.LC20, 16[r0]
 412 0075 F9 02 03 7B 00 00 00    		mov.L	#.LC13, 12[r0]
 413 007c 3E 02 3D                		mov.L	#61, 8[r0]
 414 007f F9 02 01 11 00 00 00    		mov.L	#.LC9, 4[r0]
 415 0086 EF 71                   		mov.L	r7, r1
 416 0088 F8 02 87 00 00 00       		mov.L	#.LC14, [r0]
 417 008e 7F 1A                   		jsr	r10
 418                             	.LVL59:
 419 0090 66 11                   		mov.L	#1, r1
 420                             	.LBE181:
 421                             	.LBE183:
 422                             	.LBE185:
 423                             		.loc 1 99 1
 424 0092 3F 6A 0C                		rtsd	#48, r6-r10
 425                             	.LVL60:
 426                             	.L26:
 427                             	.LBB186:
 428                             	.LBB184:
 429                             	.LBB182:
 430                             	.LBB180:
 431                             	.LBB170:
 432                             	.LBB169:
  33:C:\Users\a5116938\Desktop\e2_studio_workspace\EEMBC_final\RX65N_Cloud_Kit\src/tensorflow/lite/micro/kernels\kernel_util.h ****   TFLITE_DCHECK(node != nullptr);
 433                             		.loc 3 33 3
 434 0095 05 00 00 00             		bsr	_abort
 435                             	.LVL61:
 436                             	.LBE169:
 437                             	.LBE170:
 438                             	.LBE180:
 439                             	.LBE182:
 440                             	.LBE184:
 441                             	.LBE186:
 442                             	.LFE1208:
 444 0099 FD 70 40 00 00 00 80    		.section	.text._ZN6tflite3ops5micro11elementwise12_GLOBAL__N_19RsqrtEvalEP13TfLiteContextP10TfLite
 446                             	__ZN6tflite3ops5micro11elementwise12_GLOBAL__N_19RsqrtEvalEP13TfLiteContextP10TfLiteNode:
 447                             	.LFB1209:
 100:../src/tensorflow/lite/micro/kernels/elementwise.cc **** 
 101:../src/tensorflow/lite/micro/kernels/elementwise.cc **** TfLiteStatus RsqrtEval(TfLiteContext* context, TfLiteNode* node) {
 448                             		.loc 1 101 66 is_stmt 1
 449                             	.LVL62:
 450 0000 6E 6B                   		pushm	r6-r11
 451                             	.LCFI8:
 452 0002 71 00 E4                		add	#-28, r0
 453                             	.LCFI9:
 102:../src/tensorflow/lite/micro/kernels/elementwise.cc ****   return EvalNumeric(context, node, [](float f) { return 1.f / std::sqrt(f); });
 454                             		.loc 1 102 3
 455                             	.LVL63:
  73:../src/tensorflow/lite/micro/kernels/elementwise.cc **** }
 456                             		.loc 1 73 3
  41:C:\Users\a5116938\Desktop\e2_studio_workspace\EEMBC_final\RX65N_Cloud_Kit\src/tensorflow/lite/micro/kernels\kernel_util.h **** }
 457                             		.loc 3 41 3
 458                             	.LBB209:
 459                             	.LBB210:
 460                             	.LBB211:
 461                             	.LBB212:
 462                             	.LBB213:
 463                             	.LBB214:
  33:C:\Users\a5116938\Desktop\e2_studio_workspace\EEMBC_final\RX65N_Cloud_Kit\src/tensorflow/lite/micro/kernels\kernel_util.h ****   TFLITE_DCHECK(node != nullptr);
 464                             		.loc 3 33 3
 465 0005 61 01                   		cmp	#0, r1
 466 0007 3A 98 00                		beq	.L46
  34:C:\Users\a5116938\Desktop\e2_studio_workspace\EEMBC_final\RX65N_Cloud_Kit\src/tensorflow/lite/micro/kernels\kernel_util.h ****   return context->GetEvalTensor(context, node->inputs->data[index]);
 467                             		.loc 3 34 3 is_stmt 0
 468 000a 71 2A 00                		add	#0, r2, r10
 469 000d 3A 92 00                		beq	.L46
 470 0010 EF 17                   		mov.L	r1, r7
  35:C:\Users\a5116938\Desktop\e2_studio_workspace\EEMBC_final\RX65N_Cloud_Kit\src/tensorflow/lite/micro/kernels\kernel_util.h **** }
 471                             		.loc 3 35 3 is_stmt 1
  35:C:\Users\a5116938\Desktop\e2_studio_workspace\EEMBC_final\RX65N_Cloud_Kit\src/tensorflow/lite/micro/kernels\kernel_util.h **** }
 472                             		.loc 3 35 32 is_stmt 0
 473 0012 EC A4                   		mov.L	[r10], r4
 474 0014 AD 1D                   		mov.L	84[r1], r5
 475 0016 A8 4A                   		mov.L	4[r4], r2
 476                             	.LVL64:
 477 0018 7F 15                   		jsr	r5
 478                             	.LVL65:
 479 001a EF 16                   		mov.L	r1, r6
 480                             	.LVL66:
 481                             	.LBE214:
 482                             	.LBE213:
 483                             	.LBE212:
 484                             	.LBB217:
 485                             	.LBB218:
  47:C:\Users\a5116938\Desktop\e2_studio_workspace\EEMBC_final\RX65N_Cloud_Kit\src/tensorflow/lite/micro/kernels\kernel_util.h ****   TFLITE_DCHECK(node != nullptr);
 486                             		.loc 3 47 3 is_stmt 1
  48:C:\Users\a5116938\Desktop\e2_studio_workspace\EEMBC_final\RX65N_Cloud_Kit\src/tensorflow/lite/micro/kernels\kernel_util.h ****   return context->GetEvalTensor(context, node->outputs->data[index]);
 487                             		.loc 3 48 3
  49:C:\Users\a5116938\Desktop\e2_studio_workspace\EEMBC_final\RX65N_Cloud_Kit\src/tensorflow/lite/micro/kernels\kernel_util.h **** }
 488                             		.loc 3 49 3
  49:C:\Users\a5116938\Desktop\e2_studio_workspace\EEMBC_final\RX65N_Cloud_Kit\src/tensorflow/lite/micro/kernels\kernel_util.h **** }
 489                             		.loc 3 49 32 is_stmt 0
 490 001c ED A5 01                		mov.L	4[r10], r5
 491 001f ED 7A 15                		mov.L	84[r7], r10
 492                             	.LVL67:
 493 0022 EF 71                   		mov.L	r7, r1
 494                             	.LVL68:
 495 0024 A8 5A                   		mov.L	4[r5], r2
 496 0026 7F 1A                   		jsr	r10
 497                             	.LVL69:
 498 0028 EF 1A                   		mov.L	r1, r10
 499                             	.LVL70:
 500                             	.LBE218:
 501                             	.LBE217:
  61:../src/tensorflow/lite/micro/kernels/elementwise.cc ****   const size_t num_elements = ElementCount(*input->dims);
 502                             		.loc 1 61 3
 503 002a A8 E1                   		mov.L	8[r6], r1
 504                             	.LVL71:
 505 002c 61 11                   		cmp	#1, r1
 506 002e 21 37                   		bne	.L63
  62:../src/tensorflow/lite/micro/kernels/elementwise.cc ****   const T* in_data = tflite::micro::GetTensorData<T>(input);
 507                             		.loc 1 62 43
 508 0030 A8 69                   		mov.L	4[r6], r1
 509 0032 05 00 00 00             		bsr	__ZN6tflite12ElementCountERK14TfLiteIntArray
 510                             	.LVL72:
 511                             	.LBB219:
 512                             	.LBB220:
 513                             		.loc 3 62 53
 514 0036 EC 67                   		mov.L	[r6], r7
 515                             	.LVL73:
 516                             	.LBE220:
 517                             	.LBE219:
 518                             	.LBB221:
 519                             	.LBB222:
  55:C:\Users\a5116938\Desktop\e2_studio_workspace\EEMBC_final\RX65N_Cloud_Kit\src/tensorflow/lite/micro/kernels\kernel_util.h **** }
 520                             		.loc 3 55 28
 521 0038 61 0A                   		cmp	#0, r10
 522 003a 13                      		beq	.L49
 523 003b EC AA                   		mov.L	[r10], r10
 524                             	.LVL74:
 525                             		.balign 8,3,1
 526                             	.L49:
 527                             	.LBE222:
 528                             	.LBE221:
 529                             	.LBB223:
  65:../src/tensorflow/lite/micro/kernels/elementwise.cc ****     out_data[i] = func(in_data[i]);
 530                             		.loc 1 65 24
 531 003d 61 01                   		cmp	#0, r1
 532 003f 20 21                   		beq	.L50
 533 0041 6C 21                   		shll	#2, r1
 534                             	.LVL75:
 535 0043 FF 26 17                		add	r1, r7, r6
 536                             	.LVL76:
 537                             	.LBB224:
 538                             	.LBB225:
 539                             	.LBB226:
 540                             		.loc 1 102 75
 541 0046 FB B2 00 00 80 3F       		mov.L	#0x3f800000, r11
 542                             	.LVL77:
 543                             		.balign 8,3,3
 544                             	.L51:
 545                             		.loc 1 102 51 is_stmt 1
 546                             	.LBB227:
 547                             	.LBB228:
 548                             		.loc 4 464 5
 549                             		.loc 4 464 27 is_stmt 0
 550 004c FD 2A 71                		mov.L	[r7+], r1
 551                             	.LVL78:
 552 004f 05 00 00 00             		bsr	_sqrtf
 553                             	.LVL79:
 554                             	.LBE228:
 555                             	.LBE227:
 556                             		.loc 1 102 75
 557 0053 EF B5                   		mov.L	r11, r5
 558 0055 FC 93 15                		fdiv	r1, r5
 559                             	.LBE226:
 560                             	.LBE225:
 561                             	.LBE224:
  66:../src/tensorflow/lite/micro/kernels/elementwise.cc ****   }
 562                             		.loc 1 66 5
 563 0058 FD 22 A5                		mov.L	r5, [r10+]
  65:../src/tensorflow/lite/micro/kernels/elementwise.cc ****     out_data[i] = func(in_data[i]);
 564                             		.loc 1 65 24
 565 005b 47 67                   		cmp	r6, r7
 566 005d 21 EF                   		bne	.L51
 567                             	.LVL80:
 568 005f 03                      		.balign 8,3,1
 569                             	.L50:
 570                             	.LBE223:
  68:../src/tensorflow/lite/micro/kernels/elementwise.cc **** }
 571                             		.loc 1 68 10
 572 0060 66 01                   		mov.L	#0, r1
 573                             	.LVL81:
 574                             	.LBE211:
 575                             	.LBE210:
 576                             	.LBE209:
 103:../src/tensorflow/lite/micro/kernels/elementwise.cc **** }
 577                             		.loc 1 103 1
 578 0062 3F 6B 0D                		rtsd	#52, r6-r11
 579                             	.LVL82:
 580                             	.L63:
 581                             	.LBB234:
 582                             	.LBB232:
 583                             	.LBB230:
  61:../src/tensorflow/lite/micro/kernels/elementwise.cc ****   const size_t num_elements = ElementCount(*input->dims);
 584                             		.loc 1 61 3
 585 0065 ED 7A 05                		mov.L	20[r7], r10
 586                             	.LVL83:
 587 0068 05 00 00 00             		bsr	_TfLiteTypeGetName
 588                             	.LVL84:
 589 006c EF 16                   		mov.L	r1, r6
 590                             	.LVL85:
 591 006e 66 11                   		mov.L	#1, r1
 592 0070 05 00 00 00             		bsr	_TfLiteTypeGetName
 593                             	.LVL86:
 594 0074 A1 81                   		mov.L	r1, 24[r0]
 595 0076 A1 0E                   		mov.L	r6, 20[r0]
 596 0078 F9 02 04 00 00 00 00    		mov.L	#.LC20, 16[r0]
 597 007f F9 02 03 7B 00 00 00    		mov.L	#.LC13, 12[r0]
 598 0086 3E 02 3D                		mov.L	#61, 8[r0]
 599 0089 F9 02 01 11 00 00 00    		mov.L	#.LC9, 4[r0]
 600 0090 EF 71                   		mov.L	r7, r1
 601 0092 F8 02 87 00 00 00       		mov.L	#.LC14, [r0]
 602 0098 7F 1A                   		jsr	r10
 603                             	.LVL87:
 604 009a 66 11                   		mov.L	#1, r1
 605                             	.LBE230:
 606                             	.LBE232:
 607                             	.LBE234:
 608                             		.loc 1 103 1
 609 009c 3F 6B 0D                		rtsd	#52, r6-r11
 610                             	.LVL88:
 611                             	.L46:
 612                             	.LBB235:
 613                             	.LBB233:
 614                             	.LBB231:
 615                             	.LBB229:
 616                             	.LBB216:
 617                             	.LBB215:
  33:C:\Users\a5116938\Desktop\e2_studio_workspace\EEMBC_final\RX65N_Cloud_Kit\src/tensorflow/lite/micro/kernels\kernel_util.h ****   TFLITE_DCHECK(node != nullptr);
 618                             		.loc 3 33 3
 619 009f 05 00 00 00             		bsr	_abort
 620                             	.LVL89:
 621                             	.LBE215:
 622                             	.LBE216:
 623                             	.LBE229:
 624                             	.LBE231:
 625                             	.LBE233:
 626                             	.LBE235:
 627                             	.LFE1209:
 629 00a3 77 10 01 00 00          		.section	.text._ZN6tflite3ops5micro11elementwise12_GLOBAL__N_17AbsEvalEP13TfLiteContextP10TfLiteNo
 631                             	__ZN6tflite3ops5micro11elementwise12_GLOBAL__N_17AbsEvalEP13TfLiteContextP10TfLiteNode:
 632                             	.LFB1204:
  81:../src/tensorflow/lite/micro/kernels/elementwise.cc ****   return EvalNumeric(context, node, std::abs);
 633                             		.loc 1 81 64 is_stmt 1
 634                             	.LVL90:
 635 0000 6E 6A                   		pushm	r6-r10
 636                             	.LCFI10:
 637 0002 71 00 E4                		add	#-28, r0
 638                             	.LCFI11:
  82:../src/tensorflow/lite/micro/kernels/elementwise.cc **** }
 639                             		.loc 1 82 3
 640                             	.LVL91:
  73:../src/tensorflow/lite/micro/kernels/elementwise.cc **** }
 641                             		.loc 1 73 3
  41:C:\Users\a5116938\Desktop\e2_studio_workspace\EEMBC_final\RX65N_Cloud_Kit\src/tensorflow/lite/micro/kernels\kernel_util.h **** }
 642                             		.loc 3 41 3
 643                             	.LBB253:
 644                             	.LBB254:
 645                             	.LBB255:
 646                             	.LBB256:
 647                             	.LBB257:
 648                             	.LBB258:
  33:C:\Users\a5116938\Desktop\e2_studio_workspace\EEMBC_final\RX65N_Cloud_Kit\src/tensorflow/lite/micro/kernels\kernel_util.h ****   TFLITE_DCHECK(node != nullptr);
 649                             		.loc 3 33 3
 650 0005 61 01                   		cmp	#0, r1
 651 0007 3A 8C 00                		beq	.L66
  34:C:\Users\a5116938\Desktop\e2_studio_workspace\EEMBC_final\RX65N_Cloud_Kit\src/tensorflow/lite/micro/kernels\kernel_util.h ****   return context->GetEvalTensor(context, node->inputs->data[index]);
 652                             		.loc 3 34 3 is_stmt 0
 653 000a 71 2A 00                		add	#0, r2, r10
 654 000d 3A 86 00                		beq	.L66
 655 0010 EF 17                   		mov.L	r1, r7
  35:C:\Users\a5116938\Desktop\e2_studio_workspace\EEMBC_final\RX65N_Cloud_Kit\src/tensorflow/lite/micro/kernels\kernel_util.h **** }
 656                             		.loc 3 35 3 is_stmt 1
  35:C:\Users\a5116938\Desktop\e2_studio_workspace\EEMBC_final\RX65N_Cloud_Kit\src/tensorflow/lite/micro/kernels\kernel_util.h **** }
 657                             		.loc 3 35 32 is_stmt 0
 658 0012 EC A4                   		mov.L	[r10], r4
 659 0014 AD 1D                   		mov.L	84[r1], r5
 660 0016 A8 4A                   		mov.L	4[r4], r2
 661                             	.LVL92:
 662 0018 7F 15                   		jsr	r5
 663                             	.LVL93:
 664 001a EF 16                   		mov.L	r1, r6
 665                             	.LVL94:
 666                             	.LBE258:
 667                             	.LBE257:
 668                             	.LBE256:
 669                             	.LBB261:
 670                             	.LBB262:
  47:C:\Users\a5116938\Desktop\e2_studio_workspace\EEMBC_final\RX65N_Cloud_Kit\src/tensorflow/lite/micro/kernels\kernel_util.h ****   TFLITE_DCHECK(node != nullptr);
 671                             		.loc 3 47 3 is_stmt 1
  48:C:\Users\a5116938\Desktop\e2_studio_workspace\EEMBC_final\RX65N_Cloud_Kit\src/tensorflow/lite/micro/kernels\kernel_util.h ****   return context->GetEvalTensor(context, node->outputs->data[index]);
 672                             		.loc 3 48 3
  49:C:\Users\a5116938\Desktop\e2_studio_workspace\EEMBC_final\RX65N_Cloud_Kit\src/tensorflow/lite/micro/kernels\kernel_util.h **** }
 673                             		.loc 3 49 3
  49:C:\Users\a5116938\Desktop\e2_studio_workspace\EEMBC_final\RX65N_Cloud_Kit\src/tensorflow/lite/micro/kernels\kernel_util.h **** }
 674                             		.loc 3 49 32 is_stmt 0
 675 001c ED A5 01                		mov.L	4[r10], r5
 676 001f ED 7A 15                		mov.L	84[r7], r10
 677                             	.LVL95:
 678 0022 EF 71                   		mov.L	r7, r1
 679                             	.LVL96:
 680 0024 A8 5A                   		mov.L	4[r5], r2
 681 0026 7F 1A                   		jsr	r10
 682                             	.LVL97:
 683 0028 EF 1A                   		mov.L	r1, r10
 684                             	.LVL98:
 685                             	.LBE262:
 686                             	.LBE261:
  61:../src/tensorflow/lite/micro/kernels/elementwise.cc ****   const size_t num_elements = ElementCount(*input->dims);
 687                             		.loc 1 61 3
 688 002a A8 E1                   		mov.L	8[r6], r1
 689                             	.LVL99:
 690 002c 61 11                   		cmp	#1, r1
 691 002e 21 2B                   		bne	.L83
  62:../src/tensorflow/lite/micro/kernels/elementwise.cc ****   const T* in_data = tflite::micro::GetTensorData<T>(input);
 692                             		.loc 1 62 43
 693 0030 A8 69                   		mov.L	4[r6], r1
 694 0032 05 00 00 00             		bsr	__ZN6tflite12ElementCountERK14TfLiteIntArray
 695                             	.LVL100:
 696                             	.LBB263:
 697                             	.LBB264:
 698                             		.loc 3 62 53
 699 0036 EC 67                   		mov.L	[r6], r7
 700                             	.LVL101:
 701                             	.LBE264:
 702                             	.LBE263:
 703                             	.LBB265:
 704                             	.LBB266:
  55:C:\Users\a5116938\Desktop\e2_studio_workspace\EEMBC_final\RX65N_Cloud_Kit\src/tensorflow/lite/micro/kernels\kernel_util.h **** }
 705                             		.loc 3 55 28
 706 0038 61 0A                   		cmp	#0, r10
 707 003a 13                      		beq	.L69
 708 003b EC AA                   		mov.L	[r10], r10
 709                             	.LVL102:
 710                             		.balign 8,3,1
 711                             	.L69:
 712                             	.LBE266:
 713                             	.LBE265:
 714                             	.LBB267:
  65:../src/tensorflow/lite/micro/kernels/elementwise.cc ****     out_data[i] = func(in_data[i]);
 715                             		.loc 1 65 24
 716 003d 61 01                   		cmp	#0, r1
 717 003f 20 15                   		beq	.L70
 718 0041 6C 21                   		shll	#2, r1
 719                             	.LVL103:
 720 0043 4B 71                   		add	r7, r1
 721                             	.LVL104:
 722 0045 FC 13 00                		.balign 8,3,3
 723                             	.L71:
  66:../src/tensorflow/lite/micro/kernels/elementwise.cc ****   }
 724                             		.loc 1 66 23
 725 0048 FD 2A 75                		mov.L	[r7+], r5
 726                             	.LVL105:
 727                             	.LBB268:
 728                             	.LBB269:
 729                             		.file 5 "c:\\gcc for renesas rx 8.3.0.202004-gnurx-elf\\rx-elf\\rx-elf\\rx-elf\\include\\c++\\8.3.
   1:c:\gcc for renesas rx 8.3.0.202004-gnurx-elf\rx-elf\rx-elf\rx-elf\include\c++\8.3.0.202004-gnurx\bits\std_abs.h **** // -*- C++ -*- C library enhancements header.
   2:c:\gcc for renesas rx 8.3.0.202004-gnurx-elf\rx-elf\rx-elf\rx-elf\include\c++\8.3.0.202004-gnurx\bits\std_abs.h **** 
   3:c:\gcc for renesas rx 8.3.0.202004-gnurx-elf\rx-elf\rx-elf\rx-elf\include\c++\8.3.0.202004-gnurx\bits\std_abs.h **** // Copyright (C) 2016-2018 Free Software Foundation, Inc.
   4:c:\gcc for renesas rx 8.3.0.202004-gnurx-elf\rx-elf\rx-elf\rx-elf\include\c++\8.3.0.202004-gnurx\bits\std_abs.h **** //
   5:c:\gcc for renesas rx 8.3.0.202004-gnurx-elf\rx-elf\rx-elf\rx-elf\include\c++\8.3.0.202004-gnurx\bits\std_abs.h **** // This file is part of the GNU ISO C++ Library.  This library is free
   6:c:\gcc for renesas rx 8.3.0.202004-gnurx-elf\rx-elf\rx-elf\rx-elf\include\c++\8.3.0.202004-gnurx\bits\std_abs.h **** // software; you can redistribute it and/or modify it under the
   7:c:\gcc for renesas rx 8.3.0.202004-gnurx-elf\rx-elf\rx-elf\rx-elf\include\c++\8.3.0.202004-gnurx\bits\std_abs.h **** // terms of the GNU General Public License as published by the
   8:c:\gcc for renesas rx 8.3.0.202004-gnurx-elf\rx-elf\rx-elf\rx-elf\include\c++\8.3.0.202004-gnurx\bits\std_abs.h **** // Free Software Foundation; either version 3, or (at your option)
   9:c:\gcc for renesas rx 8.3.0.202004-gnurx-elf\rx-elf\rx-elf\rx-elf\include\c++\8.3.0.202004-gnurx\bits\std_abs.h **** // any later version.
  10:c:\gcc for renesas rx 8.3.0.202004-gnurx-elf\rx-elf\rx-elf\rx-elf\include\c++\8.3.0.202004-gnurx\bits\std_abs.h **** 
  11:c:\gcc for renesas rx 8.3.0.202004-gnurx-elf\rx-elf\rx-elf\rx-elf\include\c++\8.3.0.202004-gnurx\bits\std_abs.h **** // This library is distributed in the hope that it will be useful,
  12:c:\gcc for renesas rx 8.3.0.202004-gnurx-elf\rx-elf\rx-elf\rx-elf\include\c++\8.3.0.202004-gnurx\bits\std_abs.h **** // but WITHOUT ANY WARRANTY; without even the implied warranty of
  13:c:\gcc for renesas rx 8.3.0.202004-gnurx-elf\rx-elf\rx-elf\rx-elf\include\c++\8.3.0.202004-gnurx\bits\std_abs.h **** // MERCHANTABILITY or FITNESS FOR A PARTICULAR PURPOSE.  See the
  14:c:\gcc for renesas rx 8.3.0.202004-gnurx-elf\rx-elf\rx-elf\rx-elf\include\c++\8.3.0.202004-gnurx\bits\std_abs.h **** // GNU General Public License for more details.
  15:c:\gcc for renesas rx 8.3.0.202004-gnurx-elf\rx-elf\rx-elf\rx-elf\include\c++\8.3.0.202004-gnurx\bits\std_abs.h **** 
  16:c:\gcc for renesas rx 8.3.0.202004-gnurx-elf\rx-elf\rx-elf\rx-elf\include\c++\8.3.0.202004-gnurx\bits\std_abs.h **** // Under Section 7 of GPL version 3, you are granted additional
  17:c:\gcc for renesas rx 8.3.0.202004-gnurx-elf\rx-elf\rx-elf\rx-elf\include\c++\8.3.0.202004-gnurx\bits\std_abs.h **** // permissions described in the GCC Runtime Library Exception, version
  18:c:\gcc for renesas rx 8.3.0.202004-gnurx-elf\rx-elf\rx-elf\rx-elf\include\c++\8.3.0.202004-gnurx\bits\std_abs.h **** // 3.1, as published by the Free Software Foundation.
  19:c:\gcc for renesas rx 8.3.0.202004-gnurx-elf\rx-elf\rx-elf\rx-elf\include\c++\8.3.0.202004-gnurx\bits\std_abs.h **** 
  20:c:\gcc for renesas rx 8.3.0.202004-gnurx-elf\rx-elf\rx-elf\rx-elf\include\c++\8.3.0.202004-gnurx\bits\std_abs.h **** // You should have received a copy of the GNU General Public License and
  21:c:\gcc for renesas rx 8.3.0.202004-gnurx-elf\rx-elf\rx-elf\rx-elf\include\c++\8.3.0.202004-gnurx\bits\std_abs.h **** // a copy of the GCC Runtime Library Exception along with this program;
  22:c:\gcc for renesas rx 8.3.0.202004-gnurx-elf\rx-elf\rx-elf\rx-elf\include\c++\8.3.0.202004-gnurx\bits\std_abs.h **** // see the files COPYING3 and COPYING.RUNTIME respectively.  If not, see
  23:c:\gcc for renesas rx 8.3.0.202004-gnurx-elf\rx-elf\rx-elf\rx-elf\include\c++\8.3.0.202004-gnurx\bits\std_abs.h **** // <http://www.gnu.org/licenses/>.
  24:c:\gcc for renesas rx 8.3.0.202004-gnurx-elf\rx-elf\rx-elf\rx-elf\include\c++\8.3.0.202004-gnurx\bits\std_abs.h **** 
  25:c:\gcc for renesas rx 8.3.0.202004-gnurx-elf\rx-elf\rx-elf\rx-elf\include\c++\8.3.0.202004-gnurx\bits\std_abs.h **** /** @file include/bits/std_abs.h
  26:c:\gcc for renesas rx 8.3.0.202004-gnurx-elf\rx-elf\rx-elf\rx-elf\include\c++\8.3.0.202004-gnurx\bits\std_abs.h ****  *  This is an internal header file, included by other library headers.
  27:c:\gcc for renesas rx 8.3.0.202004-gnurx-elf\rx-elf\rx-elf\rx-elf\include\c++\8.3.0.202004-gnurx\bits\std_abs.h ****  *  Do not attempt to use it directly. @headername{cmath, cstdlib}
  28:c:\gcc for renesas rx 8.3.0.202004-gnurx-elf\rx-elf\rx-elf\rx-elf\include\c++\8.3.0.202004-gnurx\bits\std_abs.h ****  */
  29:c:\gcc for renesas rx 8.3.0.202004-gnurx-elf\rx-elf\rx-elf\rx-elf\include\c++\8.3.0.202004-gnurx\bits\std_abs.h **** 
  30:c:\gcc for renesas rx 8.3.0.202004-gnurx-elf\rx-elf\rx-elf\rx-elf\include\c++\8.3.0.202004-gnurx\bits\std_abs.h **** #ifndef _GLIBCXX_BITS_STD_ABS_H
  31:c:\gcc for renesas rx 8.3.0.202004-gnurx-elf\rx-elf\rx-elf\rx-elf\include\c++\8.3.0.202004-gnurx\bits\std_abs.h **** #define _GLIBCXX_BITS_STD_ABS_H
  32:c:\gcc for renesas rx 8.3.0.202004-gnurx-elf\rx-elf\rx-elf\rx-elf\include\c++\8.3.0.202004-gnurx\bits\std_abs.h **** 
  33:c:\gcc for renesas rx 8.3.0.202004-gnurx-elf\rx-elf\rx-elf\rx-elf\include\c++\8.3.0.202004-gnurx\bits\std_abs.h **** #pragma GCC system_header
  34:c:\gcc for renesas rx 8.3.0.202004-gnurx-elf\rx-elf\rx-elf\rx-elf\include\c++\8.3.0.202004-gnurx\bits\std_abs.h **** 
  35:c:\gcc for renesas rx 8.3.0.202004-gnurx-elf\rx-elf\rx-elf\rx-elf\include\c++\8.3.0.202004-gnurx\bits\std_abs.h **** #include <bits/c++config.h>
  36:c:\gcc for renesas rx 8.3.0.202004-gnurx-elf\rx-elf\rx-elf\rx-elf\include\c++\8.3.0.202004-gnurx\bits\std_abs.h **** 
  37:c:\gcc for renesas rx 8.3.0.202004-gnurx-elf\rx-elf\rx-elf\rx-elf\include\c++\8.3.0.202004-gnurx\bits\std_abs.h **** #define _GLIBCXX_INCLUDE_NEXT_C_HEADERS
  38:c:\gcc for renesas rx 8.3.0.202004-gnurx-elf\rx-elf\rx-elf\rx-elf\include\c++\8.3.0.202004-gnurx\bits\std_abs.h **** #include_next <stdlib.h>
  39:c:\gcc for renesas rx 8.3.0.202004-gnurx-elf\rx-elf\rx-elf\rx-elf\include\c++\8.3.0.202004-gnurx\bits\std_abs.h **** #ifdef __CORRECT_ISO_CPP_MATH_H_PROTO
  40:c:\gcc for renesas rx 8.3.0.202004-gnurx-elf\rx-elf\rx-elf\rx-elf\include\c++\8.3.0.202004-gnurx\bits\std_abs.h **** # include_next <math.h>
  41:c:\gcc for renesas rx 8.3.0.202004-gnurx-elf\rx-elf\rx-elf\rx-elf\include\c++\8.3.0.202004-gnurx\bits\std_abs.h **** #endif
  42:c:\gcc for renesas rx 8.3.0.202004-gnurx-elf\rx-elf\rx-elf\rx-elf\include\c++\8.3.0.202004-gnurx\bits\std_abs.h **** #undef _GLIBCXX_INCLUDE_NEXT_C_HEADERS
  43:c:\gcc for renesas rx 8.3.0.202004-gnurx-elf\rx-elf\rx-elf\rx-elf\include\c++\8.3.0.202004-gnurx\bits\std_abs.h **** 
  44:c:\gcc for renesas rx 8.3.0.202004-gnurx-elf\rx-elf\rx-elf\rx-elf\include\c++\8.3.0.202004-gnurx\bits\std_abs.h **** #undef abs
  45:c:\gcc for renesas rx 8.3.0.202004-gnurx-elf\rx-elf\rx-elf\rx-elf\include\c++\8.3.0.202004-gnurx\bits\std_abs.h **** 
  46:c:\gcc for renesas rx 8.3.0.202004-gnurx-elf\rx-elf\rx-elf\rx-elf\include\c++\8.3.0.202004-gnurx\bits\std_abs.h **** extern "C++"
  47:c:\gcc for renesas rx 8.3.0.202004-gnurx-elf\rx-elf\rx-elf\rx-elf\include\c++\8.3.0.202004-gnurx\bits\std_abs.h **** {
  48:c:\gcc for renesas rx 8.3.0.202004-gnurx-elf\rx-elf\rx-elf\rx-elf\include\c++\8.3.0.202004-gnurx\bits\std_abs.h **** namespace std _GLIBCXX_VISIBILITY(default)
  49:c:\gcc for renesas rx 8.3.0.202004-gnurx-elf\rx-elf\rx-elf\rx-elf\include\c++\8.3.0.202004-gnurx\bits\std_abs.h **** {
  50:c:\gcc for renesas rx 8.3.0.202004-gnurx-elf\rx-elf\rx-elf\rx-elf\include\c++\8.3.0.202004-gnurx\bits\std_abs.h **** _GLIBCXX_BEGIN_NAMESPACE_VERSION
  51:c:\gcc for renesas rx 8.3.0.202004-gnurx-elf\rx-elf\rx-elf\rx-elf\include\c++\8.3.0.202004-gnurx\bits\std_abs.h **** 
  52:c:\gcc for renesas rx 8.3.0.202004-gnurx-elf\rx-elf\rx-elf\rx-elf\include\c++\8.3.0.202004-gnurx\bits\std_abs.h ****   using ::abs;
  53:c:\gcc for renesas rx 8.3.0.202004-gnurx-elf\rx-elf\rx-elf\rx-elf\include\c++\8.3.0.202004-gnurx\bits\std_abs.h **** 
  54:c:\gcc for renesas rx 8.3.0.202004-gnurx-elf\rx-elf\rx-elf\rx-elf\include\c++\8.3.0.202004-gnurx\bits\std_abs.h **** #ifndef __CORRECT_ISO_CPP_STDLIB_H_PROTO
  55:c:\gcc for renesas rx 8.3.0.202004-gnurx-elf\rx-elf\rx-elf\rx-elf\include\c++\8.3.0.202004-gnurx\bits\std_abs.h ****   inline long
  56:c:\gcc for renesas rx 8.3.0.202004-gnurx-elf\rx-elf\rx-elf\rx-elf\include\c++\8.3.0.202004-gnurx\bits\std_abs.h ****   abs(long __i) { return __builtin_labs(__i); }
  57:c:\gcc for renesas rx 8.3.0.202004-gnurx-elf\rx-elf\rx-elf\rx-elf\include\c++\8.3.0.202004-gnurx\bits\std_abs.h **** #endif
  58:c:\gcc for renesas rx 8.3.0.202004-gnurx-elf\rx-elf\rx-elf\rx-elf\include\c++\8.3.0.202004-gnurx\bits\std_abs.h **** 
  59:c:\gcc for renesas rx 8.3.0.202004-gnurx-elf\rx-elf\rx-elf\rx-elf\include\c++\8.3.0.202004-gnurx\bits\std_abs.h **** #ifdef _GLIBCXX_USE_LONG_LONG
  60:c:\gcc for renesas rx 8.3.0.202004-gnurx-elf\rx-elf\rx-elf\rx-elf\include\c++\8.3.0.202004-gnurx\bits\std_abs.h ****   inline long long
  61:c:\gcc for renesas rx 8.3.0.202004-gnurx-elf\rx-elf\rx-elf\rx-elf\include\c++\8.3.0.202004-gnurx\bits\std_abs.h ****   abs(long long __x) { return __builtin_llabs (__x); }
  62:c:\gcc for renesas rx 8.3.0.202004-gnurx-elf\rx-elf\rx-elf\rx-elf\include\c++\8.3.0.202004-gnurx\bits\std_abs.h **** #endif
  63:c:\gcc for renesas rx 8.3.0.202004-gnurx-elf\rx-elf\rx-elf\rx-elf\include\c++\8.3.0.202004-gnurx\bits\std_abs.h **** 
  64:c:\gcc for renesas rx 8.3.0.202004-gnurx-elf\rx-elf\rx-elf\rx-elf\include\c++\8.3.0.202004-gnurx\bits\std_abs.h **** // _GLIBCXX_RESOLVE_LIB_DEFECTS
  65:c:\gcc for renesas rx 8.3.0.202004-gnurx-elf\rx-elf\rx-elf\rx-elf\include\c++\8.3.0.202004-gnurx\bits\std_abs.h **** // 2192. Validity and return type of std::abs(0u) is unclear
  66:c:\gcc for renesas rx 8.3.0.202004-gnurx-elf\rx-elf\rx-elf\rx-elf\include\c++\8.3.0.202004-gnurx\bits\std_abs.h **** // 2294. <cstdlib> should declare abs(double)
  67:c:\gcc for renesas rx 8.3.0.202004-gnurx-elf\rx-elf\rx-elf\rx-elf\include\c++\8.3.0.202004-gnurx\bits\std_abs.h **** 
  68:c:\gcc for renesas rx 8.3.0.202004-gnurx-elf\rx-elf\rx-elf\rx-elf\include\c++\8.3.0.202004-gnurx\bits\std_abs.h **** #ifndef __CORRECT_ISO_CPP_MATH_H_PROTO
  69:c:\gcc for renesas rx 8.3.0.202004-gnurx-elf\rx-elf\rx-elf\rx-elf\include\c++\8.3.0.202004-gnurx\bits\std_abs.h ****   inline _GLIBCXX_CONSTEXPR double
  70:c:\gcc for renesas rx 8.3.0.202004-gnurx-elf\rx-elf\rx-elf\rx-elf\include\c++\8.3.0.202004-gnurx\bits\std_abs.h ****   abs(double __x)
  71:c:\gcc for renesas rx 8.3.0.202004-gnurx-elf\rx-elf\rx-elf\rx-elf\include\c++\8.3.0.202004-gnurx\bits\std_abs.h ****   { return __builtin_fabs(__x); }
  72:c:\gcc for renesas rx 8.3.0.202004-gnurx-elf\rx-elf\rx-elf\rx-elf\include\c++\8.3.0.202004-gnurx\bits\std_abs.h **** 
  73:c:\gcc for renesas rx 8.3.0.202004-gnurx-elf\rx-elf\rx-elf\rx-elf\include\c++\8.3.0.202004-gnurx\bits\std_abs.h ****   inline _GLIBCXX_CONSTEXPR float
  74:c:\gcc for renesas rx 8.3.0.202004-gnurx-elf\rx-elf\rx-elf\rx-elf\include\c++\8.3.0.202004-gnurx\bits\std_abs.h ****   abs(float __x)
  75:c:\gcc for renesas rx 8.3.0.202004-gnurx-elf\rx-elf\rx-elf\rx-elf\include\c++\8.3.0.202004-gnurx\bits\std_abs.h ****   { return __builtin_fabsf(__x); }
 730                             		.loc 5 75 5 is_stmt 1
 731                             		.loc 5 75 31 is_stmt 0
 732 004b 7B F5                   		bclr #31, r5
 733                             	.LBE269:
 734                             	.LBE268:
  66:../src/tensorflow/lite/micro/kernels/elementwise.cc ****   }
 735                             		.loc 1 66 5
 736 004d FD 22 A5                		mov.L	r5, [r10+]
  65:../src/tensorflow/lite/micro/kernels/elementwise.cc ****     out_data[i] = func(in_data[i]);
 737                             		.loc 1 65 24
 738 0050 47 17                   		cmp	r1, r7
 739 0052 21 F6                   		bne	.L71
 740                             		.balign 8,3,1
 741                             	.L70:
 742                             	.LBE267:
  68:../src/tensorflow/lite/micro/kernels/elementwise.cc **** }
 743                             		.loc 1 68 10
 744 0054 66 01                   		mov.L	#0, r1
 745                             	.LVL106:
 746                             	.LBE255:
 747                             	.LBE254:
 748                             	.LBE253:
  83:../src/tensorflow/lite/micro/kernels/elementwise.cc **** 
 749                             		.loc 1 83 1
 750 0056 3F 6A 0C                		rtsd	#48, r6-r10
 751                             	.LVL107:
 752                             	.L83:
 753                             	.LBB275:
 754                             	.LBB273:
 755                             	.LBB271:
  61:../src/tensorflow/lite/micro/kernels/elementwise.cc ****   const size_t num_elements = ElementCount(*input->dims);
 756                             		.loc 1 61 3
 757 0059 ED 7A 05                		mov.L	20[r7], r10
 758                             	.LVL108:
 759 005c 05 00 00 00             		bsr	_TfLiteTypeGetName
 760                             	.LVL109:
 761 0060 EF 16                   		mov.L	r1, r6
 762                             	.LVL110:
 763 0062 66 11                   		mov.L	#1, r1
 764 0064 05 00 00 00             		bsr	_TfLiteTypeGetName
 765                             	.LVL111:
 766 0068 A1 81                   		mov.L	r1, 24[r0]
 767 006a A1 0E                   		mov.L	r6, 20[r0]
 768 006c F9 02 04 00 00 00 00    		mov.L	#.LC20, 16[r0]
 769 0073 F9 02 03 7B 00 00 00    		mov.L	#.LC13, 12[r0]
 770 007a 3E 02 3D                		mov.L	#61, 8[r0]
 771 007d F9 02 01 11 00 00 00    		mov.L	#.LC9, 4[r0]
 772 0084 EF 71                   		mov.L	r7, r1
 773 0086 F8 02 87 00 00 00       		mov.L	#.LC14, [r0]
 774 008c 7F 1A                   		jsr	r10
 775                             	.LVL112:
 776 008e 66 11                   		mov.L	#1, r1
 777                             	.LBE271:
 778                             	.LBE273:
 779                             	.LBE275:
  83:../src/tensorflow/lite/micro/kernels/elementwise.cc **** 
 780                             		.loc 1 83 1
 781 0090 3F 6A 0C                		rtsd	#48, r6-r10
 782                             	.LVL113:
 783                             	.L66:
 784                             	.LBB276:
 785                             	.LBB274:
 786                             	.LBB272:
 787                             	.LBB270:
 788                             	.LBB260:
 789                             	.LBB259:
  33:C:\Users\a5116938\Desktop\e2_studio_workspace\EEMBC_final\RX65N_Cloud_Kit\src/tensorflow/lite/micro/kernels\kernel_util.h ****   TFLITE_DCHECK(node != nullptr);
 790                             		.loc 3 33 3
 791 0093 05 00 00 00             		bsr	_abort
 792                             	.LVL114:
 793                             	.LBE259:
 794                             	.LBE260:
 795                             	.LBE270:
 796                             	.LBE272:
 797                             	.LBE274:
 798                             	.LBE276:
 799                             	.LFE1204:
 801 0097 03                      		.section	.text._ZN6tflite3ops5micro11elementwise12_GLOBAL__N_114LogicalNotEvalEP13TfLiteContextP10
 803                             	__ZN6tflite3ops5micro11elementwise12_GLOBAL__N_114LogicalNotEvalEP13TfLiteContextP10TfLiteNode:
 804                             	.LFB1217:
 104:../src/tensorflow/lite/micro/kernels/elementwise.cc **** 
 105:../src/tensorflow/lite/micro/kernels/elementwise.cc **** TfLiteStatus SquareEval(TfLiteContext* context, TfLiteNode* node) {
 106:../src/tensorflow/lite/micro/kernels/elementwise.cc ****   return EvalNumeric(context, node, [](float f) { return f * f; });
 107:../src/tensorflow/lite/micro/kernels/elementwise.cc **** }
 108:../src/tensorflow/lite/micro/kernels/elementwise.cc **** 
 109:../src/tensorflow/lite/micro/kernels/elementwise.cc **** TfLiteStatus LogicalNotEval(TfLiteContext* context, TfLiteNode* node) {
 805                             		.loc 1 109 71 is_stmt 1
 806                             	.LVL115:
 807 0000 6E 6A                   		pushm	r6-r10
 808                             	.LCFI12:
 809 0002 71 00 E4                		add	#-28, r0
 810                             	.LCFI13:
 110:../src/tensorflow/lite/micro/kernels/elementwise.cc ****   return EvalLogical(context, node, [](bool v) { return !v; });
 811                             		.loc 1 110 3
 812                             	.LVL116:
  78:../src/tensorflow/lite/micro/kernels/elementwise.cc **** }
 813                             		.loc 1 78 3
  41:C:\Users\a5116938\Desktop\e2_studio_workspace\EEMBC_final\RX65N_Cloud_Kit\src/tensorflow/lite/micro/kernels\kernel_util.h **** }
 814                             		.loc 3 41 3
 815                             	.LBB297:
 816                             	.LBB298:
 817                             	.LBB299:
 818                             	.LBB300:
 819                             	.LBB301:
 820                             	.LBB302:
  33:C:\Users\a5116938\Desktop\e2_studio_workspace\EEMBC_final\RX65N_Cloud_Kit\src/tensorflow/lite/micro/kernels\kernel_util.h ****   TFLITE_DCHECK(node != nullptr);
 821                             		.loc 3 33 3
 822 0005 61 01                   		cmp	#0, r1
 823 0007 3A 8D 00                		beq	.L86
  34:C:\Users\a5116938\Desktop\e2_studio_workspace\EEMBC_final\RX65N_Cloud_Kit\src/tensorflow/lite/micro/kernels\kernel_util.h ****   return context->GetEvalTensor(context, node->inputs->data[index]);
 824                             		.loc 3 34 3 is_stmt 0
 825 000a 71 2A 00                		add	#0, r2, r10
 826 000d 3A 87 00                		beq	.L86
 827 0010 EF 17                   		mov.L	r1, r7
  35:C:\Users\a5116938\Desktop\e2_studio_workspace\EEMBC_final\RX65N_Cloud_Kit\src/tensorflow/lite/micro/kernels\kernel_util.h **** }
 828                             		.loc 3 35 3 is_stmt 1
  35:C:\Users\a5116938\Desktop\e2_studio_workspace\EEMBC_final\RX65N_Cloud_Kit\src/tensorflow/lite/micro/kernels\kernel_util.h **** }
 829                             		.loc 3 35 32 is_stmt 0
 830 0012 EC A4                   		mov.L	[r10], r4
 831 0014 AD 1D                   		mov.L	84[r1], r5
 832 0016 A8 4A                   		mov.L	4[r4], r2
 833                             	.LVL117:
 834 0018 7F 15                   		jsr	r5
 835                             	.LVL118:
 836 001a EF 16                   		mov.L	r1, r6
 837                             	.LVL119:
 838                             	.LBE302:
 839                             	.LBE301:
 840                             	.LBE300:
 841                             	.LBB305:
 842                             	.LBB306:
  47:C:\Users\a5116938\Desktop\e2_studio_workspace\EEMBC_final\RX65N_Cloud_Kit\src/tensorflow/lite/micro/kernels\kernel_util.h ****   TFLITE_DCHECK(node != nullptr);
 843                             		.loc 3 47 3 is_stmt 1
  48:C:\Users\a5116938\Desktop\e2_studio_workspace\EEMBC_final\RX65N_Cloud_Kit\src/tensorflow/lite/micro/kernels\kernel_util.h ****   return context->GetEvalTensor(context, node->outputs->data[index]);
 844                             		.loc 3 48 3
  49:C:\Users\a5116938\Desktop\e2_studio_workspace\EEMBC_final\RX65N_Cloud_Kit\src/tensorflow/lite/micro/kernels\kernel_util.h **** }
 845                             		.loc 3 49 3
  49:C:\Users\a5116938\Desktop\e2_studio_workspace\EEMBC_final\RX65N_Cloud_Kit\src/tensorflow/lite/micro/kernels\kernel_util.h **** }
 846                             		.loc 3 49 32 is_stmt 0
 847 001c ED A5 01                		mov.L	4[r10], r5
 848 001f ED 7A 15                		mov.L	84[r7], r10
 849                             	.LVL120:
 850 0022 EF 71                   		mov.L	r7, r1
 851                             	.LVL121:
 852 0024 A8 5A                   		mov.L	4[r5], r2
 853 0026 7F 1A                   		jsr	r10
 854                             	.LVL122:
 855 0028 EF 1A                   		mov.L	r1, r10
 856                             	.LVL123:
 857                             	.LBE306:
 858                             	.LBE305:
  61:../src/tensorflow/lite/micro/kernels/elementwise.cc ****   const size_t num_elements = ElementCount(*input->dims);
 859                             		.loc 1 61 3
 860 002a A8 E1                   		mov.L	8[r6], r1
 861                             	.LVL124:
 862 002c 61 61                   		cmp	#6, r1
 863 002e 21 2C                   		bne	.L103
  62:../src/tensorflow/lite/micro/kernels/elementwise.cc ****   const T* in_data = tflite::micro::GetTensorData<T>(input);
 864                             		.loc 1 62 43
 865 0030 A8 69                   		mov.L	4[r6], r1
 866 0032 05 00 00 00             		bsr	__ZN6tflite12ElementCountERK14TfLiteIntArray
 867                             	.LVL125:
 868                             	.LBB307:
 869                             	.LBB308:
 870                             		.loc 3 62 53
 871 0036 EC 67                   		mov.L	[r6], r7
 872                             	.LVL126:
 873                             	.LBE308:
 874                             	.LBE307:
 875                             	.LBB309:
 876                             	.LBB310:
  55:C:\Users\a5116938\Desktop\e2_studio_workspace\EEMBC_final\RX65N_Cloud_Kit\src/tensorflow/lite/micro/kernels\kernel_util.h **** }
 877                             		.loc 3 55 28
 878 0038 61 0A                   		cmp	#0, r10
 879 003a 13                      		beq	.L89
 880 003b EC AA                   		mov.L	[r10], r10
 881                             	.LVL127:
 882                             		.balign 8,3,1
 883                             	.L89:
 884                             	.LBE310:
 885                             	.LBE309:
 886                             	.LBB311:
  65:../src/tensorflow/lite/micro/kernels/elementwise.cc ****     out_data[i] = func(in_data[i]);
 887                             		.loc 1 65 24
 888 003d 61 01                   		cmp	#0, r1
 889 003f 20 16                   		beq	.L90
 890 0041 4B 71                   		add	r7, r1
 891                             	.LVL128:
 892 0043 77 10 01 00 00          		.balign 8,3,5
 893                             	.L91:
  66:../src/tensorflow/lite/micro/kernels/elementwise.cc ****   }
 894                             		.loc 1 66 23
 895 0048 FD 28 75                		mov.B	[r7+], r5
 896                             	.LVL129:
 897                             	.LBB312:
 898                             	.LBB313:
 899                             	.LBB314:
 900                             		.loc 1 110 50 is_stmt 1
 901                             		.loc 1 110 58 is_stmt 0
 902 004b FD E0 F5                		bnot	#0, r5
 903                             	.LBE314:
 904                             	.LBE313:
 905                             	.LBE312:
  66:../src/tensorflow/lite/micro/kernels/elementwise.cc ****   }
 906                             		.loc 1 66 5
 907 004e FD 20 A5                		mov.B	r5, [r10+]
 908                             	.LVL130:
  65:../src/tensorflow/lite/micro/kernels/elementwise.cc ****     out_data[i] = func(in_data[i]);
 909                             		.loc 1 65 24
 910 0051 47 71                   		cmp	r7, r1
 911 0053 21 F5                   		bne	.L91
 912                             	.LVL131:
 913                             		.balign 8,3,1
 914                             	.L90:
 915                             	.LBE311:
  68:../src/tensorflow/lite/micro/kernels/elementwise.cc **** }
 916                             		.loc 1 68 10
 917 0055 66 01                   		mov.L	#0, r1
 918                             	.LVL132:
 919                             	.LBE299:
 920                             	.LBE298:
 921                             	.LBE297:
 111:../src/tensorflow/lite/micro/kernels/elementwise.cc **** }
 922                             		.loc 1 111 1
 923 0057 3F 6A 0C                		rtsd	#48, r6-r10
 924                             	.LVL133:
 925                             	.L103:
 926                             	.LBB320:
 927                             	.LBB318:
 928                             	.LBB316:
  61:../src/tensorflow/lite/micro/kernels/elementwise.cc ****   const size_t num_elements = ElementCount(*input->dims);
 929                             		.loc 1 61 3
 930 005a ED 7A 05                		mov.L	20[r7], r10
 931                             	.LVL134:
 932 005d 05 00 00 00             		bsr	_TfLiteTypeGetName
 933                             	.LVL135:
 934 0061 EF 16                   		mov.L	r1, r6
 935                             	.LVL136:
 936 0063 66 61                   		mov.L	#6, r1
 937 0065 05 00 00 00             		bsr	_TfLiteTypeGetName
 938                             	.LVL137:
 939 0069 A1 81                   		mov.L	r1, 24[r0]
 940 006b A1 0E                   		mov.L	r6, 20[r0]
 941 006d F9 02 04 00 00 00 00    		mov.L	#.LC20, 16[r0]
 942 0074 F9 02 03 7B 00 00 00    		mov.L	#.LC13, 12[r0]
 943 007b 3E 02 3D                		mov.L	#61, 8[r0]
 944 007e F9 02 01 11 00 00 00    		mov.L	#.LC9, 4[r0]
 945 0085 EF 71                   		mov.L	r7, r1
 946 0087 F8 02 87 00 00 00       		mov.L	#.LC14, [r0]
 947 008d 7F 1A                   		jsr	r10
 948                             	.LVL138:
 949 008f 66 11                   		mov.L	#1, r1
 950                             	.LBE316:
 951                             	.LBE318:
 952                             	.LBE320:
 953                             		.loc 1 111 1
 954 0091 3F 6A 0C                		rtsd	#48, r6-r10
 955                             	.LVL139:
 956                             	.L86:
 957                             	.LBB321:
 958                             	.LBB319:
 959                             	.LBB317:
 960                             	.LBB315:
 961                             	.LBB304:
 962                             	.LBB303:
  33:C:\Users\a5116938\Desktop\e2_studio_workspace\EEMBC_final\RX65N_Cloud_Kit\src/tensorflow/lite/micro/kernels\kernel_util.h ****   TFLITE_DCHECK(node != nullptr);
 963                             		.loc 3 33 3
 964 0094 05 00 00 00             		bsr	_abort
 965                             	.LVL140:
 966                             	.LBE303:
 967                             	.LBE304:
 968                             	.LBE315:
 969                             	.LBE317:
 970                             	.LBE319:
 971                             	.LBE321:
 972                             	.LFE1217:
 974                             		.section	.text._ZN6tflite3ops5micro11elementwise12_GLOBAL__N_110SquareEvalEP13TfLiteContextP10TfLi
 976                             	__ZN6tflite3ops5micro11elementwise12_GLOBAL__N_110SquareEvalEP13TfLiteContextP10TfLiteNode:
 977                             	.LFB1213:
 105:../src/tensorflow/lite/micro/kernels/elementwise.cc ****   return EvalNumeric(context, node, [](float f) { return f * f; });
 978                             		.loc 1 105 67 is_stmt 1
 979                             	.LVL141:
 980 0000 6E 6A                   		pushm	r6-r10
 981                             	.LCFI14:
 982 0002 71 00 E4                		add	#-28, r0
 983                             	.LCFI15:
 106:../src/tensorflow/lite/micro/kernels/elementwise.cc **** }
 984                             		.loc 1 106 3
 985                             	.LVL142:
  73:../src/tensorflow/lite/micro/kernels/elementwise.cc **** }
 986                             		.loc 1 73 3
  41:C:\Users\a5116938\Desktop\e2_studio_workspace\EEMBC_final\RX65N_Cloud_Kit\src/tensorflow/lite/micro/kernels\kernel_util.h **** }
 987                             		.loc 3 41 3
 988                             	.LBB342:
 989                             	.LBB343:
 990                             	.LBB344:
 991                             	.LBB345:
 992                             	.LBB346:
 993                             	.LBB347:
  33:C:\Users\a5116938\Desktop\e2_studio_workspace\EEMBC_final\RX65N_Cloud_Kit\src/tensorflow/lite/micro/kernels\kernel_util.h ****   TFLITE_DCHECK(node != nullptr);
 994                             		.loc 3 33 3
 995 0005 61 01                   		cmp	#0, r1
 996 0007 3A 8D 00                		beq	.L106
  34:C:\Users\a5116938\Desktop\e2_studio_workspace\EEMBC_final\RX65N_Cloud_Kit\src/tensorflow/lite/micro/kernels\kernel_util.h ****   return context->GetEvalTensor(context, node->inputs->data[index]);
 997                             		.loc 3 34 3 is_stmt 0
 998 000a 71 2A 00                		add	#0, r2, r10
 999 000d 3A 87 00                		beq	.L106
 1000 0010 EF 17                   		mov.L	r1, r7
  35:C:\Users\a5116938\Desktop\e2_studio_workspace\EEMBC_final\RX65N_Cloud_Kit\src/tensorflow/lite/micro/kernels\kernel_util.h **** }
 1001                             		.loc 3 35 3 is_stmt 1
  35:C:\Users\a5116938\Desktop\e2_studio_workspace\EEMBC_final\RX65N_Cloud_Kit\src/tensorflow/lite/micro/kernels\kernel_util.h **** }
 1002                             		.loc 3 35 32 is_stmt 0
 1003 0012 EC A4                   		mov.L	[r10], r4
 1004 0014 AD 1D                   		mov.L	84[r1], r5
 1005 0016 A8 4A                   		mov.L	4[r4], r2
 1006                             	.LVL143:
 1007 0018 7F 15                   		jsr	r5
 1008                             	.LVL144:
 1009 001a EF 16                   		mov.L	r1, r6
 1010                             	.LVL145:
 1011                             	.LBE347:
 1012                             	.LBE346:
 1013                             	.LBE345:
 1014                             	.LBB350:
 1015                             	.LBB351:
  47:C:\Users\a5116938\Desktop\e2_studio_workspace\EEMBC_final\RX65N_Cloud_Kit\src/tensorflow/lite/micro/kernels\kernel_util.h ****   TFLITE_DCHECK(node != nullptr);
 1016                             		.loc 3 47 3 is_stmt 1
  48:C:\Users\a5116938\Desktop\e2_studio_workspace\EEMBC_final\RX65N_Cloud_Kit\src/tensorflow/lite/micro/kernels\kernel_util.h ****   return context->GetEvalTensor(context, node->outputs->data[index]);
 1017                             		.loc 3 48 3
  49:C:\Users\a5116938\Desktop\e2_studio_workspace\EEMBC_final\RX65N_Cloud_Kit\src/tensorflow/lite/micro/kernels\kernel_util.h **** }
 1018                             		.loc 3 49 3
  49:C:\Users\a5116938\Desktop\e2_studio_workspace\EEMBC_final\RX65N_Cloud_Kit\src/tensorflow/lite/micro/kernels\kernel_util.h **** }
 1019                             		.loc 3 49 32 is_stmt 0
 1020 001c ED A5 01                		mov.L	4[r10], r5
 1021 001f ED 7A 15                		mov.L	84[r7], r10
 1022                             	.LVL146:
 1023 0022 EF 71                   		mov.L	r7, r1
 1024                             	.LVL147:
 1025 0024 A8 5A                   		mov.L	4[r5], r2
 1026 0026 7F 1A                   		jsr	r10
 1027                             	.LVL148:
 1028 0028 EF 1A                   		mov.L	r1, r10
 1029                             	.LVL149:
 1030                             	.LBE351:
 1031                             	.LBE350:
  61:../src/tensorflow/lite/micro/kernels/elementwise.cc ****   const size_t num_elements = ElementCount(*input->dims);
 1032                             		.loc 1 61 3
 1033 002a A8 E1                   		mov.L	8[r6], r1
 1034                             	.LVL150:
 1035 002c 61 11                   		cmp	#1, r1
 1036 002e 21 2C                   		bne	.L123
  62:../src/tensorflow/lite/micro/kernels/elementwise.cc ****   const T* in_data = tflite::micro::GetTensorData<T>(input);
 1037                             		.loc 1 62 43
 1038 0030 A8 69                   		mov.L	4[r6], r1
 1039 0032 05 00 00 00             		bsr	__ZN6tflite12ElementCountERK14TfLiteIntArray
 1040                             	.LVL151:
 1041                             	.LBB352:
 1042                             	.LBB353:
 1043                             		.loc 3 62 53
 1044 0036 EC 65                   		mov.L	[r6], r5
 1045                             	.LVL152:
 1046                             	.LBE353:
 1047                             	.LBE352:
 1048                             	.LBB354:
 1049                             	.LBB355:
  55:C:\Users\a5116938\Desktop\e2_studio_workspace\EEMBC_final\RX65N_Cloud_Kit\src/tensorflow/lite/micro/kernels\kernel_util.h **** }
 1050                             		.loc 3 55 28
 1051 0038 61 0A                   		cmp	#0, r10
 1052 003a 13                      		beq	.L109
 1053 003b EC AA                   		mov.L	[r10], r10
 1054                             	.LVL153:
 1055                             		.balign 8,3,1
 1056                             	.L109:
 1057                             	.LBE355:
 1058                             	.LBE354:
 1059                             	.LBB356:
  65:../src/tensorflow/lite/micro/kernels/elementwise.cc ****     out_data[i] = func(in_data[i]);
 1060                             		.loc 1 65 24
 1061 003d 61 01                   		cmp	#0, r1
 1062 003f 20 16                   		beq	.L110
 1063 0041 6C 21                   		shll	#2, r1
 1064                             	.LVL154:
 1065 0043 4B 51                   		add	r5, r1
 1066                             	.LVL155:
 1067 0045 FC 13 00                		.balign 8,3,3
 1068                             	.L111:
  66:../src/tensorflow/lite/micro/kernels/elementwise.cc ****   }
 1069                             		.loc 1 66 23
 1070 0048 FD 2A 57                		mov.L	[r5+], r7
 1071                             	.LVL156:
 1072                             	.LBB357:
 1073                             	.LBB358:
 1074                             	.LBB359:
 106:../src/tensorflow/lite/micro/kernels/elementwise.cc **** }
 1075                             		.loc 1 106 51 is_stmt 1
 106:../src/tensorflow/lite/micro/kernels/elementwise.cc **** }
 1076                             		.loc 1 106 62 is_stmt 0
 1077 004b FC 8F 77                		fmul	r7, r7
 1078                             	.LBE359:
 1079                             	.LBE358:
 1080                             	.LBE357:
  66:../src/tensorflow/lite/micro/kernels/elementwise.cc ****   }
 1081                             		.loc 1 66 5
 1082 004e FD 22 A7                		mov.L	r7, [r10+]
  65:../src/tensorflow/lite/micro/kernels/elementwise.cc ****     out_data[i] = func(in_data[i]);
 1083                             		.loc 1 65 24
 1084 0051 47 15                   		cmp	r1, r5
 1085 0053 21 F5                   		bne	.L111
 1086                             	.LVL157:
 1087                             		.balign 8,3,1
 1088                             	.L110:
 1089                             	.LBE356:
  68:../src/tensorflow/lite/micro/kernels/elementwise.cc **** }
 1090                             		.loc 1 68 10
 1091 0055 66 01                   		mov.L	#0, r1
 1092                             	.LVL158:
 1093                             	.LBE344:
 1094                             	.LBE343:
 1095                             	.LBE342:
 107:../src/tensorflow/lite/micro/kernels/elementwise.cc **** 
 1096                             		.loc 1 107 1
 1097 0057 3F 6A 0C                		rtsd	#48, r6-r10
 1098                             	.LVL159:
 1099                             	.L123:
 1100                             	.LBB365:
 1101                             	.LBB363:
 1102                             	.LBB361:
  61:../src/tensorflow/lite/micro/kernels/elementwise.cc ****   const size_t num_elements = ElementCount(*input->dims);
 1103                             		.loc 1 61 3
 1104 005a ED 7A 05                		mov.L	20[r7], r10
 1105                             	.LVL160:
 1106 005d 05 00 00 00             		bsr	_TfLiteTypeGetName
 1107                             	.LVL161:
 1108 0061 EF 16                   		mov.L	r1, r6
 1109                             	.LVL162:
 1110 0063 66 11                   		mov.L	#1, r1
 1111 0065 05 00 00 00             		bsr	_TfLiteTypeGetName
 1112                             	.LVL163:
 1113 0069 A1 81                   		mov.L	r1, 24[r0]
 1114 006b A1 0E                   		mov.L	r6, 20[r0]
 1115 006d F9 02 04 00 00 00 00    		mov.L	#.LC20, 16[r0]
 1116 0074 F9 02 03 7B 00 00 00    		mov.L	#.LC13, 12[r0]
 1117 007b 3E 02 3D                		mov.L	#61, 8[r0]
 1118 007e F9 02 01 11 00 00 00    		mov.L	#.LC9, 4[r0]
 1119 0085 EF 71                   		mov.L	r7, r1
 1120 0087 F8 02 87 00 00 00       		mov.L	#.LC14, [r0]
 1121 008d 7F 1A                   		jsr	r10
 1122                             	.LVL164:
 1123 008f 66 11                   		mov.L	#1, r1
 1124                             	.LBE361:
 1125                             	.LBE363:
 1126                             	.LBE365:
 107:../src/tensorflow/lite/micro/kernels/elementwise.cc **** 
 1127                             		.loc 1 107 1
 1128 0091 3F 6A 0C                		rtsd	#48, r6-r10
 1129                             	.LVL165:
 1130                             	.L106:
 1131                             	.LBB366:
 1132                             	.LBB364:
 1133                             	.LBB362:
 1134                             	.LBB360:
 1135                             	.LBB349:
 1136                             	.LBB348:
  33:C:\Users\a5116938\Desktop\e2_studio_workspace\EEMBC_final\RX65N_Cloud_Kit\src/tensorflow/lite/micro/kernels\kernel_util.h ****   TFLITE_DCHECK(node != nullptr);
 1137                             		.loc 3 33 3
 1138 0094 05 00 00 00             		bsr	_abort
 1139                             	.LVL166:
 1140                             	.LBE348:
 1141                             	.LBE349:
 1142                             	.LBE360:
 1143                             	.LBE362:
 1144                             	.LBE364:
 1145                             	.LBE366:
 1146                             	.LFE1213:
 1148                             		.section	.text._ZN6tflite3ops5micro11elementwise12_GLOBAL__N_17CosEvalEP13TfLiteContextP10TfLiteNo
 1150                             	__ZN6tflite3ops5micro11elementwise12_GLOBAL__N_17CosEvalEP13TfLiteContextP10TfLiteNode:
 1151                             	.LFB1206:
  89:../src/tensorflow/lite/micro/kernels/elementwise.cc ****   return EvalNumeric(context, node, std::cos);
 1152                             		.loc 1 89 64 is_stmt 1
 1153                             	.LVL167:
 1154 0000 6E 6A                   		pushm	r6-r10
 1155                             	.LCFI16:
 1156 0002 71 00 E4                		add	#-28, r0
 1157                             	.LCFI17:
  90:../src/tensorflow/lite/micro/kernels/elementwise.cc **** }
 1158                             		.loc 1 90 3
 1159                             	.LVL168:
  73:../src/tensorflow/lite/micro/kernels/elementwise.cc **** }
 1160                             		.loc 1 73 3
  41:C:\Users\a5116938\Desktop\e2_studio_workspace\EEMBC_final\RX65N_Cloud_Kit\src/tensorflow/lite/micro/kernels\kernel_util.h **** }
 1161                             		.loc 3 41 3
 1162                             	.LBB384:
 1163                             	.LBB385:
 1164                             	.LBB386:
 1165                             	.LBB387:
 1166                             	.LBB388:
 1167                             	.LBB389:
  33:C:\Users\a5116938\Desktop\e2_studio_workspace\EEMBC_final\RX65N_Cloud_Kit\src/tensorflow/lite/micro/kernels\kernel_util.h ****   TFLITE_DCHECK(node != nullptr);
 1168                             		.loc 3 33 3
 1169 0005 61 01                   		cmp	#0, r1
 1170 0007 3A 8E 00                		beq	.L126
  34:C:\Users\a5116938\Desktop\e2_studio_workspace\EEMBC_final\RX65N_Cloud_Kit\src/tensorflow/lite/micro/kernels\kernel_util.h ****   return context->GetEvalTensor(context, node->inputs->data[index]);
 1171                             		.loc 3 34 3 is_stmt 0
 1172 000a 71 2A 00                		add	#0, r2, r10
 1173 000d 3A 88 00                		beq	.L126
 1174 0010 EF 17                   		mov.L	r1, r7
  35:C:\Users\a5116938\Desktop\e2_studio_workspace\EEMBC_final\RX65N_Cloud_Kit\src/tensorflow/lite/micro/kernels\kernel_util.h **** }
 1175                             		.loc 3 35 3 is_stmt 1
  35:C:\Users\a5116938\Desktop\e2_studio_workspace\EEMBC_final\RX65N_Cloud_Kit\src/tensorflow/lite/micro/kernels\kernel_util.h **** }
 1176                             		.loc 3 35 32 is_stmt 0
 1177 0012 EC A4                   		mov.L	[r10], r4
 1178 0014 AD 1D                   		mov.L	84[r1], r5
 1179 0016 A8 4A                   		mov.L	4[r4], r2
 1180                             	.LVL169:
 1181 0018 7F 15                   		jsr	r5
 1182                             	.LVL170:
 1183 001a EF 16                   		mov.L	r1, r6
 1184                             	.LVL171:
 1185                             	.LBE389:
 1186                             	.LBE388:
 1187                             	.LBE387:
 1188                             	.LBB392:
 1189                             	.LBB393:
  47:C:\Users\a5116938\Desktop\e2_studio_workspace\EEMBC_final\RX65N_Cloud_Kit\src/tensorflow/lite/micro/kernels\kernel_util.h ****   TFLITE_DCHECK(node != nullptr);
 1190                             		.loc 3 47 3 is_stmt 1
  48:C:\Users\a5116938\Desktop\e2_studio_workspace\EEMBC_final\RX65N_Cloud_Kit\src/tensorflow/lite/micro/kernels\kernel_util.h ****   return context->GetEvalTensor(context, node->outputs->data[index]);
 1191                             		.loc 3 48 3
  49:C:\Users\a5116938\Desktop\e2_studio_workspace\EEMBC_final\RX65N_Cloud_Kit\src/tensorflow/lite/micro/kernels\kernel_util.h **** }
 1192                             		.loc 3 49 3
  49:C:\Users\a5116938\Desktop\e2_studio_workspace\EEMBC_final\RX65N_Cloud_Kit\src/tensorflow/lite/micro/kernels\kernel_util.h **** }
 1193                             		.loc 3 49 32 is_stmt 0
 1194 001c ED A5 01                		mov.L	4[r10], r5
 1195 001f ED 7A 15                		mov.L	84[r7], r10
 1196                             	.LVL172:
 1197 0022 EF 71                   		mov.L	r7, r1
 1198                             	.LVL173:
 1199 0024 A8 5A                   		mov.L	4[r5], r2
 1200 0026 7F 1A                   		jsr	r10
 1201                             	.LVL174:
 1202 0028 EF 1A                   		mov.L	r1, r10
 1203                             	.LVL175:
 1204                             	.LBE393:
 1205                             	.LBE392:
  61:../src/tensorflow/lite/micro/kernels/elementwise.cc ****   const size_t num_elements = ElementCount(*input->dims);
 1206                             		.loc 1 61 3
 1207 002a A8 E1                   		mov.L	8[r6], r1
 1208                             	.LVL176:
 1209 002c 61 11                   		cmp	#1, r1
 1210 002e 21 2D                   		bne	.L143
  62:../src/tensorflow/lite/micro/kernels/elementwise.cc ****   const T* in_data = tflite::micro::GetTensorData<T>(input);
 1211                             		.loc 1 62 43
 1212 0030 A8 69                   		mov.L	4[r6], r1
 1213 0032 05 00 00 00             		bsr	__ZN6tflite12ElementCountERK14TfLiteIntArray
 1214                             	.LVL177:
 1215                             	.LBB394:
 1216                             	.LBB395:
 1217                             		.loc 3 62 53
 1218 0036 EC 67                   		mov.L	[r6], r7
 1219                             	.LVL178:
 1220                             	.LBE395:
 1221                             	.LBE394:
 1222                             	.LBB396:
 1223                             	.LBB397:
  55:C:\Users\a5116938\Desktop\e2_studio_workspace\EEMBC_final\RX65N_Cloud_Kit\src/tensorflow/lite/micro/kernels\kernel_util.h **** }
 1224                             		.loc 3 55 28
 1225 0038 61 0A                   		cmp	#0, r10
 1226 003a 13                      		beq	.L129
 1227 003b EC AA                   		mov.L	[r10], r10
 1228                             	.LVL179:
 1229                             		.balign 8,3,1
 1230                             	.L129:
 1231                             	.LBE397:
 1232                             	.LBE396:
 1233                             	.LBB398:
  65:../src/tensorflow/lite/micro/kernels/elementwise.cc ****     out_data[i] = func(in_data[i]);
 1234                             		.loc 1 65 24
 1235 003d 61 01                   		cmp	#0, r1
 1236 003f 20 17                   		beq	.L130
 1237 0041 6C 21                   		shll	#2, r1
 1238                             	.LVL180:
 1239 0043 FF 26 17                		add	r1, r7, r6
 1240                             	.LVL181:
 1241 0046 EF 00                   		.balign 8,3,3
 1242                             	.L131:
 1243                             	.LBB399:
 1244                             	.LBB400:
 185:c:\gcc for renesas rx 8.3.0.202004-gnurx-elf\rx-elf\rx-elf\rx-elf\include\c++\8.3.0.202004-gnurx\cmath **** 
 1245                             		.loc 4 185 5 is_stmt 1
 185:c:\gcc for renesas rx 8.3.0.202004-gnurx-elf\rx-elf\rx-elf\rx-elf\include\c++\8.3.0.202004-gnurx\cmath **** 
 1246                             		.loc 4 185 26 is_stmt 0
 1247 0048 FD 2A 71                		mov.L	[r7+], r1
 1248                             	.LVL182:
 1249 004b 05 00 00 00             		bsr	_cosf
 1250                             	.LVL183:
 1251                             	.LBE400:
 1252                             	.LBE399:
  66:../src/tensorflow/lite/micro/kernels/elementwise.cc ****   }
 1253                             		.loc 1 66 5
 1254 004f FD 22 A1                		mov.L	r1, [r10+]
  65:../src/tensorflow/lite/micro/kernels/elementwise.cc ****     out_data[i] = func(in_data[i]);
 1255                             		.loc 1 65 24
 1256 0052 47 67                   		cmp	r6, r7
 1257 0054 21 F4                   		bne	.L131
 1258                             		.balign 8,3,1
 1259                             	.L130:
 1260                             	.LBE398:
  68:../src/tensorflow/lite/micro/kernels/elementwise.cc **** }
 1261                             		.loc 1 68 10
 1262 0056 66 01                   		mov.L	#0, r1
 1263                             	.LVL184:
 1264                             	.LBE386:
 1265                             	.LBE385:
 1266                             	.LBE384:
  91:../src/tensorflow/lite/micro/kernels/elementwise.cc **** 
 1267                             		.loc 1 91 1
 1268 0058 3F 6A 0C                		rtsd	#48, r6-r10
 1269                             	.LVL185:
 1270                             	.L143:
 1271                             	.LBB406:
 1272                             	.LBB404:
 1273                             	.LBB402:
  61:../src/tensorflow/lite/micro/kernels/elementwise.cc ****   const size_t num_elements = ElementCount(*input->dims);
 1274                             		.loc 1 61 3
 1275 005b ED 7A 05                		mov.L	20[r7], r10
 1276                             	.LVL186:
 1277 005e 05 00 00 00             		bsr	_TfLiteTypeGetName
 1278                             	.LVL187:
 1279 0062 EF 16                   		mov.L	r1, r6
 1280                             	.LVL188:
 1281 0064 66 11                   		mov.L	#1, r1
 1282 0066 05 00 00 00             		bsr	_TfLiteTypeGetName
 1283                             	.LVL189:
 1284 006a A1 81                   		mov.L	r1, 24[r0]
 1285 006c A1 0E                   		mov.L	r6, 20[r0]
 1286 006e F9 02 04 00 00 00 00    		mov.L	#.LC20, 16[r0]
 1287 0075 F9 02 03 7B 00 00 00    		mov.L	#.LC13, 12[r0]
 1288 007c 3E 02 3D                		mov.L	#61, 8[r0]
 1289 007f F9 02 01 11 00 00 00    		mov.L	#.LC9, 4[r0]
 1290 0086 EF 71                   		mov.L	r7, r1
 1291 0088 F8 02 87 00 00 00       		mov.L	#.LC14, [r0]
 1292 008e 7F 1A                   		jsr	r10
 1293                             	.LVL190:
 1294 0090 66 11                   		mov.L	#1, r1
 1295                             	.LBE402:
 1296                             	.LBE404:
 1297                             	.LBE406:
  91:../src/tensorflow/lite/micro/kernels/elementwise.cc **** 
 1298                             		.loc 1 91 1
 1299 0092 3F 6A 0C                		rtsd	#48, r6-r10
 1300                             	.LVL191:
 1301                             	.L126:
 1302                             	.LBB407:
 1303                             	.LBB405:
 1304                             	.LBB403:
 1305                             	.LBB401:
 1306                             	.LBB391:
 1307                             	.LBB390:
  33:C:\Users\a5116938\Desktop\e2_studio_workspace\EEMBC_final\RX65N_Cloud_Kit\src/tensorflow/lite/micro/kernels\kernel_util.h ****   TFLITE_DCHECK(node != nullptr);
 1308                             		.loc 3 33 3
 1309 0095 05 00 00 00             		bsr	_abort
 1310                             	.LVL192:
 1311                             	.LBE390:
 1312                             	.LBE391:
 1313                             	.LBE401:
 1314                             	.LBE403:
 1315                             	.LBE405:
 1316                             	.LBE407:
 1317                             	.LFE1206:
 1319 0099 FD 70 40 00 00 00 80    		.section	.text._ZN6tflite3ops5micro11elementwise12_GLOBAL__N_17SinEvalEP13TfLiteContextP10TfLiteNo
 1321                             	__ZN6tflite3ops5micro11elementwise12_GLOBAL__N_17SinEvalEP13TfLiteContextP10TfLiteNode:
 1322                             	.LFB1205:
  85:../src/tensorflow/lite/micro/kernels/elementwise.cc ****   return EvalNumeric(context, node, std::sin);
 1323                             		.loc 1 85 64 is_stmt 1
 1324                             	.LVL193:
 1325 0000 6E 6A                   		pushm	r6-r10
 1326                             	.LCFI18:
 1327 0002 71 00 E4                		add	#-28, r0
 1328                             	.LCFI19:
  86:../src/tensorflow/lite/micro/kernels/elementwise.cc **** }
 1329                             		.loc 1 86 3
 1330                             	.LVL194:
  73:../src/tensorflow/lite/micro/kernels/elementwise.cc **** }
 1331                             		.loc 1 73 3
  41:C:\Users\a5116938\Desktop\e2_studio_workspace\EEMBC_final\RX65N_Cloud_Kit\src/tensorflow/lite/micro/kernels\kernel_util.h **** }
 1332                             		.loc 3 41 3
 1333                             	.LBB425:
 1334                             	.LBB426:
 1335                             	.LBB427:
 1336                             	.LBB428:
 1337                             	.LBB429:
 1338                             	.LBB430:
  33:C:\Users\a5116938\Desktop\e2_studio_workspace\EEMBC_final\RX65N_Cloud_Kit\src/tensorflow/lite/micro/kernels\kernel_util.h ****   TFLITE_DCHECK(node != nullptr);
 1339                             		.loc 3 33 3
 1340 0005 61 01                   		cmp	#0, r1
 1341 0007 3A 8E 00                		beq	.L146
  34:C:\Users\a5116938\Desktop\e2_studio_workspace\EEMBC_final\RX65N_Cloud_Kit\src/tensorflow/lite/micro/kernels\kernel_util.h ****   return context->GetEvalTensor(context, node->inputs->data[index]);
 1342                             		.loc 3 34 3 is_stmt 0
 1343 000a 71 2A 00                		add	#0, r2, r10
 1344 000d 3A 88 00                		beq	.L146
 1345 0010 EF 17                   		mov.L	r1, r7
  35:C:\Users\a5116938\Desktop\e2_studio_workspace\EEMBC_final\RX65N_Cloud_Kit\src/tensorflow/lite/micro/kernels\kernel_util.h **** }
 1346                             		.loc 3 35 3 is_stmt 1
  35:C:\Users\a5116938\Desktop\e2_studio_workspace\EEMBC_final\RX65N_Cloud_Kit\src/tensorflow/lite/micro/kernels\kernel_util.h **** }
 1347                             		.loc 3 35 32 is_stmt 0
 1348 0012 EC A4                   		mov.L	[r10], r4
 1349 0014 AD 1D                   		mov.L	84[r1], r5
 1350 0016 A8 4A                   		mov.L	4[r4], r2
 1351                             	.LVL195:
 1352 0018 7F 15                   		jsr	r5
 1353                             	.LVL196:
 1354 001a EF 16                   		mov.L	r1, r6
 1355                             	.LVL197:
 1356                             	.LBE430:
 1357                             	.LBE429:
 1358                             	.LBE428:
 1359                             	.LBB433:
 1360                             	.LBB434:
  47:C:\Users\a5116938\Desktop\e2_studio_workspace\EEMBC_final\RX65N_Cloud_Kit\src/tensorflow/lite/micro/kernels\kernel_util.h ****   TFLITE_DCHECK(node != nullptr);
 1361                             		.loc 3 47 3 is_stmt 1
  48:C:\Users\a5116938\Desktop\e2_studio_workspace\EEMBC_final\RX65N_Cloud_Kit\src/tensorflow/lite/micro/kernels\kernel_util.h ****   return context->GetEvalTensor(context, node->outputs->data[index]);
 1362                             		.loc 3 48 3
  49:C:\Users\a5116938\Desktop\e2_studio_workspace\EEMBC_final\RX65N_Cloud_Kit\src/tensorflow/lite/micro/kernels\kernel_util.h **** }
 1363                             		.loc 3 49 3
  49:C:\Users\a5116938\Desktop\e2_studio_workspace\EEMBC_final\RX65N_Cloud_Kit\src/tensorflow/lite/micro/kernels\kernel_util.h **** }
 1364                             		.loc 3 49 32 is_stmt 0
 1365 001c ED A5 01                		mov.L	4[r10], r5
 1366 001f ED 7A 15                		mov.L	84[r7], r10
 1367                             	.LVL198:
 1368 0022 EF 71                   		mov.L	r7, r1
 1369                             	.LVL199:
 1370 0024 A8 5A                   		mov.L	4[r5], r2
 1371 0026 7F 1A                   		jsr	r10
 1372                             	.LVL200:
 1373 0028 EF 1A                   		mov.L	r1, r10
 1374                             	.LVL201:
 1375                             	.LBE434:
 1376                             	.LBE433:
  61:../src/tensorflow/lite/micro/kernels/elementwise.cc ****   const size_t num_elements = ElementCount(*input->dims);
 1377                             		.loc 1 61 3
 1378 002a A8 E1                   		mov.L	8[r6], r1
 1379                             	.LVL202:
 1380 002c 61 11                   		cmp	#1, r1
 1381 002e 21 2D                   		bne	.L163
  62:../src/tensorflow/lite/micro/kernels/elementwise.cc ****   const T* in_data = tflite::micro::GetTensorData<T>(input);
 1382                             		.loc 1 62 43
 1383 0030 A8 69                   		mov.L	4[r6], r1
 1384 0032 05 00 00 00             		bsr	__ZN6tflite12ElementCountERK14TfLiteIntArray
 1385                             	.LVL203:
 1386                             	.LBB435:
 1387                             	.LBB436:
 1388                             		.loc 3 62 53
 1389 0036 EC 67                   		mov.L	[r6], r7
 1390                             	.LVL204:
 1391                             	.LBE436:
 1392                             	.LBE435:
 1393                             	.LBB437:
 1394                             	.LBB438:
  55:C:\Users\a5116938\Desktop\e2_studio_workspace\EEMBC_final\RX65N_Cloud_Kit\src/tensorflow/lite/micro/kernels\kernel_util.h **** }
 1395                             		.loc 3 55 28
 1396 0038 61 0A                   		cmp	#0, r10
 1397 003a 13                      		beq	.L149
 1398 003b EC AA                   		mov.L	[r10], r10
 1399                             	.LVL205:
 1400                             		.balign 8,3,1
 1401                             	.L149:
 1402                             	.LBE438:
 1403                             	.LBE437:
 1404                             	.LBB439:
  65:../src/tensorflow/lite/micro/kernels/elementwise.cc ****     out_data[i] = func(in_data[i]);
 1405                             		.loc 1 65 24
 1406 003d 61 01                   		cmp	#0, r1
 1407 003f 20 17                   		beq	.L150
 1408 0041 6C 21                   		shll	#2, r1
 1409                             	.LVL206:
 1410 0043 FF 26 17                		add	r1, r7, r6
 1411                             	.LVL207:
 1412 0046 EF 00                   		.balign 8,3,3
 1413                             	.L151:
 1414                             	.LBB440:
 1415                             	.LBB441:
 426:c:\gcc for renesas rx 8.3.0.202004-gnurx-elf\rx-elf\rx-elf\rx-elf\include\c++\8.3.0.202004-gnurx\cmath **** 
 1416                             		.loc 4 426 5 is_stmt 1
 426:c:\gcc for renesas rx 8.3.0.202004-gnurx-elf\rx-elf\rx-elf\rx-elf\include\c++\8.3.0.202004-gnurx\cmath **** 
 1417                             		.loc 4 426 26 is_stmt 0
 1418 0048 FD 2A 71                		mov.L	[r7+], r1
 1419                             	.LVL208:
 1420 004b 05 00 00 00             		bsr	_sinf
 1421                             	.LVL209:
 1422                             	.LBE441:
 1423                             	.LBE440:
  66:../src/tensorflow/lite/micro/kernels/elementwise.cc ****   }
 1424                             		.loc 1 66 5
 1425 004f FD 22 A1                		mov.L	r1, [r10+]
  65:../src/tensorflow/lite/micro/kernels/elementwise.cc ****     out_data[i] = func(in_data[i]);
 1426                             		.loc 1 65 24
 1427 0052 47 67                   		cmp	r6, r7
 1428 0054 21 F4                   		bne	.L151
 1429                             		.balign 8,3,1
 1430                             	.L150:
 1431                             	.LBE439:
  68:../src/tensorflow/lite/micro/kernels/elementwise.cc **** }
 1432                             		.loc 1 68 10
 1433 0056 66 01                   		mov.L	#0, r1
 1434                             	.LVL210:
 1435                             	.LBE427:
 1436                             	.LBE426:
 1437                             	.LBE425:
  87:../src/tensorflow/lite/micro/kernels/elementwise.cc **** 
 1438                             		.loc 1 87 1
 1439 0058 3F 6A 0C                		rtsd	#48, r6-r10
 1440                             	.LVL211:
 1441                             	.L163:
 1442                             	.LBB447:
 1443                             	.LBB445:
 1444                             	.LBB443:
  61:../src/tensorflow/lite/micro/kernels/elementwise.cc ****   const size_t num_elements = ElementCount(*input->dims);
 1445                             		.loc 1 61 3
 1446 005b ED 7A 05                		mov.L	20[r7], r10
 1447                             	.LVL212:
 1448 005e 05 00 00 00             		bsr	_TfLiteTypeGetName
 1449                             	.LVL213:
 1450 0062 EF 16                   		mov.L	r1, r6
 1451                             	.LVL214:
 1452 0064 66 11                   		mov.L	#1, r1
 1453 0066 05 00 00 00             		bsr	_TfLiteTypeGetName
 1454                             	.LVL215:
 1455 006a A1 81                   		mov.L	r1, 24[r0]
 1456 006c A1 0E                   		mov.L	r6, 20[r0]
 1457 006e F9 02 04 00 00 00 00    		mov.L	#.LC20, 16[r0]
 1458 0075 F9 02 03 7B 00 00 00    		mov.L	#.LC13, 12[r0]
 1459 007c 3E 02 3D                		mov.L	#61, 8[r0]
 1460 007f F9 02 01 11 00 00 00    		mov.L	#.LC9, 4[r0]
 1461 0086 EF 71                   		mov.L	r7, r1
 1462 0088 F8 02 87 00 00 00       		mov.L	#.LC14, [r0]
 1463 008e 7F 1A                   		jsr	r10
 1464                             	.LVL216:
 1465 0090 66 11                   		mov.L	#1, r1
 1466                             	.LBE443:
 1467                             	.LBE445:
 1468                             	.LBE447:
  87:../src/tensorflow/lite/micro/kernels/elementwise.cc **** 
 1469                             		.loc 1 87 1
 1470 0092 3F 6A 0C                		rtsd	#48, r6-r10
 1471                             	.LVL217:
 1472                             	.L146:
 1473                             	.LBB448:
 1474                             	.LBB446:
 1475                             	.LBB444:
 1476                             	.LBB442:
 1477                             	.LBB432:
 1478                             	.LBB431:
  33:C:\Users\a5116938\Desktop\e2_studio_workspace\EEMBC_final\RX65N_Cloud_Kit\src/tensorflow/lite/micro/kernels\kernel_util.h ****   TFLITE_DCHECK(node != nullptr);
 1479                             		.loc 3 33 3
 1480 0095 05 00 00 00             		bsr	_abort
 1481                             	.LVL218:
 1482                             	.LBE431:
 1483                             	.LBE432:
 1484                             	.LBE442:
 1485                             	.LBE444:
 1486                             	.LBE446:
 1487                             	.LBE448:
 1488                             	.LFE1205:
 1490 0099 FD 70 40 00 00 00 80    		.section	.text._ZN6tflite3ops5micro11elementwise12_GLOBAL__N_17LogEvalEP13TfLiteContextP10TfLiteNo
 1492                             	__ZN6tflite3ops5micro11elementwise12_GLOBAL__N_17LogEvalEP13TfLiteContextP10TfLiteNode:
 1493                             	.LFB1207:
  93:../src/tensorflow/lite/micro/kernels/elementwise.cc ****   return EvalNumeric(context, node, std::log);
 1494                             		.loc 1 93 64 is_stmt 1
 1495                             	.LVL219:
 1496 0000 6E 6A                   		pushm	r6-r10
 1497                             	.LCFI20:
 1498 0002 71 00 E4                		add	#-28, r0
 1499                             	.LCFI21:
  94:../src/tensorflow/lite/micro/kernels/elementwise.cc **** }
 1500                             		.loc 1 94 3
 1501                             	.LVL220:
  73:../src/tensorflow/lite/micro/kernels/elementwise.cc **** }
 1502                             		.loc 1 73 3
  41:C:\Users\a5116938\Desktop\e2_studio_workspace\EEMBC_final\RX65N_Cloud_Kit\src/tensorflow/lite/micro/kernels\kernel_util.h **** }
 1503                             		.loc 3 41 3
 1504                             	.LBB466:
 1505                             	.LBB467:
 1506                             	.LBB468:
 1507                             	.LBB469:
 1508                             	.LBB470:
 1509                             	.LBB471:
  33:C:\Users\a5116938\Desktop\e2_studio_workspace\EEMBC_final\RX65N_Cloud_Kit\src/tensorflow/lite/micro/kernels\kernel_util.h ****   TFLITE_DCHECK(node != nullptr);
 1510                             		.loc 3 33 3
 1511 0005 61 01                   		cmp	#0, r1
 1512 0007 3A 8E 00                		beq	.L166
  34:C:\Users\a5116938\Desktop\e2_studio_workspace\EEMBC_final\RX65N_Cloud_Kit\src/tensorflow/lite/micro/kernels\kernel_util.h ****   return context->GetEvalTensor(context, node->inputs->data[index]);
 1513                             		.loc 3 34 3 is_stmt 0
 1514 000a 71 2A 00                		add	#0, r2, r10
 1515 000d 3A 88 00                		beq	.L166
 1516 0010 EF 17                   		mov.L	r1, r7
  35:C:\Users\a5116938\Desktop\e2_studio_workspace\EEMBC_final\RX65N_Cloud_Kit\src/tensorflow/lite/micro/kernels\kernel_util.h **** }
 1517                             		.loc 3 35 3 is_stmt 1
  35:C:\Users\a5116938\Desktop\e2_studio_workspace\EEMBC_final\RX65N_Cloud_Kit\src/tensorflow/lite/micro/kernels\kernel_util.h **** }
 1518                             		.loc 3 35 32 is_stmt 0
 1519 0012 EC A4                   		mov.L	[r10], r4
 1520 0014 AD 1D                   		mov.L	84[r1], r5
 1521 0016 A8 4A                   		mov.L	4[r4], r2
 1522                             	.LVL221:
 1523 0018 7F 15                   		jsr	r5
 1524                             	.LVL222:
 1525 001a EF 16                   		mov.L	r1, r6
 1526                             	.LVL223:
 1527                             	.LBE471:
 1528                             	.LBE470:
 1529                             	.LBE469:
 1530                             	.LBB474:
 1531                             	.LBB475:
  47:C:\Users\a5116938\Desktop\e2_studio_workspace\EEMBC_final\RX65N_Cloud_Kit\src/tensorflow/lite/micro/kernels\kernel_util.h ****   TFLITE_DCHECK(node != nullptr);
 1532                             		.loc 3 47 3 is_stmt 1
  48:C:\Users\a5116938\Desktop\e2_studio_workspace\EEMBC_final\RX65N_Cloud_Kit\src/tensorflow/lite/micro/kernels\kernel_util.h ****   return context->GetEvalTensor(context, node->outputs->data[index]);
 1533                             		.loc 3 48 3
  49:C:\Users\a5116938\Desktop\e2_studio_workspace\EEMBC_final\RX65N_Cloud_Kit\src/tensorflow/lite/micro/kernels\kernel_util.h **** }
 1534                             		.loc 3 49 3
  49:C:\Users\a5116938\Desktop\e2_studio_workspace\EEMBC_final\RX65N_Cloud_Kit\src/tensorflow/lite/micro/kernels\kernel_util.h **** }
 1535                             		.loc 3 49 32 is_stmt 0
 1536 001c ED A5 01                		mov.L	4[r10], r5
 1537 001f ED 7A 15                		mov.L	84[r7], r10
 1538                             	.LVL224:
 1539 0022 EF 71                   		mov.L	r7, r1
 1540                             	.LVL225:
 1541 0024 A8 5A                   		mov.L	4[r5], r2
 1542 0026 7F 1A                   		jsr	r10
 1543                             	.LVL226:
 1544 0028 EF 1A                   		mov.L	r1, r10
 1545                             	.LVL227:
 1546                             	.LBE475:
 1547                             	.LBE474:
  61:../src/tensorflow/lite/micro/kernels/elementwise.cc ****   const size_t num_elements = ElementCount(*input->dims);
 1548                             		.loc 1 61 3
 1549 002a A8 E1                   		mov.L	8[r6], r1
 1550                             	.LVL228:
 1551 002c 61 11                   		cmp	#1, r1
 1552 002e 21 2D                   		bne	.L183
  62:../src/tensorflow/lite/micro/kernels/elementwise.cc ****   const T* in_data = tflite::micro::GetTensorData<T>(input);
 1553                             		.loc 1 62 43
 1554 0030 A8 69                   		mov.L	4[r6], r1
 1555 0032 05 00 00 00             		bsr	__ZN6tflite12ElementCountERK14TfLiteIntArray
 1556                             	.LVL229:
 1557                             	.LBB476:
 1558                             	.LBB477:
 1559                             		.loc 3 62 53
 1560 0036 EC 67                   		mov.L	[r6], r7
 1561                             	.LVL230:
 1562                             	.LBE477:
 1563                             	.LBE476:
 1564                             	.LBB478:
 1565                             	.LBB479:
  55:C:\Users\a5116938\Desktop\e2_studio_workspace\EEMBC_final\RX65N_Cloud_Kit\src/tensorflow/lite/micro/kernels\kernel_util.h **** }
 1566                             		.loc 3 55 28
 1567 0038 61 0A                   		cmp	#0, r10
 1568 003a 13                      		beq	.L169
 1569 003b EC AA                   		mov.L	[r10], r10
 1570                             	.LVL231:
 1571                             		.balign 8,3,1
 1572                             	.L169:
 1573                             	.LBE479:
 1574                             	.LBE478:
 1575                             	.LBB480:
  65:../src/tensorflow/lite/micro/kernels/elementwise.cc ****     out_data[i] = func(in_data[i]);
 1576                             		.loc 1 65 24
 1577 003d 61 01                   		cmp	#0, r1
 1578 003f 20 17                   		beq	.L170
 1579 0041 6C 21                   		shll	#2, r1
 1580                             	.LVL232:
 1581 0043 FF 26 17                		add	r1, r7, r6
 1582                             	.LVL233:
 1583 0046 EF 00                   		.balign 8,3,3
 1584                             	.L171:
 1585                             	.LBB481:
 1586                             	.LBB482:
 339:c:\gcc for renesas rx 8.3.0.202004-gnurx-elf\rx-elf\rx-elf\rx-elf\include\c++\8.3.0.202004-gnurx\cmath **** 
 1587                             		.loc 4 339 5 is_stmt 1
 339:c:\gcc for renesas rx 8.3.0.202004-gnurx-elf\rx-elf\rx-elf\rx-elf\include\c++\8.3.0.202004-gnurx\cmath **** 
 1588                             		.loc 4 339 26 is_stmt 0
 1589 0048 FD 2A 71                		mov.L	[r7+], r1
 1590                             	.LVL234:
 1591 004b 05 00 00 00             		bsr	_logf
 1592                             	.LVL235:
 1593                             	.LBE482:
 1594                             	.LBE481:
  66:../src/tensorflow/lite/micro/kernels/elementwise.cc ****   }
 1595                             		.loc 1 66 5
 1596 004f FD 22 A1                		mov.L	r1, [r10+]
  65:../src/tensorflow/lite/micro/kernels/elementwise.cc ****     out_data[i] = func(in_data[i]);
 1597                             		.loc 1 65 24
 1598 0052 47 67                   		cmp	r6, r7
 1599 0054 21 F4                   		bne	.L171
 1600                             		.balign 8,3,1
 1601                             	.L170:
 1602                             	.LBE480:
  68:../src/tensorflow/lite/micro/kernels/elementwise.cc **** }
 1603                             		.loc 1 68 10
 1604 0056 66 01                   		mov.L	#0, r1
 1605                             	.LVL236:
 1606                             	.LBE468:
 1607                             	.LBE467:
 1608                             	.LBE466:
  95:../src/tensorflow/lite/micro/kernels/elementwise.cc **** 
 1609                             		.loc 1 95 1
 1610 0058 3F 6A 0C                		rtsd	#48, r6-r10
 1611                             	.LVL237:
 1612                             	.L183:
 1613                             	.LBB488:
 1614                             	.LBB486:
 1615                             	.LBB484:
  61:../src/tensorflow/lite/micro/kernels/elementwise.cc ****   const size_t num_elements = ElementCount(*input->dims);
 1616                             		.loc 1 61 3
 1617 005b ED 7A 05                		mov.L	20[r7], r10
 1618                             	.LVL238:
 1619 005e 05 00 00 00             		bsr	_TfLiteTypeGetName
 1620                             	.LVL239:
 1621 0062 EF 16                   		mov.L	r1, r6
 1622                             	.LVL240:
 1623 0064 66 11                   		mov.L	#1, r1
 1624 0066 05 00 00 00             		bsr	_TfLiteTypeGetName
 1625                             	.LVL241:
 1626 006a A1 81                   		mov.L	r1, 24[r0]
 1627 006c A1 0E                   		mov.L	r6, 20[r0]
 1628 006e F9 02 04 00 00 00 00    		mov.L	#.LC20, 16[r0]
 1629 0075 F9 02 03 7B 00 00 00    		mov.L	#.LC13, 12[r0]
 1630 007c 3E 02 3D                		mov.L	#61, 8[r0]
 1631 007f F9 02 01 11 00 00 00    		mov.L	#.LC9, 4[r0]
 1632 0086 EF 71                   		mov.L	r7, r1
 1633 0088 F8 02 87 00 00 00       		mov.L	#.LC14, [r0]
 1634 008e 7F 1A                   		jsr	r10
 1635                             	.LVL242:
 1636 0090 66 11                   		mov.L	#1, r1
 1637                             	.LBE484:
 1638                             	.LBE486:
 1639                             	.LBE488:
  95:../src/tensorflow/lite/micro/kernels/elementwise.cc **** 
 1640                             		.loc 1 95 1
 1641 0092 3F 6A 0C                		rtsd	#48, r6-r10
 1642                             	.LVL243:
 1643                             	.L166:
 1644                             	.LBB489:
 1645                             	.LBB487:
 1646                             	.LBB485:
 1647                             	.LBB483:
 1648                             	.LBB473:
 1649                             	.LBB472:
  33:C:\Users\a5116938\Desktop\e2_studio_workspace\EEMBC_final\RX65N_Cloud_Kit\src/tensorflow/lite/micro/kernels\kernel_util.h ****   TFLITE_DCHECK(node != nullptr);
 1650                             		.loc 3 33 3
 1651 0095 05 00 00 00             		bsr	_abort
 1652                             	.LVL244:
 1653                             	.LBE472:
 1654                             	.LBE473:
 1655                             	.LBE483:
 1656                             	.LBE485:
 1657                             	.LBE487:
 1658                             	.LBE489:
 1659                             	.LFE1207:
 1661 0099 FD 70 40 00 00 00 80    		.section	.text._ZN6tflite3ops5micro12Register_ABSEv,"ax",@progbits
 1662                             		.global	__ZN6tflite3ops5micro12Register_ABSEv
 1664                             	__ZN6tflite3ops5micro12Register_ABSEv:
 1665                             	.LFB1221:
 112:../src/tensorflow/lite/micro/kernels/elementwise.cc **** 
 113:../src/tensorflow/lite/micro/kernels/elementwise.cc **** }  // namespace
 114:../src/tensorflow/lite/micro/kernels/elementwise.cc **** }  // namespace elementwise
 115:../src/tensorflow/lite/micro/kernels/elementwise.cc **** 
 116:../src/tensorflow/lite/micro/kernels/elementwise.cc **** TfLiteRegistration Register_ABS() {
 1666                             		.loc 1 116 35 is_stmt 1
 117:../src/tensorflow/lite/micro/kernels/elementwise.cc ****   return {/*init=*/nullptr,
 1667                             		.loc 1 117 3
 118:../src/tensorflow/lite/micro/kernels/elementwise.cc ****           /*free=*/nullptr,
 119:../src/tensorflow/lite/micro/kernels/elementwise.cc ****           /*prepare=*/
 120:../src/tensorflow/lite/micro/kernels/elementwise.cc ****           elementwise::GenericPrepare<elementwise::IsNumericSupportedType>,
 121:../src/tensorflow/lite/micro/kernels/elementwise.cc ****           /*invoke=*/elementwise::AbsEval,
 122:../src/tensorflow/lite/micro/kernels/elementwise.cc ****           /*profiling_string=*/nullptr,
 123:../src/tensorflow/lite/micro/kernels/elementwise.cc ****           /*builtin_code=*/0,
 124:../src/tensorflow/lite/micro/kernels/elementwise.cc ****           /*custom_name=*/nullptr,
 125:../src/tensorflow/lite/micro/kernels/elementwise.cc ****           /*version=*/0};
 1668                             		.loc 1 125 24 is_stmt 0
 1669 0000 FB 22 00 00 00 00       		mov.L	#.LANCHOR0, r2
 1670 0006 EF F1                   		mov.L	r15, r1
 1671 0008 75 43 20                		mov.L	#32, r3
 1672 000b 7F 8F                   		smovf
 126:../src/tensorflow/lite/micro/kernels/elementwise.cc **** }
 1673                             		.loc 1 126 1
 1674 000d EF F1                   		mov.L	r15, r1
 1675 000f 02                      		rts
 1676                             	.LFE1221:
 1678                             		.section	.text._ZN6tflite3ops5micro12Register_SINEv,"ax",@progbits
 1679                             		.global	__ZN6tflite3ops5micro12Register_SINEv
 1681                             	__ZN6tflite3ops5micro12Register_SINEv:
 1682                             	.LFB1222:
 127:../src/tensorflow/lite/micro/kernels/elementwise.cc **** 
 128:../src/tensorflow/lite/micro/kernels/elementwise.cc **** TfLiteRegistration Register_SIN() {
 1683                             		.loc 1 128 35 is_stmt 1
 129:../src/tensorflow/lite/micro/kernels/elementwise.cc ****   return {/*init=*/nullptr,
 1684                             		.loc 1 129 3
 130:../src/tensorflow/lite/micro/kernels/elementwise.cc ****           /*free=*/nullptr,
 131:../src/tensorflow/lite/micro/kernels/elementwise.cc ****           /*prepare=*/
 132:../src/tensorflow/lite/micro/kernels/elementwise.cc ****           elementwise::GenericPrepare<elementwise::IsNumericSupportedType>,
 133:../src/tensorflow/lite/micro/kernels/elementwise.cc ****           /*invoke=*/elementwise::SinEval,
 134:../src/tensorflow/lite/micro/kernels/elementwise.cc ****           /*profiling_string=*/nullptr,
 135:../src/tensorflow/lite/micro/kernels/elementwise.cc ****           /*builtin_code=*/0,
 136:../src/tensorflow/lite/micro/kernels/elementwise.cc ****           /*custom_name=*/nullptr,
 137:../src/tensorflow/lite/micro/kernels/elementwise.cc ****           /*version=*/0};
 1685                             		.loc 1 137 24 is_stmt 0
 1686 0000 FB 22 20 00 00 00       		mov.L	#.LANCHOR0+32, r2
 1687 0006 EF F1                   		mov.L	r15, r1
 1688 0008 75 43 20                		mov.L	#32, r3
 1689 000b 7F 8F                   		smovf
 138:../src/tensorflow/lite/micro/kernels/elementwise.cc **** }
 1690                             		.loc 1 138 1
 1691 000d EF F1                   		mov.L	r15, r1
 1692 000f 02                      		rts
 1693                             	.LFE1222:
 1695                             		.section	.text._ZN6tflite3ops5micro12Register_COSEv,"ax",@progbits
 1696                             		.global	__ZN6tflite3ops5micro12Register_COSEv
 1698                             	__ZN6tflite3ops5micro12Register_COSEv:
 1699                             	.LFB1223:
 139:../src/tensorflow/lite/micro/kernels/elementwise.cc **** 
 140:../src/tensorflow/lite/micro/kernels/elementwise.cc **** TfLiteRegistration Register_COS() {
 1700                             		.loc 1 140 35 is_stmt 1
 141:../src/tensorflow/lite/micro/kernels/elementwise.cc ****   return {/*init=*/nullptr,
 1701                             		.loc 1 141 3
 142:../src/tensorflow/lite/micro/kernels/elementwise.cc ****           /*free=*/nullptr,
 143:../src/tensorflow/lite/micro/kernels/elementwise.cc ****           /*prepare=*/
 144:../src/tensorflow/lite/micro/kernels/elementwise.cc ****           elementwise::GenericPrepare<elementwise::IsNumericSupportedType>,
 145:../src/tensorflow/lite/micro/kernels/elementwise.cc ****           /*invoke=*/elementwise::CosEval,
 146:../src/tensorflow/lite/micro/kernels/elementwise.cc ****           /*profiling_string=*/nullptr,
 147:../src/tensorflow/lite/micro/kernels/elementwise.cc ****           /*builtin_code=*/0,
 148:../src/tensorflow/lite/micro/kernels/elementwise.cc ****           /*custom_name=*/nullptr,
 149:../src/tensorflow/lite/micro/kernels/elementwise.cc ****           /*version=*/0};
 1702                             		.loc 1 149 24 is_stmt 0
 1703 0000 FB 22 40 00 00 00       		mov.L	#.LANCHOR0+64, r2
 1704 0006 EF F1                   		mov.L	r15, r1
 1705 0008 75 43 20                		mov.L	#32, r3
 1706 000b 7F 8F                   		smovf
 150:../src/tensorflow/lite/micro/kernels/elementwise.cc **** }
 1707                             		.loc 1 150 1
 1708 000d EF F1                   		mov.L	r15, r1
 1709 000f 02                      		rts
 1710                             	.LFE1223:
 1712                             		.section	.text._ZN6tflite3ops5micro12Register_LOGEv,"ax",@progbits
 1713                             		.global	__ZN6tflite3ops5micro12Register_LOGEv
 1715                             	__ZN6tflite3ops5micro12Register_LOGEv:
 1716                             	.LFB1224:
 151:../src/tensorflow/lite/micro/kernels/elementwise.cc **** 
 152:../src/tensorflow/lite/micro/kernels/elementwise.cc **** TfLiteRegistration Register_LOG() {
 1717                             		.loc 1 152 35 is_stmt 1
 153:../src/tensorflow/lite/micro/kernels/elementwise.cc ****   return {/*init=*/nullptr,
 1718                             		.loc 1 153 3
 154:../src/tensorflow/lite/micro/kernels/elementwise.cc ****           /*free=*/nullptr,
 155:../src/tensorflow/lite/micro/kernels/elementwise.cc ****           /*prepare=*/
 156:../src/tensorflow/lite/micro/kernels/elementwise.cc ****           elementwise::GenericPrepare<elementwise::IsNumericSupportedType>,
 157:../src/tensorflow/lite/micro/kernels/elementwise.cc ****           /*invoke=*/elementwise::LogEval,
 158:../src/tensorflow/lite/micro/kernels/elementwise.cc ****           /*profiling_string=*/nullptr,
 159:../src/tensorflow/lite/micro/kernels/elementwise.cc ****           /*builtin_code=*/0,
 160:../src/tensorflow/lite/micro/kernels/elementwise.cc ****           /*custom_name=*/nullptr,
 161:../src/tensorflow/lite/micro/kernels/elementwise.cc ****           /*version=*/0};
 1719                             		.loc 1 161 24 is_stmt 0
 1720 0000 FB 22 60 00 00 00       		mov.L	#.LANCHOR0+96, r2
 1721 0006 EF F1                   		mov.L	r15, r1
 1722 0008 75 43 20                		mov.L	#32, r3
 1723 000b 7F 8F                   		smovf
 162:../src/tensorflow/lite/micro/kernels/elementwise.cc **** }
 1724                             		.loc 1 162 1
 1725 000d EF F1                   		mov.L	r15, r1
 1726 000f 02                      		rts
 1727                             	.LFE1224:
 1729                             		.section	.text._ZN6tflite3ops5micro13Register_SQRTEv,"ax",@progbits
 1730                             		.global	__ZN6tflite3ops5micro13Register_SQRTEv
 1732                             	__ZN6tflite3ops5micro13Register_SQRTEv:
 1733                             	.LFB1225:
 163:../src/tensorflow/lite/micro/kernels/elementwise.cc **** 
 164:../src/tensorflow/lite/micro/kernels/elementwise.cc **** TfLiteRegistration Register_SQRT() {
 1734                             		.loc 1 164 36 is_stmt 1
 165:../src/tensorflow/lite/micro/kernels/elementwise.cc ****   return {/*init=*/nullptr,
 1735                             		.loc 1 165 3
 166:../src/tensorflow/lite/micro/kernels/elementwise.cc ****           /*free=*/nullptr,
 167:../src/tensorflow/lite/micro/kernels/elementwise.cc ****           /*prepare=*/
 168:../src/tensorflow/lite/micro/kernels/elementwise.cc ****           elementwise::GenericPrepare<elementwise::IsNumericSupportedType>,
 169:../src/tensorflow/lite/micro/kernels/elementwise.cc ****           /*invoke=*/elementwise::SqrtEval,
 170:../src/tensorflow/lite/micro/kernels/elementwise.cc ****           /*profiling_string=*/nullptr,
 171:../src/tensorflow/lite/micro/kernels/elementwise.cc ****           /*builtin_code=*/0,
 172:../src/tensorflow/lite/micro/kernels/elementwise.cc ****           /*custom_name=*/nullptr,
 173:../src/tensorflow/lite/micro/kernels/elementwise.cc ****           /*version=*/0};
 1736                             		.loc 1 173 24 is_stmt 0
 1737 0000 FB 22 80 00 00 00       		mov.L	#.LANCHOR0+128, r2
 1738 0006 EF F1                   		mov.L	r15, r1
 1739 0008 75 43 20                		mov.L	#32, r3
 1740 000b 7F 8F                   		smovf
 174:../src/tensorflow/lite/micro/kernels/elementwise.cc **** }
 1741                             		.loc 1 174 1
 1742 000d EF F1                   		mov.L	r15, r1
 1743 000f 02                      		rts
 1744                             	.LFE1225:
 1746                             		.section	.text._ZN6tflite3ops5micro14Register_RSQRTEv,"ax",@progbits
 1747                             		.global	__ZN6tflite3ops5micro14Register_RSQRTEv
 1749                             	__ZN6tflite3ops5micro14Register_RSQRTEv:
 1750                             	.LFB1226:
 175:../src/tensorflow/lite/micro/kernels/elementwise.cc **** 
 176:../src/tensorflow/lite/micro/kernels/elementwise.cc **** TfLiteRegistration Register_RSQRT() {
 1751                             		.loc 1 176 37 is_stmt 1
 177:../src/tensorflow/lite/micro/kernels/elementwise.cc ****   return {/*init=*/nullptr,
 1752                             		.loc 1 177 3
 178:../src/tensorflow/lite/micro/kernels/elementwise.cc ****           /*free=*/nullptr,
 179:../src/tensorflow/lite/micro/kernels/elementwise.cc ****           /*prepare=*/
 180:../src/tensorflow/lite/micro/kernels/elementwise.cc ****           elementwise::GenericPrepare<elementwise::IsNumericSupportedType>,
 181:../src/tensorflow/lite/micro/kernels/elementwise.cc ****           /*invoke=*/elementwise::RsqrtEval,
 182:../src/tensorflow/lite/micro/kernels/elementwise.cc ****           /*profiling_string=*/nullptr,
 183:../src/tensorflow/lite/micro/kernels/elementwise.cc ****           /*builtin_code=*/0,
 184:../src/tensorflow/lite/micro/kernels/elementwise.cc ****           /*custom_name=*/nullptr,
 185:../src/tensorflow/lite/micro/kernels/elementwise.cc ****           /*version=*/0};
 1753                             		.loc 1 185 24 is_stmt 0
 1754 0000 FB 22 A0 00 00 00       		mov.L	#.LANCHOR0+160, r2
 1755 0006 EF F1                   		mov.L	r15, r1
 1756 0008 75 43 20                		mov.L	#32, r3
 1757 000b 7F 8F                   		smovf
 186:../src/tensorflow/lite/micro/kernels/elementwise.cc **** }
 1758                             		.loc 1 186 1
 1759 000d EF F1                   		mov.L	r15, r1
 1760 000f 02                      		rts
 1761                             	.LFE1226:
 1763                             		.section	.text._ZN6tflite3ops5micro15Register_SQUAREEv,"ax",@progbits
 1764                             		.global	__ZN6tflite3ops5micro15Register_SQUAREEv
 1766                             	__ZN6tflite3ops5micro15Register_SQUAREEv:
 1767                             	.LFB1227:
 187:../src/tensorflow/lite/micro/kernels/elementwise.cc **** 
 188:../src/tensorflow/lite/micro/kernels/elementwise.cc **** TfLiteRegistration Register_SQUARE() {
 1768                             		.loc 1 188 38 is_stmt 1
 189:../src/tensorflow/lite/micro/kernels/elementwise.cc ****   return {/*init=*/nullptr,
 1769                             		.loc 1 189 3
 190:../src/tensorflow/lite/micro/kernels/elementwise.cc ****           /*free=*/nullptr,
 191:../src/tensorflow/lite/micro/kernels/elementwise.cc ****           /*prepare=*/
 192:../src/tensorflow/lite/micro/kernels/elementwise.cc ****           elementwise::GenericPrepare<elementwise::IsNumericSupportedType>,
 193:../src/tensorflow/lite/micro/kernels/elementwise.cc ****           /*invoke=*/elementwise::SquareEval,
 194:../src/tensorflow/lite/micro/kernels/elementwise.cc ****           /*profiling_string=*/nullptr,
 195:../src/tensorflow/lite/micro/kernels/elementwise.cc ****           /*builtin_code=*/0,
 196:../src/tensorflow/lite/micro/kernels/elementwise.cc ****           /*custom_name=*/nullptr,
 197:../src/tensorflow/lite/micro/kernels/elementwise.cc ****           /*version=*/0};
 1770                             		.loc 1 197 24 is_stmt 0
 1771 0000 FB 22 C0 00 00 00       		mov.L	#.LANCHOR0+192, r2
 1772 0006 EF F1                   		mov.L	r15, r1
 1773 0008 75 43 20                		mov.L	#32, r3
 1774 000b 7F 8F                   		smovf
 198:../src/tensorflow/lite/micro/kernels/elementwise.cc **** }
 1775                             		.loc 1 198 1
 1776 000d EF F1                   		mov.L	r15, r1
 1777 000f 02                      		rts
 1778                             	.LFE1227:
 1780                             		.section	.text._ZN6tflite3ops5micro20Register_LOGICAL_NOTEv,"ax",@progbits
 1781                             		.global	__ZN6tflite3ops5micro20Register_LOGICAL_NOTEv
 1783                             	__ZN6tflite3ops5micro20Register_LOGICAL_NOTEv:
 1784                             	.LFB1228:
 199:../src/tensorflow/lite/micro/kernels/elementwise.cc **** 
 200:../src/tensorflow/lite/micro/kernels/elementwise.cc **** TfLiteRegistration Register_LOGICAL_NOT() {
 1785                             		.loc 1 200 43 is_stmt 1
 201:../src/tensorflow/lite/micro/kernels/elementwise.cc ****   return {/*init=*/nullptr,
 1786                             		.loc 1 201 3
 202:../src/tensorflow/lite/micro/kernels/elementwise.cc ****           /*free=*/nullptr,
 203:../src/tensorflow/lite/micro/kernels/elementwise.cc ****           /*prepare=*/
 204:../src/tensorflow/lite/micro/kernels/elementwise.cc ****           elementwise::GenericPrepare<elementwise::IsLogicalSupportedType>,
 205:../src/tensorflow/lite/micro/kernels/elementwise.cc ****           /*invoke=*/elementwise::LogicalNotEval,
 206:../src/tensorflow/lite/micro/kernels/elementwise.cc ****           /*profiling_string=*/nullptr,
 207:../src/tensorflow/lite/micro/kernels/elementwise.cc ****           /*builtin_code=*/0,
 208:../src/tensorflow/lite/micro/kernels/elementwise.cc ****           /*custom_name=*/nullptr,
 209:../src/tensorflow/lite/micro/kernels/elementwise.cc ****           /*version=*/0};
 1787                             		.loc 1 209 24 is_stmt 0
 1788 0000 FB 22 E0 00 00 00       		mov.L	#.LANCHOR0+224, r2
 1789 0006 EF F1                   		mov.L	r15, r1
 1790 0008 75 43 20                		mov.L	#32, r3
 1791 000b 7F 8F                   		smovf
 210:../src/tensorflow/lite/micro/kernels/elementwise.cc **** }
 1792                             		.loc 1 210 1
 1793 000d EF F1                   		mov.L	r15, r1
 1794 000f 02                      		rts
 1795                             	.LFE1228:
 1797                             		.section C,"a",@progbits
 1798                             		.p2align 2
 1799                             		.balign 4
 1800                             		.set	.LANCHOR0,. + 0
 1801                             	.LC0:
 1802 0000 00 00 00 00             		.long	0
 1803 0004 00 00 00 00             		.long	0
 1804 0008 00 00 00 00             		.long	__ZN6tflite3ops5micro11elementwise12_GLOBAL__N_114GenericPrepareIXadL_ZNS3_22IsNumericSuppor
 1805 000c 00 00 00 00             		.long	__ZN6tflite3ops5micro11elementwise12_GLOBAL__N_17AbsEvalEP13TfLiteContextP10TfLiteNode
 1806 0010 00 00 00 00             		.long	0
 1807 0014 00 00 00 00             		.long	0
 1808 0018 00 00 00 00             		.long	0
 1809 001c 00 00 00 00             		.long	0
 1810                             	.LC1:
 1811 0020 00 00 00 00             		.long	0
 1812 0024 00 00 00 00             		.long	0
 1813 0028 00 00 00 00             		.long	__ZN6tflite3ops5micro11elementwise12_GLOBAL__N_114GenericPrepareIXadL_ZNS3_22IsNumericSuppor
 1814 002c 00 00 00 00             		.long	__ZN6tflite3ops5micro11elementwise12_GLOBAL__N_17SinEvalEP13TfLiteContextP10TfLiteNode
 1815 0030 00 00 00 00             		.long	0
 1816 0034 00 00 00 00             		.long	0
 1817 0038 00 00 00 00             		.long	0
 1818 003c 00 00 00 00             		.long	0
 1819                             	.LC2:
 1820 0040 00 00 00 00             		.long	0
 1821 0044 00 00 00 00             		.long	0
 1822 0048 00 00 00 00             		.long	__ZN6tflite3ops5micro11elementwise12_GLOBAL__N_114GenericPrepareIXadL_ZNS3_22IsNumericSuppor
 1823 004c 00 00 00 00             		.long	__ZN6tflite3ops5micro11elementwise12_GLOBAL__N_17CosEvalEP13TfLiteContextP10TfLiteNode
 1824 0050 00 00 00 00             		.long	0
 1825 0054 00 00 00 00             		.long	0
 1826 0058 00 00 00 00             		.long	0
 1827 005c 00 00 00 00             		.long	0
 1828                             	.LC3:
 1829 0060 00 00 00 00             		.long	0
 1830 0064 00 00 00 00             		.long	0
 1831 0068 00 00 00 00             		.long	__ZN6tflite3ops5micro11elementwise12_GLOBAL__N_114GenericPrepareIXadL_ZNS3_22IsNumericSuppor
 1832 006c 00 00 00 00             		.long	__ZN6tflite3ops5micro11elementwise12_GLOBAL__N_17LogEvalEP13TfLiteContextP10TfLiteNode
 1833 0070 00 00 00 00             		.long	0
 1834 0074 00 00 00 00             		.long	0
 1835 0078 00 00 00 00             		.long	0
 1836 007c 00 00 00 00             		.long	0
 1837                             	.LC4:
 1838 0080 00 00 00 00             		.long	0
 1839 0084 00 00 00 00             		.long	0
 1840 0088 00 00 00 00             		.long	__ZN6tflite3ops5micro11elementwise12_GLOBAL__N_114GenericPrepareIXadL_ZNS3_22IsNumericSuppor
 1841 008c 00 00 00 00             		.long	__ZN6tflite3ops5micro11elementwise12_GLOBAL__N_18SqrtEvalEP13TfLiteContextP10TfLiteNode
 1842 0090 00 00 00 00             		.long	0
 1843 0094 00 00 00 00             		.long	0
 1844 0098 00 00 00 00             		.long	0
 1845 009c 00 00 00 00             		.long	0
 1846                             	.LC5:
 1847 00a0 00 00 00 00             		.long	0
 1848 00a4 00 00 00 00             		.long	0
 1849 00a8 00 00 00 00             		.long	__ZN6tflite3ops5micro11elementwise12_GLOBAL__N_114GenericPrepareIXadL_ZNS3_22IsNumericSuppor
 1850 00ac 00 00 00 00             		.long	__ZN6tflite3ops5micro11elementwise12_GLOBAL__N_19RsqrtEvalEP13TfLiteContextP10TfLiteNode
 1851 00b0 00 00 00 00             		.long	0
 1852 00b4 00 00 00 00             		.long	0
 1853 00b8 00 00 00 00             		.long	0
 1854 00bc 00 00 00 00             		.long	0
 1855                             	.LC6:
 1856 00c0 00 00 00 00             		.long	0
 1857 00c4 00 00 00 00             		.long	0
 1858 00c8 00 00 00 00             		.long	__ZN6tflite3ops5micro11elementwise12_GLOBAL__N_114GenericPrepareIXadL_ZNS3_22IsNumericSuppor
 1859 00cc 00 00 00 00             		.long	__ZN6tflite3ops5micro11elementwise12_GLOBAL__N_110SquareEvalEP13TfLiteContextP10TfLiteNode
 1860 00d0 00 00 00 00             		.long	0
 1861 00d4 00 00 00 00             		.long	0
 1862 00d8 00 00 00 00             		.long	0
 1863 00dc 00 00 00 00             		.long	0
 1864                             	.LC7:
 1865 00e0 00 00 00 00             		.long	0
 1866 00e4 00 00 00 00             		.long	0
 1867 00e8 00 00 00 00             		.long	__ZN6tflite3ops5micro11elementwise12_GLOBAL__N_114GenericPrepareIXadL_ZNS3_22IsLogicalSuppor
 1868 00ec 00 00 00 00             		.long	__ZN6tflite3ops5micro11elementwise12_GLOBAL__N_114LogicalNotEvalEP13TfLiteContextP10TfLiteNo
 1869 00f0 00 00 00 00             		.long	0
 1870 00f4 00 00 00 00             		.long	0
 1871 00f8 00 00 00 00             		.long	0
 1872 00fc 00 00 00 00             		.long	0
 1873                             		.section	.rodata._ZN6tflite3ops5micro11elementwise12_GLOBAL__N_114GenericPrepareIXadL_ZNS3_22IsNum
 1874                             	.LC8:
 1875 0000 69 6E 70 75 74 20 21 3D 		.string	"input != nullptr"
 1875      20 6E 75 6C 6C 70 74 72 
 1875      00 
 1876                             	.LC9:
 1877 0011 2E 2E 2F 73 72 63 2F 74 		.string	"../src/tensorflow/lite/micro/kernels/elementwise.cc"
 1877      65 6E 73 6F 72 66 6C 6F 
 1877      77 2F 6C 69 74 65 2F 6D 
 1877      69 63 72 6F 2F 6B 65 72 
 1877      6E 65 6C 73 2F 65 6C 65 
 1878                             	.LC10:
 1879 0045 25 73 3A 25 64 20 25 73 		.string	"%s:%d %s was not true."
 1879      20 77 61 73 20 6E 6F 74 
 1879      20 74 72 75 65 2E 00 
 1880                             	.LC11:
 1881 005c 6F 75 74 70 75 74 20 21 		.string	"output != nullptr"
 1881      3D 20 6E 75 6C 6C 70 74 
 1881      72 00 
 1882                             	.LC12:
 1883 006e 6F 75 74 70 75 74 2D 3E 		.string	"output->type"
 1883      74 79 70 65 00 
 1884                             	.LC13:
 1885 007b 69 6E 70 75 74 2D 3E 74 		.string	"input->type"
 1885      79 70 65 00 
 1886                             	.LC14:
 1887 0087 25 73 3A 25 64 20 25 73 		.string	"%s:%d %s != %s (%s != %s)"
 1887      20 21 3D 20 25 73 20 28 
 1887      25 73 20 21 3D 20 25 73 
 1887      29 00 
 1888                             	.LC15:
 1889 00a1 49 6E 70 75 74 20 64 61 		.string	"Input data type %s (%d) is not supported."
 1889      74 61 20 74 79 70 65 20 
 1889      25 73 20 28 25 64 29 20 
 1889      69 73 20 6E 6F 74 20 73 
 1889      75 70 70 6F 72 74 65 64 
 1890                             		.section	.rodata._ZN6tflite3ops5micro11elementwise12_GLOBAL__N_114GenericPrepareIXadL_ZNS3_22IsNum
 1891                             	.LC16:
 1892 0000 31 00                   		.string	"1"
 1893                             	.LC17:
 1894 0002 4E 75 6D 49 6E 70 75 74 		.string	"NumInputs(node)"
 1894      73 28 6E 6F 64 65 29 00 
 1895                             	.LC18:
 1896 0012 25 73 3A 25 64 20 25 73 		.string	"%s:%d %s != %s (%d != %d)"
 1896      20 21 3D 20 25 73 20 28 
 1896      25 64 20 21 3D 20 25 64 
 1896      29 00 
 1897                             	.LC19:
 1898 002c 4E 75 6D 4F 75 74 70 75 		.string	"NumOutputs(node)"
 1898      74 73 28 6E 6F 64 65 29 
 1898      00 
 1899                             		.section	.rodata._ZN6tflite3ops5micro11elementwise12_GLOBAL__N_18SqrtEvalEP13TfLiteContextP10TfLit
 1900                             	.LC20:
 1901 0000 65 78 70 65 63 74 65 64 		.string	"expected_type"
 1901      5F 74 79 70 65 00 
 2258                             	.Letext0:
 2259                             		.file 6 "c:\\gcc for renesas rx 8.3.0.202004-gnurx-elf\\rx-elf\\rx-elf\\rx-elf\\include\\c++\\8.3.
 2260                             		.file 7 "c:\\gcc for renesas rx 8.3.0.202004-gnurx-elf\\rx-elf\\rx-elf\\rx-elf\\include\\c++\\8.3.
 2261                             		.file 8 "c:\\gcc for renesas rx 8.3.0.202004-gnurx-elf\\rx-elf\\rx-elf\\rx-elf\\include\\c++\\8.3.
 2262                             		.file 9 "c:\\gcc for renesas rx 8.3.0.202004-gnurx-elf\\rx-elf\\rx-elf\\rx-elf\\include\\c++\\8.3.
 2263                             		.file 10 "c:\\gcc for renesas rx 8.3.0.202004-gnurx-elf\\rx-elf\\rx-elf\\rx-elf\\include\\c++\\8.3
 2264                             		.file 11 "c:\\gcc for renesas rx 8.3.0.202004-gnurx-elf\\rx-elf\\rx-elf\\rx-elf\\include\\c++\\8.3
 2265                             		.file 12 "c:\\gcc for renesas rx 8.3.0.202004-gnurx-elf\\rx-elf\\rx-elf\\rx-elf\\include\\c++\\8.3
 2266                             		.file 13 "c:\\gcc for renesas rx 8.3.0.202004-gnurx-elf\\rx-elf\\rx-elf\\rx-elf\\include\\c++\\8.3
 2267                             		.file 14 "c:\\gcc for renesas rx 8.3.0.202004-gnurx-elf\\rx-elf\\rx-elf\\rx-elf\\include\\c++\\8.3
 2268                             		.file 15 "c:\\gcc for renesas rx 8.3.0.202004-gnurx-elf\\rx-elf\\rx-elf\\rx-elf\\include\\c++\\8.3
 2269                             		.file 16 "c:\\gcc for renesas rx 8.3.0.202004-gnurx-elf\\rx-elf\\rx-elf\\rx-elf\\include\\c++\\8.3
 2270                             		.file 17 "c:\\gcc for renesas rx 8.3.0.202004-gnurx-elf\\rx-elf\\rx-elf\\rx-elf\\include\\c++\\8.3
 2271                             		.file 18 "c:\\gcc for renesas rx 8.3.0.202004-gnurx-elf\\rx-elf\\rx-elf\\rx-elf\\include\\c++\\8.3
 2272                             		.file 19 "c:\\gcc for renesas rx 8.3.0.202004-gnurx-elf\\rx-elf\\rx-elf\\lib\\gcc\\rx-elf\\8.3.0.2
 2273                             		.file 20 "c:\\gcc for renesas rx 8.3.0.202004-gnurx-elf\\rx-elf\\rx-elf\\rx-elf\\include\\machine\
 2274                             		.file 21 "c:\\gcc for renesas rx 8.3.0.202004-gnurx-elf\\rx-elf\\rx-elf\\rx-elf\\include\\sys\\loc
 2275                             		.file 22 "c:\\gcc for renesas rx 8.3.0.202004-gnurx-elf\\rx-elf\\rx-elf\\rx-elf\\include\\sys\\_ty
 2276                             		.file 23 "c:\\gcc for renesas rx 8.3.0.202004-gnurx-elf\\rx-elf\\rx-elf\\rx-elf\\include\\sys\\ree
 2277                             		.file 24 "c:\\gcc for renesas rx 8.3.0.202004-gnurx-elf\\rx-elf\\rx-elf\\rx-elf\\include\\math.h"
 2278                             		.file 25 "c:\\gcc for renesas rx 8.3.0.202004-gnurx-elf\\rx-elf\\rx-elf\\rx-elf\\include\\stdlib.h
 2279                             		.file 26 "c:\\gcc for renesas rx 8.3.0.202004-gnurx-elf\\rx-elf\\rx-elf\\rx-elf\\include\\sys\\_st
 2280                             		.file 27 "c:\\gcc for renesas rx 8.3.0.202004-gnurx-elf\\rx-elf\\rx-elf\\rx-elf\\include\\stdint.h
 2281                             		.file 28 "C:\\Users\\a5116938\\Desktop\\e2_studio_workspace\\EEMBC_final\\RX65N_Cloud_Kit\\src/ten
 2282                             		.file 29 "c:\\gcc for renesas rx 8.3.0.202004-gnurx-elf\\rx-elf\\rx-elf\\rx-elf\\include\\string.h
 2283                             		.file 30 "c:\\gcc for renesas rx 8.3.0.202004-gnurx-elf\\rx-elf\\rx-elf\\rx-elf\\include\\stdio.h"
 2284                             		.file 31 "C:\\Users\\a5116938\\Desktop\\e2_studio_workspace\\EEMBC_final\\RX65N_Cloud_Kit\\src/ten
 2285                             		.file 32 "C:\\Users\\a5116938\\Desktop\\e2_studio_workspace\\EEMBC_final\\RX65N_Cloud_Kit\\src/ten
 2286                             		.file 33 "<built-in>"
