   1                             		.file	"kernel_util.cc"
   2                             		.section P,"ax"
   3                             	.Ltext0:
   4                             		.section	.text._ZN6tflite8GetInputEPK13TfLiteContextPK10TfLiteNodei,"ax",@progbits
   5                             		.global	__ZN6tflite8GetInputEPK13TfLiteContextPK10TfLiteNodei
   7                             	__ZN6tflite8GetInputEPK13TfLiteContextPK10TfLiteNodei:
   8                             	.LFB3299:
   9                             		.file 1 "../src/tensorflow/lite/kernels/kernel_util.cc"
   1:../src/tensorflow/lite/kernels/kernel_util.cc **** /* Copyright 2017 The TensorFlow Authors. All Rights Reserved.
   2:../src/tensorflow/lite/kernels/kernel_util.cc **** 
   3:../src/tensorflow/lite/kernels/kernel_util.cc **** Licensed under the Apache License, Version 2.0 (the "License");
   4:../src/tensorflow/lite/kernels/kernel_util.cc **** you may not use this file except in compliance with the License.
   5:../src/tensorflow/lite/kernels/kernel_util.cc **** You may obtain a copy of the License at
   6:../src/tensorflow/lite/kernels/kernel_util.cc **** 
   7:../src/tensorflow/lite/kernels/kernel_util.cc ****     http://www.apache.org/licenses/LICENSE-2.0
   8:../src/tensorflow/lite/kernels/kernel_util.cc **** 
   9:../src/tensorflow/lite/kernels/kernel_util.cc **** Unless required by applicable law or agreed to in writing, software
  10:../src/tensorflow/lite/kernels/kernel_util.cc **** distributed under the License is distributed on an "AS IS" BASIS,
  11:../src/tensorflow/lite/kernels/kernel_util.cc **** WITHOUT WARRANTIES OR CONDITIONS OF ANY KIND, either express or implied.
  12:../src/tensorflow/lite/kernels/kernel_util.cc **** See the License for the specific language governing permissions and
  13:../src/tensorflow/lite/kernels/kernel_util.cc **** limitations under the License.
  14:../src/tensorflow/lite/kernels/kernel_util.cc **** ==============================================================================*/
  15:../src/tensorflow/lite/kernels/kernel_util.cc **** #include "tensorflow/lite/kernels/kernel_util.h"
  16:../src/tensorflow/lite/kernels/kernel_util.cc **** 
  17:../src/tensorflow/lite/kernels/kernel_util.cc **** #include <stdint.h>
  18:../src/tensorflow/lite/kernels/kernel_util.cc **** #include <stdlib.h>
  19:../src/tensorflow/lite/kernels/kernel_util.cc **** 
  20:../src/tensorflow/lite/kernels/kernel_util.cc **** #include <algorithm>
  21:../src/tensorflow/lite/kernels/kernel_util.cc **** #include <complex>
  22:../src/tensorflow/lite/kernels/kernel_util.cc **** #include <limits>
  23:../src/tensorflow/lite/kernels/kernel_util.cc **** #include <memory>
  24:../src/tensorflow/lite/kernels/kernel_util.cc **** 
  25:../src/tensorflow/lite/kernels/kernel_util.cc **** #include "tensorflow/lite/c/builtin_op_data.h"
  26:../src/tensorflow/lite/kernels/kernel_util.cc **** #include "tensorflow/lite/c/common.h"
  27:../src/tensorflow/lite/kernels/kernel_util.cc **** #include "tensorflow/lite/kernels/internal/cppmath.h"
  28:../src/tensorflow/lite/kernels/kernel_util.cc **** #include "tensorflow/lite/kernels/internal/quantization_util.h"
  29:../src/tensorflow/lite/kernels/kernel_util.cc **** 
  30:../src/tensorflow/lite/kernels/kernel_util.cc **** namespace tflite {
  31:../src/tensorflow/lite/kernels/kernel_util.cc **** 
  32:../src/tensorflow/lite/kernels/kernel_util.cc **** namespace {
  33:../src/tensorflow/lite/kernels/kernel_util.cc **** 
  34:../src/tensorflow/lite/kernels/kernel_util.cc **** // Assumes tensor_index is a valid index (in bounds)
  35:../src/tensorflow/lite/kernels/kernel_util.cc **** inline TfLiteTensor* GetTensorAtIndex(const TfLiteContext* context,
  36:../src/tensorflow/lite/kernels/kernel_util.cc ****                                       int tensor_index) {
  37:../src/tensorflow/lite/kernels/kernel_util.cc ****   if (context->tensors != nullptr) {
  38:../src/tensorflow/lite/kernels/kernel_util.cc ****     return &context->tensors[tensor_index];
  39:../src/tensorflow/lite/kernels/kernel_util.cc ****   } else {
  40:../src/tensorflow/lite/kernels/kernel_util.cc ****     return context->GetTensor(context, tensor_index);
  41:../src/tensorflow/lite/kernels/kernel_util.cc ****   }
  42:../src/tensorflow/lite/kernels/kernel_util.cc **** }
  43:../src/tensorflow/lite/kernels/kernel_util.cc **** 
  44:../src/tensorflow/lite/kernels/kernel_util.cc **** // Validate in a single place to reduce binary size
  45:../src/tensorflow/lite/kernels/kernel_util.cc **** inline TfLiteStatus ValidateTensorIndexingSafe(const TfLiteContext* context,
  46:../src/tensorflow/lite/kernels/kernel_util.cc ****                                                int index, int max_size,
  47:../src/tensorflow/lite/kernels/kernel_util.cc ****                                                const int* tensor_indices,
  48:../src/tensorflow/lite/kernels/kernel_util.cc ****                                                int* tensor_index) {
  49:../src/tensorflow/lite/kernels/kernel_util.cc ****   if (index < 0 || index >= max_size) {
  50:../src/tensorflow/lite/kernels/kernel_util.cc ****     TF_LITE_KERNEL_LOG(const_cast<TfLiteContext*>(context),
  51:../src/tensorflow/lite/kernels/kernel_util.cc ****                        "Invalid tensor index %d (not in [0, %d))\n", index,
  52:../src/tensorflow/lite/kernels/kernel_util.cc ****                        max_size);
  53:../src/tensorflow/lite/kernels/kernel_util.cc ****     return kTfLiteError;
  54:../src/tensorflow/lite/kernels/kernel_util.cc ****   }
  55:../src/tensorflow/lite/kernels/kernel_util.cc ****   if (tensor_indices[index] == kTfLiteOptionalTensor) {
  56:../src/tensorflow/lite/kernels/kernel_util.cc ****     TF_LITE_KERNEL_LOG(const_cast<TfLiteContext*>(context),
  57:../src/tensorflow/lite/kernels/kernel_util.cc ****                        "Tensor at index %d was optional but was expected\n",
  58:../src/tensorflow/lite/kernels/kernel_util.cc ****                        index);
  59:../src/tensorflow/lite/kernels/kernel_util.cc ****     return kTfLiteError;
  60:../src/tensorflow/lite/kernels/kernel_util.cc ****   }
  61:../src/tensorflow/lite/kernels/kernel_util.cc **** 
  62:../src/tensorflow/lite/kernels/kernel_util.cc ****   *tensor_index = tensor_indices[index];
  63:../src/tensorflow/lite/kernels/kernel_util.cc ****   return kTfLiteOk;
  64:../src/tensorflow/lite/kernels/kernel_util.cc **** }
  65:../src/tensorflow/lite/kernels/kernel_util.cc **** 
  66:../src/tensorflow/lite/kernels/kernel_util.cc **** // Same as above but returns -1 for invalid inputs instead of status + logging
  67:../src/tensorflow/lite/kernels/kernel_util.cc **** // error.
  68:../src/tensorflow/lite/kernels/kernel_util.cc **** inline int ValidateTensorIndexing(const TfLiteContext* context, int index,
  69:../src/tensorflow/lite/kernels/kernel_util.cc ****                                   int max_size, const int* tensor_indices) {
  70:../src/tensorflow/lite/kernels/kernel_util.cc ****   if (index >= 0 && index < max_size) {
  71:../src/tensorflow/lite/kernels/kernel_util.cc ****     const int tensor_index = tensor_indices[index];
  72:../src/tensorflow/lite/kernels/kernel_util.cc ****     if (tensor_index != kTfLiteOptionalTensor) {
  73:../src/tensorflow/lite/kernels/kernel_util.cc ****       return tensor_index;
  74:../src/tensorflow/lite/kernels/kernel_util.cc ****     }
  75:../src/tensorflow/lite/kernels/kernel_util.cc ****   }
  76:../src/tensorflow/lite/kernels/kernel_util.cc ****   return -1;
  77:../src/tensorflow/lite/kernels/kernel_util.cc **** }
  78:../src/tensorflow/lite/kernels/kernel_util.cc **** 
  79:../src/tensorflow/lite/kernels/kernel_util.cc **** inline TfLiteTensor* GetMutableInput(const TfLiteContext* context,
  80:../src/tensorflow/lite/kernels/kernel_util.cc ****                                      const TfLiteNode* node, int index) {
  81:../src/tensorflow/lite/kernels/kernel_util.cc ****   const int tensor_index = ValidateTensorIndexing(
  82:../src/tensorflow/lite/kernels/kernel_util.cc ****       context, index, node->inputs->size, node->inputs->data);
  83:../src/tensorflow/lite/kernels/kernel_util.cc ****   if (tensor_index < 0) {
  84:../src/tensorflow/lite/kernels/kernel_util.cc ****     return nullptr;
  85:../src/tensorflow/lite/kernels/kernel_util.cc ****   }
  86:../src/tensorflow/lite/kernels/kernel_util.cc ****   return GetTensorAtIndex(context, tensor_index);
  87:../src/tensorflow/lite/kernels/kernel_util.cc **** }
  88:../src/tensorflow/lite/kernels/kernel_util.cc **** 
  89:../src/tensorflow/lite/kernels/kernel_util.cc **** inline TfLiteStatus GetMutableInputSafe(const TfLiteContext* context,
  90:../src/tensorflow/lite/kernels/kernel_util.cc ****                                         const TfLiteNode* node, int index,
  91:../src/tensorflow/lite/kernels/kernel_util.cc ****                                         const TfLiteTensor** tensor) {
  92:../src/tensorflow/lite/kernels/kernel_util.cc ****   int tensor_index;
  93:../src/tensorflow/lite/kernels/kernel_util.cc ****   TF_LITE_ENSURE_OK(
  94:../src/tensorflow/lite/kernels/kernel_util.cc ****       context, ValidateTensorIndexingSafe(context, index, node->inputs->size,
  95:../src/tensorflow/lite/kernels/kernel_util.cc ****                                           node->inputs->data, &tensor_index));
  96:../src/tensorflow/lite/kernels/kernel_util.cc ****   *tensor = GetTensorAtIndex(context, tensor_index);
  97:../src/tensorflow/lite/kernels/kernel_util.cc ****   return kTfLiteOk;
  98:../src/tensorflow/lite/kernels/kernel_util.cc **** }
  99:../src/tensorflow/lite/kernels/kernel_util.cc **** 
 100:../src/tensorflow/lite/kernels/kernel_util.cc **** }  // anonymous namespace.
 101:../src/tensorflow/lite/kernels/kernel_util.cc **** 
 102:../src/tensorflow/lite/kernels/kernel_util.cc **** const TfLiteTensor* GetInput(const TfLiteContext* context,
 103:../src/tensorflow/lite/kernels/kernel_util.cc ****                              const TfLiteNode* node, int index) {
  10                             		.loc 1 103 65
  11                             	.LVL0:
 104:../src/tensorflow/lite/kernels/kernel_util.cc ****   return GetMutableInput(context, node, index);
  12                             		.loc 1 104 3
  13                             	.LBB469:
  14                             	.LBB470:
  81:../src/tensorflow/lite/kernels/kernel_util.cc ****       context, index, node->inputs->size, node->inputs->data);
  15                             		.loc 1 81 50 is_stmt 0
  16 0000 EC 25                   		mov.L	[r2], r5
  17                             	.LVL1:
  81:../src/tensorflow/lite/kernels/kernel_util.cc ****       context, index, node->inputs->size, node->inputs->data);
  18                             		.loc 1 81 3 is_stmt 1
  81:../src/tensorflow/lite/kernels/kernel_util.cc ****       context, index, node->inputs->size, node->inputs->data);
  19                             		.loc 1 81 50 is_stmt 0
  20 0002 FD 2A 52                		mov.L	[r5+], r2
  21                             	.LVL2:
  22                             	.LBE470:
  23                             	.LBE469:
  70:../src/tensorflow/lite/kernels/kernel_util.cc ****     const int tensor_index = tensor_indices[index];
  24                             		.loc 1 70 3 is_stmt 1
  25                             	.LBB479:
  26                             	.LBB478:
  27                             	.LBB471:
  28                             	.LBB472:
  29 0005 61 03                   		cmp	#0, r3
  30 0007 29 1D                   		blt	.L6
  70:../src/tensorflow/lite/kernels/kernel_util.cc ****     const int tensor_index = tensor_indices[index];
  31                             		.loc 1 70 18 is_stmt 0
  32 0009 47 23                   		cmp	r2, r3
  33 000b 28 19                   		bge	.L6
  34                             	.LBB473:
  71:../src/tensorflow/lite/kernels/kernel_util.cc ****     if (tensor_index != kTfLiteOptionalTensor) {
  35                             		.loc 1 71 5 is_stmt 1
  71:../src/tensorflow/lite/kernels/kernel_util.cc ****     if (tensor_index != kTfLiteOptionalTensor) {
  36                             		.loc 1 71 15 is_stmt 0
  37 000d FE 63 52                		mov.L	[r3,r5], r2
  38                             	.LVL3:
  72:../src/tensorflow/lite/kernels/kernel_util.cc ****       return tensor_index;
  39                             		.loc 1 72 5 is_stmt 1
  73:../src/tensorflow/lite/kernels/kernel_util.cc ****     }
  40                             		.loc 1 73 7
  41                             	.LBE473:
  42                             	.LBE472:
  43                             	.LBE471:
  83:../src/tensorflow/lite/kernels/kernel_util.cc ****     return nullptr;
  44                             		.loc 1 83 3
  45 0010 61 02                   		cmp	#0, r2
  46 0012 29 12                   		blt	.L6
  86:../src/tensorflow/lite/kernels/kernel_util.cc **** }
  47                             		.loc 1 86 3
  48                             	.LVL4:
  49                             	.LBB474:
  50                             	.LBB475:
  37:../src/tensorflow/lite/kernels/kernel_util.cc ****     return &context->tensors[tensor_index];
  51                             		.loc 1 37 3
  37:../src/tensorflow/lite/kernels/kernel_util.cc ****     return &context->tensors[tensor_index];
  52                             		.loc 1 37 16 is_stmt 0
  53 0014 A8 95                   		mov.L	8[r1], r5
  37:../src/tensorflow/lite/kernels/kernel_util.cc ****     return &context->tensors[tensor_index];
  54                             		.loc 1 37 3
  55 0016 61 05                   		cmp	#0, r5
  56 0018 17                      		beq	.L3
  38:../src/tensorflow/lite/kernels/kernel_util.cc ****   } else {
  57                             		.loc 1 38 5 is_stmt 1
  38:../src/tensorflow/lite/kernels/kernel_util.cc ****   } else {
  58                             		.loc 1 38 42 is_stmt 0
  59 0019 FD C6 21                		shll	#6, r2, r1
  60                             	.LVL5:
  61 001c 4B 51                   		add	r5, r1
  62 001e 02                      		rts
  63                             	.LVL6:
  64                             	.L3:
  65                             	.LBB476:
  66                             	.LBB477:
  40:../src/tensorflow/lite/kernels/kernel_util.cc ****   }
  67                             		.loc 1 40 5 is_stmt 1
  40:../src/tensorflow/lite/kernels/kernel_util.cc ****   }
  68                             		.loc 1 40 30 is_stmt 0
  69 001f AD 15                   		mov.L	80[r1], r5
  70 0021 7F 15                   		jsr	r5
  71                             	.LVL7:
  72 0023 02                      		rts
  73                             	.LVL8:
  74                             	.L6:
  75                             	.LBE477:
  76                             	.LBE476:
  77                             	.LBE475:
  78                             	.LBE474:
  84:../src/tensorflow/lite/kernels/kernel_util.cc ****   }
  79                             		.loc 1 84 12
  80 0024 66 01                   		mov.L	#0, r1
  81                             	.LVL9:
  82                             	.LBE478:
  83                             	.LBE479:
 105:../src/tensorflow/lite/kernels/kernel_util.cc **** }
  84                             		.loc 1 105 1
  85 0026 02                      		rts
  86                             	.LFE3299:
  88                             		.section	.text._ZN6tflite12GetInputSafeEPK13TfLiteContextPK10TfLiteNodeiPPK12TfLiteTensor,"ax",@pr
  89                             		.global	__ZN6tflite12GetInputSafeEPK13TfLiteContextPK10TfLiteNodeiPPK12TfLiteTensor
  91                             	__ZN6tflite12GetInputSafeEPK13TfLiteContextPK10TfLiteNodeiPPK12TfLiteTensor:
  92                             	.LFB3300:
 106:../src/tensorflow/lite/kernels/kernel_util.cc **** 
 107:../src/tensorflow/lite/kernels/kernel_util.cc **** TfLiteStatus GetInputSafe(const TfLiteContext* context, const TfLiteNode* node,
 108:../src/tensorflow/lite/kernels/kernel_util.cc ****                           int index, const TfLiteTensor** tensor) {
  93                             		.loc 1 108 67 is_stmt 1
  94                             	.LVL10:
  95 0000 71 00 F0                		add	#-16, r0
  96                             	.LCFI0:
 109:../src/tensorflow/lite/kernels/kernel_util.cc ****   return GetMutableInputSafe(context, node, index, tensor);
  97                             		.loc 1 109 3
  98                             		.loc 1 109 29 is_stmt 0
  99 0003 EC 25                   		mov.L	[r2], r5
 108:../src/tensorflow/lite/kernels/kernel_util.cc ****   return GetMutableInputSafe(context, node, index, tensor);
 100                             		.loc 1 108 67
 101 0005 EF 1E                   		mov.L	r1, r14
 102                             	.LVL11:
 103                             	.LBB491:
 104                             	.LBB492:
  92:../src/tensorflow/lite/kernels/kernel_util.cc ****   TF_LITE_ENSURE_OK(
 105                             		.loc 1 92 3 is_stmt 1
  93:../src/tensorflow/lite/kernels/kernel_util.cc ****       context, ValidateTensorIndexingSafe(context, index, node->inputs->size,
 106                             		.loc 1 93 3
 107                             	.LBB493:
  93:../src/tensorflow/lite/kernels/kernel_util.cc ****       context, ValidateTensorIndexingSafe(context, index, node->inputs->size,
 108                             		.loc 1 93 3
 109 0007 EC 52                   		mov.L	[r5], r2
 110                             	.LVL12:
 111                             	.LBB494:
 112                             	.LBB495:
  49:../src/tensorflow/lite/kernels/kernel_util.cc ****     TF_LITE_KERNEL_LOG(const_cast<TfLiteContext*>(context),
 113                             		.loc 1 49 3
 114 0009 61 03                   		cmp	#0, r3
 115 000b 29 23                   		blt	.L9
  49:../src/tensorflow/lite/kernels/kernel_util.cc ****     TF_LITE_KERNEL_LOG(const_cast<TfLiteContext*>(context),
 116                             		.loc 1 49 17 is_stmt 0
 117 000d 47 23                   		cmp	r2, r3
 118 000f 28 1F                   		bge	.L9
  55:../src/tensorflow/lite/kernels/kernel_util.cc ****     TF_LITE_KERNEL_LOG(const_cast<TfLiteContext*>(context),
 119                             		.loc 1 55 3 is_stmt 1
  55:../src/tensorflow/lite/kernels/kernel_util.cc ****     TF_LITE_KERNEL_LOG(const_cast<TfLiteContext*>(context),
 120                             		.loc 1 55 27 is_stmt 0
 121 0011 FD C2 32                		shll	#2, r3, r2
 122                             	.LVL13:
 123 0014 4B 25                   		add	r2, r5
 124                             	.LVL14:
 125 0016 A8 5A                   		mov.L	4[r5], r2
  55:../src/tensorflow/lite/kernels/kernel_util.cc ****     TF_LITE_KERNEL_LOG(const_cast<TfLiteContext*>(context),
 126                             		.loc 1 55 3
 127 0018 75 02 FF                		cmp	#-1, r2
 128 001b 20 36                   		beq	.L12
 129                             	.LVL15:
 130                             	.LBE495:
 131                             	.LBE494:
  93:../src/tensorflow/lite/kernels/kernel_util.cc ****       context, ValidateTensorIndexingSafe(context, index, node->inputs->size,
 132                             		.loc 1 93 3 is_stmt 1
 133                             	.LBE493:
  96:../src/tensorflow/lite/kernels/kernel_util.cc ****   return kTfLiteOk;
 134                             		.loc 1 96 3
 135                             	.LBB508:
 136                             	.LBB509:
  37:../src/tensorflow/lite/kernels/kernel_util.cc ****     return &context->tensors[tensor_index];
 137                             		.loc 1 37 3
  37:../src/tensorflow/lite/kernels/kernel_util.cc ****     return &context->tensors[tensor_index];
 138                             		.loc 1 37 16 is_stmt 0
 139 001d A8 95                   		mov.L	8[r1], r5
  37:../src/tensorflow/lite/kernels/kernel_util.cc ****     return &context->tensors[tensor_index];
 140                             		.loc 1 37 3
 141 001f 61 05                   		cmp	#0, r5
 142 0021 20 22                   		beq	.L18
  38:../src/tensorflow/lite/kernels/kernel_util.cc ****   } else {
 143                             		.loc 1 38 5 is_stmt 1
  38:../src/tensorflow/lite/kernels/kernel_util.cc ****   } else {
 144                             		.loc 1 38 42 is_stmt 0
 145 0023 FD C6 21                		shll	#6, r2, r1
 146                             	.LVL16:
 147 0026 4B 51                   		add	r5, r1
 148                             	.LVL17:
 149                             	.LBE509:
 150                             	.LBE508:
  96:../src/tensorflow/lite/kernels/kernel_util.cc ****   return kTfLiteOk;
 151                             		.loc 1 96 11
 152 0028 E3 41                   		mov.L	r1, [r4]
  97:../src/tensorflow/lite/kernels/kernel_util.cc **** }
 153                             		.loc 1 97 3 is_stmt 1
  97:../src/tensorflow/lite/kernels/kernel_util.cc **** }
 154                             		.loc 1 97 10 is_stmt 0
 155 002a 66 01                   		mov.L	#0, r1
 156                             	.LVL18:
 157                             		.balign 8,3,1
 158                             	.L8:
 159                             	.LBE492:
 160                             	.LBE491:
 110:../src/tensorflow/lite/kernels/kernel_util.cc **** }
 161                             		.loc 1 110 1
 162 002c 67 04                   		rtsd	#16
 163                             	.LVL19:
 164                             	.L9:
 165                             	.LBB518:
 166                             	.LBB516:
 167                             	.LBB513:
 168                             	.LBB504:
 169                             	.LBB500:
  50:../src/tensorflow/lite/kernels/kernel_util.cc ****                        "Invalid tensor index %d (not in [0, %d))\n", index,
 170                             		.loc 1 50 5 is_stmt 1
  50:../src/tensorflow/lite/kernels/kernel_util.cc ****                        "Invalid tensor index %d (not in [0, %d))\n", index,
 171                             		.loc 1 50 5
 172 002e ED E5 05                		mov.L	20[r14], r5
 173                             	.LVL20:
 174 0031 A0 82                   		mov.L	r2, 8[r0]
 175                             	.LVL21:
 176 0033 A0 0B                   		mov.L	r3, 4[r0]
 177 0035 EF E1                   		mov.L	r14, r1
 178                             	.LVL22:
 179 0037 F8 02 00 00 00 00       		mov.L	#.LC0, [r0]
 180 003d 7F 15                   		jsr	r5
 181                             	.LVL23:
  53:../src/tensorflow/lite/kernels/kernel_util.cc ****   }
 182                             		.loc 1 53 5
 183                             	.LBE500:
 184                             	.LBE504:
  93:../src/tensorflow/lite/kernels/kernel_util.cc ****       context, ValidateTensorIndexingSafe(context, index, node->inputs->size,
 185                             		.loc 1 93 3
 186                             	.LBB505:
 187                             	.LBB501:
  53:../src/tensorflow/lite/kernels/kernel_util.cc ****   }
 188                             		.loc 1 53 12 is_stmt 0
 189 003f 66 11                   		mov.L	#1, r1
 190                             	.LBE501:
 191                             	.LBE505:
 192                             	.LBE513:
 193                             	.LBE516:
 194                             	.LBE518:
 195                             		.loc 1 110 1
 196 0041 67 04                   		rtsd	#16
 197                             	.LVL24:
 198                             	.L18:
 199                             	.LBB519:
 200                             	.LBB517:
 201                             	.LBB514:
 202                             	.LBB512:
 203                             	.LBB510:
 204                             	.LBB511:
  40:../src/tensorflow/lite/kernels/kernel_util.cc ****   }
 205                             		.loc 1 40 5 is_stmt 1
  40:../src/tensorflow/lite/kernels/kernel_util.cc ****   }
 206                             		.loc 1 40 30 is_stmt 0
 207 0043 AD 15                   		mov.L	80[r1], r5
 208 0045 A0 8C                   		mov.L	r4, 12[r0]
 209 0047 7F 15                   		jsr	r5
 210                             	.LVL25:
 211 0049 A8 8C                   		mov.L	12[r0], r4
 212                             	.LVL26:
 213                             	.LBE511:
 214                             	.LBE510:
 215                             	.LBE512:
 216                             	.LBE514:
  96:../src/tensorflow/lite/kernels/kernel_util.cc ****   return kTfLiteOk;
 217                             		.loc 1 96 11
 218 004b E3 41                   		mov.L	r1, [r4]
  97:../src/tensorflow/lite/kernels/kernel_util.cc **** }
 219                             		.loc 1 97 3 is_stmt 1
  97:../src/tensorflow/lite/kernels/kernel_util.cc **** }
 220                             		.loc 1 97 10 is_stmt 0
 221 004d 66 01                   		mov.L	#0, r1
 222                             	.LVL27:
 223 004f 2E DD                   		bra	.L8
 224                             	.LVL28:
 225                             	.L12:
 226                             	.LBB515:
 227                             	.LBB506:
 228                             	.LBB502:
 229                             	.LBB496:
 230                             	.LBB497:
  56:../src/tensorflow/lite/kernels/kernel_util.cc ****                        "Tensor at index %d was optional but was expected\n",
 231                             		.loc 1 56 5 is_stmt 1
  56:../src/tensorflow/lite/kernels/kernel_util.cc ****                        "Tensor at index %d was optional but was expected\n",
 232                             		.loc 1 56 5
 233 0051 A9 1D                   		mov.L	20[r1], r5
 234 0053 A0 0B                   		mov.L	r3, 4[r0]
 235                             	.LVL29:
 236 0055 F8 02 2A 00 00 00       		mov.L	#.LC1, [r0]
 237 005b 7F 15                   		jsr	r5
 238                             	.LVL30:
  59:../src/tensorflow/lite/kernels/kernel_util.cc ****   }
 239                             		.loc 1 59 5
 240                             	.LBE497:
 241                             	.LBE496:
 242                             	.LBE502:
 243                             	.LBE506:
  93:../src/tensorflow/lite/kernels/kernel_util.cc ****       context, ValidateTensorIndexingSafe(context, index, node->inputs->size,
 244                             		.loc 1 93 3
 245                             	.LBB507:
 246                             	.LBB503:
 247                             	.LBB499:
 248                             	.LBB498:
  56:../src/tensorflow/lite/kernels/kernel_util.cc ****                        "Tensor at index %d was optional but was expected\n",
 249                             		.loc 1 56 5 is_stmt 0
 250 005d 66 11                   		mov.L	#1, r1
 251                             	.LBE498:
 252                             	.LBE499:
 253                             	.LBE503:
 254                             	.LBE507:
 255                             	.LBE515:
 256                             	.LBE517:
 257                             	.LBE519:
 258                             		.loc 1 110 1
 259 005f 67 04                   		rtsd	#16
 260                             	.LFE3300:
 262 0061 FD 70 40 00 00 00 80    		.section	.text._ZN6tflite16GetVariableInputEP13TfLiteContextPK10TfLiteNodei,"ax",@progbits
 263                             		.global	__ZN6tflite16GetVariableInputEP13TfLiteContextPK10TfLiteNodei
 265                             	__ZN6tflite16GetVariableInputEP13TfLiteContextPK10TfLiteNodei:
 266                             	.LFB3301:
 111:../src/tensorflow/lite/kernels/kernel_util.cc **** 
 112:../src/tensorflow/lite/kernels/kernel_util.cc **** TfLiteTensor* GetVariableInput(TfLiteContext* context, const TfLiteNode* node,
 113:../src/tensorflow/lite/kernels/kernel_util.cc ****                                int index) {
 267                             		.loc 1 113 43 is_stmt 1
 268                             	.LVL31:
 114:../src/tensorflow/lite/kernels/kernel_util.cc ****   TfLiteTensor* tensor = GetMutableInput(context, node, index);
 269                             		.loc 1 114 3
 270                             	.LBB529:
 271                             	.LBB530:
  81:../src/tensorflow/lite/kernels/kernel_util.cc ****       context, index, node->inputs->size, node->inputs->data);
 272                             		.loc 1 81 50 is_stmt 0
 273 0000 EC 25                   		mov.L	[r2], r5
 274                             	.LVL32:
  81:../src/tensorflow/lite/kernels/kernel_util.cc ****       context, index, node->inputs->size, node->inputs->data);
 275                             		.loc 1 81 3 is_stmt 1
  81:../src/tensorflow/lite/kernels/kernel_util.cc ****       context, index, node->inputs->size, node->inputs->data);
 276                             		.loc 1 81 50 is_stmt 0
 277 0002 FD 2A 52                		mov.L	[r5+], r2
 278                             	.LVL33:
 279                             	.LBE530:
 280                             	.LBE529:
  70:../src/tensorflow/lite/kernels/kernel_util.cc ****     const int tensor_index = tensor_indices[index];
 281                             		.loc 1 70 3 is_stmt 1
 282                             	.LBB542:
 283                             	.LBB540:
 284                             	.LBB531:
 285                             	.LBB532:
 286 0005 61 03                   		cmp	#0, r3
 287 0007 29 30                   		blt	.L20
  70:../src/tensorflow/lite/kernels/kernel_util.cc ****     const int tensor_index = tensor_indices[index];
 288                             		.loc 1 70 18 is_stmt 0
 289 0009 47 23                   		cmp	r2, r3
 290 000b 28 2C                   		bge	.L20
 291                             	.LBB533:
  71:../src/tensorflow/lite/kernels/kernel_util.cc ****     if (tensor_index != kTfLiteOptionalTensor) {
 292                             		.loc 1 71 5 is_stmt 1
  71:../src/tensorflow/lite/kernels/kernel_util.cc ****     if (tensor_index != kTfLiteOptionalTensor) {
 293                             		.loc 1 71 15 is_stmt 0
 294 000d FE 63 52                		mov.L	[r3,r5], r2
 295                             	.LVL34:
  72:../src/tensorflow/lite/kernels/kernel_util.cc ****       return tensor_index;
 296                             		.loc 1 72 5 is_stmt 1
  73:../src/tensorflow/lite/kernels/kernel_util.cc ****     }
 297                             		.loc 1 73 7
 298                             	.LBE533:
 299                             	.LBE532:
 300                             	.LBE531:
  83:../src/tensorflow/lite/kernels/kernel_util.cc ****     return nullptr;
 301                             		.loc 1 83 3
 302 0010 61 02                   		cmp	#0, r2
 303 0012 29 25                   		blt	.L20
  86:../src/tensorflow/lite/kernels/kernel_util.cc **** }
 304                             		.loc 1 86 3
 305                             	.LVL35:
 306                             	.LBB534:
 307                             	.LBB535:
  37:../src/tensorflow/lite/kernels/kernel_util.cc ****     return &context->tensors[tensor_index];
 308                             		.loc 1 37 3
  37:../src/tensorflow/lite/kernels/kernel_util.cc ****     return &context->tensors[tensor_index];
 309                             		.loc 1 37 16 is_stmt 0
 310 0014 A8 95                   		mov.L	8[r1], r5
  37:../src/tensorflow/lite/kernels/kernel_util.cc ****     return &context->tensors[tensor_index];
 311                             		.loc 1 37 3
 312 0016 61 05                   		cmp	#0, r5
 313 0018 20 11                   		beq	.L21
  38:../src/tensorflow/lite/kernels/kernel_util.cc ****   } else {
 314                             		.loc 1 38 5 is_stmt 1
  38:../src/tensorflow/lite/kernels/kernel_util.cc ****   } else {
 315                             		.loc 1 38 42 is_stmt 0
 316 001a FD C6 21                		shll	#6, r2, r1
 317                             	.LVL36:
 318 001d 4B 51                   		add	r5, r1
 319                             	.LVL37:
 320                             	.LBE535:
 321                             	.LBE534:
 322                             	.LBE540:
 323                             	.LBE542:
 115:../src/tensorflow/lite/kernels/kernel_util.cc ****   return tensor->is_variable ? tensor : nullptr;
 324                             		.loc 1 115 3 is_stmt 1
 325                             		.loc 1 115 30 is_stmt 0
 326 001f 59 15 2D                		movu.B	45[r1], r5
 327 0022 61 05                   		cmp	#0, r5
 328 0024 FD 74 E1 00             		stz	#0, r1
 329                             	.LVL38:
 116:../src/tensorflow/lite/kernels/kernel_util.cc **** }
 330                             		.loc 1 116 1
 331 0028 02                      		rts
 332                             	.LVL39:
 333                             	.L21:
 334                             	.LBB543:
 335                             	.LBB541:
 336                             	.LBB539:
 337                             	.LBB538:
 338                             	.LBB536:
 339                             	.LBB537:
  40:../src/tensorflow/lite/kernels/kernel_util.cc ****   }
 340                             		.loc 1 40 5 is_stmt 1
  40:../src/tensorflow/lite/kernels/kernel_util.cc ****   }
 341                             		.loc 1 40 30 is_stmt 0
 342 0029 AD 15                   		mov.L	80[r1], r5
 343 002b 7F 15                   		jsr	r5
 344                             	.LVL40:
 345                             	.LBE537:
 346                             	.LBE536:
 347                             	.LBE538:
 348                             	.LBE539:
 349                             	.LBE541:
 350                             	.LBE543:
 115:../src/tensorflow/lite/kernels/kernel_util.cc ****   return tensor->is_variable ? tensor : nullptr;
 351                             		.loc 1 115 3 is_stmt 1
 115:../src/tensorflow/lite/kernels/kernel_util.cc ****   return tensor->is_variable ? tensor : nullptr;
 352                             		.loc 1 115 30 is_stmt 0
 353 002d 59 15 2D                		movu.B	45[r1], r5
 354 0030 61 05                   		cmp	#0, r5
 355 0032 FD 74 E1 00             		stz	#0, r1
 356                             	.LVL41:
 357                             		.loc 1 116 1
 358 0036 02                      		rts
 359                             	.LVL42:
 360                             	.L20:
 115:../src/tensorflow/lite/kernels/kernel_util.cc ****   return tensor->is_variable ? tensor : nullptr;
 361                             		.loc 1 115 3 is_stmt 1
 115:../src/tensorflow/lite/kernels/kernel_util.cc ****   return tensor->is_variable ? tensor : nullptr;
 362                             		.loc 1 115 18 is_stmt 0
 363 0037 66 05                   		mov.L	#0, r5
 364 0039 CD 55 2D                		mov.B	45[r5], r5
 365 003c 05 00 00 00             		bsr	_abort
 366                             	.LVL43:
 367                             	.LFE3301:
 369                             		.section	.text._ZN6tflite9GetOutputEP13TfLiteContextPK10TfLiteNodei,"ax",@progbits
 370                             		.global	__ZN6tflite9GetOutputEP13TfLiteContextPK10TfLiteNodei
 372                             	__ZN6tflite9GetOutputEP13TfLiteContextPK10TfLiteNodei:
 373                             	.LFB3302:
 117:../src/tensorflow/lite/kernels/kernel_util.cc **** 
 118:../src/tensorflow/lite/kernels/kernel_util.cc **** TfLiteTensor* GetOutput(TfLiteContext* context, const TfLiteNode* node,
 119:../src/tensorflow/lite/kernels/kernel_util.cc ****                         int index) {
 374                             		.loc 1 119 36 is_stmt 1
 375                             	.LVL44:
 120:../src/tensorflow/lite/kernels/kernel_util.cc ****   const int tensor_index = ValidateTensorIndexing(
 376                             		.loc 1 120 3
 377                             		.loc 1 120 50 is_stmt 0
 378 0000 A8 2D                   		mov.L	4[r2], r5
 379 0002 FD 2A 52                		mov.L	[r5+], r2
 380                             	.LVL45:
  70:../src/tensorflow/lite/kernels/kernel_util.cc ****     const int tensor_index = tensor_indices[index];
 381                             		.loc 1 70 3 is_stmt 1
 382                             	.LBB551:
 383                             	.LBB552:
 384 0005 61 03                   		cmp	#0, r3
 385 0007 29 1D                   		blt	.L30
  70:../src/tensorflow/lite/kernels/kernel_util.cc ****     const int tensor_index = tensor_indices[index];
 386                             		.loc 1 70 18 is_stmt 0
 387 0009 47 32                   		cmp	r3, r2
 388 000b 2B 19                   		ble	.L30
 389                             	.LBB553:
  71:../src/tensorflow/lite/kernels/kernel_util.cc ****     if (tensor_index != kTfLiteOptionalTensor) {
 390                             		.loc 1 71 5 is_stmt 1
  71:../src/tensorflow/lite/kernels/kernel_util.cc ****     if (tensor_index != kTfLiteOptionalTensor) {
 391                             		.loc 1 71 15 is_stmt 0
 392 000d FE 63 52                		mov.L	[r3,r5], r2
 393                             	.LVL46:
  72:../src/tensorflow/lite/kernels/kernel_util.cc ****       return tensor_index;
 394                             		.loc 1 72 5 is_stmt 1
  73:../src/tensorflow/lite/kernels/kernel_util.cc ****     }
 395                             		.loc 1 73 7
 396                             	.LBE553:
 397                             	.LBE552:
 398                             	.LBE551:
 121:../src/tensorflow/lite/kernels/kernel_util.cc ****       context, index, node->outputs->size, node->outputs->data);
 122:../src/tensorflow/lite/kernels/kernel_util.cc ****   if (tensor_index < 0) {
 399                             		.loc 1 122 3
 400 0010 61 02                   		cmp	#0, r2
 401 0012 29 12                   		blt	.L30
 123:../src/tensorflow/lite/kernels/kernel_util.cc ****     return nullptr;
 124:../src/tensorflow/lite/kernels/kernel_util.cc ****   }
 125:../src/tensorflow/lite/kernels/kernel_util.cc ****   return GetTensorAtIndex(context, tensor_index);
 402                             		.loc 1 125 3
 403                             	.LVL47:
 404                             	.LBB554:
 405                             	.LBB555:
  37:../src/tensorflow/lite/kernels/kernel_util.cc ****     return &context->tensors[tensor_index];
 406                             		.loc 1 37 3
  37:../src/tensorflow/lite/kernels/kernel_util.cc ****     return &context->tensors[tensor_index];
 407                             		.loc 1 37 16 is_stmt 0
 408 0014 A8 95                   		mov.L	8[r1], r5
  37:../src/tensorflow/lite/kernels/kernel_util.cc ****     return &context->tensors[tensor_index];
 409                             		.loc 1 37 3
 410 0016 61 05                   		cmp	#0, r5
 411 0018 17                      		beq	.L27
  38:../src/tensorflow/lite/kernels/kernel_util.cc ****   } else {
 412                             		.loc 1 38 5 is_stmt 1
  38:../src/tensorflow/lite/kernels/kernel_util.cc ****   } else {
 413                             		.loc 1 38 42 is_stmt 0
 414 0019 FD C6 21                		shll	#6, r2, r1
 415                             	.LVL48:
 416 001c 4B 51                   		add	r5, r1
 417 001e 02                      		rts
 418                             	.LVL49:
 419                             	.L27:
 420                             	.LBB556:
 421                             	.LBB557:
  40:../src/tensorflow/lite/kernels/kernel_util.cc ****   }
 422                             		.loc 1 40 5 is_stmt 1
  40:../src/tensorflow/lite/kernels/kernel_util.cc ****   }
 423                             		.loc 1 40 30 is_stmt 0
 424 001f AD 15                   		mov.L	80[r1], r5
 425 0021 7F 15                   		jsr	r5
 426                             	.LVL50:
 427 0023 02                      		rts
 428                             	.LVL51:
 429                             	.L30:
 430                             	.LBE557:
 431                             	.LBE556:
 432                             	.LBE555:
 433                             	.LBE554:
 123:../src/tensorflow/lite/kernels/kernel_util.cc ****   }
 434                             		.loc 1 123 12
 435 0024 66 01                   		mov.L	#0, r1
 436                             	.LVL52:
 126:../src/tensorflow/lite/kernels/kernel_util.cc **** }
 437                             		.loc 1 126 1
 438 0026 02                      		rts
 439                             	.LFE3302:
 441                             		.section	.text._ZN6tflite13GetOutputSafeEPK13TfLiteContextPK10TfLiteNodeiPP12TfLiteTensor,"ax",@pr
 442                             		.global	__ZN6tflite13GetOutputSafeEPK13TfLiteContextPK10TfLiteNodeiPP12TfLiteTensor
 444                             	__ZN6tflite13GetOutputSafeEPK13TfLiteContextPK10TfLiteNodeiPP12TfLiteTensor:
 445                             	.LFB3303:
 127:../src/tensorflow/lite/kernels/kernel_util.cc **** 
 128:../src/tensorflow/lite/kernels/kernel_util.cc **** TfLiteStatus GetOutputSafe(const TfLiteContext* context, const TfLiteNode* node,
 129:../src/tensorflow/lite/kernels/kernel_util.cc ****                            int index, TfLiteTensor** tensor) {
 446                             		.loc 1 129 62 is_stmt 1
 447                             	.LVL53:
 448 0000 71 00 F0                		add	#-16, r0
 449                             	.LCFI1:
 130:../src/tensorflow/lite/kernels/kernel_util.cc ****   int tensor_index;
 450                             		.loc 1 130 3
 131:../src/tensorflow/lite/kernels/kernel_util.cc ****   TF_LITE_ENSURE_OK(
 451                             		.loc 1 131 3
 452                             	.LBB567:
 453                             		.loc 1 131 3
 454 0003 A8 2D                   		mov.L	4[r2], r5
 455                             	.LBE567:
 129:../src/tensorflow/lite/kernels/kernel_util.cc ****   int tensor_index;
 456                             		.loc 1 129 62 is_stmt 0
 457 0005 EF 1E                   		mov.L	r1, r14
 458                             	.LBB582:
 459                             		.loc 1 131 3
 460 0007 EC 52                   		mov.L	[r5], r2
 461                             	.LVL54:
 462                             	.LBB568:
 463                             	.LBB569:
  49:../src/tensorflow/lite/kernels/kernel_util.cc ****     TF_LITE_KERNEL_LOG(const_cast<TfLiteContext*>(context),
 464                             		.loc 1 49 3 is_stmt 1
 465 0009 61 03                   		cmp	#0, r3
 466 000b 29 23                   		blt	.L32
  49:../src/tensorflow/lite/kernels/kernel_util.cc ****     TF_LITE_KERNEL_LOG(const_cast<TfLiteContext*>(context),
 467                             		.loc 1 49 17 is_stmt 0
 468 000d 47 32                   		cmp	r3, r2
 469 000f 2B 1F                   		ble	.L32
  55:../src/tensorflow/lite/kernels/kernel_util.cc ****     TF_LITE_KERNEL_LOG(const_cast<TfLiteContext*>(context),
 470                             		.loc 1 55 3 is_stmt 1
  55:../src/tensorflow/lite/kernels/kernel_util.cc ****     TF_LITE_KERNEL_LOG(const_cast<TfLiteContext*>(context),
 471                             		.loc 1 55 27 is_stmt 0
 472 0011 FD C2 32                		shll	#2, r3, r2
 473                             	.LVL55:
 474 0014 4B 25                   		add	r2, r5
 475                             	.LVL56:
 476 0016 A8 5A                   		mov.L	4[r5], r2
  55:../src/tensorflow/lite/kernels/kernel_util.cc ****     TF_LITE_KERNEL_LOG(const_cast<TfLiteContext*>(context),
 477                             		.loc 1 55 3
 478 0018 75 02 FF                		cmp	#-1, r2
 479 001b 20 36                   		beq	.L35
 480                             	.LVL57:
 481                             	.LBE569:
 482                             	.LBE568:
 483                             		.loc 1 131 3 is_stmt 1
 484                             	.LBE582:
 132:../src/tensorflow/lite/kernels/kernel_util.cc ****       context, ValidateTensorIndexingSafe(context, index, node->outputs->size,
 133:../src/tensorflow/lite/kernels/kernel_util.cc ****                                           node->outputs->data, &tensor_index));
 134:../src/tensorflow/lite/kernels/kernel_util.cc ****   *tensor = GetTensorAtIndex(context, tensor_index);
 485                             		.loc 1 134 3
 486                             	.LBB583:
 487                             	.LBB584:
  37:../src/tensorflow/lite/kernels/kernel_util.cc ****     return &context->tensors[tensor_index];
 488                             		.loc 1 37 3
  37:../src/tensorflow/lite/kernels/kernel_util.cc ****     return &context->tensors[tensor_index];
 489                             		.loc 1 37 16 is_stmt 0
 490 001d A8 95                   		mov.L	8[r1], r5
  37:../src/tensorflow/lite/kernels/kernel_util.cc ****     return &context->tensors[tensor_index];
 491                             		.loc 1 37 3
 492 001f 61 05                   		cmp	#0, r5
 493 0021 20 22                   		beq	.L41
  38:../src/tensorflow/lite/kernels/kernel_util.cc ****   } else {
 494                             		.loc 1 38 5 is_stmt 1
  38:../src/tensorflow/lite/kernels/kernel_util.cc ****   } else {
 495                             		.loc 1 38 42 is_stmt 0
 496 0023 FD C6 21                		shll	#6, r2, r1
 497                             	.LVL58:
 498 0026 4B 51                   		add	r5, r1
 499                             	.LVL59:
 500                             	.LBE584:
 501                             	.LBE583:
 502                             		.loc 1 134 11
 503 0028 E3 41                   		mov.L	r1, [r4]
 135:../src/tensorflow/lite/kernels/kernel_util.cc ****   return kTfLiteOk;
 504                             		.loc 1 135 3 is_stmt 1
 505                             		.loc 1 135 10 is_stmt 0
 506 002a 66 01                   		mov.L	#0, r1
 507                             	.LVL60:
 508                             		.balign 8,3,1
 509                             	.L31:
 136:../src/tensorflow/lite/kernels/kernel_util.cc **** }
 510                             		.loc 1 136 1
 511 002c 67 04                   		rtsd	#16
 512                             	.LVL61:
 513                             	.L32:
 514                             	.LBB588:
 515                             	.LBB578:
 516                             	.LBB574:
  50:../src/tensorflow/lite/kernels/kernel_util.cc ****                        "Invalid tensor index %d (not in [0, %d))\n", index,
 517                             		.loc 1 50 5 is_stmt 1
  50:../src/tensorflow/lite/kernels/kernel_util.cc ****                        "Invalid tensor index %d (not in [0, %d))\n", index,
 518                             		.loc 1 50 5
 519 002e ED E5 05                		mov.L	20[r14], r5
 520                             	.LVL62:
 521 0031 A0 82                   		mov.L	r2, 8[r0]
 522                             	.LVL63:
 523 0033 A0 0B                   		mov.L	r3, 4[r0]
 524 0035 EF E1                   		mov.L	r14, r1
 525                             	.LVL64:
 526 0037 F8 02 00 00 00 00       		mov.L	#.LC0, [r0]
 527 003d 7F 15                   		jsr	r5
 528                             	.LVL65:
  53:../src/tensorflow/lite/kernels/kernel_util.cc ****   }
 529                             		.loc 1 53 5
 530                             	.LBE574:
 531                             	.LBE578:
 131:../src/tensorflow/lite/kernels/kernel_util.cc ****       context, ValidateTensorIndexingSafe(context, index, node->outputs->size,
 532                             		.loc 1 131 3
 533                             	.LBB579:
 534                             	.LBB575:
  53:../src/tensorflow/lite/kernels/kernel_util.cc ****   }
 535                             		.loc 1 53 12 is_stmt 0
 536 003f 66 11                   		mov.L	#1, r1
 537                             	.LBE575:
 538                             	.LBE579:
 539                             	.LBE588:
 540                             		.loc 1 136 1
 541 0041 67 04                   		rtsd	#16
 542                             	.LVL66:
 543                             	.L41:
 544                             	.LBB589:
 545                             	.LBB587:
 546                             	.LBB585:
 547                             	.LBB586:
  40:../src/tensorflow/lite/kernels/kernel_util.cc ****   }
 548                             		.loc 1 40 5 is_stmt 1
  40:../src/tensorflow/lite/kernels/kernel_util.cc ****   }
 549                             		.loc 1 40 30 is_stmt 0
 550 0043 AD 15                   		mov.L	80[r1], r5
 551 0045 A0 8C                   		mov.L	r4, 12[r0]
 552 0047 7F 15                   		jsr	r5
 553                             	.LVL67:
 554 0049 A8 8C                   		mov.L	12[r0], r4
 555                             	.LVL68:
 556                             	.LBE586:
 557                             	.LBE585:
 558                             	.LBE587:
 559                             	.LBE589:
 134:../src/tensorflow/lite/kernels/kernel_util.cc ****   return kTfLiteOk;
 560                             		.loc 1 134 11
 561 004b E3 41                   		mov.L	r1, [r4]
 135:../src/tensorflow/lite/kernels/kernel_util.cc **** }
 562                             		.loc 1 135 3 is_stmt 1
 135:../src/tensorflow/lite/kernels/kernel_util.cc **** }
 563                             		.loc 1 135 10 is_stmt 0
 564 004d 66 01                   		mov.L	#0, r1
 565 004f 2E DD                   		bra	.L31
 566                             	.LVL69:
 567                             	.L35:
 568                             	.LBB590:
 569                             	.LBB580:
 570                             	.LBB576:
 571                             	.LBB570:
 572                             	.LBB571:
  56:../src/tensorflow/lite/kernels/kernel_util.cc ****                        "Tensor at index %d was optional but was expected\n",
 573                             		.loc 1 56 5 is_stmt 1
  56:../src/tensorflow/lite/kernels/kernel_util.cc ****                        "Tensor at index %d was optional but was expected\n",
 574                             		.loc 1 56 5
 575 0051 A9 1D                   		mov.L	20[r1], r5
 576 0053 A0 0B                   		mov.L	r3, 4[r0]
 577                             	.LVL70:
 578 0055 F8 02 2A 00 00 00       		mov.L	#.LC1, [r0]
 579 005b 7F 15                   		jsr	r5
 580                             	.LVL71:
  59:../src/tensorflow/lite/kernels/kernel_util.cc ****   }
 581                             		.loc 1 59 5
 582                             	.LBE571:
 583                             	.LBE570:
 584                             	.LBE576:
 585                             	.LBE580:
 131:../src/tensorflow/lite/kernels/kernel_util.cc ****       context, ValidateTensorIndexingSafe(context, index, node->outputs->size,
 586                             		.loc 1 131 3
 587                             	.LBB581:
 588                             	.LBB577:
 589                             	.LBB573:
 590                             	.LBB572:
  56:../src/tensorflow/lite/kernels/kernel_util.cc ****                        "Tensor at index %d was optional but was expected\n",
 591                             		.loc 1 56 5 is_stmt 0
 592 005d 66 11                   		mov.L	#1, r1
 593                             	.LBE572:
 594                             	.LBE573:
 595                             	.LBE577:
 596                             	.LBE581:
 597                             	.LBE590:
 598                             		.loc 1 136 1
 599 005f 67 04                   		rtsd	#16
 600                             	.LFE3303:
 602 0061 FD 70 40 00 00 00 80    		.section	.text._ZN6tflite22GetOptionalInputTensorEPK13TfLiteContextPK10TfLiteNodei,"ax",@progbits
 603                             		.global	__ZN6tflite22GetOptionalInputTensorEPK13TfLiteContextPK10TfLiteNodei
 605                             	__ZN6tflite22GetOptionalInputTensorEPK13TfLiteContextPK10TfLiteNodei:
 606                             	.LFB3885:
 607 0000 EC 25                   		mov.L	[r2], r5
 608 0002 FD 2A 52                		mov.L	[r5+], r2
 609 0005 61 03                   		cmp	#0, r3
 610 0007 29 1D                   		blt	.L47
 611 0009 47 23                   		cmp	r2, r3
 612 000b 28 19                   		bge	.L47
 613 000d FE 63 52                		mov.L	[r3,r5], r2
 614 0010 61 02                   		cmp	#0, r2
 615 0012 29 12                   		blt	.L47
 616 0014 A8 95                   		mov.L	8[r1], r5
 617 0016 61 05                   		cmp	#0, r5
 618 0018 17                      		beq	.L44
 619 0019 FD C6 21                		shll	#6, r2, r1
 620 001c 4B 51                   		add	r5, r1
 621 001e 02                      		rts
 622                             	.L44:
 623 001f AD 15                   		mov.L	80[r1], r5
 624 0021 7F 15                   		jsr	r5
 625 0023 02                      		rts
 626                             	.L47:
 627 0024 66 01                   		mov.L	#0, r1
 628 0026 02                      		rts
 629                             	.LFE3885:
 631                             		.section	.text._ZN6tflite12GetTemporaryEP13TfLiteContextPK10TfLiteNodei,"ax",@progbits
 632                             		.global	__ZN6tflite12GetTemporaryEP13TfLiteContextPK10TfLiteNodei
 634                             	__ZN6tflite12GetTemporaryEP13TfLiteContextPK10TfLiteNodei:
 635                             	.LFB3305:
 137:../src/tensorflow/lite/kernels/kernel_util.cc **** 
 138:../src/tensorflow/lite/kernels/kernel_util.cc **** const TfLiteTensor* GetOptionalInputTensor(const TfLiteContext* context,
 139:../src/tensorflow/lite/kernels/kernel_util.cc ****                                            const TfLiteNode* node, int index) {
 140:../src/tensorflow/lite/kernels/kernel_util.cc ****   return GetInput(context, node, index);
 141:../src/tensorflow/lite/kernels/kernel_util.cc **** }
 142:../src/tensorflow/lite/kernels/kernel_util.cc **** 
 143:../src/tensorflow/lite/kernels/kernel_util.cc **** #ifndef TF_LITE_STATIC_MEMORY
 144:../src/tensorflow/lite/kernels/kernel_util.cc **** TfLiteTensor* GetTemporary(TfLiteContext* context, const TfLiteNode* node,
 145:../src/tensorflow/lite/kernels/kernel_util.cc ****                            int index) {
 636                             		.loc 1 145 39 is_stmt 1
 637                             	.LVL72:
 146:../src/tensorflow/lite/kernels/kernel_util.cc ****   const int tensor_index = ValidateTensorIndexing(
 638                             		.loc 1 146 3
 639                             		.loc 1 146 50 is_stmt 0
 640 0000 A8 AD                   		mov.L	12[r2], r5
 641 0002 FD 2A 52                		mov.L	[r5+], r2
 642                             	.LVL73:
  70:../src/tensorflow/lite/kernels/kernel_util.cc ****     const int tensor_index = tensor_indices[index];
 643                             		.loc 1 70 3 is_stmt 1
 644                             	.LBB598:
 645                             	.LBB599:
 646 0005 61 03                   		cmp	#0, r3
 647 0007 29 1D                   		blt	.L53
  70:../src/tensorflow/lite/kernels/kernel_util.cc ****     const int tensor_index = tensor_indices[index];
 648                             		.loc 1 70 18 is_stmt 0
 649 0009 47 32                   		cmp	r3, r2
 650 000b 2B 19                   		ble	.L53
 651                             	.LBB600:
  71:../src/tensorflow/lite/kernels/kernel_util.cc ****     if (tensor_index != kTfLiteOptionalTensor) {
 652                             		.loc 1 71 5 is_stmt 1
  71:../src/tensorflow/lite/kernels/kernel_util.cc ****     if (tensor_index != kTfLiteOptionalTensor) {
 653                             		.loc 1 71 15 is_stmt 0
 654 000d FE 63 52                		mov.L	[r3,r5], r2
 655                             	.LVL74:
  72:../src/tensorflow/lite/kernels/kernel_util.cc ****       return tensor_index;
 656                             		.loc 1 72 5 is_stmt 1
  73:../src/tensorflow/lite/kernels/kernel_util.cc ****     }
 657                             		.loc 1 73 7
 658                             	.LBE600:
 659                             	.LBE599:
 660                             	.LBE598:
 147:../src/tensorflow/lite/kernels/kernel_util.cc ****       context, index, node->temporaries->size, node->temporaries->data);
 148:../src/tensorflow/lite/kernels/kernel_util.cc ****   if (tensor_index < 0) {
 661                             		.loc 1 148 3
 662 0010 61 02                   		cmp	#0, r2
 663 0012 29 12                   		blt	.L53
 149:../src/tensorflow/lite/kernels/kernel_util.cc ****     return nullptr;
 150:../src/tensorflow/lite/kernels/kernel_util.cc ****   }
 151:../src/tensorflow/lite/kernels/kernel_util.cc ****   return GetTensorAtIndex(context, tensor_index);
 664                             		.loc 1 151 3
 665                             	.LVL75:
 666                             	.LBB601:
 667                             	.LBB602:
  37:../src/tensorflow/lite/kernels/kernel_util.cc ****     return &context->tensors[tensor_index];
 668                             		.loc 1 37 3
  37:../src/tensorflow/lite/kernels/kernel_util.cc ****     return &context->tensors[tensor_index];
 669                             		.loc 1 37 16 is_stmt 0
 670 0014 A8 95                   		mov.L	8[r1], r5
  37:../src/tensorflow/lite/kernels/kernel_util.cc ****     return &context->tensors[tensor_index];
 671                             		.loc 1 37 3
 672 0016 61 05                   		cmp	#0, r5
 673 0018 17                      		beq	.L50
  38:../src/tensorflow/lite/kernels/kernel_util.cc ****   } else {
 674                             		.loc 1 38 5 is_stmt 1
  38:../src/tensorflow/lite/kernels/kernel_util.cc ****   } else {
 675                             		.loc 1 38 42 is_stmt 0
 676 0019 FD C6 21                		shll	#6, r2, r1
 677                             	.LVL76:
 678 001c 4B 51                   		add	r5, r1
 679 001e 02                      		rts
 680                             	.LVL77:
 681                             	.L50:
 682                             	.LBB603:
 683                             	.LBB604:
  40:../src/tensorflow/lite/kernels/kernel_util.cc ****   }
 684                             		.loc 1 40 5 is_stmt 1
  40:../src/tensorflow/lite/kernels/kernel_util.cc ****   }
 685                             		.loc 1 40 30 is_stmt 0
 686 001f AD 15                   		mov.L	80[r1], r5
 687 0021 7F 15                   		jsr	r5
 688                             	.LVL78:
 689 0023 02                      		rts
 690                             	.LVL79:
 691                             	.L53:
 692                             	.LBE604:
 693                             	.LBE603:
 694                             	.LBE602:
 695                             	.LBE601:
 149:../src/tensorflow/lite/kernels/kernel_util.cc ****   }
 696                             		.loc 1 149 12
 697 0024 66 01                   		mov.L	#0, r1
 698                             	.LVL80:
 152:../src/tensorflow/lite/kernels/kernel_util.cc **** }
 699                             		.loc 1 152 1
 700 0026 02                      		rts
 701                             	.LFE3305:
 703                             		.section	.text._ZN6tflite16GetTemporarySafeEPK13TfLiteContextPK10TfLiteNodeiPP12TfLiteTensor,"ax",
 704                             		.global	__ZN6tflite16GetTemporarySafeEPK13TfLiteContextPK10TfLiteNodeiPP12TfLiteTensor
 706                             	__ZN6tflite16GetTemporarySafeEPK13TfLiteContextPK10TfLiteNodeiPP12TfLiteTensor:
 707                             	.LFB3306:
 153:../src/tensorflow/lite/kernels/kernel_util.cc **** 
 154:../src/tensorflow/lite/kernels/kernel_util.cc **** TfLiteStatus GetTemporarySafe(const TfLiteContext* context,
 155:../src/tensorflow/lite/kernels/kernel_util.cc ****                               const TfLiteNode* node, int index,
 156:../src/tensorflow/lite/kernels/kernel_util.cc ****                               TfLiteTensor** tensor) {
 708                             		.loc 1 156 54 is_stmt 1
 709                             	.LVL81:
 710 0000 71 00 F0                		add	#-16, r0
 711                             	.LCFI2:
 157:../src/tensorflow/lite/kernels/kernel_util.cc ****   int tensor_index;
 712                             		.loc 1 157 3
 158:../src/tensorflow/lite/kernels/kernel_util.cc ****   TF_LITE_ENSURE_OK(context, ValidateTensorIndexingSafe(
 713                             		.loc 1 158 3
 714                             	.LBB614:
 715                             		.loc 1 158 3
 716 0003 A8 AD                   		mov.L	12[r2], r5
 717                             	.LBE614:
 156:../src/tensorflow/lite/kernels/kernel_util.cc ****   int tensor_index;
 718                             		.loc 1 156 54 is_stmt 0
 719 0005 EF 1E                   		mov.L	r1, r14
 720                             	.LBB629:
 721                             		.loc 1 158 3
 722 0007 EC 52                   		mov.L	[r5], r2
 723                             	.LVL82:
 724                             	.LBB615:
 725                             	.LBB616:
  49:../src/tensorflow/lite/kernels/kernel_util.cc ****     TF_LITE_KERNEL_LOG(const_cast<TfLiteContext*>(context),
 726                             		.loc 1 49 3 is_stmt 1
 727 0009 61 03                   		cmp	#0, r3
 728 000b 29 23                   		blt	.L55
  49:../src/tensorflow/lite/kernels/kernel_util.cc ****     TF_LITE_KERNEL_LOG(const_cast<TfLiteContext*>(context),
 729                             		.loc 1 49 17 is_stmt 0
 730 000d 47 32                   		cmp	r3, r2
 731 000f 2B 1F                   		ble	.L55
  55:../src/tensorflow/lite/kernels/kernel_util.cc ****     TF_LITE_KERNEL_LOG(const_cast<TfLiteContext*>(context),
 732                             		.loc 1 55 3 is_stmt 1
  55:../src/tensorflow/lite/kernels/kernel_util.cc ****     TF_LITE_KERNEL_LOG(const_cast<TfLiteContext*>(context),
 733                             		.loc 1 55 27 is_stmt 0
 734 0011 FD C2 32                		shll	#2, r3, r2
 735                             	.LVL83:
 736 0014 4B 25                   		add	r2, r5
 737                             	.LVL84:
 738 0016 A8 5A                   		mov.L	4[r5], r2
  55:../src/tensorflow/lite/kernels/kernel_util.cc ****     TF_LITE_KERNEL_LOG(const_cast<TfLiteContext*>(context),
 739                             		.loc 1 55 3
 740 0018 75 02 FF                		cmp	#-1, r2
 741 001b 20 36                   		beq	.L58
 742                             	.LVL85:
 743                             	.LBE616:
 744                             	.LBE615:
 745                             		.loc 1 158 3 is_stmt 1
 746                             	.LBE629:
 159:../src/tensorflow/lite/kernels/kernel_util.cc ****                                  context, index, node->temporaries->size,
 160:../src/tensorflow/lite/kernels/kernel_util.cc ****                                  node->temporaries->data, &tensor_index));
 161:../src/tensorflow/lite/kernels/kernel_util.cc ****   *tensor = GetTensorAtIndex(context, tensor_index);
 747                             		.loc 1 161 3
 748                             	.LBB630:
 749                             	.LBB631:
  37:../src/tensorflow/lite/kernels/kernel_util.cc ****     return &context->tensors[tensor_index];
 750                             		.loc 1 37 3
  37:../src/tensorflow/lite/kernels/kernel_util.cc ****     return &context->tensors[tensor_index];
 751                             		.loc 1 37 16 is_stmt 0
 752 001d A8 95                   		mov.L	8[r1], r5
  37:../src/tensorflow/lite/kernels/kernel_util.cc ****     return &context->tensors[tensor_index];
 753                             		.loc 1 37 3
 754 001f 61 05                   		cmp	#0, r5
 755 0021 20 22                   		beq	.L64
  38:../src/tensorflow/lite/kernels/kernel_util.cc ****   } else {
 756                             		.loc 1 38 5 is_stmt 1
  38:../src/tensorflow/lite/kernels/kernel_util.cc ****   } else {
 757                             		.loc 1 38 42 is_stmt 0
 758 0023 FD C6 21                		shll	#6, r2, r1
 759                             	.LVL86:
 760 0026 4B 51                   		add	r5, r1
 761                             	.LVL87:
 762                             	.LBE631:
 763                             	.LBE630:
 764                             		.loc 1 161 11
 765 0028 E3 41                   		mov.L	r1, [r4]
 162:../src/tensorflow/lite/kernels/kernel_util.cc ****   return kTfLiteOk;
 766                             		.loc 1 162 3 is_stmt 1
 767                             		.loc 1 162 10 is_stmt 0
 768 002a 66 01                   		mov.L	#0, r1
 769                             	.LVL88:
 770                             		.balign 8,3,1
 771                             	.L54:
 163:../src/tensorflow/lite/kernels/kernel_util.cc **** }
 772                             		.loc 1 163 1
 773 002c 67 04                   		rtsd	#16
 774                             	.LVL89:
 775                             	.L55:
 776                             	.LBB635:
 777                             	.LBB625:
 778                             	.LBB621:
  50:../src/tensorflow/lite/kernels/kernel_util.cc ****                        "Invalid tensor index %d (not in [0, %d))\n", index,
 779                             		.loc 1 50 5 is_stmt 1
  50:../src/tensorflow/lite/kernels/kernel_util.cc ****                        "Invalid tensor index %d (not in [0, %d))\n", index,
 780                             		.loc 1 50 5
 781 002e ED E5 05                		mov.L	20[r14], r5
 782                             	.LVL90:
 783 0031 A0 82                   		mov.L	r2, 8[r0]
 784                             	.LVL91:
 785 0033 A0 0B                   		mov.L	r3, 4[r0]
 786 0035 EF E1                   		mov.L	r14, r1
 787                             	.LVL92:
 788 0037 F8 02 00 00 00 00       		mov.L	#.LC0, [r0]
 789 003d 7F 15                   		jsr	r5
 790                             	.LVL93:
  53:../src/tensorflow/lite/kernels/kernel_util.cc ****   }
 791                             		.loc 1 53 5
 792                             	.LBE621:
 793                             	.LBE625:
 158:../src/tensorflow/lite/kernels/kernel_util.cc ****                                  context, index, node->temporaries->size,
 794                             		.loc 1 158 3
 795                             	.LBB626:
 796                             	.LBB622:
  53:../src/tensorflow/lite/kernels/kernel_util.cc ****   }
 797                             		.loc 1 53 12 is_stmt 0
 798 003f 66 11                   		mov.L	#1, r1
 799                             	.LBE622:
 800                             	.LBE626:
 801                             	.LBE635:
 802                             		.loc 1 163 1
 803 0041 67 04                   		rtsd	#16
 804                             	.LVL94:
 805                             	.L64:
 806                             	.LBB636:
 807                             	.LBB634:
 808                             	.LBB632:
 809                             	.LBB633:
  40:../src/tensorflow/lite/kernels/kernel_util.cc ****   }
 810                             		.loc 1 40 5 is_stmt 1
  40:../src/tensorflow/lite/kernels/kernel_util.cc ****   }
 811                             		.loc 1 40 30 is_stmt 0
 812 0043 AD 15                   		mov.L	80[r1], r5
 813 0045 A0 8C                   		mov.L	r4, 12[r0]
 814 0047 7F 15                   		jsr	r5
 815                             	.LVL95:
 816 0049 A8 8C                   		mov.L	12[r0], r4
 817                             	.LVL96:
 818                             	.LBE633:
 819                             	.LBE632:
 820                             	.LBE634:
 821                             	.LBE636:
 161:../src/tensorflow/lite/kernels/kernel_util.cc ****   return kTfLiteOk;
 822                             		.loc 1 161 11
 823 004b E3 41                   		mov.L	r1, [r4]
 162:../src/tensorflow/lite/kernels/kernel_util.cc **** }
 824                             		.loc 1 162 3 is_stmt 1
 162:../src/tensorflow/lite/kernels/kernel_util.cc **** }
 825                             		.loc 1 162 10 is_stmt 0
 826 004d 66 01                   		mov.L	#0, r1
 827 004f 2E DD                   		bra	.L54
 828                             	.LVL97:
 829                             	.L58:
 830                             	.LBB637:
 831                             	.LBB627:
 832                             	.LBB623:
 833                             	.LBB617:
 834                             	.LBB618:
  56:../src/tensorflow/lite/kernels/kernel_util.cc ****                        "Tensor at index %d was optional but was expected\n",
 835                             		.loc 1 56 5 is_stmt 1
  56:../src/tensorflow/lite/kernels/kernel_util.cc ****                        "Tensor at index %d was optional but was expected\n",
 836                             		.loc 1 56 5
 837 0051 A9 1D                   		mov.L	20[r1], r5
 838 0053 A0 0B                   		mov.L	r3, 4[r0]
 839                             	.LVL98:
 840 0055 F8 02 2A 00 00 00       		mov.L	#.LC1, [r0]
 841 005b 7F 15                   		jsr	r5
 842                             	.LVL99:
  59:../src/tensorflow/lite/kernels/kernel_util.cc ****   }
 843                             		.loc 1 59 5
 844                             	.LBE618:
 845                             	.LBE617:
 846                             	.LBE623:
 847                             	.LBE627:
 158:../src/tensorflow/lite/kernels/kernel_util.cc ****                                  context, index, node->temporaries->size,
 848                             		.loc 1 158 3
 849                             	.LBB628:
 850                             	.LBB624:
 851                             	.LBB620:
 852                             	.LBB619:
  56:../src/tensorflow/lite/kernels/kernel_util.cc ****                        "Tensor at index %d was optional but was expected\n",
 853                             		.loc 1 56 5 is_stmt 0
 854 005d 66 11                   		mov.L	#1, r1
 855                             	.LBE619:
 856                             	.LBE620:
 857                             	.LBE624:
 858                             	.LBE628:
 859                             	.LBE637:
 860                             		.loc 1 163 1
 861 005f 67 04                   		rtsd	#16
 862                             	.LFE3306:
 864 0061 FD 70 40 00 00 00 80    		.section	.text._ZN6tflite16GetIntermediatesEP13TfLiteContextPK10TfLiteNodei,"ax",@progbits
 865                             		.global	__ZN6tflite16GetIntermediatesEP13TfLiteContextPK10TfLiteNodei
 867                             	__ZN6tflite16GetIntermediatesEP13TfLiteContextPK10TfLiteNodei:
 868                             	.LFB3307:
 164:../src/tensorflow/lite/kernels/kernel_util.cc **** 
 165:../src/tensorflow/lite/kernels/kernel_util.cc **** const TfLiteTensor* GetIntermediates(TfLiteContext* context,
 166:../src/tensorflow/lite/kernels/kernel_util.cc ****                                      const TfLiteNode* node, int index) {
 869                             		.loc 1 166 73 is_stmt 1
 870                             	.LVL100:
 167:../src/tensorflow/lite/kernels/kernel_util.cc ****   const int tensor_index = ValidateTensorIndexing(
 871                             		.loc 1 167 3
 872                             		.loc 1 167 50 is_stmt 0
 873 0000 A8 A5                   		mov.L	8[r2], r5
 874 0002 FD 2A 52                		mov.L	[r5+], r2
 875                             	.LVL101:
  70:../src/tensorflow/lite/kernels/kernel_util.cc ****     const int tensor_index = tensor_indices[index];
 876                             		.loc 1 70 3 is_stmt 1
 877                             	.LBB645:
 878                             	.LBB646:
 879 0005 61 03                   		cmp	#0, r3
 880 0007 29 1D                   		blt	.L70
  70:../src/tensorflow/lite/kernels/kernel_util.cc ****     const int tensor_index = tensor_indices[index];
 881                             		.loc 1 70 18 is_stmt 0
 882 0009 47 32                   		cmp	r3, r2
 883 000b 2B 19                   		ble	.L70
 884                             	.LBB647:
  71:../src/tensorflow/lite/kernels/kernel_util.cc ****     if (tensor_index != kTfLiteOptionalTensor) {
 885                             		.loc 1 71 5 is_stmt 1
  71:../src/tensorflow/lite/kernels/kernel_util.cc ****     if (tensor_index != kTfLiteOptionalTensor) {
 886                             		.loc 1 71 15 is_stmt 0
 887 000d FE 63 52                		mov.L	[r3,r5], r2
 888                             	.LVL102:
  72:../src/tensorflow/lite/kernels/kernel_util.cc ****       return tensor_index;
 889                             		.loc 1 72 5 is_stmt 1
  73:../src/tensorflow/lite/kernels/kernel_util.cc ****     }
 890                             		.loc 1 73 7
 891                             	.LBE647:
 892                             	.LBE646:
 893                             	.LBE645:
 168:../src/tensorflow/lite/kernels/kernel_util.cc ****       context, index, node->intermediates->size, node->intermediates->data);
 169:../src/tensorflow/lite/kernels/kernel_util.cc ****   if (tensor_index < 0) {
 894                             		.loc 1 169 3
 895 0010 61 02                   		cmp	#0, r2
 896 0012 29 12                   		blt	.L70
 170:../src/tensorflow/lite/kernels/kernel_util.cc ****     return nullptr;
 171:../src/tensorflow/lite/kernels/kernel_util.cc ****   }
 172:../src/tensorflow/lite/kernels/kernel_util.cc ****   return GetTensorAtIndex(context, tensor_index);
 897                             		.loc 1 172 3
 898                             	.LVL103:
 899                             	.LBB648:
 900                             	.LBB649:
  37:../src/tensorflow/lite/kernels/kernel_util.cc ****     return &context->tensors[tensor_index];
 901                             		.loc 1 37 3
  37:../src/tensorflow/lite/kernels/kernel_util.cc ****     return &context->tensors[tensor_index];
 902                             		.loc 1 37 16 is_stmt 0
 903 0014 A8 95                   		mov.L	8[r1], r5
  37:../src/tensorflow/lite/kernels/kernel_util.cc ****     return &context->tensors[tensor_index];
 904                             		.loc 1 37 3
 905 0016 61 05                   		cmp	#0, r5
 906 0018 17                      		beq	.L67
  38:../src/tensorflow/lite/kernels/kernel_util.cc ****   } else {
 907                             		.loc 1 38 5 is_stmt 1
  38:../src/tensorflow/lite/kernels/kernel_util.cc ****   } else {
 908                             		.loc 1 38 42 is_stmt 0
 909 0019 FD C6 21                		shll	#6, r2, r1
 910                             	.LVL104:
 911 001c 4B 51                   		add	r5, r1
 912 001e 02                      		rts
 913                             	.LVL105:
 914                             	.L67:
 915                             	.LBB650:
 916                             	.LBB651:
  40:../src/tensorflow/lite/kernels/kernel_util.cc ****   }
 917                             		.loc 1 40 5 is_stmt 1
  40:../src/tensorflow/lite/kernels/kernel_util.cc ****   }
 918                             		.loc 1 40 30 is_stmt 0
 919 001f AD 15                   		mov.L	80[r1], r5
 920 0021 7F 15                   		jsr	r5
 921                             	.LVL106:
 922 0023 02                      		rts
 923                             	.LVL107:
 924                             	.L70:
 925                             	.LBE651:
 926                             	.LBE650:
 927                             	.LBE649:
 928                             	.LBE648:
 170:../src/tensorflow/lite/kernels/kernel_util.cc ****   }
 929                             		.loc 1 170 12
 930 0024 66 01                   		mov.L	#0, r1
 931                             	.LVL108:
 173:../src/tensorflow/lite/kernels/kernel_util.cc **** }
 932                             		.loc 1 173 1
 933 0026 02                      		rts
 934                             	.LFE3307:
 936                             		.section	.text._ZN6tflite20GetIntermediatesSafeEPK13TfLiteContextPK10TfLiteNodeiPP12TfLiteTensor,"
 937                             		.global	__ZN6tflite20GetIntermediatesSafeEPK13TfLiteContextPK10TfLiteNodeiPP12TfLiteTensor
 939                             	__ZN6tflite20GetIntermediatesSafeEPK13TfLiteContextPK10TfLiteNodeiPP12TfLiteTensor:
 940                             	.LFB3308:
 174:../src/tensorflow/lite/kernels/kernel_util.cc **** 
 175:../src/tensorflow/lite/kernels/kernel_util.cc **** TfLiteStatus GetIntermediatesSafe(const TfLiteContext* context,
 176:../src/tensorflow/lite/kernels/kernel_util.cc ****                                   const TfLiteNode* node, int index,
 177:../src/tensorflow/lite/kernels/kernel_util.cc ****                                   TfLiteTensor** tensor) {
 941                             		.loc 1 177 58 is_stmt 1
 942                             	.LVL109:
 943 0000 71 00 F0                		add	#-16, r0
 944                             	.LCFI3:
 178:../src/tensorflow/lite/kernels/kernel_util.cc ****   int tensor_index;
 945                             		.loc 1 178 3
 179:../src/tensorflow/lite/kernels/kernel_util.cc ****   TF_LITE_ENSURE_OK(context, ValidateTensorIndexingSafe(
 946                             		.loc 1 179 3
 947                             	.LBB661:
 948                             		.loc 1 179 3
 949 0003 A8 A5                   		mov.L	8[r2], r5
 950                             	.LBE661:
 177:../src/tensorflow/lite/kernels/kernel_util.cc ****   int tensor_index;
 951                             		.loc 1 177 58 is_stmt 0
 952 0005 EF 1E                   		mov.L	r1, r14
 953                             	.LBB676:
 954                             		.loc 1 179 3
 955 0007 EC 52                   		mov.L	[r5], r2
 956                             	.LVL110:
 957                             	.LBB662:
 958                             	.LBB663:
  49:../src/tensorflow/lite/kernels/kernel_util.cc ****     TF_LITE_KERNEL_LOG(const_cast<TfLiteContext*>(context),
 959                             		.loc 1 49 3 is_stmt 1
 960 0009 61 03                   		cmp	#0, r3
 961 000b 29 23                   		blt	.L72
  49:../src/tensorflow/lite/kernels/kernel_util.cc ****     TF_LITE_KERNEL_LOG(const_cast<TfLiteContext*>(context),
 962                             		.loc 1 49 17 is_stmt 0
 963 000d 47 32                   		cmp	r3, r2
 964 000f 2B 1F                   		ble	.L72
  55:../src/tensorflow/lite/kernels/kernel_util.cc ****     TF_LITE_KERNEL_LOG(const_cast<TfLiteContext*>(context),
 965                             		.loc 1 55 3 is_stmt 1
  55:../src/tensorflow/lite/kernels/kernel_util.cc ****     TF_LITE_KERNEL_LOG(const_cast<TfLiteContext*>(context),
 966                             		.loc 1 55 27 is_stmt 0
 967 0011 FD C2 32                		shll	#2, r3, r2
 968                             	.LVL111:
 969 0014 4B 25                   		add	r2, r5
 970                             	.LVL112:
 971 0016 A8 5A                   		mov.L	4[r5], r2
  55:../src/tensorflow/lite/kernels/kernel_util.cc ****     TF_LITE_KERNEL_LOG(const_cast<TfLiteContext*>(context),
 972                             		.loc 1 55 3
 973 0018 75 02 FF                		cmp	#-1, r2
 974 001b 20 36                   		beq	.L75
 975                             	.LVL113:
 976                             	.LBE663:
 977                             	.LBE662:
 978                             		.loc 1 179 3 is_stmt 1
 979                             	.LBE676:
 180:../src/tensorflow/lite/kernels/kernel_util.cc ****                                  context, index, node->intermediates->size,
 181:../src/tensorflow/lite/kernels/kernel_util.cc ****                                  node->intermediates->data, &tensor_index));
 182:../src/tensorflow/lite/kernels/kernel_util.cc ****   *tensor = GetTensorAtIndex(context, tensor_index);
 980                             		.loc 1 182 3
 981                             	.LBB677:
 982                             	.LBB678:
  37:../src/tensorflow/lite/kernels/kernel_util.cc ****     return &context->tensors[tensor_index];
 983                             		.loc 1 37 3
  37:../src/tensorflow/lite/kernels/kernel_util.cc ****     return &context->tensors[tensor_index];
 984                             		.loc 1 37 16 is_stmt 0
 985 001d A8 95                   		mov.L	8[r1], r5
  37:../src/tensorflow/lite/kernels/kernel_util.cc ****     return &context->tensors[tensor_index];
 986                             		.loc 1 37 3
 987 001f 61 05                   		cmp	#0, r5
 988 0021 20 22                   		beq	.L81
  38:../src/tensorflow/lite/kernels/kernel_util.cc ****   } else {
 989                             		.loc 1 38 5 is_stmt 1
  38:../src/tensorflow/lite/kernels/kernel_util.cc ****   } else {
 990                             		.loc 1 38 42 is_stmt 0
 991 0023 FD C6 21                		shll	#6, r2, r1
 992                             	.LVL114:
 993 0026 4B 51                   		add	r5, r1
 994                             	.LVL115:
 995                             	.LBE678:
 996                             	.LBE677:
 997                             		.loc 1 182 11
 998 0028 E3 41                   		mov.L	r1, [r4]
 183:../src/tensorflow/lite/kernels/kernel_util.cc ****   return kTfLiteOk;
 999                             		.loc 1 183 3 is_stmt 1
 1000                             		.loc 1 183 10 is_stmt 0
 1001 002a 66 01                   		mov.L	#0, r1
 1002                             	.LVL116:
 1003                             		.balign 8,3,1
 1004                             	.L71:
 184:../src/tensorflow/lite/kernels/kernel_util.cc **** }
 1005                             		.loc 1 184 1
 1006 002c 67 04                   		rtsd	#16
 1007                             	.LVL117:
 1008                             	.L72:
 1009                             	.LBB682:
 1010                             	.LBB672:
 1011                             	.LBB668:
  50:../src/tensorflow/lite/kernels/kernel_util.cc ****                        "Invalid tensor index %d (not in [0, %d))\n", index,
 1012                             		.loc 1 50 5 is_stmt 1
  50:../src/tensorflow/lite/kernels/kernel_util.cc ****                        "Invalid tensor index %d (not in [0, %d))\n", index,
 1013                             		.loc 1 50 5
 1014 002e ED E5 05                		mov.L	20[r14], r5
 1015                             	.LVL118:
 1016 0031 A0 82                   		mov.L	r2, 8[r0]
 1017                             	.LVL119:
 1018 0033 A0 0B                   		mov.L	r3, 4[r0]
 1019 0035 EF E1                   		mov.L	r14, r1
 1020                             	.LVL120:
 1021 0037 F8 02 00 00 00 00       		mov.L	#.LC0, [r0]
 1022 003d 7F 15                   		jsr	r5
 1023                             	.LVL121:
  53:../src/tensorflow/lite/kernels/kernel_util.cc ****   }
 1024                             		.loc 1 53 5
 1025                             	.LBE668:
 1026                             	.LBE672:
 179:../src/tensorflow/lite/kernels/kernel_util.cc ****                                  context, index, node->intermediates->size,
 1027                             		.loc 1 179 3
 1028                             	.LBB673:
 1029                             	.LBB669:
  53:../src/tensorflow/lite/kernels/kernel_util.cc ****   }
 1030                             		.loc 1 53 12 is_stmt 0
 1031 003f 66 11                   		mov.L	#1, r1
 1032                             	.LBE669:
 1033                             	.LBE673:
 1034                             	.LBE682:
 1035                             		.loc 1 184 1
 1036 0041 67 04                   		rtsd	#16
 1037                             	.LVL122:
 1038                             	.L81:
 1039                             	.LBB683:
 1040                             	.LBB681:
 1041                             	.LBB679:
 1042                             	.LBB680:
  40:../src/tensorflow/lite/kernels/kernel_util.cc ****   }
 1043                             		.loc 1 40 5 is_stmt 1
  40:../src/tensorflow/lite/kernels/kernel_util.cc ****   }
 1044                             		.loc 1 40 30 is_stmt 0
 1045 0043 AD 15                   		mov.L	80[r1], r5
 1046 0045 A0 8C                   		mov.L	r4, 12[r0]
 1047 0047 7F 15                   		jsr	r5
 1048                             	.LVL123:
 1049 0049 A8 8C                   		mov.L	12[r0], r4
 1050                             	.LVL124:
 1051                             	.LBE680:
 1052                             	.LBE679:
 1053                             	.LBE681:
 1054                             	.LBE683:
 182:../src/tensorflow/lite/kernels/kernel_util.cc ****   return kTfLiteOk;
 1055                             		.loc 1 182 11
 1056 004b E3 41                   		mov.L	r1, [r4]
 183:../src/tensorflow/lite/kernels/kernel_util.cc **** }
 1057                             		.loc 1 183 3 is_stmt 1
 183:../src/tensorflow/lite/kernels/kernel_util.cc **** }
 1058                             		.loc 1 183 10 is_stmt 0
 1059 004d 66 01                   		mov.L	#0, r1
 1060 004f 2E DD                   		bra	.L71
 1061                             	.LVL125:
 1062                             	.L75:
 1063                             	.LBB684:
 1064                             	.LBB674:
 1065                             	.LBB670:
 1066                             	.LBB664:
 1067                             	.LBB665:
  56:../src/tensorflow/lite/kernels/kernel_util.cc ****                        "Tensor at index %d was optional but was expected\n",
 1068                             		.loc 1 56 5 is_stmt 1
  56:../src/tensorflow/lite/kernels/kernel_util.cc ****                        "Tensor at index %d was optional but was expected\n",
 1069                             		.loc 1 56 5
 1070 0051 A9 1D                   		mov.L	20[r1], r5
 1071 0053 A0 0B                   		mov.L	r3, 4[r0]
 1072                             	.LVL126:
 1073 0055 F8 02 2A 00 00 00       		mov.L	#.LC1, [r0]
 1074 005b 7F 15                   		jsr	r5
 1075                             	.LVL127:
  59:../src/tensorflow/lite/kernels/kernel_util.cc ****   }
 1076                             		.loc 1 59 5
 1077                             	.LBE665:
 1078                             	.LBE664:
 1079                             	.LBE670:
 1080                             	.LBE674:
 179:../src/tensorflow/lite/kernels/kernel_util.cc ****                                  context, index, node->intermediates->size,
 1081                             		.loc 1 179 3
 1082                             	.LBB675:
 1083                             	.LBB671:
 1084                             	.LBB667:
 1085                             	.LBB666:
  56:../src/tensorflow/lite/kernels/kernel_util.cc ****                        "Tensor at index %d was optional but was expected\n",
 1086                             		.loc 1 56 5 is_stmt 0
 1087 005d 66 11                   		mov.L	#1, r1
 1088                             	.LBE666:
 1089                             	.LBE667:
 1090                             	.LBE671:
 1091                             	.LBE675:
 1092                             	.LBE684:
 1093                             		.loc 1 184 1
 1094 005f 67 04                   		rtsd	#16
 1095                             	.LFE3308:
 1097 0061 FD 70 40 00 00 00 80    		.section	.text._ZN6tflite32GetQuantizedConvolutionMultiplerEP13TfLiteContextPK12TfLiteTensorS4_S4_
 1098                             		.global	__ZN6tflite32GetQuantizedConvolutionMultiplerEP13TfLiteContextPK12TfLiteTensorS4_S4_PS2_Pd
 1100                             	__ZN6tflite32GetQuantizedConvolutionMultiplerEP13TfLiteContextPK12TfLiteTensorS4_S4_PS2_Pd:
 1101                             	.LFB3311:
 185:../src/tensorflow/lite/kernels/kernel_util.cc **** #endif  // TF_LITE_STATIC_MEMORY
 186:../src/tensorflow/lite/kernels/kernel_util.cc **** 
 187:../src/tensorflow/lite/kernels/kernel_util.cc **** // Per-axis
 188:../src/tensorflow/lite/kernels/kernel_util.cc **** TfLiteStatus PopulateConvolutionQuantizationParams(
 189:../src/tensorflow/lite/kernels/kernel_util.cc ****     TfLiteContext* context, const TfLiteTensor* input,
 190:../src/tensorflow/lite/kernels/kernel_util.cc ****     const TfLiteTensor* filter, const TfLiteTensor* bias, TfLiteTensor* output,
 191:../src/tensorflow/lite/kernels/kernel_util.cc ****     const TfLiteFusedActivation& activation, int32_t* multiplier, int* shift,
 192:../src/tensorflow/lite/kernels/kernel_util.cc ****     int32_t* output_activation_min, int32_t* output_activation_max,
 193:../src/tensorflow/lite/kernels/kernel_util.cc ****     int32_t* per_channel_multiplier, int* per_channel_shift) {
 194:../src/tensorflow/lite/kernels/kernel_util.cc ****   const auto* affine_quantization =
 195:../src/tensorflow/lite/kernels/kernel_util.cc ****       reinterpret_cast<TfLiteAffineQuantization*>(filter->quantization.params);
 196:../src/tensorflow/lite/kernels/kernel_util.cc ****   return PopulateConvolutionQuantizationParams(
 197:../src/tensorflow/lite/kernels/kernel_util.cc ****       context, input, filter, bias, output, activation, multiplier, shift,
 198:../src/tensorflow/lite/kernels/kernel_util.cc ****       output_activation_min, output_activation_max, per_channel_multiplier,
 199:../src/tensorflow/lite/kernels/kernel_util.cc ****       per_channel_shift, affine_quantization->scale->size);
 200:../src/tensorflow/lite/kernels/kernel_util.cc **** }
 201:../src/tensorflow/lite/kernels/kernel_util.cc **** 
 202:../src/tensorflow/lite/kernels/kernel_util.cc **** // Per-axis & per-tensor
 203:../src/tensorflow/lite/kernels/kernel_util.cc **** TfLiteStatus PopulateConvolutionQuantizationParams(
 204:../src/tensorflow/lite/kernels/kernel_util.cc ****     TfLiteContext* context, const TfLiteTensor* input,
 205:../src/tensorflow/lite/kernels/kernel_util.cc ****     const TfLiteTensor* filter, const TfLiteTensor* bias, TfLiteTensor* output,
 206:../src/tensorflow/lite/kernels/kernel_util.cc ****     const TfLiteFusedActivation& activation, int32_t* multiplier, int* shift,
 207:../src/tensorflow/lite/kernels/kernel_util.cc ****     int32_t* output_activation_min, int32_t* output_activation_max,
 208:../src/tensorflow/lite/kernels/kernel_util.cc ****     int32_t* per_channel_multiplier, int* per_channel_shift, int num_channels) {
 209:../src/tensorflow/lite/kernels/kernel_util.cc ****   TF_LITE_ENSURE_EQ(context, input->quantization.type,
 210:../src/tensorflow/lite/kernels/kernel_util.cc ****                     kTfLiteAffineQuantization);
 211:../src/tensorflow/lite/kernels/kernel_util.cc ****   TF_LITE_ENSURE_EQ(context, filter->quantization.type,
 212:../src/tensorflow/lite/kernels/kernel_util.cc ****                     kTfLiteAffineQuantization);
 213:../src/tensorflow/lite/kernels/kernel_util.cc ****   // TODO(jianlijianli): Enable bias type check and bias scale == input scale
 214:../src/tensorflow/lite/kernels/kernel_util.cc ****   // * filter scale for each channel in affine quantization once bias
 215:../src/tensorflow/lite/kernels/kernel_util.cc ****   // quantization is properly populated.
 216:../src/tensorflow/lite/kernels/kernel_util.cc ****   // TF_LITE_ENSURE_EQ(context, bias->quantization.type,
 217:../src/tensorflow/lite/kernels/kernel_util.cc ****   // kTfLiteAffineQuantization);
 218:../src/tensorflow/lite/kernels/kernel_util.cc **** 
 219:../src/tensorflow/lite/kernels/kernel_util.cc ****   // Check data type.
 220:../src/tensorflow/lite/kernels/kernel_util.cc ****   const auto* affine_quantization =
 221:../src/tensorflow/lite/kernels/kernel_util.cc ****       reinterpret_cast<TfLiteAffineQuantization*>(filter->quantization.params);
 222:../src/tensorflow/lite/kernels/kernel_util.cc ****   TF_LITE_ENSURE(context, affine_quantization);
 223:../src/tensorflow/lite/kernels/kernel_util.cc ****   TF_LITE_ENSURE(context, affine_quantization->scale);
 224:../src/tensorflow/lite/kernels/kernel_util.cc ****   const bool is_per_channel = affine_quantization->scale->size > 1;
 225:../src/tensorflow/lite/kernels/kernel_util.cc ****   if (is_per_channel) {
 226:../src/tensorflow/lite/kernels/kernel_util.cc ****     //  Currently only Int8/Int16 is supported for per channel quantization.
 227:../src/tensorflow/lite/kernels/kernel_util.cc ****     TF_LITE_ENSURE(context,
 228:../src/tensorflow/lite/kernels/kernel_util.cc ****                    input->type == kTfLiteInt8 || input->type == kTfLiteInt16);
 229:../src/tensorflow/lite/kernels/kernel_util.cc ****     TF_LITE_ENSURE_EQ(context, filter->type, kTfLiteInt8);
 230:../src/tensorflow/lite/kernels/kernel_util.cc ****     TF_LITE_ENSURE_EQ(context, affine_quantization->scale->size, num_channels);
 231:../src/tensorflow/lite/kernels/kernel_util.cc ****     TF_LITE_ENSURE_EQ(
 232:../src/tensorflow/lite/kernels/kernel_util.cc ****         context, num_channels,
 233:../src/tensorflow/lite/kernels/kernel_util.cc ****         filter->dims->data[affine_quantization->quantized_dimension]);
 234:../src/tensorflow/lite/kernels/kernel_util.cc ****   }
 235:../src/tensorflow/lite/kernels/kernel_util.cc **** 
 236:../src/tensorflow/lite/kernels/kernel_util.cc ****   // Populate multiplier and shift using affine quantization.
 237:../src/tensorflow/lite/kernels/kernel_util.cc ****   const float input_scale = input->params.scale;
 238:../src/tensorflow/lite/kernels/kernel_util.cc ****   const float output_scale = output->params.scale;
 239:../src/tensorflow/lite/kernels/kernel_util.cc ****   const float* filter_scales = affine_quantization->scale->data;
 240:../src/tensorflow/lite/kernels/kernel_util.cc ****   for (int i = 0; i < num_channels; ++i) {
 241:../src/tensorflow/lite/kernels/kernel_util.cc ****     // If per-tensor quantization parameter is specified, broadcast it along the
 242:../src/tensorflow/lite/kernels/kernel_util.cc ****     // quantization dimension (channels_out).
 243:../src/tensorflow/lite/kernels/kernel_util.cc ****     const float scale = is_per_channel ? filter_scales[i] : filter_scales[0];
 244:../src/tensorflow/lite/kernels/kernel_util.cc ****     const double filter_scale = static_cast<double>(scale);
 245:../src/tensorflow/lite/kernels/kernel_util.cc ****     const double effective_output_scale = static_cast<double>(input_scale) *
 246:../src/tensorflow/lite/kernels/kernel_util.cc ****                                           filter_scale /
 247:../src/tensorflow/lite/kernels/kernel_util.cc ****                                           static_cast<double>(output_scale);
 248:../src/tensorflow/lite/kernels/kernel_util.cc ****     int32_t significand;
 249:../src/tensorflow/lite/kernels/kernel_util.cc ****     int channel_shift;
 250:../src/tensorflow/lite/kernels/kernel_util.cc ****     QuantizeMultiplier(effective_output_scale, &significand, &channel_shift);
 251:../src/tensorflow/lite/kernels/kernel_util.cc ****     per_channel_multiplier[i] = significand;
 252:../src/tensorflow/lite/kernels/kernel_util.cc ****     per_channel_shift[i] = channel_shift;
 253:../src/tensorflow/lite/kernels/kernel_util.cc ****   }
 254:../src/tensorflow/lite/kernels/kernel_util.cc **** 
 255:../src/tensorflow/lite/kernels/kernel_util.cc ****   // Populate scalar quantization parameters.
 256:../src/tensorflow/lite/kernels/kernel_util.cc ****   // This check on legacy quantization parameters is kept only for backward
 257:../src/tensorflow/lite/kernels/kernel_util.cc ****   // compatibility.
 258:../src/tensorflow/lite/kernels/kernel_util.cc ****   if (input->type == kTfLiteUInt8) {
 259:../src/tensorflow/lite/kernels/kernel_util.cc ****     // Check bias scale == input scale * filter scale.
 260:../src/tensorflow/lite/kernels/kernel_util.cc ****     double real_multiplier = 0.0;
 261:../src/tensorflow/lite/kernels/kernel_util.cc ****     TF_LITE_ENSURE_STATUS(GetQuantizedConvolutionMultipler(
 262:../src/tensorflow/lite/kernels/kernel_util.cc ****         context, input, filter, bias, output, &real_multiplier));
 263:../src/tensorflow/lite/kernels/kernel_util.cc ****     int exponent;
 264:../src/tensorflow/lite/kernels/kernel_util.cc **** 
 265:../src/tensorflow/lite/kernels/kernel_util.cc ****     // Populate quantization parameters with multiplier and shift.
 266:../src/tensorflow/lite/kernels/kernel_util.cc ****     QuantizeMultiplier(real_multiplier, multiplier, &exponent);
 267:../src/tensorflow/lite/kernels/kernel_util.cc ****     *shift = -exponent;
 268:../src/tensorflow/lite/kernels/kernel_util.cc ****   }
 269:../src/tensorflow/lite/kernels/kernel_util.cc ****   if (input->type == kTfLiteInt8 || input->type == kTfLiteUInt8 ||
 270:../src/tensorflow/lite/kernels/kernel_util.cc ****       input->type == kTfLiteInt16) {
 271:../src/tensorflow/lite/kernels/kernel_util.cc ****     TF_LITE_ENSURE_STATUS(CalculateActivationRangeQuantized(
 272:../src/tensorflow/lite/kernels/kernel_util.cc ****         context, activation, output, output_activation_min,
 273:../src/tensorflow/lite/kernels/kernel_util.cc ****         output_activation_max));
 274:../src/tensorflow/lite/kernels/kernel_util.cc ****   }
 275:../src/tensorflow/lite/kernels/kernel_util.cc ****   return kTfLiteOk;
 276:../src/tensorflow/lite/kernels/kernel_util.cc **** }
 277:../src/tensorflow/lite/kernels/kernel_util.cc **** 
 278:../src/tensorflow/lite/kernels/kernel_util.cc **** TfLiteStatus GetQuantizedConvolutionMultipler(TfLiteContext* context,
 279:../src/tensorflow/lite/kernels/kernel_util.cc ****                                               const TfLiteTensor* input,
 280:../src/tensorflow/lite/kernels/kernel_util.cc ****                                               const TfLiteTensor* filter,
 281:../src/tensorflow/lite/kernels/kernel_util.cc ****                                               const TfLiteTensor* bias,
 282:../src/tensorflow/lite/kernels/kernel_util.cc ****                                               TfLiteTensor* output,
 283:../src/tensorflow/lite/kernels/kernel_util.cc ****                                               double* multiplier) {
 1102                             		.loc 1 283 67 is_stmt 1
 1103                             	.LVL128:
 1104 0000 7E A7                   		push.l	r7
 1105                             	.LCFI4:
 1106 0002 71 00 E8                		add	#-24, r0
 1107                             	.LCFI5:
 284:../src/tensorflow/lite/kernels/kernel_util.cc ****   const double input_product_scale = static_cast<double>(input->params.scale) *
 1108                             		.loc 1 284 16 is_stmt 0
 1109 0005 A8 AD                   		mov.L	12[r2], r5
 1110 0007 A8 BA                   		mov.L	12[r3], r2
 1111                             	.LVL129:
 283:../src/tensorflow/lite/kernels/kernel_util.cc ****   const double input_product_scale = static_cast<double>(input->params.scale) *
 1112                             		.loc 1 283 67
 1113 0009 75 47 20                		mov.L	#32, r7
 1114 000c 4B 07                   		add	r0, r7
 1115 000e EF 1E                   		mov.L	r1, r14
 1116 0010 EC 73                   		mov.L	[r7], r3
 1117                             	.LVL130:
 1118                             		.loc 1 284 3 is_stmt 1
 283:../src/tensorflow/lite/kernels/kernel_util.cc ****   const double input_product_scale = static_cast<double>(input->params.scale) *
 1119                             		.loc 1 283 67 is_stmt 0
 1120 0012 A8 7F                   		mov.L	4[r7], r7
 1121                             		.loc 1 284 16
 1122 0014 FC 8F 25                		fmul	r2, r5
 1123                             	.LVL131:
 285:../src/tensorflow/lite/kernels/kernel_util.cc ****                                      static_cast<double>(filter->params.scale);
 286:../src/tensorflow/lite/kernels/kernel_util.cc ****   // TODO(ahentz): The following conditions must be guaranteed by the training
 287:../src/tensorflow/lite/kernels/kernel_util.cc ****   // pipeline.
 288:../src/tensorflow/lite/kernels/kernel_util.cc ****   if (bias) {
 1124                             		.loc 1 288 3 is_stmt 1
 1125                             	.LBB707:
 1126 0017 61 04                   		cmp	#0, r4
 1127 0019 20 1F                   		beq	.L83
 1128                             	.LBB708:
 289:../src/tensorflow/lite/kernels/kernel_util.cc ****     const double bias_scale = static_cast<double>(bias->params.scale);
 1129                             		.loc 1 289 5
 1130                             	.LVL132:
 290:../src/tensorflow/lite/kernels/kernel_util.cc ****     // Here we're making sure the input_product_scale & bias_scale are about the
 291:../src/tensorflow/lite/kernels/kernel_util.cc ****     // same. Since we have:
 292:../src/tensorflow/lite/kernels/kernel_util.cc ****     // (output - output_zp) * output_scale =
 293:../src/tensorflow/lite/kernels/kernel_util.cc ****     // input_product_scale * input_product + bias * bias_scale ---- (0)
 294:../src/tensorflow/lite/kernels/kernel_util.cc ****     //
 295:../src/tensorflow/lite/kernels/kernel_util.cc ****     // (0) equals:
 296:../src/tensorflow/lite/kernels/kernel_util.cc ****     // (input_product + bias) * input_product_scale ----- (1)
 297:../src/tensorflow/lite/kernels/kernel_util.cc ****     //           +
 298:../src/tensorflow/lite/kernels/kernel_util.cc ****     // bias * (bias_scale - input_product_scale)   ------ (2)
 299:../src/tensorflow/lite/kernels/kernel_util.cc ****     //
 300:../src/tensorflow/lite/kernels/kernel_util.cc ****     // For the real kernel computation, we're doing (1), so we really need to
 301:../src/tensorflow/lite/kernels/kernel_util.cc ****     // make sure (2) has minimum impact on the output, so:
 302:../src/tensorflow/lite/kernels/kernel_util.cc ****     // bias * (bias_scale - input_product_scale) / output_scale should be
 303:../src/tensorflow/lite/kernels/kernel_util.cc ****     // a small number for an integer.
 304:../src/tensorflow/lite/kernels/kernel_util.cc ****     // Since normally bias should be within a small range.
 305:../src/tensorflow/lite/kernels/kernel_util.cc ****     // We should expect (bias_scale - input_product_scale) / output_scale to
 306:../src/tensorflow/lite/kernels/kernel_util.cc ****     // be a small number like 0.02.
 307:../src/tensorflow/lite/kernels/kernel_util.cc ****     const double scale_diff = std::abs(input_product_scale - bias_scale);
 1131                             		.loc 1 307 5
 1132                             	.LBB709:
 1133                             	.LBB710:
 1134                             		.file 2 "c:\\gcc for renesas rx 8.3.0.202004-gnurx-elf\\rx-elf\\rx-elf\\rx-elf\\include\\c++\\8.3.
   1:c:\gcc for renesas rx 8.3.0.202004-gnurx-elf\rx-elf\rx-elf\rx-elf\include\c++\8.3.0.202004-gnurx\bits\std_abs.h **** // -*- C++ -*- C library enhancements header.
   2:c:\gcc for renesas rx 8.3.0.202004-gnurx-elf\rx-elf\rx-elf\rx-elf\include\c++\8.3.0.202004-gnurx\bits\std_abs.h **** 
   3:c:\gcc for renesas rx 8.3.0.202004-gnurx-elf\rx-elf\rx-elf\rx-elf\include\c++\8.3.0.202004-gnurx\bits\std_abs.h **** // Copyright (C) 2016-2018 Free Software Foundation, Inc.
   4:c:\gcc for renesas rx 8.3.0.202004-gnurx-elf\rx-elf\rx-elf\rx-elf\include\c++\8.3.0.202004-gnurx\bits\std_abs.h **** //
   5:c:\gcc for renesas rx 8.3.0.202004-gnurx-elf\rx-elf\rx-elf\rx-elf\include\c++\8.3.0.202004-gnurx\bits\std_abs.h **** // This file is part of the GNU ISO C++ Library.  This library is free
   6:c:\gcc for renesas rx 8.3.0.202004-gnurx-elf\rx-elf\rx-elf\rx-elf\include\c++\8.3.0.202004-gnurx\bits\std_abs.h **** // software; you can redistribute it and/or modify it under the
   7:c:\gcc for renesas rx 8.3.0.202004-gnurx-elf\rx-elf\rx-elf\rx-elf\include\c++\8.3.0.202004-gnurx\bits\std_abs.h **** // terms of the GNU General Public License as published by the
   8:c:\gcc for renesas rx 8.3.0.202004-gnurx-elf\rx-elf\rx-elf\rx-elf\include\c++\8.3.0.202004-gnurx\bits\std_abs.h **** // Free Software Foundation; either version 3, or (at your option)
   9:c:\gcc for renesas rx 8.3.0.202004-gnurx-elf\rx-elf\rx-elf\rx-elf\include\c++\8.3.0.202004-gnurx\bits\std_abs.h **** // any later version.
  10:c:\gcc for renesas rx 8.3.0.202004-gnurx-elf\rx-elf\rx-elf\rx-elf\include\c++\8.3.0.202004-gnurx\bits\std_abs.h **** 
  11:c:\gcc for renesas rx 8.3.0.202004-gnurx-elf\rx-elf\rx-elf\rx-elf\include\c++\8.3.0.202004-gnurx\bits\std_abs.h **** // This library is distributed in the hope that it will be useful,
  12:c:\gcc for renesas rx 8.3.0.202004-gnurx-elf\rx-elf\rx-elf\rx-elf\include\c++\8.3.0.202004-gnurx\bits\std_abs.h **** // but WITHOUT ANY WARRANTY; without even the implied warranty of
  13:c:\gcc for renesas rx 8.3.0.202004-gnurx-elf\rx-elf\rx-elf\rx-elf\include\c++\8.3.0.202004-gnurx\bits\std_abs.h **** // MERCHANTABILITY or FITNESS FOR A PARTICULAR PURPOSE.  See the
  14:c:\gcc for renesas rx 8.3.0.202004-gnurx-elf\rx-elf\rx-elf\rx-elf\include\c++\8.3.0.202004-gnurx\bits\std_abs.h **** // GNU General Public License for more details.
  15:c:\gcc for renesas rx 8.3.0.202004-gnurx-elf\rx-elf\rx-elf\rx-elf\include\c++\8.3.0.202004-gnurx\bits\std_abs.h **** 
  16:c:\gcc for renesas rx 8.3.0.202004-gnurx-elf\rx-elf\rx-elf\rx-elf\include\c++\8.3.0.202004-gnurx\bits\std_abs.h **** // Under Section 7 of GPL version 3, you are granted additional
  17:c:\gcc for renesas rx 8.3.0.202004-gnurx-elf\rx-elf\rx-elf\rx-elf\include\c++\8.3.0.202004-gnurx\bits\std_abs.h **** // permissions described in the GCC Runtime Library Exception, version
  18:c:\gcc for renesas rx 8.3.0.202004-gnurx-elf\rx-elf\rx-elf\rx-elf\include\c++\8.3.0.202004-gnurx\bits\std_abs.h **** // 3.1, as published by the Free Software Foundation.
  19:c:\gcc for renesas rx 8.3.0.202004-gnurx-elf\rx-elf\rx-elf\rx-elf\include\c++\8.3.0.202004-gnurx\bits\std_abs.h **** 
  20:c:\gcc for renesas rx 8.3.0.202004-gnurx-elf\rx-elf\rx-elf\rx-elf\include\c++\8.3.0.202004-gnurx\bits\std_abs.h **** // You should have received a copy of the GNU General Public License and
  21:c:\gcc for renesas rx 8.3.0.202004-gnurx-elf\rx-elf\rx-elf\rx-elf\include\c++\8.3.0.202004-gnurx\bits\std_abs.h **** // a copy of the GCC Runtime Library Exception along with this program;
  22:c:\gcc for renesas rx 8.3.0.202004-gnurx-elf\rx-elf\rx-elf\rx-elf\include\c++\8.3.0.202004-gnurx\bits\std_abs.h **** // see the files COPYING3 and COPYING.RUNTIME respectively.  If not, see
  23:c:\gcc for renesas rx 8.3.0.202004-gnurx-elf\rx-elf\rx-elf\rx-elf\include\c++\8.3.0.202004-gnurx\bits\std_abs.h **** // <http://www.gnu.org/licenses/>.
  24:c:\gcc for renesas rx 8.3.0.202004-gnurx-elf\rx-elf\rx-elf\rx-elf\include\c++\8.3.0.202004-gnurx\bits\std_abs.h **** 
  25:c:\gcc for renesas rx 8.3.0.202004-gnurx-elf\rx-elf\rx-elf\rx-elf\include\c++\8.3.0.202004-gnurx\bits\std_abs.h **** /** @file include/bits/std_abs.h
  26:c:\gcc for renesas rx 8.3.0.202004-gnurx-elf\rx-elf\rx-elf\rx-elf\include\c++\8.3.0.202004-gnurx\bits\std_abs.h ****  *  This is an internal header file, included by other library headers.
  27:c:\gcc for renesas rx 8.3.0.202004-gnurx-elf\rx-elf\rx-elf\rx-elf\include\c++\8.3.0.202004-gnurx\bits\std_abs.h ****  *  Do not attempt to use it directly. @headername{cmath, cstdlib}
  28:c:\gcc for renesas rx 8.3.0.202004-gnurx-elf\rx-elf\rx-elf\rx-elf\include\c++\8.3.0.202004-gnurx\bits\std_abs.h ****  */
  29:c:\gcc for renesas rx 8.3.0.202004-gnurx-elf\rx-elf\rx-elf\rx-elf\include\c++\8.3.0.202004-gnurx\bits\std_abs.h **** 
  30:c:\gcc for renesas rx 8.3.0.202004-gnurx-elf\rx-elf\rx-elf\rx-elf\include\c++\8.3.0.202004-gnurx\bits\std_abs.h **** #ifndef _GLIBCXX_BITS_STD_ABS_H
  31:c:\gcc for renesas rx 8.3.0.202004-gnurx-elf\rx-elf\rx-elf\rx-elf\include\c++\8.3.0.202004-gnurx\bits\std_abs.h **** #define _GLIBCXX_BITS_STD_ABS_H
  32:c:\gcc for renesas rx 8.3.0.202004-gnurx-elf\rx-elf\rx-elf\rx-elf\include\c++\8.3.0.202004-gnurx\bits\std_abs.h **** 
  33:c:\gcc for renesas rx 8.3.0.202004-gnurx-elf\rx-elf\rx-elf\rx-elf\include\c++\8.3.0.202004-gnurx\bits\std_abs.h **** #pragma GCC system_header
  34:c:\gcc for renesas rx 8.3.0.202004-gnurx-elf\rx-elf\rx-elf\rx-elf\include\c++\8.3.0.202004-gnurx\bits\std_abs.h **** 
  35:c:\gcc for renesas rx 8.3.0.202004-gnurx-elf\rx-elf\rx-elf\rx-elf\include\c++\8.3.0.202004-gnurx\bits\std_abs.h **** #include <bits/c++config.h>
  36:c:\gcc for renesas rx 8.3.0.202004-gnurx-elf\rx-elf\rx-elf\rx-elf\include\c++\8.3.0.202004-gnurx\bits\std_abs.h **** 
  37:c:\gcc for renesas rx 8.3.0.202004-gnurx-elf\rx-elf\rx-elf\rx-elf\include\c++\8.3.0.202004-gnurx\bits\std_abs.h **** #define _GLIBCXX_INCLUDE_NEXT_C_HEADERS
  38:c:\gcc for renesas rx 8.3.0.202004-gnurx-elf\rx-elf\rx-elf\rx-elf\include\c++\8.3.0.202004-gnurx\bits\std_abs.h **** #include_next <stdlib.h>
  39:c:\gcc for renesas rx 8.3.0.202004-gnurx-elf\rx-elf\rx-elf\rx-elf\include\c++\8.3.0.202004-gnurx\bits\std_abs.h **** #ifdef __CORRECT_ISO_CPP_MATH_H_PROTO
  40:c:\gcc for renesas rx 8.3.0.202004-gnurx-elf\rx-elf\rx-elf\rx-elf\include\c++\8.3.0.202004-gnurx\bits\std_abs.h **** # include_next <math.h>
  41:c:\gcc for renesas rx 8.3.0.202004-gnurx-elf\rx-elf\rx-elf\rx-elf\include\c++\8.3.0.202004-gnurx\bits\std_abs.h **** #endif
  42:c:\gcc for renesas rx 8.3.0.202004-gnurx-elf\rx-elf\rx-elf\rx-elf\include\c++\8.3.0.202004-gnurx\bits\std_abs.h **** #undef _GLIBCXX_INCLUDE_NEXT_C_HEADERS
  43:c:\gcc for renesas rx 8.3.0.202004-gnurx-elf\rx-elf\rx-elf\rx-elf\include\c++\8.3.0.202004-gnurx\bits\std_abs.h **** 
  44:c:\gcc for renesas rx 8.3.0.202004-gnurx-elf\rx-elf\rx-elf\rx-elf\include\c++\8.3.0.202004-gnurx\bits\std_abs.h **** #undef abs
  45:c:\gcc for renesas rx 8.3.0.202004-gnurx-elf\rx-elf\rx-elf\rx-elf\include\c++\8.3.0.202004-gnurx\bits\std_abs.h **** 
  46:c:\gcc for renesas rx 8.3.0.202004-gnurx-elf\rx-elf\rx-elf\rx-elf\include\c++\8.3.0.202004-gnurx\bits\std_abs.h **** extern "C++"
  47:c:\gcc for renesas rx 8.3.0.202004-gnurx-elf\rx-elf\rx-elf\rx-elf\include\c++\8.3.0.202004-gnurx\bits\std_abs.h **** {
  48:c:\gcc for renesas rx 8.3.0.202004-gnurx-elf\rx-elf\rx-elf\rx-elf\include\c++\8.3.0.202004-gnurx\bits\std_abs.h **** namespace std _GLIBCXX_VISIBILITY(default)
  49:c:\gcc for renesas rx 8.3.0.202004-gnurx-elf\rx-elf\rx-elf\rx-elf\include\c++\8.3.0.202004-gnurx\bits\std_abs.h **** {
  50:c:\gcc for renesas rx 8.3.0.202004-gnurx-elf\rx-elf\rx-elf\rx-elf\include\c++\8.3.0.202004-gnurx\bits\std_abs.h **** _GLIBCXX_BEGIN_NAMESPACE_VERSION
  51:c:\gcc for renesas rx 8.3.0.202004-gnurx-elf\rx-elf\rx-elf\rx-elf\include\c++\8.3.0.202004-gnurx\bits\std_abs.h **** 
  52:c:\gcc for renesas rx 8.3.0.202004-gnurx-elf\rx-elf\rx-elf\rx-elf\include\c++\8.3.0.202004-gnurx\bits\std_abs.h ****   using ::abs;
  53:c:\gcc for renesas rx 8.3.0.202004-gnurx-elf\rx-elf\rx-elf\rx-elf\include\c++\8.3.0.202004-gnurx\bits\std_abs.h **** 
  54:c:\gcc for renesas rx 8.3.0.202004-gnurx-elf\rx-elf\rx-elf\rx-elf\include\c++\8.3.0.202004-gnurx\bits\std_abs.h **** #ifndef __CORRECT_ISO_CPP_STDLIB_H_PROTO
  55:c:\gcc for renesas rx 8.3.0.202004-gnurx-elf\rx-elf\rx-elf\rx-elf\include\c++\8.3.0.202004-gnurx\bits\std_abs.h ****   inline long
  56:c:\gcc for renesas rx 8.3.0.202004-gnurx-elf\rx-elf\rx-elf\rx-elf\include\c++\8.3.0.202004-gnurx\bits\std_abs.h ****   abs(long __i) { return __builtin_labs(__i); }
  57:c:\gcc for renesas rx 8.3.0.202004-gnurx-elf\rx-elf\rx-elf\rx-elf\include\c++\8.3.0.202004-gnurx\bits\std_abs.h **** #endif
  58:c:\gcc for renesas rx 8.3.0.202004-gnurx-elf\rx-elf\rx-elf\rx-elf\include\c++\8.3.0.202004-gnurx\bits\std_abs.h **** 
  59:c:\gcc for renesas rx 8.3.0.202004-gnurx-elf\rx-elf\rx-elf\rx-elf\include\c++\8.3.0.202004-gnurx\bits\std_abs.h **** #ifdef _GLIBCXX_USE_LONG_LONG
  60:c:\gcc for renesas rx 8.3.0.202004-gnurx-elf\rx-elf\rx-elf\rx-elf\include\c++\8.3.0.202004-gnurx\bits\std_abs.h ****   inline long long
  61:c:\gcc for renesas rx 8.3.0.202004-gnurx-elf\rx-elf\rx-elf\rx-elf\include\c++\8.3.0.202004-gnurx\bits\std_abs.h ****   abs(long long __x) { return __builtin_llabs (__x); }
  62:c:\gcc for renesas rx 8.3.0.202004-gnurx-elf\rx-elf\rx-elf\rx-elf\include\c++\8.3.0.202004-gnurx\bits\std_abs.h **** #endif
  63:c:\gcc for renesas rx 8.3.0.202004-gnurx-elf\rx-elf\rx-elf\rx-elf\include\c++\8.3.0.202004-gnurx\bits\std_abs.h **** 
  64:c:\gcc for renesas rx 8.3.0.202004-gnurx-elf\rx-elf\rx-elf\rx-elf\include\c++\8.3.0.202004-gnurx\bits\std_abs.h **** // _GLIBCXX_RESOLVE_LIB_DEFECTS
  65:c:\gcc for renesas rx 8.3.0.202004-gnurx-elf\rx-elf\rx-elf\rx-elf\include\c++\8.3.0.202004-gnurx\bits\std_abs.h **** // 2192. Validity and return type of std::abs(0u) is unclear
  66:c:\gcc for renesas rx 8.3.0.202004-gnurx-elf\rx-elf\rx-elf\rx-elf\include\c++\8.3.0.202004-gnurx\bits\std_abs.h **** // 2294. <cstdlib> should declare abs(double)
  67:c:\gcc for renesas rx 8.3.0.202004-gnurx-elf\rx-elf\rx-elf\rx-elf\include\c++\8.3.0.202004-gnurx\bits\std_abs.h **** 
  68:c:\gcc for renesas rx 8.3.0.202004-gnurx-elf\rx-elf\rx-elf\rx-elf\include\c++\8.3.0.202004-gnurx\bits\std_abs.h **** #ifndef __CORRECT_ISO_CPP_MATH_H_PROTO
  69:c:\gcc for renesas rx 8.3.0.202004-gnurx-elf\rx-elf\rx-elf\rx-elf\include\c++\8.3.0.202004-gnurx\bits\std_abs.h ****   inline _GLIBCXX_CONSTEXPR double
  70:c:\gcc for renesas rx 8.3.0.202004-gnurx-elf\rx-elf\rx-elf\rx-elf\include\c++\8.3.0.202004-gnurx\bits\std_abs.h ****   abs(double __x)
  71:c:\gcc for renesas rx 8.3.0.202004-gnurx-elf\rx-elf\rx-elf\rx-elf\include\c++\8.3.0.202004-gnurx\bits\std_abs.h ****   { return __builtin_fabs(__x); }
 1135                             		.loc 2 71 5
 1136                             	.LBE710:
 1137                             	.LBE709:
 308:../src/tensorflow/lite/kernels/kernel_util.cc ****     const double output_scale = static_cast<double>(output->params.scale);
 1138                             		.loc 1 308 5
 309:../src/tensorflow/lite/kernels/kernel_util.cc **** 
 310:../src/tensorflow/lite/kernels/kernel_util.cc ****     TF_LITE_ENSURE(context, scale_diff / output_scale <= 0.02);
 1139                             		.loc 1 310 5
 1140                             		.loc 1 310 5
 307:../src/tensorflow/lite/kernels/kernel_util.cc ****     const double output_scale = static_cast<double>(output->params.scale);
 1141                             		.loc 1 307 39 is_stmt 0
 1142 001b A8 CC                   		mov.L	12[r4], r4
 1143                             	.LVL133:
 1144                             		.loc 1 310 5
 1145 001d ED 3F 03                		mov.L	12[r3], r15
 1146 0020 FB 22 0A D7 A3 3C       		mov.L	#0x3ca3d70a, r2
 307:../src/tensorflow/lite/kernels/kernel_util.cc ****     const double output_scale = static_cast<double>(output->params.scale);
 1147                             		.loc 1 307 39
 1148 0026 FF 84 45                		fsub	r4, r5, r4
 1149                             	.LBB712:
 1150                             	.LBB711:
 1151                             		.loc 2 71 30
 1152 0029 7B F4                   		bclr #31, r4
 1153                             	.LBE711:
 1154                             	.LBE712:
 1155                             		.loc 1 310 5
 1156 002b FC 93 F4                		fdiv	r15, r4
 1157 002e FC 87 42                		fcmp	r4, r2
 1158 0031 27 1C                   		bn	.L95
 1159                             	.LVL134:
 1160 0033 77 10 01 00 00          		.balign 8,3,6
 1161                             	.L83:
 1162                             	.LBE708:
 1163                             	.LBE707:
 311:../src/tensorflow/lite/kernels/kernel_util.cc ****   }
 312:../src/tensorflow/lite/kernels/kernel_util.cc ****   return GetQuantizedConvolutionMultipler(context, input, filter, output,
 1164                             		.loc 1 312 3 is_stmt 1
 1165                             	.LBB713:
 1166                             	.LBB714:
 313:../src/tensorflow/lite/kernels/kernel_util.cc ****                                           multiplier);
 314:../src/tensorflow/lite/kernels/kernel_util.cc **** }
 315:../src/tensorflow/lite/kernels/kernel_util.cc **** 
 316:../src/tensorflow/lite/kernels/kernel_util.cc **** TfLiteStatus GetQuantizedConvolutionMultipler(TfLiteContext* context,
 317:../src/tensorflow/lite/kernels/kernel_util.cc ****                                               const TfLiteTensor* input,
 318:../src/tensorflow/lite/kernels/kernel_util.cc ****                                               const TfLiteTensor* filter,
 319:../src/tensorflow/lite/kernels/kernel_util.cc ****                                               TfLiteTensor* output,
 320:../src/tensorflow/lite/kernels/kernel_util.cc ****                                               double* multiplier) {
 321:../src/tensorflow/lite/kernels/kernel_util.cc ****   const double input_product_scale =
 1167                             		.loc 1 321 3
 322:../src/tensorflow/lite/kernels/kernel_util.cc ****       static_cast<double>(input->params.scale * filter->params.scale);
 323:../src/tensorflow/lite/kernels/kernel_util.cc ****   TF_LITE_ENSURE(context, input_product_scale >= 0);
 1168                             		.loc 1 323 3
 1169                             		.loc 1 323 3
 1170 0038 FD 72 15 00 00 00 00    		fcmp	#0x0, r5
 1171 003f 27 30                   		bn	.L96
 324:../src/tensorflow/lite/kernels/kernel_util.cc ****   *multiplier = input_product_scale / static_cast<double>(output->params.scale);
 1172                             		.loc 1 324 3
 1173                             		.loc 1 324 37 is_stmt 0
 1174 0041 A8 BC                   		mov.L	12[r3], r4
 325:../src/tensorflow/lite/kernels/kernel_util.cc **** 
 326:../src/tensorflow/lite/kernels/kernel_util.cc ****   return kTfLiteOk;
 1175                             		.loc 1 326 10
 1176 0043 66 01                   		mov.L	#0, r1
 1177                             	.LVL135:
 324:../src/tensorflow/lite/kernels/kernel_util.cc ****   *multiplier = input_product_scale / static_cast<double>(output->params.scale);
 1178                             		.loc 1 324 37
 1179 0045 FC 93 45                		fdiv	r4, r5
 1180                             	.LVL136:
 324:../src/tensorflow/lite/kernels/kernel_util.cc ****   *multiplier = input_product_scale / static_cast<double>(output->params.scale);
 1181                             		.loc 1 324 15
 1182 0048 E3 75                   		mov.L	r5, [r7]
 1183                             		.loc 1 326 3 is_stmt 1
 1184                             	.LBE714:
 1185                             	.LBE713:
 314:../src/tensorflow/lite/kernels/kernel_util.cc **** 
 1186                             		.loc 1 314 1 is_stmt 0
 1187 004a 3F 77 07                		rtsd	#28, r7-r7
 1188                             	.LVL137:
 1189                             	.L95:
 1190                             	.LBB718:
 1191                             	.LBB719:
 1192                             	.LBB720:
 310:../src/tensorflow/lite/kernels/kernel_util.cc ****   }
 1193                             		.loc 1 310 5 is_stmt 1
 310:../src/tensorflow/lite/kernels/kernel_util.cc ****   }
 1194                             		.loc 1 310 5
 1195 004d A9 1F                   		mov.L	20[r1], r7
 1196                             	.LVL138:
 1197 004f F9 02 03 00 00 00 00    		mov.L	#.LC2, 12[r0]
 1198                             	.LVL139:
 1199 0056 F9 0A 02 36 01          		mov.L	#0x136, 8[r0]
 1200 005b F9 02 01 22 00 00 00    		mov.L	#.LC3, 4[r0]
 1201 0062 F8 02 50 00 00 00       		mov.L	#.LC4, [r0]
 1202 0068 7F 17                   		jsr	r7
 1203                             	.LVL140:
 310:../src/tensorflow/lite/kernels/kernel_util.cc ****   }
 1204                             		.loc 1 310 5
 1205 006a 66 11                   		mov.L	#1, r1
 1206                             	.LBE720:
 1207                             	.LBE719:
 1208                             	.LBE718:
 314:../src/tensorflow/lite/kernels/kernel_util.cc **** 
 1209                             		.loc 1 314 1 is_stmt 0
 1210 006c 3F 77 07                		rtsd	#28, r7-r7
 1211                             	.LVL141:
 1212                             	.L96:
 1213                             	.LBB721:
 1214                             	.LBB717:
 1215                             	.LBB715:
 1216                             	.LBB716:
 323:../src/tensorflow/lite/kernels/kernel_util.cc ****   *multiplier = input_product_scale / static_cast<double>(output->params.scale);
 1217                             		.loc 1 323 3 is_stmt 1
 323:../src/tensorflow/lite/kernels/kernel_util.cc ****   *multiplier = input_product_scale / static_cast<double>(output->params.scale);
 1218                             		.loc 1 323 3
 1219 006f ED E7 05                		mov.L	20[r14], r7
 1220                             	.LVL142:
 1221 0072 F9 02 03 67 00 00 00    		mov.L	#.LC5, 12[r0]
 1222                             	.LVL143:
 1223 0079 F9 0A 02 43 01          		mov.L	#0x143, 8[r0]
 1224 007e F9 02 01 22 00 00 00    		mov.L	#.LC3, 4[r0]
 1225 0085 EF E1                   		mov.L	r14, r1
 1226                             	.LVL144:
 1227 0087 F8 02 50 00 00 00       		mov.L	#.LC4, [r0]
 1228 008d 7F 17                   		jsr	r7
 1229                             	.LVL145:
 323:../src/tensorflow/lite/kernels/kernel_util.cc ****   *multiplier = input_product_scale / static_cast<double>(output->params.scale);
 1230                             		.loc 1 323 3
 1231 008f 66 11                   		mov.L	#1, r1
 1232                             	.LBE716:
 1233                             	.LBE715:
 1234                             	.LBE717:
 1235                             	.LBE721:
 314:../src/tensorflow/lite/kernels/kernel_util.cc **** 
 1236                             		.loc 1 314 1 is_stmt 0
 1237 0091 3F 77 07                		rtsd	#28, r7-r7
 1238                             	.LFE3311:
 1240 0094 76 10 01 00             		.section	.text._ZN6tflite32GetQuantizedConvolutionMultiplerEP13TfLiteContextPK12TfLiteTensorS4_PS2
 1241                             		.global	__ZN6tflite32GetQuantizedConvolutionMultiplerEP13TfLiteContextPK12TfLiteTensorS4_PS2_Pd
 1243                             	__ZN6tflite32GetQuantizedConvolutionMultiplerEP13TfLiteContextPK12TfLiteTensorS4_PS2_Pd:
 1244                             	.LFB3312:
 320:../src/tensorflow/lite/kernels/kernel_util.cc ****   const double input_product_scale =
 1245                             		.loc 1 320 67 is_stmt 1
 1246                             	.LVL146:
 1247 0000 71 00 EC                		add	#-20, r0
 1248                             	.LCFI6:
 321:../src/tensorflow/lite/kernels/kernel_util.cc ****       static_cast<double>(input->params.scale * filter->params.scale);
 1249                             		.loc 1 321 16 is_stmt 0
 1250 0003 A8 AD                   		mov.L	12[r2], r5
 1251 0005 A8 BB                   		mov.L	12[r3], r3
 1252                             	.LVL147:
 321:../src/tensorflow/lite/kernels/kernel_util.cc ****       static_cast<double>(input->params.scale * filter->params.scale);
 1253                             		.loc 1 321 3 is_stmt 1
 320:../src/tensorflow/lite/kernels/kernel_util.cc ****   const double input_product_scale =
 1254                             		.loc 1 320 67 is_stmt 0
 1255 0007 ED 0E 06                		mov.L	24[r0], r14
 321:../src/tensorflow/lite/kernels/kernel_util.cc ****       static_cast<double>(input->params.scale * filter->params.scale);
 1256                             		.loc 1 321 16
 1257 000a FC 8F 35                		fmul	r3, r5
 1258                             	.LVL148:
 323:../src/tensorflow/lite/kernels/kernel_util.cc ****   *multiplier = input_product_scale / static_cast<double>(output->params.scale);
 1259                             		.loc 1 323 3 is_stmt 1
 323:../src/tensorflow/lite/kernels/kernel_util.cc ****   *multiplier = input_product_scale / static_cast<double>(output->params.scale);
 1260                             		.loc 1 323 3
 1261 000d FD 72 15 00 00 00 00    		fcmp	#0x0, r5
 1262 0014 27 0D                   		bn	.L104
 324:../src/tensorflow/lite/kernels/kernel_util.cc **** 
 1263                             		.loc 1 324 3
 324:../src/tensorflow/lite/kernels/kernel_util.cc **** 
 1264                             		.loc 1 324 37 is_stmt 0
 1265 0016 A8 CC                   		mov.L	12[r4], r4
 1266                             	.LVL149:
 1267                             		.loc 1 326 10
 1268 0018 66 01                   		mov.L	#0, r1
 1269                             	.LVL150:
 324:../src/tensorflow/lite/kernels/kernel_util.cc **** 
 1270                             		.loc 1 324 37
 1271 001a FC 93 45                		fdiv	r4, r5
 1272                             	.LVL151:
 324:../src/tensorflow/lite/kernels/kernel_util.cc **** 
 1273                             		.loc 1 324 15
 1274 001d E3 E5                   		mov.L	r5, [r14]
 1275                             		.loc 1 326 3 is_stmt 1
 327:../src/tensorflow/lite/kernels/kernel_util.cc **** }
 1276                             		.loc 1 327 1 is_stmt 0
 1277 001f 67 05                   		rtsd	#20
 1278                             	.LVL152:
 1279                             	.L104:
 1280                             	.LBB724:
 1281                             	.LBB725:
 323:../src/tensorflow/lite/kernels/kernel_util.cc ****   *multiplier = input_product_scale / static_cast<double>(output->params.scale);
 1282                             		.loc 1 323 3 is_stmt 1
 323:../src/tensorflow/lite/kernels/kernel_util.cc ****   *multiplier = input_product_scale / static_cast<double>(output->params.scale);
 1283                             		.loc 1 323 3
 1284 0021 A9 1D                   		mov.L	20[r1], r5
 1285                             	.LVL153:
 1286 0023 F9 02 03 67 00 00 00    		mov.L	#.LC5, 12[r0]
 1287                             	.LVL154:
 1288 002a F9 0A 02 43 01          		mov.L	#0x143, 8[r0]
 1289 002f F9 02 01 22 00 00 00    		mov.L	#.LC3, 4[r0]
 1290 0036 F8 02 50 00 00 00       		mov.L	#.LC4, [r0]
 1291 003c 7F 15                   		jsr	r5
 1292                             	.LVL155:
 323:../src/tensorflow/lite/kernels/kernel_util.cc ****   *multiplier = input_product_scale / static_cast<double>(output->params.scale);
 1293                             		.loc 1 323 3
 1294 003e 66 11                   		mov.L	#1, r1
 1295                             	.LBE725:
 1296                             	.LBE724:
 1297                             		.loc 1 327 1 is_stmt 0
 1298 0040 67 05                   		rtsd	#20
 1299                             	.LFE3312:
 1301                             		.section	.text._ZN6tflite33CalculateActivationRangeQuantizedEP13TfLiteContext21TfLiteFusedActivati
 1302                             		.global	__ZN6tflite33CalculateActivationRangeQuantizedEP13TfLiteContext21TfLiteFusedActivationP12T
 1304                             	__ZN6tflite33CalculateActivationRangeQuantizedEP13TfLiteContext21TfLiteFusedActivationP12TfLiteTens
 1305                             	.LFB3315:
 328:../src/tensorflow/lite/kernels/kernel_util.cc **** 
 329:../src/tensorflow/lite/kernels/kernel_util.cc **** namespace {
 330:../src/tensorflow/lite/kernels/kernel_util.cc **** void CalculateActivationRangeQuantizedImpl(TfLiteFusedActivation activation,
 331:../src/tensorflow/lite/kernels/kernel_util.cc ****                                            int32_t qmin, int32_t qmax,
 332:../src/tensorflow/lite/kernels/kernel_util.cc ****                                            TfLiteTensor* output,
 333:../src/tensorflow/lite/kernels/kernel_util.cc ****                                            int32_t* act_min, int32_t* act_max) {
 334:../src/tensorflow/lite/kernels/kernel_util.cc ****   const auto scale = output->params.scale;
 335:../src/tensorflow/lite/kernels/kernel_util.cc ****   const auto zero_point = output->params.zero_point;
 336:../src/tensorflow/lite/kernels/kernel_util.cc **** 
 337:../src/tensorflow/lite/kernels/kernel_util.cc ****   auto quantize = [scale, zero_point](float f) {
 338:../src/tensorflow/lite/kernels/kernel_util.cc ****     return zero_point + static_cast<int32_t>(TfLiteRound(f / scale));
 339:../src/tensorflow/lite/kernels/kernel_util.cc ****   };
 340:../src/tensorflow/lite/kernels/kernel_util.cc **** 
 341:../src/tensorflow/lite/kernels/kernel_util.cc ****   if (activation == kTfLiteActRelu) {
 342:../src/tensorflow/lite/kernels/kernel_util.cc ****     *act_min = std::max(qmin, quantize(0.0));
 343:../src/tensorflow/lite/kernels/kernel_util.cc ****     *act_max = qmax;
 344:../src/tensorflow/lite/kernels/kernel_util.cc ****   } else if (activation == kTfLiteActRelu6) {
 345:../src/tensorflow/lite/kernels/kernel_util.cc ****     *act_min = std::max(qmin, quantize(0.0));
 346:../src/tensorflow/lite/kernels/kernel_util.cc ****     *act_max = std::min(qmax, quantize(6.0));
 347:../src/tensorflow/lite/kernels/kernel_util.cc ****   } else if (activation == kTfLiteActReluN1To1) {
 348:../src/tensorflow/lite/kernels/kernel_util.cc ****     *act_min = std::max(qmin, quantize(-1.0));
 349:../src/tensorflow/lite/kernels/kernel_util.cc ****     *act_max = std::min(qmax, quantize(1.0));
 350:../src/tensorflow/lite/kernels/kernel_util.cc ****   } else {
 351:../src/tensorflow/lite/kernels/kernel_util.cc ****     *act_min = qmin;
 352:../src/tensorflow/lite/kernels/kernel_util.cc ****     *act_max = qmax;
 353:../src/tensorflow/lite/kernels/kernel_util.cc ****   }
 354:../src/tensorflow/lite/kernels/kernel_util.cc **** }
 355:../src/tensorflow/lite/kernels/kernel_util.cc **** }  // namespace
 356:../src/tensorflow/lite/kernels/kernel_util.cc **** 
 357:../src/tensorflow/lite/kernels/kernel_util.cc **** TfLiteStatus CalculateActivationRangeQuantized(TfLiteContext* context,
 358:../src/tensorflow/lite/kernels/kernel_util.cc ****                                                TfLiteFusedActivation activation,
 359:../src/tensorflow/lite/kernels/kernel_util.cc ****                                                TfLiteTensor* output,
 360:../src/tensorflow/lite/kernels/kernel_util.cc ****                                                int32_t* act_min,
 361:../src/tensorflow/lite/kernels/kernel_util.cc ****                                                int32_t* act_max) {
 1306                             		.loc 1 361 66 is_stmt 1
 1307                             	.LVL156:
 1308 0000 6E 6C                   		pushm	r6-r12
 1309                             	.LCFI7:
 1310 0002 71 00 E8                		add	#-24, r0
 1311                             	.LCFI8:
 362:../src/tensorflow/lite/kernels/kernel_util.cc ****   int32_t qmin = 0;
 363:../src/tensorflow/lite/kernels/kernel_util.cc ****   int32_t qmax = 0;
 364:../src/tensorflow/lite/kernels/kernel_util.cc ****   if (output->type == kTfLiteUInt8) {
 1312                             		.loc 1 364 15 is_stmt 0
 1313 0005 EC 35                   		mov.L	[r3], r5
 362:../src/tensorflow/lite/kernels/kernel_util.cc ****   int32_t qmin = 0;
 1314                             		.loc 1 362 3 is_stmt 1
 1315                             	.LVL157:
 363:../src/tensorflow/lite/kernels/kernel_util.cc ****   if (output->type == kTfLiteUInt8) {
 1316                             		.loc 1 363 3
 1317                             		.loc 1 364 3
 361:../src/tensorflow/lite/kernels/kernel_util.cc ****   int32_t qmin = 0;
 1318                             		.loc 1 361 66 is_stmt 0
 1319 0007 AB 87                   		mov.L	56[r0], r7
 1320                             		.loc 1 364 3
 1321 0009 61 35                   		cmp	#3, r5
 1322 000b 20 7B                   		beq	.L112
 365:../src/tensorflow/lite/kernels/kernel_util.cc ****     qmin = std::numeric_limits<uint8_t>::min();
 366:../src/tensorflow/lite/kernels/kernel_util.cc ****     qmax = std::numeric_limits<uint8_t>::max();
 367:../src/tensorflow/lite/kernels/kernel_util.cc ****   } else if (output->type == kTfLiteInt8) {
 1323                             		.loc 1 367 10 is_stmt 1
 1324 000d 61 95                   		cmp	#9, r5
 1325 000f 20 4B                   		beq	.L113
 368:../src/tensorflow/lite/kernels/kernel_util.cc ****     qmin = std::numeric_limits<int8_t>::min();
 369:../src/tensorflow/lite/kernels/kernel_util.cc ****     qmax = std::numeric_limits<int8_t>::max();
 370:../src/tensorflow/lite/kernels/kernel_util.cc ****   } else if (output->type == kTfLiteInt16) {
 1326                             		.loc 1 370 10
 1327 0011 61 75                   		cmp	#7, r5
 1328 0013 21 25                   		bne	.L117
 371:../src/tensorflow/lite/kernels/kernel_util.cc ****     qmin = std::numeric_limits<int16_t>::min();
 372:../src/tensorflow/lite/kernels/kernel_util.cc ****     qmax = std::numeric_limits<int16_t>::max();
 1329                             		.loc 1 372 10 is_stmt 0
 1330 0015 FB BA FF 7F             		mov.L	#0x7fff, r11
 371:../src/tensorflow/lite/kernels/kernel_util.cc ****     qmin = std::numeric_limits<int16_t>::min();
 1331                             		.loc 1 371 10
 1332 0019 FB CA 00 80             		mov.L	#-32768, r12
 1333                             		.balign 8,3,1
 1334                             	.L106:
 1335                             	.LVL158:
 373:../src/tensorflow/lite/kernels/kernel_util.cc ****   } else {
 374:../src/tensorflow/lite/kernels/kernel_util.cc ****     TF_LITE_ENSURE(context, false);
 375:../src/tensorflow/lite/kernels/kernel_util.cc ****   }
 376:../src/tensorflow/lite/kernels/kernel_util.cc **** 
 377:../src/tensorflow/lite/kernels/kernel_util.cc ****   CalculateActivationRangeQuantizedImpl(activation, qmin, qmax, output, act_min,
 1336                             		.loc 1 377 3 is_stmt 1
 1337                             		.loc 1 377 40 is_stmt 0
 1338 001d A8 BE                   		mov.L	12[r3], r6
 1339 001f ED 3A 04                		mov.L	16[r3], r10
 1340                             	.LVL159:
 1341                             	.LBB765:
 1342                             	.LBB766:
 334:../src/tensorflow/lite/kernels/kernel_util.cc ****   const auto zero_point = output->params.zero_point;
 1343                             		.loc 1 334 3 is_stmt 1
 335:../src/tensorflow/lite/kernels/kernel_util.cc **** 
 1344                             		.loc 1 335 3
 337:../src/tensorflow/lite/kernels/kernel_util.cc ****     return zero_point + static_cast<int32_t>(TfLiteRound(f / scale));
 1345                             		.loc 1 337 3
 341:../src/tensorflow/lite/kernels/kernel_util.cc ****     *act_min = std::max(qmin, quantize(0.0));
 1346                             		.loc 1 341 3
 1347 0022 61 12                   		cmp	#1, r2
 1348 0024 20 45                   		beq	.L118
 1349                             		.balign 8,3,1
 1350                             	.L108:
 344:../src/tensorflow/lite/kernels/kernel_util.cc ****     *act_min = std::max(qmin, quantize(0.0));
 1351                             		.loc 1 344 10
 1352 0026 61 32                   		cmp	#3, r2
 1353 0028 20 65                   		beq	.L119
 347:../src/tensorflow/lite/kernels/kernel_util.cc ****     *act_min = std::max(qmin, quantize(-1.0));
 1354                             		.loc 1 347 10
 1355 002a 61 22                   		cmp	#2, r2
 1356 002c 3A 94 00                		beq	.L120
 351:../src/tensorflow/lite/kernels/kernel_util.cc ****     *act_max = qmax;
 1357                             		.loc 1 351 5
 351:../src/tensorflow/lite/kernels/kernel_util.cc ****     *act_max = qmax;
 1358                             		.loc 1 351 14 is_stmt 0
 1359 002f E3 4C                   		mov.L	r12, [r4]
 352:../src/tensorflow/lite/kernels/kernel_util.cc ****   }
 1360                             		.loc 1 352 5 is_stmt 1
 352:../src/tensorflow/lite/kernels/kernel_util.cc ****   }
 1361                             		.loc 1 352 14 is_stmt 0
 1362 0031 E3 7B                   		mov.L	r11, [r7]
 1363                             	.LVL160:
 1364                             	.LBE766:
 1365                             	.LBE765:
 378:../src/tensorflow/lite/kernels/kernel_util.cc ****                                         act_max);
 379:../src/tensorflow/lite/kernels/kernel_util.cc ****   return kTfLiteOk;
 1366                             		.loc 1 379 3 is_stmt 1
 1367                             		.loc 1 379 10 is_stmt 0
 1368 0033 66 01                   		mov.L	#0, r1
 1369                             	.LVL161:
 1370                             		.balign 8,3,2
 1371                             	.L105:
 380:../src/tensorflow/lite/kernels/kernel_util.cc **** }
 1372                             		.loc 1 380 1
 1373 0035 3F 6C 0D                		rtsd	#52, r6-r12
 1374                             	.LVL162:
 1375                             	.L117:
 1376                             	.LBB816:
 1377                             	.LBB817:
 374:../src/tensorflow/lite/kernels/kernel_util.cc ****   }
 1378                             		.loc 1 374 5 is_stmt 1
 374:../src/tensorflow/lite/kernels/kernel_util.cc ****   }
 1379                             		.loc 1 374 5
 374:../src/tensorflow/lite/kernels/kernel_util.cc ****   }
 1380                             		.loc 1 374 5
 374:../src/tensorflow/lite/kernels/kernel_util.cc ****   }
 1381                             		.loc 1 374 5
 1382 0038 A9 1F                   		mov.L	20[r1], r7
 1383                             	.LVL163:
 1384 003a F9 02 03 00 00 00 00    		mov.L	#.LC6, 12[r0]
 1385 0041 F9 0A 02 76 01          		mov.L	#0x176, 8[r0]
 1386 0046 F9 02 01 22 00 00 00    		mov.L	#.LC3, 4[r0]
 1387 004d F8 02 50 00 00 00       		mov.L	#.LC4, [r0]
 1388 0053 7F 17                   		jsr	r7
 1389                             	.LVL164:
 374:../src/tensorflow/lite/kernels/kernel_util.cc ****   }
 1390                             		.loc 1 374 5
 1391 0055 66 11                   		mov.L	#1, r1
 1392                             	.LBE817:
 1393                             	.LBE816:
 1394                             		.loc 1 380 1 is_stmt 0
 1395 0057 3F 6C 0D                		rtsd	#52, r6-r12
 1396                             	.LVL165:
 1397                             	.L113:
 369:../src/tensorflow/lite/kernels/kernel_util.cc ****   } else if (output->type == kTfLiteInt16) {
 1398                             		.loc 1 369 10
 1399 005a 75 4B 7F                		mov.L	#0x7f, r11
 368:../src/tensorflow/lite/kernels/kernel_util.cc ****     qmax = std::numeric_limits<int8_t>::max();
 1400                             		.loc 1 368 10
 1401 005d FB C6 80                		mov.L	#-128, r12
 1402                             	.LVL166:
 377:../src/tensorflow/lite/kernels/kernel_util.cc ****                                         act_max);
 1403                             		.loc 1 377 3 is_stmt 1
 377:../src/tensorflow/lite/kernels/kernel_util.cc ****                                         act_max);
 1404                             		.loc 1 377 40 is_stmt 0
 1405 0060 A8 BE                   		mov.L	12[r3], r6
 1406 0062 ED 3A 04                		mov.L	16[r3], r10
 1407                             	.LVL167:
 1408                             	.LBB818:
 1409                             	.LBB813:
 334:../src/tensorflow/lite/kernels/kernel_util.cc ****   const auto zero_point = output->params.zero_point;
 1410                             		.loc 1 334 3 is_stmt 1
 335:../src/tensorflow/lite/kernels/kernel_util.cc **** 
 1411                             		.loc 1 335 3
 337:../src/tensorflow/lite/kernels/kernel_util.cc ****     return zero_point + static_cast<int32_t>(TfLiteRound(f / scale));
 1412                             		.loc 1 337 3
 341:../src/tensorflow/lite/kernels/kernel_util.cc ****     *act_min = std::max(qmin, quantize(0.0));
 1413                             		.loc 1 341 3
 1414 0065 61 12                   		cmp	#1, r2
 1415 0067 21 BF                   		bne	.L108
 1416                             		.balign 8,3,5
 1417                             	.L118:
 342:../src/tensorflow/lite/kernels/kernel_util.cc ****     *act_max = qmax;
 1418                             		.loc 1 342 5
 1419                             	.LVL168:
 1420                             	.LBB767:
 1421                             	.LBB768:
 338:../src/tensorflow/lite/kernels/kernel_util.cc ****   };
 1422                             		.loc 1 338 5
 1423                             	.LBB769:
 1424                             	.LBB770:
 1425                             	.LBB771:
 1426                             		.file 3 "c:\\gcc for renesas rx 8.3.0.202004-gnurx-elf\\rx-elf\\rx-elf\\rx-elf\\include\\c++\\8.3.
   1:c:\gcc for renesas rx 8.3.0.202004-gnurx-elf\rx-elf\rx-elf\rx-elf\include\c++\8.3.0.202004-gnurx\cmath **** // -*- C++ -*- C forwarding header.
   2:c:\gcc for renesas rx 8.3.0.202004-gnurx-elf\rx-elf\rx-elf\rx-elf\include\c++\8.3.0.202004-gnurx\cmath **** 
   3:c:\gcc for renesas rx 8.3.0.202004-gnurx-elf\rx-elf\rx-elf\rx-elf\include\c++\8.3.0.202004-gnurx\cmath **** // Copyright (C) 1997-2018 Free Software Foundation, Inc.
   4:c:\gcc for renesas rx 8.3.0.202004-gnurx-elf\rx-elf\rx-elf\rx-elf\include\c++\8.3.0.202004-gnurx\cmath **** //
   5:c:\gcc for renesas rx 8.3.0.202004-gnurx-elf\rx-elf\rx-elf\rx-elf\include\c++\8.3.0.202004-gnurx\cmath **** // This file is part of the GNU ISO C++ Library.  This library is free
   6:c:\gcc for renesas rx 8.3.0.202004-gnurx-elf\rx-elf\rx-elf\rx-elf\include\c++\8.3.0.202004-gnurx\cmath **** // software; you can redistribute it and/or modify it under the
   7:c:\gcc for renesas rx 8.3.0.202004-gnurx-elf\rx-elf\rx-elf\rx-elf\include\c++\8.3.0.202004-gnurx\cmath **** // terms of the GNU General Public License as published by the
   8:c:\gcc for renesas rx 8.3.0.202004-gnurx-elf\rx-elf\rx-elf\rx-elf\include\c++\8.3.0.202004-gnurx\cmath **** // Free Software Foundation; either version 3, or (at your option)
   9:c:\gcc for renesas rx 8.3.0.202004-gnurx-elf\rx-elf\rx-elf\rx-elf\include\c++\8.3.0.202004-gnurx\cmath **** // any later version.
  10:c:\gcc for renesas rx 8.3.0.202004-gnurx-elf\rx-elf\rx-elf\rx-elf\include\c++\8.3.0.202004-gnurx\cmath **** 
  11:c:\gcc for renesas rx 8.3.0.202004-gnurx-elf\rx-elf\rx-elf\rx-elf\include\c++\8.3.0.202004-gnurx\cmath **** // This library is distributed in the hope that it will be useful,
  12:c:\gcc for renesas rx 8.3.0.202004-gnurx-elf\rx-elf\rx-elf\rx-elf\include\c++\8.3.0.202004-gnurx\cmath **** // but WITHOUT ANY WARRANTY; without even the implied warranty of
  13:c:\gcc for renesas rx 8.3.0.202004-gnurx-elf\rx-elf\rx-elf\rx-elf\include\c++\8.3.0.202004-gnurx\cmath **** // MERCHANTABILITY or FITNESS FOR A PARTICULAR PURPOSE.  See the
  14:c:\gcc for renesas rx 8.3.0.202004-gnurx-elf\rx-elf\rx-elf\rx-elf\include\c++\8.3.0.202004-gnurx\cmath **** // GNU General Public License for more details.
  15:c:\gcc for renesas rx 8.3.0.202004-gnurx-elf\rx-elf\rx-elf\rx-elf\include\c++\8.3.0.202004-gnurx\cmath **** 
  16:c:\gcc for renesas rx 8.3.0.202004-gnurx-elf\rx-elf\rx-elf\rx-elf\include\c++\8.3.0.202004-gnurx\cmath **** // Under Section 7 of GPL version 3, you are granted additional
  17:c:\gcc for renesas rx 8.3.0.202004-gnurx-elf\rx-elf\rx-elf\rx-elf\include\c++\8.3.0.202004-gnurx\cmath **** // permissions described in the GCC Runtime Library Exception, version
  18:c:\gcc for renesas rx 8.3.0.202004-gnurx-elf\rx-elf\rx-elf\rx-elf\include\c++\8.3.0.202004-gnurx\cmath **** // 3.1, as published by the Free Software Foundation.
  19:c:\gcc for renesas rx 8.3.0.202004-gnurx-elf\rx-elf\rx-elf\rx-elf\include\c++\8.3.0.202004-gnurx\cmath **** 
  20:c:\gcc for renesas rx 8.3.0.202004-gnurx-elf\rx-elf\rx-elf\rx-elf\include\c++\8.3.0.202004-gnurx\cmath **** // You should have received a copy of the GNU General Public License and
  21:c:\gcc for renesas rx 8.3.0.202004-gnurx-elf\rx-elf\rx-elf\rx-elf\include\c++\8.3.0.202004-gnurx\cmath **** // a copy of the GCC Runtime Library Exception along with this program;
  22:c:\gcc for renesas rx 8.3.0.202004-gnurx-elf\rx-elf\rx-elf\rx-elf\include\c++\8.3.0.202004-gnurx\cmath **** // see the files COPYING3 and COPYING.RUNTIME respectively.  If not, see
  23:c:\gcc for renesas rx 8.3.0.202004-gnurx-elf\rx-elf\rx-elf\rx-elf\include\c++\8.3.0.202004-gnurx\cmath **** // <http://www.gnu.org/licenses/>.
  24:c:\gcc for renesas rx 8.3.0.202004-gnurx-elf\rx-elf\rx-elf\rx-elf\include\c++\8.3.0.202004-gnurx\cmath **** 
  25:c:\gcc for renesas rx 8.3.0.202004-gnurx-elf\rx-elf\rx-elf\rx-elf\include\c++\8.3.0.202004-gnurx\cmath **** /** @file include/cmath
  26:c:\gcc for renesas rx 8.3.0.202004-gnurx-elf\rx-elf\rx-elf\rx-elf\include\c++\8.3.0.202004-gnurx\cmath ****  *  This is a Standard C++ Library file.  You should @c \#include this file
  27:c:\gcc for renesas rx 8.3.0.202004-gnurx-elf\rx-elf\rx-elf\rx-elf\include\c++\8.3.0.202004-gnurx\cmath ****  *  in your programs, rather than any of the @a *.h implementation files.
  28:c:\gcc for renesas rx 8.3.0.202004-gnurx-elf\rx-elf\rx-elf\rx-elf\include\c++\8.3.0.202004-gnurx\cmath ****  *
  29:c:\gcc for renesas rx 8.3.0.202004-gnurx-elf\rx-elf\rx-elf\rx-elf\include\c++\8.3.0.202004-gnurx\cmath ****  *  This is the C++ version of the Standard C Library header @c math.h,
  30:c:\gcc for renesas rx 8.3.0.202004-gnurx-elf\rx-elf\rx-elf\rx-elf\include\c++\8.3.0.202004-gnurx\cmath ****  *  and its contents are (mostly) the same as that header, but are all
  31:c:\gcc for renesas rx 8.3.0.202004-gnurx-elf\rx-elf\rx-elf\rx-elf\include\c++\8.3.0.202004-gnurx\cmath ****  *  contained in the namespace @c std (except for names which are defined
  32:c:\gcc for renesas rx 8.3.0.202004-gnurx-elf\rx-elf\rx-elf\rx-elf\include\c++\8.3.0.202004-gnurx\cmath ****  *  as macros in C).
  33:c:\gcc for renesas rx 8.3.0.202004-gnurx-elf\rx-elf\rx-elf\rx-elf\include\c++\8.3.0.202004-gnurx\cmath ****  */
  34:c:\gcc for renesas rx 8.3.0.202004-gnurx-elf\rx-elf\rx-elf\rx-elf\include\c++\8.3.0.202004-gnurx\cmath **** 
  35:c:\gcc for renesas rx 8.3.0.202004-gnurx-elf\rx-elf\rx-elf\rx-elf\include\c++\8.3.0.202004-gnurx\cmath **** //
  36:c:\gcc for renesas rx 8.3.0.202004-gnurx-elf\rx-elf\rx-elf\rx-elf\include\c++\8.3.0.202004-gnurx\cmath **** // ISO C++ 14882: 26.5  C library
  37:c:\gcc for renesas rx 8.3.0.202004-gnurx-elf\rx-elf\rx-elf\rx-elf\include\c++\8.3.0.202004-gnurx\cmath **** //
  38:c:\gcc for renesas rx 8.3.0.202004-gnurx-elf\rx-elf\rx-elf\rx-elf\include\c++\8.3.0.202004-gnurx\cmath **** 
  39:c:\gcc for renesas rx 8.3.0.202004-gnurx-elf\rx-elf\rx-elf\rx-elf\include\c++\8.3.0.202004-gnurx\cmath **** #pragma GCC system_header
  40:c:\gcc for renesas rx 8.3.0.202004-gnurx-elf\rx-elf\rx-elf\rx-elf\include\c++\8.3.0.202004-gnurx\cmath **** 
  41:c:\gcc for renesas rx 8.3.0.202004-gnurx-elf\rx-elf\rx-elf\rx-elf\include\c++\8.3.0.202004-gnurx\cmath **** #include <bits/c++config.h>
  42:c:\gcc for renesas rx 8.3.0.202004-gnurx-elf\rx-elf\rx-elf\rx-elf\include\c++\8.3.0.202004-gnurx\cmath **** #include <bits/cpp_type_traits.h>
  43:c:\gcc for renesas rx 8.3.0.202004-gnurx-elf\rx-elf\rx-elf\rx-elf\include\c++\8.3.0.202004-gnurx\cmath **** #include <ext/type_traits.h>
  44:c:\gcc for renesas rx 8.3.0.202004-gnurx-elf\rx-elf\rx-elf\rx-elf\include\c++\8.3.0.202004-gnurx\cmath **** #define _GLIBCXX_INCLUDE_NEXT_C_HEADERS
  45:c:\gcc for renesas rx 8.3.0.202004-gnurx-elf\rx-elf\rx-elf\rx-elf\include\c++\8.3.0.202004-gnurx\cmath **** #include_next <math.h>
  46:c:\gcc for renesas rx 8.3.0.202004-gnurx-elf\rx-elf\rx-elf\rx-elf\include\c++\8.3.0.202004-gnurx\cmath **** #undef _GLIBCXX_INCLUDE_NEXT_C_HEADERS
  47:c:\gcc for renesas rx 8.3.0.202004-gnurx-elf\rx-elf\rx-elf\rx-elf\include\c++\8.3.0.202004-gnurx\cmath **** #include <bits/std_abs.h>
  48:c:\gcc for renesas rx 8.3.0.202004-gnurx-elf\rx-elf\rx-elf\rx-elf\include\c++\8.3.0.202004-gnurx\cmath **** 
  49:c:\gcc for renesas rx 8.3.0.202004-gnurx-elf\rx-elf\rx-elf\rx-elf\include\c++\8.3.0.202004-gnurx\cmath **** #ifndef _GLIBCXX_CMATH
  50:c:\gcc for renesas rx 8.3.0.202004-gnurx-elf\rx-elf\rx-elf\rx-elf\include\c++\8.3.0.202004-gnurx\cmath **** #define _GLIBCXX_CMATH 1
  51:c:\gcc for renesas rx 8.3.0.202004-gnurx-elf\rx-elf\rx-elf\rx-elf\include\c++\8.3.0.202004-gnurx\cmath **** 
  52:c:\gcc for renesas rx 8.3.0.202004-gnurx-elf\rx-elf\rx-elf\rx-elf\include\c++\8.3.0.202004-gnurx\cmath **** // Get rid of those macros defined in <math.h> in lieu of real functions.
  53:c:\gcc for renesas rx 8.3.0.202004-gnurx-elf\rx-elf\rx-elf\rx-elf\include\c++\8.3.0.202004-gnurx\cmath **** #undef div
  54:c:\gcc for renesas rx 8.3.0.202004-gnurx-elf\rx-elf\rx-elf\rx-elf\include\c++\8.3.0.202004-gnurx\cmath **** #undef acos
  55:c:\gcc for renesas rx 8.3.0.202004-gnurx-elf\rx-elf\rx-elf\rx-elf\include\c++\8.3.0.202004-gnurx\cmath **** #undef asin
  56:c:\gcc for renesas rx 8.3.0.202004-gnurx-elf\rx-elf\rx-elf\rx-elf\include\c++\8.3.0.202004-gnurx\cmath **** #undef atan
  57:c:\gcc for renesas rx 8.3.0.202004-gnurx-elf\rx-elf\rx-elf\rx-elf\include\c++\8.3.0.202004-gnurx\cmath **** #undef atan2
  58:c:\gcc for renesas rx 8.3.0.202004-gnurx-elf\rx-elf\rx-elf\rx-elf\include\c++\8.3.0.202004-gnurx\cmath **** #undef ceil
  59:c:\gcc for renesas rx 8.3.0.202004-gnurx-elf\rx-elf\rx-elf\rx-elf\include\c++\8.3.0.202004-gnurx\cmath **** #undef cos
  60:c:\gcc for renesas rx 8.3.0.202004-gnurx-elf\rx-elf\rx-elf\rx-elf\include\c++\8.3.0.202004-gnurx\cmath **** #undef cosh
  61:c:\gcc for renesas rx 8.3.0.202004-gnurx-elf\rx-elf\rx-elf\rx-elf\include\c++\8.3.0.202004-gnurx\cmath **** #undef exp
  62:c:\gcc for renesas rx 8.3.0.202004-gnurx-elf\rx-elf\rx-elf\rx-elf\include\c++\8.3.0.202004-gnurx\cmath **** #undef fabs
  63:c:\gcc for renesas rx 8.3.0.202004-gnurx-elf\rx-elf\rx-elf\rx-elf\include\c++\8.3.0.202004-gnurx\cmath **** #undef floor
  64:c:\gcc for renesas rx 8.3.0.202004-gnurx-elf\rx-elf\rx-elf\rx-elf\include\c++\8.3.0.202004-gnurx\cmath **** #undef fmod
  65:c:\gcc for renesas rx 8.3.0.202004-gnurx-elf\rx-elf\rx-elf\rx-elf\include\c++\8.3.0.202004-gnurx\cmath **** #undef frexp
  66:c:\gcc for renesas rx 8.3.0.202004-gnurx-elf\rx-elf\rx-elf\rx-elf\include\c++\8.3.0.202004-gnurx\cmath **** #undef ldexp
  67:c:\gcc for renesas rx 8.3.0.202004-gnurx-elf\rx-elf\rx-elf\rx-elf\include\c++\8.3.0.202004-gnurx\cmath **** #undef log
  68:c:\gcc for renesas rx 8.3.0.202004-gnurx-elf\rx-elf\rx-elf\rx-elf\include\c++\8.3.0.202004-gnurx\cmath **** #undef log10
  69:c:\gcc for renesas rx 8.3.0.202004-gnurx-elf\rx-elf\rx-elf\rx-elf\include\c++\8.3.0.202004-gnurx\cmath **** #undef modf
  70:c:\gcc for renesas rx 8.3.0.202004-gnurx-elf\rx-elf\rx-elf\rx-elf\include\c++\8.3.0.202004-gnurx\cmath **** #undef pow
  71:c:\gcc for renesas rx 8.3.0.202004-gnurx-elf\rx-elf\rx-elf\rx-elf\include\c++\8.3.0.202004-gnurx\cmath **** #undef sin
  72:c:\gcc for renesas rx 8.3.0.202004-gnurx-elf\rx-elf\rx-elf\rx-elf\include\c++\8.3.0.202004-gnurx\cmath **** #undef sinh
  73:c:\gcc for renesas rx 8.3.0.202004-gnurx-elf\rx-elf\rx-elf\rx-elf\include\c++\8.3.0.202004-gnurx\cmath **** #undef sqrt
  74:c:\gcc for renesas rx 8.3.0.202004-gnurx-elf\rx-elf\rx-elf\rx-elf\include\c++\8.3.0.202004-gnurx\cmath **** #undef tan
  75:c:\gcc for renesas rx 8.3.0.202004-gnurx-elf\rx-elf\rx-elf\rx-elf\include\c++\8.3.0.202004-gnurx\cmath **** #undef tanh
  76:c:\gcc for renesas rx 8.3.0.202004-gnurx-elf\rx-elf\rx-elf\rx-elf\include\c++\8.3.0.202004-gnurx\cmath **** 
  77:c:\gcc for renesas rx 8.3.0.202004-gnurx-elf\rx-elf\rx-elf\rx-elf\include\c++\8.3.0.202004-gnurx\cmath **** extern "C++"
  78:c:\gcc for renesas rx 8.3.0.202004-gnurx-elf\rx-elf\rx-elf\rx-elf\include\c++\8.3.0.202004-gnurx\cmath **** {
  79:c:\gcc for renesas rx 8.3.0.202004-gnurx-elf\rx-elf\rx-elf\rx-elf\include\c++\8.3.0.202004-gnurx\cmath **** namespace std _GLIBCXX_VISIBILITY(default)
  80:c:\gcc for renesas rx 8.3.0.202004-gnurx-elf\rx-elf\rx-elf\rx-elf\include\c++\8.3.0.202004-gnurx\cmath **** {
  81:c:\gcc for renesas rx 8.3.0.202004-gnurx-elf\rx-elf\rx-elf\rx-elf\include\c++\8.3.0.202004-gnurx\cmath **** _GLIBCXX_BEGIN_NAMESPACE_VERSION
  82:c:\gcc for renesas rx 8.3.0.202004-gnurx-elf\rx-elf\rx-elf\rx-elf\include\c++\8.3.0.202004-gnurx\cmath **** 
  83:c:\gcc for renesas rx 8.3.0.202004-gnurx-elf\rx-elf\rx-elf\rx-elf\include\c++\8.3.0.202004-gnurx\cmath ****   using ::acos;
  84:c:\gcc for renesas rx 8.3.0.202004-gnurx-elf\rx-elf\rx-elf\rx-elf\include\c++\8.3.0.202004-gnurx\cmath **** 
  85:c:\gcc for renesas rx 8.3.0.202004-gnurx-elf\rx-elf\rx-elf\rx-elf\include\c++\8.3.0.202004-gnurx\cmath **** #ifndef __CORRECT_ISO_CPP_MATH_H_PROTO
  86:c:\gcc for renesas rx 8.3.0.202004-gnurx-elf\rx-elf\rx-elf\rx-elf\include\c++\8.3.0.202004-gnurx\cmath ****   inline _GLIBCXX_CONSTEXPR float
  87:c:\gcc for renesas rx 8.3.0.202004-gnurx-elf\rx-elf\rx-elf\rx-elf\include\c++\8.3.0.202004-gnurx\cmath ****   acos(float __x)
  88:c:\gcc for renesas rx 8.3.0.202004-gnurx-elf\rx-elf\rx-elf\rx-elf\include\c++\8.3.0.202004-gnurx\cmath ****   { return __builtin_acosf(__x); }
  89:c:\gcc for renesas rx 8.3.0.202004-gnurx-elf\rx-elf\rx-elf\rx-elf\include\c++\8.3.0.202004-gnurx\cmath **** 
  90:c:\gcc for renesas rx 8.3.0.202004-gnurx-elf\rx-elf\rx-elf\rx-elf\include\c++\8.3.0.202004-gnurx\cmath ****   inline _GLIBCXX_CONSTEXPR long double
  91:c:\gcc for renesas rx 8.3.0.202004-gnurx-elf\rx-elf\rx-elf\rx-elf\include\c++\8.3.0.202004-gnurx\cmath ****   acos(long double __x)
  92:c:\gcc for renesas rx 8.3.0.202004-gnurx-elf\rx-elf\rx-elf\rx-elf\include\c++\8.3.0.202004-gnurx\cmath ****   { return __builtin_acosl(__x); }
  93:c:\gcc for renesas rx 8.3.0.202004-gnurx-elf\rx-elf\rx-elf\rx-elf\include\c++\8.3.0.202004-gnurx\cmath **** #endif
  94:c:\gcc for renesas rx 8.3.0.202004-gnurx-elf\rx-elf\rx-elf\rx-elf\include\c++\8.3.0.202004-gnurx\cmath **** 
  95:c:\gcc for renesas rx 8.3.0.202004-gnurx-elf\rx-elf\rx-elf\rx-elf\include\c++\8.3.0.202004-gnurx\cmath ****   template<typename _Tp>
  96:c:\gcc for renesas rx 8.3.0.202004-gnurx-elf\rx-elf\rx-elf\rx-elf\include\c++\8.3.0.202004-gnurx\cmath ****     inline _GLIBCXX_CONSTEXPR
  97:c:\gcc for renesas rx 8.3.0.202004-gnurx-elf\rx-elf\rx-elf\rx-elf\include\c++\8.3.0.202004-gnurx\cmath ****     typename __gnu_cxx::__enable_if<__is_integer<_Tp>::__value, 
  98:c:\gcc for renesas rx 8.3.0.202004-gnurx-elf\rx-elf\rx-elf\rx-elf\include\c++\8.3.0.202004-gnurx\cmath ****                                     double>::__type
  99:c:\gcc for renesas rx 8.3.0.202004-gnurx-elf\rx-elf\rx-elf\rx-elf\include\c++\8.3.0.202004-gnurx\cmath ****     acos(_Tp __x)
 100:c:\gcc for renesas rx 8.3.0.202004-gnurx-elf\rx-elf\rx-elf\rx-elf\include\c++\8.3.0.202004-gnurx\cmath ****     { return __builtin_acos(__x); }
 101:c:\gcc for renesas rx 8.3.0.202004-gnurx-elf\rx-elf\rx-elf\rx-elf\include\c++\8.3.0.202004-gnurx\cmath **** 
 102:c:\gcc for renesas rx 8.3.0.202004-gnurx-elf\rx-elf\rx-elf\rx-elf\include\c++\8.3.0.202004-gnurx\cmath ****   using ::asin;
 103:c:\gcc for renesas rx 8.3.0.202004-gnurx-elf\rx-elf\rx-elf\rx-elf\include\c++\8.3.0.202004-gnurx\cmath **** 
 104:c:\gcc for renesas rx 8.3.0.202004-gnurx-elf\rx-elf\rx-elf\rx-elf\include\c++\8.3.0.202004-gnurx\cmath **** #ifndef __CORRECT_ISO_CPP_MATH_H_PROTO
 105:c:\gcc for renesas rx 8.3.0.202004-gnurx-elf\rx-elf\rx-elf\rx-elf\include\c++\8.3.0.202004-gnurx\cmath ****   inline _GLIBCXX_CONSTEXPR float
 106:c:\gcc for renesas rx 8.3.0.202004-gnurx-elf\rx-elf\rx-elf\rx-elf\include\c++\8.3.0.202004-gnurx\cmath ****   asin(float __x)
 107:c:\gcc for renesas rx 8.3.0.202004-gnurx-elf\rx-elf\rx-elf\rx-elf\include\c++\8.3.0.202004-gnurx\cmath ****   { return __builtin_asinf(__x); }
 108:c:\gcc for renesas rx 8.3.0.202004-gnurx-elf\rx-elf\rx-elf\rx-elf\include\c++\8.3.0.202004-gnurx\cmath **** 
 109:c:\gcc for renesas rx 8.3.0.202004-gnurx-elf\rx-elf\rx-elf\rx-elf\include\c++\8.3.0.202004-gnurx\cmath ****   inline _GLIBCXX_CONSTEXPR long double
 110:c:\gcc for renesas rx 8.3.0.202004-gnurx-elf\rx-elf\rx-elf\rx-elf\include\c++\8.3.0.202004-gnurx\cmath ****   asin(long double __x)
 111:c:\gcc for renesas rx 8.3.0.202004-gnurx-elf\rx-elf\rx-elf\rx-elf\include\c++\8.3.0.202004-gnurx\cmath ****   { return __builtin_asinl(__x); }
 112:c:\gcc for renesas rx 8.3.0.202004-gnurx-elf\rx-elf\rx-elf\rx-elf\include\c++\8.3.0.202004-gnurx\cmath **** #endif
 113:c:\gcc for renesas rx 8.3.0.202004-gnurx-elf\rx-elf\rx-elf\rx-elf\include\c++\8.3.0.202004-gnurx\cmath **** 
 114:c:\gcc for renesas rx 8.3.0.202004-gnurx-elf\rx-elf\rx-elf\rx-elf\include\c++\8.3.0.202004-gnurx\cmath ****   template<typename _Tp>
 115:c:\gcc for renesas rx 8.3.0.202004-gnurx-elf\rx-elf\rx-elf\rx-elf\include\c++\8.3.0.202004-gnurx\cmath ****     inline _GLIBCXX_CONSTEXPR
 116:c:\gcc for renesas rx 8.3.0.202004-gnurx-elf\rx-elf\rx-elf\rx-elf\include\c++\8.3.0.202004-gnurx\cmath ****     typename __gnu_cxx::__enable_if<__is_integer<_Tp>::__value,
 117:c:\gcc for renesas rx 8.3.0.202004-gnurx-elf\rx-elf\rx-elf\rx-elf\include\c++\8.3.0.202004-gnurx\cmath ****                                     double>::__type
 118:c:\gcc for renesas rx 8.3.0.202004-gnurx-elf\rx-elf\rx-elf\rx-elf\include\c++\8.3.0.202004-gnurx\cmath ****     asin(_Tp __x)
 119:c:\gcc for renesas rx 8.3.0.202004-gnurx-elf\rx-elf\rx-elf\rx-elf\include\c++\8.3.0.202004-gnurx\cmath ****     { return __builtin_asin(__x); }
 120:c:\gcc for renesas rx 8.3.0.202004-gnurx-elf\rx-elf\rx-elf\rx-elf\include\c++\8.3.0.202004-gnurx\cmath **** 
 121:c:\gcc for renesas rx 8.3.0.202004-gnurx-elf\rx-elf\rx-elf\rx-elf\include\c++\8.3.0.202004-gnurx\cmath ****   using ::atan;
 122:c:\gcc for renesas rx 8.3.0.202004-gnurx-elf\rx-elf\rx-elf\rx-elf\include\c++\8.3.0.202004-gnurx\cmath **** 
 123:c:\gcc for renesas rx 8.3.0.202004-gnurx-elf\rx-elf\rx-elf\rx-elf\include\c++\8.3.0.202004-gnurx\cmath **** #ifndef __CORRECT_ISO_CPP_MATH_H_PROTO
 124:c:\gcc for renesas rx 8.3.0.202004-gnurx-elf\rx-elf\rx-elf\rx-elf\include\c++\8.3.0.202004-gnurx\cmath ****   inline _GLIBCXX_CONSTEXPR float
 125:c:\gcc for renesas rx 8.3.0.202004-gnurx-elf\rx-elf\rx-elf\rx-elf\include\c++\8.3.0.202004-gnurx\cmath ****   atan(float __x)
 126:c:\gcc for renesas rx 8.3.0.202004-gnurx-elf\rx-elf\rx-elf\rx-elf\include\c++\8.3.0.202004-gnurx\cmath ****   { return __builtin_atanf(__x); }
 127:c:\gcc for renesas rx 8.3.0.202004-gnurx-elf\rx-elf\rx-elf\rx-elf\include\c++\8.3.0.202004-gnurx\cmath **** 
 128:c:\gcc for renesas rx 8.3.0.202004-gnurx-elf\rx-elf\rx-elf\rx-elf\include\c++\8.3.0.202004-gnurx\cmath ****   inline _GLIBCXX_CONSTEXPR long double
 129:c:\gcc for renesas rx 8.3.0.202004-gnurx-elf\rx-elf\rx-elf\rx-elf\include\c++\8.3.0.202004-gnurx\cmath ****   atan(long double __x)
 130:c:\gcc for renesas rx 8.3.0.202004-gnurx-elf\rx-elf\rx-elf\rx-elf\include\c++\8.3.0.202004-gnurx\cmath ****   { return __builtin_atanl(__x); }
 131:c:\gcc for renesas rx 8.3.0.202004-gnurx-elf\rx-elf\rx-elf\rx-elf\include\c++\8.3.0.202004-gnurx\cmath **** #endif
 132:c:\gcc for renesas rx 8.3.0.202004-gnurx-elf\rx-elf\rx-elf\rx-elf\include\c++\8.3.0.202004-gnurx\cmath **** 
 133:c:\gcc for renesas rx 8.3.0.202004-gnurx-elf\rx-elf\rx-elf\rx-elf\include\c++\8.3.0.202004-gnurx\cmath ****   template<typename _Tp>
 134:c:\gcc for renesas rx 8.3.0.202004-gnurx-elf\rx-elf\rx-elf\rx-elf\include\c++\8.3.0.202004-gnurx\cmath ****     inline _GLIBCXX_CONSTEXPR
 135:c:\gcc for renesas rx 8.3.0.202004-gnurx-elf\rx-elf\rx-elf\rx-elf\include\c++\8.3.0.202004-gnurx\cmath ****     typename __gnu_cxx::__enable_if<__is_integer<_Tp>::__value,
 136:c:\gcc for renesas rx 8.3.0.202004-gnurx-elf\rx-elf\rx-elf\rx-elf\include\c++\8.3.0.202004-gnurx\cmath ****                                     double>::__type
 137:c:\gcc for renesas rx 8.3.0.202004-gnurx-elf\rx-elf\rx-elf\rx-elf\include\c++\8.3.0.202004-gnurx\cmath ****     atan(_Tp __x)
 138:c:\gcc for renesas rx 8.3.0.202004-gnurx-elf\rx-elf\rx-elf\rx-elf\include\c++\8.3.0.202004-gnurx\cmath ****     { return __builtin_atan(__x); }
 139:c:\gcc for renesas rx 8.3.0.202004-gnurx-elf\rx-elf\rx-elf\rx-elf\include\c++\8.3.0.202004-gnurx\cmath **** 
 140:c:\gcc for renesas rx 8.3.0.202004-gnurx-elf\rx-elf\rx-elf\rx-elf\include\c++\8.3.0.202004-gnurx\cmath ****   using ::atan2;
 141:c:\gcc for renesas rx 8.3.0.202004-gnurx-elf\rx-elf\rx-elf\rx-elf\include\c++\8.3.0.202004-gnurx\cmath **** 
 142:c:\gcc for renesas rx 8.3.0.202004-gnurx-elf\rx-elf\rx-elf\rx-elf\include\c++\8.3.0.202004-gnurx\cmath **** #ifndef __CORRECT_ISO_CPP_MATH_H_PROTO
 143:c:\gcc for renesas rx 8.3.0.202004-gnurx-elf\rx-elf\rx-elf\rx-elf\include\c++\8.3.0.202004-gnurx\cmath ****   inline _GLIBCXX_CONSTEXPR float
 144:c:\gcc for renesas rx 8.3.0.202004-gnurx-elf\rx-elf\rx-elf\rx-elf\include\c++\8.3.0.202004-gnurx\cmath ****   atan2(float __y, float __x)
 145:c:\gcc for renesas rx 8.3.0.202004-gnurx-elf\rx-elf\rx-elf\rx-elf\include\c++\8.3.0.202004-gnurx\cmath ****   { return __builtin_atan2f(__y, __x); }
 146:c:\gcc for renesas rx 8.3.0.202004-gnurx-elf\rx-elf\rx-elf\rx-elf\include\c++\8.3.0.202004-gnurx\cmath **** 
 147:c:\gcc for renesas rx 8.3.0.202004-gnurx-elf\rx-elf\rx-elf\rx-elf\include\c++\8.3.0.202004-gnurx\cmath ****   inline _GLIBCXX_CONSTEXPR long double
 148:c:\gcc for renesas rx 8.3.0.202004-gnurx-elf\rx-elf\rx-elf\rx-elf\include\c++\8.3.0.202004-gnurx\cmath ****   atan2(long double __y, long double __x)
 149:c:\gcc for renesas rx 8.3.0.202004-gnurx-elf\rx-elf\rx-elf\rx-elf\include\c++\8.3.0.202004-gnurx\cmath ****   { return __builtin_atan2l(__y, __x); }
 150:c:\gcc for renesas rx 8.3.0.202004-gnurx-elf\rx-elf\rx-elf\rx-elf\include\c++\8.3.0.202004-gnurx\cmath **** #endif
 151:c:\gcc for renesas rx 8.3.0.202004-gnurx-elf\rx-elf\rx-elf\rx-elf\include\c++\8.3.0.202004-gnurx\cmath **** 
 152:c:\gcc for renesas rx 8.3.0.202004-gnurx-elf\rx-elf\rx-elf\rx-elf\include\c++\8.3.0.202004-gnurx\cmath ****   template<typename _Tp, typename _Up>
 153:c:\gcc for renesas rx 8.3.0.202004-gnurx-elf\rx-elf\rx-elf\rx-elf\include\c++\8.3.0.202004-gnurx\cmath ****     inline _GLIBCXX_CONSTEXPR
 154:c:\gcc for renesas rx 8.3.0.202004-gnurx-elf\rx-elf\rx-elf\rx-elf\include\c++\8.3.0.202004-gnurx\cmath ****     typename __gnu_cxx::__promote_2<_Tp, _Up>::__type
 155:c:\gcc for renesas rx 8.3.0.202004-gnurx-elf\rx-elf\rx-elf\rx-elf\include\c++\8.3.0.202004-gnurx\cmath ****     atan2(_Tp __y, _Up __x)
 156:c:\gcc for renesas rx 8.3.0.202004-gnurx-elf\rx-elf\rx-elf\rx-elf\include\c++\8.3.0.202004-gnurx\cmath ****     {
 157:c:\gcc for renesas rx 8.3.0.202004-gnurx-elf\rx-elf\rx-elf\rx-elf\include\c++\8.3.0.202004-gnurx\cmath ****       typedef typename __gnu_cxx::__promote_2<_Tp, _Up>::__type __type;
 158:c:\gcc for renesas rx 8.3.0.202004-gnurx-elf\rx-elf\rx-elf\rx-elf\include\c++\8.3.0.202004-gnurx\cmath ****       return atan2(__type(__y), __type(__x));
 159:c:\gcc for renesas rx 8.3.0.202004-gnurx-elf\rx-elf\rx-elf\rx-elf\include\c++\8.3.0.202004-gnurx\cmath ****     }
 160:c:\gcc for renesas rx 8.3.0.202004-gnurx-elf\rx-elf\rx-elf\rx-elf\include\c++\8.3.0.202004-gnurx\cmath **** 
 161:c:\gcc for renesas rx 8.3.0.202004-gnurx-elf\rx-elf\rx-elf\rx-elf\include\c++\8.3.0.202004-gnurx\cmath ****   using ::ceil;
 162:c:\gcc for renesas rx 8.3.0.202004-gnurx-elf\rx-elf\rx-elf\rx-elf\include\c++\8.3.0.202004-gnurx\cmath **** 
 163:c:\gcc for renesas rx 8.3.0.202004-gnurx-elf\rx-elf\rx-elf\rx-elf\include\c++\8.3.0.202004-gnurx\cmath **** #ifndef __CORRECT_ISO_CPP_MATH_H_PROTO
 164:c:\gcc for renesas rx 8.3.0.202004-gnurx-elf\rx-elf\rx-elf\rx-elf\include\c++\8.3.0.202004-gnurx\cmath ****   inline _GLIBCXX_CONSTEXPR float
 165:c:\gcc for renesas rx 8.3.0.202004-gnurx-elf\rx-elf\rx-elf\rx-elf\include\c++\8.3.0.202004-gnurx\cmath ****   ceil(float __x)
 166:c:\gcc for renesas rx 8.3.0.202004-gnurx-elf\rx-elf\rx-elf\rx-elf\include\c++\8.3.0.202004-gnurx\cmath ****   { return __builtin_ceilf(__x); }
 167:c:\gcc for renesas rx 8.3.0.202004-gnurx-elf\rx-elf\rx-elf\rx-elf\include\c++\8.3.0.202004-gnurx\cmath **** 
 168:c:\gcc for renesas rx 8.3.0.202004-gnurx-elf\rx-elf\rx-elf\rx-elf\include\c++\8.3.0.202004-gnurx\cmath ****   inline _GLIBCXX_CONSTEXPR long double
 169:c:\gcc for renesas rx 8.3.0.202004-gnurx-elf\rx-elf\rx-elf\rx-elf\include\c++\8.3.0.202004-gnurx\cmath ****   ceil(long double __x)
 170:c:\gcc for renesas rx 8.3.0.202004-gnurx-elf\rx-elf\rx-elf\rx-elf\include\c++\8.3.0.202004-gnurx\cmath ****   { return __builtin_ceill(__x); }
 171:c:\gcc for renesas rx 8.3.0.202004-gnurx-elf\rx-elf\rx-elf\rx-elf\include\c++\8.3.0.202004-gnurx\cmath **** #endif
 172:c:\gcc for renesas rx 8.3.0.202004-gnurx-elf\rx-elf\rx-elf\rx-elf\include\c++\8.3.0.202004-gnurx\cmath **** 
 173:c:\gcc for renesas rx 8.3.0.202004-gnurx-elf\rx-elf\rx-elf\rx-elf\include\c++\8.3.0.202004-gnurx\cmath ****   template<typename _Tp>
 174:c:\gcc for renesas rx 8.3.0.202004-gnurx-elf\rx-elf\rx-elf\rx-elf\include\c++\8.3.0.202004-gnurx\cmath ****     inline _GLIBCXX_CONSTEXPR
 175:c:\gcc for renesas rx 8.3.0.202004-gnurx-elf\rx-elf\rx-elf\rx-elf\include\c++\8.3.0.202004-gnurx\cmath ****     typename __gnu_cxx::__enable_if<__is_integer<_Tp>::__value, 
 176:c:\gcc for renesas rx 8.3.0.202004-gnurx-elf\rx-elf\rx-elf\rx-elf\include\c++\8.3.0.202004-gnurx\cmath ****                                     double>::__type
 177:c:\gcc for renesas rx 8.3.0.202004-gnurx-elf\rx-elf\rx-elf\rx-elf\include\c++\8.3.0.202004-gnurx\cmath ****     ceil(_Tp __x)
 178:c:\gcc for renesas rx 8.3.0.202004-gnurx-elf\rx-elf\rx-elf\rx-elf\include\c++\8.3.0.202004-gnurx\cmath ****     { return __builtin_ceil(__x); }
 179:c:\gcc for renesas rx 8.3.0.202004-gnurx-elf\rx-elf\rx-elf\rx-elf\include\c++\8.3.0.202004-gnurx\cmath **** 
 180:c:\gcc for renesas rx 8.3.0.202004-gnurx-elf\rx-elf\rx-elf\rx-elf\include\c++\8.3.0.202004-gnurx\cmath ****   using ::cos;
 181:c:\gcc for renesas rx 8.3.0.202004-gnurx-elf\rx-elf\rx-elf\rx-elf\include\c++\8.3.0.202004-gnurx\cmath **** 
 182:c:\gcc for renesas rx 8.3.0.202004-gnurx-elf\rx-elf\rx-elf\rx-elf\include\c++\8.3.0.202004-gnurx\cmath **** #ifndef __CORRECT_ISO_CPP_MATH_H_PROTO
 183:c:\gcc for renesas rx 8.3.0.202004-gnurx-elf\rx-elf\rx-elf\rx-elf\include\c++\8.3.0.202004-gnurx\cmath ****   inline _GLIBCXX_CONSTEXPR float
 184:c:\gcc for renesas rx 8.3.0.202004-gnurx-elf\rx-elf\rx-elf\rx-elf\include\c++\8.3.0.202004-gnurx\cmath ****   cos(float __x)
 185:c:\gcc for renesas rx 8.3.0.202004-gnurx-elf\rx-elf\rx-elf\rx-elf\include\c++\8.3.0.202004-gnurx\cmath ****   { return __builtin_cosf(__x); }
 186:c:\gcc for renesas rx 8.3.0.202004-gnurx-elf\rx-elf\rx-elf\rx-elf\include\c++\8.3.0.202004-gnurx\cmath **** 
 187:c:\gcc for renesas rx 8.3.0.202004-gnurx-elf\rx-elf\rx-elf\rx-elf\include\c++\8.3.0.202004-gnurx\cmath ****   inline _GLIBCXX_CONSTEXPR long double
 188:c:\gcc for renesas rx 8.3.0.202004-gnurx-elf\rx-elf\rx-elf\rx-elf\include\c++\8.3.0.202004-gnurx\cmath ****   cos(long double __x)
 189:c:\gcc for renesas rx 8.3.0.202004-gnurx-elf\rx-elf\rx-elf\rx-elf\include\c++\8.3.0.202004-gnurx\cmath ****   { return __builtin_cosl(__x); }
 190:c:\gcc for renesas rx 8.3.0.202004-gnurx-elf\rx-elf\rx-elf\rx-elf\include\c++\8.3.0.202004-gnurx\cmath **** #endif
 191:c:\gcc for renesas rx 8.3.0.202004-gnurx-elf\rx-elf\rx-elf\rx-elf\include\c++\8.3.0.202004-gnurx\cmath **** 
 192:c:\gcc for renesas rx 8.3.0.202004-gnurx-elf\rx-elf\rx-elf\rx-elf\include\c++\8.3.0.202004-gnurx\cmath ****   template<typename _Tp>
 193:c:\gcc for renesas rx 8.3.0.202004-gnurx-elf\rx-elf\rx-elf\rx-elf\include\c++\8.3.0.202004-gnurx\cmath ****     inline _GLIBCXX_CONSTEXPR
 194:c:\gcc for renesas rx 8.3.0.202004-gnurx-elf\rx-elf\rx-elf\rx-elf\include\c++\8.3.0.202004-gnurx\cmath ****     typename __gnu_cxx::__enable_if<__is_integer<_Tp>::__value,
 195:c:\gcc for renesas rx 8.3.0.202004-gnurx-elf\rx-elf\rx-elf\rx-elf\include\c++\8.3.0.202004-gnurx\cmath ****                                     double>::__type
 196:c:\gcc for renesas rx 8.3.0.202004-gnurx-elf\rx-elf\rx-elf\rx-elf\include\c++\8.3.0.202004-gnurx\cmath ****     cos(_Tp __x)
 197:c:\gcc for renesas rx 8.3.0.202004-gnurx-elf\rx-elf\rx-elf\rx-elf\include\c++\8.3.0.202004-gnurx\cmath ****     { return __builtin_cos(__x); }
 198:c:\gcc for renesas rx 8.3.0.202004-gnurx-elf\rx-elf\rx-elf\rx-elf\include\c++\8.3.0.202004-gnurx\cmath **** 
 199:c:\gcc for renesas rx 8.3.0.202004-gnurx-elf\rx-elf\rx-elf\rx-elf\include\c++\8.3.0.202004-gnurx\cmath ****   using ::cosh;
 200:c:\gcc for renesas rx 8.3.0.202004-gnurx-elf\rx-elf\rx-elf\rx-elf\include\c++\8.3.0.202004-gnurx\cmath **** 
 201:c:\gcc for renesas rx 8.3.0.202004-gnurx-elf\rx-elf\rx-elf\rx-elf\include\c++\8.3.0.202004-gnurx\cmath **** #ifndef __CORRECT_ISO_CPP_MATH_H_PROTO
 202:c:\gcc for renesas rx 8.3.0.202004-gnurx-elf\rx-elf\rx-elf\rx-elf\include\c++\8.3.0.202004-gnurx\cmath ****   inline _GLIBCXX_CONSTEXPR float
 203:c:\gcc for renesas rx 8.3.0.202004-gnurx-elf\rx-elf\rx-elf\rx-elf\include\c++\8.3.0.202004-gnurx\cmath ****   cosh(float __x)
 204:c:\gcc for renesas rx 8.3.0.202004-gnurx-elf\rx-elf\rx-elf\rx-elf\include\c++\8.3.0.202004-gnurx\cmath ****   { return __builtin_coshf(__x); }
 205:c:\gcc for renesas rx 8.3.0.202004-gnurx-elf\rx-elf\rx-elf\rx-elf\include\c++\8.3.0.202004-gnurx\cmath **** 
 206:c:\gcc for renesas rx 8.3.0.202004-gnurx-elf\rx-elf\rx-elf\rx-elf\include\c++\8.3.0.202004-gnurx\cmath ****   inline _GLIBCXX_CONSTEXPR long double
 207:c:\gcc for renesas rx 8.3.0.202004-gnurx-elf\rx-elf\rx-elf\rx-elf\include\c++\8.3.0.202004-gnurx\cmath ****   cosh(long double __x)
 208:c:\gcc for renesas rx 8.3.0.202004-gnurx-elf\rx-elf\rx-elf\rx-elf\include\c++\8.3.0.202004-gnurx\cmath ****   { return __builtin_coshl(__x); }
 209:c:\gcc for renesas rx 8.3.0.202004-gnurx-elf\rx-elf\rx-elf\rx-elf\include\c++\8.3.0.202004-gnurx\cmath **** #endif
 210:c:\gcc for renesas rx 8.3.0.202004-gnurx-elf\rx-elf\rx-elf\rx-elf\include\c++\8.3.0.202004-gnurx\cmath **** 
 211:c:\gcc for renesas rx 8.3.0.202004-gnurx-elf\rx-elf\rx-elf\rx-elf\include\c++\8.3.0.202004-gnurx\cmath ****   template<typename _Tp>
 212:c:\gcc for renesas rx 8.3.0.202004-gnurx-elf\rx-elf\rx-elf\rx-elf\include\c++\8.3.0.202004-gnurx\cmath ****     inline _GLIBCXX_CONSTEXPR
 213:c:\gcc for renesas rx 8.3.0.202004-gnurx-elf\rx-elf\rx-elf\rx-elf\include\c++\8.3.0.202004-gnurx\cmath ****     typename __gnu_cxx::__enable_if<__is_integer<_Tp>::__value,
 214:c:\gcc for renesas rx 8.3.0.202004-gnurx-elf\rx-elf\rx-elf\rx-elf\include\c++\8.3.0.202004-gnurx\cmath ****                                     double>::__type
 215:c:\gcc for renesas rx 8.3.0.202004-gnurx-elf\rx-elf\rx-elf\rx-elf\include\c++\8.3.0.202004-gnurx\cmath ****     cosh(_Tp __x)
 216:c:\gcc for renesas rx 8.3.0.202004-gnurx-elf\rx-elf\rx-elf\rx-elf\include\c++\8.3.0.202004-gnurx\cmath ****     { return __builtin_cosh(__x); }
 217:c:\gcc for renesas rx 8.3.0.202004-gnurx-elf\rx-elf\rx-elf\rx-elf\include\c++\8.3.0.202004-gnurx\cmath **** 
 218:c:\gcc for renesas rx 8.3.0.202004-gnurx-elf\rx-elf\rx-elf\rx-elf\include\c++\8.3.0.202004-gnurx\cmath ****   using ::exp;
 219:c:\gcc for renesas rx 8.3.0.202004-gnurx-elf\rx-elf\rx-elf\rx-elf\include\c++\8.3.0.202004-gnurx\cmath **** 
 220:c:\gcc for renesas rx 8.3.0.202004-gnurx-elf\rx-elf\rx-elf\rx-elf\include\c++\8.3.0.202004-gnurx\cmath **** #ifndef __CORRECT_ISO_CPP_MATH_H_PROTO
 221:c:\gcc for renesas rx 8.3.0.202004-gnurx-elf\rx-elf\rx-elf\rx-elf\include\c++\8.3.0.202004-gnurx\cmath ****   inline _GLIBCXX_CONSTEXPR float
 222:c:\gcc for renesas rx 8.3.0.202004-gnurx-elf\rx-elf\rx-elf\rx-elf\include\c++\8.3.0.202004-gnurx\cmath ****   exp(float __x)
 223:c:\gcc for renesas rx 8.3.0.202004-gnurx-elf\rx-elf\rx-elf\rx-elf\include\c++\8.3.0.202004-gnurx\cmath ****   { return __builtin_expf(__x); }
 224:c:\gcc for renesas rx 8.3.0.202004-gnurx-elf\rx-elf\rx-elf\rx-elf\include\c++\8.3.0.202004-gnurx\cmath **** 
 225:c:\gcc for renesas rx 8.3.0.202004-gnurx-elf\rx-elf\rx-elf\rx-elf\include\c++\8.3.0.202004-gnurx\cmath ****   inline _GLIBCXX_CONSTEXPR long double
 226:c:\gcc for renesas rx 8.3.0.202004-gnurx-elf\rx-elf\rx-elf\rx-elf\include\c++\8.3.0.202004-gnurx\cmath ****   exp(long double __x)
 227:c:\gcc for renesas rx 8.3.0.202004-gnurx-elf\rx-elf\rx-elf\rx-elf\include\c++\8.3.0.202004-gnurx\cmath ****   { return __builtin_expl(__x); }
 228:c:\gcc for renesas rx 8.3.0.202004-gnurx-elf\rx-elf\rx-elf\rx-elf\include\c++\8.3.0.202004-gnurx\cmath **** #endif
 229:c:\gcc for renesas rx 8.3.0.202004-gnurx-elf\rx-elf\rx-elf\rx-elf\include\c++\8.3.0.202004-gnurx\cmath **** 
 230:c:\gcc for renesas rx 8.3.0.202004-gnurx-elf\rx-elf\rx-elf\rx-elf\include\c++\8.3.0.202004-gnurx\cmath ****   template<typename _Tp>
 231:c:\gcc for renesas rx 8.3.0.202004-gnurx-elf\rx-elf\rx-elf\rx-elf\include\c++\8.3.0.202004-gnurx\cmath ****     inline _GLIBCXX_CONSTEXPR
 232:c:\gcc for renesas rx 8.3.0.202004-gnurx-elf\rx-elf\rx-elf\rx-elf\include\c++\8.3.0.202004-gnurx\cmath ****     typename __gnu_cxx::__enable_if<__is_integer<_Tp>::__value,
 233:c:\gcc for renesas rx 8.3.0.202004-gnurx-elf\rx-elf\rx-elf\rx-elf\include\c++\8.3.0.202004-gnurx\cmath ****                                     double>::__type
 234:c:\gcc for renesas rx 8.3.0.202004-gnurx-elf\rx-elf\rx-elf\rx-elf\include\c++\8.3.0.202004-gnurx\cmath ****     exp(_Tp __x)
 235:c:\gcc for renesas rx 8.3.0.202004-gnurx-elf\rx-elf\rx-elf\rx-elf\include\c++\8.3.0.202004-gnurx\cmath ****     { return __builtin_exp(__x); }
 236:c:\gcc for renesas rx 8.3.0.202004-gnurx-elf\rx-elf\rx-elf\rx-elf\include\c++\8.3.0.202004-gnurx\cmath **** 
 237:c:\gcc for renesas rx 8.3.0.202004-gnurx-elf\rx-elf\rx-elf\rx-elf\include\c++\8.3.0.202004-gnurx\cmath ****   using ::fabs;
 238:c:\gcc for renesas rx 8.3.0.202004-gnurx-elf\rx-elf\rx-elf\rx-elf\include\c++\8.3.0.202004-gnurx\cmath **** 
 239:c:\gcc for renesas rx 8.3.0.202004-gnurx-elf\rx-elf\rx-elf\rx-elf\include\c++\8.3.0.202004-gnurx\cmath **** #ifndef __CORRECT_ISO_CPP_MATH_H_PROTO
 240:c:\gcc for renesas rx 8.3.0.202004-gnurx-elf\rx-elf\rx-elf\rx-elf\include\c++\8.3.0.202004-gnurx\cmath ****   inline _GLIBCXX_CONSTEXPR float
 241:c:\gcc for renesas rx 8.3.0.202004-gnurx-elf\rx-elf\rx-elf\rx-elf\include\c++\8.3.0.202004-gnurx\cmath ****   fabs(float __x)
 242:c:\gcc for renesas rx 8.3.0.202004-gnurx-elf\rx-elf\rx-elf\rx-elf\include\c++\8.3.0.202004-gnurx\cmath ****   { return __builtin_fabsf(__x); }
 243:c:\gcc for renesas rx 8.3.0.202004-gnurx-elf\rx-elf\rx-elf\rx-elf\include\c++\8.3.0.202004-gnurx\cmath **** 
 244:c:\gcc for renesas rx 8.3.0.202004-gnurx-elf\rx-elf\rx-elf\rx-elf\include\c++\8.3.0.202004-gnurx\cmath ****   inline _GLIBCXX_CONSTEXPR long double
 245:c:\gcc for renesas rx 8.3.0.202004-gnurx-elf\rx-elf\rx-elf\rx-elf\include\c++\8.3.0.202004-gnurx\cmath ****   fabs(long double __x)
 246:c:\gcc for renesas rx 8.3.0.202004-gnurx-elf\rx-elf\rx-elf\rx-elf\include\c++\8.3.0.202004-gnurx\cmath ****   { return __builtin_fabsl(__x); }
 247:c:\gcc for renesas rx 8.3.0.202004-gnurx-elf\rx-elf\rx-elf\rx-elf\include\c++\8.3.0.202004-gnurx\cmath **** #endif
 248:c:\gcc for renesas rx 8.3.0.202004-gnurx-elf\rx-elf\rx-elf\rx-elf\include\c++\8.3.0.202004-gnurx\cmath **** 
 249:c:\gcc for renesas rx 8.3.0.202004-gnurx-elf\rx-elf\rx-elf\rx-elf\include\c++\8.3.0.202004-gnurx\cmath ****   template<typename _Tp>
 250:c:\gcc for renesas rx 8.3.0.202004-gnurx-elf\rx-elf\rx-elf\rx-elf\include\c++\8.3.0.202004-gnurx\cmath ****     inline _GLIBCXX_CONSTEXPR
 251:c:\gcc for renesas rx 8.3.0.202004-gnurx-elf\rx-elf\rx-elf\rx-elf\include\c++\8.3.0.202004-gnurx\cmath ****     typename __gnu_cxx::__enable_if<__is_integer<_Tp>::__value,
 252:c:\gcc for renesas rx 8.3.0.202004-gnurx-elf\rx-elf\rx-elf\rx-elf\include\c++\8.3.0.202004-gnurx\cmath ****                                     double>::__type
 253:c:\gcc for renesas rx 8.3.0.202004-gnurx-elf\rx-elf\rx-elf\rx-elf\include\c++\8.3.0.202004-gnurx\cmath ****     fabs(_Tp __x)
 254:c:\gcc for renesas rx 8.3.0.202004-gnurx-elf\rx-elf\rx-elf\rx-elf\include\c++\8.3.0.202004-gnurx\cmath ****     { return __builtin_fabs(__x); }
 255:c:\gcc for renesas rx 8.3.0.202004-gnurx-elf\rx-elf\rx-elf\rx-elf\include\c++\8.3.0.202004-gnurx\cmath **** 
 256:c:\gcc for renesas rx 8.3.0.202004-gnurx-elf\rx-elf\rx-elf\rx-elf\include\c++\8.3.0.202004-gnurx\cmath ****   using ::floor;
 257:c:\gcc for renesas rx 8.3.0.202004-gnurx-elf\rx-elf\rx-elf\rx-elf\include\c++\8.3.0.202004-gnurx\cmath **** 
 258:c:\gcc for renesas rx 8.3.0.202004-gnurx-elf\rx-elf\rx-elf\rx-elf\include\c++\8.3.0.202004-gnurx\cmath **** #ifndef __CORRECT_ISO_CPP_MATH_H_PROTO
 259:c:\gcc for renesas rx 8.3.0.202004-gnurx-elf\rx-elf\rx-elf\rx-elf\include\c++\8.3.0.202004-gnurx\cmath ****   inline _GLIBCXX_CONSTEXPR float
 260:c:\gcc for renesas rx 8.3.0.202004-gnurx-elf\rx-elf\rx-elf\rx-elf\include\c++\8.3.0.202004-gnurx\cmath ****   floor(float __x)
 261:c:\gcc for renesas rx 8.3.0.202004-gnurx-elf\rx-elf\rx-elf\rx-elf\include\c++\8.3.0.202004-gnurx\cmath ****   { return __builtin_floorf(__x); }
 262:c:\gcc for renesas rx 8.3.0.202004-gnurx-elf\rx-elf\rx-elf\rx-elf\include\c++\8.3.0.202004-gnurx\cmath **** 
 263:c:\gcc for renesas rx 8.3.0.202004-gnurx-elf\rx-elf\rx-elf\rx-elf\include\c++\8.3.0.202004-gnurx\cmath ****   inline _GLIBCXX_CONSTEXPR long double
 264:c:\gcc for renesas rx 8.3.0.202004-gnurx-elf\rx-elf\rx-elf\rx-elf\include\c++\8.3.0.202004-gnurx\cmath ****   floor(long double __x)
 265:c:\gcc for renesas rx 8.3.0.202004-gnurx-elf\rx-elf\rx-elf\rx-elf\include\c++\8.3.0.202004-gnurx\cmath ****   { return __builtin_floorl(__x); }
 266:c:\gcc for renesas rx 8.3.0.202004-gnurx-elf\rx-elf\rx-elf\rx-elf\include\c++\8.3.0.202004-gnurx\cmath **** #endif
 267:c:\gcc for renesas rx 8.3.0.202004-gnurx-elf\rx-elf\rx-elf\rx-elf\include\c++\8.3.0.202004-gnurx\cmath **** 
 268:c:\gcc for renesas rx 8.3.0.202004-gnurx-elf\rx-elf\rx-elf\rx-elf\include\c++\8.3.0.202004-gnurx\cmath ****   template<typename _Tp>
 269:c:\gcc for renesas rx 8.3.0.202004-gnurx-elf\rx-elf\rx-elf\rx-elf\include\c++\8.3.0.202004-gnurx\cmath ****     inline _GLIBCXX_CONSTEXPR
 270:c:\gcc for renesas rx 8.3.0.202004-gnurx-elf\rx-elf\rx-elf\rx-elf\include\c++\8.3.0.202004-gnurx\cmath ****     typename __gnu_cxx::__enable_if<__is_integer<_Tp>::__value,
 271:c:\gcc for renesas rx 8.3.0.202004-gnurx-elf\rx-elf\rx-elf\rx-elf\include\c++\8.3.0.202004-gnurx\cmath ****                                     double>::__type
 272:c:\gcc for renesas rx 8.3.0.202004-gnurx-elf\rx-elf\rx-elf\rx-elf\include\c++\8.3.0.202004-gnurx\cmath ****     floor(_Tp __x)
 273:c:\gcc for renesas rx 8.3.0.202004-gnurx-elf\rx-elf\rx-elf\rx-elf\include\c++\8.3.0.202004-gnurx\cmath ****     { return __builtin_floor(__x); }
 274:c:\gcc for renesas rx 8.3.0.202004-gnurx-elf\rx-elf\rx-elf\rx-elf\include\c++\8.3.0.202004-gnurx\cmath **** 
 275:c:\gcc for renesas rx 8.3.0.202004-gnurx-elf\rx-elf\rx-elf\rx-elf\include\c++\8.3.0.202004-gnurx\cmath ****   using ::fmod;
 276:c:\gcc for renesas rx 8.3.0.202004-gnurx-elf\rx-elf\rx-elf\rx-elf\include\c++\8.3.0.202004-gnurx\cmath **** 
 277:c:\gcc for renesas rx 8.3.0.202004-gnurx-elf\rx-elf\rx-elf\rx-elf\include\c++\8.3.0.202004-gnurx\cmath **** #ifndef __CORRECT_ISO_CPP_MATH_H_PROTO
 278:c:\gcc for renesas rx 8.3.0.202004-gnurx-elf\rx-elf\rx-elf\rx-elf\include\c++\8.3.0.202004-gnurx\cmath ****   inline _GLIBCXX_CONSTEXPR float
 279:c:\gcc for renesas rx 8.3.0.202004-gnurx-elf\rx-elf\rx-elf\rx-elf\include\c++\8.3.0.202004-gnurx\cmath ****   fmod(float __x, float __y)
 280:c:\gcc for renesas rx 8.3.0.202004-gnurx-elf\rx-elf\rx-elf\rx-elf\include\c++\8.3.0.202004-gnurx\cmath ****   { return __builtin_fmodf(__x, __y); }
 281:c:\gcc for renesas rx 8.3.0.202004-gnurx-elf\rx-elf\rx-elf\rx-elf\include\c++\8.3.0.202004-gnurx\cmath **** 
 282:c:\gcc for renesas rx 8.3.0.202004-gnurx-elf\rx-elf\rx-elf\rx-elf\include\c++\8.3.0.202004-gnurx\cmath ****   inline _GLIBCXX_CONSTEXPR long double
 283:c:\gcc for renesas rx 8.3.0.202004-gnurx-elf\rx-elf\rx-elf\rx-elf\include\c++\8.3.0.202004-gnurx\cmath ****   fmod(long double __x, long double __y)
 284:c:\gcc for renesas rx 8.3.0.202004-gnurx-elf\rx-elf\rx-elf\rx-elf\include\c++\8.3.0.202004-gnurx\cmath ****   { return __builtin_fmodl(__x, __y); }
 285:c:\gcc for renesas rx 8.3.0.202004-gnurx-elf\rx-elf\rx-elf\rx-elf\include\c++\8.3.0.202004-gnurx\cmath **** #endif
 286:c:\gcc for renesas rx 8.3.0.202004-gnurx-elf\rx-elf\rx-elf\rx-elf\include\c++\8.3.0.202004-gnurx\cmath **** 
 287:c:\gcc for renesas rx 8.3.0.202004-gnurx-elf\rx-elf\rx-elf\rx-elf\include\c++\8.3.0.202004-gnurx\cmath ****   template<typename _Tp, typename _Up>
 288:c:\gcc for renesas rx 8.3.0.202004-gnurx-elf\rx-elf\rx-elf\rx-elf\include\c++\8.3.0.202004-gnurx\cmath ****     inline _GLIBCXX_CONSTEXPR
 289:c:\gcc for renesas rx 8.3.0.202004-gnurx-elf\rx-elf\rx-elf\rx-elf\include\c++\8.3.0.202004-gnurx\cmath ****     typename __gnu_cxx::__promote_2<_Tp, _Up>::__type
 290:c:\gcc for renesas rx 8.3.0.202004-gnurx-elf\rx-elf\rx-elf\rx-elf\include\c++\8.3.0.202004-gnurx\cmath ****     fmod(_Tp __x, _Up __y)
 291:c:\gcc for renesas rx 8.3.0.202004-gnurx-elf\rx-elf\rx-elf\rx-elf\include\c++\8.3.0.202004-gnurx\cmath ****     {
 292:c:\gcc for renesas rx 8.3.0.202004-gnurx-elf\rx-elf\rx-elf\rx-elf\include\c++\8.3.0.202004-gnurx\cmath ****       typedef typename __gnu_cxx::__promote_2<_Tp, _Up>::__type __type;
 293:c:\gcc for renesas rx 8.3.0.202004-gnurx-elf\rx-elf\rx-elf\rx-elf\include\c++\8.3.0.202004-gnurx\cmath ****       return fmod(__type(__x), __type(__y));
 294:c:\gcc for renesas rx 8.3.0.202004-gnurx-elf\rx-elf\rx-elf\rx-elf\include\c++\8.3.0.202004-gnurx\cmath ****     }
 295:c:\gcc for renesas rx 8.3.0.202004-gnurx-elf\rx-elf\rx-elf\rx-elf\include\c++\8.3.0.202004-gnurx\cmath **** 
 296:c:\gcc for renesas rx 8.3.0.202004-gnurx-elf\rx-elf\rx-elf\rx-elf\include\c++\8.3.0.202004-gnurx\cmath ****   using ::frexp;
 297:c:\gcc for renesas rx 8.3.0.202004-gnurx-elf\rx-elf\rx-elf\rx-elf\include\c++\8.3.0.202004-gnurx\cmath **** 
 298:c:\gcc for renesas rx 8.3.0.202004-gnurx-elf\rx-elf\rx-elf\rx-elf\include\c++\8.3.0.202004-gnurx\cmath **** #ifndef __CORRECT_ISO_CPP_MATH_H_PROTO
 299:c:\gcc for renesas rx 8.3.0.202004-gnurx-elf\rx-elf\rx-elf\rx-elf\include\c++\8.3.0.202004-gnurx\cmath ****   inline float
 300:c:\gcc for renesas rx 8.3.0.202004-gnurx-elf\rx-elf\rx-elf\rx-elf\include\c++\8.3.0.202004-gnurx\cmath ****   frexp(float __x, int* __exp)
 301:c:\gcc for renesas rx 8.3.0.202004-gnurx-elf\rx-elf\rx-elf\rx-elf\include\c++\8.3.0.202004-gnurx\cmath ****   { return __builtin_frexpf(__x, __exp); }
 302:c:\gcc for renesas rx 8.3.0.202004-gnurx-elf\rx-elf\rx-elf\rx-elf\include\c++\8.3.0.202004-gnurx\cmath **** 
 303:c:\gcc for renesas rx 8.3.0.202004-gnurx-elf\rx-elf\rx-elf\rx-elf\include\c++\8.3.0.202004-gnurx\cmath ****   inline long double
 304:c:\gcc for renesas rx 8.3.0.202004-gnurx-elf\rx-elf\rx-elf\rx-elf\include\c++\8.3.0.202004-gnurx\cmath ****   frexp(long double __x, int* __exp)
 305:c:\gcc for renesas rx 8.3.0.202004-gnurx-elf\rx-elf\rx-elf\rx-elf\include\c++\8.3.0.202004-gnurx\cmath ****   { return __builtin_frexpl(__x, __exp); }
 306:c:\gcc for renesas rx 8.3.0.202004-gnurx-elf\rx-elf\rx-elf\rx-elf\include\c++\8.3.0.202004-gnurx\cmath **** #endif
 307:c:\gcc for renesas rx 8.3.0.202004-gnurx-elf\rx-elf\rx-elf\rx-elf\include\c++\8.3.0.202004-gnurx\cmath **** 
 308:c:\gcc for renesas rx 8.3.0.202004-gnurx-elf\rx-elf\rx-elf\rx-elf\include\c++\8.3.0.202004-gnurx\cmath ****   template<typename _Tp>
 309:c:\gcc for renesas rx 8.3.0.202004-gnurx-elf\rx-elf\rx-elf\rx-elf\include\c++\8.3.0.202004-gnurx\cmath ****     inline _GLIBCXX_CONSTEXPR
 310:c:\gcc for renesas rx 8.3.0.202004-gnurx-elf\rx-elf\rx-elf\rx-elf\include\c++\8.3.0.202004-gnurx\cmath ****     typename __gnu_cxx::__enable_if<__is_integer<_Tp>::__value, 
 311:c:\gcc for renesas rx 8.3.0.202004-gnurx-elf\rx-elf\rx-elf\rx-elf\include\c++\8.3.0.202004-gnurx\cmath ****                                     double>::__type
 312:c:\gcc for renesas rx 8.3.0.202004-gnurx-elf\rx-elf\rx-elf\rx-elf\include\c++\8.3.0.202004-gnurx\cmath ****     frexp(_Tp __x, int* __exp)
 313:c:\gcc for renesas rx 8.3.0.202004-gnurx-elf\rx-elf\rx-elf\rx-elf\include\c++\8.3.0.202004-gnurx\cmath ****     { return __builtin_frexp(__x, __exp); }
 314:c:\gcc for renesas rx 8.3.0.202004-gnurx-elf\rx-elf\rx-elf\rx-elf\include\c++\8.3.0.202004-gnurx\cmath **** 
 315:c:\gcc for renesas rx 8.3.0.202004-gnurx-elf\rx-elf\rx-elf\rx-elf\include\c++\8.3.0.202004-gnurx\cmath ****   using ::ldexp;
 316:c:\gcc for renesas rx 8.3.0.202004-gnurx-elf\rx-elf\rx-elf\rx-elf\include\c++\8.3.0.202004-gnurx\cmath **** 
 317:c:\gcc for renesas rx 8.3.0.202004-gnurx-elf\rx-elf\rx-elf\rx-elf\include\c++\8.3.0.202004-gnurx\cmath **** #ifndef __CORRECT_ISO_CPP_MATH_H_PROTO
 318:c:\gcc for renesas rx 8.3.0.202004-gnurx-elf\rx-elf\rx-elf\rx-elf\include\c++\8.3.0.202004-gnurx\cmath ****   inline _GLIBCXX_CONSTEXPR float
 319:c:\gcc for renesas rx 8.3.0.202004-gnurx-elf\rx-elf\rx-elf\rx-elf\include\c++\8.3.0.202004-gnurx\cmath ****   ldexp(float __x, int __exp)
 320:c:\gcc for renesas rx 8.3.0.202004-gnurx-elf\rx-elf\rx-elf\rx-elf\include\c++\8.3.0.202004-gnurx\cmath ****   { return __builtin_ldexpf(__x, __exp); }
 321:c:\gcc for renesas rx 8.3.0.202004-gnurx-elf\rx-elf\rx-elf\rx-elf\include\c++\8.3.0.202004-gnurx\cmath **** 
 322:c:\gcc for renesas rx 8.3.0.202004-gnurx-elf\rx-elf\rx-elf\rx-elf\include\c++\8.3.0.202004-gnurx\cmath ****   inline _GLIBCXX_CONSTEXPR long double
 323:c:\gcc for renesas rx 8.3.0.202004-gnurx-elf\rx-elf\rx-elf\rx-elf\include\c++\8.3.0.202004-gnurx\cmath ****   ldexp(long double __x, int __exp)
 324:c:\gcc for renesas rx 8.3.0.202004-gnurx-elf\rx-elf\rx-elf\rx-elf\include\c++\8.3.0.202004-gnurx\cmath ****   { return __builtin_ldexpl(__x, __exp); }
 325:c:\gcc for renesas rx 8.3.0.202004-gnurx-elf\rx-elf\rx-elf\rx-elf\include\c++\8.3.0.202004-gnurx\cmath **** #endif
 326:c:\gcc for renesas rx 8.3.0.202004-gnurx-elf\rx-elf\rx-elf\rx-elf\include\c++\8.3.0.202004-gnurx\cmath **** 
 327:c:\gcc for renesas rx 8.3.0.202004-gnurx-elf\rx-elf\rx-elf\rx-elf\include\c++\8.3.0.202004-gnurx\cmath ****   template<typename _Tp>
 328:c:\gcc for renesas rx 8.3.0.202004-gnurx-elf\rx-elf\rx-elf\rx-elf\include\c++\8.3.0.202004-gnurx\cmath ****     inline _GLIBCXX_CONSTEXPR
 329:c:\gcc for renesas rx 8.3.0.202004-gnurx-elf\rx-elf\rx-elf\rx-elf\include\c++\8.3.0.202004-gnurx\cmath ****     typename __gnu_cxx::__enable_if<__is_integer<_Tp>::__value, 
 330:c:\gcc for renesas rx 8.3.0.202004-gnurx-elf\rx-elf\rx-elf\rx-elf\include\c++\8.3.0.202004-gnurx\cmath ****                                     double>::__type
 331:c:\gcc for renesas rx 8.3.0.202004-gnurx-elf\rx-elf\rx-elf\rx-elf\include\c++\8.3.0.202004-gnurx\cmath ****     ldexp(_Tp __x, int __exp)
 332:c:\gcc for renesas rx 8.3.0.202004-gnurx-elf\rx-elf\rx-elf\rx-elf\include\c++\8.3.0.202004-gnurx\cmath ****     { return __builtin_ldexp(__x, __exp); }
 333:c:\gcc for renesas rx 8.3.0.202004-gnurx-elf\rx-elf\rx-elf\rx-elf\include\c++\8.3.0.202004-gnurx\cmath **** 
 334:c:\gcc for renesas rx 8.3.0.202004-gnurx-elf\rx-elf\rx-elf\rx-elf\include\c++\8.3.0.202004-gnurx\cmath ****   using ::log;
 335:c:\gcc for renesas rx 8.3.0.202004-gnurx-elf\rx-elf\rx-elf\rx-elf\include\c++\8.3.0.202004-gnurx\cmath **** 
 336:c:\gcc for renesas rx 8.3.0.202004-gnurx-elf\rx-elf\rx-elf\rx-elf\include\c++\8.3.0.202004-gnurx\cmath **** #ifndef __CORRECT_ISO_CPP_MATH_H_PROTO
 337:c:\gcc for renesas rx 8.3.0.202004-gnurx-elf\rx-elf\rx-elf\rx-elf\include\c++\8.3.0.202004-gnurx\cmath ****   inline _GLIBCXX_CONSTEXPR float
 338:c:\gcc for renesas rx 8.3.0.202004-gnurx-elf\rx-elf\rx-elf\rx-elf\include\c++\8.3.0.202004-gnurx\cmath ****   log(float __x)
 339:c:\gcc for renesas rx 8.3.0.202004-gnurx-elf\rx-elf\rx-elf\rx-elf\include\c++\8.3.0.202004-gnurx\cmath ****   { return __builtin_logf(__x); }
 340:c:\gcc for renesas rx 8.3.0.202004-gnurx-elf\rx-elf\rx-elf\rx-elf\include\c++\8.3.0.202004-gnurx\cmath **** 
 341:c:\gcc for renesas rx 8.3.0.202004-gnurx-elf\rx-elf\rx-elf\rx-elf\include\c++\8.3.0.202004-gnurx\cmath ****   inline _GLIBCXX_CONSTEXPR long double
 342:c:\gcc for renesas rx 8.3.0.202004-gnurx-elf\rx-elf\rx-elf\rx-elf\include\c++\8.3.0.202004-gnurx\cmath ****   log(long double __x)
 343:c:\gcc for renesas rx 8.3.0.202004-gnurx-elf\rx-elf\rx-elf\rx-elf\include\c++\8.3.0.202004-gnurx\cmath ****   { return __builtin_logl(__x); }
 344:c:\gcc for renesas rx 8.3.0.202004-gnurx-elf\rx-elf\rx-elf\rx-elf\include\c++\8.3.0.202004-gnurx\cmath **** #endif
 345:c:\gcc for renesas rx 8.3.0.202004-gnurx-elf\rx-elf\rx-elf\rx-elf\include\c++\8.3.0.202004-gnurx\cmath **** 
 346:c:\gcc for renesas rx 8.3.0.202004-gnurx-elf\rx-elf\rx-elf\rx-elf\include\c++\8.3.0.202004-gnurx\cmath ****   template<typename _Tp>
 347:c:\gcc for renesas rx 8.3.0.202004-gnurx-elf\rx-elf\rx-elf\rx-elf\include\c++\8.3.0.202004-gnurx\cmath ****     inline _GLIBCXX_CONSTEXPR
 348:c:\gcc for renesas rx 8.3.0.202004-gnurx-elf\rx-elf\rx-elf\rx-elf\include\c++\8.3.0.202004-gnurx\cmath ****     typename __gnu_cxx::__enable_if<__is_integer<_Tp>::__value, 
 349:c:\gcc for renesas rx 8.3.0.202004-gnurx-elf\rx-elf\rx-elf\rx-elf\include\c++\8.3.0.202004-gnurx\cmath ****                                     double>::__type
 350:c:\gcc for renesas rx 8.3.0.202004-gnurx-elf\rx-elf\rx-elf\rx-elf\include\c++\8.3.0.202004-gnurx\cmath ****     log(_Tp __x)
 351:c:\gcc for renesas rx 8.3.0.202004-gnurx-elf\rx-elf\rx-elf\rx-elf\include\c++\8.3.0.202004-gnurx\cmath ****     { return __builtin_log(__x); }
 352:c:\gcc for renesas rx 8.3.0.202004-gnurx-elf\rx-elf\rx-elf\rx-elf\include\c++\8.3.0.202004-gnurx\cmath **** 
 353:c:\gcc for renesas rx 8.3.0.202004-gnurx-elf\rx-elf\rx-elf\rx-elf\include\c++\8.3.0.202004-gnurx\cmath ****   using ::log10;
 354:c:\gcc for renesas rx 8.3.0.202004-gnurx-elf\rx-elf\rx-elf\rx-elf\include\c++\8.3.0.202004-gnurx\cmath **** 
 355:c:\gcc for renesas rx 8.3.0.202004-gnurx-elf\rx-elf\rx-elf\rx-elf\include\c++\8.3.0.202004-gnurx\cmath **** #ifndef __CORRECT_ISO_CPP_MATH_H_PROTO
 356:c:\gcc for renesas rx 8.3.0.202004-gnurx-elf\rx-elf\rx-elf\rx-elf\include\c++\8.3.0.202004-gnurx\cmath ****   inline _GLIBCXX_CONSTEXPR float
 357:c:\gcc for renesas rx 8.3.0.202004-gnurx-elf\rx-elf\rx-elf\rx-elf\include\c++\8.3.0.202004-gnurx\cmath ****   log10(float __x)
 358:c:\gcc for renesas rx 8.3.0.202004-gnurx-elf\rx-elf\rx-elf\rx-elf\include\c++\8.3.0.202004-gnurx\cmath ****   { return __builtin_log10f(__x); }
 359:c:\gcc for renesas rx 8.3.0.202004-gnurx-elf\rx-elf\rx-elf\rx-elf\include\c++\8.3.0.202004-gnurx\cmath **** 
 360:c:\gcc for renesas rx 8.3.0.202004-gnurx-elf\rx-elf\rx-elf\rx-elf\include\c++\8.3.0.202004-gnurx\cmath ****   inline _GLIBCXX_CONSTEXPR long double
 361:c:\gcc for renesas rx 8.3.0.202004-gnurx-elf\rx-elf\rx-elf\rx-elf\include\c++\8.3.0.202004-gnurx\cmath ****   log10(long double __x)
 362:c:\gcc for renesas rx 8.3.0.202004-gnurx-elf\rx-elf\rx-elf\rx-elf\include\c++\8.3.0.202004-gnurx\cmath ****   { return __builtin_log10l(__x); }
 363:c:\gcc for renesas rx 8.3.0.202004-gnurx-elf\rx-elf\rx-elf\rx-elf\include\c++\8.3.0.202004-gnurx\cmath **** #endif
 364:c:\gcc for renesas rx 8.3.0.202004-gnurx-elf\rx-elf\rx-elf\rx-elf\include\c++\8.3.0.202004-gnurx\cmath **** 
 365:c:\gcc for renesas rx 8.3.0.202004-gnurx-elf\rx-elf\rx-elf\rx-elf\include\c++\8.3.0.202004-gnurx\cmath ****   template<typename _Tp>
 366:c:\gcc for renesas rx 8.3.0.202004-gnurx-elf\rx-elf\rx-elf\rx-elf\include\c++\8.3.0.202004-gnurx\cmath ****     inline _GLIBCXX_CONSTEXPR
 367:c:\gcc for renesas rx 8.3.0.202004-gnurx-elf\rx-elf\rx-elf\rx-elf\include\c++\8.3.0.202004-gnurx\cmath ****     typename __gnu_cxx::__enable_if<__is_integer<_Tp>::__value,
 368:c:\gcc for renesas rx 8.3.0.202004-gnurx-elf\rx-elf\rx-elf\rx-elf\include\c++\8.3.0.202004-gnurx\cmath ****                                     double>::__type
 369:c:\gcc for renesas rx 8.3.0.202004-gnurx-elf\rx-elf\rx-elf\rx-elf\include\c++\8.3.0.202004-gnurx\cmath ****     log10(_Tp __x)
 370:c:\gcc for renesas rx 8.3.0.202004-gnurx-elf\rx-elf\rx-elf\rx-elf\include\c++\8.3.0.202004-gnurx\cmath ****     { return __builtin_log10(__x); }
 371:c:\gcc for renesas rx 8.3.0.202004-gnurx-elf\rx-elf\rx-elf\rx-elf\include\c++\8.3.0.202004-gnurx\cmath **** 
 372:c:\gcc for renesas rx 8.3.0.202004-gnurx-elf\rx-elf\rx-elf\rx-elf\include\c++\8.3.0.202004-gnurx\cmath ****   using ::modf;
 373:c:\gcc for renesas rx 8.3.0.202004-gnurx-elf\rx-elf\rx-elf\rx-elf\include\c++\8.3.0.202004-gnurx\cmath **** 
 374:c:\gcc for renesas rx 8.3.0.202004-gnurx-elf\rx-elf\rx-elf\rx-elf\include\c++\8.3.0.202004-gnurx\cmath **** #ifndef __CORRECT_ISO_CPP_MATH_H_PROTO
 375:c:\gcc for renesas rx 8.3.0.202004-gnurx-elf\rx-elf\rx-elf\rx-elf\include\c++\8.3.0.202004-gnurx\cmath ****   inline float
 376:c:\gcc for renesas rx 8.3.0.202004-gnurx-elf\rx-elf\rx-elf\rx-elf\include\c++\8.3.0.202004-gnurx\cmath ****   modf(float __x, float* __iptr)
 377:c:\gcc for renesas rx 8.3.0.202004-gnurx-elf\rx-elf\rx-elf\rx-elf\include\c++\8.3.0.202004-gnurx\cmath ****   { return __builtin_modff(__x, __iptr); }
 378:c:\gcc for renesas rx 8.3.0.202004-gnurx-elf\rx-elf\rx-elf\rx-elf\include\c++\8.3.0.202004-gnurx\cmath **** 
 379:c:\gcc for renesas rx 8.3.0.202004-gnurx-elf\rx-elf\rx-elf\rx-elf\include\c++\8.3.0.202004-gnurx\cmath ****   inline long double
 380:c:\gcc for renesas rx 8.3.0.202004-gnurx-elf\rx-elf\rx-elf\rx-elf\include\c++\8.3.0.202004-gnurx\cmath ****   modf(long double __x, long double* __iptr)
 381:c:\gcc for renesas rx 8.3.0.202004-gnurx-elf\rx-elf\rx-elf\rx-elf\include\c++\8.3.0.202004-gnurx\cmath ****   { return __builtin_modfl(__x, __iptr); }
 382:c:\gcc for renesas rx 8.3.0.202004-gnurx-elf\rx-elf\rx-elf\rx-elf\include\c++\8.3.0.202004-gnurx\cmath **** #endif
 383:c:\gcc for renesas rx 8.3.0.202004-gnurx-elf\rx-elf\rx-elf\rx-elf\include\c++\8.3.0.202004-gnurx\cmath **** 
 384:c:\gcc for renesas rx 8.3.0.202004-gnurx-elf\rx-elf\rx-elf\rx-elf\include\c++\8.3.0.202004-gnurx\cmath ****   using ::pow;
 385:c:\gcc for renesas rx 8.3.0.202004-gnurx-elf\rx-elf\rx-elf\rx-elf\include\c++\8.3.0.202004-gnurx\cmath **** 
 386:c:\gcc for renesas rx 8.3.0.202004-gnurx-elf\rx-elf\rx-elf\rx-elf\include\c++\8.3.0.202004-gnurx\cmath **** #ifndef __CORRECT_ISO_CPP_MATH_H_PROTO
 387:c:\gcc for renesas rx 8.3.0.202004-gnurx-elf\rx-elf\rx-elf\rx-elf\include\c++\8.3.0.202004-gnurx\cmath ****   inline _GLIBCXX_CONSTEXPR float
 388:c:\gcc for renesas rx 8.3.0.202004-gnurx-elf\rx-elf\rx-elf\rx-elf\include\c++\8.3.0.202004-gnurx\cmath ****   pow(float __x, float __y)
 389:c:\gcc for renesas rx 8.3.0.202004-gnurx-elf\rx-elf\rx-elf\rx-elf\include\c++\8.3.0.202004-gnurx\cmath ****   { return __builtin_powf(__x, __y); }
 390:c:\gcc for renesas rx 8.3.0.202004-gnurx-elf\rx-elf\rx-elf\rx-elf\include\c++\8.3.0.202004-gnurx\cmath **** 
 391:c:\gcc for renesas rx 8.3.0.202004-gnurx-elf\rx-elf\rx-elf\rx-elf\include\c++\8.3.0.202004-gnurx\cmath ****   inline _GLIBCXX_CONSTEXPR long double
 392:c:\gcc for renesas rx 8.3.0.202004-gnurx-elf\rx-elf\rx-elf\rx-elf\include\c++\8.3.0.202004-gnurx\cmath ****   pow(long double __x, long double __y)
 393:c:\gcc for renesas rx 8.3.0.202004-gnurx-elf\rx-elf\rx-elf\rx-elf\include\c++\8.3.0.202004-gnurx\cmath ****   { return __builtin_powl(__x, __y); }
 394:c:\gcc for renesas rx 8.3.0.202004-gnurx-elf\rx-elf\rx-elf\rx-elf\include\c++\8.3.0.202004-gnurx\cmath **** 
 395:c:\gcc for renesas rx 8.3.0.202004-gnurx-elf\rx-elf\rx-elf\rx-elf\include\c++\8.3.0.202004-gnurx\cmath **** #if __cplusplus < 201103L
 396:c:\gcc for renesas rx 8.3.0.202004-gnurx-elf\rx-elf\rx-elf\rx-elf\include\c++\8.3.0.202004-gnurx\cmath ****   // _GLIBCXX_RESOLVE_LIB_DEFECTS
 397:c:\gcc for renesas rx 8.3.0.202004-gnurx-elf\rx-elf\rx-elf\rx-elf\include\c++\8.3.0.202004-gnurx\cmath ****   // DR 550. What should the return type of pow(float,int) be?
 398:c:\gcc for renesas rx 8.3.0.202004-gnurx-elf\rx-elf\rx-elf\rx-elf\include\c++\8.3.0.202004-gnurx\cmath ****   inline double
 399:c:\gcc for renesas rx 8.3.0.202004-gnurx-elf\rx-elf\rx-elf\rx-elf\include\c++\8.3.0.202004-gnurx\cmath ****   pow(double __x, int __i)
 400:c:\gcc for renesas rx 8.3.0.202004-gnurx-elf\rx-elf\rx-elf\rx-elf\include\c++\8.3.0.202004-gnurx\cmath ****   { return __builtin_powi(__x, __i); }
 401:c:\gcc for renesas rx 8.3.0.202004-gnurx-elf\rx-elf\rx-elf\rx-elf\include\c++\8.3.0.202004-gnurx\cmath **** 
 402:c:\gcc for renesas rx 8.3.0.202004-gnurx-elf\rx-elf\rx-elf\rx-elf\include\c++\8.3.0.202004-gnurx\cmath ****   inline float
 403:c:\gcc for renesas rx 8.3.0.202004-gnurx-elf\rx-elf\rx-elf\rx-elf\include\c++\8.3.0.202004-gnurx\cmath ****   pow(float __x, int __n)
 404:c:\gcc for renesas rx 8.3.0.202004-gnurx-elf\rx-elf\rx-elf\rx-elf\include\c++\8.3.0.202004-gnurx\cmath ****   { return __builtin_powif(__x, __n); }
 405:c:\gcc for renesas rx 8.3.0.202004-gnurx-elf\rx-elf\rx-elf\rx-elf\include\c++\8.3.0.202004-gnurx\cmath **** 
 406:c:\gcc for renesas rx 8.3.0.202004-gnurx-elf\rx-elf\rx-elf\rx-elf\include\c++\8.3.0.202004-gnurx\cmath ****   inline long double
 407:c:\gcc for renesas rx 8.3.0.202004-gnurx-elf\rx-elf\rx-elf\rx-elf\include\c++\8.3.0.202004-gnurx\cmath ****   pow(long double __x, int __n)
 408:c:\gcc for renesas rx 8.3.0.202004-gnurx-elf\rx-elf\rx-elf\rx-elf\include\c++\8.3.0.202004-gnurx\cmath ****   { return __builtin_powil(__x, __n); }
 409:c:\gcc for renesas rx 8.3.0.202004-gnurx-elf\rx-elf\rx-elf\rx-elf\include\c++\8.3.0.202004-gnurx\cmath **** #endif
 410:c:\gcc for renesas rx 8.3.0.202004-gnurx-elf\rx-elf\rx-elf\rx-elf\include\c++\8.3.0.202004-gnurx\cmath **** #endif
 411:c:\gcc for renesas rx 8.3.0.202004-gnurx-elf\rx-elf\rx-elf\rx-elf\include\c++\8.3.0.202004-gnurx\cmath **** 
 412:c:\gcc for renesas rx 8.3.0.202004-gnurx-elf\rx-elf\rx-elf\rx-elf\include\c++\8.3.0.202004-gnurx\cmath ****   template<typename _Tp, typename _Up>
 413:c:\gcc for renesas rx 8.3.0.202004-gnurx-elf\rx-elf\rx-elf\rx-elf\include\c++\8.3.0.202004-gnurx\cmath ****     inline _GLIBCXX_CONSTEXPR
 414:c:\gcc for renesas rx 8.3.0.202004-gnurx-elf\rx-elf\rx-elf\rx-elf\include\c++\8.3.0.202004-gnurx\cmath ****     typename __gnu_cxx::__promote_2<_Tp, _Up>::__type
 415:c:\gcc for renesas rx 8.3.0.202004-gnurx-elf\rx-elf\rx-elf\rx-elf\include\c++\8.3.0.202004-gnurx\cmath ****     pow(_Tp __x, _Up __y)
 416:c:\gcc for renesas rx 8.3.0.202004-gnurx-elf\rx-elf\rx-elf\rx-elf\include\c++\8.3.0.202004-gnurx\cmath ****     {
 417:c:\gcc for renesas rx 8.3.0.202004-gnurx-elf\rx-elf\rx-elf\rx-elf\include\c++\8.3.0.202004-gnurx\cmath ****       typedef typename __gnu_cxx::__promote_2<_Tp, _Up>::__type __type;
 418:c:\gcc for renesas rx 8.3.0.202004-gnurx-elf\rx-elf\rx-elf\rx-elf\include\c++\8.3.0.202004-gnurx\cmath ****       return pow(__type(__x), __type(__y));
 419:c:\gcc for renesas rx 8.3.0.202004-gnurx-elf\rx-elf\rx-elf\rx-elf\include\c++\8.3.0.202004-gnurx\cmath ****     }
 420:c:\gcc for renesas rx 8.3.0.202004-gnurx-elf\rx-elf\rx-elf\rx-elf\include\c++\8.3.0.202004-gnurx\cmath **** 
 421:c:\gcc for renesas rx 8.3.0.202004-gnurx-elf\rx-elf\rx-elf\rx-elf\include\c++\8.3.0.202004-gnurx\cmath ****   using ::sin;
 422:c:\gcc for renesas rx 8.3.0.202004-gnurx-elf\rx-elf\rx-elf\rx-elf\include\c++\8.3.0.202004-gnurx\cmath **** 
 423:c:\gcc for renesas rx 8.3.0.202004-gnurx-elf\rx-elf\rx-elf\rx-elf\include\c++\8.3.0.202004-gnurx\cmath **** #ifndef __CORRECT_ISO_CPP_MATH_H_PROTO
 424:c:\gcc for renesas rx 8.3.0.202004-gnurx-elf\rx-elf\rx-elf\rx-elf\include\c++\8.3.0.202004-gnurx\cmath ****   inline _GLIBCXX_CONSTEXPR float
 425:c:\gcc for renesas rx 8.3.0.202004-gnurx-elf\rx-elf\rx-elf\rx-elf\include\c++\8.3.0.202004-gnurx\cmath ****   sin(float __x)
 426:c:\gcc for renesas rx 8.3.0.202004-gnurx-elf\rx-elf\rx-elf\rx-elf\include\c++\8.3.0.202004-gnurx\cmath ****   { return __builtin_sinf(__x); }
 427:c:\gcc for renesas rx 8.3.0.202004-gnurx-elf\rx-elf\rx-elf\rx-elf\include\c++\8.3.0.202004-gnurx\cmath **** 
 428:c:\gcc for renesas rx 8.3.0.202004-gnurx-elf\rx-elf\rx-elf\rx-elf\include\c++\8.3.0.202004-gnurx\cmath ****   inline _GLIBCXX_CONSTEXPR long double
 429:c:\gcc for renesas rx 8.3.0.202004-gnurx-elf\rx-elf\rx-elf\rx-elf\include\c++\8.3.0.202004-gnurx\cmath ****   sin(long double __x)
 430:c:\gcc for renesas rx 8.3.0.202004-gnurx-elf\rx-elf\rx-elf\rx-elf\include\c++\8.3.0.202004-gnurx\cmath ****   { return __builtin_sinl(__x); }
 431:c:\gcc for renesas rx 8.3.0.202004-gnurx-elf\rx-elf\rx-elf\rx-elf\include\c++\8.3.0.202004-gnurx\cmath **** #endif
 432:c:\gcc for renesas rx 8.3.0.202004-gnurx-elf\rx-elf\rx-elf\rx-elf\include\c++\8.3.0.202004-gnurx\cmath **** 
 433:c:\gcc for renesas rx 8.3.0.202004-gnurx-elf\rx-elf\rx-elf\rx-elf\include\c++\8.3.0.202004-gnurx\cmath ****   template<typename _Tp>
 434:c:\gcc for renesas rx 8.3.0.202004-gnurx-elf\rx-elf\rx-elf\rx-elf\include\c++\8.3.0.202004-gnurx\cmath ****     inline _GLIBCXX_CONSTEXPR
 435:c:\gcc for renesas rx 8.3.0.202004-gnurx-elf\rx-elf\rx-elf\rx-elf\include\c++\8.3.0.202004-gnurx\cmath ****     typename __gnu_cxx::__enable_if<__is_integer<_Tp>::__value, 
 436:c:\gcc for renesas rx 8.3.0.202004-gnurx-elf\rx-elf\rx-elf\rx-elf\include\c++\8.3.0.202004-gnurx\cmath ****                                     double>::__type
 437:c:\gcc for renesas rx 8.3.0.202004-gnurx-elf\rx-elf\rx-elf\rx-elf\include\c++\8.3.0.202004-gnurx\cmath ****     sin(_Tp __x)
 438:c:\gcc for renesas rx 8.3.0.202004-gnurx-elf\rx-elf\rx-elf\rx-elf\include\c++\8.3.0.202004-gnurx\cmath ****     { return __builtin_sin(__x); }
 439:c:\gcc for renesas rx 8.3.0.202004-gnurx-elf\rx-elf\rx-elf\rx-elf\include\c++\8.3.0.202004-gnurx\cmath **** 
 440:c:\gcc for renesas rx 8.3.0.202004-gnurx-elf\rx-elf\rx-elf\rx-elf\include\c++\8.3.0.202004-gnurx\cmath ****   using ::sinh;
 441:c:\gcc for renesas rx 8.3.0.202004-gnurx-elf\rx-elf\rx-elf\rx-elf\include\c++\8.3.0.202004-gnurx\cmath **** 
 442:c:\gcc for renesas rx 8.3.0.202004-gnurx-elf\rx-elf\rx-elf\rx-elf\include\c++\8.3.0.202004-gnurx\cmath **** #ifndef __CORRECT_ISO_CPP_MATH_H_PROTO
 443:c:\gcc for renesas rx 8.3.0.202004-gnurx-elf\rx-elf\rx-elf\rx-elf\include\c++\8.3.0.202004-gnurx\cmath ****   inline _GLIBCXX_CONSTEXPR float
 444:c:\gcc for renesas rx 8.3.0.202004-gnurx-elf\rx-elf\rx-elf\rx-elf\include\c++\8.3.0.202004-gnurx\cmath ****   sinh(float __x)
 445:c:\gcc for renesas rx 8.3.0.202004-gnurx-elf\rx-elf\rx-elf\rx-elf\include\c++\8.3.0.202004-gnurx\cmath ****   { return __builtin_sinhf(__x); }
 446:c:\gcc for renesas rx 8.3.0.202004-gnurx-elf\rx-elf\rx-elf\rx-elf\include\c++\8.3.0.202004-gnurx\cmath **** 
 447:c:\gcc for renesas rx 8.3.0.202004-gnurx-elf\rx-elf\rx-elf\rx-elf\include\c++\8.3.0.202004-gnurx\cmath ****   inline _GLIBCXX_CONSTEXPR long double
 448:c:\gcc for renesas rx 8.3.0.202004-gnurx-elf\rx-elf\rx-elf\rx-elf\include\c++\8.3.0.202004-gnurx\cmath ****   sinh(long double __x)
 449:c:\gcc for renesas rx 8.3.0.202004-gnurx-elf\rx-elf\rx-elf\rx-elf\include\c++\8.3.0.202004-gnurx\cmath ****   { return __builtin_sinhl(__x); }
 450:c:\gcc for renesas rx 8.3.0.202004-gnurx-elf\rx-elf\rx-elf\rx-elf\include\c++\8.3.0.202004-gnurx\cmath **** #endif
 451:c:\gcc for renesas rx 8.3.0.202004-gnurx-elf\rx-elf\rx-elf\rx-elf\include\c++\8.3.0.202004-gnurx\cmath **** 
 452:c:\gcc for renesas rx 8.3.0.202004-gnurx-elf\rx-elf\rx-elf\rx-elf\include\c++\8.3.0.202004-gnurx\cmath ****   template<typename _Tp>
 453:c:\gcc for renesas rx 8.3.0.202004-gnurx-elf\rx-elf\rx-elf\rx-elf\include\c++\8.3.0.202004-gnurx\cmath ****     inline _GLIBCXX_CONSTEXPR
 454:c:\gcc for renesas rx 8.3.0.202004-gnurx-elf\rx-elf\rx-elf\rx-elf\include\c++\8.3.0.202004-gnurx\cmath ****     typename __gnu_cxx::__enable_if<__is_integer<_Tp>::__value, 
 455:c:\gcc for renesas rx 8.3.0.202004-gnurx-elf\rx-elf\rx-elf\rx-elf\include\c++\8.3.0.202004-gnurx\cmath ****                                     double>::__type
 456:c:\gcc for renesas rx 8.3.0.202004-gnurx-elf\rx-elf\rx-elf\rx-elf\include\c++\8.3.0.202004-gnurx\cmath ****     sinh(_Tp __x)
 457:c:\gcc for renesas rx 8.3.0.202004-gnurx-elf\rx-elf\rx-elf\rx-elf\include\c++\8.3.0.202004-gnurx\cmath ****     { return __builtin_sinh(__x); }
 458:c:\gcc for renesas rx 8.3.0.202004-gnurx-elf\rx-elf\rx-elf\rx-elf\include\c++\8.3.0.202004-gnurx\cmath **** 
 459:c:\gcc for renesas rx 8.3.0.202004-gnurx-elf\rx-elf\rx-elf\rx-elf\include\c++\8.3.0.202004-gnurx\cmath ****   using ::sqrt;
 460:c:\gcc for renesas rx 8.3.0.202004-gnurx-elf\rx-elf\rx-elf\rx-elf\include\c++\8.3.0.202004-gnurx\cmath **** 
 461:c:\gcc for renesas rx 8.3.0.202004-gnurx-elf\rx-elf\rx-elf\rx-elf\include\c++\8.3.0.202004-gnurx\cmath **** #ifndef __CORRECT_ISO_CPP_MATH_H_PROTO
 462:c:\gcc for renesas rx 8.3.0.202004-gnurx-elf\rx-elf\rx-elf\rx-elf\include\c++\8.3.0.202004-gnurx\cmath ****   inline _GLIBCXX_CONSTEXPR float
 463:c:\gcc for renesas rx 8.3.0.202004-gnurx-elf\rx-elf\rx-elf\rx-elf\include\c++\8.3.0.202004-gnurx\cmath ****   sqrt(float __x)
 464:c:\gcc for renesas rx 8.3.0.202004-gnurx-elf\rx-elf\rx-elf\rx-elf\include\c++\8.3.0.202004-gnurx\cmath ****   { return __builtin_sqrtf(__x); }
 465:c:\gcc for renesas rx 8.3.0.202004-gnurx-elf\rx-elf\rx-elf\rx-elf\include\c++\8.3.0.202004-gnurx\cmath **** 
 466:c:\gcc for renesas rx 8.3.0.202004-gnurx-elf\rx-elf\rx-elf\rx-elf\include\c++\8.3.0.202004-gnurx\cmath ****   inline _GLIBCXX_CONSTEXPR long double
 467:c:\gcc for renesas rx 8.3.0.202004-gnurx-elf\rx-elf\rx-elf\rx-elf\include\c++\8.3.0.202004-gnurx\cmath ****   sqrt(long double __x)
 468:c:\gcc for renesas rx 8.3.0.202004-gnurx-elf\rx-elf\rx-elf\rx-elf\include\c++\8.3.0.202004-gnurx\cmath ****   { return __builtin_sqrtl(__x); }
 469:c:\gcc for renesas rx 8.3.0.202004-gnurx-elf\rx-elf\rx-elf\rx-elf\include\c++\8.3.0.202004-gnurx\cmath **** #endif
 470:c:\gcc for renesas rx 8.3.0.202004-gnurx-elf\rx-elf\rx-elf\rx-elf\include\c++\8.3.0.202004-gnurx\cmath **** 
 471:c:\gcc for renesas rx 8.3.0.202004-gnurx-elf\rx-elf\rx-elf\rx-elf\include\c++\8.3.0.202004-gnurx\cmath ****   template<typename _Tp>
 472:c:\gcc for renesas rx 8.3.0.202004-gnurx-elf\rx-elf\rx-elf\rx-elf\include\c++\8.3.0.202004-gnurx\cmath ****     inline _GLIBCXX_CONSTEXPR
 473:c:\gcc for renesas rx 8.3.0.202004-gnurx-elf\rx-elf\rx-elf\rx-elf\include\c++\8.3.0.202004-gnurx\cmath ****     typename __gnu_cxx::__enable_if<__is_integer<_Tp>::__value, 
 474:c:\gcc for renesas rx 8.3.0.202004-gnurx-elf\rx-elf\rx-elf\rx-elf\include\c++\8.3.0.202004-gnurx\cmath ****                                     double>::__type
 475:c:\gcc for renesas rx 8.3.0.202004-gnurx-elf\rx-elf\rx-elf\rx-elf\include\c++\8.3.0.202004-gnurx\cmath ****     sqrt(_Tp __x)
 476:c:\gcc for renesas rx 8.3.0.202004-gnurx-elf\rx-elf\rx-elf\rx-elf\include\c++\8.3.0.202004-gnurx\cmath ****     { return __builtin_sqrt(__x); }
 477:c:\gcc for renesas rx 8.3.0.202004-gnurx-elf\rx-elf\rx-elf\rx-elf\include\c++\8.3.0.202004-gnurx\cmath **** 
 478:c:\gcc for renesas rx 8.3.0.202004-gnurx-elf\rx-elf\rx-elf\rx-elf\include\c++\8.3.0.202004-gnurx\cmath ****   using ::tan;
 479:c:\gcc for renesas rx 8.3.0.202004-gnurx-elf\rx-elf\rx-elf\rx-elf\include\c++\8.3.0.202004-gnurx\cmath **** 
 480:c:\gcc for renesas rx 8.3.0.202004-gnurx-elf\rx-elf\rx-elf\rx-elf\include\c++\8.3.0.202004-gnurx\cmath **** #ifndef __CORRECT_ISO_CPP_MATH_H_PROTO
 481:c:\gcc for renesas rx 8.3.0.202004-gnurx-elf\rx-elf\rx-elf\rx-elf\include\c++\8.3.0.202004-gnurx\cmath ****   inline _GLIBCXX_CONSTEXPR float
 482:c:\gcc for renesas rx 8.3.0.202004-gnurx-elf\rx-elf\rx-elf\rx-elf\include\c++\8.3.0.202004-gnurx\cmath ****   tan(float __x)
 483:c:\gcc for renesas rx 8.3.0.202004-gnurx-elf\rx-elf\rx-elf\rx-elf\include\c++\8.3.0.202004-gnurx\cmath ****   { return __builtin_tanf(__x); }
 484:c:\gcc for renesas rx 8.3.0.202004-gnurx-elf\rx-elf\rx-elf\rx-elf\include\c++\8.3.0.202004-gnurx\cmath **** 
 485:c:\gcc for renesas rx 8.3.0.202004-gnurx-elf\rx-elf\rx-elf\rx-elf\include\c++\8.3.0.202004-gnurx\cmath ****   inline _GLIBCXX_CONSTEXPR long double
 486:c:\gcc for renesas rx 8.3.0.202004-gnurx-elf\rx-elf\rx-elf\rx-elf\include\c++\8.3.0.202004-gnurx\cmath ****   tan(long double __x)
 487:c:\gcc for renesas rx 8.3.0.202004-gnurx-elf\rx-elf\rx-elf\rx-elf\include\c++\8.3.0.202004-gnurx\cmath ****   { return __builtin_tanl(__x); }
 488:c:\gcc for renesas rx 8.3.0.202004-gnurx-elf\rx-elf\rx-elf\rx-elf\include\c++\8.3.0.202004-gnurx\cmath **** #endif
 489:c:\gcc for renesas rx 8.3.0.202004-gnurx-elf\rx-elf\rx-elf\rx-elf\include\c++\8.3.0.202004-gnurx\cmath **** 
 490:c:\gcc for renesas rx 8.3.0.202004-gnurx-elf\rx-elf\rx-elf\rx-elf\include\c++\8.3.0.202004-gnurx\cmath ****   template<typename _Tp>
 491:c:\gcc for renesas rx 8.3.0.202004-gnurx-elf\rx-elf\rx-elf\rx-elf\include\c++\8.3.0.202004-gnurx\cmath ****     inline _GLIBCXX_CONSTEXPR
 492:c:\gcc for renesas rx 8.3.0.202004-gnurx-elf\rx-elf\rx-elf\rx-elf\include\c++\8.3.0.202004-gnurx\cmath ****     typename __gnu_cxx::__enable_if<__is_integer<_Tp>::__value, 
 493:c:\gcc for renesas rx 8.3.0.202004-gnurx-elf\rx-elf\rx-elf\rx-elf\include\c++\8.3.0.202004-gnurx\cmath ****                                     double>::__type
 494:c:\gcc for renesas rx 8.3.0.202004-gnurx-elf\rx-elf\rx-elf\rx-elf\include\c++\8.3.0.202004-gnurx\cmath ****     tan(_Tp __x)
 495:c:\gcc for renesas rx 8.3.0.202004-gnurx-elf\rx-elf\rx-elf\rx-elf\include\c++\8.3.0.202004-gnurx\cmath ****     { return __builtin_tan(__x); }
 496:c:\gcc for renesas rx 8.3.0.202004-gnurx-elf\rx-elf\rx-elf\rx-elf\include\c++\8.3.0.202004-gnurx\cmath **** 
 497:c:\gcc for renesas rx 8.3.0.202004-gnurx-elf\rx-elf\rx-elf\rx-elf\include\c++\8.3.0.202004-gnurx\cmath ****   using ::tanh;
 498:c:\gcc for renesas rx 8.3.0.202004-gnurx-elf\rx-elf\rx-elf\rx-elf\include\c++\8.3.0.202004-gnurx\cmath **** 
 499:c:\gcc for renesas rx 8.3.0.202004-gnurx-elf\rx-elf\rx-elf\rx-elf\include\c++\8.3.0.202004-gnurx\cmath **** #ifndef __CORRECT_ISO_CPP_MATH_H_PROTO
 500:c:\gcc for renesas rx 8.3.0.202004-gnurx-elf\rx-elf\rx-elf\rx-elf\include\c++\8.3.0.202004-gnurx\cmath ****   inline _GLIBCXX_CONSTEXPR float
 501:c:\gcc for renesas rx 8.3.0.202004-gnurx-elf\rx-elf\rx-elf\rx-elf\include\c++\8.3.0.202004-gnurx\cmath ****   tanh(float __x)
 502:c:\gcc for renesas rx 8.3.0.202004-gnurx-elf\rx-elf\rx-elf\rx-elf\include\c++\8.3.0.202004-gnurx\cmath ****   { return __builtin_tanhf(__x); }
 503:c:\gcc for renesas rx 8.3.0.202004-gnurx-elf\rx-elf\rx-elf\rx-elf\include\c++\8.3.0.202004-gnurx\cmath **** 
 504:c:\gcc for renesas rx 8.3.0.202004-gnurx-elf\rx-elf\rx-elf\rx-elf\include\c++\8.3.0.202004-gnurx\cmath ****   inline _GLIBCXX_CONSTEXPR long double
 505:c:\gcc for renesas rx 8.3.0.202004-gnurx-elf\rx-elf\rx-elf\rx-elf\include\c++\8.3.0.202004-gnurx\cmath ****   tanh(long double __x)
 506:c:\gcc for renesas rx 8.3.0.202004-gnurx-elf\rx-elf\rx-elf\rx-elf\include\c++\8.3.0.202004-gnurx\cmath ****   { return __builtin_tanhl(__x); }
 507:c:\gcc for renesas rx 8.3.0.202004-gnurx-elf\rx-elf\rx-elf\rx-elf\include\c++\8.3.0.202004-gnurx\cmath **** #endif
 508:c:\gcc for renesas rx 8.3.0.202004-gnurx-elf\rx-elf\rx-elf\rx-elf\include\c++\8.3.0.202004-gnurx\cmath **** 
 509:c:\gcc for renesas rx 8.3.0.202004-gnurx-elf\rx-elf\rx-elf\rx-elf\include\c++\8.3.0.202004-gnurx\cmath ****   template<typename _Tp>
 510:c:\gcc for renesas rx 8.3.0.202004-gnurx-elf\rx-elf\rx-elf\rx-elf\include\c++\8.3.0.202004-gnurx\cmath ****     inline _GLIBCXX_CONSTEXPR
 511:c:\gcc for renesas rx 8.3.0.202004-gnurx-elf\rx-elf\rx-elf\rx-elf\include\c++\8.3.0.202004-gnurx\cmath ****     typename __gnu_cxx::__enable_if<__is_integer<_Tp>::__value, 
 512:c:\gcc for renesas rx 8.3.0.202004-gnurx-elf\rx-elf\rx-elf\rx-elf\include\c++\8.3.0.202004-gnurx\cmath ****                                     double>::__type
 513:c:\gcc for renesas rx 8.3.0.202004-gnurx-elf\rx-elf\rx-elf\rx-elf\include\c++\8.3.0.202004-gnurx\cmath ****     tanh(_Tp __x)
 514:c:\gcc for renesas rx 8.3.0.202004-gnurx-elf\rx-elf\rx-elf\rx-elf\include\c++\8.3.0.202004-gnurx\cmath ****     { return __builtin_tanh(__x); }
 515:c:\gcc for renesas rx 8.3.0.202004-gnurx-elf\rx-elf\rx-elf\rx-elf\include\c++\8.3.0.202004-gnurx\cmath **** 
 516:c:\gcc for renesas rx 8.3.0.202004-gnurx-elf\rx-elf\rx-elf\rx-elf\include\c++\8.3.0.202004-gnurx\cmath **** #if _GLIBCXX_USE_C99_MATH
 517:c:\gcc for renesas rx 8.3.0.202004-gnurx-elf\rx-elf\rx-elf\rx-elf\include\c++\8.3.0.202004-gnurx\cmath **** #if !_GLIBCXX_USE_C99_FP_MACROS_DYNAMIC
 518:c:\gcc for renesas rx 8.3.0.202004-gnurx-elf\rx-elf\rx-elf\rx-elf\include\c++\8.3.0.202004-gnurx\cmath **** 
 519:c:\gcc for renesas rx 8.3.0.202004-gnurx-elf\rx-elf\rx-elf\rx-elf\include\c++\8.3.0.202004-gnurx\cmath **** // These are possible macros imported from C99-land.
 520:c:\gcc for renesas rx 8.3.0.202004-gnurx-elf\rx-elf\rx-elf\rx-elf\include\c++\8.3.0.202004-gnurx\cmath **** #undef fpclassify
 521:c:\gcc for renesas rx 8.3.0.202004-gnurx-elf\rx-elf\rx-elf\rx-elf\include\c++\8.3.0.202004-gnurx\cmath **** #undef isfinite
 522:c:\gcc for renesas rx 8.3.0.202004-gnurx-elf\rx-elf\rx-elf\rx-elf\include\c++\8.3.0.202004-gnurx\cmath **** #undef isinf
 523:c:\gcc for renesas rx 8.3.0.202004-gnurx-elf\rx-elf\rx-elf\rx-elf\include\c++\8.3.0.202004-gnurx\cmath **** #undef isnan
 524:c:\gcc for renesas rx 8.3.0.202004-gnurx-elf\rx-elf\rx-elf\rx-elf\include\c++\8.3.0.202004-gnurx\cmath **** #undef isnormal
 525:c:\gcc for renesas rx 8.3.0.202004-gnurx-elf\rx-elf\rx-elf\rx-elf\include\c++\8.3.0.202004-gnurx\cmath **** #undef signbit
 526:c:\gcc for renesas rx 8.3.0.202004-gnurx-elf\rx-elf\rx-elf\rx-elf\include\c++\8.3.0.202004-gnurx\cmath **** #undef isgreater
 527:c:\gcc for renesas rx 8.3.0.202004-gnurx-elf\rx-elf\rx-elf\rx-elf\include\c++\8.3.0.202004-gnurx\cmath **** #undef isgreaterequal
 528:c:\gcc for renesas rx 8.3.0.202004-gnurx-elf\rx-elf\rx-elf\rx-elf\include\c++\8.3.0.202004-gnurx\cmath **** #undef isless
 529:c:\gcc for renesas rx 8.3.0.202004-gnurx-elf\rx-elf\rx-elf\rx-elf\include\c++\8.3.0.202004-gnurx\cmath **** #undef islessequal
 530:c:\gcc for renesas rx 8.3.0.202004-gnurx-elf\rx-elf\rx-elf\rx-elf\include\c++\8.3.0.202004-gnurx\cmath **** #undef islessgreater
 531:c:\gcc for renesas rx 8.3.0.202004-gnurx-elf\rx-elf\rx-elf\rx-elf\include\c++\8.3.0.202004-gnurx\cmath **** #undef isunordered
 532:c:\gcc for renesas rx 8.3.0.202004-gnurx-elf\rx-elf\rx-elf\rx-elf\include\c++\8.3.0.202004-gnurx\cmath **** 
 533:c:\gcc for renesas rx 8.3.0.202004-gnurx-elf\rx-elf\rx-elf\rx-elf\include\c++\8.3.0.202004-gnurx\cmath **** #if __cplusplus >= 201103L
 534:c:\gcc for renesas rx 8.3.0.202004-gnurx-elf\rx-elf\rx-elf\rx-elf\include\c++\8.3.0.202004-gnurx\cmath **** 
 535:c:\gcc for renesas rx 8.3.0.202004-gnurx-elf\rx-elf\rx-elf\rx-elf\include\c++\8.3.0.202004-gnurx\cmath **** #ifndef __CORRECT_ISO_CPP11_MATH_H_PROTO_FP
 536:c:\gcc for renesas rx 8.3.0.202004-gnurx-elf\rx-elf\rx-elf\rx-elf\include\c++\8.3.0.202004-gnurx\cmath ****   constexpr int
 537:c:\gcc for renesas rx 8.3.0.202004-gnurx-elf\rx-elf\rx-elf\rx-elf\include\c++\8.3.0.202004-gnurx\cmath ****   fpclassify(float __x)
 538:c:\gcc for renesas rx 8.3.0.202004-gnurx-elf\rx-elf\rx-elf\rx-elf\include\c++\8.3.0.202004-gnurx\cmath ****   { return __builtin_fpclassify(FP_NAN, FP_INFINITE, FP_NORMAL,
 539:c:\gcc for renesas rx 8.3.0.202004-gnurx-elf\rx-elf\rx-elf\rx-elf\include\c++\8.3.0.202004-gnurx\cmath **** 				FP_SUBNORMAL, FP_ZERO, __x); }
 540:c:\gcc for renesas rx 8.3.0.202004-gnurx-elf\rx-elf\rx-elf\rx-elf\include\c++\8.3.0.202004-gnurx\cmath **** 
 541:c:\gcc for renesas rx 8.3.0.202004-gnurx-elf\rx-elf\rx-elf\rx-elf\include\c++\8.3.0.202004-gnurx\cmath ****   constexpr int
 542:c:\gcc for renesas rx 8.3.0.202004-gnurx-elf\rx-elf\rx-elf\rx-elf\include\c++\8.3.0.202004-gnurx\cmath ****   fpclassify(double __x)
 543:c:\gcc for renesas rx 8.3.0.202004-gnurx-elf\rx-elf\rx-elf\rx-elf\include\c++\8.3.0.202004-gnurx\cmath ****   { return __builtin_fpclassify(FP_NAN, FP_INFINITE, FP_NORMAL,
 544:c:\gcc for renesas rx 8.3.0.202004-gnurx-elf\rx-elf\rx-elf\rx-elf\include\c++\8.3.0.202004-gnurx\cmath **** 				FP_SUBNORMAL, FP_ZERO, __x); }
 545:c:\gcc for renesas rx 8.3.0.202004-gnurx-elf\rx-elf\rx-elf\rx-elf\include\c++\8.3.0.202004-gnurx\cmath **** 
 546:c:\gcc for renesas rx 8.3.0.202004-gnurx-elf\rx-elf\rx-elf\rx-elf\include\c++\8.3.0.202004-gnurx\cmath ****   constexpr int
 547:c:\gcc for renesas rx 8.3.0.202004-gnurx-elf\rx-elf\rx-elf\rx-elf\include\c++\8.3.0.202004-gnurx\cmath ****   fpclassify(long double __x)
 548:c:\gcc for renesas rx 8.3.0.202004-gnurx-elf\rx-elf\rx-elf\rx-elf\include\c++\8.3.0.202004-gnurx\cmath ****   { return __builtin_fpclassify(FP_NAN, FP_INFINITE, FP_NORMAL,
 549:c:\gcc for renesas rx 8.3.0.202004-gnurx-elf\rx-elf\rx-elf\rx-elf\include\c++\8.3.0.202004-gnurx\cmath **** 				FP_SUBNORMAL, FP_ZERO, __x); }
 550:c:\gcc for renesas rx 8.3.0.202004-gnurx-elf\rx-elf\rx-elf\rx-elf\include\c++\8.3.0.202004-gnurx\cmath **** #endif
 551:c:\gcc for renesas rx 8.3.0.202004-gnurx-elf\rx-elf\rx-elf\rx-elf\include\c++\8.3.0.202004-gnurx\cmath **** 
 552:c:\gcc for renesas rx 8.3.0.202004-gnurx-elf\rx-elf\rx-elf\rx-elf\include\c++\8.3.0.202004-gnurx\cmath **** #ifndef __CORRECT_ISO_CPP11_MATH_H_PROTO_INT
 553:c:\gcc for renesas rx 8.3.0.202004-gnurx-elf\rx-elf\rx-elf\rx-elf\include\c++\8.3.0.202004-gnurx\cmath ****   template<typename _Tp>
 554:c:\gcc for renesas rx 8.3.0.202004-gnurx-elf\rx-elf\rx-elf\rx-elf\include\c++\8.3.0.202004-gnurx\cmath ****     constexpr typename __gnu_cxx::__enable_if<__is_integer<_Tp>::__value,
 555:c:\gcc for renesas rx 8.3.0.202004-gnurx-elf\rx-elf\rx-elf\rx-elf\include\c++\8.3.0.202004-gnurx\cmath ****                                               int>::__type
 556:c:\gcc for renesas rx 8.3.0.202004-gnurx-elf\rx-elf\rx-elf\rx-elf\include\c++\8.3.0.202004-gnurx\cmath ****     fpclassify(_Tp __x)
 557:c:\gcc for renesas rx 8.3.0.202004-gnurx-elf\rx-elf\rx-elf\rx-elf\include\c++\8.3.0.202004-gnurx\cmath ****     { return __x != 0 ? FP_NORMAL : FP_ZERO; }
 558:c:\gcc for renesas rx 8.3.0.202004-gnurx-elf\rx-elf\rx-elf\rx-elf\include\c++\8.3.0.202004-gnurx\cmath **** #endif
 559:c:\gcc for renesas rx 8.3.0.202004-gnurx-elf\rx-elf\rx-elf\rx-elf\include\c++\8.3.0.202004-gnurx\cmath **** 
 560:c:\gcc for renesas rx 8.3.0.202004-gnurx-elf\rx-elf\rx-elf\rx-elf\include\c++\8.3.0.202004-gnurx\cmath **** #ifndef __CORRECT_ISO_CPP11_MATH_H_PROTO_FP
 561:c:\gcc for renesas rx 8.3.0.202004-gnurx-elf\rx-elf\rx-elf\rx-elf\include\c++\8.3.0.202004-gnurx\cmath ****   constexpr bool
 562:c:\gcc for renesas rx 8.3.0.202004-gnurx-elf\rx-elf\rx-elf\rx-elf\include\c++\8.3.0.202004-gnurx\cmath ****   isfinite(float __x)
 563:c:\gcc for renesas rx 8.3.0.202004-gnurx-elf\rx-elf\rx-elf\rx-elf\include\c++\8.3.0.202004-gnurx\cmath ****   { return __builtin_isfinite(__x); }
 564:c:\gcc for renesas rx 8.3.0.202004-gnurx-elf\rx-elf\rx-elf\rx-elf\include\c++\8.3.0.202004-gnurx\cmath **** 
 565:c:\gcc for renesas rx 8.3.0.202004-gnurx-elf\rx-elf\rx-elf\rx-elf\include\c++\8.3.0.202004-gnurx\cmath ****   constexpr bool
 566:c:\gcc for renesas rx 8.3.0.202004-gnurx-elf\rx-elf\rx-elf\rx-elf\include\c++\8.3.0.202004-gnurx\cmath ****   isfinite(double __x)
 567:c:\gcc for renesas rx 8.3.0.202004-gnurx-elf\rx-elf\rx-elf\rx-elf\include\c++\8.3.0.202004-gnurx\cmath ****   { return __builtin_isfinite(__x); }
 568:c:\gcc for renesas rx 8.3.0.202004-gnurx-elf\rx-elf\rx-elf\rx-elf\include\c++\8.3.0.202004-gnurx\cmath **** 
 569:c:\gcc for renesas rx 8.3.0.202004-gnurx-elf\rx-elf\rx-elf\rx-elf\include\c++\8.3.0.202004-gnurx\cmath ****   constexpr bool
 570:c:\gcc for renesas rx 8.3.0.202004-gnurx-elf\rx-elf\rx-elf\rx-elf\include\c++\8.3.0.202004-gnurx\cmath ****   isfinite(long double __x)
 571:c:\gcc for renesas rx 8.3.0.202004-gnurx-elf\rx-elf\rx-elf\rx-elf\include\c++\8.3.0.202004-gnurx\cmath ****   { return __builtin_isfinite(__x); }
 572:c:\gcc for renesas rx 8.3.0.202004-gnurx-elf\rx-elf\rx-elf\rx-elf\include\c++\8.3.0.202004-gnurx\cmath **** #endif
 573:c:\gcc for renesas rx 8.3.0.202004-gnurx-elf\rx-elf\rx-elf\rx-elf\include\c++\8.3.0.202004-gnurx\cmath **** 
 574:c:\gcc for renesas rx 8.3.0.202004-gnurx-elf\rx-elf\rx-elf\rx-elf\include\c++\8.3.0.202004-gnurx\cmath **** #ifndef __CORRECT_ISO_CPP11_MATH_H_PROTO_INT
 575:c:\gcc for renesas rx 8.3.0.202004-gnurx-elf\rx-elf\rx-elf\rx-elf\include\c++\8.3.0.202004-gnurx\cmath ****   template<typename _Tp>
 576:c:\gcc for renesas rx 8.3.0.202004-gnurx-elf\rx-elf\rx-elf\rx-elf\include\c++\8.3.0.202004-gnurx\cmath ****     constexpr typename __gnu_cxx::__enable_if<__is_integer<_Tp>::__value,
 577:c:\gcc for renesas rx 8.3.0.202004-gnurx-elf\rx-elf\rx-elf\rx-elf\include\c++\8.3.0.202004-gnurx\cmath ****                                               bool>::__type
 578:c:\gcc for renesas rx 8.3.0.202004-gnurx-elf\rx-elf\rx-elf\rx-elf\include\c++\8.3.0.202004-gnurx\cmath ****     isfinite(_Tp __x)
 579:c:\gcc for renesas rx 8.3.0.202004-gnurx-elf\rx-elf\rx-elf\rx-elf\include\c++\8.3.0.202004-gnurx\cmath ****     { return true; }
 580:c:\gcc for renesas rx 8.3.0.202004-gnurx-elf\rx-elf\rx-elf\rx-elf\include\c++\8.3.0.202004-gnurx\cmath **** #endif
 581:c:\gcc for renesas rx 8.3.0.202004-gnurx-elf\rx-elf\rx-elf\rx-elf\include\c++\8.3.0.202004-gnurx\cmath **** 
 582:c:\gcc for renesas rx 8.3.0.202004-gnurx-elf\rx-elf\rx-elf\rx-elf\include\c++\8.3.0.202004-gnurx\cmath **** #ifndef __CORRECT_ISO_CPP11_MATH_H_PROTO_FP
 583:c:\gcc for renesas rx 8.3.0.202004-gnurx-elf\rx-elf\rx-elf\rx-elf\include\c++\8.3.0.202004-gnurx\cmath ****   constexpr bool
 584:c:\gcc for renesas rx 8.3.0.202004-gnurx-elf\rx-elf\rx-elf\rx-elf\include\c++\8.3.0.202004-gnurx\cmath ****   isinf(float __x)
 585:c:\gcc for renesas rx 8.3.0.202004-gnurx-elf\rx-elf\rx-elf\rx-elf\include\c++\8.3.0.202004-gnurx\cmath ****   { return __builtin_isinf(__x); }
 586:c:\gcc for renesas rx 8.3.0.202004-gnurx-elf\rx-elf\rx-elf\rx-elf\include\c++\8.3.0.202004-gnurx\cmath **** 
 587:c:\gcc for renesas rx 8.3.0.202004-gnurx-elf\rx-elf\rx-elf\rx-elf\include\c++\8.3.0.202004-gnurx\cmath **** #if _GLIBCXX_HAVE_OBSOLETE_ISINF \
 588:c:\gcc for renesas rx 8.3.0.202004-gnurx-elf\rx-elf\rx-elf\rx-elf\include\c++\8.3.0.202004-gnurx\cmath ****   && !_GLIBCXX_NO_OBSOLETE_ISINF_ISNAN_DYNAMIC
 589:c:\gcc for renesas rx 8.3.0.202004-gnurx-elf\rx-elf\rx-elf\rx-elf\include\c++\8.3.0.202004-gnurx\cmath ****   using ::isinf;
 590:c:\gcc for renesas rx 8.3.0.202004-gnurx-elf\rx-elf\rx-elf\rx-elf\include\c++\8.3.0.202004-gnurx\cmath **** #else
 591:c:\gcc for renesas rx 8.3.0.202004-gnurx-elf\rx-elf\rx-elf\rx-elf\include\c++\8.3.0.202004-gnurx\cmath ****   constexpr bool
 592:c:\gcc for renesas rx 8.3.0.202004-gnurx-elf\rx-elf\rx-elf\rx-elf\include\c++\8.3.0.202004-gnurx\cmath ****   isinf(double __x)
 593:c:\gcc for renesas rx 8.3.0.202004-gnurx-elf\rx-elf\rx-elf\rx-elf\include\c++\8.3.0.202004-gnurx\cmath ****   { return __builtin_isinf(__x); }
 594:c:\gcc for renesas rx 8.3.0.202004-gnurx-elf\rx-elf\rx-elf\rx-elf\include\c++\8.3.0.202004-gnurx\cmath **** #endif
 595:c:\gcc for renesas rx 8.3.0.202004-gnurx-elf\rx-elf\rx-elf\rx-elf\include\c++\8.3.0.202004-gnurx\cmath **** 
 596:c:\gcc for renesas rx 8.3.0.202004-gnurx-elf\rx-elf\rx-elf\rx-elf\include\c++\8.3.0.202004-gnurx\cmath ****   constexpr bool
 597:c:\gcc for renesas rx 8.3.0.202004-gnurx-elf\rx-elf\rx-elf\rx-elf\include\c++\8.3.0.202004-gnurx\cmath ****   isinf(long double __x)
 598:c:\gcc for renesas rx 8.3.0.202004-gnurx-elf\rx-elf\rx-elf\rx-elf\include\c++\8.3.0.202004-gnurx\cmath ****   { return __builtin_isinf(__x); }
 599:c:\gcc for renesas rx 8.3.0.202004-gnurx-elf\rx-elf\rx-elf\rx-elf\include\c++\8.3.0.202004-gnurx\cmath **** #endif
 600:c:\gcc for renesas rx 8.3.0.202004-gnurx-elf\rx-elf\rx-elf\rx-elf\include\c++\8.3.0.202004-gnurx\cmath **** 
 601:c:\gcc for renesas rx 8.3.0.202004-gnurx-elf\rx-elf\rx-elf\rx-elf\include\c++\8.3.0.202004-gnurx\cmath **** #ifndef __CORRECT_ISO_CPP11_MATH_H_PROTO_INT
 602:c:\gcc for renesas rx 8.3.0.202004-gnurx-elf\rx-elf\rx-elf\rx-elf\include\c++\8.3.0.202004-gnurx\cmath ****   template<typename _Tp>
 603:c:\gcc for renesas rx 8.3.0.202004-gnurx-elf\rx-elf\rx-elf\rx-elf\include\c++\8.3.0.202004-gnurx\cmath ****     constexpr typename __gnu_cxx::__enable_if<__is_integer<_Tp>::__value,
 604:c:\gcc for renesas rx 8.3.0.202004-gnurx-elf\rx-elf\rx-elf\rx-elf\include\c++\8.3.0.202004-gnurx\cmath ****                                               bool>::__type
 605:c:\gcc for renesas rx 8.3.0.202004-gnurx-elf\rx-elf\rx-elf\rx-elf\include\c++\8.3.0.202004-gnurx\cmath ****     isinf(_Tp __x)
 606:c:\gcc for renesas rx 8.3.0.202004-gnurx-elf\rx-elf\rx-elf\rx-elf\include\c++\8.3.0.202004-gnurx\cmath ****     { return false; }
 607:c:\gcc for renesas rx 8.3.0.202004-gnurx-elf\rx-elf\rx-elf\rx-elf\include\c++\8.3.0.202004-gnurx\cmath **** #endif
 608:c:\gcc for renesas rx 8.3.0.202004-gnurx-elf\rx-elf\rx-elf\rx-elf\include\c++\8.3.0.202004-gnurx\cmath **** 
 609:c:\gcc for renesas rx 8.3.0.202004-gnurx-elf\rx-elf\rx-elf\rx-elf\include\c++\8.3.0.202004-gnurx\cmath **** #ifndef __CORRECT_ISO_CPP11_MATH_H_PROTO_FP
 610:c:\gcc for renesas rx 8.3.0.202004-gnurx-elf\rx-elf\rx-elf\rx-elf\include\c++\8.3.0.202004-gnurx\cmath ****   constexpr bool
 611:c:\gcc for renesas rx 8.3.0.202004-gnurx-elf\rx-elf\rx-elf\rx-elf\include\c++\8.3.0.202004-gnurx\cmath ****   isnan(float __x)
 612:c:\gcc for renesas rx 8.3.0.202004-gnurx-elf\rx-elf\rx-elf\rx-elf\include\c++\8.3.0.202004-gnurx\cmath ****   { return __builtin_isnan(__x); }
 613:c:\gcc for renesas rx 8.3.0.202004-gnurx-elf\rx-elf\rx-elf\rx-elf\include\c++\8.3.0.202004-gnurx\cmath **** 
 614:c:\gcc for renesas rx 8.3.0.202004-gnurx-elf\rx-elf\rx-elf\rx-elf\include\c++\8.3.0.202004-gnurx\cmath **** #if _GLIBCXX_HAVE_OBSOLETE_ISNAN \
 615:c:\gcc for renesas rx 8.3.0.202004-gnurx-elf\rx-elf\rx-elf\rx-elf\include\c++\8.3.0.202004-gnurx\cmath ****   && !_GLIBCXX_NO_OBSOLETE_ISINF_ISNAN_DYNAMIC
 616:c:\gcc for renesas rx 8.3.0.202004-gnurx-elf\rx-elf\rx-elf\rx-elf\include\c++\8.3.0.202004-gnurx\cmath ****   using ::isnan;
 617:c:\gcc for renesas rx 8.3.0.202004-gnurx-elf\rx-elf\rx-elf\rx-elf\include\c++\8.3.0.202004-gnurx\cmath **** #else
 618:c:\gcc for renesas rx 8.3.0.202004-gnurx-elf\rx-elf\rx-elf\rx-elf\include\c++\8.3.0.202004-gnurx\cmath ****   constexpr bool
 619:c:\gcc for renesas rx 8.3.0.202004-gnurx-elf\rx-elf\rx-elf\rx-elf\include\c++\8.3.0.202004-gnurx\cmath ****   isnan(double __x)
 620:c:\gcc for renesas rx 8.3.0.202004-gnurx-elf\rx-elf\rx-elf\rx-elf\include\c++\8.3.0.202004-gnurx\cmath ****   { return __builtin_isnan(__x); }
 621:c:\gcc for renesas rx 8.3.0.202004-gnurx-elf\rx-elf\rx-elf\rx-elf\include\c++\8.3.0.202004-gnurx\cmath **** #endif
 622:c:\gcc for renesas rx 8.3.0.202004-gnurx-elf\rx-elf\rx-elf\rx-elf\include\c++\8.3.0.202004-gnurx\cmath **** 
 623:c:\gcc for renesas rx 8.3.0.202004-gnurx-elf\rx-elf\rx-elf\rx-elf\include\c++\8.3.0.202004-gnurx\cmath ****   constexpr bool
 624:c:\gcc for renesas rx 8.3.0.202004-gnurx-elf\rx-elf\rx-elf\rx-elf\include\c++\8.3.0.202004-gnurx\cmath ****   isnan(long double __x)
 625:c:\gcc for renesas rx 8.3.0.202004-gnurx-elf\rx-elf\rx-elf\rx-elf\include\c++\8.3.0.202004-gnurx\cmath ****   { return __builtin_isnan(__x); }
 626:c:\gcc for renesas rx 8.3.0.202004-gnurx-elf\rx-elf\rx-elf\rx-elf\include\c++\8.3.0.202004-gnurx\cmath **** #endif
 627:c:\gcc for renesas rx 8.3.0.202004-gnurx-elf\rx-elf\rx-elf\rx-elf\include\c++\8.3.0.202004-gnurx\cmath **** 
 628:c:\gcc for renesas rx 8.3.0.202004-gnurx-elf\rx-elf\rx-elf\rx-elf\include\c++\8.3.0.202004-gnurx\cmath **** #ifndef __CORRECT_ISO_CPP11_MATH_H_PROTO_INT
 629:c:\gcc for renesas rx 8.3.0.202004-gnurx-elf\rx-elf\rx-elf\rx-elf\include\c++\8.3.0.202004-gnurx\cmath ****   template<typename _Tp>
 630:c:\gcc for renesas rx 8.3.0.202004-gnurx-elf\rx-elf\rx-elf\rx-elf\include\c++\8.3.0.202004-gnurx\cmath ****     constexpr typename __gnu_cxx::__enable_if<__is_integer<_Tp>::__value,
 631:c:\gcc for renesas rx 8.3.0.202004-gnurx-elf\rx-elf\rx-elf\rx-elf\include\c++\8.3.0.202004-gnurx\cmath ****                                               bool>::__type
 632:c:\gcc for renesas rx 8.3.0.202004-gnurx-elf\rx-elf\rx-elf\rx-elf\include\c++\8.3.0.202004-gnurx\cmath ****     isnan(_Tp __x)
 633:c:\gcc for renesas rx 8.3.0.202004-gnurx-elf\rx-elf\rx-elf\rx-elf\include\c++\8.3.0.202004-gnurx\cmath ****     { return false; }
 634:c:\gcc for renesas rx 8.3.0.202004-gnurx-elf\rx-elf\rx-elf\rx-elf\include\c++\8.3.0.202004-gnurx\cmath **** #endif
 635:c:\gcc for renesas rx 8.3.0.202004-gnurx-elf\rx-elf\rx-elf\rx-elf\include\c++\8.3.0.202004-gnurx\cmath **** 
 636:c:\gcc for renesas rx 8.3.0.202004-gnurx-elf\rx-elf\rx-elf\rx-elf\include\c++\8.3.0.202004-gnurx\cmath **** #ifndef __CORRECT_ISO_CPP11_MATH_H_PROTO_FP
 637:c:\gcc for renesas rx 8.3.0.202004-gnurx-elf\rx-elf\rx-elf\rx-elf\include\c++\8.3.0.202004-gnurx\cmath ****   constexpr bool
 638:c:\gcc for renesas rx 8.3.0.202004-gnurx-elf\rx-elf\rx-elf\rx-elf\include\c++\8.3.0.202004-gnurx\cmath ****   isnormal(float __x)
 639:c:\gcc for renesas rx 8.3.0.202004-gnurx-elf\rx-elf\rx-elf\rx-elf\include\c++\8.3.0.202004-gnurx\cmath ****   { return __builtin_isnormal(__x); }
 640:c:\gcc for renesas rx 8.3.0.202004-gnurx-elf\rx-elf\rx-elf\rx-elf\include\c++\8.3.0.202004-gnurx\cmath **** 
 641:c:\gcc for renesas rx 8.3.0.202004-gnurx-elf\rx-elf\rx-elf\rx-elf\include\c++\8.3.0.202004-gnurx\cmath ****   constexpr bool
 642:c:\gcc for renesas rx 8.3.0.202004-gnurx-elf\rx-elf\rx-elf\rx-elf\include\c++\8.3.0.202004-gnurx\cmath ****   isnormal(double __x)
 643:c:\gcc for renesas rx 8.3.0.202004-gnurx-elf\rx-elf\rx-elf\rx-elf\include\c++\8.3.0.202004-gnurx\cmath ****   { return __builtin_isnormal(__x); }
 644:c:\gcc for renesas rx 8.3.0.202004-gnurx-elf\rx-elf\rx-elf\rx-elf\include\c++\8.3.0.202004-gnurx\cmath **** 
 645:c:\gcc for renesas rx 8.3.0.202004-gnurx-elf\rx-elf\rx-elf\rx-elf\include\c++\8.3.0.202004-gnurx\cmath ****   constexpr bool
 646:c:\gcc for renesas rx 8.3.0.202004-gnurx-elf\rx-elf\rx-elf\rx-elf\include\c++\8.3.0.202004-gnurx\cmath ****   isnormal(long double __x)
 647:c:\gcc for renesas rx 8.3.0.202004-gnurx-elf\rx-elf\rx-elf\rx-elf\include\c++\8.3.0.202004-gnurx\cmath ****   { return __builtin_isnormal(__x); }
 648:c:\gcc for renesas rx 8.3.0.202004-gnurx-elf\rx-elf\rx-elf\rx-elf\include\c++\8.3.0.202004-gnurx\cmath **** #endif
 649:c:\gcc for renesas rx 8.3.0.202004-gnurx-elf\rx-elf\rx-elf\rx-elf\include\c++\8.3.0.202004-gnurx\cmath **** 
 650:c:\gcc for renesas rx 8.3.0.202004-gnurx-elf\rx-elf\rx-elf\rx-elf\include\c++\8.3.0.202004-gnurx\cmath **** #ifndef __CORRECT_ISO_CPP11_MATH_H_PROTO_INT
 651:c:\gcc for renesas rx 8.3.0.202004-gnurx-elf\rx-elf\rx-elf\rx-elf\include\c++\8.3.0.202004-gnurx\cmath ****   template<typename _Tp>
 652:c:\gcc for renesas rx 8.3.0.202004-gnurx-elf\rx-elf\rx-elf\rx-elf\include\c++\8.3.0.202004-gnurx\cmath ****     constexpr typename __gnu_cxx::__enable_if<__is_integer<_Tp>::__value,
 653:c:\gcc for renesas rx 8.3.0.202004-gnurx-elf\rx-elf\rx-elf\rx-elf\include\c++\8.3.0.202004-gnurx\cmath ****                                               bool>::__type
 654:c:\gcc for renesas rx 8.3.0.202004-gnurx-elf\rx-elf\rx-elf\rx-elf\include\c++\8.3.0.202004-gnurx\cmath ****     isnormal(_Tp __x)
 655:c:\gcc for renesas rx 8.3.0.202004-gnurx-elf\rx-elf\rx-elf\rx-elf\include\c++\8.3.0.202004-gnurx\cmath ****     { return __x != 0 ? true : false; }
 656:c:\gcc for renesas rx 8.3.0.202004-gnurx-elf\rx-elf\rx-elf\rx-elf\include\c++\8.3.0.202004-gnurx\cmath **** #endif
 657:c:\gcc for renesas rx 8.3.0.202004-gnurx-elf\rx-elf\rx-elf\rx-elf\include\c++\8.3.0.202004-gnurx\cmath **** 
 658:c:\gcc for renesas rx 8.3.0.202004-gnurx-elf\rx-elf\rx-elf\rx-elf\include\c++\8.3.0.202004-gnurx\cmath **** #ifndef __CORRECT_ISO_CPP11_MATH_H_PROTO_FP
 659:c:\gcc for renesas rx 8.3.0.202004-gnurx-elf\rx-elf\rx-elf\rx-elf\include\c++\8.3.0.202004-gnurx\cmath ****   // Note: middle-end/36757 is fixed, __builtin_signbit is type-generic.
 660:c:\gcc for renesas rx 8.3.0.202004-gnurx-elf\rx-elf\rx-elf\rx-elf\include\c++\8.3.0.202004-gnurx\cmath ****   constexpr bool
 661:c:\gcc for renesas rx 8.3.0.202004-gnurx-elf\rx-elf\rx-elf\rx-elf\include\c++\8.3.0.202004-gnurx\cmath ****   signbit(float __x)
 662:c:\gcc for renesas rx 8.3.0.202004-gnurx-elf\rx-elf\rx-elf\rx-elf\include\c++\8.3.0.202004-gnurx\cmath ****   { return __builtin_signbit(__x); }
 663:c:\gcc for renesas rx 8.3.0.202004-gnurx-elf\rx-elf\rx-elf\rx-elf\include\c++\8.3.0.202004-gnurx\cmath **** 
 664:c:\gcc for renesas rx 8.3.0.202004-gnurx-elf\rx-elf\rx-elf\rx-elf\include\c++\8.3.0.202004-gnurx\cmath ****   constexpr bool
 665:c:\gcc for renesas rx 8.3.0.202004-gnurx-elf\rx-elf\rx-elf\rx-elf\include\c++\8.3.0.202004-gnurx\cmath ****   signbit(double __x)
 666:c:\gcc for renesas rx 8.3.0.202004-gnurx-elf\rx-elf\rx-elf\rx-elf\include\c++\8.3.0.202004-gnurx\cmath ****   { return __builtin_signbit(__x); }
 667:c:\gcc for renesas rx 8.3.0.202004-gnurx-elf\rx-elf\rx-elf\rx-elf\include\c++\8.3.0.202004-gnurx\cmath **** 
 668:c:\gcc for renesas rx 8.3.0.202004-gnurx-elf\rx-elf\rx-elf\rx-elf\include\c++\8.3.0.202004-gnurx\cmath ****   constexpr bool
 669:c:\gcc for renesas rx 8.3.0.202004-gnurx-elf\rx-elf\rx-elf\rx-elf\include\c++\8.3.0.202004-gnurx\cmath ****   signbit(long double __x)
 670:c:\gcc for renesas rx 8.3.0.202004-gnurx-elf\rx-elf\rx-elf\rx-elf\include\c++\8.3.0.202004-gnurx\cmath ****   { return __builtin_signbit(__x); }
 671:c:\gcc for renesas rx 8.3.0.202004-gnurx-elf\rx-elf\rx-elf\rx-elf\include\c++\8.3.0.202004-gnurx\cmath **** #endif
 672:c:\gcc for renesas rx 8.3.0.202004-gnurx-elf\rx-elf\rx-elf\rx-elf\include\c++\8.3.0.202004-gnurx\cmath **** 
 673:c:\gcc for renesas rx 8.3.0.202004-gnurx-elf\rx-elf\rx-elf\rx-elf\include\c++\8.3.0.202004-gnurx\cmath **** #ifndef __CORRECT_ISO_CPP11_MATH_H_PROTO_INT
 674:c:\gcc for renesas rx 8.3.0.202004-gnurx-elf\rx-elf\rx-elf\rx-elf\include\c++\8.3.0.202004-gnurx\cmath ****   template<typename _Tp>
 675:c:\gcc for renesas rx 8.3.0.202004-gnurx-elf\rx-elf\rx-elf\rx-elf\include\c++\8.3.0.202004-gnurx\cmath ****     constexpr typename __gnu_cxx::__enable_if<__is_integer<_Tp>::__value,
 676:c:\gcc for renesas rx 8.3.0.202004-gnurx-elf\rx-elf\rx-elf\rx-elf\include\c++\8.3.0.202004-gnurx\cmath ****                                               bool>::__type
 677:c:\gcc for renesas rx 8.3.0.202004-gnurx-elf\rx-elf\rx-elf\rx-elf\include\c++\8.3.0.202004-gnurx\cmath ****     signbit(_Tp __x)
 678:c:\gcc for renesas rx 8.3.0.202004-gnurx-elf\rx-elf\rx-elf\rx-elf\include\c++\8.3.0.202004-gnurx\cmath ****     { return __x < 0 ? true : false; }
 679:c:\gcc for renesas rx 8.3.0.202004-gnurx-elf\rx-elf\rx-elf\rx-elf\include\c++\8.3.0.202004-gnurx\cmath **** #endif
 680:c:\gcc for renesas rx 8.3.0.202004-gnurx-elf\rx-elf\rx-elf\rx-elf\include\c++\8.3.0.202004-gnurx\cmath **** 
 681:c:\gcc for renesas rx 8.3.0.202004-gnurx-elf\rx-elf\rx-elf\rx-elf\include\c++\8.3.0.202004-gnurx\cmath **** #ifndef __CORRECT_ISO_CPP11_MATH_H_PROTO_FP
 682:c:\gcc for renesas rx 8.3.0.202004-gnurx-elf\rx-elf\rx-elf\rx-elf\include\c++\8.3.0.202004-gnurx\cmath ****   constexpr bool
 683:c:\gcc for renesas rx 8.3.0.202004-gnurx-elf\rx-elf\rx-elf\rx-elf\include\c++\8.3.0.202004-gnurx\cmath ****   isgreater(float __x, float __y)
 684:c:\gcc for renesas rx 8.3.0.202004-gnurx-elf\rx-elf\rx-elf\rx-elf\include\c++\8.3.0.202004-gnurx\cmath ****   { return __builtin_isgreater(__x, __y); }
 685:c:\gcc for renesas rx 8.3.0.202004-gnurx-elf\rx-elf\rx-elf\rx-elf\include\c++\8.3.0.202004-gnurx\cmath **** 
 686:c:\gcc for renesas rx 8.3.0.202004-gnurx-elf\rx-elf\rx-elf\rx-elf\include\c++\8.3.0.202004-gnurx\cmath ****   constexpr bool
 687:c:\gcc for renesas rx 8.3.0.202004-gnurx-elf\rx-elf\rx-elf\rx-elf\include\c++\8.3.0.202004-gnurx\cmath ****   isgreater(double __x, double __y)
 688:c:\gcc for renesas rx 8.3.0.202004-gnurx-elf\rx-elf\rx-elf\rx-elf\include\c++\8.3.0.202004-gnurx\cmath ****   { return __builtin_isgreater(__x, __y); }
 689:c:\gcc for renesas rx 8.3.0.202004-gnurx-elf\rx-elf\rx-elf\rx-elf\include\c++\8.3.0.202004-gnurx\cmath **** 
 690:c:\gcc for renesas rx 8.3.0.202004-gnurx-elf\rx-elf\rx-elf\rx-elf\include\c++\8.3.0.202004-gnurx\cmath ****   constexpr bool
 691:c:\gcc for renesas rx 8.3.0.202004-gnurx-elf\rx-elf\rx-elf\rx-elf\include\c++\8.3.0.202004-gnurx\cmath ****   isgreater(long double __x, long double __y)
 692:c:\gcc for renesas rx 8.3.0.202004-gnurx-elf\rx-elf\rx-elf\rx-elf\include\c++\8.3.0.202004-gnurx\cmath ****   { return __builtin_isgreater(__x, __y); }
 693:c:\gcc for renesas rx 8.3.0.202004-gnurx-elf\rx-elf\rx-elf\rx-elf\include\c++\8.3.0.202004-gnurx\cmath **** #endif
 694:c:\gcc for renesas rx 8.3.0.202004-gnurx-elf\rx-elf\rx-elf\rx-elf\include\c++\8.3.0.202004-gnurx\cmath **** 
 695:c:\gcc for renesas rx 8.3.0.202004-gnurx-elf\rx-elf\rx-elf\rx-elf\include\c++\8.3.0.202004-gnurx\cmath **** #ifndef __CORRECT_ISO_CPP11_MATH_H_PROTO_INT
 696:c:\gcc for renesas rx 8.3.0.202004-gnurx-elf\rx-elf\rx-elf\rx-elf\include\c++\8.3.0.202004-gnurx\cmath ****   template<typename _Tp, typename _Up>
 697:c:\gcc for renesas rx 8.3.0.202004-gnurx-elf\rx-elf\rx-elf\rx-elf\include\c++\8.3.0.202004-gnurx\cmath ****     constexpr typename
 698:c:\gcc for renesas rx 8.3.0.202004-gnurx-elf\rx-elf\rx-elf\rx-elf\include\c++\8.3.0.202004-gnurx\cmath ****     __gnu_cxx::__enable_if<(__is_arithmetic<_Tp>::__value
 699:c:\gcc for renesas rx 8.3.0.202004-gnurx-elf\rx-elf\rx-elf\rx-elf\include\c++\8.3.0.202004-gnurx\cmath **** 			    && __is_arithmetic<_Up>::__value), bool>::__type
 700:c:\gcc for renesas rx 8.3.0.202004-gnurx-elf\rx-elf\rx-elf\rx-elf\include\c++\8.3.0.202004-gnurx\cmath ****     isgreater(_Tp __x, _Up __y)
 701:c:\gcc for renesas rx 8.3.0.202004-gnurx-elf\rx-elf\rx-elf\rx-elf\include\c++\8.3.0.202004-gnurx\cmath ****     {
 702:c:\gcc for renesas rx 8.3.0.202004-gnurx-elf\rx-elf\rx-elf\rx-elf\include\c++\8.3.0.202004-gnurx\cmath ****       typedef typename __gnu_cxx::__promote_2<_Tp, _Up>::__type __type;
 703:c:\gcc for renesas rx 8.3.0.202004-gnurx-elf\rx-elf\rx-elf\rx-elf\include\c++\8.3.0.202004-gnurx\cmath ****       return __builtin_isgreater(__type(__x), __type(__y));
 704:c:\gcc for renesas rx 8.3.0.202004-gnurx-elf\rx-elf\rx-elf\rx-elf\include\c++\8.3.0.202004-gnurx\cmath ****     }
 705:c:\gcc for renesas rx 8.3.0.202004-gnurx-elf\rx-elf\rx-elf\rx-elf\include\c++\8.3.0.202004-gnurx\cmath **** #endif
 706:c:\gcc for renesas rx 8.3.0.202004-gnurx-elf\rx-elf\rx-elf\rx-elf\include\c++\8.3.0.202004-gnurx\cmath **** 
 707:c:\gcc for renesas rx 8.3.0.202004-gnurx-elf\rx-elf\rx-elf\rx-elf\include\c++\8.3.0.202004-gnurx\cmath **** #ifndef __CORRECT_ISO_CPP11_MATH_H_PROTO_FP
 708:c:\gcc for renesas rx 8.3.0.202004-gnurx-elf\rx-elf\rx-elf\rx-elf\include\c++\8.3.0.202004-gnurx\cmath ****   constexpr bool
 709:c:\gcc for renesas rx 8.3.0.202004-gnurx-elf\rx-elf\rx-elf\rx-elf\include\c++\8.3.0.202004-gnurx\cmath ****   isgreaterequal(float __x, float __y)
 710:c:\gcc for renesas rx 8.3.0.202004-gnurx-elf\rx-elf\rx-elf\rx-elf\include\c++\8.3.0.202004-gnurx\cmath ****   { return __builtin_isgreaterequal(__x, __y); }
 711:c:\gcc for renesas rx 8.3.0.202004-gnurx-elf\rx-elf\rx-elf\rx-elf\include\c++\8.3.0.202004-gnurx\cmath **** 
 712:c:\gcc for renesas rx 8.3.0.202004-gnurx-elf\rx-elf\rx-elf\rx-elf\include\c++\8.3.0.202004-gnurx\cmath ****   constexpr bool
 713:c:\gcc for renesas rx 8.3.0.202004-gnurx-elf\rx-elf\rx-elf\rx-elf\include\c++\8.3.0.202004-gnurx\cmath ****   isgreaterequal(double __x, double __y)
 714:c:\gcc for renesas rx 8.3.0.202004-gnurx-elf\rx-elf\rx-elf\rx-elf\include\c++\8.3.0.202004-gnurx\cmath ****   { return __builtin_isgreaterequal(__x, __y); }
 715:c:\gcc for renesas rx 8.3.0.202004-gnurx-elf\rx-elf\rx-elf\rx-elf\include\c++\8.3.0.202004-gnurx\cmath **** 
 716:c:\gcc for renesas rx 8.3.0.202004-gnurx-elf\rx-elf\rx-elf\rx-elf\include\c++\8.3.0.202004-gnurx\cmath ****   constexpr bool
 717:c:\gcc for renesas rx 8.3.0.202004-gnurx-elf\rx-elf\rx-elf\rx-elf\include\c++\8.3.0.202004-gnurx\cmath ****   isgreaterequal(long double __x, long double __y)
 718:c:\gcc for renesas rx 8.3.0.202004-gnurx-elf\rx-elf\rx-elf\rx-elf\include\c++\8.3.0.202004-gnurx\cmath ****   { return __builtin_isgreaterequal(__x, __y); }
 719:c:\gcc for renesas rx 8.3.0.202004-gnurx-elf\rx-elf\rx-elf\rx-elf\include\c++\8.3.0.202004-gnurx\cmath **** #endif
 720:c:\gcc for renesas rx 8.3.0.202004-gnurx-elf\rx-elf\rx-elf\rx-elf\include\c++\8.3.0.202004-gnurx\cmath **** 
 721:c:\gcc for renesas rx 8.3.0.202004-gnurx-elf\rx-elf\rx-elf\rx-elf\include\c++\8.3.0.202004-gnurx\cmath **** #ifndef __CORRECT_ISO_CPP11_MATH_H_PROTO_INT
 722:c:\gcc for renesas rx 8.3.0.202004-gnurx-elf\rx-elf\rx-elf\rx-elf\include\c++\8.3.0.202004-gnurx\cmath ****   template<typename _Tp, typename _Up>
 723:c:\gcc for renesas rx 8.3.0.202004-gnurx-elf\rx-elf\rx-elf\rx-elf\include\c++\8.3.0.202004-gnurx\cmath ****     constexpr typename
 724:c:\gcc for renesas rx 8.3.0.202004-gnurx-elf\rx-elf\rx-elf\rx-elf\include\c++\8.3.0.202004-gnurx\cmath ****     __gnu_cxx::__enable_if<(__is_arithmetic<_Tp>::__value
 725:c:\gcc for renesas rx 8.3.0.202004-gnurx-elf\rx-elf\rx-elf\rx-elf\include\c++\8.3.0.202004-gnurx\cmath **** 			    && __is_arithmetic<_Up>::__value), bool>::__type
 726:c:\gcc for renesas rx 8.3.0.202004-gnurx-elf\rx-elf\rx-elf\rx-elf\include\c++\8.3.0.202004-gnurx\cmath ****     isgreaterequal(_Tp __x, _Up __y)
 727:c:\gcc for renesas rx 8.3.0.202004-gnurx-elf\rx-elf\rx-elf\rx-elf\include\c++\8.3.0.202004-gnurx\cmath ****     {
 728:c:\gcc for renesas rx 8.3.0.202004-gnurx-elf\rx-elf\rx-elf\rx-elf\include\c++\8.3.0.202004-gnurx\cmath ****       typedef typename __gnu_cxx::__promote_2<_Tp, _Up>::__type __type;
 729:c:\gcc for renesas rx 8.3.0.202004-gnurx-elf\rx-elf\rx-elf\rx-elf\include\c++\8.3.0.202004-gnurx\cmath ****       return __builtin_isgreaterequal(__type(__x), __type(__y));
 730:c:\gcc for renesas rx 8.3.0.202004-gnurx-elf\rx-elf\rx-elf\rx-elf\include\c++\8.3.0.202004-gnurx\cmath ****     }
 731:c:\gcc for renesas rx 8.3.0.202004-gnurx-elf\rx-elf\rx-elf\rx-elf\include\c++\8.3.0.202004-gnurx\cmath **** #endif
 732:c:\gcc for renesas rx 8.3.0.202004-gnurx-elf\rx-elf\rx-elf\rx-elf\include\c++\8.3.0.202004-gnurx\cmath **** 
 733:c:\gcc for renesas rx 8.3.0.202004-gnurx-elf\rx-elf\rx-elf\rx-elf\include\c++\8.3.0.202004-gnurx\cmath **** #ifndef __CORRECT_ISO_CPP11_MATH_H_PROTO_FP
 734:c:\gcc for renesas rx 8.3.0.202004-gnurx-elf\rx-elf\rx-elf\rx-elf\include\c++\8.3.0.202004-gnurx\cmath ****   constexpr bool
 735:c:\gcc for renesas rx 8.3.0.202004-gnurx-elf\rx-elf\rx-elf\rx-elf\include\c++\8.3.0.202004-gnurx\cmath ****   isless(float __x, float __y)
 736:c:\gcc for renesas rx 8.3.0.202004-gnurx-elf\rx-elf\rx-elf\rx-elf\include\c++\8.3.0.202004-gnurx\cmath ****   { return __builtin_isless(__x, __y); }
 737:c:\gcc for renesas rx 8.3.0.202004-gnurx-elf\rx-elf\rx-elf\rx-elf\include\c++\8.3.0.202004-gnurx\cmath **** 
 738:c:\gcc for renesas rx 8.3.0.202004-gnurx-elf\rx-elf\rx-elf\rx-elf\include\c++\8.3.0.202004-gnurx\cmath ****   constexpr bool
 739:c:\gcc for renesas rx 8.3.0.202004-gnurx-elf\rx-elf\rx-elf\rx-elf\include\c++\8.3.0.202004-gnurx\cmath ****   isless(double __x, double __y)
 740:c:\gcc for renesas rx 8.3.0.202004-gnurx-elf\rx-elf\rx-elf\rx-elf\include\c++\8.3.0.202004-gnurx\cmath ****   { return __builtin_isless(__x, __y); }
 741:c:\gcc for renesas rx 8.3.0.202004-gnurx-elf\rx-elf\rx-elf\rx-elf\include\c++\8.3.0.202004-gnurx\cmath **** 
 742:c:\gcc for renesas rx 8.3.0.202004-gnurx-elf\rx-elf\rx-elf\rx-elf\include\c++\8.3.0.202004-gnurx\cmath ****   constexpr bool
 743:c:\gcc for renesas rx 8.3.0.202004-gnurx-elf\rx-elf\rx-elf\rx-elf\include\c++\8.3.0.202004-gnurx\cmath ****   isless(long double __x, long double __y)
 744:c:\gcc for renesas rx 8.3.0.202004-gnurx-elf\rx-elf\rx-elf\rx-elf\include\c++\8.3.0.202004-gnurx\cmath ****   { return __builtin_isless(__x, __y); }
 745:c:\gcc for renesas rx 8.3.0.202004-gnurx-elf\rx-elf\rx-elf\rx-elf\include\c++\8.3.0.202004-gnurx\cmath **** #endif
 746:c:\gcc for renesas rx 8.3.0.202004-gnurx-elf\rx-elf\rx-elf\rx-elf\include\c++\8.3.0.202004-gnurx\cmath **** 
 747:c:\gcc for renesas rx 8.3.0.202004-gnurx-elf\rx-elf\rx-elf\rx-elf\include\c++\8.3.0.202004-gnurx\cmath **** #ifndef __CORRECT_ISO_CPP11_MATH_H_PROTO_INT
 748:c:\gcc for renesas rx 8.3.0.202004-gnurx-elf\rx-elf\rx-elf\rx-elf\include\c++\8.3.0.202004-gnurx\cmath ****   template<typename _Tp, typename _Up>
 749:c:\gcc for renesas rx 8.3.0.202004-gnurx-elf\rx-elf\rx-elf\rx-elf\include\c++\8.3.0.202004-gnurx\cmath ****     constexpr typename
 750:c:\gcc for renesas rx 8.3.0.202004-gnurx-elf\rx-elf\rx-elf\rx-elf\include\c++\8.3.0.202004-gnurx\cmath ****     __gnu_cxx::__enable_if<(__is_arithmetic<_Tp>::__value
 751:c:\gcc for renesas rx 8.3.0.202004-gnurx-elf\rx-elf\rx-elf\rx-elf\include\c++\8.3.0.202004-gnurx\cmath **** 			    && __is_arithmetic<_Up>::__value), bool>::__type
 752:c:\gcc for renesas rx 8.3.0.202004-gnurx-elf\rx-elf\rx-elf\rx-elf\include\c++\8.3.0.202004-gnurx\cmath ****     isless(_Tp __x, _Up __y)
 753:c:\gcc for renesas rx 8.3.0.202004-gnurx-elf\rx-elf\rx-elf\rx-elf\include\c++\8.3.0.202004-gnurx\cmath ****     {
 754:c:\gcc for renesas rx 8.3.0.202004-gnurx-elf\rx-elf\rx-elf\rx-elf\include\c++\8.3.0.202004-gnurx\cmath ****       typedef typename __gnu_cxx::__promote_2<_Tp, _Up>::__type __type;
 755:c:\gcc for renesas rx 8.3.0.202004-gnurx-elf\rx-elf\rx-elf\rx-elf\include\c++\8.3.0.202004-gnurx\cmath ****       return __builtin_isless(__type(__x), __type(__y));
 756:c:\gcc for renesas rx 8.3.0.202004-gnurx-elf\rx-elf\rx-elf\rx-elf\include\c++\8.3.0.202004-gnurx\cmath ****     }
 757:c:\gcc for renesas rx 8.3.0.202004-gnurx-elf\rx-elf\rx-elf\rx-elf\include\c++\8.3.0.202004-gnurx\cmath **** #endif
 758:c:\gcc for renesas rx 8.3.0.202004-gnurx-elf\rx-elf\rx-elf\rx-elf\include\c++\8.3.0.202004-gnurx\cmath **** 
 759:c:\gcc for renesas rx 8.3.0.202004-gnurx-elf\rx-elf\rx-elf\rx-elf\include\c++\8.3.0.202004-gnurx\cmath **** #ifndef __CORRECT_ISO_CPP11_MATH_H_PROTO_FP
 760:c:\gcc for renesas rx 8.3.0.202004-gnurx-elf\rx-elf\rx-elf\rx-elf\include\c++\8.3.0.202004-gnurx\cmath ****   constexpr bool
 761:c:\gcc for renesas rx 8.3.0.202004-gnurx-elf\rx-elf\rx-elf\rx-elf\include\c++\8.3.0.202004-gnurx\cmath ****   islessequal(float __x, float __y)
 762:c:\gcc for renesas rx 8.3.0.202004-gnurx-elf\rx-elf\rx-elf\rx-elf\include\c++\8.3.0.202004-gnurx\cmath ****   { return __builtin_islessequal(__x, __y); }
 763:c:\gcc for renesas rx 8.3.0.202004-gnurx-elf\rx-elf\rx-elf\rx-elf\include\c++\8.3.0.202004-gnurx\cmath **** 
 764:c:\gcc for renesas rx 8.3.0.202004-gnurx-elf\rx-elf\rx-elf\rx-elf\include\c++\8.3.0.202004-gnurx\cmath ****   constexpr bool
 765:c:\gcc for renesas rx 8.3.0.202004-gnurx-elf\rx-elf\rx-elf\rx-elf\include\c++\8.3.0.202004-gnurx\cmath ****   islessequal(double __x, double __y)
 766:c:\gcc for renesas rx 8.3.0.202004-gnurx-elf\rx-elf\rx-elf\rx-elf\include\c++\8.3.0.202004-gnurx\cmath ****   { return __builtin_islessequal(__x, __y); }
 767:c:\gcc for renesas rx 8.3.0.202004-gnurx-elf\rx-elf\rx-elf\rx-elf\include\c++\8.3.0.202004-gnurx\cmath **** 
 768:c:\gcc for renesas rx 8.3.0.202004-gnurx-elf\rx-elf\rx-elf\rx-elf\include\c++\8.3.0.202004-gnurx\cmath ****   constexpr bool
 769:c:\gcc for renesas rx 8.3.0.202004-gnurx-elf\rx-elf\rx-elf\rx-elf\include\c++\8.3.0.202004-gnurx\cmath ****   islessequal(long double __x, long double __y)
 770:c:\gcc for renesas rx 8.3.0.202004-gnurx-elf\rx-elf\rx-elf\rx-elf\include\c++\8.3.0.202004-gnurx\cmath ****   { return __builtin_islessequal(__x, __y); }
 771:c:\gcc for renesas rx 8.3.0.202004-gnurx-elf\rx-elf\rx-elf\rx-elf\include\c++\8.3.0.202004-gnurx\cmath **** #endif
 772:c:\gcc for renesas rx 8.3.0.202004-gnurx-elf\rx-elf\rx-elf\rx-elf\include\c++\8.3.0.202004-gnurx\cmath **** 
 773:c:\gcc for renesas rx 8.3.0.202004-gnurx-elf\rx-elf\rx-elf\rx-elf\include\c++\8.3.0.202004-gnurx\cmath **** #ifndef __CORRECT_ISO_CPP11_MATH_H_PROTO_INT
 774:c:\gcc for renesas rx 8.3.0.202004-gnurx-elf\rx-elf\rx-elf\rx-elf\include\c++\8.3.0.202004-gnurx\cmath ****   template<typename _Tp, typename _Up>
 775:c:\gcc for renesas rx 8.3.0.202004-gnurx-elf\rx-elf\rx-elf\rx-elf\include\c++\8.3.0.202004-gnurx\cmath ****     constexpr typename
 776:c:\gcc for renesas rx 8.3.0.202004-gnurx-elf\rx-elf\rx-elf\rx-elf\include\c++\8.3.0.202004-gnurx\cmath ****     __gnu_cxx::__enable_if<(__is_arithmetic<_Tp>::__value
 777:c:\gcc for renesas rx 8.3.0.202004-gnurx-elf\rx-elf\rx-elf\rx-elf\include\c++\8.3.0.202004-gnurx\cmath **** 			    && __is_arithmetic<_Up>::__value), bool>::__type
 778:c:\gcc for renesas rx 8.3.0.202004-gnurx-elf\rx-elf\rx-elf\rx-elf\include\c++\8.3.0.202004-gnurx\cmath ****     islessequal(_Tp __x, _Up __y)
 779:c:\gcc for renesas rx 8.3.0.202004-gnurx-elf\rx-elf\rx-elf\rx-elf\include\c++\8.3.0.202004-gnurx\cmath ****     {
 780:c:\gcc for renesas rx 8.3.0.202004-gnurx-elf\rx-elf\rx-elf\rx-elf\include\c++\8.3.0.202004-gnurx\cmath ****       typedef typename __gnu_cxx::__promote_2<_Tp, _Up>::__type __type;
 781:c:\gcc for renesas rx 8.3.0.202004-gnurx-elf\rx-elf\rx-elf\rx-elf\include\c++\8.3.0.202004-gnurx\cmath ****       return __builtin_islessequal(__type(__x), __type(__y));
 782:c:\gcc for renesas rx 8.3.0.202004-gnurx-elf\rx-elf\rx-elf\rx-elf\include\c++\8.3.0.202004-gnurx\cmath ****     }
 783:c:\gcc for renesas rx 8.3.0.202004-gnurx-elf\rx-elf\rx-elf\rx-elf\include\c++\8.3.0.202004-gnurx\cmath **** #endif
 784:c:\gcc for renesas rx 8.3.0.202004-gnurx-elf\rx-elf\rx-elf\rx-elf\include\c++\8.3.0.202004-gnurx\cmath **** 
 785:c:\gcc for renesas rx 8.3.0.202004-gnurx-elf\rx-elf\rx-elf\rx-elf\include\c++\8.3.0.202004-gnurx\cmath **** #ifndef __CORRECT_ISO_CPP11_MATH_H_PROTO_FP
 786:c:\gcc for renesas rx 8.3.0.202004-gnurx-elf\rx-elf\rx-elf\rx-elf\include\c++\8.3.0.202004-gnurx\cmath ****   constexpr bool
 787:c:\gcc for renesas rx 8.3.0.202004-gnurx-elf\rx-elf\rx-elf\rx-elf\include\c++\8.3.0.202004-gnurx\cmath ****   islessgreater(float __x, float __y)
 788:c:\gcc for renesas rx 8.3.0.202004-gnurx-elf\rx-elf\rx-elf\rx-elf\include\c++\8.3.0.202004-gnurx\cmath ****   { return __builtin_islessgreater(__x, __y); }
 789:c:\gcc for renesas rx 8.3.0.202004-gnurx-elf\rx-elf\rx-elf\rx-elf\include\c++\8.3.0.202004-gnurx\cmath **** 
 790:c:\gcc for renesas rx 8.3.0.202004-gnurx-elf\rx-elf\rx-elf\rx-elf\include\c++\8.3.0.202004-gnurx\cmath ****   constexpr bool
 791:c:\gcc for renesas rx 8.3.0.202004-gnurx-elf\rx-elf\rx-elf\rx-elf\include\c++\8.3.0.202004-gnurx\cmath ****   islessgreater(double __x, double __y)
 792:c:\gcc for renesas rx 8.3.0.202004-gnurx-elf\rx-elf\rx-elf\rx-elf\include\c++\8.3.0.202004-gnurx\cmath ****   { return __builtin_islessgreater(__x, __y); }
 793:c:\gcc for renesas rx 8.3.0.202004-gnurx-elf\rx-elf\rx-elf\rx-elf\include\c++\8.3.0.202004-gnurx\cmath **** 
 794:c:\gcc for renesas rx 8.3.0.202004-gnurx-elf\rx-elf\rx-elf\rx-elf\include\c++\8.3.0.202004-gnurx\cmath ****   constexpr bool
 795:c:\gcc for renesas rx 8.3.0.202004-gnurx-elf\rx-elf\rx-elf\rx-elf\include\c++\8.3.0.202004-gnurx\cmath ****   islessgreater(long double __x, long double __y)
 796:c:\gcc for renesas rx 8.3.0.202004-gnurx-elf\rx-elf\rx-elf\rx-elf\include\c++\8.3.0.202004-gnurx\cmath ****   { return __builtin_islessgreater(__x, __y); }
 797:c:\gcc for renesas rx 8.3.0.202004-gnurx-elf\rx-elf\rx-elf\rx-elf\include\c++\8.3.0.202004-gnurx\cmath **** #endif
 798:c:\gcc for renesas rx 8.3.0.202004-gnurx-elf\rx-elf\rx-elf\rx-elf\include\c++\8.3.0.202004-gnurx\cmath **** 
 799:c:\gcc for renesas rx 8.3.0.202004-gnurx-elf\rx-elf\rx-elf\rx-elf\include\c++\8.3.0.202004-gnurx\cmath **** #ifndef __CORRECT_ISO_CPP11_MATH_H_PROTO_INT
 800:c:\gcc for renesas rx 8.3.0.202004-gnurx-elf\rx-elf\rx-elf\rx-elf\include\c++\8.3.0.202004-gnurx\cmath ****   template<typename _Tp, typename _Up>
 801:c:\gcc for renesas rx 8.3.0.202004-gnurx-elf\rx-elf\rx-elf\rx-elf\include\c++\8.3.0.202004-gnurx\cmath ****     constexpr typename
 802:c:\gcc for renesas rx 8.3.0.202004-gnurx-elf\rx-elf\rx-elf\rx-elf\include\c++\8.3.0.202004-gnurx\cmath ****     __gnu_cxx::__enable_if<(__is_arithmetic<_Tp>::__value
 803:c:\gcc for renesas rx 8.3.0.202004-gnurx-elf\rx-elf\rx-elf\rx-elf\include\c++\8.3.0.202004-gnurx\cmath **** 			    && __is_arithmetic<_Up>::__value), bool>::__type
 804:c:\gcc for renesas rx 8.3.0.202004-gnurx-elf\rx-elf\rx-elf\rx-elf\include\c++\8.3.0.202004-gnurx\cmath ****     islessgreater(_Tp __x, _Up __y)
 805:c:\gcc for renesas rx 8.3.0.202004-gnurx-elf\rx-elf\rx-elf\rx-elf\include\c++\8.3.0.202004-gnurx\cmath ****     {
 806:c:\gcc for renesas rx 8.3.0.202004-gnurx-elf\rx-elf\rx-elf\rx-elf\include\c++\8.3.0.202004-gnurx\cmath ****       typedef typename __gnu_cxx::__promote_2<_Tp, _Up>::__type __type;
 807:c:\gcc for renesas rx 8.3.0.202004-gnurx-elf\rx-elf\rx-elf\rx-elf\include\c++\8.3.0.202004-gnurx\cmath ****       return __builtin_islessgreater(__type(__x), __type(__y));
 808:c:\gcc for renesas rx 8.3.0.202004-gnurx-elf\rx-elf\rx-elf\rx-elf\include\c++\8.3.0.202004-gnurx\cmath ****     }
 809:c:\gcc for renesas rx 8.3.0.202004-gnurx-elf\rx-elf\rx-elf\rx-elf\include\c++\8.3.0.202004-gnurx\cmath **** #endif
 810:c:\gcc for renesas rx 8.3.0.202004-gnurx-elf\rx-elf\rx-elf\rx-elf\include\c++\8.3.0.202004-gnurx\cmath **** 
 811:c:\gcc for renesas rx 8.3.0.202004-gnurx-elf\rx-elf\rx-elf\rx-elf\include\c++\8.3.0.202004-gnurx\cmath **** #ifndef __CORRECT_ISO_CPP11_MATH_H_PROTO_FP
 812:c:\gcc for renesas rx 8.3.0.202004-gnurx-elf\rx-elf\rx-elf\rx-elf\include\c++\8.3.0.202004-gnurx\cmath ****   constexpr bool
 813:c:\gcc for renesas rx 8.3.0.202004-gnurx-elf\rx-elf\rx-elf\rx-elf\include\c++\8.3.0.202004-gnurx\cmath ****   isunordered(float __x, float __y)
 814:c:\gcc for renesas rx 8.3.0.202004-gnurx-elf\rx-elf\rx-elf\rx-elf\include\c++\8.3.0.202004-gnurx\cmath ****   { return __builtin_isunordered(__x, __y); }
 815:c:\gcc for renesas rx 8.3.0.202004-gnurx-elf\rx-elf\rx-elf\rx-elf\include\c++\8.3.0.202004-gnurx\cmath **** 
 816:c:\gcc for renesas rx 8.3.0.202004-gnurx-elf\rx-elf\rx-elf\rx-elf\include\c++\8.3.0.202004-gnurx\cmath ****   constexpr bool
 817:c:\gcc for renesas rx 8.3.0.202004-gnurx-elf\rx-elf\rx-elf\rx-elf\include\c++\8.3.0.202004-gnurx\cmath ****   isunordered(double __x, double __y)
 818:c:\gcc for renesas rx 8.3.0.202004-gnurx-elf\rx-elf\rx-elf\rx-elf\include\c++\8.3.0.202004-gnurx\cmath ****   { return __builtin_isunordered(__x, __y); }
 819:c:\gcc for renesas rx 8.3.0.202004-gnurx-elf\rx-elf\rx-elf\rx-elf\include\c++\8.3.0.202004-gnurx\cmath **** 
 820:c:\gcc for renesas rx 8.3.0.202004-gnurx-elf\rx-elf\rx-elf\rx-elf\include\c++\8.3.0.202004-gnurx\cmath ****   constexpr bool
 821:c:\gcc for renesas rx 8.3.0.202004-gnurx-elf\rx-elf\rx-elf\rx-elf\include\c++\8.3.0.202004-gnurx\cmath ****   isunordered(long double __x, long double __y)
 822:c:\gcc for renesas rx 8.3.0.202004-gnurx-elf\rx-elf\rx-elf\rx-elf\include\c++\8.3.0.202004-gnurx\cmath ****   { return __builtin_isunordered(__x, __y); }
 823:c:\gcc for renesas rx 8.3.0.202004-gnurx-elf\rx-elf\rx-elf\rx-elf\include\c++\8.3.0.202004-gnurx\cmath **** #endif
 824:c:\gcc for renesas rx 8.3.0.202004-gnurx-elf\rx-elf\rx-elf\rx-elf\include\c++\8.3.0.202004-gnurx\cmath **** 
 825:c:\gcc for renesas rx 8.3.0.202004-gnurx-elf\rx-elf\rx-elf\rx-elf\include\c++\8.3.0.202004-gnurx\cmath **** #ifndef __CORRECT_ISO_CPP11_MATH_H_PROTO_INT
 826:c:\gcc for renesas rx 8.3.0.202004-gnurx-elf\rx-elf\rx-elf\rx-elf\include\c++\8.3.0.202004-gnurx\cmath ****   template<typename _Tp, typename _Up>
 827:c:\gcc for renesas rx 8.3.0.202004-gnurx-elf\rx-elf\rx-elf\rx-elf\include\c++\8.3.0.202004-gnurx\cmath ****     constexpr typename
 828:c:\gcc for renesas rx 8.3.0.202004-gnurx-elf\rx-elf\rx-elf\rx-elf\include\c++\8.3.0.202004-gnurx\cmath ****     __gnu_cxx::__enable_if<(__is_arithmetic<_Tp>::__value
 829:c:\gcc for renesas rx 8.3.0.202004-gnurx-elf\rx-elf\rx-elf\rx-elf\include\c++\8.3.0.202004-gnurx\cmath **** 			    && __is_arithmetic<_Up>::__value), bool>::__type
 830:c:\gcc for renesas rx 8.3.0.202004-gnurx-elf\rx-elf\rx-elf\rx-elf\include\c++\8.3.0.202004-gnurx\cmath ****     isunordered(_Tp __x, _Up __y)
 831:c:\gcc for renesas rx 8.3.0.202004-gnurx-elf\rx-elf\rx-elf\rx-elf\include\c++\8.3.0.202004-gnurx\cmath ****     {
 832:c:\gcc for renesas rx 8.3.0.202004-gnurx-elf\rx-elf\rx-elf\rx-elf\include\c++\8.3.0.202004-gnurx\cmath ****       typedef typename __gnu_cxx::__promote_2<_Tp, _Up>::__type __type;
 833:c:\gcc for renesas rx 8.3.0.202004-gnurx-elf\rx-elf\rx-elf\rx-elf\include\c++\8.3.0.202004-gnurx\cmath ****       return __builtin_isunordered(__type(__x), __type(__y));
 834:c:\gcc for renesas rx 8.3.0.202004-gnurx-elf\rx-elf\rx-elf\rx-elf\include\c++\8.3.0.202004-gnurx\cmath ****     }
 835:c:\gcc for renesas rx 8.3.0.202004-gnurx-elf\rx-elf\rx-elf\rx-elf\include\c++\8.3.0.202004-gnurx\cmath **** #endif
 836:c:\gcc for renesas rx 8.3.0.202004-gnurx-elf\rx-elf\rx-elf\rx-elf\include\c++\8.3.0.202004-gnurx\cmath **** 
 837:c:\gcc for renesas rx 8.3.0.202004-gnurx-elf\rx-elf\rx-elf\rx-elf\include\c++\8.3.0.202004-gnurx\cmath **** #else
 838:c:\gcc for renesas rx 8.3.0.202004-gnurx-elf\rx-elf\rx-elf\rx-elf\include\c++\8.3.0.202004-gnurx\cmath **** 
 839:c:\gcc for renesas rx 8.3.0.202004-gnurx-elf\rx-elf\rx-elf\rx-elf\include\c++\8.3.0.202004-gnurx\cmath ****   template<typename _Tp>
 840:c:\gcc for renesas rx 8.3.0.202004-gnurx-elf\rx-elf\rx-elf\rx-elf\include\c++\8.3.0.202004-gnurx\cmath ****     inline typename __gnu_cxx::__enable_if<__is_arithmetic<_Tp>::__value,
 841:c:\gcc for renesas rx 8.3.0.202004-gnurx-elf\rx-elf\rx-elf\rx-elf\include\c++\8.3.0.202004-gnurx\cmath **** 					   int>::__type
 842:c:\gcc for renesas rx 8.3.0.202004-gnurx-elf\rx-elf\rx-elf\rx-elf\include\c++\8.3.0.202004-gnurx\cmath ****     fpclassify(_Tp __f)
 843:c:\gcc for renesas rx 8.3.0.202004-gnurx-elf\rx-elf\rx-elf\rx-elf\include\c++\8.3.0.202004-gnurx\cmath ****     {
 844:c:\gcc for renesas rx 8.3.0.202004-gnurx-elf\rx-elf\rx-elf\rx-elf\include\c++\8.3.0.202004-gnurx\cmath ****       typedef typename __gnu_cxx::__promote<_Tp>::__type __type;
 845:c:\gcc for renesas rx 8.3.0.202004-gnurx-elf\rx-elf\rx-elf\rx-elf\include\c++\8.3.0.202004-gnurx\cmath ****       return __builtin_fpclassify(FP_NAN, FP_INFINITE, FP_NORMAL,
 846:c:\gcc for renesas rx 8.3.0.202004-gnurx-elf\rx-elf\rx-elf\rx-elf\include\c++\8.3.0.202004-gnurx\cmath **** 				  FP_SUBNORMAL, FP_ZERO, __type(__f));
 847:c:\gcc for renesas rx 8.3.0.202004-gnurx-elf\rx-elf\rx-elf\rx-elf\include\c++\8.3.0.202004-gnurx\cmath ****     }
 848:c:\gcc for renesas rx 8.3.0.202004-gnurx-elf\rx-elf\rx-elf\rx-elf\include\c++\8.3.0.202004-gnurx\cmath **** 
 849:c:\gcc for renesas rx 8.3.0.202004-gnurx-elf\rx-elf\rx-elf\rx-elf\include\c++\8.3.0.202004-gnurx\cmath ****   template<typename _Tp>
 850:c:\gcc for renesas rx 8.3.0.202004-gnurx-elf\rx-elf\rx-elf\rx-elf\include\c++\8.3.0.202004-gnurx\cmath ****     inline typename __gnu_cxx::__enable_if<__is_arithmetic<_Tp>::__value,
 851:c:\gcc for renesas rx 8.3.0.202004-gnurx-elf\rx-elf\rx-elf\rx-elf\include\c++\8.3.0.202004-gnurx\cmath **** 					   int>::__type
 852:c:\gcc for renesas rx 8.3.0.202004-gnurx-elf\rx-elf\rx-elf\rx-elf\include\c++\8.3.0.202004-gnurx\cmath ****     isfinite(_Tp __f)
 853:c:\gcc for renesas rx 8.3.0.202004-gnurx-elf\rx-elf\rx-elf\rx-elf\include\c++\8.3.0.202004-gnurx\cmath ****     {
 854:c:\gcc for renesas rx 8.3.0.202004-gnurx-elf\rx-elf\rx-elf\rx-elf\include\c++\8.3.0.202004-gnurx\cmath ****       typedef typename __gnu_cxx::__promote<_Tp>::__type __type;
 855:c:\gcc for renesas rx 8.3.0.202004-gnurx-elf\rx-elf\rx-elf\rx-elf\include\c++\8.3.0.202004-gnurx\cmath ****       return __builtin_isfinite(__type(__f));
 856:c:\gcc for renesas rx 8.3.0.202004-gnurx-elf\rx-elf\rx-elf\rx-elf\include\c++\8.3.0.202004-gnurx\cmath ****     }
 857:c:\gcc for renesas rx 8.3.0.202004-gnurx-elf\rx-elf\rx-elf\rx-elf\include\c++\8.3.0.202004-gnurx\cmath **** 
 858:c:\gcc for renesas rx 8.3.0.202004-gnurx-elf\rx-elf\rx-elf\rx-elf\include\c++\8.3.0.202004-gnurx\cmath ****   template<typename _Tp>
 859:c:\gcc for renesas rx 8.3.0.202004-gnurx-elf\rx-elf\rx-elf\rx-elf\include\c++\8.3.0.202004-gnurx\cmath ****     inline typename __gnu_cxx::__enable_if<__is_arithmetic<_Tp>::__value,
 860:c:\gcc for renesas rx 8.3.0.202004-gnurx-elf\rx-elf\rx-elf\rx-elf\include\c++\8.3.0.202004-gnurx\cmath **** 					   int>::__type
 861:c:\gcc for renesas rx 8.3.0.202004-gnurx-elf\rx-elf\rx-elf\rx-elf\include\c++\8.3.0.202004-gnurx\cmath ****     isinf(_Tp __f)
 862:c:\gcc for renesas rx 8.3.0.202004-gnurx-elf\rx-elf\rx-elf\rx-elf\include\c++\8.3.0.202004-gnurx\cmath ****     {
 863:c:\gcc for renesas rx 8.3.0.202004-gnurx-elf\rx-elf\rx-elf\rx-elf\include\c++\8.3.0.202004-gnurx\cmath ****       typedef typename __gnu_cxx::__promote<_Tp>::__type __type;
 864:c:\gcc for renesas rx 8.3.0.202004-gnurx-elf\rx-elf\rx-elf\rx-elf\include\c++\8.3.0.202004-gnurx\cmath ****       return __builtin_isinf(__type(__f));
 865:c:\gcc for renesas rx 8.3.0.202004-gnurx-elf\rx-elf\rx-elf\rx-elf\include\c++\8.3.0.202004-gnurx\cmath ****     }
 866:c:\gcc for renesas rx 8.3.0.202004-gnurx-elf\rx-elf\rx-elf\rx-elf\include\c++\8.3.0.202004-gnurx\cmath **** 
 867:c:\gcc for renesas rx 8.3.0.202004-gnurx-elf\rx-elf\rx-elf\rx-elf\include\c++\8.3.0.202004-gnurx\cmath ****   template<typename _Tp>
 868:c:\gcc for renesas rx 8.3.0.202004-gnurx-elf\rx-elf\rx-elf\rx-elf\include\c++\8.3.0.202004-gnurx\cmath ****     inline typename __gnu_cxx::__enable_if<__is_arithmetic<_Tp>::__value,
 869:c:\gcc for renesas rx 8.3.0.202004-gnurx-elf\rx-elf\rx-elf\rx-elf\include\c++\8.3.0.202004-gnurx\cmath **** 					   int>::__type
 870:c:\gcc for renesas rx 8.3.0.202004-gnurx-elf\rx-elf\rx-elf\rx-elf\include\c++\8.3.0.202004-gnurx\cmath ****     isnan(_Tp __f)
 871:c:\gcc for renesas rx 8.3.0.202004-gnurx-elf\rx-elf\rx-elf\rx-elf\include\c++\8.3.0.202004-gnurx\cmath ****     {
 872:c:\gcc for renesas rx 8.3.0.202004-gnurx-elf\rx-elf\rx-elf\rx-elf\include\c++\8.3.0.202004-gnurx\cmath ****       typedef typename __gnu_cxx::__promote<_Tp>::__type __type;
 873:c:\gcc for renesas rx 8.3.0.202004-gnurx-elf\rx-elf\rx-elf\rx-elf\include\c++\8.3.0.202004-gnurx\cmath ****       return __builtin_isnan(__type(__f));
 874:c:\gcc for renesas rx 8.3.0.202004-gnurx-elf\rx-elf\rx-elf\rx-elf\include\c++\8.3.0.202004-gnurx\cmath ****     }
 875:c:\gcc for renesas rx 8.3.0.202004-gnurx-elf\rx-elf\rx-elf\rx-elf\include\c++\8.3.0.202004-gnurx\cmath **** 
 876:c:\gcc for renesas rx 8.3.0.202004-gnurx-elf\rx-elf\rx-elf\rx-elf\include\c++\8.3.0.202004-gnurx\cmath ****   template<typename _Tp>
 877:c:\gcc for renesas rx 8.3.0.202004-gnurx-elf\rx-elf\rx-elf\rx-elf\include\c++\8.3.0.202004-gnurx\cmath ****     inline typename __gnu_cxx::__enable_if<__is_arithmetic<_Tp>::__value,
 878:c:\gcc for renesas rx 8.3.0.202004-gnurx-elf\rx-elf\rx-elf\rx-elf\include\c++\8.3.0.202004-gnurx\cmath **** 					   int>::__type
 879:c:\gcc for renesas rx 8.3.0.202004-gnurx-elf\rx-elf\rx-elf\rx-elf\include\c++\8.3.0.202004-gnurx\cmath ****     isnormal(_Tp __f)
 880:c:\gcc for renesas rx 8.3.0.202004-gnurx-elf\rx-elf\rx-elf\rx-elf\include\c++\8.3.0.202004-gnurx\cmath ****     {
 881:c:\gcc for renesas rx 8.3.0.202004-gnurx-elf\rx-elf\rx-elf\rx-elf\include\c++\8.3.0.202004-gnurx\cmath ****       typedef typename __gnu_cxx::__promote<_Tp>::__type __type;
 882:c:\gcc for renesas rx 8.3.0.202004-gnurx-elf\rx-elf\rx-elf\rx-elf\include\c++\8.3.0.202004-gnurx\cmath ****       return __builtin_isnormal(__type(__f));
 883:c:\gcc for renesas rx 8.3.0.202004-gnurx-elf\rx-elf\rx-elf\rx-elf\include\c++\8.3.0.202004-gnurx\cmath ****     }
 884:c:\gcc for renesas rx 8.3.0.202004-gnurx-elf\rx-elf\rx-elf\rx-elf\include\c++\8.3.0.202004-gnurx\cmath **** 
 885:c:\gcc for renesas rx 8.3.0.202004-gnurx-elf\rx-elf\rx-elf\rx-elf\include\c++\8.3.0.202004-gnurx\cmath ****   template<typename _Tp>
 886:c:\gcc for renesas rx 8.3.0.202004-gnurx-elf\rx-elf\rx-elf\rx-elf\include\c++\8.3.0.202004-gnurx\cmath ****     inline typename __gnu_cxx::__enable_if<__is_arithmetic<_Tp>::__value,
 887:c:\gcc for renesas rx 8.3.0.202004-gnurx-elf\rx-elf\rx-elf\rx-elf\include\c++\8.3.0.202004-gnurx\cmath **** 					   int>::__type
 888:c:\gcc for renesas rx 8.3.0.202004-gnurx-elf\rx-elf\rx-elf\rx-elf\include\c++\8.3.0.202004-gnurx\cmath ****     signbit(_Tp __f)
 889:c:\gcc for renesas rx 8.3.0.202004-gnurx-elf\rx-elf\rx-elf\rx-elf\include\c++\8.3.0.202004-gnurx\cmath ****     {
 890:c:\gcc for renesas rx 8.3.0.202004-gnurx-elf\rx-elf\rx-elf\rx-elf\include\c++\8.3.0.202004-gnurx\cmath ****       typedef typename __gnu_cxx::__promote<_Tp>::__type __type;
 891:c:\gcc for renesas rx 8.3.0.202004-gnurx-elf\rx-elf\rx-elf\rx-elf\include\c++\8.3.0.202004-gnurx\cmath ****       return __builtin_signbit(__type(__f));
 892:c:\gcc for renesas rx 8.3.0.202004-gnurx-elf\rx-elf\rx-elf\rx-elf\include\c++\8.3.0.202004-gnurx\cmath ****     }
 893:c:\gcc for renesas rx 8.3.0.202004-gnurx-elf\rx-elf\rx-elf\rx-elf\include\c++\8.3.0.202004-gnurx\cmath **** 
 894:c:\gcc for renesas rx 8.3.0.202004-gnurx-elf\rx-elf\rx-elf\rx-elf\include\c++\8.3.0.202004-gnurx\cmath ****   template<typename _Tp>
 895:c:\gcc for renesas rx 8.3.0.202004-gnurx-elf\rx-elf\rx-elf\rx-elf\include\c++\8.3.0.202004-gnurx\cmath ****     inline typename __gnu_cxx::__enable_if<__is_arithmetic<_Tp>::__value,
 896:c:\gcc for renesas rx 8.3.0.202004-gnurx-elf\rx-elf\rx-elf\rx-elf\include\c++\8.3.0.202004-gnurx\cmath **** 					   int>::__type
 897:c:\gcc for renesas rx 8.3.0.202004-gnurx-elf\rx-elf\rx-elf\rx-elf\include\c++\8.3.0.202004-gnurx\cmath ****     isgreater(_Tp __f1, _Tp __f2)
 898:c:\gcc for renesas rx 8.3.0.202004-gnurx-elf\rx-elf\rx-elf\rx-elf\include\c++\8.3.0.202004-gnurx\cmath ****     {
 899:c:\gcc for renesas rx 8.3.0.202004-gnurx-elf\rx-elf\rx-elf\rx-elf\include\c++\8.3.0.202004-gnurx\cmath ****       typedef typename __gnu_cxx::__promote<_Tp>::__type __type;
 900:c:\gcc for renesas rx 8.3.0.202004-gnurx-elf\rx-elf\rx-elf\rx-elf\include\c++\8.3.0.202004-gnurx\cmath ****       return __builtin_isgreater(__type(__f1), __type(__f2));
 901:c:\gcc for renesas rx 8.3.0.202004-gnurx-elf\rx-elf\rx-elf\rx-elf\include\c++\8.3.0.202004-gnurx\cmath ****     }
 902:c:\gcc for renesas rx 8.3.0.202004-gnurx-elf\rx-elf\rx-elf\rx-elf\include\c++\8.3.0.202004-gnurx\cmath **** 
 903:c:\gcc for renesas rx 8.3.0.202004-gnurx-elf\rx-elf\rx-elf\rx-elf\include\c++\8.3.0.202004-gnurx\cmath ****   template<typename _Tp>
 904:c:\gcc for renesas rx 8.3.0.202004-gnurx-elf\rx-elf\rx-elf\rx-elf\include\c++\8.3.0.202004-gnurx\cmath ****     inline typename __gnu_cxx::__enable_if<__is_arithmetic<_Tp>::__value,
 905:c:\gcc for renesas rx 8.3.0.202004-gnurx-elf\rx-elf\rx-elf\rx-elf\include\c++\8.3.0.202004-gnurx\cmath **** 					   int>::__type
 906:c:\gcc for renesas rx 8.3.0.202004-gnurx-elf\rx-elf\rx-elf\rx-elf\include\c++\8.3.0.202004-gnurx\cmath ****     isgreaterequal(_Tp __f1, _Tp __f2)
 907:c:\gcc for renesas rx 8.3.0.202004-gnurx-elf\rx-elf\rx-elf\rx-elf\include\c++\8.3.0.202004-gnurx\cmath ****     {
 908:c:\gcc for renesas rx 8.3.0.202004-gnurx-elf\rx-elf\rx-elf\rx-elf\include\c++\8.3.0.202004-gnurx\cmath ****       typedef typename __gnu_cxx::__promote<_Tp>::__type __type;
 909:c:\gcc for renesas rx 8.3.0.202004-gnurx-elf\rx-elf\rx-elf\rx-elf\include\c++\8.3.0.202004-gnurx\cmath ****       return __builtin_isgreaterequal(__type(__f1), __type(__f2));
 910:c:\gcc for renesas rx 8.3.0.202004-gnurx-elf\rx-elf\rx-elf\rx-elf\include\c++\8.3.0.202004-gnurx\cmath ****     }
 911:c:\gcc for renesas rx 8.3.0.202004-gnurx-elf\rx-elf\rx-elf\rx-elf\include\c++\8.3.0.202004-gnurx\cmath **** 
 912:c:\gcc for renesas rx 8.3.0.202004-gnurx-elf\rx-elf\rx-elf\rx-elf\include\c++\8.3.0.202004-gnurx\cmath ****   template<typename _Tp>
 913:c:\gcc for renesas rx 8.3.0.202004-gnurx-elf\rx-elf\rx-elf\rx-elf\include\c++\8.3.0.202004-gnurx\cmath ****     inline typename __gnu_cxx::__enable_if<__is_arithmetic<_Tp>::__value,
 914:c:\gcc for renesas rx 8.3.0.202004-gnurx-elf\rx-elf\rx-elf\rx-elf\include\c++\8.3.0.202004-gnurx\cmath **** 					   int>::__type
 915:c:\gcc for renesas rx 8.3.0.202004-gnurx-elf\rx-elf\rx-elf\rx-elf\include\c++\8.3.0.202004-gnurx\cmath ****     isless(_Tp __f1, _Tp __f2)
 916:c:\gcc for renesas rx 8.3.0.202004-gnurx-elf\rx-elf\rx-elf\rx-elf\include\c++\8.3.0.202004-gnurx\cmath ****     {
 917:c:\gcc for renesas rx 8.3.0.202004-gnurx-elf\rx-elf\rx-elf\rx-elf\include\c++\8.3.0.202004-gnurx\cmath ****       typedef typename __gnu_cxx::__promote<_Tp>::__type __type;
 918:c:\gcc for renesas rx 8.3.0.202004-gnurx-elf\rx-elf\rx-elf\rx-elf\include\c++\8.3.0.202004-gnurx\cmath ****       return __builtin_isless(__type(__f1), __type(__f2));
 919:c:\gcc for renesas rx 8.3.0.202004-gnurx-elf\rx-elf\rx-elf\rx-elf\include\c++\8.3.0.202004-gnurx\cmath ****     }
 920:c:\gcc for renesas rx 8.3.0.202004-gnurx-elf\rx-elf\rx-elf\rx-elf\include\c++\8.3.0.202004-gnurx\cmath **** 
 921:c:\gcc for renesas rx 8.3.0.202004-gnurx-elf\rx-elf\rx-elf\rx-elf\include\c++\8.3.0.202004-gnurx\cmath ****   template<typename _Tp>
 922:c:\gcc for renesas rx 8.3.0.202004-gnurx-elf\rx-elf\rx-elf\rx-elf\include\c++\8.3.0.202004-gnurx\cmath ****     inline typename __gnu_cxx::__enable_if<__is_arithmetic<_Tp>::__value,
 923:c:\gcc for renesas rx 8.3.0.202004-gnurx-elf\rx-elf\rx-elf\rx-elf\include\c++\8.3.0.202004-gnurx\cmath **** 					   int>::__type
 924:c:\gcc for renesas rx 8.3.0.202004-gnurx-elf\rx-elf\rx-elf\rx-elf\include\c++\8.3.0.202004-gnurx\cmath ****     islessequal(_Tp __f1, _Tp __f2)
 925:c:\gcc for renesas rx 8.3.0.202004-gnurx-elf\rx-elf\rx-elf\rx-elf\include\c++\8.3.0.202004-gnurx\cmath ****     {
 926:c:\gcc for renesas rx 8.3.0.202004-gnurx-elf\rx-elf\rx-elf\rx-elf\include\c++\8.3.0.202004-gnurx\cmath ****       typedef typename __gnu_cxx::__promote<_Tp>::__type __type;
 927:c:\gcc for renesas rx 8.3.0.202004-gnurx-elf\rx-elf\rx-elf\rx-elf\include\c++\8.3.0.202004-gnurx\cmath ****       return __builtin_islessequal(__type(__f1), __type(__f2));
 928:c:\gcc for renesas rx 8.3.0.202004-gnurx-elf\rx-elf\rx-elf\rx-elf\include\c++\8.3.0.202004-gnurx\cmath ****     }
 929:c:\gcc for renesas rx 8.3.0.202004-gnurx-elf\rx-elf\rx-elf\rx-elf\include\c++\8.3.0.202004-gnurx\cmath **** 
 930:c:\gcc for renesas rx 8.3.0.202004-gnurx-elf\rx-elf\rx-elf\rx-elf\include\c++\8.3.0.202004-gnurx\cmath ****   template<typename _Tp>
 931:c:\gcc for renesas rx 8.3.0.202004-gnurx-elf\rx-elf\rx-elf\rx-elf\include\c++\8.3.0.202004-gnurx\cmath ****     inline typename __gnu_cxx::__enable_if<__is_arithmetic<_Tp>::__value,
 932:c:\gcc for renesas rx 8.3.0.202004-gnurx-elf\rx-elf\rx-elf\rx-elf\include\c++\8.3.0.202004-gnurx\cmath **** 					   int>::__type
 933:c:\gcc for renesas rx 8.3.0.202004-gnurx-elf\rx-elf\rx-elf\rx-elf\include\c++\8.3.0.202004-gnurx\cmath ****     islessgreater(_Tp __f1, _Tp __f2)
 934:c:\gcc for renesas rx 8.3.0.202004-gnurx-elf\rx-elf\rx-elf\rx-elf\include\c++\8.3.0.202004-gnurx\cmath ****     {
 935:c:\gcc for renesas rx 8.3.0.202004-gnurx-elf\rx-elf\rx-elf\rx-elf\include\c++\8.3.0.202004-gnurx\cmath ****       typedef typename __gnu_cxx::__promote<_Tp>::__type __type;
 936:c:\gcc for renesas rx 8.3.0.202004-gnurx-elf\rx-elf\rx-elf\rx-elf\include\c++\8.3.0.202004-gnurx\cmath ****       return __builtin_islessgreater(__type(__f1), __type(__f2));
 937:c:\gcc for renesas rx 8.3.0.202004-gnurx-elf\rx-elf\rx-elf\rx-elf\include\c++\8.3.0.202004-gnurx\cmath ****     }
 938:c:\gcc for renesas rx 8.3.0.202004-gnurx-elf\rx-elf\rx-elf\rx-elf\include\c++\8.3.0.202004-gnurx\cmath **** 
 939:c:\gcc for renesas rx 8.3.0.202004-gnurx-elf\rx-elf\rx-elf\rx-elf\include\c++\8.3.0.202004-gnurx\cmath ****   template<typename _Tp>
 940:c:\gcc for renesas rx 8.3.0.202004-gnurx-elf\rx-elf\rx-elf\rx-elf\include\c++\8.3.0.202004-gnurx\cmath ****     inline typename __gnu_cxx::__enable_if<__is_arithmetic<_Tp>::__value,
 941:c:\gcc for renesas rx 8.3.0.202004-gnurx-elf\rx-elf\rx-elf\rx-elf\include\c++\8.3.0.202004-gnurx\cmath **** 					   int>::__type
 942:c:\gcc for renesas rx 8.3.0.202004-gnurx-elf\rx-elf\rx-elf\rx-elf\include\c++\8.3.0.202004-gnurx\cmath ****     isunordered(_Tp __f1, _Tp __f2)
 943:c:\gcc for renesas rx 8.3.0.202004-gnurx-elf\rx-elf\rx-elf\rx-elf\include\c++\8.3.0.202004-gnurx\cmath ****     {
 944:c:\gcc for renesas rx 8.3.0.202004-gnurx-elf\rx-elf\rx-elf\rx-elf\include\c++\8.3.0.202004-gnurx\cmath ****       typedef typename __gnu_cxx::__promote<_Tp>::__type __type;
 945:c:\gcc for renesas rx 8.3.0.202004-gnurx-elf\rx-elf\rx-elf\rx-elf\include\c++\8.3.0.202004-gnurx\cmath ****       return __builtin_isunordered(__type(__f1), __type(__f2));
 946:c:\gcc for renesas rx 8.3.0.202004-gnurx-elf\rx-elf\rx-elf\rx-elf\include\c++\8.3.0.202004-gnurx\cmath ****     }
 947:c:\gcc for renesas rx 8.3.0.202004-gnurx-elf\rx-elf\rx-elf\rx-elf\include\c++\8.3.0.202004-gnurx\cmath **** 
 948:c:\gcc for renesas rx 8.3.0.202004-gnurx-elf\rx-elf\rx-elf\rx-elf\include\c++\8.3.0.202004-gnurx\cmath **** #endif // C++11
 949:c:\gcc for renesas rx 8.3.0.202004-gnurx-elf\rx-elf\rx-elf\rx-elf\include\c++\8.3.0.202004-gnurx\cmath **** #endif /* _GLIBCXX_USE_C99_FP_MACROS_DYNAMIC */
 950:c:\gcc for renesas rx 8.3.0.202004-gnurx-elf\rx-elf\rx-elf\rx-elf\include\c++\8.3.0.202004-gnurx\cmath **** #endif /* _GLIBCXX_USE_C99_MATH */
 951:c:\gcc for renesas rx 8.3.0.202004-gnurx-elf\rx-elf\rx-elf\rx-elf\include\c++\8.3.0.202004-gnurx\cmath **** 
 952:c:\gcc for renesas rx 8.3.0.202004-gnurx-elf\rx-elf\rx-elf\rx-elf\include\c++\8.3.0.202004-gnurx\cmath **** #if __cplusplus >= 201103L
 953:c:\gcc for renesas rx 8.3.0.202004-gnurx-elf\rx-elf\rx-elf\rx-elf\include\c++\8.3.0.202004-gnurx\cmath **** 
 954:c:\gcc for renesas rx 8.3.0.202004-gnurx-elf\rx-elf\rx-elf\rx-elf\include\c++\8.3.0.202004-gnurx\cmath **** #ifdef _GLIBCXX_USE_C99_MATH_TR1
 955:c:\gcc for renesas rx 8.3.0.202004-gnurx-elf\rx-elf\rx-elf\rx-elf\include\c++\8.3.0.202004-gnurx\cmath **** 
 956:c:\gcc for renesas rx 8.3.0.202004-gnurx-elf\rx-elf\rx-elf\rx-elf\include\c++\8.3.0.202004-gnurx\cmath **** #undef acosh
 957:c:\gcc for renesas rx 8.3.0.202004-gnurx-elf\rx-elf\rx-elf\rx-elf\include\c++\8.3.0.202004-gnurx\cmath **** #undef acoshf
 958:c:\gcc for renesas rx 8.3.0.202004-gnurx-elf\rx-elf\rx-elf\rx-elf\include\c++\8.3.0.202004-gnurx\cmath **** #undef acoshl
 959:c:\gcc for renesas rx 8.3.0.202004-gnurx-elf\rx-elf\rx-elf\rx-elf\include\c++\8.3.0.202004-gnurx\cmath **** #undef asinh
 960:c:\gcc for renesas rx 8.3.0.202004-gnurx-elf\rx-elf\rx-elf\rx-elf\include\c++\8.3.0.202004-gnurx\cmath **** #undef asinhf
 961:c:\gcc for renesas rx 8.3.0.202004-gnurx-elf\rx-elf\rx-elf\rx-elf\include\c++\8.3.0.202004-gnurx\cmath **** #undef asinhl
 962:c:\gcc for renesas rx 8.3.0.202004-gnurx-elf\rx-elf\rx-elf\rx-elf\include\c++\8.3.0.202004-gnurx\cmath **** #undef atanh
 963:c:\gcc for renesas rx 8.3.0.202004-gnurx-elf\rx-elf\rx-elf\rx-elf\include\c++\8.3.0.202004-gnurx\cmath **** #undef atanhf
 964:c:\gcc for renesas rx 8.3.0.202004-gnurx-elf\rx-elf\rx-elf\rx-elf\include\c++\8.3.0.202004-gnurx\cmath **** #undef atanhl
 965:c:\gcc for renesas rx 8.3.0.202004-gnurx-elf\rx-elf\rx-elf\rx-elf\include\c++\8.3.0.202004-gnurx\cmath **** #undef cbrt
 966:c:\gcc for renesas rx 8.3.0.202004-gnurx-elf\rx-elf\rx-elf\rx-elf\include\c++\8.3.0.202004-gnurx\cmath **** #undef cbrtf
 967:c:\gcc for renesas rx 8.3.0.202004-gnurx-elf\rx-elf\rx-elf\rx-elf\include\c++\8.3.0.202004-gnurx\cmath **** #undef cbrtl
 968:c:\gcc for renesas rx 8.3.0.202004-gnurx-elf\rx-elf\rx-elf\rx-elf\include\c++\8.3.0.202004-gnurx\cmath **** #undef copysign
 969:c:\gcc for renesas rx 8.3.0.202004-gnurx-elf\rx-elf\rx-elf\rx-elf\include\c++\8.3.0.202004-gnurx\cmath **** #undef copysignf
 970:c:\gcc for renesas rx 8.3.0.202004-gnurx-elf\rx-elf\rx-elf\rx-elf\include\c++\8.3.0.202004-gnurx\cmath **** #undef copysignl
 971:c:\gcc for renesas rx 8.3.0.202004-gnurx-elf\rx-elf\rx-elf\rx-elf\include\c++\8.3.0.202004-gnurx\cmath **** #undef erf
 972:c:\gcc for renesas rx 8.3.0.202004-gnurx-elf\rx-elf\rx-elf\rx-elf\include\c++\8.3.0.202004-gnurx\cmath **** #undef erff
 973:c:\gcc for renesas rx 8.3.0.202004-gnurx-elf\rx-elf\rx-elf\rx-elf\include\c++\8.3.0.202004-gnurx\cmath **** #undef erfl
 974:c:\gcc for renesas rx 8.3.0.202004-gnurx-elf\rx-elf\rx-elf\rx-elf\include\c++\8.3.0.202004-gnurx\cmath **** #undef erfc
 975:c:\gcc for renesas rx 8.3.0.202004-gnurx-elf\rx-elf\rx-elf\rx-elf\include\c++\8.3.0.202004-gnurx\cmath **** #undef erfcf
 976:c:\gcc for renesas rx 8.3.0.202004-gnurx-elf\rx-elf\rx-elf\rx-elf\include\c++\8.3.0.202004-gnurx\cmath **** #undef erfcl
 977:c:\gcc for renesas rx 8.3.0.202004-gnurx-elf\rx-elf\rx-elf\rx-elf\include\c++\8.3.0.202004-gnurx\cmath **** #undef exp2
 978:c:\gcc for renesas rx 8.3.0.202004-gnurx-elf\rx-elf\rx-elf\rx-elf\include\c++\8.3.0.202004-gnurx\cmath **** #undef exp2f
 979:c:\gcc for renesas rx 8.3.0.202004-gnurx-elf\rx-elf\rx-elf\rx-elf\include\c++\8.3.0.202004-gnurx\cmath **** #undef exp2l
 980:c:\gcc for renesas rx 8.3.0.202004-gnurx-elf\rx-elf\rx-elf\rx-elf\include\c++\8.3.0.202004-gnurx\cmath **** #undef expm1
 981:c:\gcc for renesas rx 8.3.0.202004-gnurx-elf\rx-elf\rx-elf\rx-elf\include\c++\8.3.0.202004-gnurx\cmath **** #undef expm1f
 982:c:\gcc for renesas rx 8.3.0.202004-gnurx-elf\rx-elf\rx-elf\rx-elf\include\c++\8.3.0.202004-gnurx\cmath **** #undef expm1l
 983:c:\gcc for renesas rx 8.3.0.202004-gnurx-elf\rx-elf\rx-elf\rx-elf\include\c++\8.3.0.202004-gnurx\cmath **** #undef fdim
 984:c:\gcc for renesas rx 8.3.0.202004-gnurx-elf\rx-elf\rx-elf\rx-elf\include\c++\8.3.0.202004-gnurx\cmath **** #undef fdimf
 985:c:\gcc for renesas rx 8.3.0.202004-gnurx-elf\rx-elf\rx-elf\rx-elf\include\c++\8.3.0.202004-gnurx\cmath **** #undef fdiml
 986:c:\gcc for renesas rx 8.3.0.202004-gnurx-elf\rx-elf\rx-elf\rx-elf\include\c++\8.3.0.202004-gnurx\cmath **** #undef fma
 987:c:\gcc for renesas rx 8.3.0.202004-gnurx-elf\rx-elf\rx-elf\rx-elf\include\c++\8.3.0.202004-gnurx\cmath **** #undef fmaf
 988:c:\gcc for renesas rx 8.3.0.202004-gnurx-elf\rx-elf\rx-elf\rx-elf\include\c++\8.3.0.202004-gnurx\cmath **** #undef fmal
 989:c:\gcc for renesas rx 8.3.0.202004-gnurx-elf\rx-elf\rx-elf\rx-elf\include\c++\8.3.0.202004-gnurx\cmath **** #undef fmax
 990:c:\gcc for renesas rx 8.3.0.202004-gnurx-elf\rx-elf\rx-elf\rx-elf\include\c++\8.3.0.202004-gnurx\cmath **** #undef fmaxf
 991:c:\gcc for renesas rx 8.3.0.202004-gnurx-elf\rx-elf\rx-elf\rx-elf\include\c++\8.3.0.202004-gnurx\cmath **** #undef fmaxl
 992:c:\gcc for renesas rx 8.3.0.202004-gnurx-elf\rx-elf\rx-elf\rx-elf\include\c++\8.3.0.202004-gnurx\cmath **** #undef fmin
 993:c:\gcc for renesas rx 8.3.0.202004-gnurx-elf\rx-elf\rx-elf\rx-elf\include\c++\8.3.0.202004-gnurx\cmath **** #undef fminf
 994:c:\gcc for renesas rx 8.3.0.202004-gnurx-elf\rx-elf\rx-elf\rx-elf\include\c++\8.3.0.202004-gnurx\cmath **** #undef fminl
 995:c:\gcc for renesas rx 8.3.0.202004-gnurx-elf\rx-elf\rx-elf\rx-elf\include\c++\8.3.0.202004-gnurx\cmath **** #undef hypot
 996:c:\gcc for renesas rx 8.3.0.202004-gnurx-elf\rx-elf\rx-elf\rx-elf\include\c++\8.3.0.202004-gnurx\cmath **** #undef hypotf
 997:c:\gcc for renesas rx 8.3.0.202004-gnurx-elf\rx-elf\rx-elf\rx-elf\include\c++\8.3.0.202004-gnurx\cmath **** #undef hypotl
 998:c:\gcc for renesas rx 8.3.0.202004-gnurx-elf\rx-elf\rx-elf\rx-elf\include\c++\8.3.0.202004-gnurx\cmath **** #undef ilogb
 999:c:\gcc for renesas rx 8.3.0.202004-gnurx-elf\rx-elf\rx-elf\rx-elf\include\c++\8.3.0.202004-gnurx\cmath **** #undef ilogbf
1000:c:\gcc for renesas rx 8.3.0.202004-gnurx-elf\rx-elf\rx-elf\rx-elf\include\c++\8.3.0.202004-gnurx\cmath **** #undef ilogbl
1001:c:\gcc for renesas rx 8.3.0.202004-gnurx-elf\rx-elf\rx-elf\rx-elf\include\c++\8.3.0.202004-gnurx\cmath **** #undef lgamma
1002:c:\gcc for renesas rx 8.3.0.202004-gnurx-elf\rx-elf\rx-elf\rx-elf\include\c++\8.3.0.202004-gnurx\cmath **** #undef lgammaf
1003:c:\gcc for renesas rx 8.3.0.202004-gnurx-elf\rx-elf\rx-elf\rx-elf\include\c++\8.3.0.202004-gnurx\cmath **** #undef lgammal
1004:c:\gcc for renesas rx 8.3.0.202004-gnurx-elf\rx-elf\rx-elf\rx-elf\include\c++\8.3.0.202004-gnurx\cmath **** #ifndef _GLIBCXX_NO_C99_ROUNDING_FUNCS
1005:c:\gcc for renesas rx 8.3.0.202004-gnurx-elf\rx-elf\rx-elf\rx-elf\include\c++\8.3.0.202004-gnurx\cmath **** #undef llrint
1006:c:\gcc for renesas rx 8.3.0.202004-gnurx-elf\rx-elf\rx-elf\rx-elf\include\c++\8.3.0.202004-gnurx\cmath **** #undef llrintf
1007:c:\gcc for renesas rx 8.3.0.202004-gnurx-elf\rx-elf\rx-elf\rx-elf\include\c++\8.3.0.202004-gnurx\cmath **** #undef llrintl
1008:c:\gcc for renesas rx 8.3.0.202004-gnurx-elf\rx-elf\rx-elf\rx-elf\include\c++\8.3.0.202004-gnurx\cmath **** #undef llround
1009:c:\gcc for renesas rx 8.3.0.202004-gnurx-elf\rx-elf\rx-elf\rx-elf\include\c++\8.3.0.202004-gnurx\cmath **** #undef llroundf
1010:c:\gcc for renesas rx 8.3.0.202004-gnurx-elf\rx-elf\rx-elf\rx-elf\include\c++\8.3.0.202004-gnurx\cmath **** #undef llroundl
1011:c:\gcc for renesas rx 8.3.0.202004-gnurx-elf\rx-elf\rx-elf\rx-elf\include\c++\8.3.0.202004-gnurx\cmath **** #endif
1012:c:\gcc for renesas rx 8.3.0.202004-gnurx-elf\rx-elf\rx-elf\rx-elf\include\c++\8.3.0.202004-gnurx\cmath **** #undef log1p
1013:c:\gcc for renesas rx 8.3.0.202004-gnurx-elf\rx-elf\rx-elf\rx-elf\include\c++\8.3.0.202004-gnurx\cmath **** #undef log1pf
1014:c:\gcc for renesas rx 8.3.0.202004-gnurx-elf\rx-elf\rx-elf\rx-elf\include\c++\8.3.0.202004-gnurx\cmath **** #undef log1pl
1015:c:\gcc for renesas rx 8.3.0.202004-gnurx-elf\rx-elf\rx-elf\rx-elf\include\c++\8.3.0.202004-gnurx\cmath **** #undef log2
1016:c:\gcc for renesas rx 8.3.0.202004-gnurx-elf\rx-elf\rx-elf\rx-elf\include\c++\8.3.0.202004-gnurx\cmath **** #undef log2f
1017:c:\gcc for renesas rx 8.3.0.202004-gnurx-elf\rx-elf\rx-elf\rx-elf\include\c++\8.3.0.202004-gnurx\cmath **** #undef log2l
1018:c:\gcc for renesas rx 8.3.0.202004-gnurx-elf\rx-elf\rx-elf\rx-elf\include\c++\8.3.0.202004-gnurx\cmath **** #undef logb
1019:c:\gcc for renesas rx 8.3.0.202004-gnurx-elf\rx-elf\rx-elf\rx-elf\include\c++\8.3.0.202004-gnurx\cmath **** #undef logbf
1020:c:\gcc for renesas rx 8.3.0.202004-gnurx-elf\rx-elf\rx-elf\rx-elf\include\c++\8.3.0.202004-gnurx\cmath **** #undef logbl
1021:c:\gcc for renesas rx 8.3.0.202004-gnurx-elf\rx-elf\rx-elf\rx-elf\include\c++\8.3.0.202004-gnurx\cmath **** #undef lrint
1022:c:\gcc for renesas rx 8.3.0.202004-gnurx-elf\rx-elf\rx-elf\rx-elf\include\c++\8.3.0.202004-gnurx\cmath **** #undef lrintf
1023:c:\gcc for renesas rx 8.3.0.202004-gnurx-elf\rx-elf\rx-elf\rx-elf\include\c++\8.3.0.202004-gnurx\cmath **** #undef lrintl
1024:c:\gcc for renesas rx 8.3.0.202004-gnurx-elf\rx-elf\rx-elf\rx-elf\include\c++\8.3.0.202004-gnurx\cmath **** #undef lround
1025:c:\gcc for renesas rx 8.3.0.202004-gnurx-elf\rx-elf\rx-elf\rx-elf\include\c++\8.3.0.202004-gnurx\cmath **** #undef lroundf
1026:c:\gcc for renesas rx 8.3.0.202004-gnurx-elf\rx-elf\rx-elf\rx-elf\include\c++\8.3.0.202004-gnurx\cmath **** #undef lroundl
1027:c:\gcc for renesas rx 8.3.0.202004-gnurx-elf\rx-elf\rx-elf\rx-elf\include\c++\8.3.0.202004-gnurx\cmath **** #undef nan
1028:c:\gcc for renesas rx 8.3.0.202004-gnurx-elf\rx-elf\rx-elf\rx-elf\include\c++\8.3.0.202004-gnurx\cmath **** #undef nanf
1029:c:\gcc for renesas rx 8.3.0.202004-gnurx-elf\rx-elf\rx-elf\rx-elf\include\c++\8.3.0.202004-gnurx\cmath **** #undef nanl
1030:c:\gcc for renesas rx 8.3.0.202004-gnurx-elf\rx-elf\rx-elf\rx-elf\include\c++\8.3.0.202004-gnurx\cmath **** #undef nearbyint
1031:c:\gcc for renesas rx 8.3.0.202004-gnurx-elf\rx-elf\rx-elf\rx-elf\include\c++\8.3.0.202004-gnurx\cmath **** #undef nearbyintf
1032:c:\gcc for renesas rx 8.3.0.202004-gnurx-elf\rx-elf\rx-elf\rx-elf\include\c++\8.3.0.202004-gnurx\cmath **** #undef nearbyintl
1033:c:\gcc for renesas rx 8.3.0.202004-gnurx-elf\rx-elf\rx-elf\rx-elf\include\c++\8.3.0.202004-gnurx\cmath **** #undef nextafter
1034:c:\gcc for renesas rx 8.3.0.202004-gnurx-elf\rx-elf\rx-elf\rx-elf\include\c++\8.3.0.202004-gnurx\cmath **** #undef nextafterf
1035:c:\gcc for renesas rx 8.3.0.202004-gnurx-elf\rx-elf\rx-elf\rx-elf\include\c++\8.3.0.202004-gnurx\cmath **** #undef nextafterl
1036:c:\gcc for renesas rx 8.3.0.202004-gnurx-elf\rx-elf\rx-elf\rx-elf\include\c++\8.3.0.202004-gnurx\cmath **** #undef nexttoward
1037:c:\gcc for renesas rx 8.3.0.202004-gnurx-elf\rx-elf\rx-elf\rx-elf\include\c++\8.3.0.202004-gnurx\cmath **** #undef nexttowardf
1038:c:\gcc for renesas rx 8.3.0.202004-gnurx-elf\rx-elf\rx-elf\rx-elf\include\c++\8.3.0.202004-gnurx\cmath **** #undef nexttowardl
1039:c:\gcc for renesas rx 8.3.0.202004-gnurx-elf\rx-elf\rx-elf\rx-elf\include\c++\8.3.0.202004-gnurx\cmath **** #undef remainder
1040:c:\gcc for renesas rx 8.3.0.202004-gnurx-elf\rx-elf\rx-elf\rx-elf\include\c++\8.3.0.202004-gnurx\cmath **** #undef remainderf
1041:c:\gcc for renesas rx 8.3.0.202004-gnurx-elf\rx-elf\rx-elf\rx-elf\include\c++\8.3.0.202004-gnurx\cmath **** #undef remainderl
1042:c:\gcc for renesas rx 8.3.0.202004-gnurx-elf\rx-elf\rx-elf\rx-elf\include\c++\8.3.0.202004-gnurx\cmath **** #undef remquo
1043:c:\gcc for renesas rx 8.3.0.202004-gnurx-elf\rx-elf\rx-elf\rx-elf\include\c++\8.3.0.202004-gnurx\cmath **** #undef remquof
1044:c:\gcc for renesas rx 8.3.0.202004-gnurx-elf\rx-elf\rx-elf\rx-elf\include\c++\8.3.0.202004-gnurx\cmath **** #undef remquol
1045:c:\gcc for renesas rx 8.3.0.202004-gnurx-elf\rx-elf\rx-elf\rx-elf\include\c++\8.3.0.202004-gnurx\cmath **** #undef rint
1046:c:\gcc for renesas rx 8.3.0.202004-gnurx-elf\rx-elf\rx-elf\rx-elf\include\c++\8.3.0.202004-gnurx\cmath **** #undef rintf
1047:c:\gcc for renesas rx 8.3.0.202004-gnurx-elf\rx-elf\rx-elf\rx-elf\include\c++\8.3.0.202004-gnurx\cmath **** #undef rintl
1048:c:\gcc for renesas rx 8.3.0.202004-gnurx-elf\rx-elf\rx-elf\rx-elf\include\c++\8.3.0.202004-gnurx\cmath **** #undef round
1049:c:\gcc for renesas rx 8.3.0.202004-gnurx-elf\rx-elf\rx-elf\rx-elf\include\c++\8.3.0.202004-gnurx\cmath **** #undef roundf
1050:c:\gcc for renesas rx 8.3.0.202004-gnurx-elf\rx-elf\rx-elf\rx-elf\include\c++\8.3.0.202004-gnurx\cmath **** #undef roundl
1051:c:\gcc for renesas rx 8.3.0.202004-gnurx-elf\rx-elf\rx-elf\rx-elf\include\c++\8.3.0.202004-gnurx\cmath **** #undef scalbln
1052:c:\gcc for renesas rx 8.3.0.202004-gnurx-elf\rx-elf\rx-elf\rx-elf\include\c++\8.3.0.202004-gnurx\cmath **** #undef scalblnf
1053:c:\gcc for renesas rx 8.3.0.202004-gnurx-elf\rx-elf\rx-elf\rx-elf\include\c++\8.3.0.202004-gnurx\cmath **** #undef scalblnl
1054:c:\gcc for renesas rx 8.3.0.202004-gnurx-elf\rx-elf\rx-elf\rx-elf\include\c++\8.3.0.202004-gnurx\cmath **** #undef scalbn
1055:c:\gcc for renesas rx 8.3.0.202004-gnurx-elf\rx-elf\rx-elf\rx-elf\include\c++\8.3.0.202004-gnurx\cmath **** #undef scalbnf
1056:c:\gcc for renesas rx 8.3.0.202004-gnurx-elf\rx-elf\rx-elf\rx-elf\include\c++\8.3.0.202004-gnurx\cmath **** #undef scalbnl
1057:c:\gcc for renesas rx 8.3.0.202004-gnurx-elf\rx-elf\rx-elf\rx-elf\include\c++\8.3.0.202004-gnurx\cmath **** #undef tgamma
1058:c:\gcc for renesas rx 8.3.0.202004-gnurx-elf\rx-elf\rx-elf\rx-elf\include\c++\8.3.0.202004-gnurx\cmath **** #undef tgammaf
1059:c:\gcc for renesas rx 8.3.0.202004-gnurx-elf\rx-elf\rx-elf\rx-elf\include\c++\8.3.0.202004-gnurx\cmath **** #undef tgammal
1060:c:\gcc for renesas rx 8.3.0.202004-gnurx-elf\rx-elf\rx-elf\rx-elf\include\c++\8.3.0.202004-gnurx\cmath **** #undef trunc
1061:c:\gcc for renesas rx 8.3.0.202004-gnurx-elf\rx-elf\rx-elf\rx-elf\include\c++\8.3.0.202004-gnurx\cmath **** #undef truncf
1062:c:\gcc for renesas rx 8.3.0.202004-gnurx-elf\rx-elf\rx-elf\rx-elf\include\c++\8.3.0.202004-gnurx\cmath **** #undef truncl
1063:c:\gcc for renesas rx 8.3.0.202004-gnurx-elf\rx-elf\rx-elf\rx-elf\include\c++\8.3.0.202004-gnurx\cmath **** 
1064:c:\gcc for renesas rx 8.3.0.202004-gnurx-elf\rx-elf\rx-elf\rx-elf\include\c++\8.3.0.202004-gnurx\cmath ****   // types
1065:c:\gcc for renesas rx 8.3.0.202004-gnurx-elf\rx-elf\rx-elf\rx-elf\include\c++\8.3.0.202004-gnurx\cmath ****   using ::double_t;
1066:c:\gcc for renesas rx 8.3.0.202004-gnurx-elf\rx-elf\rx-elf\rx-elf\include\c++\8.3.0.202004-gnurx\cmath ****   using ::float_t;
1067:c:\gcc for renesas rx 8.3.0.202004-gnurx-elf\rx-elf\rx-elf\rx-elf\include\c++\8.3.0.202004-gnurx\cmath **** 
1068:c:\gcc for renesas rx 8.3.0.202004-gnurx-elf\rx-elf\rx-elf\rx-elf\include\c++\8.3.0.202004-gnurx\cmath ****   // functions
1069:c:\gcc for renesas rx 8.3.0.202004-gnurx-elf\rx-elf\rx-elf\rx-elf\include\c++\8.3.0.202004-gnurx\cmath ****   using ::acosh;
1070:c:\gcc for renesas rx 8.3.0.202004-gnurx-elf\rx-elf\rx-elf\rx-elf\include\c++\8.3.0.202004-gnurx\cmath ****   using ::acoshf;
1071:c:\gcc for renesas rx 8.3.0.202004-gnurx-elf\rx-elf\rx-elf\rx-elf\include\c++\8.3.0.202004-gnurx\cmath ****   using ::acoshl;
1072:c:\gcc for renesas rx 8.3.0.202004-gnurx-elf\rx-elf\rx-elf\rx-elf\include\c++\8.3.0.202004-gnurx\cmath **** 
1073:c:\gcc for renesas rx 8.3.0.202004-gnurx-elf\rx-elf\rx-elf\rx-elf\include\c++\8.3.0.202004-gnurx\cmath ****   using ::asinh;
1074:c:\gcc for renesas rx 8.3.0.202004-gnurx-elf\rx-elf\rx-elf\rx-elf\include\c++\8.3.0.202004-gnurx\cmath ****   using ::asinhf;
1075:c:\gcc for renesas rx 8.3.0.202004-gnurx-elf\rx-elf\rx-elf\rx-elf\include\c++\8.3.0.202004-gnurx\cmath ****   using ::asinhl;
1076:c:\gcc for renesas rx 8.3.0.202004-gnurx-elf\rx-elf\rx-elf\rx-elf\include\c++\8.3.0.202004-gnurx\cmath **** 
1077:c:\gcc for renesas rx 8.3.0.202004-gnurx-elf\rx-elf\rx-elf\rx-elf\include\c++\8.3.0.202004-gnurx\cmath ****   using ::atanh;
1078:c:\gcc for renesas rx 8.3.0.202004-gnurx-elf\rx-elf\rx-elf\rx-elf\include\c++\8.3.0.202004-gnurx\cmath ****   using ::atanhf;
1079:c:\gcc for renesas rx 8.3.0.202004-gnurx-elf\rx-elf\rx-elf\rx-elf\include\c++\8.3.0.202004-gnurx\cmath ****   using ::atanhl;
1080:c:\gcc for renesas rx 8.3.0.202004-gnurx-elf\rx-elf\rx-elf\rx-elf\include\c++\8.3.0.202004-gnurx\cmath **** 
1081:c:\gcc for renesas rx 8.3.0.202004-gnurx-elf\rx-elf\rx-elf\rx-elf\include\c++\8.3.0.202004-gnurx\cmath ****   using ::cbrt;
1082:c:\gcc for renesas rx 8.3.0.202004-gnurx-elf\rx-elf\rx-elf\rx-elf\include\c++\8.3.0.202004-gnurx\cmath ****   using ::cbrtf;
1083:c:\gcc for renesas rx 8.3.0.202004-gnurx-elf\rx-elf\rx-elf\rx-elf\include\c++\8.3.0.202004-gnurx\cmath ****   using ::cbrtl;
1084:c:\gcc for renesas rx 8.3.0.202004-gnurx-elf\rx-elf\rx-elf\rx-elf\include\c++\8.3.0.202004-gnurx\cmath **** 
1085:c:\gcc for renesas rx 8.3.0.202004-gnurx-elf\rx-elf\rx-elf\rx-elf\include\c++\8.3.0.202004-gnurx\cmath ****   using ::copysign;
1086:c:\gcc for renesas rx 8.3.0.202004-gnurx-elf\rx-elf\rx-elf\rx-elf\include\c++\8.3.0.202004-gnurx\cmath ****   using ::copysignf;
1087:c:\gcc for renesas rx 8.3.0.202004-gnurx-elf\rx-elf\rx-elf\rx-elf\include\c++\8.3.0.202004-gnurx\cmath ****   using ::copysignl;
1088:c:\gcc for renesas rx 8.3.0.202004-gnurx-elf\rx-elf\rx-elf\rx-elf\include\c++\8.3.0.202004-gnurx\cmath **** 
1089:c:\gcc for renesas rx 8.3.0.202004-gnurx-elf\rx-elf\rx-elf\rx-elf\include\c++\8.3.0.202004-gnurx\cmath ****   using ::erf;
1090:c:\gcc for renesas rx 8.3.0.202004-gnurx-elf\rx-elf\rx-elf\rx-elf\include\c++\8.3.0.202004-gnurx\cmath ****   using ::erff;
1091:c:\gcc for renesas rx 8.3.0.202004-gnurx-elf\rx-elf\rx-elf\rx-elf\include\c++\8.3.0.202004-gnurx\cmath ****   using ::erfl;
1092:c:\gcc for renesas rx 8.3.0.202004-gnurx-elf\rx-elf\rx-elf\rx-elf\include\c++\8.3.0.202004-gnurx\cmath **** 
1093:c:\gcc for renesas rx 8.3.0.202004-gnurx-elf\rx-elf\rx-elf\rx-elf\include\c++\8.3.0.202004-gnurx\cmath ****   using ::erfc;
1094:c:\gcc for renesas rx 8.3.0.202004-gnurx-elf\rx-elf\rx-elf\rx-elf\include\c++\8.3.0.202004-gnurx\cmath ****   using ::erfcf;
1095:c:\gcc for renesas rx 8.3.0.202004-gnurx-elf\rx-elf\rx-elf\rx-elf\include\c++\8.3.0.202004-gnurx\cmath ****   using ::erfcl;
1096:c:\gcc for renesas rx 8.3.0.202004-gnurx-elf\rx-elf\rx-elf\rx-elf\include\c++\8.3.0.202004-gnurx\cmath **** 
1097:c:\gcc for renesas rx 8.3.0.202004-gnurx-elf\rx-elf\rx-elf\rx-elf\include\c++\8.3.0.202004-gnurx\cmath ****   using ::exp2;
1098:c:\gcc for renesas rx 8.3.0.202004-gnurx-elf\rx-elf\rx-elf\rx-elf\include\c++\8.3.0.202004-gnurx\cmath ****   using ::exp2f;
1099:c:\gcc for renesas rx 8.3.0.202004-gnurx-elf\rx-elf\rx-elf\rx-elf\include\c++\8.3.0.202004-gnurx\cmath ****   using ::exp2l;
1100:c:\gcc for renesas rx 8.3.0.202004-gnurx-elf\rx-elf\rx-elf\rx-elf\include\c++\8.3.0.202004-gnurx\cmath **** 
1101:c:\gcc for renesas rx 8.3.0.202004-gnurx-elf\rx-elf\rx-elf\rx-elf\include\c++\8.3.0.202004-gnurx\cmath ****   using ::expm1;
1102:c:\gcc for renesas rx 8.3.0.202004-gnurx-elf\rx-elf\rx-elf\rx-elf\include\c++\8.3.0.202004-gnurx\cmath ****   using ::expm1f;
1103:c:\gcc for renesas rx 8.3.0.202004-gnurx-elf\rx-elf\rx-elf\rx-elf\include\c++\8.3.0.202004-gnurx\cmath ****   using ::expm1l;
1104:c:\gcc for renesas rx 8.3.0.202004-gnurx-elf\rx-elf\rx-elf\rx-elf\include\c++\8.3.0.202004-gnurx\cmath **** 
1105:c:\gcc for renesas rx 8.3.0.202004-gnurx-elf\rx-elf\rx-elf\rx-elf\include\c++\8.3.0.202004-gnurx\cmath ****   using ::fdim;
1106:c:\gcc for renesas rx 8.3.0.202004-gnurx-elf\rx-elf\rx-elf\rx-elf\include\c++\8.3.0.202004-gnurx\cmath ****   using ::fdimf;
1107:c:\gcc for renesas rx 8.3.0.202004-gnurx-elf\rx-elf\rx-elf\rx-elf\include\c++\8.3.0.202004-gnurx\cmath ****   using ::fdiml;
1108:c:\gcc for renesas rx 8.3.0.202004-gnurx-elf\rx-elf\rx-elf\rx-elf\include\c++\8.3.0.202004-gnurx\cmath **** 
1109:c:\gcc for renesas rx 8.3.0.202004-gnurx-elf\rx-elf\rx-elf\rx-elf\include\c++\8.3.0.202004-gnurx\cmath ****   using ::fma;
1110:c:\gcc for renesas rx 8.3.0.202004-gnurx-elf\rx-elf\rx-elf\rx-elf\include\c++\8.3.0.202004-gnurx\cmath ****   using ::fmaf;
1111:c:\gcc for renesas rx 8.3.0.202004-gnurx-elf\rx-elf\rx-elf\rx-elf\include\c++\8.3.0.202004-gnurx\cmath ****   using ::fmal;
1112:c:\gcc for renesas rx 8.3.0.202004-gnurx-elf\rx-elf\rx-elf\rx-elf\include\c++\8.3.0.202004-gnurx\cmath **** 
1113:c:\gcc for renesas rx 8.3.0.202004-gnurx-elf\rx-elf\rx-elf\rx-elf\include\c++\8.3.0.202004-gnurx\cmath ****   using ::fmax;
1114:c:\gcc for renesas rx 8.3.0.202004-gnurx-elf\rx-elf\rx-elf\rx-elf\include\c++\8.3.0.202004-gnurx\cmath ****   using ::fmaxf;
1115:c:\gcc for renesas rx 8.3.0.202004-gnurx-elf\rx-elf\rx-elf\rx-elf\include\c++\8.3.0.202004-gnurx\cmath ****   using ::fmaxl;
1116:c:\gcc for renesas rx 8.3.0.202004-gnurx-elf\rx-elf\rx-elf\rx-elf\include\c++\8.3.0.202004-gnurx\cmath **** 
1117:c:\gcc for renesas rx 8.3.0.202004-gnurx-elf\rx-elf\rx-elf\rx-elf\include\c++\8.3.0.202004-gnurx\cmath ****   using ::fmin;
1118:c:\gcc for renesas rx 8.3.0.202004-gnurx-elf\rx-elf\rx-elf\rx-elf\include\c++\8.3.0.202004-gnurx\cmath ****   using ::fminf;
1119:c:\gcc for renesas rx 8.3.0.202004-gnurx-elf\rx-elf\rx-elf\rx-elf\include\c++\8.3.0.202004-gnurx\cmath ****   using ::fminl;
1120:c:\gcc for renesas rx 8.3.0.202004-gnurx-elf\rx-elf\rx-elf\rx-elf\include\c++\8.3.0.202004-gnurx\cmath **** 
1121:c:\gcc for renesas rx 8.3.0.202004-gnurx-elf\rx-elf\rx-elf\rx-elf\include\c++\8.3.0.202004-gnurx\cmath ****   using ::hypot;
1122:c:\gcc for renesas rx 8.3.0.202004-gnurx-elf\rx-elf\rx-elf\rx-elf\include\c++\8.3.0.202004-gnurx\cmath ****   using ::hypotf;
1123:c:\gcc for renesas rx 8.3.0.202004-gnurx-elf\rx-elf\rx-elf\rx-elf\include\c++\8.3.0.202004-gnurx\cmath ****   using ::hypotl;
1124:c:\gcc for renesas rx 8.3.0.202004-gnurx-elf\rx-elf\rx-elf\rx-elf\include\c++\8.3.0.202004-gnurx\cmath **** 
1125:c:\gcc for renesas rx 8.3.0.202004-gnurx-elf\rx-elf\rx-elf\rx-elf\include\c++\8.3.0.202004-gnurx\cmath ****   using ::ilogb;
1126:c:\gcc for renesas rx 8.3.0.202004-gnurx-elf\rx-elf\rx-elf\rx-elf\include\c++\8.3.0.202004-gnurx\cmath ****   using ::ilogbf;
1127:c:\gcc for renesas rx 8.3.0.202004-gnurx-elf\rx-elf\rx-elf\rx-elf\include\c++\8.3.0.202004-gnurx\cmath ****   using ::ilogbl;
1128:c:\gcc for renesas rx 8.3.0.202004-gnurx-elf\rx-elf\rx-elf\rx-elf\include\c++\8.3.0.202004-gnurx\cmath **** 
1129:c:\gcc for renesas rx 8.3.0.202004-gnurx-elf\rx-elf\rx-elf\rx-elf\include\c++\8.3.0.202004-gnurx\cmath ****   using ::lgamma;
1130:c:\gcc for renesas rx 8.3.0.202004-gnurx-elf\rx-elf\rx-elf\rx-elf\include\c++\8.3.0.202004-gnurx\cmath ****   using ::lgammaf;
1131:c:\gcc for renesas rx 8.3.0.202004-gnurx-elf\rx-elf\rx-elf\rx-elf\include\c++\8.3.0.202004-gnurx\cmath ****   using ::lgammal;
1132:c:\gcc for renesas rx 8.3.0.202004-gnurx-elf\rx-elf\rx-elf\rx-elf\include\c++\8.3.0.202004-gnurx\cmath **** 
1133:c:\gcc for renesas rx 8.3.0.202004-gnurx-elf\rx-elf\rx-elf\rx-elf\include\c++\8.3.0.202004-gnurx\cmath **** #ifndef _GLIBCXX_NO_C99_ROUNDING_FUNCS
1134:c:\gcc for renesas rx 8.3.0.202004-gnurx-elf\rx-elf\rx-elf\rx-elf\include\c++\8.3.0.202004-gnurx\cmath ****   using ::llrint;
1135:c:\gcc for renesas rx 8.3.0.202004-gnurx-elf\rx-elf\rx-elf\rx-elf\include\c++\8.3.0.202004-gnurx\cmath ****   using ::llrintf;
1136:c:\gcc for renesas rx 8.3.0.202004-gnurx-elf\rx-elf\rx-elf\rx-elf\include\c++\8.3.0.202004-gnurx\cmath ****   using ::llrintl;
1137:c:\gcc for renesas rx 8.3.0.202004-gnurx-elf\rx-elf\rx-elf\rx-elf\include\c++\8.3.0.202004-gnurx\cmath **** 
1138:c:\gcc for renesas rx 8.3.0.202004-gnurx-elf\rx-elf\rx-elf\rx-elf\include\c++\8.3.0.202004-gnurx\cmath ****   using ::llround;
1139:c:\gcc for renesas rx 8.3.0.202004-gnurx-elf\rx-elf\rx-elf\rx-elf\include\c++\8.3.0.202004-gnurx\cmath ****   using ::llroundf;
1140:c:\gcc for renesas rx 8.3.0.202004-gnurx-elf\rx-elf\rx-elf\rx-elf\include\c++\8.3.0.202004-gnurx\cmath ****   using ::llroundl;
1141:c:\gcc for renesas rx 8.3.0.202004-gnurx-elf\rx-elf\rx-elf\rx-elf\include\c++\8.3.0.202004-gnurx\cmath **** #endif
1142:c:\gcc for renesas rx 8.3.0.202004-gnurx-elf\rx-elf\rx-elf\rx-elf\include\c++\8.3.0.202004-gnurx\cmath **** 
1143:c:\gcc for renesas rx 8.3.0.202004-gnurx-elf\rx-elf\rx-elf\rx-elf\include\c++\8.3.0.202004-gnurx\cmath ****   using ::log1p;
1144:c:\gcc for renesas rx 8.3.0.202004-gnurx-elf\rx-elf\rx-elf\rx-elf\include\c++\8.3.0.202004-gnurx\cmath ****   using ::log1pf;
1145:c:\gcc for renesas rx 8.3.0.202004-gnurx-elf\rx-elf\rx-elf\rx-elf\include\c++\8.3.0.202004-gnurx\cmath ****   using ::log1pl;
1146:c:\gcc for renesas rx 8.3.0.202004-gnurx-elf\rx-elf\rx-elf\rx-elf\include\c++\8.3.0.202004-gnurx\cmath **** 
1147:c:\gcc for renesas rx 8.3.0.202004-gnurx-elf\rx-elf\rx-elf\rx-elf\include\c++\8.3.0.202004-gnurx\cmath ****   using ::log2;
1148:c:\gcc for renesas rx 8.3.0.202004-gnurx-elf\rx-elf\rx-elf\rx-elf\include\c++\8.3.0.202004-gnurx\cmath ****   using ::log2f;
1149:c:\gcc for renesas rx 8.3.0.202004-gnurx-elf\rx-elf\rx-elf\rx-elf\include\c++\8.3.0.202004-gnurx\cmath ****   using ::log2l;
1150:c:\gcc for renesas rx 8.3.0.202004-gnurx-elf\rx-elf\rx-elf\rx-elf\include\c++\8.3.0.202004-gnurx\cmath **** 
1151:c:\gcc for renesas rx 8.3.0.202004-gnurx-elf\rx-elf\rx-elf\rx-elf\include\c++\8.3.0.202004-gnurx\cmath ****   using ::logb;
1152:c:\gcc for renesas rx 8.3.0.202004-gnurx-elf\rx-elf\rx-elf\rx-elf\include\c++\8.3.0.202004-gnurx\cmath ****   using ::logbf;
1153:c:\gcc for renesas rx 8.3.0.202004-gnurx-elf\rx-elf\rx-elf\rx-elf\include\c++\8.3.0.202004-gnurx\cmath ****   using ::logbl;
1154:c:\gcc for renesas rx 8.3.0.202004-gnurx-elf\rx-elf\rx-elf\rx-elf\include\c++\8.3.0.202004-gnurx\cmath **** 
1155:c:\gcc for renesas rx 8.3.0.202004-gnurx-elf\rx-elf\rx-elf\rx-elf\include\c++\8.3.0.202004-gnurx\cmath ****   using ::lrint;
1156:c:\gcc for renesas rx 8.3.0.202004-gnurx-elf\rx-elf\rx-elf\rx-elf\include\c++\8.3.0.202004-gnurx\cmath ****   using ::lrintf;
1157:c:\gcc for renesas rx 8.3.0.202004-gnurx-elf\rx-elf\rx-elf\rx-elf\include\c++\8.3.0.202004-gnurx\cmath ****   using ::lrintl;
1158:c:\gcc for renesas rx 8.3.0.202004-gnurx-elf\rx-elf\rx-elf\rx-elf\include\c++\8.3.0.202004-gnurx\cmath **** 
1159:c:\gcc for renesas rx 8.3.0.202004-gnurx-elf\rx-elf\rx-elf\rx-elf\include\c++\8.3.0.202004-gnurx\cmath ****   using ::lround;
1160:c:\gcc for renesas rx 8.3.0.202004-gnurx-elf\rx-elf\rx-elf\rx-elf\include\c++\8.3.0.202004-gnurx\cmath ****   using ::lroundf;
1161:c:\gcc for renesas rx 8.3.0.202004-gnurx-elf\rx-elf\rx-elf\rx-elf\include\c++\8.3.0.202004-gnurx\cmath ****   using ::lroundl;
1162:c:\gcc for renesas rx 8.3.0.202004-gnurx-elf\rx-elf\rx-elf\rx-elf\include\c++\8.3.0.202004-gnurx\cmath **** 
1163:c:\gcc for renesas rx 8.3.0.202004-gnurx-elf\rx-elf\rx-elf\rx-elf\include\c++\8.3.0.202004-gnurx\cmath ****   using ::nan;
1164:c:\gcc for renesas rx 8.3.0.202004-gnurx-elf\rx-elf\rx-elf\rx-elf\include\c++\8.3.0.202004-gnurx\cmath ****   using ::nanf;
1165:c:\gcc for renesas rx 8.3.0.202004-gnurx-elf\rx-elf\rx-elf\rx-elf\include\c++\8.3.0.202004-gnurx\cmath ****   using ::nanl;
1166:c:\gcc for renesas rx 8.3.0.202004-gnurx-elf\rx-elf\rx-elf\rx-elf\include\c++\8.3.0.202004-gnurx\cmath **** 
1167:c:\gcc for renesas rx 8.3.0.202004-gnurx-elf\rx-elf\rx-elf\rx-elf\include\c++\8.3.0.202004-gnurx\cmath ****   using ::nearbyint;
1168:c:\gcc for renesas rx 8.3.0.202004-gnurx-elf\rx-elf\rx-elf\rx-elf\include\c++\8.3.0.202004-gnurx\cmath ****   using ::nearbyintf;
1169:c:\gcc for renesas rx 8.3.0.202004-gnurx-elf\rx-elf\rx-elf\rx-elf\include\c++\8.3.0.202004-gnurx\cmath ****   using ::nearbyintl;
1170:c:\gcc for renesas rx 8.3.0.202004-gnurx-elf\rx-elf\rx-elf\rx-elf\include\c++\8.3.0.202004-gnurx\cmath **** 
1171:c:\gcc for renesas rx 8.3.0.202004-gnurx-elf\rx-elf\rx-elf\rx-elf\include\c++\8.3.0.202004-gnurx\cmath ****   using ::nextafter;
1172:c:\gcc for renesas rx 8.3.0.202004-gnurx-elf\rx-elf\rx-elf\rx-elf\include\c++\8.3.0.202004-gnurx\cmath ****   using ::nextafterf;
1173:c:\gcc for renesas rx 8.3.0.202004-gnurx-elf\rx-elf\rx-elf\rx-elf\include\c++\8.3.0.202004-gnurx\cmath ****   using ::nextafterl;
1174:c:\gcc for renesas rx 8.3.0.202004-gnurx-elf\rx-elf\rx-elf\rx-elf\include\c++\8.3.0.202004-gnurx\cmath **** 
1175:c:\gcc for renesas rx 8.3.0.202004-gnurx-elf\rx-elf\rx-elf\rx-elf\include\c++\8.3.0.202004-gnurx\cmath ****   using ::nexttoward;
1176:c:\gcc for renesas rx 8.3.0.202004-gnurx-elf\rx-elf\rx-elf\rx-elf\include\c++\8.3.0.202004-gnurx\cmath ****   using ::nexttowardf;
1177:c:\gcc for renesas rx 8.3.0.202004-gnurx-elf\rx-elf\rx-elf\rx-elf\include\c++\8.3.0.202004-gnurx\cmath ****   using ::nexttowardl;
1178:c:\gcc for renesas rx 8.3.0.202004-gnurx-elf\rx-elf\rx-elf\rx-elf\include\c++\8.3.0.202004-gnurx\cmath **** 
1179:c:\gcc for renesas rx 8.3.0.202004-gnurx-elf\rx-elf\rx-elf\rx-elf\include\c++\8.3.0.202004-gnurx\cmath ****   using ::remainder;
1180:c:\gcc for renesas rx 8.3.0.202004-gnurx-elf\rx-elf\rx-elf\rx-elf\include\c++\8.3.0.202004-gnurx\cmath ****   using ::remainderf;
1181:c:\gcc for renesas rx 8.3.0.202004-gnurx-elf\rx-elf\rx-elf\rx-elf\include\c++\8.3.0.202004-gnurx\cmath ****   using ::remainderl;
1182:c:\gcc for renesas rx 8.3.0.202004-gnurx-elf\rx-elf\rx-elf\rx-elf\include\c++\8.3.0.202004-gnurx\cmath **** 
1183:c:\gcc for renesas rx 8.3.0.202004-gnurx-elf\rx-elf\rx-elf\rx-elf\include\c++\8.3.0.202004-gnurx\cmath ****   using ::remquo;
1184:c:\gcc for renesas rx 8.3.0.202004-gnurx-elf\rx-elf\rx-elf\rx-elf\include\c++\8.3.0.202004-gnurx\cmath ****   using ::remquof;
1185:c:\gcc for renesas rx 8.3.0.202004-gnurx-elf\rx-elf\rx-elf\rx-elf\include\c++\8.3.0.202004-gnurx\cmath ****   using ::remquol;
1186:c:\gcc for renesas rx 8.3.0.202004-gnurx-elf\rx-elf\rx-elf\rx-elf\include\c++\8.3.0.202004-gnurx\cmath **** 
1187:c:\gcc for renesas rx 8.3.0.202004-gnurx-elf\rx-elf\rx-elf\rx-elf\include\c++\8.3.0.202004-gnurx\cmath ****   using ::rint;
1188:c:\gcc for renesas rx 8.3.0.202004-gnurx-elf\rx-elf\rx-elf\rx-elf\include\c++\8.3.0.202004-gnurx\cmath ****   using ::rintf;
1189:c:\gcc for renesas rx 8.3.0.202004-gnurx-elf\rx-elf\rx-elf\rx-elf\include\c++\8.3.0.202004-gnurx\cmath ****   using ::rintl;
1190:c:\gcc for renesas rx 8.3.0.202004-gnurx-elf\rx-elf\rx-elf\rx-elf\include\c++\8.3.0.202004-gnurx\cmath **** 
1191:c:\gcc for renesas rx 8.3.0.202004-gnurx-elf\rx-elf\rx-elf\rx-elf\include\c++\8.3.0.202004-gnurx\cmath ****   using ::round;
1192:c:\gcc for renesas rx 8.3.0.202004-gnurx-elf\rx-elf\rx-elf\rx-elf\include\c++\8.3.0.202004-gnurx\cmath ****   using ::roundf;
1193:c:\gcc for renesas rx 8.3.0.202004-gnurx-elf\rx-elf\rx-elf\rx-elf\include\c++\8.3.0.202004-gnurx\cmath ****   using ::roundl;
1194:c:\gcc for renesas rx 8.3.0.202004-gnurx-elf\rx-elf\rx-elf\rx-elf\include\c++\8.3.0.202004-gnurx\cmath **** 
1195:c:\gcc for renesas rx 8.3.0.202004-gnurx-elf\rx-elf\rx-elf\rx-elf\include\c++\8.3.0.202004-gnurx\cmath ****   using ::scalbln;
1196:c:\gcc for renesas rx 8.3.0.202004-gnurx-elf\rx-elf\rx-elf\rx-elf\include\c++\8.3.0.202004-gnurx\cmath ****   using ::scalblnf;
1197:c:\gcc for renesas rx 8.3.0.202004-gnurx-elf\rx-elf\rx-elf\rx-elf\include\c++\8.3.0.202004-gnurx\cmath ****   using ::scalblnl;
1198:c:\gcc for renesas rx 8.3.0.202004-gnurx-elf\rx-elf\rx-elf\rx-elf\include\c++\8.3.0.202004-gnurx\cmath **** 
1199:c:\gcc for renesas rx 8.3.0.202004-gnurx-elf\rx-elf\rx-elf\rx-elf\include\c++\8.3.0.202004-gnurx\cmath ****   using ::scalbn;
1200:c:\gcc for renesas rx 8.3.0.202004-gnurx-elf\rx-elf\rx-elf\rx-elf\include\c++\8.3.0.202004-gnurx\cmath ****   using ::scalbnf;
1201:c:\gcc for renesas rx 8.3.0.202004-gnurx-elf\rx-elf\rx-elf\rx-elf\include\c++\8.3.0.202004-gnurx\cmath ****   using ::scalbnl;
1202:c:\gcc for renesas rx 8.3.0.202004-gnurx-elf\rx-elf\rx-elf\rx-elf\include\c++\8.3.0.202004-gnurx\cmath **** 
1203:c:\gcc for renesas rx 8.3.0.202004-gnurx-elf\rx-elf\rx-elf\rx-elf\include\c++\8.3.0.202004-gnurx\cmath ****   using ::tgamma;
1204:c:\gcc for renesas rx 8.3.0.202004-gnurx-elf\rx-elf\rx-elf\rx-elf\include\c++\8.3.0.202004-gnurx\cmath ****   using ::tgammaf;
1205:c:\gcc for renesas rx 8.3.0.202004-gnurx-elf\rx-elf\rx-elf\rx-elf\include\c++\8.3.0.202004-gnurx\cmath ****   using ::tgammal;
1206:c:\gcc for renesas rx 8.3.0.202004-gnurx-elf\rx-elf\rx-elf\rx-elf\include\c++\8.3.0.202004-gnurx\cmath **** 
1207:c:\gcc for renesas rx 8.3.0.202004-gnurx-elf\rx-elf\rx-elf\rx-elf\include\c++\8.3.0.202004-gnurx\cmath ****   using ::trunc;
1208:c:\gcc for renesas rx 8.3.0.202004-gnurx-elf\rx-elf\rx-elf\rx-elf\include\c++\8.3.0.202004-gnurx\cmath ****   using ::truncf;
1209:c:\gcc for renesas rx 8.3.0.202004-gnurx-elf\rx-elf\rx-elf\rx-elf\include\c++\8.3.0.202004-gnurx\cmath ****   using ::truncl;
1210:c:\gcc for renesas rx 8.3.0.202004-gnurx-elf\rx-elf\rx-elf\rx-elf\include\c++\8.3.0.202004-gnurx\cmath **** 
1211:c:\gcc for renesas rx 8.3.0.202004-gnurx-elf\rx-elf\rx-elf\rx-elf\include\c++\8.3.0.202004-gnurx\cmath ****   /// Additional overloads.
1212:c:\gcc for renesas rx 8.3.0.202004-gnurx-elf\rx-elf\rx-elf\rx-elf\include\c++\8.3.0.202004-gnurx\cmath **** #ifndef __CORRECT_ISO_CPP11_MATH_H_PROTO_FP
1213:c:\gcc for renesas rx 8.3.0.202004-gnurx-elf\rx-elf\rx-elf\rx-elf\include\c++\8.3.0.202004-gnurx\cmath ****   constexpr float
1214:c:\gcc for renesas rx 8.3.0.202004-gnurx-elf\rx-elf\rx-elf\rx-elf\include\c++\8.3.0.202004-gnurx\cmath ****   acosh(float __x)
1215:c:\gcc for renesas rx 8.3.0.202004-gnurx-elf\rx-elf\rx-elf\rx-elf\include\c++\8.3.0.202004-gnurx\cmath ****   { return __builtin_acoshf(__x); }
1216:c:\gcc for renesas rx 8.3.0.202004-gnurx-elf\rx-elf\rx-elf\rx-elf\include\c++\8.3.0.202004-gnurx\cmath **** 
1217:c:\gcc for renesas rx 8.3.0.202004-gnurx-elf\rx-elf\rx-elf\rx-elf\include\c++\8.3.0.202004-gnurx\cmath ****   constexpr long double
1218:c:\gcc for renesas rx 8.3.0.202004-gnurx-elf\rx-elf\rx-elf\rx-elf\include\c++\8.3.0.202004-gnurx\cmath ****   acosh(long double __x)
1219:c:\gcc for renesas rx 8.3.0.202004-gnurx-elf\rx-elf\rx-elf\rx-elf\include\c++\8.3.0.202004-gnurx\cmath ****   { return __builtin_acoshl(__x); }
1220:c:\gcc for renesas rx 8.3.0.202004-gnurx-elf\rx-elf\rx-elf\rx-elf\include\c++\8.3.0.202004-gnurx\cmath **** #endif
1221:c:\gcc for renesas rx 8.3.0.202004-gnurx-elf\rx-elf\rx-elf\rx-elf\include\c++\8.3.0.202004-gnurx\cmath **** 
1222:c:\gcc for renesas rx 8.3.0.202004-gnurx-elf\rx-elf\rx-elf\rx-elf\include\c++\8.3.0.202004-gnurx\cmath **** #ifndef __CORRECT_ISO_CPP11_MATH_H_PROTO_INT
1223:c:\gcc for renesas rx 8.3.0.202004-gnurx-elf\rx-elf\rx-elf\rx-elf\include\c++\8.3.0.202004-gnurx\cmath ****   template<typename _Tp>
1224:c:\gcc for renesas rx 8.3.0.202004-gnurx-elf\rx-elf\rx-elf\rx-elf\include\c++\8.3.0.202004-gnurx\cmath ****     constexpr typename __gnu_cxx::__enable_if<__is_integer<_Tp>::__value, 
1225:c:\gcc for renesas rx 8.3.0.202004-gnurx-elf\rx-elf\rx-elf\rx-elf\include\c++\8.3.0.202004-gnurx\cmath ****                                               double>::__type
1226:c:\gcc for renesas rx 8.3.0.202004-gnurx-elf\rx-elf\rx-elf\rx-elf\include\c++\8.3.0.202004-gnurx\cmath ****     acosh(_Tp __x)
1227:c:\gcc for renesas rx 8.3.0.202004-gnurx-elf\rx-elf\rx-elf\rx-elf\include\c++\8.3.0.202004-gnurx\cmath ****     { return __builtin_acosh(__x); }
1228:c:\gcc for renesas rx 8.3.0.202004-gnurx-elf\rx-elf\rx-elf\rx-elf\include\c++\8.3.0.202004-gnurx\cmath **** #endif
1229:c:\gcc for renesas rx 8.3.0.202004-gnurx-elf\rx-elf\rx-elf\rx-elf\include\c++\8.3.0.202004-gnurx\cmath **** 
1230:c:\gcc for renesas rx 8.3.0.202004-gnurx-elf\rx-elf\rx-elf\rx-elf\include\c++\8.3.0.202004-gnurx\cmath **** #ifndef __CORRECT_ISO_CPP11_MATH_H_PROTO_FP
1231:c:\gcc for renesas rx 8.3.0.202004-gnurx-elf\rx-elf\rx-elf\rx-elf\include\c++\8.3.0.202004-gnurx\cmath ****   constexpr float
1232:c:\gcc for renesas rx 8.3.0.202004-gnurx-elf\rx-elf\rx-elf\rx-elf\include\c++\8.3.0.202004-gnurx\cmath ****   asinh(float __x)
1233:c:\gcc for renesas rx 8.3.0.202004-gnurx-elf\rx-elf\rx-elf\rx-elf\include\c++\8.3.0.202004-gnurx\cmath ****   { return __builtin_asinhf(__x); }
1234:c:\gcc for renesas rx 8.3.0.202004-gnurx-elf\rx-elf\rx-elf\rx-elf\include\c++\8.3.0.202004-gnurx\cmath **** 
1235:c:\gcc for renesas rx 8.3.0.202004-gnurx-elf\rx-elf\rx-elf\rx-elf\include\c++\8.3.0.202004-gnurx\cmath ****   constexpr long double
1236:c:\gcc for renesas rx 8.3.0.202004-gnurx-elf\rx-elf\rx-elf\rx-elf\include\c++\8.3.0.202004-gnurx\cmath ****   asinh(long double __x)
1237:c:\gcc for renesas rx 8.3.0.202004-gnurx-elf\rx-elf\rx-elf\rx-elf\include\c++\8.3.0.202004-gnurx\cmath ****   { return __builtin_asinhl(__x); }
1238:c:\gcc for renesas rx 8.3.0.202004-gnurx-elf\rx-elf\rx-elf\rx-elf\include\c++\8.3.0.202004-gnurx\cmath **** #endif
1239:c:\gcc for renesas rx 8.3.0.202004-gnurx-elf\rx-elf\rx-elf\rx-elf\include\c++\8.3.0.202004-gnurx\cmath **** 
1240:c:\gcc for renesas rx 8.3.0.202004-gnurx-elf\rx-elf\rx-elf\rx-elf\include\c++\8.3.0.202004-gnurx\cmath **** #ifndef __CORRECT_ISO_CPP11_MATH_H_PROTO_INT
1241:c:\gcc for renesas rx 8.3.0.202004-gnurx-elf\rx-elf\rx-elf\rx-elf\include\c++\8.3.0.202004-gnurx\cmath ****   template<typename _Tp>
1242:c:\gcc for renesas rx 8.3.0.202004-gnurx-elf\rx-elf\rx-elf\rx-elf\include\c++\8.3.0.202004-gnurx\cmath ****     constexpr typename __gnu_cxx::__enable_if<__is_integer<_Tp>::__value, 
1243:c:\gcc for renesas rx 8.3.0.202004-gnurx-elf\rx-elf\rx-elf\rx-elf\include\c++\8.3.0.202004-gnurx\cmath ****                                               double>::__type
1244:c:\gcc for renesas rx 8.3.0.202004-gnurx-elf\rx-elf\rx-elf\rx-elf\include\c++\8.3.0.202004-gnurx\cmath ****     asinh(_Tp __x)
1245:c:\gcc for renesas rx 8.3.0.202004-gnurx-elf\rx-elf\rx-elf\rx-elf\include\c++\8.3.0.202004-gnurx\cmath ****     { return __builtin_asinh(__x); }
1246:c:\gcc for renesas rx 8.3.0.202004-gnurx-elf\rx-elf\rx-elf\rx-elf\include\c++\8.3.0.202004-gnurx\cmath **** #endif
1247:c:\gcc for renesas rx 8.3.0.202004-gnurx-elf\rx-elf\rx-elf\rx-elf\include\c++\8.3.0.202004-gnurx\cmath **** 
1248:c:\gcc for renesas rx 8.3.0.202004-gnurx-elf\rx-elf\rx-elf\rx-elf\include\c++\8.3.0.202004-gnurx\cmath **** #ifndef __CORRECT_ISO_CPP11_MATH_H_PROTO_FP
1249:c:\gcc for renesas rx 8.3.0.202004-gnurx-elf\rx-elf\rx-elf\rx-elf\include\c++\8.3.0.202004-gnurx\cmath ****   constexpr float
1250:c:\gcc for renesas rx 8.3.0.202004-gnurx-elf\rx-elf\rx-elf\rx-elf\include\c++\8.3.0.202004-gnurx\cmath ****   atanh(float __x)
1251:c:\gcc for renesas rx 8.3.0.202004-gnurx-elf\rx-elf\rx-elf\rx-elf\include\c++\8.3.0.202004-gnurx\cmath ****   { return __builtin_atanhf(__x); }
1252:c:\gcc for renesas rx 8.3.0.202004-gnurx-elf\rx-elf\rx-elf\rx-elf\include\c++\8.3.0.202004-gnurx\cmath **** 
1253:c:\gcc for renesas rx 8.3.0.202004-gnurx-elf\rx-elf\rx-elf\rx-elf\include\c++\8.3.0.202004-gnurx\cmath ****   constexpr long double
1254:c:\gcc for renesas rx 8.3.0.202004-gnurx-elf\rx-elf\rx-elf\rx-elf\include\c++\8.3.0.202004-gnurx\cmath ****   atanh(long double __x)
1255:c:\gcc for renesas rx 8.3.0.202004-gnurx-elf\rx-elf\rx-elf\rx-elf\include\c++\8.3.0.202004-gnurx\cmath ****   { return __builtin_atanhl(__x); }
1256:c:\gcc for renesas rx 8.3.0.202004-gnurx-elf\rx-elf\rx-elf\rx-elf\include\c++\8.3.0.202004-gnurx\cmath **** #endif
1257:c:\gcc for renesas rx 8.3.0.202004-gnurx-elf\rx-elf\rx-elf\rx-elf\include\c++\8.3.0.202004-gnurx\cmath **** 
1258:c:\gcc for renesas rx 8.3.0.202004-gnurx-elf\rx-elf\rx-elf\rx-elf\include\c++\8.3.0.202004-gnurx\cmath **** #ifndef __CORRECT_ISO_CPP11_MATH_H_PROTO_INT
1259:c:\gcc for renesas rx 8.3.0.202004-gnurx-elf\rx-elf\rx-elf\rx-elf\include\c++\8.3.0.202004-gnurx\cmath ****   template<typename _Tp>
1260:c:\gcc for renesas rx 8.3.0.202004-gnurx-elf\rx-elf\rx-elf\rx-elf\include\c++\8.3.0.202004-gnurx\cmath ****     constexpr typename __gnu_cxx::__enable_if<__is_integer<_Tp>::__value, 
1261:c:\gcc for renesas rx 8.3.0.202004-gnurx-elf\rx-elf\rx-elf\rx-elf\include\c++\8.3.0.202004-gnurx\cmath ****                                               double>::__type
1262:c:\gcc for renesas rx 8.3.0.202004-gnurx-elf\rx-elf\rx-elf\rx-elf\include\c++\8.3.0.202004-gnurx\cmath ****     atanh(_Tp __x)
1263:c:\gcc for renesas rx 8.3.0.202004-gnurx-elf\rx-elf\rx-elf\rx-elf\include\c++\8.3.0.202004-gnurx\cmath ****     { return __builtin_atanh(__x); }
1264:c:\gcc for renesas rx 8.3.0.202004-gnurx-elf\rx-elf\rx-elf\rx-elf\include\c++\8.3.0.202004-gnurx\cmath **** #endif
1265:c:\gcc for renesas rx 8.3.0.202004-gnurx-elf\rx-elf\rx-elf\rx-elf\include\c++\8.3.0.202004-gnurx\cmath **** 
1266:c:\gcc for renesas rx 8.3.0.202004-gnurx-elf\rx-elf\rx-elf\rx-elf\include\c++\8.3.0.202004-gnurx\cmath **** #ifndef __CORRECT_ISO_CPP11_MATH_H_PROTO_FP
1267:c:\gcc for renesas rx 8.3.0.202004-gnurx-elf\rx-elf\rx-elf\rx-elf\include\c++\8.3.0.202004-gnurx\cmath ****   constexpr float
1268:c:\gcc for renesas rx 8.3.0.202004-gnurx-elf\rx-elf\rx-elf\rx-elf\include\c++\8.3.0.202004-gnurx\cmath ****   cbrt(float __x)
1269:c:\gcc for renesas rx 8.3.0.202004-gnurx-elf\rx-elf\rx-elf\rx-elf\include\c++\8.3.0.202004-gnurx\cmath ****   { return __builtin_cbrtf(__x); }
1270:c:\gcc for renesas rx 8.3.0.202004-gnurx-elf\rx-elf\rx-elf\rx-elf\include\c++\8.3.0.202004-gnurx\cmath **** 
1271:c:\gcc for renesas rx 8.3.0.202004-gnurx-elf\rx-elf\rx-elf\rx-elf\include\c++\8.3.0.202004-gnurx\cmath ****   constexpr long double
1272:c:\gcc for renesas rx 8.3.0.202004-gnurx-elf\rx-elf\rx-elf\rx-elf\include\c++\8.3.0.202004-gnurx\cmath ****   cbrt(long double __x)
1273:c:\gcc for renesas rx 8.3.0.202004-gnurx-elf\rx-elf\rx-elf\rx-elf\include\c++\8.3.0.202004-gnurx\cmath ****   { return __builtin_cbrtl(__x); }
1274:c:\gcc for renesas rx 8.3.0.202004-gnurx-elf\rx-elf\rx-elf\rx-elf\include\c++\8.3.0.202004-gnurx\cmath **** #endif
1275:c:\gcc for renesas rx 8.3.0.202004-gnurx-elf\rx-elf\rx-elf\rx-elf\include\c++\8.3.0.202004-gnurx\cmath **** 
1276:c:\gcc for renesas rx 8.3.0.202004-gnurx-elf\rx-elf\rx-elf\rx-elf\include\c++\8.3.0.202004-gnurx\cmath **** #ifndef __CORRECT_ISO_CPP11_MATH_H_PROTO_INT
1277:c:\gcc for renesas rx 8.3.0.202004-gnurx-elf\rx-elf\rx-elf\rx-elf\include\c++\8.3.0.202004-gnurx\cmath ****   template<typename _Tp>
1278:c:\gcc for renesas rx 8.3.0.202004-gnurx-elf\rx-elf\rx-elf\rx-elf\include\c++\8.3.0.202004-gnurx\cmath ****     constexpr typename __gnu_cxx::__enable_if<__is_integer<_Tp>::__value, 
1279:c:\gcc for renesas rx 8.3.0.202004-gnurx-elf\rx-elf\rx-elf\rx-elf\include\c++\8.3.0.202004-gnurx\cmath ****                                               double>::__type
1280:c:\gcc for renesas rx 8.3.0.202004-gnurx-elf\rx-elf\rx-elf\rx-elf\include\c++\8.3.0.202004-gnurx\cmath ****     cbrt(_Tp __x)
1281:c:\gcc for renesas rx 8.3.0.202004-gnurx-elf\rx-elf\rx-elf\rx-elf\include\c++\8.3.0.202004-gnurx\cmath ****     { return __builtin_cbrt(__x); }
1282:c:\gcc for renesas rx 8.3.0.202004-gnurx-elf\rx-elf\rx-elf\rx-elf\include\c++\8.3.0.202004-gnurx\cmath **** #endif
1283:c:\gcc for renesas rx 8.3.0.202004-gnurx-elf\rx-elf\rx-elf\rx-elf\include\c++\8.3.0.202004-gnurx\cmath **** 
1284:c:\gcc for renesas rx 8.3.0.202004-gnurx-elf\rx-elf\rx-elf\rx-elf\include\c++\8.3.0.202004-gnurx\cmath **** #ifndef __CORRECT_ISO_CPP11_MATH_H_PROTO_FP
1285:c:\gcc for renesas rx 8.3.0.202004-gnurx-elf\rx-elf\rx-elf\rx-elf\include\c++\8.3.0.202004-gnurx\cmath ****   constexpr float
1286:c:\gcc for renesas rx 8.3.0.202004-gnurx-elf\rx-elf\rx-elf\rx-elf\include\c++\8.3.0.202004-gnurx\cmath ****   copysign(float __x, float __y)
1287:c:\gcc for renesas rx 8.3.0.202004-gnurx-elf\rx-elf\rx-elf\rx-elf\include\c++\8.3.0.202004-gnurx\cmath ****   { return __builtin_copysignf(__x, __y); }
1288:c:\gcc for renesas rx 8.3.0.202004-gnurx-elf\rx-elf\rx-elf\rx-elf\include\c++\8.3.0.202004-gnurx\cmath **** 
1289:c:\gcc for renesas rx 8.3.0.202004-gnurx-elf\rx-elf\rx-elf\rx-elf\include\c++\8.3.0.202004-gnurx\cmath ****   constexpr long double
1290:c:\gcc for renesas rx 8.3.0.202004-gnurx-elf\rx-elf\rx-elf\rx-elf\include\c++\8.3.0.202004-gnurx\cmath ****   copysign(long double __x, long double __y)
1291:c:\gcc for renesas rx 8.3.0.202004-gnurx-elf\rx-elf\rx-elf\rx-elf\include\c++\8.3.0.202004-gnurx\cmath ****   { return __builtin_copysignl(__x, __y); }
1292:c:\gcc for renesas rx 8.3.0.202004-gnurx-elf\rx-elf\rx-elf\rx-elf\include\c++\8.3.0.202004-gnurx\cmath **** #endif
1293:c:\gcc for renesas rx 8.3.0.202004-gnurx-elf\rx-elf\rx-elf\rx-elf\include\c++\8.3.0.202004-gnurx\cmath **** 
1294:c:\gcc for renesas rx 8.3.0.202004-gnurx-elf\rx-elf\rx-elf\rx-elf\include\c++\8.3.0.202004-gnurx\cmath **** #ifndef __CORRECT_ISO_CPP11_MATH_H_PROTO_INT
1295:c:\gcc for renesas rx 8.3.0.202004-gnurx-elf\rx-elf\rx-elf\rx-elf\include\c++\8.3.0.202004-gnurx\cmath ****   template<typename _Tp, typename _Up>
1296:c:\gcc for renesas rx 8.3.0.202004-gnurx-elf\rx-elf\rx-elf\rx-elf\include\c++\8.3.0.202004-gnurx\cmath ****     constexpr typename __gnu_cxx::__promote_2<_Tp, _Up>::__type
1297:c:\gcc for renesas rx 8.3.0.202004-gnurx-elf\rx-elf\rx-elf\rx-elf\include\c++\8.3.0.202004-gnurx\cmath ****     copysign(_Tp __x, _Up __y)
1298:c:\gcc for renesas rx 8.3.0.202004-gnurx-elf\rx-elf\rx-elf\rx-elf\include\c++\8.3.0.202004-gnurx\cmath ****     {
1299:c:\gcc for renesas rx 8.3.0.202004-gnurx-elf\rx-elf\rx-elf\rx-elf\include\c++\8.3.0.202004-gnurx\cmath ****       typedef typename __gnu_cxx::__promote_2<_Tp, _Up>::__type __type;
1300:c:\gcc for renesas rx 8.3.0.202004-gnurx-elf\rx-elf\rx-elf\rx-elf\include\c++\8.3.0.202004-gnurx\cmath ****       return copysign(__type(__x), __type(__y));
1301:c:\gcc for renesas rx 8.3.0.202004-gnurx-elf\rx-elf\rx-elf\rx-elf\include\c++\8.3.0.202004-gnurx\cmath ****     }
1302:c:\gcc for renesas rx 8.3.0.202004-gnurx-elf\rx-elf\rx-elf\rx-elf\include\c++\8.3.0.202004-gnurx\cmath **** #endif
1303:c:\gcc for renesas rx 8.3.0.202004-gnurx-elf\rx-elf\rx-elf\rx-elf\include\c++\8.3.0.202004-gnurx\cmath **** 
1304:c:\gcc for renesas rx 8.3.0.202004-gnurx-elf\rx-elf\rx-elf\rx-elf\include\c++\8.3.0.202004-gnurx\cmath **** #ifndef __CORRECT_ISO_CPP11_MATH_H_PROTO_FP
1305:c:\gcc for renesas rx 8.3.0.202004-gnurx-elf\rx-elf\rx-elf\rx-elf\include\c++\8.3.0.202004-gnurx\cmath ****   constexpr float
1306:c:\gcc for renesas rx 8.3.0.202004-gnurx-elf\rx-elf\rx-elf\rx-elf\include\c++\8.3.0.202004-gnurx\cmath ****   erf(float __x)
1307:c:\gcc for renesas rx 8.3.0.202004-gnurx-elf\rx-elf\rx-elf\rx-elf\include\c++\8.3.0.202004-gnurx\cmath ****   { return __builtin_erff(__x); }
1308:c:\gcc for renesas rx 8.3.0.202004-gnurx-elf\rx-elf\rx-elf\rx-elf\include\c++\8.3.0.202004-gnurx\cmath **** 
1309:c:\gcc for renesas rx 8.3.0.202004-gnurx-elf\rx-elf\rx-elf\rx-elf\include\c++\8.3.0.202004-gnurx\cmath ****   constexpr long double
1310:c:\gcc for renesas rx 8.3.0.202004-gnurx-elf\rx-elf\rx-elf\rx-elf\include\c++\8.3.0.202004-gnurx\cmath ****   erf(long double __x)
1311:c:\gcc for renesas rx 8.3.0.202004-gnurx-elf\rx-elf\rx-elf\rx-elf\include\c++\8.3.0.202004-gnurx\cmath ****   { return __builtin_erfl(__x); }
1312:c:\gcc for renesas rx 8.3.0.202004-gnurx-elf\rx-elf\rx-elf\rx-elf\include\c++\8.3.0.202004-gnurx\cmath **** #endif
1313:c:\gcc for renesas rx 8.3.0.202004-gnurx-elf\rx-elf\rx-elf\rx-elf\include\c++\8.3.0.202004-gnurx\cmath **** 
1314:c:\gcc for renesas rx 8.3.0.202004-gnurx-elf\rx-elf\rx-elf\rx-elf\include\c++\8.3.0.202004-gnurx\cmath **** #ifndef __CORRECT_ISO_CPP11_MATH_H_PROTO_INT
1315:c:\gcc for renesas rx 8.3.0.202004-gnurx-elf\rx-elf\rx-elf\rx-elf\include\c++\8.3.0.202004-gnurx\cmath ****   template<typename _Tp>
1316:c:\gcc for renesas rx 8.3.0.202004-gnurx-elf\rx-elf\rx-elf\rx-elf\include\c++\8.3.0.202004-gnurx\cmath ****     constexpr typename __gnu_cxx::__enable_if<__is_integer<_Tp>::__value, 
1317:c:\gcc for renesas rx 8.3.0.202004-gnurx-elf\rx-elf\rx-elf\rx-elf\include\c++\8.3.0.202004-gnurx\cmath ****                                               double>::__type
1318:c:\gcc for renesas rx 8.3.0.202004-gnurx-elf\rx-elf\rx-elf\rx-elf\include\c++\8.3.0.202004-gnurx\cmath ****     erf(_Tp __x)
1319:c:\gcc for renesas rx 8.3.0.202004-gnurx-elf\rx-elf\rx-elf\rx-elf\include\c++\8.3.0.202004-gnurx\cmath ****     { return __builtin_erf(__x); }
1320:c:\gcc for renesas rx 8.3.0.202004-gnurx-elf\rx-elf\rx-elf\rx-elf\include\c++\8.3.0.202004-gnurx\cmath **** #endif
1321:c:\gcc for renesas rx 8.3.0.202004-gnurx-elf\rx-elf\rx-elf\rx-elf\include\c++\8.3.0.202004-gnurx\cmath **** 
1322:c:\gcc for renesas rx 8.3.0.202004-gnurx-elf\rx-elf\rx-elf\rx-elf\include\c++\8.3.0.202004-gnurx\cmath **** #ifndef __CORRECT_ISO_CPP11_MATH_H_PROTO_FP
1323:c:\gcc for renesas rx 8.3.0.202004-gnurx-elf\rx-elf\rx-elf\rx-elf\include\c++\8.3.0.202004-gnurx\cmath ****   constexpr float
1324:c:\gcc for renesas rx 8.3.0.202004-gnurx-elf\rx-elf\rx-elf\rx-elf\include\c++\8.3.0.202004-gnurx\cmath ****   erfc(float __x)
1325:c:\gcc for renesas rx 8.3.0.202004-gnurx-elf\rx-elf\rx-elf\rx-elf\include\c++\8.3.0.202004-gnurx\cmath ****   { return __builtin_erfcf(__x); }
1326:c:\gcc for renesas rx 8.3.0.202004-gnurx-elf\rx-elf\rx-elf\rx-elf\include\c++\8.3.0.202004-gnurx\cmath **** 
1327:c:\gcc for renesas rx 8.3.0.202004-gnurx-elf\rx-elf\rx-elf\rx-elf\include\c++\8.3.0.202004-gnurx\cmath ****   constexpr long double
1328:c:\gcc for renesas rx 8.3.0.202004-gnurx-elf\rx-elf\rx-elf\rx-elf\include\c++\8.3.0.202004-gnurx\cmath ****   erfc(long double __x)
1329:c:\gcc for renesas rx 8.3.0.202004-gnurx-elf\rx-elf\rx-elf\rx-elf\include\c++\8.3.0.202004-gnurx\cmath ****   { return __builtin_erfcl(__x); }
1330:c:\gcc for renesas rx 8.3.0.202004-gnurx-elf\rx-elf\rx-elf\rx-elf\include\c++\8.3.0.202004-gnurx\cmath **** #endif
1331:c:\gcc for renesas rx 8.3.0.202004-gnurx-elf\rx-elf\rx-elf\rx-elf\include\c++\8.3.0.202004-gnurx\cmath **** 
1332:c:\gcc for renesas rx 8.3.0.202004-gnurx-elf\rx-elf\rx-elf\rx-elf\include\c++\8.3.0.202004-gnurx\cmath **** #ifndef __CORRECT_ISO_CPP11_MATH_H_PROTO_INT
1333:c:\gcc for renesas rx 8.3.0.202004-gnurx-elf\rx-elf\rx-elf\rx-elf\include\c++\8.3.0.202004-gnurx\cmath ****   template<typename _Tp>
1334:c:\gcc for renesas rx 8.3.0.202004-gnurx-elf\rx-elf\rx-elf\rx-elf\include\c++\8.3.0.202004-gnurx\cmath ****     constexpr typename __gnu_cxx::__enable_if<__is_integer<_Tp>::__value, 
1335:c:\gcc for renesas rx 8.3.0.202004-gnurx-elf\rx-elf\rx-elf\rx-elf\include\c++\8.3.0.202004-gnurx\cmath ****                                               double>::__type
1336:c:\gcc for renesas rx 8.3.0.202004-gnurx-elf\rx-elf\rx-elf\rx-elf\include\c++\8.3.0.202004-gnurx\cmath ****     erfc(_Tp __x)
1337:c:\gcc for renesas rx 8.3.0.202004-gnurx-elf\rx-elf\rx-elf\rx-elf\include\c++\8.3.0.202004-gnurx\cmath ****     { return __builtin_erfc(__x); }
1338:c:\gcc for renesas rx 8.3.0.202004-gnurx-elf\rx-elf\rx-elf\rx-elf\include\c++\8.3.0.202004-gnurx\cmath **** #endif
1339:c:\gcc for renesas rx 8.3.0.202004-gnurx-elf\rx-elf\rx-elf\rx-elf\include\c++\8.3.0.202004-gnurx\cmath **** 
1340:c:\gcc for renesas rx 8.3.0.202004-gnurx-elf\rx-elf\rx-elf\rx-elf\include\c++\8.3.0.202004-gnurx\cmath **** #ifndef __CORRECT_ISO_CPP11_MATH_H_PROTO_FP
1341:c:\gcc for renesas rx 8.3.0.202004-gnurx-elf\rx-elf\rx-elf\rx-elf\include\c++\8.3.0.202004-gnurx\cmath ****   constexpr float
1342:c:\gcc for renesas rx 8.3.0.202004-gnurx-elf\rx-elf\rx-elf\rx-elf\include\c++\8.3.0.202004-gnurx\cmath ****   exp2(float __x)
1343:c:\gcc for renesas rx 8.3.0.202004-gnurx-elf\rx-elf\rx-elf\rx-elf\include\c++\8.3.0.202004-gnurx\cmath ****   { return __builtin_exp2f(__x); }
1344:c:\gcc for renesas rx 8.3.0.202004-gnurx-elf\rx-elf\rx-elf\rx-elf\include\c++\8.3.0.202004-gnurx\cmath **** 
1345:c:\gcc for renesas rx 8.3.0.202004-gnurx-elf\rx-elf\rx-elf\rx-elf\include\c++\8.3.0.202004-gnurx\cmath ****   constexpr long double
1346:c:\gcc for renesas rx 8.3.0.202004-gnurx-elf\rx-elf\rx-elf\rx-elf\include\c++\8.3.0.202004-gnurx\cmath ****   exp2(long double __x)
1347:c:\gcc for renesas rx 8.3.0.202004-gnurx-elf\rx-elf\rx-elf\rx-elf\include\c++\8.3.0.202004-gnurx\cmath ****   { return __builtin_exp2l(__x); }
1348:c:\gcc for renesas rx 8.3.0.202004-gnurx-elf\rx-elf\rx-elf\rx-elf\include\c++\8.3.0.202004-gnurx\cmath **** #endif
1349:c:\gcc for renesas rx 8.3.0.202004-gnurx-elf\rx-elf\rx-elf\rx-elf\include\c++\8.3.0.202004-gnurx\cmath **** 
1350:c:\gcc for renesas rx 8.3.0.202004-gnurx-elf\rx-elf\rx-elf\rx-elf\include\c++\8.3.0.202004-gnurx\cmath **** #ifndef __CORRECT_ISO_CPP11_MATH_H_PROTO_INT
1351:c:\gcc for renesas rx 8.3.0.202004-gnurx-elf\rx-elf\rx-elf\rx-elf\include\c++\8.3.0.202004-gnurx\cmath ****   template<typename _Tp>
1352:c:\gcc for renesas rx 8.3.0.202004-gnurx-elf\rx-elf\rx-elf\rx-elf\include\c++\8.3.0.202004-gnurx\cmath ****     constexpr typename __gnu_cxx::__enable_if<__is_integer<_Tp>::__value, 
1353:c:\gcc for renesas rx 8.3.0.202004-gnurx-elf\rx-elf\rx-elf\rx-elf\include\c++\8.3.0.202004-gnurx\cmath ****                                               double>::__type
1354:c:\gcc for renesas rx 8.3.0.202004-gnurx-elf\rx-elf\rx-elf\rx-elf\include\c++\8.3.0.202004-gnurx\cmath ****     exp2(_Tp __x)
1355:c:\gcc for renesas rx 8.3.0.202004-gnurx-elf\rx-elf\rx-elf\rx-elf\include\c++\8.3.0.202004-gnurx\cmath ****     { return __builtin_exp2(__x); }
1356:c:\gcc for renesas rx 8.3.0.202004-gnurx-elf\rx-elf\rx-elf\rx-elf\include\c++\8.3.0.202004-gnurx\cmath **** #endif
1357:c:\gcc for renesas rx 8.3.0.202004-gnurx-elf\rx-elf\rx-elf\rx-elf\include\c++\8.3.0.202004-gnurx\cmath **** 
1358:c:\gcc for renesas rx 8.3.0.202004-gnurx-elf\rx-elf\rx-elf\rx-elf\include\c++\8.3.0.202004-gnurx\cmath **** #ifndef __CORRECT_ISO_CPP11_MATH_H_PROTO_FP
1359:c:\gcc for renesas rx 8.3.0.202004-gnurx-elf\rx-elf\rx-elf\rx-elf\include\c++\8.3.0.202004-gnurx\cmath ****   constexpr float
1360:c:\gcc for renesas rx 8.3.0.202004-gnurx-elf\rx-elf\rx-elf\rx-elf\include\c++\8.3.0.202004-gnurx\cmath ****   expm1(float __x)
1361:c:\gcc for renesas rx 8.3.0.202004-gnurx-elf\rx-elf\rx-elf\rx-elf\include\c++\8.3.0.202004-gnurx\cmath ****   { return __builtin_expm1f(__x); }
1362:c:\gcc for renesas rx 8.3.0.202004-gnurx-elf\rx-elf\rx-elf\rx-elf\include\c++\8.3.0.202004-gnurx\cmath **** 
1363:c:\gcc for renesas rx 8.3.0.202004-gnurx-elf\rx-elf\rx-elf\rx-elf\include\c++\8.3.0.202004-gnurx\cmath ****   constexpr long double
1364:c:\gcc for renesas rx 8.3.0.202004-gnurx-elf\rx-elf\rx-elf\rx-elf\include\c++\8.3.0.202004-gnurx\cmath ****   expm1(long double __x)
1365:c:\gcc for renesas rx 8.3.0.202004-gnurx-elf\rx-elf\rx-elf\rx-elf\include\c++\8.3.0.202004-gnurx\cmath ****   { return __builtin_expm1l(__x); }
1366:c:\gcc for renesas rx 8.3.0.202004-gnurx-elf\rx-elf\rx-elf\rx-elf\include\c++\8.3.0.202004-gnurx\cmath **** #endif
1367:c:\gcc for renesas rx 8.3.0.202004-gnurx-elf\rx-elf\rx-elf\rx-elf\include\c++\8.3.0.202004-gnurx\cmath **** 
1368:c:\gcc for renesas rx 8.3.0.202004-gnurx-elf\rx-elf\rx-elf\rx-elf\include\c++\8.3.0.202004-gnurx\cmath **** #ifndef __CORRECT_ISO_CPP11_MATH_H_PROTO_INT
1369:c:\gcc for renesas rx 8.3.0.202004-gnurx-elf\rx-elf\rx-elf\rx-elf\include\c++\8.3.0.202004-gnurx\cmath ****   template<typename _Tp>
1370:c:\gcc for renesas rx 8.3.0.202004-gnurx-elf\rx-elf\rx-elf\rx-elf\include\c++\8.3.0.202004-gnurx\cmath ****     constexpr typename __gnu_cxx::__enable_if<__is_integer<_Tp>::__value, 
1371:c:\gcc for renesas rx 8.3.0.202004-gnurx-elf\rx-elf\rx-elf\rx-elf\include\c++\8.3.0.202004-gnurx\cmath ****                                               double>::__type
1372:c:\gcc for renesas rx 8.3.0.202004-gnurx-elf\rx-elf\rx-elf\rx-elf\include\c++\8.3.0.202004-gnurx\cmath ****     expm1(_Tp __x)
1373:c:\gcc for renesas rx 8.3.0.202004-gnurx-elf\rx-elf\rx-elf\rx-elf\include\c++\8.3.0.202004-gnurx\cmath ****     { return __builtin_expm1(__x); }
1374:c:\gcc for renesas rx 8.3.0.202004-gnurx-elf\rx-elf\rx-elf\rx-elf\include\c++\8.3.0.202004-gnurx\cmath **** #endif
1375:c:\gcc for renesas rx 8.3.0.202004-gnurx-elf\rx-elf\rx-elf\rx-elf\include\c++\8.3.0.202004-gnurx\cmath **** 
1376:c:\gcc for renesas rx 8.3.0.202004-gnurx-elf\rx-elf\rx-elf\rx-elf\include\c++\8.3.0.202004-gnurx\cmath **** #ifndef __CORRECT_ISO_CPP11_MATH_H_PROTO_FP
1377:c:\gcc for renesas rx 8.3.0.202004-gnurx-elf\rx-elf\rx-elf\rx-elf\include\c++\8.3.0.202004-gnurx\cmath ****   constexpr float
1378:c:\gcc for renesas rx 8.3.0.202004-gnurx-elf\rx-elf\rx-elf\rx-elf\include\c++\8.3.0.202004-gnurx\cmath ****   fdim(float __x, float __y)
1379:c:\gcc for renesas rx 8.3.0.202004-gnurx-elf\rx-elf\rx-elf\rx-elf\include\c++\8.3.0.202004-gnurx\cmath ****   { return __builtin_fdimf(__x, __y); }
1380:c:\gcc for renesas rx 8.3.0.202004-gnurx-elf\rx-elf\rx-elf\rx-elf\include\c++\8.3.0.202004-gnurx\cmath **** 
1381:c:\gcc for renesas rx 8.3.0.202004-gnurx-elf\rx-elf\rx-elf\rx-elf\include\c++\8.3.0.202004-gnurx\cmath ****   constexpr long double
1382:c:\gcc for renesas rx 8.3.0.202004-gnurx-elf\rx-elf\rx-elf\rx-elf\include\c++\8.3.0.202004-gnurx\cmath ****   fdim(long double __x, long double __y)
1383:c:\gcc for renesas rx 8.3.0.202004-gnurx-elf\rx-elf\rx-elf\rx-elf\include\c++\8.3.0.202004-gnurx\cmath ****   { return __builtin_fdiml(__x, __y); }
1384:c:\gcc for renesas rx 8.3.0.202004-gnurx-elf\rx-elf\rx-elf\rx-elf\include\c++\8.3.0.202004-gnurx\cmath **** #endif
1385:c:\gcc for renesas rx 8.3.0.202004-gnurx-elf\rx-elf\rx-elf\rx-elf\include\c++\8.3.0.202004-gnurx\cmath **** 
1386:c:\gcc for renesas rx 8.3.0.202004-gnurx-elf\rx-elf\rx-elf\rx-elf\include\c++\8.3.0.202004-gnurx\cmath **** #ifndef __CORRECT_ISO_CPP11_MATH_H_PROTO_INT
1387:c:\gcc for renesas rx 8.3.0.202004-gnurx-elf\rx-elf\rx-elf\rx-elf\include\c++\8.3.0.202004-gnurx\cmath ****   template<typename _Tp, typename _Up>
1388:c:\gcc for renesas rx 8.3.0.202004-gnurx-elf\rx-elf\rx-elf\rx-elf\include\c++\8.3.0.202004-gnurx\cmath ****     constexpr typename __gnu_cxx::__promote_2<_Tp, _Up>::__type
1389:c:\gcc for renesas rx 8.3.0.202004-gnurx-elf\rx-elf\rx-elf\rx-elf\include\c++\8.3.0.202004-gnurx\cmath ****     fdim(_Tp __x, _Up __y)
1390:c:\gcc for renesas rx 8.3.0.202004-gnurx-elf\rx-elf\rx-elf\rx-elf\include\c++\8.3.0.202004-gnurx\cmath ****     {
1391:c:\gcc for renesas rx 8.3.0.202004-gnurx-elf\rx-elf\rx-elf\rx-elf\include\c++\8.3.0.202004-gnurx\cmath ****       typedef typename __gnu_cxx::__promote_2<_Tp, _Up>::__type __type;
1392:c:\gcc for renesas rx 8.3.0.202004-gnurx-elf\rx-elf\rx-elf\rx-elf\include\c++\8.3.0.202004-gnurx\cmath ****       return fdim(__type(__x), __type(__y));
1393:c:\gcc for renesas rx 8.3.0.202004-gnurx-elf\rx-elf\rx-elf\rx-elf\include\c++\8.3.0.202004-gnurx\cmath ****     }
1394:c:\gcc for renesas rx 8.3.0.202004-gnurx-elf\rx-elf\rx-elf\rx-elf\include\c++\8.3.0.202004-gnurx\cmath **** #endif
1395:c:\gcc for renesas rx 8.3.0.202004-gnurx-elf\rx-elf\rx-elf\rx-elf\include\c++\8.3.0.202004-gnurx\cmath **** 
1396:c:\gcc for renesas rx 8.3.0.202004-gnurx-elf\rx-elf\rx-elf\rx-elf\include\c++\8.3.0.202004-gnurx\cmath **** #ifndef __CORRECT_ISO_CPP11_MATH_H_PROTO_FP
1397:c:\gcc for renesas rx 8.3.0.202004-gnurx-elf\rx-elf\rx-elf\rx-elf\include\c++\8.3.0.202004-gnurx\cmath ****   constexpr float
1398:c:\gcc for renesas rx 8.3.0.202004-gnurx-elf\rx-elf\rx-elf\rx-elf\include\c++\8.3.0.202004-gnurx\cmath ****   fma(float __x, float __y, float __z)
1399:c:\gcc for renesas rx 8.3.0.202004-gnurx-elf\rx-elf\rx-elf\rx-elf\include\c++\8.3.0.202004-gnurx\cmath ****   { return __builtin_fmaf(__x, __y, __z); }
1400:c:\gcc for renesas rx 8.3.0.202004-gnurx-elf\rx-elf\rx-elf\rx-elf\include\c++\8.3.0.202004-gnurx\cmath **** 
1401:c:\gcc for renesas rx 8.3.0.202004-gnurx-elf\rx-elf\rx-elf\rx-elf\include\c++\8.3.0.202004-gnurx\cmath ****   constexpr long double
1402:c:\gcc for renesas rx 8.3.0.202004-gnurx-elf\rx-elf\rx-elf\rx-elf\include\c++\8.3.0.202004-gnurx\cmath ****   fma(long double __x, long double __y, long double __z)
1403:c:\gcc for renesas rx 8.3.0.202004-gnurx-elf\rx-elf\rx-elf\rx-elf\include\c++\8.3.0.202004-gnurx\cmath ****   { return __builtin_fmal(__x, __y, __z); }
1404:c:\gcc for renesas rx 8.3.0.202004-gnurx-elf\rx-elf\rx-elf\rx-elf\include\c++\8.3.0.202004-gnurx\cmath **** #endif
1405:c:\gcc for renesas rx 8.3.0.202004-gnurx-elf\rx-elf\rx-elf\rx-elf\include\c++\8.3.0.202004-gnurx\cmath **** 
1406:c:\gcc for renesas rx 8.3.0.202004-gnurx-elf\rx-elf\rx-elf\rx-elf\include\c++\8.3.0.202004-gnurx\cmath **** #ifndef __CORRECT_ISO_CPP11_MATH_H_PROTO_INT
1407:c:\gcc for renesas rx 8.3.0.202004-gnurx-elf\rx-elf\rx-elf\rx-elf\include\c++\8.3.0.202004-gnurx\cmath ****   template<typename _Tp, typename _Up, typename _Vp>
1408:c:\gcc for renesas rx 8.3.0.202004-gnurx-elf\rx-elf\rx-elf\rx-elf\include\c++\8.3.0.202004-gnurx\cmath ****     constexpr typename __gnu_cxx::__promote_3<_Tp, _Up, _Vp>::__type
1409:c:\gcc for renesas rx 8.3.0.202004-gnurx-elf\rx-elf\rx-elf\rx-elf\include\c++\8.3.0.202004-gnurx\cmath ****     fma(_Tp __x, _Up __y, _Vp __z)
1410:c:\gcc for renesas rx 8.3.0.202004-gnurx-elf\rx-elf\rx-elf\rx-elf\include\c++\8.3.0.202004-gnurx\cmath ****     {
1411:c:\gcc for renesas rx 8.3.0.202004-gnurx-elf\rx-elf\rx-elf\rx-elf\include\c++\8.3.0.202004-gnurx\cmath ****       typedef typename __gnu_cxx::__promote_3<_Tp, _Up, _Vp>::__type __type;
1412:c:\gcc for renesas rx 8.3.0.202004-gnurx-elf\rx-elf\rx-elf\rx-elf\include\c++\8.3.0.202004-gnurx\cmath ****       return fma(__type(__x), __type(__y), __type(__z));
1413:c:\gcc for renesas rx 8.3.0.202004-gnurx-elf\rx-elf\rx-elf\rx-elf\include\c++\8.3.0.202004-gnurx\cmath ****     }
1414:c:\gcc for renesas rx 8.3.0.202004-gnurx-elf\rx-elf\rx-elf\rx-elf\include\c++\8.3.0.202004-gnurx\cmath **** #endif
1415:c:\gcc for renesas rx 8.3.0.202004-gnurx-elf\rx-elf\rx-elf\rx-elf\include\c++\8.3.0.202004-gnurx\cmath **** 
1416:c:\gcc for renesas rx 8.3.0.202004-gnurx-elf\rx-elf\rx-elf\rx-elf\include\c++\8.3.0.202004-gnurx\cmath **** #ifndef __CORRECT_ISO_CPP11_MATH_H_PROTO_FP
1417:c:\gcc for renesas rx 8.3.0.202004-gnurx-elf\rx-elf\rx-elf\rx-elf\include\c++\8.3.0.202004-gnurx\cmath ****   constexpr float
1418:c:\gcc for renesas rx 8.3.0.202004-gnurx-elf\rx-elf\rx-elf\rx-elf\include\c++\8.3.0.202004-gnurx\cmath ****   fmax(float __x, float __y)
1419:c:\gcc for renesas rx 8.3.0.202004-gnurx-elf\rx-elf\rx-elf\rx-elf\include\c++\8.3.0.202004-gnurx\cmath ****   { return __builtin_fmaxf(__x, __y); }
1420:c:\gcc for renesas rx 8.3.0.202004-gnurx-elf\rx-elf\rx-elf\rx-elf\include\c++\8.3.0.202004-gnurx\cmath **** 
1421:c:\gcc for renesas rx 8.3.0.202004-gnurx-elf\rx-elf\rx-elf\rx-elf\include\c++\8.3.0.202004-gnurx\cmath ****   constexpr long double
1422:c:\gcc for renesas rx 8.3.0.202004-gnurx-elf\rx-elf\rx-elf\rx-elf\include\c++\8.3.0.202004-gnurx\cmath ****   fmax(long double __x, long double __y)
1423:c:\gcc for renesas rx 8.3.0.202004-gnurx-elf\rx-elf\rx-elf\rx-elf\include\c++\8.3.0.202004-gnurx\cmath ****   { return __builtin_fmaxl(__x, __y); }
1424:c:\gcc for renesas rx 8.3.0.202004-gnurx-elf\rx-elf\rx-elf\rx-elf\include\c++\8.3.0.202004-gnurx\cmath **** #endif
1425:c:\gcc for renesas rx 8.3.0.202004-gnurx-elf\rx-elf\rx-elf\rx-elf\include\c++\8.3.0.202004-gnurx\cmath **** 
1426:c:\gcc for renesas rx 8.3.0.202004-gnurx-elf\rx-elf\rx-elf\rx-elf\include\c++\8.3.0.202004-gnurx\cmath **** #ifndef __CORRECT_ISO_CPP11_MATH_H_PROTO_INT
1427:c:\gcc for renesas rx 8.3.0.202004-gnurx-elf\rx-elf\rx-elf\rx-elf\include\c++\8.3.0.202004-gnurx\cmath ****   template<typename _Tp, typename _Up>
1428:c:\gcc for renesas rx 8.3.0.202004-gnurx-elf\rx-elf\rx-elf\rx-elf\include\c++\8.3.0.202004-gnurx\cmath ****     constexpr typename __gnu_cxx::__promote_2<_Tp, _Up>::__type
1429:c:\gcc for renesas rx 8.3.0.202004-gnurx-elf\rx-elf\rx-elf\rx-elf\include\c++\8.3.0.202004-gnurx\cmath ****     fmax(_Tp __x, _Up __y)
1430:c:\gcc for renesas rx 8.3.0.202004-gnurx-elf\rx-elf\rx-elf\rx-elf\include\c++\8.3.0.202004-gnurx\cmath ****     {
1431:c:\gcc for renesas rx 8.3.0.202004-gnurx-elf\rx-elf\rx-elf\rx-elf\include\c++\8.3.0.202004-gnurx\cmath ****       typedef typename __gnu_cxx::__promote_2<_Tp, _Up>::__type __type;
1432:c:\gcc for renesas rx 8.3.0.202004-gnurx-elf\rx-elf\rx-elf\rx-elf\include\c++\8.3.0.202004-gnurx\cmath ****       return fmax(__type(__x), __type(__y));
1433:c:\gcc for renesas rx 8.3.0.202004-gnurx-elf\rx-elf\rx-elf\rx-elf\include\c++\8.3.0.202004-gnurx\cmath ****     }
1434:c:\gcc for renesas rx 8.3.0.202004-gnurx-elf\rx-elf\rx-elf\rx-elf\include\c++\8.3.0.202004-gnurx\cmath **** #endif
1435:c:\gcc for renesas rx 8.3.0.202004-gnurx-elf\rx-elf\rx-elf\rx-elf\include\c++\8.3.0.202004-gnurx\cmath **** 
1436:c:\gcc for renesas rx 8.3.0.202004-gnurx-elf\rx-elf\rx-elf\rx-elf\include\c++\8.3.0.202004-gnurx\cmath **** #ifndef __CORRECT_ISO_CPP11_MATH_H_PROTO_FP
1437:c:\gcc for renesas rx 8.3.0.202004-gnurx-elf\rx-elf\rx-elf\rx-elf\include\c++\8.3.0.202004-gnurx\cmath ****   constexpr float
1438:c:\gcc for renesas rx 8.3.0.202004-gnurx-elf\rx-elf\rx-elf\rx-elf\include\c++\8.3.0.202004-gnurx\cmath ****   fmin(float __x, float __y)
1439:c:\gcc for renesas rx 8.3.0.202004-gnurx-elf\rx-elf\rx-elf\rx-elf\include\c++\8.3.0.202004-gnurx\cmath ****   { return __builtin_fminf(__x, __y); }
1440:c:\gcc for renesas rx 8.3.0.202004-gnurx-elf\rx-elf\rx-elf\rx-elf\include\c++\8.3.0.202004-gnurx\cmath **** 
1441:c:\gcc for renesas rx 8.3.0.202004-gnurx-elf\rx-elf\rx-elf\rx-elf\include\c++\8.3.0.202004-gnurx\cmath ****   constexpr long double
1442:c:\gcc for renesas rx 8.3.0.202004-gnurx-elf\rx-elf\rx-elf\rx-elf\include\c++\8.3.0.202004-gnurx\cmath ****   fmin(long double __x, long double __y)
1443:c:\gcc for renesas rx 8.3.0.202004-gnurx-elf\rx-elf\rx-elf\rx-elf\include\c++\8.3.0.202004-gnurx\cmath ****   { return __builtin_fminl(__x, __y); }
1444:c:\gcc for renesas rx 8.3.0.202004-gnurx-elf\rx-elf\rx-elf\rx-elf\include\c++\8.3.0.202004-gnurx\cmath **** #endif
1445:c:\gcc for renesas rx 8.3.0.202004-gnurx-elf\rx-elf\rx-elf\rx-elf\include\c++\8.3.0.202004-gnurx\cmath **** 
1446:c:\gcc for renesas rx 8.3.0.202004-gnurx-elf\rx-elf\rx-elf\rx-elf\include\c++\8.3.0.202004-gnurx\cmath **** #ifndef __CORRECT_ISO_CPP11_MATH_H_PROTO_INT
1447:c:\gcc for renesas rx 8.3.0.202004-gnurx-elf\rx-elf\rx-elf\rx-elf\include\c++\8.3.0.202004-gnurx\cmath ****   template<typename _Tp, typename _Up>
1448:c:\gcc for renesas rx 8.3.0.202004-gnurx-elf\rx-elf\rx-elf\rx-elf\include\c++\8.3.0.202004-gnurx\cmath ****     constexpr typename __gnu_cxx::__promote_2<_Tp, _Up>::__type
1449:c:\gcc for renesas rx 8.3.0.202004-gnurx-elf\rx-elf\rx-elf\rx-elf\include\c++\8.3.0.202004-gnurx\cmath ****     fmin(_Tp __x, _Up __y)
1450:c:\gcc for renesas rx 8.3.0.202004-gnurx-elf\rx-elf\rx-elf\rx-elf\include\c++\8.3.0.202004-gnurx\cmath ****     {
1451:c:\gcc for renesas rx 8.3.0.202004-gnurx-elf\rx-elf\rx-elf\rx-elf\include\c++\8.3.0.202004-gnurx\cmath ****       typedef typename __gnu_cxx::__promote_2<_Tp, _Up>::__type __type;
1452:c:\gcc for renesas rx 8.3.0.202004-gnurx-elf\rx-elf\rx-elf\rx-elf\include\c++\8.3.0.202004-gnurx\cmath ****       return fmin(__type(__x), __type(__y));
1453:c:\gcc for renesas rx 8.3.0.202004-gnurx-elf\rx-elf\rx-elf\rx-elf\include\c++\8.3.0.202004-gnurx\cmath ****     }
1454:c:\gcc for renesas rx 8.3.0.202004-gnurx-elf\rx-elf\rx-elf\rx-elf\include\c++\8.3.0.202004-gnurx\cmath **** #endif
1455:c:\gcc for renesas rx 8.3.0.202004-gnurx-elf\rx-elf\rx-elf\rx-elf\include\c++\8.3.0.202004-gnurx\cmath **** 
1456:c:\gcc for renesas rx 8.3.0.202004-gnurx-elf\rx-elf\rx-elf\rx-elf\include\c++\8.3.0.202004-gnurx\cmath **** #ifndef __CORRECT_ISO_CPP11_MATH_H_PROTO_FP
1457:c:\gcc for renesas rx 8.3.0.202004-gnurx-elf\rx-elf\rx-elf\rx-elf\include\c++\8.3.0.202004-gnurx\cmath ****   constexpr float
1458:c:\gcc for renesas rx 8.3.0.202004-gnurx-elf\rx-elf\rx-elf\rx-elf\include\c++\8.3.0.202004-gnurx\cmath ****   hypot(float __x, float __y)
1459:c:\gcc for renesas rx 8.3.0.202004-gnurx-elf\rx-elf\rx-elf\rx-elf\include\c++\8.3.0.202004-gnurx\cmath ****   { return __builtin_hypotf(__x, __y); }
1460:c:\gcc for renesas rx 8.3.0.202004-gnurx-elf\rx-elf\rx-elf\rx-elf\include\c++\8.3.0.202004-gnurx\cmath **** 
1461:c:\gcc for renesas rx 8.3.0.202004-gnurx-elf\rx-elf\rx-elf\rx-elf\include\c++\8.3.0.202004-gnurx\cmath ****   constexpr long double
1462:c:\gcc for renesas rx 8.3.0.202004-gnurx-elf\rx-elf\rx-elf\rx-elf\include\c++\8.3.0.202004-gnurx\cmath ****   hypot(long double __x, long double __y)
1463:c:\gcc for renesas rx 8.3.0.202004-gnurx-elf\rx-elf\rx-elf\rx-elf\include\c++\8.3.0.202004-gnurx\cmath ****   { return __builtin_hypotl(__x, __y); }
1464:c:\gcc for renesas rx 8.3.0.202004-gnurx-elf\rx-elf\rx-elf\rx-elf\include\c++\8.3.0.202004-gnurx\cmath **** #endif
1465:c:\gcc for renesas rx 8.3.0.202004-gnurx-elf\rx-elf\rx-elf\rx-elf\include\c++\8.3.0.202004-gnurx\cmath **** 
1466:c:\gcc for renesas rx 8.3.0.202004-gnurx-elf\rx-elf\rx-elf\rx-elf\include\c++\8.3.0.202004-gnurx\cmath **** #ifndef __CORRECT_ISO_CPP11_MATH_H_PROTO_INT
1467:c:\gcc for renesas rx 8.3.0.202004-gnurx-elf\rx-elf\rx-elf\rx-elf\include\c++\8.3.0.202004-gnurx\cmath ****   template<typename _Tp, typename _Up>
1468:c:\gcc for renesas rx 8.3.0.202004-gnurx-elf\rx-elf\rx-elf\rx-elf\include\c++\8.3.0.202004-gnurx\cmath ****     constexpr typename __gnu_cxx::__promote_2<_Tp, _Up>::__type
1469:c:\gcc for renesas rx 8.3.0.202004-gnurx-elf\rx-elf\rx-elf\rx-elf\include\c++\8.3.0.202004-gnurx\cmath ****     hypot(_Tp __x, _Up __y)
1470:c:\gcc for renesas rx 8.3.0.202004-gnurx-elf\rx-elf\rx-elf\rx-elf\include\c++\8.3.0.202004-gnurx\cmath ****     {
1471:c:\gcc for renesas rx 8.3.0.202004-gnurx-elf\rx-elf\rx-elf\rx-elf\include\c++\8.3.0.202004-gnurx\cmath ****       typedef typename __gnu_cxx::__promote_2<_Tp, _Up>::__type __type;
1472:c:\gcc for renesas rx 8.3.0.202004-gnurx-elf\rx-elf\rx-elf\rx-elf\include\c++\8.3.0.202004-gnurx\cmath ****       return hypot(__type(__x), __type(__y));
1473:c:\gcc for renesas rx 8.3.0.202004-gnurx-elf\rx-elf\rx-elf\rx-elf\include\c++\8.3.0.202004-gnurx\cmath ****     }
1474:c:\gcc for renesas rx 8.3.0.202004-gnurx-elf\rx-elf\rx-elf\rx-elf\include\c++\8.3.0.202004-gnurx\cmath **** #endif
1475:c:\gcc for renesas rx 8.3.0.202004-gnurx-elf\rx-elf\rx-elf\rx-elf\include\c++\8.3.0.202004-gnurx\cmath **** 
1476:c:\gcc for renesas rx 8.3.0.202004-gnurx-elf\rx-elf\rx-elf\rx-elf\include\c++\8.3.0.202004-gnurx\cmath **** #ifndef __CORRECT_ISO_CPP11_MATH_H_PROTO_FP
1477:c:\gcc for renesas rx 8.3.0.202004-gnurx-elf\rx-elf\rx-elf\rx-elf\include\c++\8.3.0.202004-gnurx\cmath ****   constexpr int
1478:c:\gcc for renesas rx 8.3.0.202004-gnurx-elf\rx-elf\rx-elf\rx-elf\include\c++\8.3.0.202004-gnurx\cmath ****   ilogb(float __x)
1479:c:\gcc for renesas rx 8.3.0.202004-gnurx-elf\rx-elf\rx-elf\rx-elf\include\c++\8.3.0.202004-gnurx\cmath ****   { return __builtin_ilogbf(__x); }
1480:c:\gcc for renesas rx 8.3.0.202004-gnurx-elf\rx-elf\rx-elf\rx-elf\include\c++\8.3.0.202004-gnurx\cmath **** 
1481:c:\gcc for renesas rx 8.3.0.202004-gnurx-elf\rx-elf\rx-elf\rx-elf\include\c++\8.3.0.202004-gnurx\cmath ****   constexpr int
1482:c:\gcc for renesas rx 8.3.0.202004-gnurx-elf\rx-elf\rx-elf\rx-elf\include\c++\8.3.0.202004-gnurx\cmath ****   ilogb(long double __x)
1483:c:\gcc for renesas rx 8.3.0.202004-gnurx-elf\rx-elf\rx-elf\rx-elf\include\c++\8.3.0.202004-gnurx\cmath ****   { return __builtin_ilogbl(__x); }
1484:c:\gcc for renesas rx 8.3.0.202004-gnurx-elf\rx-elf\rx-elf\rx-elf\include\c++\8.3.0.202004-gnurx\cmath **** #endif
1485:c:\gcc for renesas rx 8.3.0.202004-gnurx-elf\rx-elf\rx-elf\rx-elf\include\c++\8.3.0.202004-gnurx\cmath **** 
1486:c:\gcc for renesas rx 8.3.0.202004-gnurx-elf\rx-elf\rx-elf\rx-elf\include\c++\8.3.0.202004-gnurx\cmath **** #ifndef __CORRECT_ISO_CPP11_MATH_H_PROTO_INT
1487:c:\gcc for renesas rx 8.3.0.202004-gnurx-elf\rx-elf\rx-elf\rx-elf\include\c++\8.3.0.202004-gnurx\cmath ****   template<typename _Tp>
1488:c:\gcc for renesas rx 8.3.0.202004-gnurx-elf\rx-elf\rx-elf\rx-elf\include\c++\8.3.0.202004-gnurx\cmath ****     constexpr
1489:c:\gcc for renesas rx 8.3.0.202004-gnurx-elf\rx-elf\rx-elf\rx-elf\include\c++\8.3.0.202004-gnurx\cmath ****     typename __gnu_cxx::__enable_if<__is_integer<_Tp>::__value, 
1490:c:\gcc for renesas rx 8.3.0.202004-gnurx-elf\rx-elf\rx-elf\rx-elf\include\c++\8.3.0.202004-gnurx\cmath ****                                     int>::__type
1491:c:\gcc for renesas rx 8.3.0.202004-gnurx-elf\rx-elf\rx-elf\rx-elf\include\c++\8.3.0.202004-gnurx\cmath ****     ilogb(_Tp __x)
1492:c:\gcc for renesas rx 8.3.0.202004-gnurx-elf\rx-elf\rx-elf\rx-elf\include\c++\8.3.0.202004-gnurx\cmath ****     { return __builtin_ilogb(__x); }
1493:c:\gcc for renesas rx 8.3.0.202004-gnurx-elf\rx-elf\rx-elf\rx-elf\include\c++\8.3.0.202004-gnurx\cmath **** #endif
1494:c:\gcc for renesas rx 8.3.0.202004-gnurx-elf\rx-elf\rx-elf\rx-elf\include\c++\8.3.0.202004-gnurx\cmath **** 
1495:c:\gcc for renesas rx 8.3.0.202004-gnurx-elf\rx-elf\rx-elf\rx-elf\include\c++\8.3.0.202004-gnurx\cmath **** #ifndef __CORRECT_ISO_CPP11_MATH_H_PROTO_FP
1496:c:\gcc for renesas rx 8.3.0.202004-gnurx-elf\rx-elf\rx-elf\rx-elf\include\c++\8.3.0.202004-gnurx\cmath ****   constexpr float
1497:c:\gcc for renesas rx 8.3.0.202004-gnurx-elf\rx-elf\rx-elf\rx-elf\include\c++\8.3.0.202004-gnurx\cmath ****   lgamma(float __x)
1498:c:\gcc for renesas rx 8.3.0.202004-gnurx-elf\rx-elf\rx-elf\rx-elf\include\c++\8.3.0.202004-gnurx\cmath ****   { return __builtin_lgammaf(__x); }
1499:c:\gcc for renesas rx 8.3.0.202004-gnurx-elf\rx-elf\rx-elf\rx-elf\include\c++\8.3.0.202004-gnurx\cmath **** 
1500:c:\gcc for renesas rx 8.3.0.202004-gnurx-elf\rx-elf\rx-elf\rx-elf\include\c++\8.3.0.202004-gnurx\cmath ****   constexpr long double
1501:c:\gcc for renesas rx 8.3.0.202004-gnurx-elf\rx-elf\rx-elf\rx-elf\include\c++\8.3.0.202004-gnurx\cmath ****   lgamma(long double __x)
1502:c:\gcc for renesas rx 8.3.0.202004-gnurx-elf\rx-elf\rx-elf\rx-elf\include\c++\8.3.0.202004-gnurx\cmath ****   { return __builtin_lgammal(__x); }
1503:c:\gcc for renesas rx 8.3.0.202004-gnurx-elf\rx-elf\rx-elf\rx-elf\include\c++\8.3.0.202004-gnurx\cmath **** #endif
1504:c:\gcc for renesas rx 8.3.0.202004-gnurx-elf\rx-elf\rx-elf\rx-elf\include\c++\8.3.0.202004-gnurx\cmath **** 
1505:c:\gcc for renesas rx 8.3.0.202004-gnurx-elf\rx-elf\rx-elf\rx-elf\include\c++\8.3.0.202004-gnurx\cmath **** #ifndef __CORRECT_ISO_CPP11_MATH_H_PROTO_INT
1506:c:\gcc for renesas rx 8.3.0.202004-gnurx-elf\rx-elf\rx-elf\rx-elf\include\c++\8.3.0.202004-gnurx\cmath ****   template<typename _Tp>
1507:c:\gcc for renesas rx 8.3.0.202004-gnurx-elf\rx-elf\rx-elf\rx-elf\include\c++\8.3.0.202004-gnurx\cmath ****     constexpr typename __gnu_cxx::__enable_if<__is_integer<_Tp>::__value, 
1508:c:\gcc for renesas rx 8.3.0.202004-gnurx-elf\rx-elf\rx-elf\rx-elf\include\c++\8.3.0.202004-gnurx\cmath ****                                               double>::__type
1509:c:\gcc for renesas rx 8.3.0.202004-gnurx-elf\rx-elf\rx-elf\rx-elf\include\c++\8.3.0.202004-gnurx\cmath ****     lgamma(_Tp __x)
1510:c:\gcc for renesas rx 8.3.0.202004-gnurx-elf\rx-elf\rx-elf\rx-elf\include\c++\8.3.0.202004-gnurx\cmath ****     { return __builtin_lgamma(__x); }
1511:c:\gcc for renesas rx 8.3.0.202004-gnurx-elf\rx-elf\rx-elf\rx-elf\include\c++\8.3.0.202004-gnurx\cmath **** #endif
1512:c:\gcc for renesas rx 8.3.0.202004-gnurx-elf\rx-elf\rx-elf\rx-elf\include\c++\8.3.0.202004-gnurx\cmath **** 
1513:c:\gcc for renesas rx 8.3.0.202004-gnurx-elf\rx-elf\rx-elf\rx-elf\include\c++\8.3.0.202004-gnurx\cmath **** #ifndef __CORRECT_ISO_CPP11_MATH_H_PROTO_FP
1514:c:\gcc for renesas rx 8.3.0.202004-gnurx-elf\rx-elf\rx-elf\rx-elf\include\c++\8.3.0.202004-gnurx\cmath ****   constexpr long long
1515:c:\gcc for renesas rx 8.3.0.202004-gnurx-elf\rx-elf\rx-elf\rx-elf\include\c++\8.3.0.202004-gnurx\cmath ****   llrint(float __x)
1516:c:\gcc for renesas rx 8.3.0.202004-gnurx-elf\rx-elf\rx-elf\rx-elf\include\c++\8.3.0.202004-gnurx\cmath ****   { return __builtin_llrintf(__x); }
1517:c:\gcc for renesas rx 8.3.0.202004-gnurx-elf\rx-elf\rx-elf\rx-elf\include\c++\8.3.0.202004-gnurx\cmath **** 
1518:c:\gcc for renesas rx 8.3.0.202004-gnurx-elf\rx-elf\rx-elf\rx-elf\include\c++\8.3.0.202004-gnurx\cmath ****   constexpr long long
1519:c:\gcc for renesas rx 8.3.0.202004-gnurx-elf\rx-elf\rx-elf\rx-elf\include\c++\8.3.0.202004-gnurx\cmath ****   llrint(long double __x)
1520:c:\gcc for renesas rx 8.3.0.202004-gnurx-elf\rx-elf\rx-elf\rx-elf\include\c++\8.3.0.202004-gnurx\cmath ****   { return __builtin_llrintl(__x); }
1521:c:\gcc for renesas rx 8.3.0.202004-gnurx-elf\rx-elf\rx-elf\rx-elf\include\c++\8.3.0.202004-gnurx\cmath **** #endif
1522:c:\gcc for renesas rx 8.3.0.202004-gnurx-elf\rx-elf\rx-elf\rx-elf\include\c++\8.3.0.202004-gnurx\cmath **** 
1523:c:\gcc for renesas rx 8.3.0.202004-gnurx-elf\rx-elf\rx-elf\rx-elf\include\c++\8.3.0.202004-gnurx\cmath **** #ifndef __CORRECT_ISO_CPP11_MATH_H_PROTO_INT
1524:c:\gcc for renesas rx 8.3.0.202004-gnurx-elf\rx-elf\rx-elf\rx-elf\include\c++\8.3.0.202004-gnurx\cmath ****   template<typename _Tp>
1525:c:\gcc for renesas rx 8.3.0.202004-gnurx-elf\rx-elf\rx-elf\rx-elf\include\c++\8.3.0.202004-gnurx\cmath ****     constexpr typename __gnu_cxx::__enable_if<__is_integer<_Tp>::__value, 
1526:c:\gcc for renesas rx 8.3.0.202004-gnurx-elf\rx-elf\rx-elf\rx-elf\include\c++\8.3.0.202004-gnurx\cmath ****                                               long long>::__type
1527:c:\gcc for renesas rx 8.3.0.202004-gnurx-elf\rx-elf\rx-elf\rx-elf\include\c++\8.3.0.202004-gnurx\cmath ****     llrint(_Tp __x)
1528:c:\gcc for renesas rx 8.3.0.202004-gnurx-elf\rx-elf\rx-elf\rx-elf\include\c++\8.3.0.202004-gnurx\cmath ****     { return __builtin_llrint(__x); }
1529:c:\gcc for renesas rx 8.3.0.202004-gnurx-elf\rx-elf\rx-elf\rx-elf\include\c++\8.3.0.202004-gnurx\cmath **** #endif
1530:c:\gcc for renesas rx 8.3.0.202004-gnurx-elf\rx-elf\rx-elf\rx-elf\include\c++\8.3.0.202004-gnurx\cmath **** 
1531:c:\gcc for renesas rx 8.3.0.202004-gnurx-elf\rx-elf\rx-elf\rx-elf\include\c++\8.3.0.202004-gnurx\cmath **** #ifndef __CORRECT_ISO_CPP11_MATH_H_PROTO_FP
1532:c:\gcc for renesas rx 8.3.0.202004-gnurx-elf\rx-elf\rx-elf\rx-elf\include\c++\8.3.0.202004-gnurx\cmath ****   constexpr long long
1533:c:\gcc for renesas rx 8.3.0.202004-gnurx-elf\rx-elf\rx-elf\rx-elf\include\c++\8.3.0.202004-gnurx\cmath ****   llround(float __x)
1534:c:\gcc for renesas rx 8.3.0.202004-gnurx-elf\rx-elf\rx-elf\rx-elf\include\c++\8.3.0.202004-gnurx\cmath ****   { return __builtin_llroundf(__x); }
1535:c:\gcc for renesas rx 8.3.0.202004-gnurx-elf\rx-elf\rx-elf\rx-elf\include\c++\8.3.0.202004-gnurx\cmath **** 
1536:c:\gcc for renesas rx 8.3.0.202004-gnurx-elf\rx-elf\rx-elf\rx-elf\include\c++\8.3.0.202004-gnurx\cmath ****   constexpr long long
1537:c:\gcc for renesas rx 8.3.0.202004-gnurx-elf\rx-elf\rx-elf\rx-elf\include\c++\8.3.0.202004-gnurx\cmath ****   llround(long double __x)
1538:c:\gcc for renesas rx 8.3.0.202004-gnurx-elf\rx-elf\rx-elf\rx-elf\include\c++\8.3.0.202004-gnurx\cmath ****   { return __builtin_llroundl(__x); }
1539:c:\gcc for renesas rx 8.3.0.202004-gnurx-elf\rx-elf\rx-elf\rx-elf\include\c++\8.3.0.202004-gnurx\cmath **** #endif
1540:c:\gcc for renesas rx 8.3.0.202004-gnurx-elf\rx-elf\rx-elf\rx-elf\include\c++\8.3.0.202004-gnurx\cmath **** 
1541:c:\gcc for renesas rx 8.3.0.202004-gnurx-elf\rx-elf\rx-elf\rx-elf\include\c++\8.3.0.202004-gnurx\cmath **** #ifndef __CORRECT_ISO_CPP11_MATH_H_PROTO_INT
1542:c:\gcc for renesas rx 8.3.0.202004-gnurx-elf\rx-elf\rx-elf\rx-elf\include\c++\8.3.0.202004-gnurx\cmath ****   template<typename _Tp>
1543:c:\gcc for renesas rx 8.3.0.202004-gnurx-elf\rx-elf\rx-elf\rx-elf\include\c++\8.3.0.202004-gnurx\cmath ****     constexpr typename __gnu_cxx::__enable_if<__is_integer<_Tp>::__value, 
1544:c:\gcc for renesas rx 8.3.0.202004-gnurx-elf\rx-elf\rx-elf\rx-elf\include\c++\8.3.0.202004-gnurx\cmath ****                                               long long>::__type
1545:c:\gcc for renesas rx 8.3.0.202004-gnurx-elf\rx-elf\rx-elf\rx-elf\include\c++\8.3.0.202004-gnurx\cmath ****     llround(_Tp __x)
1546:c:\gcc for renesas rx 8.3.0.202004-gnurx-elf\rx-elf\rx-elf\rx-elf\include\c++\8.3.0.202004-gnurx\cmath ****     { return __builtin_llround(__x); }
1547:c:\gcc for renesas rx 8.3.0.202004-gnurx-elf\rx-elf\rx-elf\rx-elf\include\c++\8.3.0.202004-gnurx\cmath **** #endif
1548:c:\gcc for renesas rx 8.3.0.202004-gnurx-elf\rx-elf\rx-elf\rx-elf\include\c++\8.3.0.202004-gnurx\cmath **** 
1549:c:\gcc for renesas rx 8.3.0.202004-gnurx-elf\rx-elf\rx-elf\rx-elf\include\c++\8.3.0.202004-gnurx\cmath **** #ifndef __CORRECT_ISO_CPP11_MATH_H_PROTO_FP
1550:c:\gcc for renesas rx 8.3.0.202004-gnurx-elf\rx-elf\rx-elf\rx-elf\include\c++\8.3.0.202004-gnurx\cmath ****   constexpr float
1551:c:\gcc for renesas rx 8.3.0.202004-gnurx-elf\rx-elf\rx-elf\rx-elf\include\c++\8.3.0.202004-gnurx\cmath ****   log1p(float __x)
1552:c:\gcc for renesas rx 8.3.0.202004-gnurx-elf\rx-elf\rx-elf\rx-elf\include\c++\8.3.0.202004-gnurx\cmath ****   { return __builtin_log1pf(__x); }
1553:c:\gcc for renesas rx 8.3.0.202004-gnurx-elf\rx-elf\rx-elf\rx-elf\include\c++\8.3.0.202004-gnurx\cmath **** 
1554:c:\gcc for renesas rx 8.3.0.202004-gnurx-elf\rx-elf\rx-elf\rx-elf\include\c++\8.3.0.202004-gnurx\cmath ****   constexpr long double
1555:c:\gcc for renesas rx 8.3.0.202004-gnurx-elf\rx-elf\rx-elf\rx-elf\include\c++\8.3.0.202004-gnurx\cmath ****   log1p(long double __x)
1556:c:\gcc for renesas rx 8.3.0.202004-gnurx-elf\rx-elf\rx-elf\rx-elf\include\c++\8.3.0.202004-gnurx\cmath ****   { return __builtin_log1pl(__x); }
1557:c:\gcc for renesas rx 8.3.0.202004-gnurx-elf\rx-elf\rx-elf\rx-elf\include\c++\8.3.0.202004-gnurx\cmath **** #endif
1558:c:\gcc for renesas rx 8.3.0.202004-gnurx-elf\rx-elf\rx-elf\rx-elf\include\c++\8.3.0.202004-gnurx\cmath **** 
1559:c:\gcc for renesas rx 8.3.0.202004-gnurx-elf\rx-elf\rx-elf\rx-elf\include\c++\8.3.0.202004-gnurx\cmath **** #ifndef __CORRECT_ISO_CPP11_MATH_H_PROTO_INT
1560:c:\gcc for renesas rx 8.3.0.202004-gnurx-elf\rx-elf\rx-elf\rx-elf\include\c++\8.3.0.202004-gnurx\cmath ****   template<typename _Tp>
1561:c:\gcc for renesas rx 8.3.0.202004-gnurx-elf\rx-elf\rx-elf\rx-elf\include\c++\8.3.0.202004-gnurx\cmath ****     constexpr typename __gnu_cxx::__enable_if<__is_integer<_Tp>::__value, 
1562:c:\gcc for renesas rx 8.3.0.202004-gnurx-elf\rx-elf\rx-elf\rx-elf\include\c++\8.3.0.202004-gnurx\cmath ****                                               double>::__type
1563:c:\gcc for renesas rx 8.3.0.202004-gnurx-elf\rx-elf\rx-elf\rx-elf\include\c++\8.3.0.202004-gnurx\cmath ****     log1p(_Tp __x)
1564:c:\gcc for renesas rx 8.3.0.202004-gnurx-elf\rx-elf\rx-elf\rx-elf\include\c++\8.3.0.202004-gnurx\cmath ****     { return __builtin_log1p(__x); }
1565:c:\gcc for renesas rx 8.3.0.202004-gnurx-elf\rx-elf\rx-elf\rx-elf\include\c++\8.3.0.202004-gnurx\cmath **** #endif
1566:c:\gcc for renesas rx 8.3.0.202004-gnurx-elf\rx-elf\rx-elf\rx-elf\include\c++\8.3.0.202004-gnurx\cmath **** 
1567:c:\gcc for renesas rx 8.3.0.202004-gnurx-elf\rx-elf\rx-elf\rx-elf\include\c++\8.3.0.202004-gnurx\cmath **** #ifndef __CORRECT_ISO_CPP11_MATH_H_PROTO_FP
1568:c:\gcc for renesas rx 8.3.0.202004-gnurx-elf\rx-elf\rx-elf\rx-elf\include\c++\8.3.0.202004-gnurx\cmath ****   // DR 568.
1569:c:\gcc for renesas rx 8.3.0.202004-gnurx-elf\rx-elf\rx-elf\rx-elf\include\c++\8.3.0.202004-gnurx\cmath ****   constexpr float
1570:c:\gcc for renesas rx 8.3.0.202004-gnurx-elf\rx-elf\rx-elf\rx-elf\include\c++\8.3.0.202004-gnurx\cmath ****   log2(float __x)
1571:c:\gcc for renesas rx 8.3.0.202004-gnurx-elf\rx-elf\rx-elf\rx-elf\include\c++\8.3.0.202004-gnurx\cmath ****   { return __builtin_log2f(__x); }
1572:c:\gcc for renesas rx 8.3.0.202004-gnurx-elf\rx-elf\rx-elf\rx-elf\include\c++\8.3.0.202004-gnurx\cmath **** 
1573:c:\gcc for renesas rx 8.3.0.202004-gnurx-elf\rx-elf\rx-elf\rx-elf\include\c++\8.3.0.202004-gnurx\cmath ****   constexpr long double
1574:c:\gcc for renesas rx 8.3.0.202004-gnurx-elf\rx-elf\rx-elf\rx-elf\include\c++\8.3.0.202004-gnurx\cmath ****   log2(long double __x)
1575:c:\gcc for renesas rx 8.3.0.202004-gnurx-elf\rx-elf\rx-elf\rx-elf\include\c++\8.3.0.202004-gnurx\cmath ****   { return __builtin_log2l(__x); }
1576:c:\gcc for renesas rx 8.3.0.202004-gnurx-elf\rx-elf\rx-elf\rx-elf\include\c++\8.3.0.202004-gnurx\cmath **** #endif
1577:c:\gcc for renesas rx 8.3.0.202004-gnurx-elf\rx-elf\rx-elf\rx-elf\include\c++\8.3.0.202004-gnurx\cmath **** 
1578:c:\gcc for renesas rx 8.3.0.202004-gnurx-elf\rx-elf\rx-elf\rx-elf\include\c++\8.3.0.202004-gnurx\cmath **** #ifndef __CORRECT_ISO_CPP11_MATH_H_PROTO_INT
1579:c:\gcc for renesas rx 8.3.0.202004-gnurx-elf\rx-elf\rx-elf\rx-elf\include\c++\8.3.0.202004-gnurx\cmath ****   template<typename _Tp>
1580:c:\gcc for renesas rx 8.3.0.202004-gnurx-elf\rx-elf\rx-elf\rx-elf\include\c++\8.3.0.202004-gnurx\cmath ****     constexpr typename __gnu_cxx::__enable_if<__is_integer<_Tp>::__value, 
1581:c:\gcc for renesas rx 8.3.0.202004-gnurx-elf\rx-elf\rx-elf\rx-elf\include\c++\8.3.0.202004-gnurx\cmath ****                                               double>::__type
1582:c:\gcc for renesas rx 8.3.0.202004-gnurx-elf\rx-elf\rx-elf\rx-elf\include\c++\8.3.0.202004-gnurx\cmath ****     log2(_Tp __x)
1583:c:\gcc for renesas rx 8.3.0.202004-gnurx-elf\rx-elf\rx-elf\rx-elf\include\c++\8.3.0.202004-gnurx\cmath ****     { return __builtin_log2(__x); }
1584:c:\gcc for renesas rx 8.3.0.202004-gnurx-elf\rx-elf\rx-elf\rx-elf\include\c++\8.3.0.202004-gnurx\cmath **** #endif
1585:c:\gcc for renesas rx 8.3.0.202004-gnurx-elf\rx-elf\rx-elf\rx-elf\include\c++\8.3.0.202004-gnurx\cmath **** 
1586:c:\gcc for renesas rx 8.3.0.202004-gnurx-elf\rx-elf\rx-elf\rx-elf\include\c++\8.3.0.202004-gnurx\cmath **** #ifndef __CORRECT_ISO_CPP11_MATH_H_PROTO_FP
1587:c:\gcc for renesas rx 8.3.0.202004-gnurx-elf\rx-elf\rx-elf\rx-elf\include\c++\8.3.0.202004-gnurx\cmath ****   constexpr float
1588:c:\gcc for renesas rx 8.3.0.202004-gnurx-elf\rx-elf\rx-elf\rx-elf\include\c++\8.3.0.202004-gnurx\cmath ****   logb(float __x)
1589:c:\gcc for renesas rx 8.3.0.202004-gnurx-elf\rx-elf\rx-elf\rx-elf\include\c++\8.3.0.202004-gnurx\cmath ****   { return __builtin_logbf(__x); }
1590:c:\gcc for renesas rx 8.3.0.202004-gnurx-elf\rx-elf\rx-elf\rx-elf\include\c++\8.3.0.202004-gnurx\cmath **** 
1591:c:\gcc for renesas rx 8.3.0.202004-gnurx-elf\rx-elf\rx-elf\rx-elf\include\c++\8.3.0.202004-gnurx\cmath ****   constexpr long double
1592:c:\gcc for renesas rx 8.3.0.202004-gnurx-elf\rx-elf\rx-elf\rx-elf\include\c++\8.3.0.202004-gnurx\cmath ****   logb(long double __x)
1593:c:\gcc for renesas rx 8.3.0.202004-gnurx-elf\rx-elf\rx-elf\rx-elf\include\c++\8.3.0.202004-gnurx\cmath ****   { return __builtin_logbl(__x); }
1594:c:\gcc for renesas rx 8.3.0.202004-gnurx-elf\rx-elf\rx-elf\rx-elf\include\c++\8.3.0.202004-gnurx\cmath **** #endif
1595:c:\gcc for renesas rx 8.3.0.202004-gnurx-elf\rx-elf\rx-elf\rx-elf\include\c++\8.3.0.202004-gnurx\cmath **** 
1596:c:\gcc for renesas rx 8.3.0.202004-gnurx-elf\rx-elf\rx-elf\rx-elf\include\c++\8.3.0.202004-gnurx\cmath **** #ifndef __CORRECT_ISO_CPP11_MATH_H_PROTO_INT
1597:c:\gcc for renesas rx 8.3.0.202004-gnurx-elf\rx-elf\rx-elf\rx-elf\include\c++\8.3.0.202004-gnurx\cmath ****   template<typename _Tp>
1598:c:\gcc for renesas rx 8.3.0.202004-gnurx-elf\rx-elf\rx-elf\rx-elf\include\c++\8.3.0.202004-gnurx\cmath ****     constexpr typename __gnu_cxx::__enable_if<__is_integer<_Tp>::__value, 
1599:c:\gcc for renesas rx 8.3.0.202004-gnurx-elf\rx-elf\rx-elf\rx-elf\include\c++\8.3.0.202004-gnurx\cmath ****                                               double>::__type
1600:c:\gcc for renesas rx 8.3.0.202004-gnurx-elf\rx-elf\rx-elf\rx-elf\include\c++\8.3.0.202004-gnurx\cmath ****     logb(_Tp __x)
1601:c:\gcc for renesas rx 8.3.0.202004-gnurx-elf\rx-elf\rx-elf\rx-elf\include\c++\8.3.0.202004-gnurx\cmath ****     { return __builtin_logb(__x); }
1602:c:\gcc for renesas rx 8.3.0.202004-gnurx-elf\rx-elf\rx-elf\rx-elf\include\c++\8.3.0.202004-gnurx\cmath **** #endif
1603:c:\gcc for renesas rx 8.3.0.202004-gnurx-elf\rx-elf\rx-elf\rx-elf\include\c++\8.3.0.202004-gnurx\cmath **** 
1604:c:\gcc for renesas rx 8.3.0.202004-gnurx-elf\rx-elf\rx-elf\rx-elf\include\c++\8.3.0.202004-gnurx\cmath **** #ifndef __CORRECT_ISO_CPP11_MATH_H_PROTO_FP
1605:c:\gcc for renesas rx 8.3.0.202004-gnurx-elf\rx-elf\rx-elf\rx-elf\include\c++\8.3.0.202004-gnurx\cmath ****   constexpr long
1606:c:\gcc for renesas rx 8.3.0.202004-gnurx-elf\rx-elf\rx-elf\rx-elf\include\c++\8.3.0.202004-gnurx\cmath ****   lrint(float __x)
1607:c:\gcc for renesas rx 8.3.0.202004-gnurx-elf\rx-elf\rx-elf\rx-elf\include\c++\8.3.0.202004-gnurx\cmath ****   { return __builtin_lrintf(__x); }
1608:c:\gcc for renesas rx 8.3.0.202004-gnurx-elf\rx-elf\rx-elf\rx-elf\include\c++\8.3.0.202004-gnurx\cmath **** 
1609:c:\gcc for renesas rx 8.3.0.202004-gnurx-elf\rx-elf\rx-elf\rx-elf\include\c++\8.3.0.202004-gnurx\cmath ****   constexpr long
1610:c:\gcc for renesas rx 8.3.0.202004-gnurx-elf\rx-elf\rx-elf\rx-elf\include\c++\8.3.0.202004-gnurx\cmath ****   lrint(long double __x)
1611:c:\gcc for renesas rx 8.3.0.202004-gnurx-elf\rx-elf\rx-elf\rx-elf\include\c++\8.3.0.202004-gnurx\cmath ****   { return __builtin_lrintl(__x); }
1612:c:\gcc for renesas rx 8.3.0.202004-gnurx-elf\rx-elf\rx-elf\rx-elf\include\c++\8.3.0.202004-gnurx\cmath **** #endif
1613:c:\gcc for renesas rx 8.3.0.202004-gnurx-elf\rx-elf\rx-elf\rx-elf\include\c++\8.3.0.202004-gnurx\cmath **** 
1614:c:\gcc for renesas rx 8.3.0.202004-gnurx-elf\rx-elf\rx-elf\rx-elf\include\c++\8.3.0.202004-gnurx\cmath **** #ifndef __CORRECT_ISO_CPP11_MATH_H_PROTO_INT
1615:c:\gcc for renesas rx 8.3.0.202004-gnurx-elf\rx-elf\rx-elf\rx-elf\include\c++\8.3.0.202004-gnurx\cmath ****   template<typename _Tp>
1616:c:\gcc for renesas rx 8.3.0.202004-gnurx-elf\rx-elf\rx-elf\rx-elf\include\c++\8.3.0.202004-gnurx\cmath ****     constexpr typename __gnu_cxx::__enable_if<__is_integer<_Tp>::__value, 
1617:c:\gcc for renesas rx 8.3.0.202004-gnurx-elf\rx-elf\rx-elf\rx-elf\include\c++\8.3.0.202004-gnurx\cmath ****                                               long>::__type
1618:c:\gcc for renesas rx 8.3.0.202004-gnurx-elf\rx-elf\rx-elf\rx-elf\include\c++\8.3.0.202004-gnurx\cmath ****     lrint(_Tp __x)
1619:c:\gcc for renesas rx 8.3.0.202004-gnurx-elf\rx-elf\rx-elf\rx-elf\include\c++\8.3.0.202004-gnurx\cmath ****     { return __builtin_lrint(__x); }
1620:c:\gcc for renesas rx 8.3.0.202004-gnurx-elf\rx-elf\rx-elf\rx-elf\include\c++\8.3.0.202004-gnurx\cmath **** #endif
1621:c:\gcc for renesas rx 8.3.0.202004-gnurx-elf\rx-elf\rx-elf\rx-elf\include\c++\8.3.0.202004-gnurx\cmath **** 
1622:c:\gcc for renesas rx 8.3.0.202004-gnurx-elf\rx-elf\rx-elf\rx-elf\include\c++\8.3.0.202004-gnurx\cmath **** #ifndef __CORRECT_ISO_CPP11_MATH_H_PROTO_FP
1623:c:\gcc for renesas rx 8.3.0.202004-gnurx-elf\rx-elf\rx-elf\rx-elf\include\c++\8.3.0.202004-gnurx\cmath ****   constexpr long
1624:c:\gcc for renesas rx 8.3.0.202004-gnurx-elf\rx-elf\rx-elf\rx-elf\include\c++\8.3.0.202004-gnurx\cmath ****   lround(float __x)
1625:c:\gcc for renesas rx 8.3.0.202004-gnurx-elf\rx-elf\rx-elf\rx-elf\include\c++\8.3.0.202004-gnurx\cmath ****   { return __builtin_lroundf(__x); }
1626:c:\gcc for renesas rx 8.3.0.202004-gnurx-elf\rx-elf\rx-elf\rx-elf\include\c++\8.3.0.202004-gnurx\cmath **** 
1627:c:\gcc for renesas rx 8.3.0.202004-gnurx-elf\rx-elf\rx-elf\rx-elf\include\c++\8.3.0.202004-gnurx\cmath ****   constexpr long
1628:c:\gcc for renesas rx 8.3.0.202004-gnurx-elf\rx-elf\rx-elf\rx-elf\include\c++\8.3.0.202004-gnurx\cmath ****   lround(long double __x)
1629:c:\gcc for renesas rx 8.3.0.202004-gnurx-elf\rx-elf\rx-elf\rx-elf\include\c++\8.3.0.202004-gnurx\cmath ****   { return __builtin_lroundl(__x); }
1630:c:\gcc for renesas rx 8.3.0.202004-gnurx-elf\rx-elf\rx-elf\rx-elf\include\c++\8.3.0.202004-gnurx\cmath **** #endif
1631:c:\gcc for renesas rx 8.3.0.202004-gnurx-elf\rx-elf\rx-elf\rx-elf\include\c++\8.3.0.202004-gnurx\cmath **** 
1632:c:\gcc for renesas rx 8.3.0.202004-gnurx-elf\rx-elf\rx-elf\rx-elf\include\c++\8.3.0.202004-gnurx\cmath **** #ifndef __CORRECT_ISO_CPP11_MATH_H_PROTO_INT
1633:c:\gcc for renesas rx 8.3.0.202004-gnurx-elf\rx-elf\rx-elf\rx-elf\include\c++\8.3.0.202004-gnurx\cmath ****   template<typename _Tp>
1634:c:\gcc for renesas rx 8.3.0.202004-gnurx-elf\rx-elf\rx-elf\rx-elf\include\c++\8.3.0.202004-gnurx\cmath ****     constexpr typename __gnu_cxx::__enable_if<__is_integer<_Tp>::__value, 
1635:c:\gcc for renesas rx 8.3.0.202004-gnurx-elf\rx-elf\rx-elf\rx-elf\include\c++\8.3.0.202004-gnurx\cmath ****                                               long>::__type
1636:c:\gcc for renesas rx 8.3.0.202004-gnurx-elf\rx-elf\rx-elf\rx-elf\include\c++\8.3.0.202004-gnurx\cmath ****     lround(_Tp __x)
1637:c:\gcc for renesas rx 8.3.0.202004-gnurx-elf\rx-elf\rx-elf\rx-elf\include\c++\8.3.0.202004-gnurx\cmath ****     { return __builtin_lround(__x); }
1638:c:\gcc for renesas rx 8.3.0.202004-gnurx-elf\rx-elf\rx-elf\rx-elf\include\c++\8.3.0.202004-gnurx\cmath **** #endif
1639:c:\gcc for renesas rx 8.3.0.202004-gnurx-elf\rx-elf\rx-elf\rx-elf\include\c++\8.3.0.202004-gnurx\cmath **** 
1640:c:\gcc for renesas rx 8.3.0.202004-gnurx-elf\rx-elf\rx-elf\rx-elf\include\c++\8.3.0.202004-gnurx\cmath **** #ifndef __CORRECT_ISO_CPP11_MATH_H_PROTO_FP
1641:c:\gcc for renesas rx 8.3.0.202004-gnurx-elf\rx-elf\rx-elf\rx-elf\include\c++\8.3.0.202004-gnurx\cmath ****   constexpr float
1642:c:\gcc for renesas rx 8.3.0.202004-gnurx-elf\rx-elf\rx-elf\rx-elf\include\c++\8.3.0.202004-gnurx\cmath ****   nearbyint(float __x)
1643:c:\gcc for renesas rx 8.3.0.202004-gnurx-elf\rx-elf\rx-elf\rx-elf\include\c++\8.3.0.202004-gnurx\cmath ****   { return __builtin_nearbyintf(__x); }
1644:c:\gcc for renesas rx 8.3.0.202004-gnurx-elf\rx-elf\rx-elf\rx-elf\include\c++\8.3.0.202004-gnurx\cmath **** 
1645:c:\gcc for renesas rx 8.3.0.202004-gnurx-elf\rx-elf\rx-elf\rx-elf\include\c++\8.3.0.202004-gnurx\cmath ****   constexpr long double
1646:c:\gcc for renesas rx 8.3.0.202004-gnurx-elf\rx-elf\rx-elf\rx-elf\include\c++\8.3.0.202004-gnurx\cmath ****   nearbyint(long double __x)
1647:c:\gcc for renesas rx 8.3.0.202004-gnurx-elf\rx-elf\rx-elf\rx-elf\include\c++\8.3.0.202004-gnurx\cmath ****   { return __builtin_nearbyintl(__x); }
1648:c:\gcc for renesas rx 8.3.0.202004-gnurx-elf\rx-elf\rx-elf\rx-elf\include\c++\8.3.0.202004-gnurx\cmath **** #endif
1649:c:\gcc for renesas rx 8.3.0.202004-gnurx-elf\rx-elf\rx-elf\rx-elf\include\c++\8.3.0.202004-gnurx\cmath **** 
1650:c:\gcc for renesas rx 8.3.0.202004-gnurx-elf\rx-elf\rx-elf\rx-elf\include\c++\8.3.0.202004-gnurx\cmath **** #ifndef __CORRECT_ISO_CPP11_MATH_H_PROTO_INT
1651:c:\gcc for renesas rx 8.3.0.202004-gnurx-elf\rx-elf\rx-elf\rx-elf\include\c++\8.3.0.202004-gnurx\cmath ****   template<typename _Tp>
1652:c:\gcc for renesas rx 8.3.0.202004-gnurx-elf\rx-elf\rx-elf\rx-elf\include\c++\8.3.0.202004-gnurx\cmath ****     constexpr typename __gnu_cxx::__enable_if<__is_integer<_Tp>::__value, 
1653:c:\gcc for renesas rx 8.3.0.202004-gnurx-elf\rx-elf\rx-elf\rx-elf\include\c++\8.3.0.202004-gnurx\cmath ****                                               double>::__type
1654:c:\gcc for renesas rx 8.3.0.202004-gnurx-elf\rx-elf\rx-elf\rx-elf\include\c++\8.3.0.202004-gnurx\cmath ****     nearbyint(_Tp __x)
1655:c:\gcc for renesas rx 8.3.0.202004-gnurx-elf\rx-elf\rx-elf\rx-elf\include\c++\8.3.0.202004-gnurx\cmath ****     { return __builtin_nearbyint(__x); }
1656:c:\gcc for renesas rx 8.3.0.202004-gnurx-elf\rx-elf\rx-elf\rx-elf\include\c++\8.3.0.202004-gnurx\cmath **** #endif
1657:c:\gcc for renesas rx 8.3.0.202004-gnurx-elf\rx-elf\rx-elf\rx-elf\include\c++\8.3.0.202004-gnurx\cmath **** 
1658:c:\gcc for renesas rx 8.3.0.202004-gnurx-elf\rx-elf\rx-elf\rx-elf\include\c++\8.3.0.202004-gnurx\cmath **** #ifndef __CORRECT_ISO_CPP11_MATH_H_PROTO_FP
1659:c:\gcc for renesas rx 8.3.0.202004-gnurx-elf\rx-elf\rx-elf\rx-elf\include\c++\8.3.0.202004-gnurx\cmath ****   constexpr float
1660:c:\gcc for renesas rx 8.3.0.202004-gnurx-elf\rx-elf\rx-elf\rx-elf\include\c++\8.3.0.202004-gnurx\cmath ****   nextafter(float __x, float __y)
1661:c:\gcc for renesas rx 8.3.0.202004-gnurx-elf\rx-elf\rx-elf\rx-elf\include\c++\8.3.0.202004-gnurx\cmath ****   { return __builtin_nextafterf(__x, __y); }
1662:c:\gcc for renesas rx 8.3.0.202004-gnurx-elf\rx-elf\rx-elf\rx-elf\include\c++\8.3.0.202004-gnurx\cmath **** 
1663:c:\gcc for renesas rx 8.3.0.202004-gnurx-elf\rx-elf\rx-elf\rx-elf\include\c++\8.3.0.202004-gnurx\cmath ****   constexpr long double
1664:c:\gcc for renesas rx 8.3.0.202004-gnurx-elf\rx-elf\rx-elf\rx-elf\include\c++\8.3.0.202004-gnurx\cmath ****   nextafter(long double __x, long double __y)
1665:c:\gcc for renesas rx 8.3.0.202004-gnurx-elf\rx-elf\rx-elf\rx-elf\include\c++\8.3.0.202004-gnurx\cmath ****   { return __builtin_nextafterl(__x, __y); }
1666:c:\gcc for renesas rx 8.3.0.202004-gnurx-elf\rx-elf\rx-elf\rx-elf\include\c++\8.3.0.202004-gnurx\cmath **** #endif
1667:c:\gcc for renesas rx 8.3.0.202004-gnurx-elf\rx-elf\rx-elf\rx-elf\include\c++\8.3.0.202004-gnurx\cmath **** 
1668:c:\gcc for renesas rx 8.3.0.202004-gnurx-elf\rx-elf\rx-elf\rx-elf\include\c++\8.3.0.202004-gnurx\cmath **** #ifndef __CORRECT_ISO_CPP11_MATH_H_PROTO_INT
1669:c:\gcc for renesas rx 8.3.0.202004-gnurx-elf\rx-elf\rx-elf\rx-elf\include\c++\8.3.0.202004-gnurx\cmath ****   template<typename _Tp, typename _Up>
1670:c:\gcc for renesas rx 8.3.0.202004-gnurx-elf\rx-elf\rx-elf\rx-elf\include\c++\8.3.0.202004-gnurx\cmath ****     constexpr typename __gnu_cxx::__promote_2<_Tp, _Up>::__type
1671:c:\gcc for renesas rx 8.3.0.202004-gnurx-elf\rx-elf\rx-elf\rx-elf\include\c++\8.3.0.202004-gnurx\cmath ****     nextafter(_Tp __x, _Up __y)
1672:c:\gcc for renesas rx 8.3.0.202004-gnurx-elf\rx-elf\rx-elf\rx-elf\include\c++\8.3.0.202004-gnurx\cmath ****     {
1673:c:\gcc for renesas rx 8.3.0.202004-gnurx-elf\rx-elf\rx-elf\rx-elf\include\c++\8.3.0.202004-gnurx\cmath ****       typedef typename __gnu_cxx::__promote_2<_Tp, _Up>::__type __type;
1674:c:\gcc for renesas rx 8.3.0.202004-gnurx-elf\rx-elf\rx-elf\rx-elf\include\c++\8.3.0.202004-gnurx\cmath ****       return nextafter(__type(__x), __type(__y));
1675:c:\gcc for renesas rx 8.3.0.202004-gnurx-elf\rx-elf\rx-elf\rx-elf\include\c++\8.3.0.202004-gnurx\cmath ****     }
1676:c:\gcc for renesas rx 8.3.0.202004-gnurx-elf\rx-elf\rx-elf\rx-elf\include\c++\8.3.0.202004-gnurx\cmath **** #endif
1677:c:\gcc for renesas rx 8.3.0.202004-gnurx-elf\rx-elf\rx-elf\rx-elf\include\c++\8.3.0.202004-gnurx\cmath **** 
1678:c:\gcc for renesas rx 8.3.0.202004-gnurx-elf\rx-elf\rx-elf\rx-elf\include\c++\8.3.0.202004-gnurx\cmath **** #ifndef __CORRECT_ISO_CPP11_MATH_H_PROTO_FP
1679:c:\gcc for renesas rx 8.3.0.202004-gnurx-elf\rx-elf\rx-elf\rx-elf\include\c++\8.3.0.202004-gnurx\cmath ****   constexpr float
1680:c:\gcc for renesas rx 8.3.0.202004-gnurx-elf\rx-elf\rx-elf\rx-elf\include\c++\8.3.0.202004-gnurx\cmath ****   nexttoward(float __x, long double __y)
1681:c:\gcc for renesas rx 8.3.0.202004-gnurx-elf\rx-elf\rx-elf\rx-elf\include\c++\8.3.0.202004-gnurx\cmath ****   { return __builtin_nexttowardf(__x, __y); }
1682:c:\gcc for renesas rx 8.3.0.202004-gnurx-elf\rx-elf\rx-elf\rx-elf\include\c++\8.3.0.202004-gnurx\cmath **** 
1683:c:\gcc for renesas rx 8.3.0.202004-gnurx-elf\rx-elf\rx-elf\rx-elf\include\c++\8.3.0.202004-gnurx\cmath ****   constexpr long double
1684:c:\gcc for renesas rx 8.3.0.202004-gnurx-elf\rx-elf\rx-elf\rx-elf\include\c++\8.3.0.202004-gnurx\cmath ****   nexttoward(long double __x, long double __y)
1685:c:\gcc for renesas rx 8.3.0.202004-gnurx-elf\rx-elf\rx-elf\rx-elf\include\c++\8.3.0.202004-gnurx\cmath ****   { return __builtin_nexttowardl(__x, __y); }
1686:c:\gcc for renesas rx 8.3.0.202004-gnurx-elf\rx-elf\rx-elf\rx-elf\include\c++\8.3.0.202004-gnurx\cmath **** #endif
1687:c:\gcc for renesas rx 8.3.0.202004-gnurx-elf\rx-elf\rx-elf\rx-elf\include\c++\8.3.0.202004-gnurx\cmath **** 
1688:c:\gcc for renesas rx 8.3.0.202004-gnurx-elf\rx-elf\rx-elf\rx-elf\include\c++\8.3.0.202004-gnurx\cmath **** #ifndef __CORRECT_ISO_CPP11_MATH_H_PROTO_INT
1689:c:\gcc for renesas rx 8.3.0.202004-gnurx-elf\rx-elf\rx-elf\rx-elf\include\c++\8.3.0.202004-gnurx\cmath ****   template<typename _Tp>
1690:c:\gcc for renesas rx 8.3.0.202004-gnurx-elf\rx-elf\rx-elf\rx-elf\include\c++\8.3.0.202004-gnurx\cmath ****     constexpr typename __gnu_cxx::__enable_if<__is_integer<_Tp>::__value, 
1691:c:\gcc for renesas rx 8.3.0.202004-gnurx-elf\rx-elf\rx-elf\rx-elf\include\c++\8.3.0.202004-gnurx\cmath ****                                               double>::__type
1692:c:\gcc for renesas rx 8.3.0.202004-gnurx-elf\rx-elf\rx-elf\rx-elf\include\c++\8.3.0.202004-gnurx\cmath ****     nexttoward(_Tp __x, long double __y)
1693:c:\gcc for renesas rx 8.3.0.202004-gnurx-elf\rx-elf\rx-elf\rx-elf\include\c++\8.3.0.202004-gnurx\cmath ****     { return __builtin_nexttoward(__x, __y); }
1694:c:\gcc for renesas rx 8.3.0.202004-gnurx-elf\rx-elf\rx-elf\rx-elf\include\c++\8.3.0.202004-gnurx\cmath **** #endif
1695:c:\gcc for renesas rx 8.3.0.202004-gnurx-elf\rx-elf\rx-elf\rx-elf\include\c++\8.3.0.202004-gnurx\cmath **** 
1696:c:\gcc for renesas rx 8.3.0.202004-gnurx-elf\rx-elf\rx-elf\rx-elf\include\c++\8.3.0.202004-gnurx\cmath **** #ifndef __CORRECT_ISO_CPP11_MATH_H_PROTO_FP
1697:c:\gcc for renesas rx 8.3.0.202004-gnurx-elf\rx-elf\rx-elf\rx-elf\include\c++\8.3.0.202004-gnurx\cmath ****   constexpr float
1698:c:\gcc for renesas rx 8.3.0.202004-gnurx-elf\rx-elf\rx-elf\rx-elf\include\c++\8.3.0.202004-gnurx\cmath ****   remainder(float __x, float __y)
1699:c:\gcc for renesas rx 8.3.0.202004-gnurx-elf\rx-elf\rx-elf\rx-elf\include\c++\8.3.0.202004-gnurx\cmath ****   { return __builtin_remainderf(__x, __y); }
1700:c:\gcc for renesas rx 8.3.0.202004-gnurx-elf\rx-elf\rx-elf\rx-elf\include\c++\8.3.0.202004-gnurx\cmath **** 
1701:c:\gcc for renesas rx 8.3.0.202004-gnurx-elf\rx-elf\rx-elf\rx-elf\include\c++\8.3.0.202004-gnurx\cmath ****   constexpr long double
1702:c:\gcc for renesas rx 8.3.0.202004-gnurx-elf\rx-elf\rx-elf\rx-elf\include\c++\8.3.0.202004-gnurx\cmath ****   remainder(long double __x, long double __y)
1703:c:\gcc for renesas rx 8.3.0.202004-gnurx-elf\rx-elf\rx-elf\rx-elf\include\c++\8.3.0.202004-gnurx\cmath ****   { return __builtin_remainderl(__x, __y); }
1704:c:\gcc for renesas rx 8.3.0.202004-gnurx-elf\rx-elf\rx-elf\rx-elf\include\c++\8.3.0.202004-gnurx\cmath **** #endif
1705:c:\gcc for renesas rx 8.3.0.202004-gnurx-elf\rx-elf\rx-elf\rx-elf\include\c++\8.3.0.202004-gnurx\cmath **** 
1706:c:\gcc for renesas rx 8.3.0.202004-gnurx-elf\rx-elf\rx-elf\rx-elf\include\c++\8.3.0.202004-gnurx\cmath **** #ifndef __CORRECT_ISO_CPP11_MATH_H_PROTO_INT
1707:c:\gcc for renesas rx 8.3.0.202004-gnurx-elf\rx-elf\rx-elf\rx-elf\include\c++\8.3.0.202004-gnurx\cmath ****   template<typename _Tp, typename _Up>
1708:c:\gcc for renesas rx 8.3.0.202004-gnurx-elf\rx-elf\rx-elf\rx-elf\include\c++\8.3.0.202004-gnurx\cmath ****     constexpr typename __gnu_cxx::__promote_2<_Tp, _Up>::__type
1709:c:\gcc for renesas rx 8.3.0.202004-gnurx-elf\rx-elf\rx-elf\rx-elf\include\c++\8.3.0.202004-gnurx\cmath ****     remainder(_Tp __x, _Up __y)
1710:c:\gcc for renesas rx 8.3.0.202004-gnurx-elf\rx-elf\rx-elf\rx-elf\include\c++\8.3.0.202004-gnurx\cmath ****     {
1711:c:\gcc for renesas rx 8.3.0.202004-gnurx-elf\rx-elf\rx-elf\rx-elf\include\c++\8.3.0.202004-gnurx\cmath ****       typedef typename __gnu_cxx::__promote_2<_Tp, _Up>::__type __type;
1712:c:\gcc for renesas rx 8.3.0.202004-gnurx-elf\rx-elf\rx-elf\rx-elf\include\c++\8.3.0.202004-gnurx\cmath ****       return remainder(__type(__x), __type(__y));
1713:c:\gcc for renesas rx 8.3.0.202004-gnurx-elf\rx-elf\rx-elf\rx-elf\include\c++\8.3.0.202004-gnurx\cmath ****     }
1714:c:\gcc for renesas rx 8.3.0.202004-gnurx-elf\rx-elf\rx-elf\rx-elf\include\c++\8.3.0.202004-gnurx\cmath **** #endif
1715:c:\gcc for renesas rx 8.3.0.202004-gnurx-elf\rx-elf\rx-elf\rx-elf\include\c++\8.3.0.202004-gnurx\cmath **** 
1716:c:\gcc for renesas rx 8.3.0.202004-gnurx-elf\rx-elf\rx-elf\rx-elf\include\c++\8.3.0.202004-gnurx\cmath **** #ifndef __CORRECT_ISO_CPP11_MATH_H_PROTO_FP
1717:c:\gcc for renesas rx 8.3.0.202004-gnurx-elf\rx-elf\rx-elf\rx-elf\include\c++\8.3.0.202004-gnurx\cmath ****   inline float
1718:c:\gcc for renesas rx 8.3.0.202004-gnurx-elf\rx-elf\rx-elf\rx-elf\include\c++\8.3.0.202004-gnurx\cmath ****   remquo(float __x, float __y, int* __pquo)
1719:c:\gcc for renesas rx 8.3.0.202004-gnurx-elf\rx-elf\rx-elf\rx-elf\include\c++\8.3.0.202004-gnurx\cmath ****   { return __builtin_remquof(__x, __y, __pquo); }
1720:c:\gcc for renesas rx 8.3.0.202004-gnurx-elf\rx-elf\rx-elf\rx-elf\include\c++\8.3.0.202004-gnurx\cmath **** 
1721:c:\gcc for renesas rx 8.3.0.202004-gnurx-elf\rx-elf\rx-elf\rx-elf\include\c++\8.3.0.202004-gnurx\cmath ****   inline long double
1722:c:\gcc for renesas rx 8.3.0.202004-gnurx-elf\rx-elf\rx-elf\rx-elf\include\c++\8.3.0.202004-gnurx\cmath ****   remquo(long double __x, long double __y, int* __pquo)
1723:c:\gcc for renesas rx 8.3.0.202004-gnurx-elf\rx-elf\rx-elf\rx-elf\include\c++\8.3.0.202004-gnurx\cmath ****   { return __builtin_remquol(__x, __y, __pquo); }
1724:c:\gcc for renesas rx 8.3.0.202004-gnurx-elf\rx-elf\rx-elf\rx-elf\include\c++\8.3.0.202004-gnurx\cmath **** #endif
1725:c:\gcc for renesas rx 8.3.0.202004-gnurx-elf\rx-elf\rx-elf\rx-elf\include\c++\8.3.0.202004-gnurx\cmath **** 
1726:c:\gcc for renesas rx 8.3.0.202004-gnurx-elf\rx-elf\rx-elf\rx-elf\include\c++\8.3.0.202004-gnurx\cmath **** #ifndef __CORRECT_ISO_CPP11_MATH_H_PROTO_INT
1727:c:\gcc for renesas rx 8.3.0.202004-gnurx-elf\rx-elf\rx-elf\rx-elf\include\c++\8.3.0.202004-gnurx\cmath ****   template<typename _Tp, typename _Up>
1728:c:\gcc for renesas rx 8.3.0.202004-gnurx-elf\rx-elf\rx-elf\rx-elf\include\c++\8.3.0.202004-gnurx\cmath ****     inline typename __gnu_cxx::__promote_2<_Tp, _Up>::__type
1729:c:\gcc for renesas rx 8.3.0.202004-gnurx-elf\rx-elf\rx-elf\rx-elf\include\c++\8.3.0.202004-gnurx\cmath ****     remquo(_Tp __x, _Up __y, int* __pquo)
1730:c:\gcc for renesas rx 8.3.0.202004-gnurx-elf\rx-elf\rx-elf\rx-elf\include\c++\8.3.0.202004-gnurx\cmath ****     {
1731:c:\gcc for renesas rx 8.3.0.202004-gnurx-elf\rx-elf\rx-elf\rx-elf\include\c++\8.3.0.202004-gnurx\cmath ****       typedef typename __gnu_cxx::__promote_2<_Tp, _Up>::__type __type;
1732:c:\gcc for renesas rx 8.3.0.202004-gnurx-elf\rx-elf\rx-elf\rx-elf\include\c++\8.3.0.202004-gnurx\cmath ****       return remquo(__type(__x), __type(__y), __pquo);
1733:c:\gcc for renesas rx 8.3.0.202004-gnurx-elf\rx-elf\rx-elf\rx-elf\include\c++\8.3.0.202004-gnurx\cmath ****     }
1734:c:\gcc for renesas rx 8.3.0.202004-gnurx-elf\rx-elf\rx-elf\rx-elf\include\c++\8.3.0.202004-gnurx\cmath **** #endif
1735:c:\gcc for renesas rx 8.3.0.202004-gnurx-elf\rx-elf\rx-elf\rx-elf\include\c++\8.3.0.202004-gnurx\cmath **** 
1736:c:\gcc for renesas rx 8.3.0.202004-gnurx-elf\rx-elf\rx-elf\rx-elf\include\c++\8.3.0.202004-gnurx\cmath **** #ifndef __CORRECT_ISO_CPP11_MATH_H_PROTO_FP
1737:c:\gcc for renesas rx 8.3.0.202004-gnurx-elf\rx-elf\rx-elf\rx-elf\include\c++\8.3.0.202004-gnurx\cmath ****   constexpr float
1738:c:\gcc for renesas rx 8.3.0.202004-gnurx-elf\rx-elf\rx-elf\rx-elf\include\c++\8.3.0.202004-gnurx\cmath ****   rint(float __x)
1739:c:\gcc for renesas rx 8.3.0.202004-gnurx-elf\rx-elf\rx-elf\rx-elf\include\c++\8.3.0.202004-gnurx\cmath ****   { return __builtin_rintf(__x); }
1740:c:\gcc for renesas rx 8.3.0.202004-gnurx-elf\rx-elf\rx-elf\rx-elf\include\c++\8.3.0.202004-gnurx\cmath **** 
1741:c:\gcc for renesas rx 8.3.0.202004-gnurx-elf\rx-elf\rx-elf\rx-elf\include\c++\8.3.0.202004-gnurx\cmath ****   constexpr long double
1742:c:\gcc for renesas rx 8.3.0.202004-gnurx-elf\rx-elf\rx-elf\rx-elf\include\c++\8.3.0.202004-gnurx\cmath ****   rint(long double __x)
1743:c:\gcc for renesas rx 8.3.0.202004-gnurx-elf\rx-elf\rx-elf\rx-elf\include\c++\8.3.0.202004-gnurx\cmath ****   { return __builtin_rintl(__x); }
1744:c:\gcc for renesas rx 8.3.0.202004-gnurx-elf\rx-elf\rx-elf\rx-elf\include\c++\8.3.0.202004-gnurx\cmath **** #endif
1745:c:\gcc for renesas rx 8.3.0.202004-gnurx-elf\rx-elf\rx-elf\rx-elf\include\c++\8.3.0.202004-gnurx\cmath **** 
1746:c:\gcc for renesas rx 8.3.0.202004-gnurx-elf\rx-elf\rx-elf\rx-elf\include\c++\8.3.0.202004-gnurx\cmath **** #ifndef __CORRECT_ISO_CPP11_MATH_H_PROTO_INT
1747:c:\gcc for renesas rx 8.3.0.202004-gnurx-elf\rx-elf\rx-elf\rx-elf\include\c++\8.3.0.202004-gnurx\cmath ****   template<typename _Tp>
1748:c:\gcc for renesas rx 8.3.0.202004-gnurx-elf\rx-elf\rx-elf\rx-elf\include\c++\8.3.0.202004-gnurx\cmath ****     constexpr typename __gnu_cxx::__enable_if<__is_integer<_Tp>::__value, 
1749:c:\gcc for renesas rx 8.3.0.202004-gnurx-elf\rx-elf\rx-elf\rx-elf\include\c++\8.3.0.202004-gnurx\cmath ****                                               double>::__type
1750:c:\gcc for renesas rx 8.3.0.202004-gnurx-elf\rx-elf\rx-elf\rx-elf\include\c++\8.3.0.202004-gnurx\cmath ****     rint(_Tp __x)
1751:c:\gcc for renesas rx 8.3.0.202004-gnurx-elf\rx-elf\rx-elf\rx-elf\include\c++\8.3.0.202004-gnurx\cmath ****     { return __builtin_rint(__x); }
1752:c:\gcc for renesas rx 8.3.0.202004-gnurx-elf\rx-elf\rx-elf\rx-elf\include\c++\8.3.0.202004-gnurx\cmath **** #endif
1753:c:\gcc for renesas rx 8.3.0.202004-gnurx-elf\rx-elf\rx-elf\rx-elf\include\c++\8.3.0.202004-gnurx\cmath **** 
1754:c:\gcc for renesas rx 8.3.0.202004-gnurx-elf\rx-elf\rx-elf\rx-elf\include\c++\8.3.0.202004-gnurx\cmath **** #ifndef __CORRECT_ISO_CPP11_MATH_H_PROTO_FP
1755:c:\gcc for renesas rx 8.3.0.202004-gnurx-elf\rx-elf\rx-elf\rx-elf\include\c++\8.3.0.202004-gnurx\cmath ****   constexpr float
1756:c:\gcc for renesas rx 8.3.0.202004-gnurx-elf\rx-elf\rx-elf\rx-elf\include\c++\8.3.0.202004-gnurx\cmath ****   round(float __x)
1757:c:\gcc for renesas rx 8.3.0.202004-gnurx-elf\rx-elf\rx-elf\rx-elf\include\c++\8.3.0.202004-gnurx\cmath ****   { return __builtin_roundf(__x); }
 1427                             		.loc 3 1757 5
 1428                             	.LBE771:
 1429                             	.LBE770:
 1430                             	.LBE769:
 338:../src/tensorflow/lite/kernels/kernel_util.cc ****   };
 1431                             		.loc 1 338 57 is_stmt 0
 1432 0069 66 01                   		mov.L	#0x0, r1
 1433                             	.LVL169:
 1434                             	.LBB774:
 1435                             	.LBB773:
 1436                             	.LBB772:
 1437                             		.loc 3 1757 28
 1438 006b FC 93 61                		fdiv	r6, r1
 1439                             	.LVL170:
 1440 006e A1 04                   		mov.L	r4, 16[r0]
 1441 0070 05 00 00 00             		bsr	_roundf
 1442                             	.LVL171:
 1443                             	.LBE772:
 1444                             	.LBE773:
 1445                             	.LBE774:
 338:../src/tensorflow/lite/kernels/kernel_util.cc ****   };
 1446                             		.loc 1 338 25
 1447 0074 FC 97 11                		ftoi	r1, r1
 338:../src/tensorflow/lite/kernels/kernel_util.cc ****   };
 1448                             		.loc 1 338 68
 1449 0077 4B 1A                   		add	r1, r10
 1450                             	.LVL172:
 1451                             	.LBE768:
 1452                             	.LBE767:
 342:../src/tensorflow/lite/kernels/kernel_util.cc ****     *act_max = qmax;
 1453                             		.loc 1 342 14
 1454 0079 FC 13 CA                		max	r12, r10
 1455 007c A9 04                   		mov.L	16[r0], r4
 1456 007e E3 4A                   		mov.L	r10, [r4]
 343:../src/tensorflow/lite/kernels/kernel_util.cc ****   } else if (activation == kTfLiteActRelu6) {
 1457                             		.loc 1 343 5 is_stmt 1
 343:../src/tensorflow/lite/kernels/kernel_util.cc ****   } else if (activation == kTfLiteActRelu6) {
 1458                             		.loc 1 343 14 is_stmt 0
 1459 0080 E3 7B                   		mov.L	r11, [r7]
 1460                             	.LVL173:
 1461                             	.LBE813:
 1462                             	.LBE818:
 379:../src/tensorflow/lite/kernels/kernel_util.cc **** }
 1463                             		.loc 1 379 3 is_stmt 1
 379:../src/tensorflow/lite/kernels/kernel_util.cc **** }
 1464                             		.loc 1 379 10 is_stmt 0
 1465 0082 66 01                   		mov.L	#0, r1
 1466 0084 2E B1                   		bra	.L105
 1467                             	.LVL174:
 1468                             	.L112:
 366:../src/tensorflow/lite/kernels/kernel_util.cc ****   } else if (output->type == kTfLiteInt8) {
 1469                             		.loc 1 366 10
 1470 0086 75 4B FF                		mov.L	#0xff, r11
 365:../src/tensorflow/lite/kernels/kernel_util.cc ****     qmax = std::numeric_limits<uint8_t>::max();
 1471                             		.loc 1 365 10
 1472 0089 66 0C                   		mov.L	#0, r12
 1473 008b 2E 92                   		bra	.L106
 1474                             	.LVL175:
 1475                             	.L119:
 1476                             	.LBB819:
 1477                             	.LBB814:
 345:../src/tensorflow/lite/kernels/kernel_util.cc ****     *act_max = std::min(qmax, quantize(6.0));
 1478                             		.loc 1 345 5 is_stmt 1
 1479                             	.LBB775:
 1480                             	.LBB776:
 338:../src/tensorflow/lite/kernels/kernel_util.cc ****   };
 1481                             		.loc 1 338 5
 1482                             	.LBB777:
 1483                             	.LBB778:
 1484                             	.LBB779:
 1485                             		.loc 3 1757 5
 1486                             	.LBE779:
 1487                             	.LBE778:
 1488                             	.LBE777:
 338:../src/tensorflow/lite/kernels/kernel_util.cc ****   };
 1489                             		.loc 1 338 57 is_stmt 0
 1490 008d 66 01                   		mov.L	#0x0, r1
 1491                             	.LVL176:
 1492                             	.LBB782:
 1493                             	.LBB781:
 1494                             	.LBB780:
 1495                             		.loc 3 1757 28
 1496 008f FC 93 61                		fdiv	r6, r1
 1497                             	.LVL177:
 1498 0092 A1 04                   		mov.L	r4, 16[r0]
 1499 0094 05 00 00 00             		bsr	_roundf
 1500                             	.LVL178:
 1501                             	.LBE780:
 1502                             	.LBE781:
 1503                             	.LBE782:
 338:../src/tensorflow/lite/kernels/kernel_util.cc ****   };
 1504                             		.loc 1 338 25
 1505 0098 FC 97 15                		ftoi	r1, r5
 1506                             	.LBE776:
 1507                             	.LBE775:
 1508                             	.LBB783:
 1509                             	.LBB784:
 1510                             	.LBB785:
 1511                             	.LBB786:
 1512                             	.LBB787:
 1513                             		.loc 3 1757 28
 1514 009b FB 12 00 00 C0 40       		mov.L	#0x40c00000, r1
 1515                             	.LVL179:
 1516                             		.balign 8,3,2
 1517                             	.L116:
 1518                             	.LBE787:
 1519                             	.LBE786:
 1520                             	.LBE785:
 1521                             	.LBE784:
 1522                             	.LBE783:
 1523                             	.LBB788:
 1524                             	.LBB789:
 1525                             	.LBB790:
 1526                             	.LBB791:
 1527                             	.LBB792:
 1528 00a1 FC 93 61                		fdiv	r6, r1
 1529                             	.LBE792:
 1530                             	.LBE791:
 1531                             	.LBE790:
 1532                             	.LBE789:
 1533                             	.LBE788:
 1534                             	.LBB801:
 1535                             	.LBB802:
 338:../src/tensorflow/lite/kernels/kernel_util.cc ****   };
 1536                             		.loc 1 338 68
 1537 00a4 4B A5                   		add	r10, r5
 1538                             	.LBE802:
 1539                             	.LBE801:
 348:../src/tensorflow/lite/kernels/kernel_util.cc ****     *act_max = std::min(qmax, quantize(1.0));
 1540                             		.loc 1 348 14
 1541 00a6 FC 13 5C                		max	r5, r12
 1542                             	.LVL180:
 1543 00a9 A9 04                   		mov.L	16[r0], r4
 1544 00ab E3 4C                   		mov.L	r12, [r4]
 349:../src/tensorflow/lite/kernels/kernel_util.cc ****   } else {
 1545                             		.loc 1 349 5 is_stmt 1
 1546                             	.LVL181:
 1547                             	.LBB810:
 1548                             	.LBB799:
 338:../src/tensorflow/lite/kernels/kernel_util.cc ****   };
 1549                             		.loc 1 338 5
 1550                             	.LBB797:
 1551                             	.LBB795:
 1552                             	.LBB793:
 1553                             		.loc 3 1757 5
 1554                             		.loc 3 1757 28 is_stmt 0
 1555 00ad 05 00 00 00             		bsr	_roundf
 1556                             	.LVL182:
 1557                             	.LBE793:
 1558                             	.LBE795:
 1559                             	.LBE797:
 338:../src/tensorflow/lite/kernels/kernel_util.cc ****   };
 1560                             		.loc 1 338 25
 1561 00b1 FC 97 11                		ftoi	r1, r1
 338:../src/tensorflow/lite/kernels/kernel_util.cc ****   };
 1562                             		.loc 1 338 68
 1563 00b4 4B 1A                   		add	r1, r10
 1564                             	.LVL183:
 1565                             	.LBE799:
 1566                             	.LBE810:
 349:../src/tensorflow/lite/kernels/kernel_util.cc ****   } else {
 1567                             		.loc 1 349 14
 1568 00b6 FC 17 AB                		min	r10, r11
 1569                             	.LVL184:
 1570 00b9 E3 7B                   		mov.L	r11, [r7]
 1571                             	.LVL185:
 1572                             	.LBE814:
 1573                             	.LBE819:
 379:../src/tensorflow/lite/kernels/kernel_util.cc **** }
 1574                             		.loc 1 379 3 is_stmt 1
 379:../src/tensorflow/lite/kernels/kernel_util.cc **** }
 1575                             		.loc 1 379 10 is_stmt 0
 1576 00bb 66 01                   		mov.L	#0, r1
 1577 00bd 38 78 FF                		bra	.L105
 1578                             	.LVL186:
 1579                             	.L120:
 1580                             	.LBB820:
 1581                             	.LBB815:
 348:../src/tensorflow/lite/kernels/kernel_util.cc ****     *act_max = std::min(qmax, quantize(1.0));
 1582                             		.loc 1 348 5 is_stmt 1
 1583                             	.LBB811:
 1584                             	.LBB809:
 338:../src/tensorflow/lite/kernels/kernel_util.cc ****   };
 1585                             		.loc 1 338 5
 1586                             	.LBB803:
 1587                             	.LBB804:
 1588                             	.LBB805:
 1589                             		.loc 3 1757 5
 1590                             	.LBE805:
 1591                             	.LBE804:
 1592                             	.LBE803:
 338:../src/tensorflow/lite/kernels/kernel_util.cc ****   };
 1593                             		.loc 1 338 57 is_stmt 0
 1594 00c0 FB 12 00 00 80 BF       		mov.L	#0xbf800000, r1
 1595                             	.LVL187:
 1596                             	.LBB808:
 1597                             	.LBB807:
 1598                             	.LBB806:
 1599                             		.loc 3 1757 28
 1600 00c6 FC 93 61                		fdiv	r6, r1
 1601                             	.LVL188:
 1602 00c9 A1 04                   		mov.L	r4, 16[r0]
 1603 00cb 05 00 00 00             		bsr	_roundf
 1604                             	.LVL189:
 1605                             	.LBE806:
 1606                             	.LBE807:
 1607                             	.LBE808:
 338:../src/tensorflow/lite/kernels/kernel_util.cc ****   };
 1608                             		.loc 1 338 25
 1609 00cf FC 97 15                		ftoi	r1, r5
 1610                             	.LBE809:
 1611                             	.LBE811:
 1612                             	.LBB812:
 1613                             	.LBB800:
 1614                             	.LBB798:
 1615                             	.LBB796:
 1616                             	.LBB794:
 1617                             		.loc 3 1757 28
 1618 00d2 FB 12 00 00 80 3F       		mov.L	#0x3f800000, r1
 1619 00d8 2E C9                   		bra	.L116
 1620                             	.LBE794:
 1621                             	.LBE796:
 1622                             	.LBE798:
 1623                             	.LBE800:
 1624                             	.LBE812:
 1625                             	.LBE815:
 1626                             	.LBE820:
 1627                             	.LFE3315:
 1629 00da 74 10 01 00 00 00       		.section	.text._ZN6tflite37PopulateConvolutionQuantizationParamsEP13TfLiteContextPK12TfLiteTensorS
 1630                             		.global	__ZN6tflite37PopulateConvolutionQuantizationParamsEP13TfLiteContextPK12TfLiteTensorS4_S4_P
 1632                             	__ZN6tflite37PopulateConvolutionQuantizationParamsEP13TfLiteContextPK12TfLiteTensorS4_S4_PS2_RK21Tf
 1633                             	.LFB3310:
 208:../src/tensorflow/lite/kernels/kernel_util.cc ****   TF_LITE_ENSURE_EQ(context, input->quantization.type,
 1634                             		.loc 1 208 80 is_stmt 1
 1635                             	.LVL190:
 1636 0000 6E 6D                   		pushm	r6-r13
 1637                             	.LCFI9:
 1638 0002 71 00 8C                		add	#-116, r0
 1639                             	.LCFI10:
 208:../src/tensorflow/lite/kernels/kernel_util.cc ****   TF_LITE_ENSURE_EQ(context, input->quantization.type,
 1640                             		.loc 1 208 80 is_stmt 0
 1641 0005 75 47 98                		mov.L	#0x98, r7
 1642 0008 4B 07                   		add	r0, r7
 209:../src/tensorflow/lite/kernels/kernel_util.cc ****                     kTfLiteAffineQuantization);
 1643                             		.loc 1 209 3
 1644 000a ED 28 0C                		mov.L	48[r2], r8
 208:../src/tensorflow/lite/kernels/kernel_util.cc ****   TF_LITE_ENSURE_EQ(context, input->quantization.type,
 1645                             		.loc 1 208 80
 1646 000d EF 16                   		mov.L	r1, r6
 1647 000f A3 0C                   		mov.L	r4, 52[r0]
 209:../src/tensorflow/lite/kernels/kernel_util.cc ****                     kTfLiteAffineQuantization);
 1648                             		.loc 1 209 3 is_stmt 1
 209:../src/tensorflow/lite/kernels/kernel_util.cc ****                     kTfLiteAffineQuantization);
 1649                             		.loc 1 209 3
 208:../src/tensorflow/lite/kernels/kernel_util.cc ****   TF_LITE_ENSURE_EQ(context, input->quantization.type,
 1650                             		.loc 1 208 80 is_stmt 0
 1651 0011 E4 70 09                		mov.L	[r7], 36[r0]
 1652 0014 E5 70 01 0A             		mov.L	4[r7], 40[r0]
 1653 0018 E5 70 02 0E             		mov.L	8[r7], 56[r0]
 1654 001c E5 70 03 0F             		mov.L	12[r7], 60[r0]
 1655 0020 E5 70 04 0B             		mov.L	16[r7], 44[r0]
 1656 0024 E5 70 05 0C             		mov.L	20[r7], 48[r0]
 1657 0028 ED 7C 06                		mov.L	24[r7], r12
 1658 002b ED 79 07                		mov.L	28[r7], r9
 1659 002e AA 77                   		mov.L	32[r7], r7
 209:../src/tensorflow/lite/kernels/kernel_util.cc ****                     kTfLiteAffineQuantization);
 1660                             		.loc 1 209 3
 1661 0030 61 18                   		cmp	#1, r8
 1662 0032 20 31                   		beq	.L122
 209:../src/tensorflow/lite/kernels/kernel_util.cc ****                     kTfLiteAffineQuantization);
 1663                             		.loc 1 209 3 is_stmt 1 discriminator 1
 209:../src/tensorflow/lite/kernels/kernel_util.cc ****                     kTfLiteAffineQuantization);
 1664                             		.loc 1 209 3 discriminator 1
 1665 0034 A9 1F                   		mov.L	20[r1], r7
 1666 0036 E7 08 05                		mov.L	r8, 20[r0]
 1667 0039 3E 06 01                		mov.L	#1, 24[r0]
 1668 003c F9 02 04 00 00 00 00    		mov.L	#.LC7, 16[r0]
 1669 0043 F9 02 03 1A 00 00 00    		mov.L	#.LC8, 12[r0]
 1670 004a 3E 02 D2                		mov.L	#0xd2, 8[r0]
 1671 004d F9 02 01 22 00 00 00    		mov.L	#.LC3, 4[r0]
 1672 0054 66 18                   		mov.L	#1, r8
 1673 0056 F8 02 33 00 00 00       		mov.L	#.LC9, [r0]
 1674 005c 7F 17                   		jsr	r7
 1675                             	.LVL191:
 209:../src/tensorflow/lite/kernels/kernel_util.cc ****                     kTfLiteAffineQuantization);
 1676                             		.loc 1 209 3 discriminator 1
 1677                             		.balign 8,3,1
 1678                             	.L121:
 276:../src/tensorflow/lite/kernels/kernel_util.cc **** 
 1679                             		.loc 1 276 1 is_stmt 0
 1680 005e EF 81                   		mov.L	r8, r1
 1681 0060 3F 6D 25                		rtsd	#148, r6-r13
 1682                             	.LVL192:
 1683                             	.L122:
 1684 0063 EF 3B                   		mov.L	r3, r11
 1685                             	.LVL193:
 1686                             	.LBB848:
 1687                             	.LBB849:
 211:../src/tensorflow/lite/kernels/kernel_util.cc ****                     kTfLiteAffineQuantization);
 1688                             		.loc 1 211 3 is_stmt 1
 211:../src/tensorflow/lite/kernels/kernel_util.cc ****                     kTfLiteAffineQuantization);
 1689                             		.loc 1 211 3
 1690 0065 AB 35                   		mov.L	48[r3], r5
 1691 0067 61 15                   		cmp	#1, r5
 1692 0069 20 2E                   		beq	.L124
 211:../src/tensorflow/lite/kernels/kernel_util.cc ****                     kTfLiteAffineQuantization);
 1693                             		.loc 1 211 3
 211:../src/tensorflow/lite/kernels/kernel_util.cc ****                     kTfLiteAffineQuantization);
 1694                             		.loc 1 211 3
 1695 006b A9 1F                   		mov.L	20[r1], r7
 1696                             	.LVL194:
 1697 006d E7 08 06                		mov.L	r8, 24[r0]
 1698                             	.LVL195:
 1699 0070 A1 0D                   		mov.L	r5, 20[r0]
 1700 0072 F9 02 04 00 00 00 00    		mov.L	#.LC7, 16[r0]
 1701 0079 F9 02 03 4D 00 00 00    		mov.L	#.LC10, 12[r0]
 1702 0080 3E 02 D4                		mov.L	#0xd4, 8[r0]
 1703 0083 F9 02 01 22 00 00 00    		mov.L	#.LC3, 4[r0]
 1704 008a F8 02 33 00 00 00       		mov.L	#.LC9, [r0]
 1705 0090 7F 17                   		jsr	r7
 1706                             	.LVL196:
 211:../src/tensorflow/lite/kernels/kernel_util.cc ****                     kTfLiteAffineQuantization);
 1707                             		.loc 1 211 3
 1708                             	.LBE849:
 1709                             	.LBE848:
 276:../src/tensorflow/lite/kernels/kernel_util.cc **** 
 1710                             		.loc 1 276 1 is_stmt 0
 1711 0092 EF 81                   		mov.L	r8, r1
 1712 0094 3F 6D 25                		rtsd	#148, r6-r13
 1713                             	.LVL197:
 1714                             	.L124:
 1715                             	.LBB901:
 1716                             	.LBB899:
 220:../src/tensorflow/lite/kernels/kernel_util.cc ****       reinterpret_cast<TfLiteAffineQuantization*>(filter->quantization.params);
 1717                             		.loc 1 220 3 is_stmt 1
 221:../src/tensorflow/lite/kernels/kernel_util.cc ****   TF_LITE_ENSURE(context, affine_quantization);
 1718                             		.loc 1 221 72 is_stmt 0
 1719 0097 AB 3B                   		mov.L	52[r3], r3
 1720                             	.LVL198:
 222:../src/tensorflow/lite/kernels/kernel_util.cc ****   TF_LITE_ENSURE(context, affine_quantization->scale);
 1721                             		.loc 1 222 3 is_stmt 1
 222:../src/tensorflow/lite/kernels/kernel_util.cc ****   TF_LITE_ENSURE(context, affine_quantization->scale);
 1722                             		.loc 1 222 3
 1723 0099 61 03                   		cmp	#0, r3
 1724 009b 3A 8F 01                		beq	.L176
 223:../src/tensorflow/lite/kernels/kernel_util.cc ****   const bool is_per_channel = affine_quantization->scale->size > 1;
 1725                             		.loc 1 223 3
 223:../src/tensorflow/lite/kernels/kernel_util.cc ****   const bool is_per_channel = affine_quantization->scale->size > 1;
 1726                             		.loc 1 223 3
 1727 009e EC 34                   		mov.L	[r3], r4
 1728                             	.LVL199:
 1729 00a0 61 04                   		cmp	#0, r4
 1730 00a2 3A 3C 01                		beq	.L177
 1731 00a5 EF 2A                   		mov.L	r2, r10
 224:../src/tensorflow/lite/kernels/kernel_util.cc ****   if (is_per_channel) {
 1732                             		.loc 1 224 3
 224:../src/tensorflow/lite/kernels/kernel_util.cc ****   if (is_per_channel) {
 1733                             		.loc 1 224 59 is_stmt 0
 1734 00a7 EC 42                   		mov.L	[r4], r2
 1735                             	.LVL200:
 225:../src/tensorflow/lite/kernels/kernel_util.cc ****     //  Currently only Int8/Int16 is supported for per channel quantization.
 1736                             		.loc 1 225 3 is_stmt 1
 1737 00a9 61 12                   		cmp	#1, r2
 1738 00ab 2B 63                   		ble	.L127
 227:../src/tensorflow/lite/kernels/kernel_util.cc ****                    input->type == kTfLiteInt8 || input->type == kTfLiteInt16);
 1739                             		.loc 1 227 5
 227:../src/tensorflow/lite/kernels/kernel_util.cc ****                    input->type == kTfLiteInt8 || input->type == kTfLiteInt16);
 1740                             		.loc 1 227 5
 1741 00ad EC AD                   		mov.L	[r10], r13
 1742 00af 61 9D                   		cmp	#9, r13
 1743 00b1 20 23                   		beq	.L128
 1744 00b3 61 7D                   		cmp	#7, r13
 1745 00b5 20 1F                   		beq	.L128
 227:../src/tensorflow/lite/kernels/kernel_util.cc ****                    input->type == kTfLiteInt8 || input->type == kTfLiteInt16);
 1746                             		.loc 1 227 5
 227:../src/tensorflow/lite/kernels/kernel_util.cc ****                    input->type == kTfLiteInt8 || input->type == kTfLiteInt16);
 1747                             		.loc 1 227 5
 1748 00b7 A9 1F                   		mov.L	20[r1], r7
 1749                             	.LVL201:
 1750 00b9 F9 02 03 96 00 00 00    		mov.L	#.LC13, 12[r0]
 1751                             	.LVL202:
 1752 00c0 3E 02 E4                		mov.L	#0xe4, 8[r0]
 1753 00c3 F9 02 01 22 00 00 00    		mov.L	#.LC3, 4[r0]
 1754 00ca F8 02 50 00 00 00       		mov.L	#.LC4, [r0]
 1755 00d0 7F 17                   		jsr	r7
 1756                             	.LVL203:
 227:../src/tensorflow/lite/kernels/kernel_util.cc ****                    input->type == kTfLiteInt8 || input->type == kTfLiteInt16);
 1757                             		.loc 1 227 5
 1758 00d2 2E 8C                   		bra	.L121
 1759                             	.LVL204:
 1760                             	.L128:
 229:../src/tensorflow/lite/kernels/kernel_util.cc ****     TF_LITE_ENSURE_EQ(context, affine_quantization->scale->size, num_channels);
 1761                             		.loc 1 229 5
 229:../src/tensorflow/lite/kernels/kernel_util.cc ****     TF_LITE_ENSURE_EQ(context, affine_quantization->scale->size, num_channels);
 1762                             		.loc 1 229 5
 1763 00d4 EC B1                   		mov.L	[r11], r1
 1764                             	.LVL205:
 1765 00d6 61 91                   		cmp	#9, r1
 1766 00d8 3B 24 01                		bne	.L178
 230:../src/tensorflow/lite/kernels/kernel_util.cc ****     TF_LITE_ENSURE_EQ(
 1767                             		.loc 1 230 5
 230:../src/tensorflow/lite/kernels/kernel_util.cc ****     TF_LITE_ENSURE_EQ(
 1768                             		.loc 1 230 5
 1769 00db 47 27                   		cmp	r2, r7
 1770 00dd 3A 6B 01                		beq	.L130
 230:../src/tensorflow/lite/kernels/kernel_util.cc ****     TF_LITE_ENSURE_EQ(
 1771                             		.loc 1 230 5
 230:../src/tensorflow/lite/kernels/kernel_util.cc ****     TF_LITE_ENSURE_EQ(
 1772                             		.loc 1 230 5
 1773 00e0 ED 6A 05                		mov.L	20[r6], r10
 1774                             	.LVL206:
 1775 00e3 A1 87                   		mov.L	r7, 24[r0]
 1776                             	.LVL207:
 1777 00e5 A1 0A                   		mov.L	r2, 20[r0]
 1778 00e7 F9 02 04 E9 00 00 00    		mov.L	#.LC16, 16[r0]
 1779 00ee F9 02 03 F6 00 00 00    		mov.L	#.LC17, 12[r0]
 1780 00f5 3E 02 E6                		mov.L	#0xe6, 8[r0]
 1781                             	.LVL208:
 1782                             	.L175:
 231:../src/tensorflow/lite/kernels/kernel_util.cc ****         context, num_channels,
 1783                             		.loc 1 231 5 is_stmt 0
 1784 00f8 F9 02 01 22 00 00 00    		mov.L	#.LC3, 4[r0]
 1785 00ff EF 61                   		mov.L	r6, r1
 1786 0101 F8 02 33 00 00 00       		mov.L	#.LC9, [r0]
 1787 0107 EF 58                   		mov.L	r5, r8
 1788 0109 7F 1A                   		jsr	r10
 1789                             	.LVL209:
 231:../src/tensorflow/lite/kernels/kernel_util.cc ****         context, num_channels,
 1790                             		.loc 1 231 5 is_stmt 1
 1791 010b 38 53 FF                		bra	.L121
 1792                             	.LVL210:
 1793                             	.L127:
 237:../src/tensorflow/lite/kernels/kernel_util.cc ****   const float output_scale = output->params.scale;
 1794                             		.loc 1 237 3
 237:../src/tensorflow/lite/kernels/kernel_util.cc ****   const float output_scale = output->params.scale;
 1795                             		.loc 1 237 15 is_stmt 0
 1796 010e ED AD 03                		mov.L	12[r10], r13
 1797                             	.LVL211:
 238:../src/tensorflow/lite/kernels/kernel_util.cc ****   const float* filter_scales = affine_quantization->scale->data;
 1798                             		.loc 1 238 3 is_stmt 1
 238:../src/tensorflow/lite/kernels/kernel_util.cc ****   const float* filter_scales = affine_quantization->scale->data;
 1799                             		.loc 1 238 15 is_stmt 0
 1800 0111 AA 0B                   		mov.L	36[r0], r3
 1801                             	.LVL212:
 1802 0113 ED 3E 03                		mov.L	12[r3], r14
 1803                             	.LVL213:
 239:../src/tensorflow/lite/kernels/kernel_util.cc ****   for (int i = 0; i < num_channels; ++i) {
 1804                             		.loc 1 239 3 is_stmt 1
 240:../src/tensorflow/lite/kernels/kernel_util.cc ****     // If per-tensor quantization parameter is specified, broadcast it along the
 1805                             		.loc 1 240 3
 1806                             	.LBB850:
 240:../src/tensorflow/lite/kernels/kernel_util.cc ****     // If per-tensor quantization parameter is specified, broadcast it along the
 1807                             		.loc 1 240 21 is_stmt 0
 1808 0116 66 08                   		mov.L	#0, r8
 1809 0118 61 07                   		cmp	#0, r7
 1810 011a 2B 3F                   		ble	.L137
 1811 011c A4 05                   		mov.L	r5, 64[r0]
 1812 011e A4 09                   		mov.L	r1, 68[r0]
 1813 0120 EF 86                   		mov.L	r8, r6
 1814 0122 E7 0A 12                		mov.L	r10, 72[r0]
 1815 0125 EF 4A                   		mov.L	r4, r10
 1816                             	.LVL214:
 1817 0127 EF 78                   		mov.L	r7, r8
 1818 0129 EF E7                   		mov.L	r14, r7
 1819                             	.LVL215:
 1820                             		.balign 8,3,1
 1821                             	.L132:
 1822                             	.LBB851:
 243:../src/tensorflow/lite/kernels/kernel_util.cc ****     const double filter_scale = static_cast<double>(scale);
 1823                             		.loc 1 243 5 is_stmt 1
 244:../src/tensorflow/lite/kernels/kernel_util.cc ****     const double effective_output_scale = static_cast<double>(input_scale) *
 1824                             		.loc 1 244 5
 245:../src/tensorflow/lite/kernels/kernel_util.cc ****                                           filter_scale /
 1825                             		.loc 1 245 5
 248:../src/tensorflow/lite/kernels/kernel_util.cc ****     int channel_shift;
 1826                             		.loc 1 248 5
 249:../src/tensorflow/lite/kernels/kernel_util.cc ****     QuantizeMultiplier(effective_output_scale, &significand, &channel_shift);
 1827                             		.loc 1 249 5
 250:../src/tensorflow/lite/kernels/kernel_util.cc ****     per_channel_multiplier[i] = significand;
 1828                             		.loc 1 250 5
 245:../src/tensorflow/lite/kernels/kernel_util.cc ****                                           filter_scale /
 1829                             		.loc 1 245 76 is_stmt 0
 1830 012b ED A1 01                		mov.L	4[r10], r1
 250:../src/tensorflow/lite/kernels/kernel_util.cc ****     per_channel_multiplier[i] = significand;
 1831                             		.loc 1 250 23
 1832 012e 75 43 1C                		mov.L	#28, r3
 1833 0131 4B 03                   		add	r0, r3
 1834 0133 75 42 20                		mov.L	#32, r2
 1835 0136 4B 02                   		add	r0, r2
 245:../src/tensorflow/lite/kernels/kernel_util.cc ****                                           filter_scale /
 1836                             		.loc 1 245 76
 1837 0138 FC 8F D1                		fmul	r13, r1
 250:../src/tensorflow/lite/kernels/kernel_util.cc ****     per_channel_multiplier[i] = significand;
 1838                             		.loc 1 250 23
 1839 013b FC 93 71                		fdiv	r7, r1
 1840                             	.LVL216:
 1841 013e 05 00 00 00             		bsr	__ZN6tflite18QuantizeMultiplierEdPlPi
 1842                             	.LVL217:
 251:../src/tensorflow/lite/kernels/kernel_util.cc ****     per_channel_shift[i] = channel_shift;
 1843                             		.loc 1 251 5 is_stmt 1
 251:../src/tensorflow/lite/kernels/kernel_util.cc ****     per_channel_shift[i] = channel_shift;
 1844                             		.loc 1 251 31 is_stmt 0
 1845 0142 AA 04                   		mov.L	32[r0], r4
 1846 0144 FE 26 C4                		mov.L	r4, [r6,r12]
 252:../src/tensorflow/lite/kernels/kernel_util.cc ****   }
 1847                             		.loc 1 252 5 is_stmt 1
 252:../src/tensorflow/lite/kernels/kernel_util.cc ****   }
 1848                             		.loc 1 252 26 is_stmt 0
 1849 0147 A9 8D                   		mov.L	28[r0], r5
 1850 0149 FE 26 95                		mov.L	r5, [r6,r9]
 1851                             	.LBE851:
 240:../src/tensorflow/lite/kernels/kernel_util.cc ****     // If per-tensor quantization parameter is specified, broadcast it along the
 1852                             		.loc 1 240 3
 1853 014c 62 16                   		add	#1, r6
 1854                             	.LVL218:
 240:../src/tensorflow/lite/kernels/kernel_util.cc ****     // If per-tensor quantization parameter is specified, broadcast it along the
 1855                             		.loc 1 240 21
 1856 014e 47 68                   		cmp	r6, r8
 1857 0150 2A DB                   		bgt	.L132
 1858                             	.LVL219:
 1859                             		.balign 8,3,1
 1860                             	.L173:
 1861 0152 AC 05                   		mov.L	64[r0], r5
 1862 0154 AC 0E                   		mov.L	68[r0], r6
 1863 0156 ED 0A 12                		mov.L	72[r0], r10
 1864                             	.LVL220:
 1865                             		.balign 8,3,1
 1866                             	.L137:
 1867                             	.LBE850:
 258:../src/tensorflow/lite/kernels/kernel_util.cc ****     // Check bias scale == input scale * filter scale.
 1868                             		.loc 1 258 3 is_stmt 1
 1869                             	.LBB853:
 258:../src/tensorflow/lite/kernels/kernel_util.cc ****     // Check bias scale == input scale * filter scale.
 1870                             		.loc 1 258 14 is_stmt 0
 1871 0159 EC A7                   		mov.L	[r10], r7
 258:../src/tensorflow/lite/kernels/kernel_util.cc ****     // Check bias scale == input scale * filter scale.
 1872                             		.loc 1 258 3
 1873 015b 61 37                   		cmp	#3, r7
 1874 015d 20 0F                   		beq	.L179
 1875                             	.LBE853:
 269:../src/tensorflow/lite/kernels/kernel_util.cc ****       input->type == kTfLiteInt16) {
 1876                             		.loc 1 269 3 is_stmt 1
 1877                             	.LBB890:
 1878 015f 61 97                   		cmp	#9, r7
 1879 0161 20 67                   		beq	.L144
 1880                             		.balign 8,3,1
 1881                             	.L145:
 269:../src/tensorflow/lite/kernels/kernel_util.cc ****       input->type == kTfLiteInt16) {
 1882                             		.loc 1 269 65 is_stmt 0
 1883 0163 61 77                   		cmp	#7, r7
 1884 0165 20 63                   		beq	.L144
 1885                             	.LBE890:
 275:../src/tensorflow/lite/kernels/kernel_util.cc **** }
 1886                             		.loc 1 275 10
 1887 0167 66 08                   		mov.L	#0, r8
 1888                             	.LVL221:
 1889 0169 38 F5 FE                		bra	.L121
 1890                             	.L179:
 1891                             	.LBB892:
 1892                             	.LBB854:
 260:../src/tensorflow/lite/kernels/kernel_util.cc ****     TF_LITE_ENSURE_STATUS(GetQuantizedConvolutionMultipler(
 1893                             		.loc 1 260 5 is_stmt 1
 1894                             	.LVL222:
 261:../src/tensorflow/lite/kernels/kernel_util.cc ****         context, input, filter, bias, output, &real_multiplier));
 1895                             		.loc 1 261 5
 1896                             	.LBB855:
 261:../src/tensorflow/lite/kernels/kernel_util.cc ****         context, input, filter, bias, output, &real_multiplier));
 1897                             		.loc 1 261 5
 1898                             	.LBB856:
 1899                             	.LBB857:
 284:../src/tensorflow/lite/kernels/kernel_util.cc ****                                      static_cast<double>(filter->params.scale);
 1900                             		.loc 1 284 3
 284:../src/tensorflow/lite/kernels/kernel_util.cc ****                                      static_cast<double>(filter->params.scale);
 1901                             		.loc 1 284 16 is_stmt 0
 1902 016c ED A1 03                		mov.L	12[r10], r1
 1903 016f ED B7 03                		mov.L	12[r11], r7
 1904 0172 FC 8F 71                		fmul	r7, r1
 1905                             	.LVL223:
 288:../src/tensorflow/lite/kernels/kernel_util.cc ****     const double bias_scale = static_cast<double>(bias->params.scale);
 1906                             		.loc 1 288 3 is_stmt 1
 1907                             	.LBB858:
 1908 0175 AB 0F                   		mov.L	52[r0], r7
 1909 0177 61 07                   		cmp	#0, r7
 1910 0179 20 1F                   		beq	.L138
 1911                             	.LBB859:
 289:../src/tensorflow/lite/kernels/kernel_util.cc ****     // Here we're making sure the input_product_scale & bias_scale are about the
 1912                             		.loc 1 289 5
 1913                             	.LVL224:
 307:../src/tensorflow/lite/kernels/kernel_util.cc ****     const double output_scale = static_cast<double>(output->params.scale);
 1914                             		.loc 1 307 5
 1915                             	.LBB860:
 1916                             	.LBB861:
 1917                             		.loc 2 71 5
 1918                             	.LBE861:
 1919                             	.LBE860:
 308:../src/tensorflow/lite/kernels/kernel_util.cc **** 
 1920                             		.loc 1 308 5
 310:../src/tensorflow/lite/kernels/kernel_util.cc ****   }
 1921                             		.loc 1 310 5
 310:../src/tensorflow/lite/kernels/kernel_util.cc ****   }
 1922                             		.loc 1 310 5
 307:../src/tensorflow/lite/kernels/kernel_util.cc ****     const double output_scale = static_cast<double>(output->params.scale);
 1923                             		.loc 1 307 39 is_stmt 0
 1924 017b A8 FF                   		mov.L	12[r7], r7
 310:../src/tensorflow/lite/kernels/kernel_util.cc ****   }
 1925                             		.loc 1 310 5
 1926 017d AA 0C                   		mov.L	36[r0], r4
 1927 017f A8 CB                   		mov.L	12[r4], r3
 1928 0181 FB 42 0A D7 A3 3C       		mov.L	#0x3ca3d70a, r4
 307:../src/tensorflow/lite/kernels/kernel_util.cc ****     const double output_scale = static_cast<double>(output->params.scale);
 1929                             		.loc 1 307 39
 1930 0187 FF 87 71                		fsub	r7, r1, r7
 1931                             	.LBB863:
 1932                             	.LBB862:
 1933                             		.loc 2 71 30
 1934 018a 7B F7                   		bclr #31, r7
 1935                             	.LBE862:
 1936                             	.LBE863:
 310:../src/tensorflow/lite/kernels/kernel_util.cc ****   }
 1937                             		.loc 1 310 5
 1938 018c FC 93 37                		fdiv	r3, r7
 1939 018f FC 87 74                		fcmp	r7, r4
 1940 0192 26 05 38 29 01          		bn	.L180
 1941                             	.LVL225:
 1942 0197 03                      		.balign 8,3,6
 1943                             	.L138:
 1944                             	.LBE859:
 1945                             	.LBE858:
 312:../src/tensorflow/lite/kernels/kernel_util.cc ****                                           multiplier);
 1946                             		.loc 1 312 3 is_stmt 1
 1947                             	.LBB864:
 1948                             	.LBB865:
 321:../src/tensorflow/lite/kernels/kernel_util.cc ****       static_cast<double>(input->params.scale * filter->params.scale);
 1949                             		.loc 1 321 3
 323:../src/tensorflow/lite/kernels/kernel_util.cc ****   *multiplier = input_product_scale / static_cast<double>(output->params.scale);
 1950                             		.loc 1 323 3
 323:../src/tensorflow/lite/kernels/kernel_util.cc ****   *multiplier = input_product_scale / static_cast<double>(output->params.scale);
 1951                             		.loc 1 323 3
 1952 0198 FD 72 11 00 00 00 00    		fcmp	#0x0, r1
 1953 019f 26 05 38 44 01          		bn	.L181
 324:../src/tensorflow/lite/kernels/kernel_util.cc **** 
 1954                             		.loc 1 324 3
 1955                             	.LVL226:
 326:../src/tensorflow/lite/kernels/kernel_util.cc **** }
 1956                             		.loc 1 326 3
 1957                             	.LBE865:
 1958                             	.LBE864:
 1959                             	.LBE857:
 1960                             	.LBE856:
 261:../src/tensorflow/lite/kernels/kernel_util.cc ****         context, input, filter, bias, output, &real_multiplier));
 1961                             		.loc 1 261 5
 1962                             	.LBE855:
 263:../src/tensorflow/lite/kernels/kernel_util.cc **** 
 1963                             		.loc 1 263 5
 266:../src/tensorflow/lite/kernels/kernel_util.cc ****     *shift = -exponent;
 1964                             		.loc 1 266 5
 1965                             	.LBB885:
 1966                             	.LBB882:
 1967                             	.LBB879:
 1968                             	.LBB873:
 1969                             	.LBB870:
 324:../src/tensorflow/lite/kernels/kernel_util.cc **** 
 1970                             		.loc 1 324 37 is_stmt 0
 1971 01a4 AA 0D                   		mov.L	36[r0], r5
 1972 01a6 A8 DF                   		mov.L	12[r5], r7
 1973                             	.LBE870:
 1974                             	.LBE873:
 1975                             	.LBE879:
 1976                             	.LBE882:
 1977                             	.LBE885:
 266:../src/tensorflow/lite/kernels/kernel_util.cc ****     *shift = -exponent;
 1978                             		.loc 1 266 23
 1979 01a8 75 43 1C                		mov.L	#28, r3
 1980 01ab 4B 03                   		add	r0, r3
 1981 01ad AB 82                   		mov.L	56[r0], r2
 1982 01af FC 93 71                		fdiv	r7, r1
 1983                             	.LVL227:
 1984 01b2 05 00 00 00             		bsr	__ZN6tflite18QuantizeMultiplierEdPlPi
 1985                             	.LVL228:
 267:../src/tensorflow/lite/kernels/kernel_util.cc ****   }
 1986                             		.loc 1 267 5 is_stmt 1
 1987                             	.LBE854:
 1988                             	.LBE892:
 1989                             	.LBB893:
 269:../src/tensorflow/lite/kernels/kernel_util.cc ****       input->type == kTfLiteInt16) {
 1990                             		.loc 1 269 14 is_stmt 0
 1991 01b6 EC A7                   		mov.L	[r10], r7
 1992                             	.LBE893:
 1993                             	.LBB894:
 1994                             	.LBB888:
 267:../src/tensorflow/lite/kernels/kernel_util.cc ****   }
 1995                             		.loc 1 267 14
 1996 01b8 ED 0A 07                		mov.L	28[r0], r10
 1997 01bb 7E 1A                   		neg	r10
 267:../src/tensorflow/lite/kernels/kernel_util.cc ****   }
 1998                             		.loc 1 267 12
 1999 01bd AB 8C                   		mov.L	60[r0], r4
 2000 01bf E3 4A                   		mov.L	r10, [r4]
 2001                             	.LBE888:
 2002                             	.LBE894:
 269:../src/tensorflow/lite/kernels/kernel_util.cc ****       input->type == kTfLiteInt16) {
 2003                             		.loc 1 269 3 is_stmt 1
 2004                             	.LBB895:
 2005 01c1 61 97                   		cmp	#9, r7
 2006 01c3 15                      		beq	.L144
 269:../src/tensorflow/lite/kernels/kernel_util.cc ****       input->type == kTfLiteInt16) {
 2007                             		.loc 1 269 34 is_stmt 0
 2008 01c4 61 37                   		cmp	#3, r7
 2009 01c6 21 9D                   		bne	.L145
 2010                             	.LVL229:
 2011                             		.balign 8,3,1
 2012                             	.L144:
 2013                             	.LBE895:
 2014                             	.LBE899:
 2015                             	.LBE901:
 271:../src/tensorflow/lite/kernels/kernel_util.cc ****         context, activation, output, output_activation_min,
 2016                             		.loc 1 271 5 is_stmt 1
 2017                             	.LBB902:
 2018                             	.LBB900:
 2019                             	.LBB896:
 2020                             	.LBB891:
 271:../src/tensorflow/lite/kernels/kernel_util.cc ****         context, activation, output, output_activation_min,
 2021                             		.loc 1 271 5
 2022 01c8 E1 00 0C                		mov.L	48[r0], [r0]
 2023                             	.LVL230:
 2024 01cb AA 8C                   		mov.L	44[r0], r4
 2025 01cd AA 85                   		mov.L	40[r0], r5
 2026 01cf EC 52                   		mov.L	[r5], r2
 2027 01d1 AA 0B                   		mov.L	36[r0], r3
 2028 01d3 EF 61                   		mov.L	r6, r1
 2029 01d5 05 00 00 00             		bsr	__ZN6tflite33CalculateActivationRangeQuantizedEP13TfLiteContext21TfLiteFusedActivationP12TfLit
 2030                             	.LVL231:
 2031 01d9 EF 18                   		mov.L	r1, r8
 2032                             	.LVL232:
 271:../src/tensorflow/lite/kernels/kernel_util.cc ****         context, activation, output, output_activation_min,
 2033                             		.loc 1 271 5
 2034 01db 38 83 FE                		bra	.L121
 2035                             	.LVL233:
 2036                             	.L177:
 2037                             	.LBE891:
 2038                             	.LBE896:
 223:../src/tensorflow/lite/kernels/kernel_util.cc ****   const bool is_per_channel = affine_quantization->scale->size > 1;
 2039                             		.loc 1 223 3
 223:../src/tensorflow/lite/kernels/kernel_util.cc ****   const bool is_per_channel = affine_quantization->scale->size > 1;
 2040                             		.loc 1 223 3
 2041 01de A9 1F                   		mov.L	20[r1], r7
 2042                             	.LVL234:
 2043 01e0 F9 02 03 7B 00 00 00    		mov.L	#.LC12, 12[r0]
 2044                             	.LVL235:
 2045 01e7 3E 02 DF                		mov.L	#0xdf, 8[r0]
 2046 01ea F9 02 01 22 00 00 00    		mov.L	#.LC3, 4[r0]
 2047 01f1 F8 02 50 00 00 00       		mov.L	#.LC4, [r0]
 2048 01f7 7F 17                   		jsr	r7
 2049                             	.LVL236:
 223:../src/tensorflow/lite/kernels/kernel_util.cc ****   const bool is_per_channel = affine_quantization->scale->size > 1;
 2050                             		.loc 1 223 3
 2051 01f9 38 65 FE                		bra	.L121
 2052                             	.LVL237:
 2053                             	.L178:
 229:../src/tensorflow/lite/kernels/kernel_util.cc ****     TF_LITE_ENSURE_EQ(context, affine_quantization->scale->size, num_channels);
 2054                             		.loc 1 229 5
 229:../src/tensorflow/lite/kernels/kernel_util.cc ****     TF_LITE_ENSURE_EQ(context, affine_quantization->scale->size, num_channels);
 2055                             		.loc 1 229 5
 2056 01fc A9 6F                   		mov.L	20[r6], r7
 2057                             	.LVL238:
 2058 01fe 3E 06 09                		mov.L	#9, 24[r0]
 2059                             	.LVL239:
 2060 0201 A1 09                   		mov.L	r1, 20[r0]
 2061 0203 F9 02 04 D0 00 00 00    		mov.L	#.LC14, 16[r0]
 2062 020a F9 02 03 DC 00 00 00    		mov.L	#.LC15, 12[r0]
 2063 0211 3E 02 E5                		mov.L	#0xe5, 8[r0]
 2064 0214 F9 02 01 22 00 00 00    		mov.L	#.LC3, 4[r0]
 2065 021b EF 61                   		mov.L	r6, r1
 2066 021d F8 02 33 00 00 00       		mov.L	#.LC9, [r0]
 2067 0223 EF 58                   		mov.L	r5, r8
 2068 0225 7F 17                   		jsr	r7
 2069                             	.LVL240:
 229:../src/tensorflow/lite/kernels/kernel_util.cc ****     TF_LITE_ENSURE_EQ(context, affine_quantization->scale->size, num_channels);
 2070                             		.loc 1 229 5
 2071 0227 38 37 FE                		bra	.L121
 2072                             	.LVL241:
 2073                             	.L176:
 222:../src/tensorflow/lite/kernels/kernel_util.cc ****   TF_LITE_ENSURE(context, affine_quantization->scale);
 2074                             		.loc 1 222 3
 222:../src/tensorflow/lite/kernels/kernel_util.cc ****   TF_LITE_ENSURE(context, affine_quantization->scale);
 2075                             		.loc 1 222 3
 2076 022a A9 1F                   		mov.L	20[r1], r7
 2077                             	.LVL242:
 2078 022c F9 02 03 67 00 00 00    		mov.L	#.LC11, 12[r0]
 2079                             	.LVL243:
 2080 0233 3E 02 DE                		mov.L	#0xde, 8[r0]
 2081 0236 F9 02 01 22 00 00 00    		mov.L	#.LC3, 4[r0]
 2082 023d F8 02 50 00 00 00       		mov.L	#.LC4, [r0]
 2083 0243 7F 17                   		jsr	r7
 2084                             	.LVL244:
 222:../src/tensorflow/lite/kernels/kernel_util.cc ****   TF_LITE_ENSURE(context, affine_quantization->scale);
 2085                             		.loc 1 222 3
 2086 0245 38 19 FE                		bra	.L121
 2087                             	.LVL245:
 2088                             	.L130:
 231:../src/tensorflow/lite/kernels/kernel_util.cc ****         context, num_channels,
 2089                             		.loc 1 231 5
 231:../src/tensorflow/lite/kernels/kernel_util.cc ****         context, num_channels,
 2090                             		.loc 1 231 5
 2091 0248 A8 B3                   		mov.L	8[r3], r3
 2092                             	.LVL246:
 2093 024a ED B2 02                		mov.L	8[r11], r2
 2094                             	.LVL247:
 2095 024d 62 13                   		add	#1, r3
 2096 024f FE 63 23                		mov.L	[r3,r2], r3
 2097 0252 47 37                   		cmp	r3, r7
 2098 0254 20 1D                   		beq	.L131
 231:../src/tensorflow/lite/kernels/kernel_util.cc ****         context, num_channels,
 2099                             		.loc 1 231 5
 231:../src/tensorflow/lite/kernels/kernel_util.cc ****         context, num_channels,
 2100                             		.loc 1 231 5
 2101 0256 ED 6A 05                		mov.L	20[r6], r10
 2102                             	.LVL248:
 2103 0259 A1 83                   		mov.L	r3, 24[r0]
 2104                             	.LVL249:
 2105 025b A1 0F                   		mov.L	r7, 20[r0]
 2106 025d F9 02 04 17 01 00 00    		mov.L	#.LC18, 16[r0]
 2107 0264 F9 02 03 E9 00 00 00    		mov.L	#.LC16, 12[r0]
 2108 026b 3E 02 E9                		mov.L	#0xe9, 8[r0]
 2109 026e 38 8A FE                		bra	.L175
 2110                             	.LVL250:
 2111                             	.L131:
 237:../src/tensorflow/lite/kernels/kernel_util.cc ****   const float output_scale = output->params.scale;
 2112                             		.loc 1 237 3
 237:../src/tensorflow/lite/kernels/kernel_util.cc ****   const float output_scale = output->params.scale;
 2113                             		.loc 1 237 15 is_stmt 0
 2114 0271 ED AF 03                		mov.L	12[r10], r15
 2115                             	.LVL251:
 238:../src/tensorflow/lite/kernels/kernel_util.cc ****   const float* filter_scales = affine_quantization->scale->data;
 2116                             		.loc 1 238 3 is_stmt 1
 238:../src/tensorflow/lite/kernels/kernel_util.cc ****   const float* filter_scales = affine_quantization->scale->data;
 2117                             		.loc 1 238 15 is_stmt 0
 2118 0274 AA 0B                   		mov.L	36[r0], r3
 2119 0276 ED 3E 03                		mov.L	12[r3], r14
 2120                             	.LVL252:
 239:../src/tensorflow/lite/kernels/kernel_util.cc ****   for (int i = 0; i < num_channels; ++i) {
 2121                             		.loc 1 239 3 is_stmt 1
 239:../src/tensorflow/lite/kernels/kernel_util.cc ****   for (int i = 0; i < num_channels; ++i) {
 2122                             		.loc 1 239 16 is_stmt 0
 2123 0279 71 4D 04                		add	#4, r4, r13
 2124                             	.LVL253:
 240:../src/tensorflow/lite/kernels/kernel_util.cc ****     // If per-tensor quantization parameter is specified, broadcast it along the
 2125                             		.loc 1 240 3 is_stmt 1
 239:../src/tensorflow/lite/kernels/kernel_util.cc ****   for (int i = 0; i < num_channels; ++i) {
 2126                             		.loc 1 239 16 is_stmt 0
 2127 027c 66 08                   		mov.L	#0, r8
 2128 027e A4 05                   		mov.L	r5, 64[r0]
 2129 0280 A4 0E                   		mov.L	r6, 68[r0]
 2130 0282 EF D6                   		mov.L	r13, r6
 2131                             	.LVL254:
 2132 0284 E7 0A 12                		mov.L	r10, 72[r0]
 2133 0287 EF 8A                   		mov.L	r8, r10
 2134                             	.LVL255:
 2135 0289 EF 98                   		mov.L	r9, r8
 2136 028b EF C9                   		mov.L	r12, r9
 2137                             	.LVL256:
 2138 028d EF FC                   		mov.L	r15, r12
 2139                             	.LVL257:
 2140 028f EF 7D                   		mov.L	r7, r13
 2141                             	.LVL258:
 2142 0291 EF E7                   		mov.L	r14, r7
 2143                             	.LVL259:
 2144                             		.balign 8,3,2
 2145                             	.L136:
 2146                             	.LBB897:
 2147                             	.LBB852:
 243:../src/tensorflow/lite/kernels/kernel_util.cc ****     const double filter_scale = static_cast<double>(scale);
 2148                             		.loc 1 243 5 is_stmt 1
 244:../src/tensorflow/lite/kernels/kernel_util.cc ****     const double effective_output_scale = static_cast<double>(input_scale) *
 2149                             		.loc 1 244 5
 245:../src/tensorflow/lite/kernels/kernel_util.cc ****                                           filter_scale /
 2150                             		.loc 1 245 5
 248:../src/tensorflow/lite/kernels/kernel_util.cc ****     int channel_shift;
 2151                             		.loc 1 248 5
 249:../src/tensorflow/lite/kernels/kernel_util.cc ****     QuantizeMultiplier(effective_output_scale, &significand, &channel_shift);
 2152                             		.loc 1 249 5
 250:../src/tensorflow/lite/kernels/kernel_util.cc ****     per_channel_multiplier[i] = significand;
 2153                             		.loc 1 250 5
 250:../src/tensorflow/lite/kernels/kernel_util.cc ****     per_channel_multiplier[i] = significand;
 2154                             		.loc 1 250 23 is_stmt 0
 2155 0293 75 43 1C                		mov.L	#28, r3
 2156 0296 4B 03                   		add	r0, r3
 245:../src/tensorflow/lite/kernels/kernel_util.cc ****                                           filter_scale /
 2157                             		.loc 1 245 76
 2158 0298 FE 6A 61                		mov.L	[r10,r6], r1
 250:../src/tensorflow/lite/kernels/kernel_util.cc ****     per_channel_multiplier[i] = significand;
 2159                             		.loc 1 250 23
 2160 029b 75 42 20                		mov.L	#32, r2
 2161 029e 4B 02                   		add	r0, r2
 245:../src/tensorflow/lite/kernels/kernel_util.cc ****                                           filter_scale /
 2162                             		.loc 1 245 76
 2163 02a0 FC 8F C1                		fmul	r12, r1
 250:../src/tensorflow/lite/kernels/kernel_util.cc ****     per_channel_multiplier[i] = significand;
 2164                             		.loc 1 250 23
 2165 02a3 FC 93 71                		fdiv	r7, r1
 2166 02a6 05 00 00 00             		bsr	__ZN6tflite18QuantizeMultiplierEdPlPi
 2167                             	.LVL260:
 251:../src/tensorflow/lite/kernels/kernel_util.cc ****     per_channel_shift[i] = channel_shift;
 2168                             		.loc 1 251 5 is_stmt 1
 251:../src/tensorflow/lite/kernels/kernel_util.cc ****     per_channel_shift[i] = channel_shift;
 2169                             		.loc 1 251 31 is_stmt 0
 2170 02aa AA 03                   		mov.L	32[r0], r3
 2171 02ac FE 2A 93                		mov.L	r3, [r10,r9]
 252:../src/tensorflow/lite/kernels/kernel_util.cc ****   }
 2172                             		.loc 1 252 5 is_stmt 1
 252:../src/tensorflow/lite/kernels/kernel_util.cc ****   }
 2173                             		.loc 1 252 26 is_stmt 0
 2174 02af A9 8C                   		mov.L	28[r0], r4
 2175 02b1 FE 2A 84                		mov.L	r4, [r10,r8]
 2176                             	.LBE852:
 240:../src/tensorflow/lite/kernels/kernel_util.cc ****     // If per-tensor quantization parameter is specified, broadcast it along the
 2177                             		.loc 1 240 3
 2178 02b4 62 1A                   		add	#1, r10
 2179                             	.LVL261:
 240:../src/tensorflow/lite/kernels/kernel_util.cc ****     // If per-tensor quantization parameter is specified, broadcast it along the
 2180                             		.loc 1 240 21
 2181 02b6 47 AD                   		cmp	r10, r13
 2182 02b8 2A DB                   		bgt	.L136
 2183 02ba 38 98 FE                		bra	.L173
 2184                             	.LVL262:
 2185                             	.L180:
 2186                             	.LBE897:
 2187                             	.LBB898:
 2188                             	.LBB889:
 2189                             	.LBB886:
 2190                             	.LBB883:
 2191                             	.LBB880:
 2192                             	.LBB874:
 2193                             	.LBB875:
 2194                             	.LBB876:
 310:../src/tensorflow/lite/kernels/kernel_util.cc ****   }
 2195                             		.loc 1 310 5 is_stmt 1
 310:../src/tensorflow/lite/kernels/kernel_util.cc ****   }
 2196                             		.loc 1 310 5
 2197 02bd A9 6F                   		mov.L	20[r6], r7
 2198 02bf F9 02 03 00 00 00 00    		mov.L	#.LC2, 12[r0]
 2199                             	.LVL263:
 2200 02c6 F9 0A 02 36 01          		mov.L	#0x136, 8[r0]
 2201                             	.LVL264:
 2202                             	.L174:
 2203                             	.LBE876:
 2204                             	.LBE875:
 2205                             	.LBE874:
 2206                             	.LBB877:
 2207                             	.LBB871:
 2208                             	.LBB866:
 2209                             	.LBB867:
 323:../src/tensorflow/lite/kernels/kernel_util.cc ****   *multiplier = input_product_scale / static_cast<double>(output->params.scale);
 2210                             		.loc 1 323 3 is_stmt 0
 2211 02cb F9 02 01 22 00 00 00    		mov.L	#.LC3, 4[r0]
 2212 02d2 EF 61                   		mov.L	r6, r1
 2213                             	.LVL265:
 2214 02d4 F8 02 50 00 00 00       		mov.L	#.LC4, [r0]
 2215 02da A4 8D                   		mov.L	r5, 76[r0]
 2216 02dc 7F 17                   		jsr	r7
 2217                             	.LVL266:
 323:../src/tensorflow/lite/kernels/kernel_util.cc ****   *multiplier = input_product_scale / static_cast<double>(output->params.scale);
 2218                             		.loc 1 323 3 is_stmt 1
 2219                             	.LBE867:
 2220                             	.LBE866:
 2221                             	.LBE871:
 2222                             	.LBE877:
 2223                             	.LBE880:
 2224                             	.LBE883:
 261:../src/tensorflow/lite/kernels/kernel_util.cc ****         context, input, filter, bias, output, &real_multiplier));
 2225                             		.loc 1 261 5
 2226 02de AC 8D                   		mov.L	76[r0], r5
 261:../src/tensorflow/lite/kernels/kernel_util.cc ****         context, input, filter, bias, output, &real_multiplier));
 2227                             		.loc 1 261 5
 2228                             	.LVL267:
 2229                             	.LBE886:
 2230 02e0 EF 58                   		mov.L	r5, r8
 2231 02e2 38 7C FD                		bra	.L121
 2232                             	.LVL268:
 2233                             	.L181:
 2234                             	.LBB887:
 2235                             	.LBB884:
 2236                             	.LBB881:
 2237                             	.LBB878:
 2238                             	.LBB872:
 2239                             	.LBB869:
 2240                             	.LBB868:
 323:../src/tensorflow/lite/kernels/kernel_util.cc ****   *multiplier = input_product_scale / static_cast<double>(output->params.scale);
 2241                             		.loc 1 323 3
 323:../src/tensorflow/lite/kernels/kernel_util.cc ****   *multiplier = input_product_scale / static_cast<double>(output->params.scale);
 2242                             		.loc 1 323 3
 2243 02e5 A9 6F                   		mov.L	20[r6], r7
 2244 02e7 F9 02 03 67 00 00 00    		mov.L	#.LC5, 12[r0]
 2245                             	.LVL269:
 2246 02ee F9 0A 02 43 01          		mov.L	#0x143, 8[r0]
 2247 02f3 2E D8                   		bra	.L174
 2248                             	.LBE868:
 2249                             	.LBE869:
 2250                             	.LBE872:
 2251                             	.LBE878:
 2252                             	.LBE881:
 2253                             	.LBE884:
 2254                             	.LBE887:
 2255                             	.LBE889:
 2256                             	.LBE898:
 2257                             	.LBE900:
 2258                             	.LBE902:
 2259                             	.LFE3310:
 2261 02f5 FC 13 00                		.section	.text._ZN6tflite37PopulateConvolutionQuantizationParamsEP13TfLiteContextPK12TfLiteTensorS
 2262                             		.global	__ZN6tflite37PopulateConvolutionQuantizationParamsEP13TfLiteContextPK12TfLiteTensorS4_S4_P
 2264                             	__ZN6tflite37PopulateConvolutionQuantizationParamsEP13TfLiteContextPK12TfLiteTensorS4_S4_PS2_RK21Tf
 2265                             	.LFB3309:
 193:../src/tensorflow/lite/kernels/kernel_util.cc ****   const auto* affine_quantization =
 2266                             		.loc 1 193 62
 2267                             	.LVL270:
 2268 0000 6E 6D                   		pushm	r6-r13
 2269                             	.LCFI11:
 2270 0002 71 00 90                		add	#-112, r0
 2271                             	.LCFI12:
 193:../src/tensorflow/lite/kernels/kernel_util.cc ****   const auto* affine_quantization =
 2272                             		.loc 1 193 62 is_stmt 0
 2273 0005 75 47 94                		mov.L	#0x94, r7
 2274 0008 4B 07                   		add	r0, r7
 2275                             	.LBB932:
 2276                             	.LBB933:
 209:../src/tensorflow/lite/kernels/kernel_util.cc ****                     kTfLiteAffineQuantization);
 2277                             		.loc 1 209 3
 2278 000a ED 28 0C                		mov.L	48[r2], r8
 2279                             	.LBE933:
 2280                             	.LBE932:
 193:../src/tensorflow/lite/kernels/kernel_util.cc ****   const auto* affine_quantization =
 2281                             		.loc 1 193 62
 2282 000d EF 16                   		mov.L	r1, r6
 194:../src/tensorflow/lite/kernels/kernel_util.cc ****       reinterpret_cast<TfLiteAffineQuantization*>(filter->quantization.params);
 2283                             		.loc 1 194 3 is_stmt 1
 2284                             	.LVL271:
 196:../src/tensorflow/lite/kernels/kernel_util.cc ****       context, input, filter, bias, output, activation, multiplier, shift,
 2285                             		.loc 1 196 3
 193:../src/tensorflow/lite/kernels/kernel_util.cc ****   const auto* affine_quantization =
 2286                             		.loc 1 193 62 is_stmt 0
 2287 000f E4 70 09                		mov.L	[r7], 36[r0]
 2288 0012 E5 70 01 0A             		mov.L	4[r7], 40[r0]
 2289                             	.LVL272:
 2290 0016 E5 70 02 0D             		mov.L	8[r7], 52[r0]
 2291                             	.LVL273:
 2292 001a E5 70 03 0E             		mov.L	12[r7], 56[r0]
 2293                             	.LVL274:
 2294 001e E5 70 04 0B             		mov.L	16[r7], 44[r0]
 2295                             	.LVL275:
 2296 0022 E5 70 05 0C             		mov.L	20[r7], 48[r0]
 2297                             	.LVL276:
 2298 0026 ED 7C 06                		mov.L	24[r7], r12
 2299                             	.LVL277:
 2300 0029 ED 7D 07                		mov.L	28[r7], r13
 2301                             	.LVL278:
 2302                             	.LBB995:
 2303                             	.LBB989:
 209:../src/tensorflow/lite/kernels/kernel_util.cc ****                     kTfLiteAffineQuantization);
 2304                             		.loc 1 209 3 is_stmt 1
 209:../src/tensorflow/lite/kernels/kernel_util.cc ****                     kTfLiteAffineQuantization);
 2305                             		.loc 1 209 3
 2306 002c 61 18                   		cmp	#1, r8
 2307 002e 20 31                   		beq	.L183
 209:../src/tensorflow/lite/kernels/kernel_util.cc ****                     kTfLiteAffineQuantization);
 2308                             		.loc 1 209 3
 209:../src/tensorflow/lite/kernels/kernel_util.cc ****                     kTfLiteAffineQuantization);
 2309                             		.loc 1 209 3
 2310 0030 A9 1F                   		mov.L	20[r1], r7
 2311                             	.LVL279:
 2312 0032 E7 08 05                		mov.L	r8, 20[r0]
 2313                             	.LVL280:
 2314 0035 3E 06 01                		mov.L	#1, 24[r0]
 2315 0038 F9 02 04 00 00 00 00    		mov.L	#.LC7, 16[r0]
 2316 003f F9 02 03 1A 00 00 00    		mov.L	#.LC8, 12[r0]
 2317 0046 3E 02 D2                		mov.L	#0xd2, 8[r0]
 2318 0049 F9 02 01 22 00 00 00    		mov.L	#.LC3, 4[r0]
 2319 0050 66 18                   		mov.L	#1, r8
 2320 0052 F8 02 33 00 00 00       		mov.L	#.LC9, [r0]
 2321 0058 7F 17                   		jsr	r7
 2322                             	.LVL281:
 209:../src/tensorflow/lite/kernels/kernel_util.cc ****                     kTfLiteAffineQuantization);
 2323                             		.loc 1 209 3
 2324                             		.balign 8,3,1
 2325                             	.L182:
 2326                             	.LBE989:
 2327                             	.LBE995:
 200:../src/tensorflow/lite/kernels/kernel_util.cc **** 
 2328                             		.loc 1 200 1 is_stmt 0
 2329 005a EF 81                   		mov.L	r8, r1
 2330 005c 3F 6D 24                		rtsd	#144, r6-r13
 2331                             	.LVL282:
 2332                             	.L183:
 2333 005f EF 3B                   		mov.L	r3, r11
 2334                             	.LVL283:
 2335                             	.LBB996:
 2336                             	.LBB990:
 2337                             	.LBB934:
 2338                             	.LBB935:
 211:../src/tensorflow/lite/kernels/kernel_util.cc ****                     kTfLiteAffineQuantization);
 2339                             		.loc 1 211 3 is_stmt 1
 211:../src/tensorflow/lite/kernels/kernel_util.cc ****                     kTfLiteAffineQuantization);
 2340                             		.loc 1 211 3
 2341 0061 ED 39 0C                		mov.L	48[r3], r9
 2342 0064 61 19                   		cmp	#1, r9
 2343 0066 21 37                   		bne	.L225
 2344 0068 EF 2A                   		mov.L	r2, r10
 2345                             	.LBE935:
 2346                             	.LBE934:
 2347                             	.LBE990:
 2348                             	.LBE996:
 194:../src/tensorflow/lite/kernels/kernel_util.cc ****       reinterpret_cast<TfLiteAffineQuantization*>(filter->quantization.params);
 2349                             		.loc 1 194 15 is_stmt 0
 2350 006a AB 3F                   		mov.L	52[r3], r7
 2351                             	.LVL284:
 199:../src/tensorflow/lite/kernels/kernel_util.cc **** }
 2352                             		.loc 1 199 47
 2353 006c EC 7E                   		mov.L	[r7], r14
 196:../src/tensorflow/lite/kernels/kernel_util.cc ****       context, input, filter, bias, output, activation, multiplier, shift,
 2354                             		.loc 1 196 47
 2355 006e EC E5                   		mov.L	[r14], r5
 2356                             	.LBB997:
 2357                             	.LBB991:
 2358                             	.LBB985:
 2359                             	.LBB981:
 220:../src/tensorflow/lite/kernels/kernel_util.cc ****       reinterpret_cast<TfLiteAffineQuantization*>(filter->quantization.params);
 2360                             		.loc 1 220 3 is_stmt 1
 2361                             	.LVL285:
 222:../src/tensorflow/lite/kernels/kernel_util.cc ****   TF_LITE_ENSURE(context, affine_quantization->scale);
 2362                             		.loc 1 222 3
 222:../src/tensorflow/lite/kernels/kernel_util.cc ****   TF_LITE_ENSURE(context, affine_quantization->scale);
 2363                             		.loc 1 222 3
 223:../src/tensorflow/lite/kernels/kernel_util.cc ****   const bool is_per_channel = affine_quantization->scale->size > 1;
 2364                             		.loc 1 223 3
 223:../src/tensorflow/lite/kernels/kernel_util.cc ****   const bool is_per_channel = affine_quantization->scale->size > 1;
 2365                             		.loc 1 223 3
 224:../src/tensorflow/lite/kernels/kernel_util.cc ****   if (is_per_channel) {
 2366                             		.loc 1 224 3
 225:../src/tensorflow/lite/kernels/kernel_util.cc ****     //  Currently only Int8/Int16 is supported for per channel quantization.
 2367                             		.loc 1 225 3
 2368 0070 61 15                   		cmp	#1, r5
 2369 0072 2B 58                   		ble	.L186
 227:../src/tensorflow/lite/kernels/kernel_util.cc ****                    input->type == kTfLiteInt8 || input->type == kTfLiteInt16);
 2370                             		.loc 1 227 5
 227:../src/tensorflow/lite/kernels/kernel_util.cc ****                    input->type == kTfLiteInt8 || input->type == kTfLiteInt16);
 2371                             		.loc 1 227 5
 2372 0074 EC 23                   		mov.L	[r2], r3
 2373                             	.LVL286:
 2374 0076 61 93                   		cmp	#9, r3
 2375 0078 3A 8E 00                		beq	.L187
 2376 007b 61 73                   		cmp	#7, r3
 2377 007d 3A 89 00                		beq	.L187
 227:../src/tensorflow/lite/kernels/kernel_util.cc ****                    input->type == kTfLiteInt8 || input->type == kTfLiteInt16);
 2378                             		.loc 1 227 5
 227:../src/tensorflow/lite/kernels/kernel_util.cc ****                    input->type == kTfLiteInt8 || input->type == kTfLiteInt16);
 2379                             		.loc 1 227 5
 2380 0080 A9 1F                   		mov.L	20[r1], r7
 2381 0082 F9 02 03 96 00 00 00    		mov.L	#.LC13, 12[r0]
 2382                             	.LVL287:
 2383 0089 3E 02 E4                		mov.L	#0xe4, 8[r0]
 2384 008c F9 02 01 22 00 00 00    		mov.L	#.LC3, 4[r0]
 2385 0093 F8 02 50 00 00 00       		mov.L	#.LC4, [r0]
 2386 0099 7F 17                   		jsr	r7
 2387                             	.LVL288:
 227:../src/tensorflow/lite/kernels/kernel_util.cc ****                    input->type == kTfLiteInt8 || input->type == kTfLiteInt16);
 2388                             		.loc 1 227 5
 2389 009b 2E BF                   		bra	.L182
 2390                             	.LVL289:
 2391                             	.L225:
 211:../src/tensorflow/lite/kernels/kernel_util.cc ****                     kTfLiteAffineQuantization);
 2392                             		.loc 1 211 3
 211:../src/tensorflow/lite/kernels/kernel_util.cc ****                     kTfLiteAffineQuantization);
 2393                             		.loc 1 211 3
 2394 009d A9 1F                   		mov.L	20[r1], r7
 2395                             	.LVL290:
 2396 009f E7 08 06                		mov.L	r8, 24[r0]
 2397                             	.LVL291:
 2398 00a2 E7 09 05                		mov.L	r9, 20[r0]
 2399 00a5 F9 02 04 00 00 00 00    		mov.L	#.LC7, 16[r0]
 2400 00ac F9 02 03 4D 00 00 00    		mov.L	#.LC10, 12[r0]
 2401 00b3 3E 02 D4                		mov.L	#0xd4, 8[r0]
 2402 00b6 F9 02 01 22 00 00 00    		mov.L	#.LC3, 4[r0]
 2403 00bd F8 02 33 00 00 00       		mov.L	#.LC9, [r0]
 2404 00c3 7F 17                   		jsr	r7
 2405                             	.LVL292:
 211:../src/tensorflow/lite/kernels/kernel_util.cc ****                     kTfLiteAffineQuantization);
 2406                             		.loc 1 211 3
 2407                             	.LBE981:
 2408                             	.LBE985:
 2409                             	.LBE991:
 2410                             	.LBE997:
 200:../src/tensorflow/lite/kernels/kernel_util.cc **** 
 2411                             		.loc 1 200 1 is_stmt 0
 2412 00c5 EF 81                   		mov.L	r8, r1
 2413 00c7 3F 6D 24                		rtsd	#144, r6-r13
 2414                             	.LVL293:
 2415                             	.L186:
 2416                             	.LBB998:
 2417                             	.LBB992:
 2418                             	.LBB986:
 2419                             	.LBB982:
 237:../src/tensorflow/lite/kernels/kernel_util.cc ****   const float output_scale = output->params.scale;
 2420                             		.loc 1 237 3 is_stmt 1
 237:../src/tensorflow/lite/kernels/kernel_util.cc ****   const float output_scale = output->params.scale;
 2421                             		.loc 1 237 15 is_stmt 0
 2422 00ca A8 A9                   		mov.L	12[r2], r1
 2423                             	.LVL294:
 238:../src/tensorflow/lite/kernels/kernel_util.cc ****   const float* filter_scales = affine_quantization->scale->data;
 2424                             		.loc 1 238 3 is_stmt 1
 238:../src/tensorflow/lite/kernels/kernel_util.cc ****   const float* filter_scales = affine_quantization->scale->data;
 2425                             		.loc 1 238 15 is_stmt 0
 2426 00cc AA 0B                   		mov.L	36[r0], r3
 2427                             	.LVL295:
 2428 00ce A8 BF                   		mov.L	12[r3], r7
 2429                             	.LVL296:
 239:../src/tensorflow/lite/kernels/kernel_util.cc ****   for (int i = 0; i < num_channels; ++i) {
 2430                             		.loc 1 239 3 is_stmt 1
 240:../src/tensorflow/lite/kernels/kernel_util.cc ****     // If per-tensor quantization parameter is specified, broadcast it along the
 2431                             		.loc 1 240 3
 2432                             	.LBB936:
 240:../src/tensorflow/lite/kernels/kernel_util.cc ****     // If per-tensor quantization parameter is specified, broadcast it along the
 2433                             		.loc 1 240 21 is_stmt 0
 2434 00d0 21 21                   		bne	.L191
 2435                             	.LBB937:
 243:../src/tensorflow/lite/kernels/kernel_util.cc ****     const double filter_scale = static_cast<double>(scale);
 2436                             		.loc 1 243 5 is_stmt 1
 2437                             	.LVL297:
 244:../src/tensorflow/lite/kernels/kernel_util.cc ****     const double effective_output_scale = static_cast<double>(input_scale) *
 2438                             		.loc 1 244 5
 245:../src/tensorflow/lite/kernels/kernel_util.cc ****                                           filter_scale /
 2439                             		.loc 1 245 5
 248:../src/tensorflow/lite/kernels/kernel_util.cc ****     int channel_shift;
 2440                             		.loc 1 248 5
 249:../src/tensorflow/lite/kernels/kernel_util.cc ****     QuantizeMultiplier(effective_output_scale, &significand, &channel_shift);
 2441                             		.loc 1 249 5
 250:../src/tensorflow/lite/kernels/kernel_util.cc ****     per_channel_multiplier[i] = significand;
 2442                             		.loc 1 250 5
 245:../src/tensorflow/lite/kernels/kernel_util.cc ****                                           filter_scale /
 2443                             		.loc 1 245 76 is_stmt 0
 2444 00d2 ED E8 01                		mov.L	4[r14], r8
 250:../src/tensorflow/lite/kernels/kernel_util.cc ****     per_channel_multiplier[i] = significand;
 2445                             		.loc 1 250 23
 2446 00d5 75 43 1C                		mov.L	#28, r3
 2447 00d8 4B 03                   		add	r0, r3
 2448 00da 71 02 20                		add	#32, r0, r2
 2449                             	.LVL298:
 245:../src/tensorflow/lite/kernels/kernel_util.cc ****                                           filter_scale /
 2450                             		.loc 1 245 76
 2451 00dd FC 8F 81                		fmul	r8, r1
 2452                             	.LVL299:
 250:../src/tensorflow/lite/kernels/kernel_util.cc ****     per_channel_multiplier[i] = significand;
 2453                             		.loc 1 250 23
 2454 00e0 FC 93 71                		fdiv	r7, r1
 2455                             	.LVL300:
 2456 00e3 A4 8C                   		mov.L	r4, 76[r0]
 2457 00e5 05 00 00 00             		bsr	__ZN6tflite18QuantizeMultiplierEdPlPi
 2458                             	.LVL301:
 251:../src/tensorflow/lite/kernels/kernel_util.cc ****     per_channel_shift[i] = channel_shift;
 2459                             		.loc 1 251 5 is_stmt 1
 251:../src/tensorflow/lite/kernels/kernel_util.cc ****     per_channel_shift[i] = channel_shift;
 2460                             		.loc 1 251 31 is_stmt 0
 2461 00e9 E1 0C 08                		mov.L	32[r0], [r12]
 252:../src/tensorflow/lite/kernels/kernel_util.cc ****   }
 2462                             		.loc 1 252 5 is_stmt 1
 252:../src/tensorflow/lite/kernels/kernel_util.cc ****   }
 2463                             		.loc 1 252 26 is_stmt 0
 2464 00ec E1 0D 07                		mov.L	28[r0], [r13]
 2465                             	.LVL302:
 2466 00ef AC 8C                   		mov.L	76[r0], r4
 2467                             	.LVL303:
 2468                             		.balign 8,3,1
 2469                             	.L191:
 2470                             	.LBE937:
 2471                             	.LBE936:
 258:../src/tensorflow/lite/kernels/kernel_util.cc ****     // Check bias scale == input scale * filter scale.
 2472                             		.loc 1 258 3 is_stmt 1
 2473                             	.LBB939:
 258:../src/tensorflow/lite/kernels/kernel_util.cc ****     // Check bias scale == input scale * filter scale.
 2474                             		.loc 1 258 14 is_stmt 0
 2475 00f1 EC A7                   		mov.L	[r10], r7
 2476                             	.LVL304:
 258:../src/tensorflow/lite/kernels/kernel_util.cc ****     // Check bias scale == input scale * filter scale.
 2477                             		.loc 1 258 3
 2478 00f3 61 37                   		cmp	#3, r7
 2479 00f5 20 55                   		beq	.L226
 2480                             	.LBE939:
 269:../src/tensorflow/lite/kernels/kernel_util.cc ****       input->type == kTfLiteInt16) {
 2481                             		.loc 1 269 3 is_stmt 1
 2482                             	.LBB972:
 2483 00f7 61 97                   		cmp	#9, r7
 2484 00f9 3A B0 00                		beq	.L201
 2485                             		.balign 8,3,1
 2486                             	.L202:
 269:../src/tensorflow/lite/kernels/kernel_util.cc ****       input->type == kTfLiteInt16) {
 2487                             		.loc 1 269 65 is_stmt 0
 2488 00fc 61 77                   		cmp	#7, r7
 2489 00fe 3A AB 00                		beq	.L201
 2490                             	.LBE972:
 275:../src/tensorflow/lite/kernels/kernel_util.cc **** }
 2491                             		.loc 1 275 10
 2492 0101 66 08                   		mov.L	#0, r8
 2493                             	.LVL305:
 2494                             	.LBE982:
 2495                             	.LBE986:
 2496                             	.LBE992:
 2497                             	.LBE998:
 199:../src/tensorflow/lite/kernels/kernel_util.cc **** }
 2498                             		.loc 1 199 58
 2499 0103 38 57 FF                		bra	.L182
 2500                             	.LVL306:
 2501                             	.L187:
 2502                             	.LBB999:
 2503                             	.LBB993:
 2504                             	.LBB987:
 2505                             	.LBB983:
 229:../src/tensorflow/lite/kernels/kernel_util.cc ****     TF_LITE_ENSURE_EQ(context, affine_quantization->scale->size, num_channels);
 2506                             		.loc 1 229 5 is_stmt 1
 229:../src/tensorflow/lite/kernels/kernel_util.cc ****     TF_LITE_ENSURE_EQ(context, affine_quantization->scale->size, num_channels);
 2507                             		.loc 1 229 5
 2508 0106 EC B3                   		mov.L	[r11], r3
 2509 0108 61 93                   		cmp	#9, r3
 2510 010a 3B B5 00                		bne	.L227
 230:../src/tensorflow/lite/kernels/kernel_util.cc ****     TF_LITE_ENSURE_EQ(
 2511                             		.loc 1 230 5
 230:../src/tensorflow/lite/kernels/kernel_util.cc ****     TF_LITE_ENSURE_EQ(
 2512                             		.loc 1 230 5
 231:../src/tensorflow/lite/kernels/kernel_util.cc ****         context, num_channels,
 2513                             		.loc 1 231 5
 231:../src/tensorflow/lite/kernels/kernel_util.cc ****         context, num_channels,
 2514                             		.loc 1 231 5
 2515 010d A8 F7                   		mov.L	8[r7], r7
 2516 010f ED B3 02                		mov.L	8[r11], r3
 2517 0112 62 17                   		add	#1, r7
 2518 0114 FE 67 37                		mov.L	[r7,r3], r7
 2519 0117 47 75                   		cmp	r7, r5
 2520 0119 3A D4 00                		beq	.L189
 231:../src/tensorflow/lite/kernels/kernel_util.cc ****         context, num_channels,
 2521                             		.loc 1 231 5
 231:../src/tensorflow/lite/kernels/kernel_util.cc ****         context, num_channels,
 2522                             		.loc 1 231 5
 2523 011c ED 6A 05                		mov.L	20[r6], r10
 2524 011f A1 87                   		mov.L	r7, 24[r0]
 2525                             	.LVL307:
 2526 0121 A1 0D                   		mov.L	r5, 20[r0]
 2527 0123 F9 02 04 17 01 00 00    		mov.L	#.LC18, 16[r0]
 2528 012a F9 02 03 E9 00 00 00    		mov.L	#.LC16, 12[r0]
 2529 0131 3E 02 E9                		mov.L	#0xe9, 8[r0]
 2530 0134 F9 02 01 22 00 00 00    		mov.L	#.LC3, 4[r0]
 2531 013b EF 61                   		mov.L	r6, r1
 2532                             	.LVL308:
 2533 013d F8 02 33 00 00 00       		mov.L	#.LC9, [r0]
 2534 0143 EF 98                   		mov.L	r9, r8
 2535 0145 7F 1A                   		jsr	r10
 2536                             	.LVL309:
 231:../src/tensorflow/lite/kernels/kernel_util.cc ****         context, num_channels,
 2537                             		.loc 1 231 5
 2538 0147 38 13 FF                		bra	.L182
 2539                             	.LVL310:
 2540                             	.L226:
 2541                             	.LBB974:
 2542                             	.LBB940:
 260:../src/tensorflow/lite/kernels/kernel_util.cc ****     TF_LITE_ENSURE_STATUS(GetQuantizedConvolutionMultipler(
 2543                             		.loc 1 260 5
 261:../src/tensorflow/lite/kernels/kernel_util.cc ****         context, input, filter, bias, output, &real_multiplier));
 2544                             		.loc 1 261 5
 2545                             	.LBB941:
 261:../src/tensorflow/lite/kernels/kernel_util.cc ****         context, input, filter, bias, output, &real_multiplier));
 2546                             		.loc 1 261 5
 2547                             	.LBB942:
 2548                             	.LBB943:
 284:../src/tensorflow/lite/kernels/kernel_util.cc ****                                      static_cast<double>(filter->params.scale);
 2549                             		.loc 1 284 3
 284:../src/tensorflow/lite/kernels/kernel_util.cc ****                                      static_cast<double>(filter->params.scale);
 2550                             		.loc 1 284 16 is_stmt 0
 2551 014a ED A1 03                		mov.L	12[r10], r1
 2552 014d ED B7 03                		mov.L	12[r11], r7
 2553 0150 FC 8F 71                		fmul	r7, r1
 2554                             	.LVL311:
 288:../src/tensorflow/lite/kernels/kernel_util.cc ****     const double bias_scale = static_cast<double>(bias->params.scale);
 2555                             		.loc 1 288 3 is_stmt 1
 2556                             	.LBB944:
 2557 0153 61 04                   		cmp	#0, r4
 2558 0155 20 23                   		beq	.L195
 2559                             	.LBB945:
 289:../src/tensorflow/lite/kernels/kernel_util.cc ****     // Here we're making sure the input_product_scale & bias_scale are about the
 2560                             		.loc 1 289 5
 2561                             	.LVL312:
 307:../src/tensorflow/lite/kernels/kernel_util.cc ****     const double output_scale = static_cast<double>(output->params.scale);
 2562                             		.loc 1 307 5
 2563                             	.LBB946:
 2564                             	.LBB947:
 2565                             		.loc 2 71 5
 2566                             	.LBE947:
 2567                             	.LBE946:
 308:../src/tensorflow/lite/kernels/kernel_util.cc **** 
 2568                             		.loc 1 308 5
 310:../src/tensorflow/lite/kernels/kernel_util.cc ****   }
 2569                             		.loc 1 310 5
 310:../src/tensorflow/lite/kernels/kernel_util.cc ****   }
 2570                             		.loc 1 310 5
 307:../src/tensorflow/lite/kernels/kernel_util.cc ****     const double output_scale = static_cast<double>(output->params.scale);
 2571                             		.loc 1 307 39 is_stmt 0
 2572 0157 A8 CF                   		mov.L	12[r4], r7
 310:../src/tensorflow/lite/kernels/kernel_util.cc ****   }
 2573                             		.loc 1 310 5
 2574 0159 AA 0D                   		mov.L	36[r0], r5
 2575 015b A8 DB                   		mov.L	12[r5], r3
 2576 015d FB 52 0A D7 A3 3C       		mov.L	#0x3ca3d70a, r5
 307:../src/tensorflow/lite/kernels/kernel_util.cc ****     const double output_scale = static_cast<double>(output->params.scale);
 2577                             		.loc 1 307 39
 2578 0163 FF 87 71                		fsub	r7, r1, r7
 2579                             	.LBB949:
 2580                             	.LBB948:
 2581                             		.loc 2 71 30
 2582 0166 7B F7                   		bclr #31, r7
 2583                             	.LBE948:
 2584                             	.LBE949:
 310:../src/tensorflow/lite/kernels/kernel_util.cc ****   }
 2585                             		.loc 1 310 5
 2586 0168 FC 93 37                		fdiv	r3, r7
 2587 016b FC 87 75                		fcmp	r7, r5
 2588 016e 26 05 38 DA 00          		bn	.L228
 2589                             	.LVL313:
 2590 0173 77 10 01 00 00          		.balign 8,3,6
 2591                             	.L195:
 2592                             	.LBE945:
 2593                             	.LBE944:
 312:../src/tensorflow/lite/kernels/kernel_util.cc ****                                           multiplier);
 2594                             		.loc 1 312 3 is_stmt 1
 2595                             	.LBB950:
 2596                             	.LBB951:
 321:../src/tensorflow/lite/kernels/kernel_util.cc ****       static_cast<double>(input->params.scale * filter->params.scale);
 2597                             		.loc 1 321 3
 323:../src/tensorflow/lite/kernels/kernel_util.cc ****   *multiplier = input_product_scale / static_cast<double>(output->params.scale);
 2598                             		.loc 1 323 3
 323:../src/tensorflow/lite/kernels/kernel_util.cc ****   *multiplier = input_product_scale / static_cast<double>(output->params.scale);
 2599                             		.loc 1 323 3
 2600 0178 FD 72 11 00 00 00 00    		fcmp	#0x0, r1
 2601 017f 26 05 38 ED 00          		bn	.L229
 324:../src/tensorflow/lite/kernels/kernel_util.cc **** 
 2602                             		.loc 1 324 3
 2603                             	.LVL314:
 326:../src/tensorflow/lite/kernels/kernel_util.cc **** }
 2604                             		.loc 1 326 3
 2605                             	.LBE951:
 2606                             	.LBE950:
 2607                             	.LBE943:
 2608                             	.LBE942:
 261:../src/tensorflow/lite/kernels/kernel_util.cc ****         context, input, filter, bias, output, &real_multiplier));
 2609                             		.loc 1 261 5
 2610                             	.LBE941:
 263:../src/tensorflow/lite/kernels/kernel_util.cc **** 
 2611                             		.loc 1 263 5
 266:../src/tensorflow/lite/kernels/kernel_util.cc ****     *shift = -exponent;
 2612                             		.loc 1 266 5
 2613                             	.LBB967:
 2614                             	.LBB964:
 2615                             	.LBB961:
 2616                             	.LBB956:
 2617                             	.LBB954:
 324:../src/tensorflow/lite/kernels/kernel_util.cc **** 
 2618                             		.loc 1 324 37 is_stmt 0
 2619 0184 AA 0D                   		mov.L	36[r0], r5
 2620 0186 A8 DF                   		mov.L	12[r5], r7
 2621                             	.LBE954:
 2622                             	.LBE956:
 2623                             	.LBE961:
 2624                             	.LBE964:
 2625                             	.LBE967:
 266:../src/tensorflow/lite/kernels/kernel_util.cc ****     *shift = -exponent;
 2626                             		.loc 1 266 23
 2627 0188 75 43 1C                		mov.L	#28, r3
 2628 018b 4B 03                   		add	r0, r3
 2629 018d AB 0A                   		mov.L	52[r0], r2
 2630 018f FC 93 71                		fdiv	r7, r1
 2631                             	.LVL315:
 2632 0192 05 00 00 00             		bsr	__ZN6tflite18QuantizeMultiplierEdPlPi
 2633                             	.LVL316:
 267:../src/tensorflow/lite/kernels/kernel_util.cc ****   }
 2634                             		.loc 1 267 5 is_stmt 1
 2635                             	.LBE940:
 2636                             	.LBE974:
 2637                             	.LBB975:
 269:../src/tensorflow/lite/kernels/kernel_util.cc ****       input->type == kTfLiteInt16) {
 2638                             		.loc 1 269 14 is_stmt 0
 2639 0196 EC A7                   		mov.L	[r10], r7
 2640                             	.LBE975:
 2641                             	.LBB976:
 2642                             	.LBB970:
 267:../src/tensorflow/lite/kernels/kernel_util.cc ****   }
 2643                             		.loc 1 267 14
 2644 0198 ED 0A 07                		mov.L	28[r0], r10
 2645 019b 7E 1A                   		neg	r10
 267:../src/tensorflow/lite/kernels/kernel_util.cc ****   }
 2646                             		.loc 1 267 12
 2647 019d AB 85                   		mov.L	56[r0], r5
 2648 019f E3 5A                   		mov.L	r10, [r5]
 2649                             	.LBE970:
 2650                             	.LBE976:
 269:../src/tensorflow/lite/kernels/kernel_util.cc ****       input->type == kTfLiteInt16) {
 2651                             		.loc 1 269 3 is_stmt 1
 2652                             	.LBB977:
 2653 01a1 61 97                   		cmp	#9, r7
 2654 01a3 16                      		beq	.L201
 269:../src/tensorflow/lite/kernels/kernel_util.cc ****       input->type == kTfLiteInt16) {
 2655                             		.loc 1 269 34 is_stmt 0
 2656 01a4 61 37                   		cmp	#3, r7
 2657 01a6 3B 56 FF                		bne	.L202
 2658                             	.LVL317:
 2659                             		.balign 8,3,1
 2660                             	.L201:
 2661                             	.LBE977:
 2662                             	.LBE983:
 2663                             	.LBE987:
 2664                             	.LBE993:
 2665                             	.LBE999:
 271:../src/tensorflow/lite/kernels/kernel_util.cc ****         context, activation, output, output_activation_min,
 2666                             		.loc 1 271 5 is_stmt 1
 2667                             	.LBB1000:
 2668                             	.LBB994:
 2669                             	.LBB988:
 2670                             	.LBB984:
 2671                             	.LBB978:
 2672                             	.LBB973:
 271:../src/tensorflow/lite/kernels/kernel_util.cc ****         context, activation, output, output_activation_min,
 2673                             		.loc 1 271 5
 2674 01a9 E1 00 0C                		mov.L	48[r0], [r0]
 2675                             	.LVL318:
 2676 01ac AA 8C                   		mov.L	44[r0], r4
 2677 01ae AA 87                   		mov.L	40[r0], r7
 2678 01b0 EC 72                   		mov.L	[r7], r2
 2679 01b2 AA 0B                   		mov.L	36[r0], r3
 2680 01b4 EF 61                   		mov.L	r6, r1
 2681 01b6 05 00 00 00             		bsr	__ZN6tflite33CalculateActivationRangeQuantizedEP13TfLiteContext21TfLiteFusedActivationP12TfLit
 2682                             	.LVL319:
 2683 01ba EF 18                   		mov.L	r1, r8
 2684                             	.LVL320:
 271:../src/tensorflow/lite/kernels/kernel_util.cc ****         context, activation, output, output_activation_min,
 2685                             		.loc 1 271 5
 2686 01bc 38 9E FE                		bra	.L182
 2687                             	.LVL321:
 2688                             	.L227:
 2689                             	.LBE973:
 2690                             	.LBE978:
 229:../src/tensorflow/lite/kernels/kernel_util.cc ****     TF_LITE_ENSURE_EQ(context, affine_quantization->scale->size, num_channels);
 2691                             		.loc 1 229 5
 229:../src/tensorflow/lite/kernels/kernel_util.cc ****     TF_LITE_ENSURE_EQ(context, affine_quantization->scale->size, num_channels);
 2692                             		.loc 1 229 5
 2693 01bf A9 6F                   		mov.L	20[r6], r7
 2694 01c1 3E 06 09                		mov.L	#9, 24[r0]
 2695                             	.LVL322:
 2696 01c4 A1 0B                   		mov.L	r3, 20[r0]
 2697 01c6 F9 02 04 D0 00 00 00    		mov.L	#.LC14, 16[r0]
 2698 01cd F9 02 03 DC 00 00 00    		mov.L	#.LC15, 12[r0]
 2699 01d4 3E 02 E5                		mov.L	#0xe5, 8[r0]
 2700 01d7 F9 02 01 22 00 00 00    		mov.L	#.LC3, 4[r0]
 2701 01de EF 61                   		mov.L	r6, r1
 2702                             	.LVL323:
 2703 01e0 F8 02 33 00 00 00       		mov.L	#.LC9, [r0]
 2704 01e6 EF 98                   		mov.L	r9, r8
 2705 01e8 7F 17                   		jsr	r7
 2706                             	.LVL324:
 229:../src/tensorflow/lite/kernels/kernel_util.cc ****     TF_LITE_ENSURE_EQ(context, affine_quantization->scale->size, num_channels);
 2707                             		.loc 1 229 5
 2708 01ea 38 70 FE                		bra	.L182
 2709                             	.LVL325:
 2710                             	.L189:
 237:../src/tensorflow/lite/kernels/kernel_util.cc ****   const float output_scale = output->params.scale;
 2711                             		.loc 1 237 3
 237:../src/tensorflow/lite/kernels/kernel_util.cc ****   const float output_scale = output->params.scale;
 2712                             		.loc 1 237 15 is_stmt 0
 2713 01ed E5 A0 03 0F             		mov.L	12[r10], 60[r0]
 2714                             	.LVL326:
 238:../src/tensorflow/lite/kernels/kernel_util.cc ****   const float* filter_scales = affine_quantization->scale->data;
 2715                             		.loc 1 238 3 is_stmt 1
 238:../src/tensorflow/lite/kernels/kernel_util.cc ****   const float* filter_scales = affine_quantization->scale->data;
 2716                             		.loc 1 238 15 is_stmt 0
 2717 01f1 AA 0F                   		mov.L	36[r0], r7
 2718 01f3 ED 7F 03                		mov.L	12[r7], r15
 2719                             	.LVL327:
 239:../src/tensorflow/lite/kernels/kernel_util.cc ****   for (int i = 0; i < num_channels; ++i) {
 2720                             		.loc 1 239 3 is_stmt 1
 239:../src/tensorflow/lite/kernels/kernel_util.cc ****   for (int i = 0; i < num_channels; ++i) {
 2721                             		.loc 1 239 16 is_stmt 0
 2722 01f6 71 E8 04                		add	#4, r14, r8
 2723                             	.LVL328:
 240:../src/tensorflow/lite/kernels/kernel_util.cc ****     // If per-tensor quantization parameter is specified, broadcast it along the
 2724                             		.loc 1 240 3 is_stmt 1
 239:../src/tensorflow/lite/kernels/kernel_util.cc ****   for (int i = 0; i < num_channels; ++i) {
 2725                             		.loc 1 239 16 is_stmt 0
 2726 01f9 66 07                   		mov.L	#0, r7
 2727 01fb E7 09 10                		mov.L	r9, 64[r0]
 2728 01fe EF 59                   		mov.L	r5, r9
 2729 0200 A4 0E                   		mov.L	r6, 68[r0]
 2730 0202 EF 76                   		mov.L	r7, r6
 2731 0204 EF F7                   		mov.L	r15, r7
 2732 0206 E7 0A 12                		mov.L	r10, 72[r0]
 2733 0209 ED 0A 0F                		mov.L	60[r0], r10
 2734 020c EF B5                   		mov.L	r11, r5
 2735 020e EF 8B                   		mov.L	r8, r11
 2736                             	.LVL329:
 2737 0210 A3 8C                   		mov.L	r4, 60[r0]
 2738 0212 EF 58                   		mov.L	r5, r8
 2739                             	.LVL330:
 2740                             		.balign 8,3,2
 2741                             	.L193:
 2742                             	.LBB979:
 2743                             	.LBB938:
 243:../src/tensorflow/lite/kernels/kernel_util.cc ****     const double filter_scale = static_cast<double>(scale);
 2744                             		.loc 1 243 5 is_stmt 1
 244:../src/tensorflow/lite/kernels/kernel_util.cc ****     const double effective_output_scale = static_cast<double>(input_scale) *
 2745                             		.loc 1 244 5
 245:../src/tensorflow/lite/kernels/kernel_util.cc ****                                           filter_scale /
 2746                             		.loc 1 245 5
 248:../src/tensorflow/lite/kernels/kernel_util.cc ****     int channel_shift;
 2747                             		.loc 1 248 5
 249:../src/tensorflow/lite/kernels/kernel_util.cc ****     QuantizeMultiplier(effective_output_scale, &significand, &channel_shift);
 2748                             		.loc 1 249 5
 250:../src/tensorflow/lite/kernels/kernel_util.cc ****     per_channel_multiplier[i] = significand;
 2749                             		.loc 1 250 5
 250:../src/tensorflow/lite/kernels/kernel_util.cc ****     per_channel_multiplier[i] = significand;
 2750                             		.loc 1 250 23 is_stmt 0
 2751 0214 75 43 1C                		mov.L	#28, r3
 2752 0217 4B 03                   		add	r0, r3
 245:../src/tensorflow/lite/kernels/kernel_util.cc ****                                           filter_scale /
 2753                             		.loc 1 245 76
 2754 0219 FE 66 B1                		mov.L	[r6,r11], r1
 250:../src/tensorflow/lite/kernels/kernel_util.cc ****     per_channel_multiplier[i] = significand;
 2755                             		.loc 1 250 23
 2756 021c 75 42 20                		mov.L	#32, r2
 2757 021f 4B 02                   		add	r0, r2
 245:../src/tensorflow/lite/kernels/kernel_util.cc ****                                           filter_scale /
 2758                             		.loc 1 245 76
 2759 0221 FC 8F A1                		fmul	r10, r1
 250:../src/tensorflow/lite/kernels/kernel_util.cc ****     per_channel_multiplier[i] = significand;
 2760                             		.loc 1 250 23
 2761 0224 FC 93 71                		fdiv	r7, r1
 2762 0227 05 00 00 00             		bsr	__ZN6tflite18QuantizeMultiplierEdPlPi
 2763                             	.LVL331:
 251:../src/tensorflow/lite/kernels/kernel_util.cc ****     per_channel_shift[i] = channel_shift;
 2764                             		.loc 1 251 5 is_stmt 1
 251:../src/tensorflow/lite/kernels/kernel_util.cc ****     per_channel_shift[i] = channel_shift;
 2765                             		.loc 1 251 31 is_stmt 0
 2766 022b AA 05                   		mov.L	32[r0], r5
 2767 022d FE 26 C5                		mov.L	r5, [r6,r12]
 252:../src/tensorflow/lite/kernels/kernel_util.cc ****   }
 2768                             		.loc 1 252 5 is_stmt 1
 252:../src/tensorflow/lite/kernels/kernel_util.cc ****   }
 2769                             		.loc 1 252 26 is_stmt 0
 2770 0230 A9 8B                   		mov.L	28[r0], r3
 2771 0232 FE 26 D3                		mov.L	r3, [r6,r13]
 2772                             	.LBE938:
 240:../src/tensorflow/lite/kernels/kernel_util.cc ****     // If per-tensor quantization parameter is specified, broadcast it along the
 2773                             		.loc 1 240 3
 2774 0235 62 16                   		add	#1, r6
 2775                             	.LVL332:
 240:../src/tensorflow/lite/kernels/kernel_util.cc ****     // If per-tensor quantization parameter is specified, broadcast it along the
 2776                             		.loc 1 240 21
 2777 0237 47 69                   		cmp	r6, r9
 2778 0239 2A DB                   		bgt	.L193
 2779 023b ED 09 10                		mov.L	64[r0], r9
 2780 023e AC 0E                   		mov.L	68[r0], r6
 2781                             	.LVL333:
 2782 0240 ED 0A 12                		mov.L	72[r0], r10
 2783                             	.LVL334:
 2784 0243 EF 8B                   		mov.L	r8, r11
 2785                             	.LVL335:
 2786 0245 AB 8C                   		mov.L	60[r0], r4
 2787 0247 38 AA FE                		bra	.L191
 2788                             	.LVL336:
 2789                             	.L228:
 2790                             	.LBE979:
 2791                             	.LBB980:
 2792                             	.LBB971:
 2793                             	.LBB968:
 2794                             	.LBB965:
 2795                             	.LBB962:
 2796                             	.LBB957:
 2797                             	.LBB958:
 2798                             	.LBB959:
 310:../src/tensorflow/lite/kernels/kernel_util.cc ****   }
 2799                             		.loc 1 310 5 is_stmt 1
 310:../src/tensorflow/lite/kernels/kernel_util.cc ****   }
 2800                             		.loc 1 310 5
 2801 024a A9 6F                   		mov.L	20[r6], r7
 2802 024c F9 02 03 00 00 00 00    		mov.L	#.LC2, 12[r0]
 2803                             	.LVL337:
 2804 0253 F9 0A 02 36 01          		mov.L	#0x136, 8[r0]
 2805 0258 F9 02 01 22 00 00 00    		mov.L	#.LC3, 4[r0]
 2806 025f EF 61                   		mov.L	r6, r1
 2807                             	.LVL338:
 2808 0261 F8 02 50 00 00 00       		mov.L	#.LC4, [r0]
 2809 0267 7F 17                   		jsr	r7
 2810                             	.LVL339:
 310:../src/tensorflow/lite/kernels/kernel_util.cc ****   }
 2811                             		.loc 1 310 5
 2812                             	.LBE959:
 2813                             	.LBE958:
 2814                             	.LBE957:
 2815                             	.LBE962:
 2816                             	.LBE965:
 261:../src/tensorflow/lite/kernels/kernel_util.cc ****         context, input, filter, bias, output, &real_multiplier));
 2817                             		.loc 1 261 5
 261:../src/tensorflow/lite/kernels/kernel_util.cc ****         context, input, filter, bias, output, &real_multiplier));
 2818                             		.loc 1 261 5
 2819                             	.LBE968:
 2820 0269 EF 98                   		mov.L	r9, r8
 2821 026b 38 EF FD                		bra	.L182
 2822                             	.LVL340:
 2823                             	.L229:
 2824                             	.LBB969:
 2825                             	.LBB966:
 2826                             	.LBB963:
 2827                             	.LBB960:
 2828                             	.LBB955:
 2829                             	.LBB952:
 2830                             	.LBB953:
 323:../src/tensorflow/lite/kernels/kernel_util.cc ****   *multiplier = input_product_scale / static_cast<double>(output->params.scale);
 2831                             		.loc 1 323 3
 323:../src/tensorflow/lite/kernels/kernel_util.cc ****   *multiplier = input_product_scale / static_cast<double>(output->params.scale);
 2832                             		.loc 1 323 3
 2833 026e A9 6F                   		mov.L	20[r6], r7
 2834 0270 F9 02 03 67 00 00 00    		mov.L	#.LC5, 12[r0]
 2835                             	.LVL341:
 2836 0277 F9 0A 02 43 01          		mov.L	#0x143, 8[r0]
 2837 027c F9 02 01 22 00 00 00    		mov.L	#.LC3, 4[r0]
 2838 0283 EF 61                   		mov.L	r6, r1
 2839                             	.LVL342:
 2840 0285 F8 02 50 00 00 00       		mov.L	#.LC4, [r0]
 2841 028b 7F 17                   		jsr	r7
 2842                             	.LVL343:
 323:../src/tensorflow/lite/kernels/kernel_util.cc ****   *multiplier = input_product_scale / static_cast<double>(output->params.scale);
 2843                             		.loc 1 323 3
 2844                             	.LBE953:
 2845                             	.LBE952:
 2846                             	.LBE955:
 2847                             	.LBE960:
 2848                             	.LBE963:
 2849                             	.LBE966:
 261:../src/tensorflow/lite/kernels/kernel_util.cc ****         context, input, filter, bias, output, &real_multiplier));
 2850                             		.loc 1 261 5
 261:../src/tensorflow/lite/kernels/kernel_util.cc ****         context, input, filter, bias, output, &real_multiplier));
 2851                             		.loc 1 261 5
 2852                             	.LBE969:
 2853 028d EF 98                   		mov.L	r9, r8
 2854 028f 38 CB FD                		bra	.L182
 2855                             	.LBE971:
 2856                             	.LBE980:
 2857                             	.LBE984:
 2858                             	.LBE988:
 2859                             	.LBE994:
 2860                             	.LBE1000:
 2861                             	.LFE3309:
 2863 0292 74 10 01 00 00 00       		.section	.text._ZN6tflite14HaveSameShapesEPK12TfLiteTensorS2_,"ax",@progbits
 2864                             		.global	__ZN6tflite14HaveSameShapesEPK12TfLiteTensorS2_
 2866                             	__ZN6tflite14HaveSameShapesEPK12TfLiteTensorS2_:
 2867                             	.LFB3316:
 381:../src/tensorflow/lite/kernels/kernel_util.cc **** 
 382:../src/tensorflow/lite/kernels/kernel_util.cc **** bool HaveSameShapes(const TfLiteTensor* input1, const TfLiteTensor* input2) {
 2868                             		.loc 1 382 77
 2869                             	.LVL344:
 383:../src/tensorflow/lite/kernels/kernel_util.cc ****   return TfLiteIntArrayEqual(input1->dims, input2->dims);
 2870                             		.loc 1 383 3
 2871                             		.loc 1 383 29 is_stmt 0
 2872 0000 A8 A2                   		mov.L	8[r2], r2
 2873                             	.LVL345:
 2874 0002 A8 91                   		mov.L	8[r1], r1
 2875                             	.LVL346:
 2876 0004 05 00 00 00             		bsr	_TfLiteIntArrayEqual
 2877                             	.LVL347:
 384:../src/tensorflow/lite/kernels/kernel_util.cc **** }
 2878                             		.loc 1 384 1
 2879 0008 61 01                   		cmp	#0, r1
 2880 000a FC DB 11                		scne.L	r1
 2881 000d 02                      		rts
 2882                             	.LFE3316:
 2884                             		.section	.text._ZN6tflite26CalculateShapeForBroadcastEP13TfLiteContextPK12TfLiteTensorS4_PP14TfLit
 2885                             		.global	__ZN6tflite26CalculateShapeForBroadcastEP13TfLiteContextPK12TfLiteTensorS4_PP14TfLiteIntAr
 2887                             	__ZN6tflite26CalculateShapeForBroadcastEP13TfLiteContextPK12TfLiteTensorS4_PP14TfLiteIntArray:
 2888                             	.LFB3317:
 385:../src/tensorflow/lite/kernels/kernel_util.cc **** 
 386:../src/tensorflow/lite/kernels/kernel_util.cc **** // TODO(petewarden): Having macros around this is ugly, look at other strategies
 387:../src/tensorflow/lite/kernels/kernel_util.cc **** // before replicating this approach elsewhere.
 388:../src/tensorflow/lite/kernels/kernel_util.cc **** #ifndef TF_LITE_STATIC_MEMORY
 389:../src/tensorflow/lite/kernels/kernel_util.cc **** TfLiteStatus CalculateShapeForBroadcast(TfLiteContext* context,
 390:../src/tensorflow/lite/kernels/kernel_util.cc ****                                         const TfLiteTensor* input1,
 391:../src/tensorflow/lite/kernels/kernel_util.cc ****                                         const TfLiteTensor* input2,
 392:../src/tensorflow/lite/kernels/kernel_util.cc ****                                         TfLiteIntArray** output_shape) {
 2889                             		.loc 1 392 72 is_stmt 1
 2890                             	.LVL348:
 2891 0000 6E 6D                   		pushm	r6-r13
 2892                             	.LCFI13:
 2893 0002 71 00 E4                		add	#-28, r0
 2894                             	.LCFI14:
 393:../src/tensorflow/lite/kernels/kernel_util.cc ****   int dims1 = NumDimensions(input1);
 2895                             		.loc 1 393 3
 392:../src/tensorflow/lite/kernels/kernel_util.cc ****   int dims1 = NumDimensions(input1);
 2896                             		.loc 1 392 72 is_stmt 0
 2897 0005 EF 1B                   		mov.L	r1, r11
 2898                             		.loc 1 393 28
 2899 0007 A8 A1                   		mov.L	8[r2], r1
 2900                             	.LVL349:
 2901                             	.LBB1001:
 2902                             	.LBB1002:
 2903                             		.file 4 "C:\\Users\\a5116938\\Desktop\\e2_studio_workspace\\EEMBC_final\\RX65N_Cloud_Kit\\src/tens
   1:C:\Users\a5116938\Desktop\e2_studio_workspace\EEMBC_final\RX65N_Cloud_Kit\src/tensorflow/lite/kernels\kernel_util.h **** /* Copyright 2017 The TensorFlow Authors. All Rights Reserved.
   2:C:\Users\a5116938\Desktop\e2_studio_workspace\EEMBC_final\RX65N_Cloud_Kit\src/tensorflow/lite/kernels\kernel_util.h **** 
   3:C:\Users\a5116938\Desktop\e2_studio_workspace\EEMBC_final\RX65N_Cloud_Kit\src/tensorflow/lite/kernels\kernel_util.h **** Licensed under the Apache License, Version 2.0 (the "License");
   4:C:\Users\a5116938\Desktop\e2_studio_workspace\EEMBC_final\RX65N_Cloud_Kit\src/tensorflow/lite/kernels\kernel_util.h **** you may not use this file except in compliance with the License.
   5:C:\Users\a5116938\Desktop\e2_studio_workspace\EEMBC_final\RX65N_Cloud_Kit\src/tensorflow/lite/kernels\kernel_util.h **** You may obtain a copy of the License at
   6:C:\Users\a5116938\Desktop\e2_studio_workspace\EEMBC_final\RX65N_Cloud_Kit\src/tensorflow/lite/kernels\kernel_util.h **** 
   7:C:\Users\a5116938\Desktop\e2_studio_workspace\EEMBC_final\RX65N_Cloud_Kit\src/tensorflow/lite/kernels\kernel_util.h ****     http://www.apache.org/licenses/LICENSE-2.0
   8:C:\Users\a5116938\Desktop\e2_studio_workspace\EEMBC_final\RX65N_Cloud_Kit\src/tensorflow/lite/kernels\kernel_util.h **** 
   9:C:\Users\a5116938\Desktop\e2_studio_workspace\EEMBC_final\RX65N_Cloud_Kit\src/tensorflow/lite/kernels\kernel_util.h **** Unless required by applicable law or agreed to in writing, software
  10:C:\Users\a5116938\Desktop\e2_studio_workspace\EEMBC_final\RX65N_Cloud_Kit\src/tensorflow/lite/kernels\kernel_util.h **** distributed under the License is distributed on an "AS IS" BASIS,
  11:C:\Users\a5116938\Desktop\e2_studio_workspace\EEMBC_final\RX65N_Cloud_Kit\src/tensorflow/lite/kernels\kernel_util.h **** WITHOUT WARRANTIES OR CONDITIONS OF ANY KIND, either express or implied.
  12:C:\Users\a5116938\Desktop\e2_studio_workspace\EEMBC_final\RX65N_Cloud_Kit\src/tensorflow/lite/kernels\kernel_util.h **** See the License for the specific language governing permissions and
  13:C:\Users\a5116938\Desktop\e2_studio_workspace\EEMBC_final\RX65N_Cloud_Kit\src/tensorflow/lite/kernels\kernel_util.h **** limitations under the License.
  14:C:\Users\a5116938\Desktop\e2_studio_workspace\EEMBC_final\RX65N_Cloud_Kit\src/tensorflow/lite/kernels\kernel_util.h **** ==============================================================================*/
  15:C:\Users\a5116938\Desktop\e2_studio_workspace\EEMBC_final\RX65N_Cloud_Kit\src/tensorflow/lite/kernels\kernel_util.h **** #ifndef TENSORFLOW_LITE_KERNELS_KERNEL_UTIL_H_
  16:C:\Users\a5116938\Desktop\e2_studio_workspace\EEMBC_final\RX65N_Cloud_Kit\src/tensorflow/lite/kernels\kernel_util.h **** #define TENSORFLOW_LITE_KERNELS_KERNEL_UTIL_H_
  17:C:\Users\a5116938\Desktop\e2_studio_workspace\EEMBC_final\RX65N_Cloud_Kit\src/tensorflow/lite/kernels\kernel_util.h **** 
  18:C:\Users\a5116938\Desktop\e2_studio_workspace\EEMBC_final\RX65N_Cloud_Kit\src/tensorflow/lite/kernels\kernel_util.h **** #include <stdint.h>
  19:C:\Users\a5116938\Desktop\e2_studio_workspace\EEMBC_final\RX65N_Cloud_Kit\src/tensorflow/lite/kernels\kernel_util.h **** 
  20:C:\Users\a5116938\Desktop\e2_studio_workspace\EEMBC_final\RX65N_Cloud_Kit\src/tensorflow/lite/kernels\kernel_util.h **** #include <limits>
  21:C:\Users\a5116938\Desktop\e2_studio_workspace\EEMBC_final\RX65N_Cloud_Kit\src/tensorflow/lite/kernels\kernel_util.h **** 
  22:C:\Users\a5116938\Desktop\e2_studio_workspace\EEMBC_final\RX65N_Cloud_Kit\src/tensorflow/lite/kernels\kernel_util.h **** #include "tensorflow/lite/c/builtin_op_data.h"
  23:C:\Users\a5116938\Desktop\e2_studio_workspace\EEMBC_final\RX65N_Cloud_Kit\src/tensorflow/lite/kernels\kernel_util.h **** #include "tensorflow/lite/c/common.h"
  24:C:\Users\a5116938\Desktop\e2_studio_workspace\EEMBC_final\RX65N_Cloud_Kit\src/tensorflow/lite/kernels\kernel_util.h **** 
  25:C:\Users\a5116938\Desktop\e2_studio_workspace\EEMBC_final\RX65N_Cloud_Kit\src/tensorflow/lite/kernels\kernel_util.h **** namespace tflite {
  26:C:\Users\a5116938\Desktop\e2_studio_workspace\EEMBC_final\RX65N_Cloud_Kit\src/tensorflow/lite/kernels\kernel_util.h **** 
  27:C:\Users\a5116938\Desktop\e2_studio_workspace\EEMBC_final\RX65N_Cloud_Kit\src/tensorflow/lite/kernels\kernel_util.h **** // A fair number of functions in this header have historically been inline.
  28:C:\Users\a5116938\Desktop\e2_studio_workspace\EEMBC_final\RX65N_Cloud_Kit\src/tensorflow/lite/kernels\kernel_util.h **** // It is ok to change functions to not be inline if the latency with
  29:C:\Users\a5116938\Desktop\e2_studio_workspace\EEMBC_final\RX65N_Cloud_Kit\src/tensorflow/lite/kernels\kernel_util.h **** // benchmark_model for MobileNet + MobileBERT is unaffected. If such a change is
  30:C:\Users\a5116938\Desktop\e2_studio_workspace\EEMBC_final\RX65N_Cloud_Kit\src/tensorflow/lite/kernels\kernel_util.h **** // made, move the newly non-inlined function declarations to the top of this
  31:C:\Users\a5116938\Desktop\e2_studio_workspace\EEMBC_final\RX65N_Cloud_Kit\src/tensorflow/lite/kernels\kernel_util.h **** // header file.
  32:C:\Users\a5116938\Desktop\e2_studio_workspace\EEMBC_final\RX65N_Cloud_Kit\src/tensorflow/lite/kernels\kernel_util.h **** 
  33:C:\Users\a5116938\Desktop\e2_studio_workspace\EEMBC_final\RX65N_Cloud_Kit\src/tensorflow/lite/kernels\kernel_util.h **** // Note: You must check if result is not null:
  34:C:\Users\a5116938\Desktop\e2_studio_workspace\EEMBC_final\RX65N_Cloud_Kit\src/tensorflow/lite/kernels\kernel_util.h **** //
  35:C:\Users\a5116938\Desktop\e2_studio_workspace\EEMBC_final\RX65N_Cloud_Kit\src/tensorflow/lite/kernels\kernel_util.h **** //   TfLiteTensor* my_tensor = GetInput(context, node, kMyTensorIdx);
  36:C:\Users\a5116938\Desktop\e2_studio_workspace\EEMBC_final\RX65N_Cloud_Kit\src/tensorflow/lite/kernels\kernel_util.h **** //   TF_LITE_ENSURE(context, my_tensor != nullptr);
  37:C:\Users\a5116938\Desktop\e2_studio_workspace\EEMBC_final\RX65N_Cloud_Kit\src/tensorflow/lite/kernels\kernel_util.h **** //
  38:C:\Users\a5116938\Desktop\e2_studio_workspace\EEMBC_final\RX65N_Cloud_Kit\src/tensorflow/lite/kernels\kernel_util.h **** // This is because the index might point to the optional tensor constant
  39:C:\Users\a5116938\Desktop\e2_studio_workspace\EEMBC_final\RX65N_Cloud_Kit\src/tensorflow/lite/kernels\kernel_util.h **** // (kTfLiteOptionalTensor) in which case there is no tensor to return.
  40:C:\Users\a5116938\Desktop\e2_studio_workspace\EEMBC_final\RX65N_Cloud_Kit\src/tensorflow/lite/kernels\kernel_util.h **** const TfLiteTensor* GetInput(const TfLiteContext* context,
  41:C:\Users\a5116938\Desktop\e2_studio_workspace\EEMBC_final\RX65N_Cloud_Kit\src/tensorflow/lite/kernels\kernel_util.h ****                              const TfLiteNode* node, int index);
  42:C:\Users\a5116938\Desktop\e2_studio_workspace\EEMBC_final\RX65N_Cloud_Kit\src/tensorflow/lite/kernels\kernel_util.h **** 
  43:C:\Users\a5116938\Desktop\e2_studio_workspace\EEMBC_final\RX65N_Cloud_Kit\src/tensorflow/lite/kernels\kernel_util.h **** // Same as `GetInput` but returns boolean and uses output argument for tensor.
  44:C:\Users\a5116938\Desktop\e2_studio_workspace\EEMBC_final\RX65N_Cloud_Kit\src/tensorflow/lite/kernels\kernel_util.h **** //
  45:C:\Users\a5116938\Desktop\e2_studio_workspace\EEMBC_final\RX65N_Cloud_Kit\src/tensorflow/lite/kernels\kernel_util.h **** //   TfLiteTensor* my_tensor;
  46:C:\Users\a5116938\Desktop\e2_studio_workspace\EEMBC_final\RX65N_Cloud_Kit\src/tensorflow/lite/kernels\kernel_util.h **** //   TF_LITE_ENSURE_OK(context,
  47:C:\Users\a5116938\Desktop\e2_studio_workspace\EEMBC_final\RX65N_Cloud_Kit\src/tensorflow/lite/kernels\kernel_util.h **** //                     GetInputSafe(context, node, kMyTensorIdx, &my_tensor));
  48:C:\Users\a5116938\Desktop\e2_studio_workspace\EEMBC_final\RX65N_Cloud_Kit\src/tensorflow/lite/kernels\kernel_util.h **** //   // can use my_tensor directly from here onwards, it is not nullptr
  49:C:\Users\a5116938\Desktop\e2_studio_workspace\EEMBC_final\RX65N_Cloud_Kit\src/tensorflow/lite/kernels\kernel_util.h **** //
  50:C:\Users\a5116938\Desktop\e2_studio_workspace\EEMBC_final\RX65N_Cloud_Kit\src/tensorflow/lite/kernels\kernel_util.h **** // Should be used in cases where the binary size is too large.
  51:C:\Users\a5116938\Desktop\e2_studio_workspace\EEMBC_final\RX65N_Cloud_Kit\src/tensorflow/lite/kernels\kernel_util.h **** TfLiteStatus GetInputSafe(const TfLiteContext* context, const TfLiteNode* node,
  52:C:\Users\a5116938\Desktop\e2_studio_workspace\EEMBC_final\RX65N_Cloud_Kit\src/tensorflow/lite/kernels\kernel_util.h ****                           int index, const TfLiteTensor** tensor);
  53:C:\Users\a5116938\Desktop\e2_studio_workspace\EEMBC_final\RX65N_Cloud_Kit\src/tensorflow/lite/kernels\kernel_util.h **** 
  54:C:\Users\a5116938\Desktop\e2_studio_workspace\EEMBC_final\RX65N_Cloud_Kit\src/tensorflow/lite/kernels\kernel_util.h **** // Note: You must check if result is not null:
  55:C:\Users\a5116938\Desktop\e2_studio_workspace\EEMBC_final\RX65N_Cloud_Kit\src/tensorflow/lite/kernels\kernel_util.h **** //
  56:C:\Users\a5116938\Desktop\e2_studio_workspace\EEMBC_final\RX65N_Cloud_Kit\src/tensorflow/lite/kernels\kernel_util.h **** //   TfLiteTensor* my_tensor = GetVariableInput(context, node, kMyTensorIdx);
  57:C:\Users\a5116938\Desktop\e2_studio_workspace\EEMBC_final\RX65N_Cloud_Kit\src/tensorflow/lite/kernels\kernel_util.h **** //   TF_LITE_ENSURE(context, my_tensor != nullptr);
  58:C:\Users\a5116938\Desktop\e2_studio_workspace\EEMBC_final\RX65N_Cloud_Kit\src/tensorflow/lite/kernels\kernel_util.h **** //
  59:C:\Users\a5116938\Desktop\e2_studio_workspace\EEMBC_final\RX65N_Cloud_Kit\src/tensorflow/lite/kernels\kernel_util.h **** // This is because the index might point to the optional tensor constant
  60:C:\Users\a5116938\Desktop\e2_studio_workspace\EEMBC_final\RX65N_Cloud_Kit\src/tensorflow/lite/kernels\kernel_util.h **** // (kTfLiteOptionalTensor) in which case there is no tensor to return.
  61:C:\Users\a5116938\Desktop\e2_studio_workspace\EEMBC_final\RX65N_Cloud_Kit\src/tensorflow/lite/kernels\kernel_util.h **** TfLiteTensor* GetVariableInput(TfLiteContext* context, const TfLiteNode* node,
  62:C:\Users\a5116938\Desktop\e2_studio_workspace\EEMBC_final\RX65N_Cloud_Kit\src/tensorflow/lite/kernels\kernel_util.h ****                                int index);
  63:C:\Users\a5116938\Desktop\e2_studio_workspace\EEMBC_final\RX65N_Cloud_Kit\src/tensorflow/lite/kernels\kernel_util.h **** 
  64:C:\Users\a5116938\Desktop\e2_studio_workspace\EEMBC_final\RX65N_Cloud_Kit\src/tensorflow/lite/kernels\kernel_util.h **** // Note: You must check if result is not null:
  65:C:\Users\a5116938\Desktop\e2_studio_workspace\EEMBC_final\RX65N_Cloud_Kit\src/tensorflow/lite/kernels\kernel_util.h **** //
  66:C:\Users\a5116938\Desktop\e2_studio_workspace\EEMBC_final\RX65N_Cloud_Kit\src/tensorflow/lite/kernels\kernel_util.h **** //   TfLiteTensor* my_tensor = GetOutput(context, node, kMyTensorIdx);
  67:C:\Users\a5116938\Desktop\e2_studio_workspace\EEMBC_final\RX65N_Cloud_Kit\src/tensorflow/lite/kernels\kernel_util.h **** //   TF_LITE_ENSURE(context, my_tensor != nullptr);
  68:C:\Users\a5116938\Desktop\e2_studio_workspace\EEMBC_final\RX65N_Cloud_Kit\src/tensorflow/lite/kernels\kernel_util.h **** //
  69:C:\Users\a5116938\Desktop\e2_studio_workspace\EEMBC_final\RX65N_Cloud_Kit\src/tensorflow/lite/kernels\kernel_util.h **** // This is because the index might point to the optional tensor constant
  70:C:\Users\a5116938\Desktop\e2_studio_workspace\EEMBC_final\RX65N_Cloud_Kit\src/tensorflow/lite/kernels\kernel_util.h **** // (kTfLiteOptionalTensor) in which case there is no tensor to return.
  71:C:\Users\a5116938\Desktop\e2_studio_workspace\EEMBC_final\RX65N_Cloud_Kit\src/tensorflow/lite/kernels\kernel_util.h **** TfLiteTensor* GetOutput(TfLiteContext* context, const TfLiteNode* node,
  72:C:\Users\a5116938\Desktop\e2_studio_workspace\EEMBC_final\RX65N_Cloud_Kit\src/tensorflow/lite/kernels\kernel_util.h ****                         int index);
  73:C:\Users\a5116938\Desktop\e2_studio_workspace\EEMBC_final\RX65N_Cloud_Kit\src/tensorflow/lite/kernels\kernel_util.h **** 
  74:C:\Users\a5116938\Desktop\e2_studio_workspace\EEMBC_final\RX65N_Cloud_Kit\src/tensorflow/lite/kernels\kernel_util.h **** // Same as `GetOutput` but returns boolean and uses output argument for tensor.
  75:C:\Users\a5116938\Desktop\e2_studio_workspace\EEMBC_final\RX65N_Cloud_Kit\src/tensorflow/lite/kernels\kernel_util.h **** //
  76:C:\Users\a5116938\Desktop\e2_studio_workspace\EEMBC_final\RX65N_Cloud_Kit\src/tensorflow/lite/kernels\kernel_util.h **** //   TfLiteTensor* my_tensor;
  77:C:\Users\a5116938\Desktop\e2_studio_workspace\EEMBC_final\RX65N_Cloud_Kit\src/tensorflow/lite/kernels\kernel_util.h **** //   TF_LITE_ENSURE_OK(context,
  78:C:\Users\a5116938\Desktop\e2_studio_workspace\EEMBC_final\RX65N_Cloud_Kit\src/tensorflow/lite/kernels\kernel_util.h **** //                     GetOutputSafe(context, node, kMyTensorIdx, &my_tensor));
  79:C:\Users\a5116938\Desktop\e2_studio_workspace\EEMBC_final\RX65N_Cloud_Kit\src/tensorflow/lite/kernels\kernel_util.h **** //   // can use my_tensor directly from here onwards, it is not nullptr
  80:C:\Users\a5116938\Desktop\e2_studio_workspace\EEMBC_final\RX65N_Cloud_Kit\src/tensorflow/lite/kernels\kernel_util.h **** //
  81:C:\Users\a5116938\Desktop\e2_studio_workspace\EEMBC_final\RX65N_Cloud_Kit\src/tensorflow/lite/kernels\kernel_util.h **** // Should be used in cases where the binary size is too large.
  82:C:\Users\a5116938\Desktop\e2_studio_workspace\EEMBC_final\RX65N_Cloud_Kit\src/tensorflow/lite/kernels\kernel_util.h **** TfLiteStatus GetOutputSafe(const TfLiteContext* context, const TfLiteNode* node,
  83:C:\Users\a5116938\Desktop\e2_studio_workspace\EEMBC_final\RX65N_Cloud_Kit\src/tensorflow/lite/kernels\kernel_util.h ****                            int index, TfLiteTensor** tensor);
  84:C:\Users\a5116938\Desktop\e2_studio_workspace\EEMBC_final\RX65N_Cloud_Kit\src/tensorflow/lite/kernels\kernel_util.h **** 
  85:C:\Users\a5116938\Desktop\e2_studio_workspace\EEMBC_final\RX65N_Cloud_Kit\src/tensorflow/lite/kernels\kernel_util.h **** // Note: You must check if result is not null:
  86:C:\Users\a5116938\Desktop\e2_studio_workspace\EEMBC_final\RX65N_Cloud_Kit\src/tensorflow/lite/kernels\kernel_util.h **** //
  87:C:\Users\a5116938\Desktop\e2_studio_workspace\EEMBC_final\RX65N_Cloud_Kit\src/tensorflow/lite/kernels\kernel_util.h **** //   TfLiteTensor* my_tensor = GetOptionalInputTensor(context, node, kIdx);
  88:C:\Users\a5116938\Desktop\e2_studio_workspace\EEMBC_final\RX65N_Cloud_Kit\src/tensorflow/lite/kernels\kernel_util.h **** //   TF_LITE_ENSURE(context, my_tensor != nullptr);
  89:C:\Users\a5116938\Desktop\e2_studio_workspace\EEMBC_final\RX65N_Cloud_Kit\src/tensorflow/lite/kernels\kernel_util.h **** //
  90:C:\Users\a5116938\Desktop\e2_studio_workspace\EEMBC_final\RX65N_Cloud_Kit\src/tensorflow/lite/kernels\kernel_util.h **** // This is because the index might point to the optional tensor constant
  91:C:\Users\a5116938\Desktop\e2_studio_workspace\EEMBC_final\RX65N_Cloud_Kit\src/tensorflow/lite/kernels\kernel_util.h **** // (kTfLiteOptionalTensor) in which case there is no tensor to return.
  92:C:\Users\a5116938\Desktop\e2_studio_workspace\EEMBC_final\RX65N_Cloud_Kit\src/tensorflow/lite/kernels\kernel_util.h **** //
  93:C:\Users\a5116938\Desktop\e2_studio_workspace\EEMBC_final\RX65N_Cloud_Kit\src/tensorflow/lite/kernels\kernel_util.h **** // Deprecated. GetInput has the same functionality.
  94:C:\Users\a5116938\Desktop\e2_studio_workspace\EEMBC_final\RX65N_Cloud_Kit\src/tensorflow/lite/kernels\kernel_util.h **** const TfLiteTensor* GetOptionalInputTensor(const TfLiteContext* context,
  95:C:\Users\a5116938\Desktop\e2_studio_workspace\EEMBC_final\RX65N_Cloud_Kit\src/tensorflow/lite/kernels\kernel_util.h ****                                            const TfLiteNode* node, int index);
  96:C:\Users\a5116938\Desktop\e2_studio_workspace\EEMBC_final\RX65N_Cloud_Kit\src/tensorflow/lite/kernels\kernel_util.h **** 
  97:C:\Users\a5116938\Desktop\e2_studio_workspace\EEMBC_final\RX65N_Cloud_Kit\src/tensorflow/lite/kernels\kernel_util.h **** #ifndef TF_LITE_STATIC_MEMORY
  98:C:\Users\a5116938\Desktop\e2_studio_workspace\EEMBC_final\RX65N_Cloud_Kit\src/tensorflow/lite/kernels\kernel_util.h **** // Note: You must check if result is not null:
  99:C:\Users\a5116938\Desktop\e2_studio_workspace\EEMBC_final\RX65N_Cloud_Kit\src/tensorflow/lite/kernels\kernel_util.h **** //
 100:C:\Users\a5116938\Desktop\e2_studio_workspace\EEMBC_final\RX65N_Cloud_Kit\src/tensorflow/lite/kernels\kernel_util.h **** //   TfLiteTensor* my_tensor = GetTemporary(context, node, kMyTensorIdx);
 101:C:\Users\a5116938\Desktop\e2_studio_workspace\EEMBC_final\RX65N_Cloud_Kit\src/tensorflow/lite/kernels\kernel_util.h **** //   TF_LITE_ENSURE(context, my_tensor != nullptr);
 102:C:\Users\a5116938\Desktop\e2_studio_workspace\EEMBC_final\RX65N_Cloud_Kit\src/tensorflow/lite/kernels\kernel_util.h **** //
 103:C:\Users\a5116938\Desktop\e2_studio_workspace\EEMBC_final\RX65N_Cloud_Kit\src/tensorflow/lite/kernels\kernel_util.h **** // This is because the index might point to the optional tensor constant
 104:C:\Users\a5116938\Desktop\e2_studio_workspace\EEMBC_final\RX65N_Cloud_Kit\src/tensorflow/lite/kernels\kernel_util.h **** // (kTfLiteOptionalTensor) in which case there is no tensor to return.
 105:C:\Users\a5116938\Desktop\e2_studio_workspace\EEMBC_final\RX65N_Cloud_Kit\src/tensorflow/lite/kernels\kernel_util.h **** TfLiteTensor* GetTemporary(TfLiteContext* context, const TfLiteNode* node,
 106:C:\Users\a5116938\Desktop\e2_studio_workspace\EEMBC_final\RX65N_Cloud_Kit\src/tensorflow/lite/kernels\kernel_util.h ****                            int index);
 107:C:\Users\a5116938\Desktop\e2_studio_workspace\EEMBC_final\RX65N_Cloud_Kit\src/tensorflow/lite/kernels\kernel_util.h **** 
 108:C:\Users\a5116938\Desktop\e2_studio_workspace\EEMBC_final\RX65N_Cloud_Kit\src/tensorflow/lite/kernels\kernel_util.h **** // Same as `GetTemporary` but returns boolean and uses output argument for
 109:C:\Users\a5116938\Desktop\e2_studio_workspace\EEMBC_final\RX65N_Cloud_Kit\src/tensorflow/lite/kernels\kernel_util.h **** // tensor.
 110:C:\Users\a5116938\Desktop\e2_studio_workspace\EEMBC_final\RX65N_Cloud_Kit\src/tensorflow/lite/kernels\kernel_util.h **** //
 111:C:\Users\a5116938\Desktop\e2_studio_workspace\EEMBC_final\RX65N_Cloud_Kit\src/tensorflow/lite/kernels\kernel_util.h **** //   TfLiteTensor* my_tensor;
 112:C:\Users\a5116938\Desktop\e2_studio_workspace\EEMBC_final\RX65N_Cloud_Kit\src/tensorflow/lite/kernels\kernel_util.h **** //   TF_LITE_ENSURE_OK(context,
 113:C:\Users\a5116938\Desktop\e2_studio_workspace\EEMBC_final\RX65N_Cloud_Kit\src/tensorflow/lite/kernels\kernel_util.h **** //                     GetTemporarySafe(context, node, kMyTensorIdx,
 114:C:\Users\a5116938\Desktop\e2_studio_workspace\EEMBC_final\RX65N_Cloud_Kit\src/tensorflow/lite/kernels\kernel_util.h **** //                     &my_tensor));
 115:C:\Users\a5116938\Desktop\e2_studio_workspace\EEMBC_final\RX65N_Cloud_Kit\src/tensorflow/lite/kernels\kernel_util.h **** //   // can use my_tensor directly from here onwards, it is not nullptr
 116:C:\Users\a5116938\Desktop\e2_studio_workspace\EEMBC_final\RX65N_Cloud_Kit\src/tensorflow/lite/kernels\kernel_util.h **** //
 117:C:\Users\a5116938\Desktop\e2_studio_workspace\EEMBC_final\RX65N_Cloud_Kit\src/tensorflow/lite/kernels\kernel_util.h **** // Should be used in cases where the binary size is too large.
 118:C:\Users\a5116938\Desktop\e2_studio_workspace\EEMBC_final\RX65N_Cloud_Kit\src/tensorflow/lite/kernels\kernel_util.h **** TfLiteStatus GetTemporarySafe(const TfLiteContext* context,
 119:C:\Users\a5116938\Desktop\e2_studio_workspace\EEMBC_final\RX65N_Cloud_Kit\src/tensorflow/lite/kernels\kernel_util.h ****                               const TfLiteNode* node, int index,
 120:C:\Users\a5116938\Desktop\e2_studio_workspace\EEMBC_final\RX65N_Cloud_Kit\src/tensorflow/lite/kernels\kernel_util.h ****                               TfLiteTensor** tensor);
 121:C:\Users\a5116938\Desktop\e2_studio_workspace\EEMBC_final\RX65N_Cloud_Kit\src/tensorflow/lite/kernels\kernel_util.h **** 
 122:C:\Users\a5116938\Desktop\e2_studio_workspace\EEMBC_final\RX65N_Cloud_Kit\src/tensorflow/lite/kernels\kernel_util.h **** // Note: You must check if result is not null:
 123:C:\Users\a5116938\Desktop\e2_studio_workspace\EEMBC_final\RX65N_Cloud_Kit\src/tensorflow/lite/kernels\kernel_util.h **** //
 124:C:\Users\a5116938\Desktop\e2_studio_workspace\EEMBC_final\RX65N_Cloud_Kit\src/tensorflow/lite/kernels\kernel_util.h **** //   TfLiteTensor* my_tensor = GetIntermediates(context, node, kMyTensorIdx);
 125:C:\Users\a5116938\Desktop\e2_studio_workspace\EEMBC_final\RX65N_Cloud_Kit\src/tensorflow/lite/kernels\kernel_util.h **** //   TF_LITE_ENSURE(context, my_tensor != nullptr);
 126:C:\Users\a5116938\Desktop\e2_studio_workspace\EEMBC_final\RX65N_Cloud_Kit\src/tensorflow/lite/kernels\kernel_util.h **** //
 127:C:\Users\a5116938\Desktop\e2_studio_workspace\EEMBC_final\RX65N_Cloud_Kit\src/tensorflow/lite/kernels\kernel_util.h **** // This is because the index might point to the optional tensor constant
 128:C:\Users\a5116938\Desktop\e2_studio_workspace\EEMBC_final\RX65N_Cloud_Kit\src/tensorflow/lite/kernels\kernel_util.h **** // (kTfLiteOptionalTensor) in which case there is no tensor to return.
 129:C:\Users\a5116938\Desktop\e2_studio_workspace\EEMBC_final\RX65N_Cloud_Kit\src/tensorflow/lite/kernels\kernel_util.h **** const TfLiteTensor* GetIntermediates(TfLiteContext* context,
 130:C:\Users\a5116938\Desktop\e2_studio_workspace\EEMBC_final\RX65N_Cloud_Kit\src/tensorflow/lite/kernels\kernel_util.h ****                                      const TfLiteNode* node, int index);
 131:C:\Users\a5116938\Desktop\e2_studio_workspace\EEMBC_final\RX65N_Cloud_Kit\src/tensorflow/lite/kernels\kernel_util.h **** 
 132:C:\Users\a5116938\Desktop\e2_studio_workspace\EEMBC_final\RX65N_Cloud_Kit\src/tensorflow/lite/kernels\kernel_util.h **** // Same as `GetIntermediates` but returns boolean and uses output argument for
 133:C:\Users\a5116938\Desktop\e2_studio_workspace\EEMBC_final\RX65N_Cloud_Kit\src/tensorflow/lite/kernels\kernel_util.h **** // tensor.
 134:C:\Users\a5116938\Desktop\e2_studio_workspace\EEMBC_final\RX65N_Cloud_Kit\src/tensorflow/lite/kernels\kernel_util.h **** //
 135:C:\Users\a5116938\Desktop\e2_studio_workspace\EEMBC_final\RX65N_Cloud_Kit\src/tensorflow/lite/kernels\kernel_util.h **** //   TfLiteTensor* my_tensor;
 136:C:\Users\a5116938\Desktop\e2_studio_workspace\EEMBC_final\RX65N_Cloud_Kit\src/tensorflow/lite/kernels\kernel_util.h **** //   TF_LITE_ENSURE_OK(context,
 137:C:\Users\a5116938\Desktop\e2_studio_workspace\EEMBC_final\RX65N_Cloud_Kit\src/tensorflow/lite/kernels\kernel_util.h **** //                     GetIntermediatesSafe(context, node, kMyTensorIdx,
 138:C:\Users\a5116938\Desktop\e2_studio_workspace\EEMBC_final\RX65N_Cloud_Kit\src/tensorflow/lite/kernels\kernel_util.h **** //                     &my_tensor));
 139:C:\Users\a5116938\Desktop\e2_studio_workspace\EEMBC_final\RX65N_Cloud_Kit\src/tensorflow/lite/kernels\kernel_util.h **** //   // can use my_tensor directly from here onwards, it is not nullptr
 140:C:\Users\a5116938\Desktop\e2_studio_workspace\EEMBC_final\RX65N_Cloud_Kit\src/tensorflow/lite/kernels\kernel_util.h **** //
 141:C:\Users\a5116938\Desktop\e2_studio_workspace\EEMBC_final\RX65N_Cloud_Kit\src/tensorflow/lite/kernels\kernel_util.h **** // Should be used in cases where the binary size is too large.
 142:C:\Users\a5116938\Desktop\e2_studio_workspace\EEMBC_final\RX65N_Cloud_Kit\src/tensorflow/lite/kernels\kernel_util.h **** TfLiteStatus GetIntermediatesSafe(const TfLiteContext* context,
 143:C:\Users\a5116938\Desktop\e2_studio_workspace\EEMBC_final\RX65N_Cloud_Kit\src/tensorflow/lite/kernels\kernel_util.h ****                                   const TfLiteNode* node, int index,
 144:C:\Users\a5116938\Desktop\e2_studio_workspace\EEMBC_final\RX65N_Cloud_Kit\src/tensorflow/lite/kernels\kernel_util.h ****                                   TfLiteTensor** tensor);
 145:C:\Users\a5116938\Desktop\e2_studio_workspace\EEMBC_final\RX65N_Cloud_Kit\src/tensorflow/lite/kernels\kernel_util.h **** #endif  // TF_LITE_STATIC_MEMORY
 146:C:\Users\a5116938\Desktop\e2_studio_workspace\EEMBC_final\RX65N_Cloud_Kit\src/tensorflow/lite/kernels\kernel_util.h **** 
 147:C:\Users\a5116938\Desktop\e2_studio_workspace\EEMBC_final\RX65N_Cloud_Kit\src/tensorflow/lite/kernels\kernel_util.h **** inline int NumDimensions(const TfLiteTensor* t) { return t->dims->size; }
 2904                             		.loc 4 147 51 is_stmt 1
 2905                             	.LBE1002:
 2906                             	.LBE1001:
 392:../src/tensorflow/lite/kernels/kernel_util.cc ****   int dims1 = NumDimensions(input1);
 2907                             		.loc 1 392 72 is_stmt 0
 2908 0009 EF 4C                   		mov.L	r4, r12
 2909                             	.LBB1004:
 2910                             	.LBB1003:
 2911                             		.loc 4 147 67
 2912 000b EC 17                   		mov.L	[r1], r7
 2913                             	.LVL350:
 2914                             	.LBE1003:
 2915                             	.LBE1004:
 394:../src/tensorflow/lite/kernels/kernel_util.cc ****   int dims2 = NumDimensions(input2);
 2916                             		.loc 1 394 3 is_stmt 1
 2917                             	.LBB1005:
 2918                             	.LBB1006:
 2919                             		.loc 4 147 51
 2920                             	.LBE1006:
 2921                             	.LBE1005:
 395:../src/tensorflow/lite/kernels/kernel_util.cc ****   int out_dims = std::max(dims1, dims2);
 2922                             		.loc 1 395 3
 396:../src/tensorflow/lite/kernels/kernel_util.cc ****   if (NumElements(input1) == 0) {
 2923                             		.loc 1 396 3
 148:C:\Users\a5116938\Desktop\e2_studio_workspace\EEMBC_final\RX65N_Cloud_Kit\src/tensorflow/lite/kernels\kernel_util.h **** inline int SizeOfDimension(const TfLiteTensor* t, int dim) {
 149:C:\Users\a5116938\Desktop\e2_studio_workspace\EEMBC_final\RX65N_Cloud_Kit\src/tensorflow/lite/kernels\kernel_util.h ****   return t->dims->data[dim];
 150:C:\Users\a5116938\Desktop\e2_studio_workspace\EEMBC_final\RX65N_Cloud_Kit\src/tensorflow/lite/kernels\kernel_util.h **** }
 151:C:\Users\a5116938\Desktop\e2_studio_workspace\EEMBC_final\RX65N_Cloud_Kit\src/tensorflow/lite/kernels\kernel_util.h **** 
 152:C:\Users\a5116938\Desktop\e2_studio_workspace\EEMBC_final\RX65N_Cloud_Kit\src/tensorflow/lite/kernels\kernel_util.h **** inline int NumInputs(const TfLiteNode* node) { return node->inputs->size; }
 153:C:\Users\a5116938\Desktop\e2_studio_workspace\EEMBC_final\RX65N_Cloud_Kit\src/tensorflow/lite/kernels\kernel_util.h **** inline int NumOutputs(const TfLiteNode* node) { return node->outputs->size; }
 154:C:\Users\a5116938\Desktop\e2_studio_workspace\EEMBC_final\RX65N_Cloud_Kit\src/tensorflow/lite/kernels\kernel_util.h **** 
 155:C:\Users\a5116938\Desktop\e2_studio_workspace\EEMBC_final\RX65N_Cloud_Kit\src/tensorflow/lite/kernels\kernel_util.h **** #ifndef TF_LITE_STATIC_MEMORY
 156:C:\Users\a5116938\Desktop\e2_studio_workspace\EEMBC_final\RX65N_Cloud_Kit\src/tensorflow/lite/kernels\kernel_util.h **** inline int NumIntermediates(const TfLiteNode* node) {
 157:C:\Users\a5116938\Desktop\e2_studio_workspace\EEMBC_final\RX65N_Cloud_Kit\src/tensorflow/lite/kernels\kernel_util.h ****   return node->intermediates->size;
 158:C:\Users\a5116938\Desktop\e2_studio_workspace\EEMBC_final\RX65N_Cloud_Kit\src/tensorflow/lite/kernels\kernel_util.h **** }
 159:C:\Users\a5116938\Desktop\e2_studio_workspace\EEMBC_final\RX65N_Cloud_Kit\src/tensorflow/lite/kernels\kernel_util.h **** #endif  // TF_LITE_STATIC_MEMORY
 160:C:\Users\a5116938\Desktop\e2_studio_workspace\EEMBC_final\RX65N_Cloud_Kit\src/tensorflow/lite/kernels\kernel_util.h **** 
 161:C:\Users\a5116938\Desktop\e2_studio_workspace\EEMBC_final\RX65N_Cloud_Kit\src/tensorflow/lite/kernels\kernel_util.h **** inline int64_t NumElements(const TfLiteIntArray* dims) {
 162:C:\Users\a5116938\Desktop\e2_studio_workspace\EEMBC_final\RX65N_Cloud_Kit\src/tensorflow/lite/kernels\kernel_util.h ****   int64_t count = 1;
 163:C:\Users\a5116938\Desktop\e2_studio_workspace\EEMBC_final\RX65N_Cloud_Kit\src/tensorflow/lite/kernels\kernel_util.h ****   for (int i = 0; i < dims->size; ++i) {
 164:C:\Users\a5116938\Desktop\e2_studio_workspace\EEMBC_final\RX65N_Cloud_Kit\src/tensorflow/lite/kernels\kernel_util.h ****     count *= dims->data[i];
 165:C:\Users\a5116938\Desktop\e2_studio_workspace\EEMBC_final\RX65N_Cloud_Kit\src/tensorflow/lite/kernels\kernel_util.h ****   }
 166:C:\Users\a5116938\Desktop\e2_studio_workspace\EEMBC_final\RX65N_Cloud_Kit\src/tensorflow/lite/kernels\kernel_util.h ****   return count;
 167:C:\Users\a5116938\Desktop\e2_studio_workspace\EEMBC_final\RX65N_Cloud_Kit\src/tensorflow/lite/kernels\kernel_util.h **** }
 168:C:\Users\a5116938\Desktop\e2_studio_workspace\EEMBC_final\RX65N_Cloud_Kit\src/tensorflow/lite/kernels\kernel_util.h **** 
 169:C:\Users\a5116938\Desktop\e2_studio_workspace\EEMBC_final\RX65N_Cloud_Kit\src/tensorflow/lite/kernels\kernel_util.h **** inline int64_t NumElements(const TfLiteTensor* t) {
 170:C:\Users\a5116938\Desktop\e2_studio_workspace\EEMBC_final\RX65N_Cloud_Kit\src/tensorflow/lite/kernels\kernel_util.h ****   return NumElements(t->dims);
 2924                             		.loc 4 170 3
 2925                             	.LBB1009:
 2926                             	.LBB1010:
 2927                             	.LBB1011:
 162:C:\Users\a5116938\Desktop\e2_studio_workspace\EEMBC_final\RX65N_Cloud_Kit\src/tensorflow/lite/kernels\kernel_util.h ****   for (int i = 0; i < dims->size; ++i) {
 2928                             		.loc 4 162 3
 163:C:\Users\a5116938\Desktop\e2_studio_workspace\EEMBC_final\RX65N_Cloud_Kit\src/tensorflow/lite/kernels\kernel_util.h ****     count *= dims->data[i];
 2929                             		.loc 4 163 3
 2930                             	.LBB1012:
 163:C:\Users\a5116938\Desktop\e2_studio_workspace\EEMBC_final\RX65N_Cloud_Kit\src/tensorflow/lite/kernels\kernel_util.h ****     count *= dims->data[i];
 2931                             		.loc 4 163 21 is_stmt 0
 2932 000d 61 07                   		cmp	#0, r7
 2933 000f 2A 05 38 DC 00          		ble	.L232
 2934                             	.LBE1012:
 162:C:\Users\a5116938\Desktop\e2_studio_workspace\EEMBC_final\RX65N_Cloud_Kit\src/tensorflow/lite/kernels\kernel_util.h ****   for (int i = 0; i < dims->size; ++i) {
 2935                             		.loc 4 162 11
 2936 0014 66 14                   		mov.L	#1, r4
 2937                             	.LVL351:
 2938                             	.LBB1013:
 163:C:\Users\a5116938\Desktop\e2_studio_workspace\EEMBC_final\RX65N_Cloud_Kit\src/tensorflow/lite/kernels\kernel_util.h ****     count *= dims->data[i];
 2939                             		.loc 4 163 12
 2940 0016 66 0A                   		mov.L	#0, r10
 2941                             	.LBE1013:
 162:C:\Users\a5116938\Desktop\e2_studio_workspace\EEMBC_final\RX65N_Cloud_Kit\src/tensorflow/lite/kernels\kernel_util.h ****   for (int i = 0; i < dims->size; ++i) {
 2942                             		.loc 4 162 11
 2943 0018 66 05                   		mov.L	#0, r5
 2944                             	.LBB1014:
 164:C:\Users\a5116938\Desktop\e2_studio_workspace\EEMBC_final\RX65N_Cloud_Kit\src/tensorflow/lite/kernels\kernel_util.h ****   }
 2945                             		.loc 4 164 26
 2946 001a 71 1D 04                		add	#4, r1, r13
 2947                             	.LVL352:
 2948 001d FC 13 00                		.balign 8,3,3
 2949                             	.L233:
 164:C:\Users\a5116938\Desktop\e2_studio_workspace\EEMBC_final\RX65N_Cloud_Kit\src/tensorflow/lite/kernels\kernel_util.h ****   }
 2950                             		.loc 4 164 5 is_stmt 1
 164:C:\Users\a5116938\Desktop\e2_studio_workspace\EEMBC_final\RX65N_Cloud_Kit\src/tensorflow/lite/kernels\kernel_util.h ****   }
 2951                             		.loc 4 164 26 is_stmt 0
 2952 0020 FE 6A D8                		mov.L	[r10,r13], r8
 163:C:\Users\a5116938\Desktop\e2_studio_workspace\EEMBC_final\RX65N_Cloud_Kit\src/tensorflow/lite/kernels\kernel_util.h ****     count *= dims->data[i];
 2953                             		.loc 4 163 3
 2954 0023 62 1A                   		add	#1, r10
 2955                             	.LVL353:
 164:C:\Users\a5116938\Desktop\e2_studio_workspace\EEMBC_final\RX65N_Cloud_Kit\src/tensorflow/lite/kernels\kernel_util.h ****   }
 2956                             		.loc 4 164 26
 2957 0025 FD BF 89                		shar	#31, r8, r9
 164:C:\Users\a5116938\Desktop\e2_studio_workspace\EEMBC_final\RX65N_Cloud_Kit\src/tensorflow/lite/kernels\kernel_util.h ****   }
 2958                             		.loc 4 164 11
 2959 0028 FF 36 85                		mul	r8, r5, r6
 2960 002b 4F 49                   		mul	r4, r9
 2961 002d FC 1F 84                		emulu	r8, r4
 2962                             	.LVL354:
 2963 0030 4B 96                   		add	r9, r6
 2964 0032 4B 65                   		add	r6, r5
 2965                             	.LVL355:
 163:C:\Users\a5116938\Desktop\e2_studio_workspace\EEMBC_final\RX65N_Cloud_Kit\src/tensorflow/lite/kernels\kernel_util.h ****     count *= dims->data[i];
 2966                             		.loc 4 163 21
 2967 0034 47 7A                   		cmp	r7, r10
 2968 0036 21 EA                   		bne	.L233
 2969                             	.LBE1014:
 166:C:\Users\a5116938\Desktop\e2_studio_workspace\EEMBC_final\RX65N_Cloud_Kit\src/tensorflow/lite/kernels\kernel_util.h **** }
 2970                             		.loc 4 166 3 is_stmt 1
 2971                             	.LVL356:
 2972                             	.LBE1011:
 2973                             	.LBE1010:
 2974                             	.LBE1009:
 2975                             		.loc 1 396 3 is_stmt 0
 2976 0038 57 54                   		or	r5, r4
 2977 003a 61 04                   		cmp	#0, r4
 2978 003c 20 74                   		beq	.L256
 2979                             	.LBB1015:
 2980                             	.LBB1007:
 147:C:\Users\a5116938\Desktop\e2_studio_workspace\EEMBC_final\RX65N_Cloud_Kit\src/tensorflow/lite/kernels\kernel_util.h **** inline int SizeOfDimension(const TfLiteTensor* t, int dim) {
 2981                             		.loc 4 147 67
 2982 003e ED 3A 02                		mov.L	8[r3], r10
 2983 0041 EC AA                   		mov.L	[r10], r10
 2984 0043 EF 76                   		mov.L	r7, r6
 2985 0045 FC 13 A6                		max	r10, r6
 2986                             	.LBE1007:
 2987                             	.LBE1015:
 397:../src/tensorflow/lite/kernels/kernel_util.cc ****     *output_shape = TfLiteIntArrayCopy(input1->dims);
 398:../src/tensorflow/lite/kernels/kernel_util.cc ****     return kTfLiteOk;
 399:../src/tensorflow/lite/kernels/kernel_util.cc ****   }
 400:../src/tensorflow/lite/kernels/kernel_util.cc ****   std::unique_ptr<TfLiteIntArray, void (*)(TfLiteIntArray*)> shape(
 2988                             		.loc 1 400 3 is_stmt 1
 401:../src/tensorflow/lite/kernels/kernel_util.cc ****       TfLiteIntArrayCreate(out_dims), TfLiteIntArrayFree);
 2989                             		.loc 1 401 57 is_stmt 0
 2990 0048 EF 61                   		mov.L	r6, r1
 2991 004a A1 02                   		mov.L	r2, 16[r0]
 2992 004c A1 0B                   		mov.L	r3, 20[r0]
 2993 004e 05 00 00 00             		bsr	_TfLiteIntArrayCreate
 2994                             	.LVL357:
 2995 0052 EF 18                   		mov.L	r1, r8
 2996                             	.LVL358:
 402:../src/tensorflow/lite/kernels/kernel_util.cc ****   for (int i = 0; i < out_dims; ++i) {
 2997                             		.loc 1 402 3 is_stmt 1
 2998 0054 A9 02                   		mov.L	16[r0], r2
 2999 0056 A9 0B                   		mov.L	20[r0], r3
 3000                             		.balign 8,3,2
 3001                             	.L242:
 3002 0058 71 6E 01                		add	#1, r6, r14
 3003                             	.LBB1016:
 3004                             		.loc 1 402 12 is_stmt 0
 3005 005b 66 05                   		mov.L	#0, r5
 3006 005d 6C 2E                   		shll	#2, r14
 3007                             	.LBB1017:
 403:../src/tensorflow/lite/kernels/kernel_util.cc ****     int d1 = i >= dims1 ? 1 : SizeOfDimension(input1, dims1 - i - 1);
 3008                             		.loc 1 403 25
 3009 005f 66 1D                   		mov.L	#1, r13
 3010 0061 4B 8E                   		add	r8, r14
 3011                             	.LBB1018:
 3012                             	.LBB1019:
 149:C:\Users\a5116938\Desktop\e2_studio_workspace\EEMBC_final\RX65N_Cloud_Kit\src/tensorflow/lite/kernels\kernel_util.h **** }
 3013                             		.loc 4 149 27
 3014 0063 71 79 FF                		add	#-1, r7, r9
 3015                             	.LBE1019:
 3016                             	.LBE1018:
 3017                             	.LBB1022:
 3018                             	.LBB1023:
 3019 0066 71 A4 FF                		add	#-1, r10, r4
 3020 0069 E7 0B 06                		mov.L	r11, 24[r0]
 3021                             	.LVL359:
 3022                             		.balign 8,3,1
 3023                             	.L241:
 3024                             	.LBE1023:
 3025                             	.LBE1022:
 3026                             		.loc 1 403 5 is_stmt 1
 3027                             	.LBB1026:
 3028                             	.LBB1020:
 149:C:\Users\a5116938\Desktop\e2_studio_workspace\EEMBC_final\RX65N_Cloud_Kit\src/tensorflow/lite/kernels\kernel_util.h **** }
 3029                             		.loc 4 149 3
 3030                             	.LBE1020:
 3031                             	.LBE1026:
 3032                             		.loc 1 403 25 is_stmt 0
 3033 006c 47 75                   		cmp	r7, r5
 3034 006e 28 3E                   		bge	.L243
 3035                             	.LBB1027:
 3036                             	.LBB1021:
 149:C:\Users\a5116938\Desktop\e2_studio_workspace\EEMBC_final\RX65N_Cloud_Kit\src/tensorflow/lite/kernels\kernel_util.h **** }
 3037                             		.loc 4 149 27 discriminator 1
 3038 0070 ED 2F 02                		mov.L	8[r2], r15
 3039 0073 FF 01 59                		sub	r5, r9, r1
 3040 0076 62 11                   		add	#1, r1
 3041 0078 FE 61 F1                		mov.L	[r1,r15], r1
 3042                             	.LVL360:
 3043                             		.balign 8,3,1
 3044                             	.L237:
 3045                             	.LBE1021:
 3046                             	.LBE1027:
 404:../src/tensorflow/lite/kernels/kernel_util.cc ****     int d2 = i >= dims2 ? 1 : SizeOfDimension(input2, dims2 - i - 1);
 3047                             		.loc 1 404 5 is_stmt 1 discriminator 4
 3048                             	.LBB1028:
 3049                             	.LBB1024:
 149:C:\Users\a5116938\Desktop\e2_studio_workspace\EEMBC_final\RX65N_Cloud_Kit\src/tensorflow/lite/kernels\kernel_util.h **** }
 3050                             		.loc 4 149 3 discriminator 4
 3051                             	.LBE1024:
 3052                             	.LBE1028:
 405:../src/tensorflow/lite/kernels/kernel_util.cc ****     TF_LITE_ENSURE(context, d1 == d2 || d1 == 1 || d2 == 1);
 406:../src/tensorflow/lite/kernels/kernel_util.cc ****     shape->data[out_dims - i - 1] = std::max(d1, d2);
 3053                             		.loc 1 406 5 discriminator 4
 404:../src/tensorflow/lite/kernels/kernel_util.cc ****     int d2 = i >= dims2 ? 1 : SizeOfDimension(input2, dims2 - i - 1);
 3054                             		.loc 1 404 25 is_stmt 0 discriminator 4
 3055 007b 47 A5                   		cmp	r10, r5
 3056 007d 28 2B                   		bge	.L244
 3057                             	.LBB1029:
 3058                             	.LBB1025:
 149:C:\Users\a5116938\Desktop\e2_studio_workspace\EEMBC_final\RX65N_Cloud_Kit\src/tensorflow/lite/kernels\kernel_util.h **** }
 3059                             		.loc 4 149 27 discriminator 1
 3060 007f FF 0F 54                		sub	r5, r4, r15
 3061 0082 62 1F                   		add	#1, r15
 3062 0084 ED 3B 02                		mov.L	8[r3], r11
 3063 0087 FE 6F BF                		mov.L	[r15,r11], r15
 3064                             	.LVL361:
 3065                             	.LBE1025:
 3066                             	.LBE1029:
 405:../src/tensorflow/lite/kernels/kernel_util.cc ****     TF_LITE_ENSURE(context, d1 == d2 || d1 == 1 || d2 == 1);
 3067                             		.loc 1 405 5 is_stmt 1 discriminator 1
 405:../src/tensorflow/lite/kernels/kernel_util.cc ****     TF_LITE_ENSURE(context, d1 == d2 || d1 == 1 || d2 == 1);
 3068                             		.loc 1 405 5 discriminator 1
 3069 008a 47 F1                   		cmp	r15, r1
 3070 008c 20 0C                   		beq	.L239
 3071 008e 61 11                   		cmp	#1, r1
 3072 0090 15                      		beq	.L238
 405:../src/tensorflow/lite/kernels/kernel_util.cc ****     TF_LITE_ENSURE(context, d1 == d2 || d1 == 1 || d2 == 1);
 3073                             		.loc 1 405 5 is_stmt 0 discriminator 2
 3074 0091 61 1F                   		cmp	#1, r15
 3075 0093 21 28                   		bne	.L257
 3076                             	.LVL362:
 3077                             		.balign 8,3,2
 3078                             	.L238:
 3079 0095 FC 13 1F                		max	r1, r15
 3080                             		.balign 8,3,1
 3081                             	.L239:
 3082                             	.LBE1017:
 402:../src/tensorflow/lite/kernels/kernel_util.cc ****     int d1 = i >= dims1 ? 1 : SizeOfDimension(input1, dims1 - i - 1);
 3083                             		.loc 1 402 3
 3084 0098 62 15                   		add	#1, r5
 3085                             	.LVL363:
 3086                             	.LBB1030:
 3087                             		.loc 1 406 35
 3088 009a FD 26 EF                		mov.L	r15, [-r14]
 3089                             	.LVL364:
 3090                             	.LBE1030:
 402:../src/tensorflow/lite/kernels/kernel_util.cc ****     int d1 = i >= dims1 ? 1 : SizeOfDimension(input1, dims1 - i - 1);
 3091                             		.loc 1 402 21
 3092 009d 47 65                   		cmp	r6, r5
 3093 009f 21 CD                   		bne	.L241
 3094                             	.LBE1016:
 407:../src/tensorflow/lite/kernels/kernel_util.cc ****   }
 408:../src/tensorflow/lite/kernels/kernel_util.cc ****   *output_shape = shape.release();
 3095                             		.loc 1 408 3 is_stmt 1
 3096                             	.LVL365:
 3097                             		.loc 1 408 17 is_stmt 0
 3098 00a1 E3 C8                   		mov.L	r8, [r12]
 409:../src/tensorflow/lite/kernels/kernel_util.cc ****   return kTfLiteOk;
 3099                             		.loc 1 409 3 is_stmt 1
 3100                             	.LVL366:
 3101                             		.loc 1 409 10 is_stmt 0
 3102 00a3 66 01                   		mov.L	#0, r1
 3103                             	.LVL367:
 3104                             		.balign 8,3,2
 3105                             	.L231:
 410:../src/tensorflow/lite/kernels/kernel_util.cc **** }
 3106                             		.loc 1 410 1
 3107 00a5 3F 6D 0F                		rtsd	#60, r6-r13
 3108                             	.LVL368:
 3109                             	.L244:
 3110                             	.LBB1034:
 3111                             	.LBB1031:
 404:../src/tensorflow/lite/kernels/kernel_util.cc ****     TF_LITE_ENSURE(context, d1 == d2 || d1 == 1 || d2 == 1);
 3112                             		.loc 1 404 25
 3113 00a8 66 1F                   		mov.L	#1, r15
 3114 00aa 2E EB                   		bra	.L238
 3115                             	.LVL369:
 3116                             	.L243:
 403:../src/tensorflow/lite/kernels/kernel_util.cc ****     int d2 = i >= dims2 ? 1 : SizeOfDimension(input2, dims2 - i - 1);
 3117                             		.loc 1 403 25
 3118 00ac EF D1                   		mov.L	r13, r1
 3119 00ae 2E CD                   		bra	.L237
 3120                             	.LVL370:
 3121                             	.L256:
 3122                             	.LBE1031:
 3123                             	.LBE1034:
 397:../src/tensorflow/lite/kernels/kernel_util.cc ****     return kTfLiteOk;
 3124                             		.loc 1 397 5 is_stmt 1
 397:../src/tensorflow/lite/kernels/kernel_util.cc ****     return kTfLiteOk;
 3125                             		.loc 1 397 39 is_stmt 0
 3126 00b0 05 00 00 00             		bsr	_TfLiteIntArrayCopy
 3127                             	.LVL371:
 397:../src/tensorflow/lite/kernels/kernel_util.cc ****     return kTfLiteOk;
 3128                             		.loc 1 397 19
 3129 00b4 E3 C1                   		mov.L	r1, [r12]
 398:../src/tensorflow/lite/kernels/kernel_util.cc ****   }
 3130                             		.loc 1 398 5 is_stmt 1
 398:../src/tensorflow/lite/kernels/kernel_util.cc ****   }
 3131                             		.loc 1 398 12 is_stmt 0
 3132 00b6 66 01                   		mov.L	#0, r1
 3133                             		.loc 1 410 1
 3134 00b8 3F 6D 0F                		rtsd	#60, r6-r13
 3135                             	.LVL372:
 3136                             	.L257:
 3137 00bb ED 0B 06                		mov.L	24[r0], r11
 3138                             	.LBB1035:
 3139                             	.LBB1032:
 405:../src/tensorflow/lite/kernels/kernel_util.cc ****     shape->data[out_dims - i - 1] = std::max(d1, d2);
 3140                             		.loc 1 405 5 is_stmt 1 discriminator 3
 405:../src/tensorflow/lite/kernels/kernel_util.cc ****     shape->data[out_dims - i - 1] = std::max(d1, d2);
 3141                             		.loc 1 405 5 discriminator 3
 3142 00be ED B7 05                		mov.L	20[r11], r7
 3143                             	.LVL373:
 3144 00c1 F9 02 03 00 00 00 00    		mov.L	#.LC19, 12[r0]
 3145 00c8 F9 0A 02 95 01          		mov.L	#0x195, 8[r0]
 3146 00cd F9 02 01 22 00 00 00    		mov.L	#.LC3, 4[r0]
 3147 00d4 EF B1                   		mov.L	r11, r1
 3148                             	.LVL374:
 3149 00d6 F8 02 50 00 00 00       		mov.L	#.LC4, [r0]
 3150 00dc 7F 17                   		jsr	r7
 3151                             	.LVL375:
 405:../src/tensorflow/lite/kernels/kernel_util.cc ****     shape->data[out_dims - i - 1] = std::max(d1, d2);
 3152                             		.loc 1 405 5 discriminator 3
 3153                             	.LBE1032:
 3154                             	.LBE1035:
 3155                             	.LBB1036:
 3156                             	.LBB1037:
 3157                             		.file 5 "c:\\gcc for renesas rx 8.3.0.202004-gnurx-elf\\rx-elf\\rx-elf\\rx-elf\\include\\c++\\8.3.
   1:c:\gcc for renesas rx 8.3.0.202004-gnurx-elf\rx-elf\rx-elf\rx-elf\include\c++\8.3.0.202004-gnurx\bits\unique_ptr.h **** // unique_ptr implementation -*- C++ -*-
   2:c:\gcc for renesas rx 8.3.0.202004-gnurx-elf\rx-elf\rx-elf\rx-elf\include\c++\8.3.0.202004-gnurx\bits\unique_ptr.h **** 
   3:c:\gcc for renesas rx 8.3.0.202004-gnurx-elf\rx-elf\rx-elf\rx-elf\include\c++\8.3.0.202004-gnurx\bits\unique_ptr.h **** // Copyright (C) 2008-2018 Free Software Foundation, Inc.
   4:c:\gcc for renesas rx 8.3.0.202004-gnurx-elf\rx-elf\rx-elf\rx-elf\include\c++\8.3.0.202004-gnurx\bits\unique_ptr.h **** //
   5:c:\gcc for renesas rx 8.3.0.202004-gnurx-elf\rx-elf\rx-elf\rx-elf\include\c++\8.3.0.202004-gnurx\bits\unique_ptr.h **** // This file is part of the GNU ISO C++ Library.  This library is free
   6:c:\gcc for renesas rx 8.3.0.202004-gnurx-elf\rx-elf\rx-elf\rx-elf\include\c++\8.3.0.202004-gnurx\bits\unique_ptr.h **** // software; you can redistribute it and/or modify it under the
   7:c:\gcc for renesas rx 8.3.0.202004-gnurx-elf\rx-elf\rx-elf\rx-elf\include\c++\8.3.0.202004-gnurx\bits\unique_ptr.h **** // terms of the GNU General Public License as published by the
   8:c:\gcc for renesas rx 8.3.0.202004-gnurx-elf\rx-elf\rx-elf\rx-elf\include\c++\8.3.0.202004-gnurx\bits\unique_ptr.h **** // Free Software Foundation; either version 3, or (at your option)
   9:c:\gcc for renesas rx 8.3.0.202004-gnurx-elf\rx-elf\rx-elf\rx-elf\include\c++\8.3.0.202004-gnurx\bits\unique_ptr.h **** // any later version.
  10:c:\gcc for renesas rx 8.3.0.202004-gnurx-elf\rx-elf\rx-elf\rx-elf\include\c++\8.3.0.202004-gnurx\bits\unique_ptr.h **** 
  11:c:\gcc for renesas rx 8.3.0.202004-gnurx-elf\rx-elf\rx-elf\rx-elf\include\c++\8.3.0.202004-gnurx\bits\unique_ptr.h **** // This library is distributed in the hope that it will be useful,
  12:c:\gcc for renesas rx 8.3.0.202004-gnurx-elf\rx-elf\rx-elf\rx-elf\include\c++\8.3.0.202004-gnurx\bits\unique_ptr.h **** // but WITHOUT ANY WARRANTY; without even the implied warranty of
  13:c:\gcc for renesas rx 8.3.0.202004-gnurx-elf\rx-elf\rx-elf\rx-elf\include\c++\8.3.0.202004-gnurx\bits\unique_ptr.h **** // MERCHANTABILITY or FITNESS FOR A PARTICULAR PURPOSE.  See the
  14:c:\gcc for renesas rx 8.3.0.202004-gnurx-elf\rx-elf\rx-elf\rx-elf\include\c++\8.3.0.202004-gnurx\bits\unique_ptr.h **** // GNU General Public License for more details.
  15:c:\gcc for renesas rx 8.3.0.202004-gnurx-elf\rx-elf\rx-elf\rx-elf\include\c++\8.3.0.202004-gnurx\bits\unique_ptr.h **** 
  16:c:\gcc for renesas rx 8.3.0.202004-gnurx-elf\rx-elf\rx-elf\rx-elf\include\c++\8.3.0.202004-gnurx\bits\unique_ptr.h **** // Under Section 7 of GPL version 3, you are granted additional
  17:c:\gcc for renesas rx 8.3.0.202004-gnurx-elf\rx-elf\rx-elf\rx-elf\include\c++\8.3.0.202004-gnurx\bits\unique_ptr.h **** // permissions described in the GCC Runtime Library Exception, version
  18:c:\gcc for renesas rx 8.3.0.202004-gnurx-elf\rx-elf\rx-elf\rx-elf\include\c++\8.3.0.202004-gnurx\bits\unique_ptr.h **** // 3.1, as published by the Free Software Foundation.
  19:c:\gcc for renesas rx 8.3.0.202004-gnurx-elf\rx-elf\rx-elf\rx-elf\include\c++\8.3.0.202004-gnurx\bits\unique_ptr.h **** 
  20:c:\gcc for renesas rx 8.3.0.202004-gnurx-elf\rx-elf\rx-elf\rx-elf\include\c++\8.3.0.202004-gnurx\bits\unique_ptr.h **** // You should have received a copy of the GNU General Public License and
  21:c:\gcc for renesas rx 8.3.0.202004-gnurx-elf\rx-elf\rx-elf\rx-elf\include\c++\8.3.0.202004-gnurx\bits\unique_ptr.h **** // a copy of the GCC Runtime Library Exception along with this program;
  22:c:\gcc for renesas rx 8.3.0.202004-gnurx-elf\rx-elf\rx-elf\rx-elf\include\c++\8.3.0.202004-gnurx\bits\unique_ptr.h **** // see the files COPYING3 and COPYING.RUNTIME respectively.  If not, see
  23:c:\gcc for renesas rx 8.3.0.202004-gnurx-elf\rx-elf\rx-elf\rx-elf\include\c++\8.3.0.202004-gnurx\bits\unique_ptr.h **** // <http://www.gnu.org/licenses/>.
  24:c:\gcc for renesas rx 8.3.0.202004-gnurx-elf\rx-elf\rx-elf\rx-elf\include\c++\8.3.0.202004-gnurx\bits\unique_ptr.h **** 
  25:c:\gcc for renesas rx 8.3.0.202004-gnurx-elf\rx-elf\rx-elf\rx-elf\include\c++\8.3.0.202004-gnurx\bits\unique_ptr.h **** /** @file bits/unique_ptr.h
  26:c:\gcc for renesas rx 8.3.0.202004-gnurx-elf\rx-elf\rx-elf\rx-elf\include\c++\8.3.0.202004-gnurx\bits\unique_ptr.h ****  *  This is an internal header file, included by other library headers.
  27:c:\gcc for renesas rx 8.3.0.202004-gnurx-elf\rx-elf\rx-elf\rx-elf\include\c++\8.3.0.202004-gnurx\bits\unique_ptr.h ****  *  Do not attempt to use it directly. @headername{memory}
  28:c:\gcc for renesas rx 8.3.0.202004-gnurx-elf\rx-elf\rx-elf\rx-elf\include\c++\8.3.0.202004-gnurx\bits\unique_ptr.h ****  */
  29:c:\gcc for renesas rx 8.3.0.202004-gnurx-elf\rx-elf\rx-elf\rx-elf\include\c++\8.3.0.202004-gnurx\bits\unique_ptr.h **** 
  30:c:\gcc for renesas rx 8.3.0.202004-gnurx-elf\rx-elf\rx-elf\rx-elf\include\c++\8.3.0.202004-gnurx\bits\unique_ptr.h **** #ifndef _UNIQUE_PTR_H
  31:c:\gcc for renesas rx 8.3.0.202004-gnurx-elf\rx-elf\rx-elf\rx-elf\include\c++\8.3.0.202004-gnurx\bits\unique_ptr.h **** #define _UNIQUE_PTR_H 1
  32:c:\gcc for renesas rx 8.3.0.202004-gnurx-elf\rx-elf\rx-elf\rx-elf\include\c++\8.3.0.202004-gnurx\bits\unique_ptr.h **** 
  33:c:\gcc for renesas rx 8.3.0.202004-gnurx-elf\rx-elf\rx-elf\rx-elf\include\c++\8.3.0.202004-gnurx\bits\unique_ptr.h **** #include <bits/c++config.h>
  34:c:\gcc for renesas rx 8.3.0.202004-gnurx-elf\rx-elf\rx-elf\rx-elf\include\c++\8.3.0.202004-gnurx\bits\unique_ptr.h **** #include <debug/assertions.h>
  35:c:\gcc for renesas rx 8.3.0.202004-gnurx-elf\rx-elf\rx-elf\rx-elf\include\c++\8.3.0.202004-gnurx\bits\unique_ptr.h **** #include <type_traits>
  36:c:\gcc for renesas rx 8.3.0.202004-gnurx-elf\rx-elf\rx-elf\rx-elf\include\c++\8.3.0.202004-gnurx\bits\unique_ptr.h **** #include <utility>
  37:c:\gcc for renesas rx 8.3.0.202004-gnurx-elf\rx-elf\rx-elf\rx-elf\include\c++\8.3.0.202004-gnurx\bits\unique_ptr.h **** #include <tuple>
  38:c:\gcc for renesas rx 8.3.0.202004-gnurx-elf\rx-elf\rx-elf\rx-elf\include\c++\8.3.0.202004-gnurx\bits\unique_ptr.h **** #include <bits/stl_function.h>
  39:c:\gcc for renesas rx 8.3.0.202004-gnurx-elf\rx-elf\rx-elf\rx-elf\include\c++\8.3.0.202004-gnurx\bits\unique_ptr.h **** #include <bits/functional_hash.h>
  40:c:\gcc for renesas rx 8.3.0.202004-gnurx-elf\rx-elf\rx-elf\rx-elf\include\c++\8.3.0.202004-gnurx\bits\unique_ptr.h **** 
  41:c:\gcc for renesas rx 8.3.0.202004-gnurx-elf\rx-elf\rx-elf\rx-elf\include\c++\8.3.0.202004-gnurx\bits\unique_ptr.h **** namespace std _GLIBCXX_VISIBILITY(default)
  42:c:\gcc for renesas rx 8.3.0.202004-gnurx-elf\rx-elf\rx-elf\rx-elf\include\c++\8.3.0.202004-gnurx\bits\unique_ptr.h **** {
  43:c:\gcc for renesas rx 8.3.0.202004-gnurx-elf\rx-elf\rx-elf\rx-elf\include\c++\8.3.0.202004-gnurx\bits\unique_ptr.h **** _GLIBCXX_BEGIN_NAMESPACE_VERSION
  44:c:\gcc for renesas rx 8.3.0.202004-gnurx-elf\rx-elf\rx-elf\rx-elf\include\c++\8.3.0.202004-gnurx\bits\unique_ptr.h **** 
  45:c:\gcc for renesas rx 8.3.0.202004-gnurx-elf\rx-elf\rx-elf\rx-elf\include\c++\8.3.0.202004-gnurx\bits\unique_ptr.h ****   /**
  46:c:\gcc for renesas rx 8.3.0.202004-gnurx-elf\rx-elf\rx-elf\rx-elf\include\c++\8.3.0.202004-gnurx\bits\unique_ptr.h ****    * @addtogroup pointer_abstractions
  47:c:\gcc for renesas rx 8.3.0.202004-gnurx-elf\rx-elf\rx-elf\rx-elf\include\c++\8.3.0.202004-gnurx\bits\unique_ptr.h ****    * @{
  48:c:\gcc for renesas rx 8.3.0.202004-gnurx-elf\rx-elf\rx-elf\rx-elf\include\c++\8.3.0.202004-gnurx\bits\unique_ptr.h ****    */
  49:c:\gcc for renesas rx 8.3.0.202004-gnurx-elf\rx-elf\rx-elf\rx-elf\include\c++\8.3.0.202004-gnurx\bits\unique_ptr.h **** 
  50:c:\gcc for renesas rx 8.3.0.202004-gnurx-elf\rx-elf\rx-elf\rx-elf\include\c++\8.3.0.202004-gnurx\bits\unique_ptr.h **** #if _GLIBCXX_USE_DEPRECATED
  51:c:\gcc for renesas rx 8.3.0.202004-gnurx-elf\rx-elf\rx-elf\rx-elf\include\c++\8.3.0.202004-gnurx\bits\unique_ptr.h **** #pragma GCC diagnostic push
  52:c:\gcc for renesas rx 8.3.0.202004-gnurx-elf\rx-elf\rx-elf\rx-elf\include\c++\8.3.0.202004-gnurx\bits\unique_ptr.h **** #pragma GCC diagnostic ignored "-Wdeprecated-declarations"
  53:c:\gcc for renesas rx 8.3.0.202004-gnurx-elf\rx-elf\rx-elf\rx-elf\include\c++\8.3.0.202004-gnurx\bits\unique_ptr.h ****   template<typename> class auto_ptr;
  54:c:\gcc for renesas rx 8.3.0.202004-gnurx-elf\rx-elf\rx-elf\rx-elf\include\c++\8.3.0.202004-gnurx\bits\unique_ptr.h **** #pragma GCC diagnostic pop
  55:c:\gcc for renesas rx 8.3.0.202004-gnurx-elf\rx-elf\rx-elf\rx-elf\include\c++\8.3.0.202004-gnurx\bits\unique_ptr.h **** #endif
  56:c:\gcc for renesas rx 8.3.0.202004-gnurx-elf\rx-elf\rx-elf\rx-elf\include\c++\8.3.0.202004-gnurx\bits\unique_ptr.h **** 
  57:c:\gcc for renesas rx 8.3.0.202004-gnurx-elf\rx-elf\rx-elf\rx-elf\include\c++\8.3.0.202004-gnurx\bits\unique_ptr.h ****   /// Primary template of default_delete, used by unique_ptr
  58:c:\gcc for renesas rx 8.3.0.202004-gnurx-elf\rx-elf\rx-elf\rx-elf\include\c++\8.3.0.202004-gnurx\bits\unique_ptr.h ****   template<typename _Tp>
  59:c:\gcc for renesas rx 8.3.0.202004-gnurx-elf\rx-elf\rx-elf\rx-elf\include\c++\8.3.0.202004-gnurx\bits\unique_ptr.h ****     struct default_delete
  60:c:\gcc for renesas rx 8.3.0.202004-gnurx-elf\rx-elf\rx-elf\rx-elf\include\c++\8.3.0.202004-gnurx\bits\unique_ptr.h ****     {
  61:c:\gcc for renesas rx 8.3.0.202004-gnurx-elf\rx-elf\rx-elf\rx-elf\include\c++\8.3.0.202004-gnurx\bits\unique_ptr.h ****       /// Default constructor
  62:c:\gcc for renesas rx 8.3.0.202004-gnurx-elf\rx-elf\rx-elf\rx-elf\include\c++\8.3.0.202004-gnurx\bits\unique_ptr.h ****       constexpr default_delete() noexcept = default;
  63:c:\gcc for renesas rx 8.3.0.202004-gnurx-elf\rx-elf\rx-elf\rx-elf\include\c++\8.3.0.202004-gnurx\bits\unique_ptr.h **** 
  64:c:\gcc for renesas rx 8.3.0.202004-gnurx-elf\rx-elf\rx-elf\rx-elf\include\c++\8.3.0.202004-gnurx\bits\unique_ptr.h ****       /** @brief Converting constructor.
  65:c:\gcc for renesas rx 8.3.0.202004-gnurx-elf\rx-elf\rx-elf\rx-elf\include\c++\8.3.0.202004-gnurx\bits\unique_ptr.h ****        *
  66:c:\gcc for renesas rx 8.3.0.202004-gnurx-elf\rx-elf\rx-elf\rx-elf\include\c++\8.3.0.202004-gnurx\bits\unique_ptr.h ****        * Allows conversion from a deleter for arrays of another type, @p _Up,
  67:c:\gcc for renesas rx 8.3.0.202004-gnurx-elf\rx-elf\rx-elf\rx-elf\include\c++\8.3.0.202004-gnurx\bits\unique_ptr.h ****        * only if @p _Up* is convertible to @p _Tp*.
  68:c:\gcc for renesas rx 8.3.0.202004-gnurx-elf\rx-elf\rx-elf\rx-elf\include\c++\8.3.0.202004-gnurx\bits\unique_ptr.h ****        */
  69:c:\gcc for renesas rx 8.3.0.202004-gnurx-elf\rx-elf\rx-elf\rx-elf\include\c++\8.3.0.202004-gnurx\bits\unique_ptr.h ****       template<typename _Up, typename = typename
  70:c:\gcc for renesas rx 8.3.0.202004-gnurx-elf\rx-elf\rx-elf\rx-elf\include\c++\8.3.0.202004-gnurx\bits\unique_ptr.h **** 	       enable_if<is_convertible<_Up*, _Tp*>::value>::type>
  71:c:\gcc for renesas rx 8.3.0.202004-gnurx-elf\rx-elf\rx-elf\rx-elf\include\c++\8.3.0.202004-gnurx\bits\unique_ptr.h ****         default_delete(const default_delete<_Up>&) noexcept { }
  72:c:\gcc for renesas rx 8.3.0.202004-gnurx-elf\rx-elf\rx-elf\rx-elf\include\c++\8.3.0.202004-gnurx\bits\unique_ptr.h **** 
  73:c:\gcc for renesas rx 8.3.0.202004-gnurx-elf\rx-elf\rx-elf\rx-elf\include\c++\8.3.0.202004-gnurx\bits\unique_ptr.h ****       /// Calls @c delete @p __ptr
  74:c:\gcc for renesas rx 8.3.0.202004-gnurx-elf\rx-elf\rx-elf\rx-elf\include\c++\8.3.0.202004-gnurx\bits\unique_ptr.h ****       void
  75:c:\gcc for renesas rx 8.3.0.202004-gnurx-elf\rx-elf\rx-elf\rx-elf\include\c++\8.3.0.202004-gnurx\bits\unique_ptr.h ****       operator()(_Tp* __ptr) const
  76:c:\gcc for renesas rx 8.3.0.202004-gnurx-elf\rx-elf\rx-elf\rx-elf\include\c++\8.3.0.202004-gnurx\bits\unique_ptr.h ****       {
  77:c:\gcc for renesas rx 8.3.0.202004-gnurx-elf\rx-elf\rx-elf\rx-elf\include\c++\8.3.0.202004-gnurx\bits\unique_ptr.h **** 	static_assert(!is_void<_Tp>::value,
  78:c:\gcc for renesas rx 8.3.0.202004-gnurx-elf\rx-elf\rx-elf\rx-elf\include\c++\8.3.0.202004-gnurx\bits\unique_ptr.h **** 		      "can't delete pointer to incomplete type");
  79:c:\gcc for renesas rx 8.3.0.202004-gnurx-elf\rx-elf\rx-elf\rx-elf\include\c++\8.3.0.202004-gnurx\bits\unique_ptr.h **** 	static_assert(sizeof(_Tp)>0,
  80:c:\gcc for renesas rx 8.3.0.202004-gnurx-elf\rx-elf\rx-elf\rx-elf\include\c++\8.3.0.202004-gnurx\bits\unique_ptr.h **** 		      "can't delete pointer to incomplete type");
  81:c:\gcc for renesas rx 8.3.0.202004-gnurx-elf\rx-elf\rx-elf\rx-elf\include\c++\8.3.0.202004-gnurx\bits\unique_ptr.h **** 	delete __ptr;
  82:c:\gcc for renesas rx 8.3.0.202004-gnurx-elf\rx-elf\rx-elf\rx-elf\include\c++\8.3.0.202004-gnurx\bits\unique_ptr.h ****       }
  83:c:\gcc for renesas rx 8.3.0.202004-gnurx-elf\rx-elf\rx-elf\rx-elf\include\c++\8.3.0.202004-gnurx\bits\unique_ptr.h ****     };
  84:c:\gcc for renesas rx 8.3.0.202004-gnurx-elf\rx-elf\rx-elf\rx-elf\include\c++\8.3.0.202004-gnurx\bits\unique_ptr.h **** 
  85:c:\gcc for renesas rx 8.3.0.202004-gnurx-elf\rx-elf\rx-elf\rx-elf\include\c++\8.3.0.202004-gnurx\bits\unique_ptr.h ****   // _GLIBCXX_RESOLVE_LIB_DEFECTS
  86:c:\gcc for renesas rx 8.3.0.202004-gnurx-elf\rx-elf\rx-elf\rx-elf\include\c++\8.3.0.202004-gnurx\bits\unique_ptr.h ****   // DR 740 - omit specialization for array objects with a compile time length
  87:c:\gcc for renesas rx 8.3.0.202004-gnurx-elf\rx-elf\rx-elf\rx-elf\include\c++\8.3.0.202004-gnurx\bits\unique_ptr.h ****   /// Specialization for arrays, default_delete.
  88:c:\gcc for renesas rx 8.3.0.202004-gnurx-elf\rx-elf\rx-elf\rx-elf\include\c++\8.3.0.202004-gnurx\bits\unique_ptr.h ****   template<typename _Tp>
  89:c:\gcc for renesas rx 8.3.0.202004-gnurx-elf\rx-elf\rx-elf\rx-elf\include\c++\8.3.0.202004-gnurx\bits\unique_ptr.h ****     struct default_delete<_Tp[]>
  90:c:\gcc for renesas rx 8.3.0.202004-gnurx-elf\rx-elf\rx-elf\rx-elf\include\c++\8.3.0.202004-gnurx\bits\unique_ptr.h ****     {
  91:c:\gcc for renesas rx 8.3.0.202004-gnurx-elf\rx-elf\rx-elf\rx-elf\include\c++\8.3.0.202004-gnurx\bits\unique_ptr.h ****     public:
  92:c:\gcc for renesas rx 8.3.0.202004-gnurx-elf\rx-elf\rx-elf\rx-elf\include\c++\8.3.0.202004-gnurx\bits\unique_ptr.h ****       /// Default constructor
  93:c:\gcc for renesas rx 8.3.0.202004-gnurx-elf\rx-elf\rx-elf\rx-elf\include\c++\8.3.0.202004-gnurx\bits\unique_ptr.h ****       constexpr default_delete() noexcept = default;
  94:c:\gcc for renesas rx 8.3.0.202004-gnurx-elf\rx-elf\rx-elf\rx-elf\include\c++\8.3.0.202004-gnurx\bits\unique_ptr.h **** 
  95:c:\gcc for renesas rx 8.3.0.202004-gnurx-elf\rx-elf\rx-elf\rx-elf\include\c++\8.3.0.202004-gnurx\bits\unique_ptr.h ****       /** @brief Converting constructor.
  96:c:\gcc for renesas rx 8.3.0.202004-gnurx-elf\rx-elf\rx-elf\rx-elf\include\c++\8.3.0.202004-gnurx\bits\unique_ptr.h ****        *
  97:c:\gcc for renesas rx 8.3.0.202004-gnurx-elf\rx-elf\rx-elf\rx-elf\include\c++\8.3.0.202004-gnurx\bits\unique_ptr.h ****        * Allows conversion from a deleter for arrays of another type, such as
  98:c:\gcc for renesas rx 8.3.0.202004-gnurx-elf\rx-elf\rx-elf\rx-elf\include\c++\8.3.0.202004-gnurx\bits\unique_ptr.h ****        * a const-qualified version of @p _Tp.
  99:c:\gcc for renesas rx 8.3.0.202004-gnurx-elf\rx-elf\rx-elf\rx-elf\include\c++\8.3.0.202004-gnurx\bits\unique_ptr.h ****        *
 100:c:\gcc for renesas rx 8.3.0.202004-gnurx-elf\rx-elf\rx-elf\rx-elf\include\c++\8.3.0.202004-gnurx\bits\unique_ptr.h ****        * Conversions from types derived from @c _Tp are not allowed because
 101:c:\gcc for renesas rx 8.3.0.202004-gnurx-elf\rx-elf\rx-elf\rx-elf\include\c++\8.3.0.202004-gnurx\bits\unique_ptr.h ****        * it is unsafe to @c delete[] an array of derived types through a
 102:c:\gcc for renesas rx 8.3.0.202004-gnurx-elf\rx-elf\rx-elf\rx-elf\include\c++\8.3.0.202004-gnurx\bits\unique_ptr.h ****        * pointer to the base type.
 103:c:\gcc for renesas rx 8.3.0.202004-gnurx-elf\rx-elf\rx-elf\rx-elf\include\c++\8.3.0.202004-gnurx\bits\unique_ptr.h ****        */
 104:c:\gcc for renesas rx 8.3.0.202004-gnurx-elf\rx-elf\rx-elf\rx-elf\include\c++\8.3.0.202004-gnurx\bits\unique_ptr.h ****       template<typename _Up, typename = typename
 105:c:\gcc for renesas rx 8.3.0.202004-gnurx-elf\rx-elf\rx-elf\rx-elf\include\c++\8.3.0.202004-gnurx\bits\unique_ptr.h **** 	       enable_if<is_convertible<_Up(*)[], _Tp(*)[]>::value>::type>
 106:c:\gcc for renesas rx 8.3.0.202004-gnurx-elf\rx-elf\rx-elf\rx-elf\include\c++\8.3.0.202004-gnurx\bits\unique_ptr.h ****         default_delete(const default_delete<_Up[]>&) noexcept { }
 107:c:\gcc for renesas rx 8.3.0.202004-gnurx-elf\rx-elf\rx-elf\rx-elf\include\c++\8.3.0.202004-gnurx\bits\unique_ptr.h **** 
 108:c:\gcc for renesas rx 8.3.0.202004-gnurx-elf\rx-elf\rx-elf\rx-elf\include\c++\8.3.0.202004-gnurx\bits\unique_ptr.h ****       /// Calls @c delete[] @p __ptr
 109:c:\gcc for renesas rx 8.3.0.202004-gnurx-elf\rx-elf\rx-elf\rx-elf\include\c++\8.3.0.202004-gnurx\bits\unique_ptr.h ****       template<typename _Up>
 110:c:\gcc for renesas rx 8.3.0.202004-gnurx-elf\rx-elf\rx-elf\rx-elf\include\c++\8.3.0.202004-gnurx\bits\unique_ptr.h ****       typename enable_if<is_convertible<_Up(*)[], _Tp(*)[]>::value>::type
 111:c:\gcc for renesas rx 8.3.0.202004-gnurx-elf\rx-elf\rx-elf\rx-elf\include\c++\8.3.0.202004-gnurx\bits\unique_ptr.h **** 	operator()(_Up* __ptr) const
 112:c:\gcc for renesas rx 8.3.0.202004-gnurx-elf\rx-elf\rx-elf\rx-elf\include\c++\8.3.0.202004-gnurx\bits\unique_ptr.h ****       {
 113:c:\gcc for renesas rx 8.3.0.202004-gnurx-elf\rx-elf\rx-elf\rx-elf\include\c++\8.3.0.202004-gnurx\bits\unique_ptr.h **** 	static_assert(sizeof(_Tp)>0,
 114:c:\gcc for renesas rx 8.3.0.202004-gnurx-elf\rx-elf\rx-elf\rx-elf\include\c++\8.3.0.202004-gnurx\bits\unique_ptr.h **** 		      "can't delete pointer to incomplete type");
 115:c:\gcc for renesas rx 8.3.0.202004-gnurx-elf\rx-elf\rx-elf\rx-elf\include\c++\8.3.0.202004-gnurx\bits\unique_ptr.h **** 	delete [] __ptr;
 116:c:\gcc for renesas rx 8.3.0.202004-gnurx-elf\rx-elf\rx-elf\rx-elf\include\c++\8.3.0.202004-gnurx\bits\unique_ptr.h ****       }
 117:c:\gcc for renesas rx 8.3.0.202004-gnurx-elf\rx-elf\rx-elf\rx-elf\include\c++\8.3.0.202004-gnurx\bits\unique_ptr.h ****     };
 118:c:\gcc for renesas rx 8.3.0.202004-gnurx-elf\rx-elf\rx-elf\rx-elf\include\c++\8.3.0.202004-gnurx\bits\unique_ptr.h **** 
 119:c:\gcc for renesas rx 8.3.0.202004-gnurx-elf\rx-elf\rx-elf\rx-elf\include\c++\8.3.0.202004-gnurx\bits\unique_ptr.h ****   template <typename _Tp, typename _Dp>
 120:c:\gcc for renesas rx 8.3.0.202004-gnurx-elf\rx-elf\rx-elf\rx-elf\include\c++\8.3.0.202004-gnurx\bits\unique_ptr.h ****     class __uniq_ptr_impl
 121:c:\gcc for renesas rx 8.3.0.202004-gnurx-elf\rx-elf\rx-elf\rx-elf\include\c++\8.3.0.202004-gnurx\bits\unique_ptr.h ****     {
 122:c:\gcc for renesas rx 8.3.0.202004-gnurx-elf\rx-elf\rx-elf\rx-elf\include\c++\8.3.0.202004-gnurx\bits\unique_ptr.h ****       template <typename _Up, typename _Ep, typename = void>
 123:c:\gcc for renesas rx 8.3.0.202004-gnurx-elf\rx-elf\rx-elf\rx-elf\include\c++\8.3.0.202004-gnurx\bits\unique_ptr.h **** 	struct _Ptr
 124:c:\gcc for renesas rx 8.3.0.202004-gnurx-elf\rx-elf\rx-elf\rx-elf\include\c++\8.3.0.202004-gnurx\bits\unique_ptr.h **** 	{
 125:c:\gcc for renesas rx 8.3.0.202004-gnurx-elf\rx-elf\rx-elf\rx-elf\include\c++\8.3.0.202004-gnurx\bits\unique_ptr.h **** 	  using type = _Up*;
 126:c:\gcc for renesas rx 8.3.0.202004-gnurx-elf\rx-elf\rx-elf\rx-elf\include\c++\8.3.0.202004-gnurx\bits\unique_ptr.h **** 	};
 127:c:\gcc for renesas rx 8.3.0.202004-gnurx-elf\rx-elf\rx-elf\rx-elf\include\c++\8.3.0.202004-gnurx\bits\unique_ptr.h **** 
 128:c:\gcc for renesas rx 8.3.0.202004-gnurx-elf\rx-elf\rx-elf\rx-elf\include\c++\8.3.0.202004-gnurx\bits\unique_ptr.h ****       template <typename _Up, typename _Ep>
 129:c:\gcc for renesas rx 8.3.0.202004-gnurx-elf\rx-elf\rx-elf\rx-elf\include\c++\8.3.0.202004-gnurx\bits\unique_ptr.h **** 	struct
 130:c:\gcc for renesas rx 8.3.0.202004-gnurx-elf\rx-elf\rx-elf\rx-elf\include\c++\8.3.0.202004-gnurx\bits\unique_ptr.h **** 	_Ptr<_Up, _Ep, __void_t<typename remove_reference<_Ep>::type::pointer>>
 131:c:\gcc for renesas rx 8.3.0.202004-gnurx-elf\rx-elf\rx-elf\rx-elf\include\c++\8.3.0.202004-gnurx\bits\unique_ptr.h **** 	{
 132:c:\gcc for renesas rx 8.3.0.202004-gnurx-elf\rx-elf\rx-elf\rx-elf\include\c++\8.3.0.202004-gnurx\bits\unique_ptr.h **** 	  using type = typename remove_reference<_Ep>::type::pointer;
 133:c:\gcc for renesas rx 8.3.0.202004-gnurx-elf\rx-elf\rx-elf\rx-elf\include\c++\8.3.0.202004-gnurx\bits\unique_ptr.h **** 	};
 134:c:\gcc for renesas rx 8.3.0.202004-gnurx-elf\rx-elf\rx-elf\rx-elf\include\c++\8.3.0.202004-gnurx\bits\unique_ptr.h **** 
 135:c:\gcc for renesas rx 8.3.0.202004-gnurx-elf\rx-elf\rx-elf\rx-elf\include\c++\8.3.0.202004-gnurx\bits\unique_ptr.h ****     public:
 136:c:\gcc for renesas rx 8.3.0.202004-gnurx-elf\rx-elf\rx-elf\rx-elf\include\c++\8.3.0.202004-gnurx\bits\unique_ptr.h ****       using _DeleterConstraint = enable_if<
 137:c:\gcc for renesas rx 8.3.0.202004-gnurx-elf\rx-elf\rx-elf\rx-elf\include\c++\8.3.0.202004-gnurx\bits\unique_ptr.h ****         __and_<__not_<is_pointer<_Dp>>,
 138:c:\gcc for renesas rx 8.3.0.202004-gnurx-elf\rx-elf\rx-elf\rx-elf\include\c++\8.3.0.202004-gnurx\bits\unique_ptr.h **** 	       is_default_constructible<_Dp>>::value>;
 139:c:\gcc for renesas rx 8.3.0.202004-gnurx-elf\rx-elf\rx-elf\rx-elf\include\c++\8.3.0.202004-gnurx\bits\unique_ptr.h **** 
 140:c:\gcc for renesas rx 8.3.0.202004-gnurx-elf\rx-elf\rx-elf\rx-elf\include\c++\8.3.0.202004-gnurx\bits\unique_ptr.h ****       using pointer = typename _Ptr<_Tp, _Dp>::type;
 141:c:\gcc for renesas rx 8.3.0.202004-gnurx-elf\rx-elf\rx-elf\rx-elf\include\c++\8.3.0.202004-gnurx\bits\unique_ptr.h **** 
 142:c:\gcc for renesas rx 8.3.0.202004-gnurx-elf\rx-elf\rx-elf\rx-elf\include\c++\8.3.0.202004-gnurx\bits\unique_ptr.h ****       __uniq_ptr_impl() = default;
 143:c:\gcc for renesas rx 8.3.0.202004-gnurx-elf\rx-elf\rx-elf\rx-elf\include\c++\8.3.0.202004-gnurx\bits\unique_ptr.h ****       __uniq_ptr_impl(pointer __p) : _M_t() { _M_ptr() = __p; }
 144:c:\gcc for renesas rx 8.3.0.202004-gnurx-elf\rx-elf\rx-elf\rx-elf\include\c++\8.3.0.202004-gnurx\bits\unique_ptr.h **** 
 145:c:\gcc for renesas rx 8.3.0.202004-gnurx-elf\rx-elf\rx-elf\rx-elf\include\c++\8.3.0.202004-gnurx\bits\unique_ptr.h ****       template<typename _Del>
 146:c:\gcc for renesas rx 8.3.0.202004-gnurx-elf\rx-elf\rx-elf\rx-elf\include\c++\8.3.0.202004-gnurx\bits\unique_ptr.h ****       __uniq_ptr_impl(pointer __p, _Del&& __d)
 147:c:\gcc for renesas rx 8.3.0.202004-gnurx-elf\rx-elf\rx-elf\rx-elf\include\c++\8.3.0.202004-gnurx\bits\unique_ptr.h **** 	: _M_t(__p, std::forward<_Del>(__d)) { }
 148:c:\gcc for renesas rx 8.3.0.202004-gnurx-elf\rx-elf\rx-elf\rx-elf\include\c++\8.3.0.202004-gnurx\bits\unique_ptr.h **** 
 149:c:\gcc for renesas rx 8.3.0.202004-gnurx-elf\rx-elf\rx-elf\rx-elf\include\c++\8.3.0.202004-gnurx\bits\unique_ptr.h ****       pointer&   _M_ptr() { return std::get<0>(_M_t); }
 150:c:\gcc for renesas rx 8.3.0.202004-gnurx-elf\rx-elf\rx-elf\rx-elf\include\c++\8.3.0.202004-gnurx\bits\unique_ptr.h ****       pointer    _M_ptr() const { return std::get<0>(_M_t); }
 151:c:\gcc for renesas rx 8.3.0.202004-gnurx-elf\rx-elf\rx-elf\rx-elf\include\c++\8.3.0.202004-gnurx\bits\unique_ptr.h ****       _Dp&       _M_deleter() { return std::get<1>(_M_t); }
 152:c:\gcc for renesas rx 8.3.0.202004-gnurx-elf\rx-elf\rx-elf\rx-elf\include\c++\8.3.0.202004-gnurx\bits\unique_ptr.h ****       const _Dp& _M_deleter() const { return std::get<1>(_M_t); }
 153:c:\gcc for renesas rx 8.3.0.202004-gnurx-elf\rx-elf\rx-elf\rx-elf\include\c++\8.3.0.202004-gnurx\bits\unique_ptr.h **** 
 154:c:\gcc for renesas rx 8.3.0.202004-gnurx-elf\rx-elf\rx-elf\rx-elf\include\c++\8.3.0.202004-gnurx\bits\unique_ptr.h ****     private:
 155:c:\gcc for renesas rx 8.3.0.202004-gnurx-elf\rx-elf\rx-elf\rx-elf\include\c++\8.3.0.202004-gnurx\bits\unique_ptr.h ****       tuple<pointer, _Dp> _M_t;
 156:c:\gcc for renesas rx 8.3.0.202004-gnurx-elf\rx-elf\rx-elf\rx-elf\include\c++\8.3.0.202004-gnurx\bits\unique_ptr.h ****     };
 157:c:\gcc for renesas rx 8.3.0.202004-gnurx-elf\rx-elf\rx-elf\rx-elf\include\c++\8.3.0.202004-gnurx\bits\unique_ptr.h **** 
 158:c:\gcc for renesas rx 8.3.0.202004-gnurx-elf\rx-elf\rx-elf\rx-elf\include\c++\8.3.0.202004-gnurx\bits\unique_ptr.h ****   /// 20.7.1.2 unique_ptr for single objects.
 159:c:\gcc for renesas rx 8.3.0.202004-gnurx-elf\rx-elf\rx-elf\rx-elf\include\c++\8.3.0.202004-gnurx\bits\unique_ptr.h ****   template <typename _Tp, typename _Dp = default_delete<_Tp>>
 160:c:\gcc for renesas rx 8.3.0.202004-gnurx-elf\rx-elf\rx-elf\rx-elf\include\c++\8.3.0.202004-gnurx\bits\unique_ptr.h ****     class unique_ptr
 161:c:\gcc for renesas rx 8.3.0.202004-gnurx-elf\rx-elf\rx-elf\rx-elf\include\c++\8.3.0.202004-gnurx\bits\unique_ptr.h ****     {
 162:c:\gcc for renesas rx 8.3.0.202004-gnurx-elf\rx-elf\rx-elf\rx-elf\include\c++\8.3.0.202004-gnurx\bits\unique_ptr.h ****       template <class _Up>
 163:c:\gcc for renesas rx 8.3.0.202004-gnurx-elf\rx-elf\rx-elf\rx-elf\include\c++\8.3.0.202004-gnurx\bits\unique_ptr.h ****       using _DeleterConstraint =
 164:c:\gcc for renesas rx 8.3.0.202004-gnurx-elf\rx-elf\rx-elf\rx-elf\include\c++\8.3.0.202004-gnurx\bits\unique_ptr.h **** 	typename __uniq_ptr_impl<_Tp, _Up>::_DeleterConstraint::type;
 165:c:\gcc for renesas rx 8.3.0.202004-gnurx-elf\rx-elf\rx-elf\rx-elf\include\c++\8.3.0.202004-gnurx\bits\unique_ptr.h **** 
 166:c:\gcc for renesas rx 8.3.0.202004-gnurx-elf\rx-elf\rx-elf\rx-elf\include\c++\8.3.0.202004-gnurx\bits\unique_ptr.h ****       __uniq_ptr_impl<_Tp, _Dp> _M_t;
 167:c:\gcc for renesas rx 8.3.0.202004-gnurx-elf\rx-elf\rx-elf\rx-elf\include\c++\8.3.0.202004-gnurx\bits\unique_ptr.h **** 
 168:c:\gcc for renesas rx 8.3.0.202004-gnurx-elf\rx-elf\rx-elf\rx-elf\include\c++\8.3.0.202004-gnurx\bits\unique_ptr.h ****     public:
 169:c:\gcc for renesas rx 8.3.0.202004-gnurx-elf\rx-elf\rx-elf\rx-elf\include\c++\8.3.0.202004-gnurx\bits\unique_ptr.h ****       using pointer	  = typename __uniq_ptr_impl<_Tp, _Dp>::pointer;
 170:c:\gcc for renesas rx 8.3.0.202004-gnurx-elf\rx-elf\rx-elf\rx-elf\include\c++\8.3.0.202004-gnurx\bits\unique_ptr.h ****       using element_type  = _Tp;
 171:c:\gcc for renesas rx 8.3.0.202004-gnurx-elf\rx-elf\rx-elf\rx-elf\include\c++\8.3.0.202004-gnurx\bits\unique_ptr.h ****       using deleter_type  = _Dp;
 172:c:\gcc for renesas rx 8.3.0.202004-gnurx-elf\rx-elf\rx-elf\rx-elf\include\c++\8.3.0.202004-gnurx\bits\unique_ptr.h **** 
 173:c:\gcc for renesas rx 8.3.0.202004-gnurx-elf\rx-elf\rx-elf\rx-elf\include\c++\8.3.0.202004-gnurx\bits\unique_ptr.h ****       // helper template for detecting a safe conversion from another
 174:c:\gcc for renesas rx 8.3.0.202004-gnurx-elf\rx-elf\rx-elf\rx-elf\include\c++\8.3.0.202004-gnurx\bits\unique_ptr.h ****       // unique_ptr
 175:c:\gcc for renesas rx 8.3.0.202004-gnurx-elf\rx-elf\rx-elf\rx-elf\include\c++\8.3.0.202004-gnurx\bits\unique_ptr.h ****       template<typename _Up, typename _Ep>
 176:c:\gcc for renesas rx 8.3.0.202004-gnurx-elf\rx-elf\rx-elf\rx-elf\include\c++\8.3.0.202004-gnurx\bits\unique_ptr.h **** 	using __safe_conversion_up = __and_<
 177:c:\gcc for renesas rx 8.3.0.202004-gnurx-elf\rx-elf\rx-elf\rx-elf\include\c++\8.3.0.202004-gnurx\bits\unique_ptr.h **** 	        is_convertible<typename unique_ptr<_Up, _Ep>::pointer, pointer>,
 178:c:\gcc for renesas rx 8.3.0.202004-gnurx-elf\rx-elf\rx-elf\rx-elf\include\c++\8.3.0.202004-gnurx\bits\unique_ptr.h ****                 __not_<is_array<_Up>>,
 179:c:\gcc for renesas rx 8.3.0.202004-gnurx-elf\rx-elf\rx-elf\rx-elf\include\c++\8.3.0.202004-gnurx\bits\unique_ptr.h ****                 __or_<__and_<is_reference<deleter_type>,
 180:c:\gcc for renesas rx 8.3.0.202004-gnurx-elf\rx-elf\rx-elf\rx-elf\include\c++\8.3.0.202004-gnurx\bits\unique_ptr.h ****                              is_same<deleter_type, _Ep>>,
 181:c:\gcc for renesas rx 8.3.0.202004-gnurx-elf\rx-elf\rx-elf\rx-elf\include\c++\8.3.0.202004-gnurx\bits\unique_ptr.h ****                       __and_<__not_<is_reference<deleter_type>>,
 182:c:\gcc for renesas rx 8.3.0.202004-gnurx-elf\rx-elf\rx-elf\rx-elf\include\c++\8.3.0.202004-gnurx\bits\unique_ptr.h ****                              is_convertible<_Ep, deleter_type>>
 183:c:\gcc for renesas rx 8.3.0.202004-gnurx-elf\rx-elf\rx-elf\rx-elf\include\c++\8.3.0.202004-gnurx\bits\unique_ptr.h ****                 >
 184:c:\gcc for renesas rx 8.3.0.202004-gnurx-elf\rx-elf\rx-elf\rx-elf\include\c++\8.3.0.202004-gnurx\bits\unique_ptr.h ****               >;
 185:c:\gcc for renesas rx 8.3.0.202004-gnurx-elf\rx-elf\rx-elf\rx-elf\include\c++\8.3.0.202004-gnurx\bits\unique_ptr.h **** 
 186:c:\gcc for renesas rx 8.3.0.202004-gnurx-elf\rx-elf\rx-elf\rx-elf\include\c++\8.3.0.202004-gnurx\bits\unique_ptr.h ****       // Constructors.
 187:c:\gcc for renesas rx 8.3.0.202004-gnurx-elf\rx-elf\rx-elf\rx-elf\include\c++\8.3.0.202004-gnurx\bits\unique_ptr.h **** 
 188:c:\gcc for renesas rx 8.3.0.202004-gnurx-elf\rx-elf\rx-elf\rx-elf\include\c++\8.3.0.202004-gnurx\bits\unique_ptr.h ****       /// Default constructor, creates a unique_ptr that owns nothing.
 189:c:\gcc for renesas rx 8.3.0.202004-gnurx-elf\rx-elf\rx-elf\rx-elf\include\c++\8.3.0.202004-gnurx\bits\unique_ptr.h ****       template <typename _Up = _Dp,
 190:c:\gcc for renesas rx 8.3.0.202004-gnurx-elf\rx-elf\rx-elf\rx-elf\include\c++\8.3.0.202004-gnurx\bits\unique_ptr.h **** 		typename = _DeleterConstraint<_Up>>
 191:c:\gcc for renesas rx 8.3.0.202004-gnurx-elf\rx-elf\rx-elf\rx-elf\include\c++\8.3.0.202004-gnurx\bits\unique_ptr.h **** 	constexpr unique_ptr() noexcept
 192:c:\gcc for renesas rx 8.3.0.202004-gnurx-elf\rx-elf\rx-elf\rx-elf\include\c++\8.3.0.202004-gnurx\bits\unique_ptr.h **** 	: _M_t()
 193:c:\gcc for renesas rx 8.3.0.202004-gnurx-elf\rx-elf\rx-elf\rx-elf\include\c++\8.3.0.202004-gnurx\bits\unique_ptr.h **** 	{ }
 194:c:\gcc for renesas rx 8.3.0.202004-gnurx-elf\rx-elf\rx-elf\rx-elf\include\c++\8.3.0.202004-gnurx\bits\unique_ptr.h **** 
 195:c:\gcc for renesas rx 8.3.0.202004-gnurx-elf\rx-elf\rx-elf\rx-elf\include\c++\8.3.0.202004-gnurx\bits\unique_ptr.h ****       /** Takes ownership of a pointer.
 196:c:\gcc for renesas rx 8.3.0.202004-gnurx-elf\rx-elf\rx-elf\rx-elf\include\c++\8.3.0.202004-gnurx\bits\unique_ptr.h ****        *
 197:c:\gcc for renesas rx 8.3.0.202004-gnurx-elf\rx-elf\rx-elf\rx-elf\include\c++\8.3.0.202004-gnurx\bits\unique_ptr.h ****        * @param __p  A pointer to an object of @c element_type
 198:c:\gcc for renesas rx 8.3.0.202004-gnurx-elf\rx-elf\rx-elf\rx-elf\include\c++\8.3.0.202004-gnurx\bits\unique_ptr.h ****        *
 199:c:\gcc for renesas rx 8.3.0.202004-gnurx-elf\rx-elf\rx-elf\rx-elf\include\c++\8.3.0.202004-gnurx\bits\unique_ptr.h ****        * The deleter will be value-initialized.
 200:c:\gcc for renesas rx 8.3.0.202004-gnurx-elf\rx-elf\rx-elf\rx-elf\include\c++\8.3.0.202004-gnurx\bits\unique_ptr.h ****        */
 201:c:\gcc for renesas rx 8.3.0.202004-gnurx-elf\rx-elf\rx-elf\rx-elf\include\c++\8.3.0.202004-gnurx\bits\unique_ptr.h ****       template <typename _Up = _Dp,
 202:c:\gcc for renesas rx 8.3.0.202004-gnurx-elf\rx-elf\rx-elf\rx-elf\include\c++\8.3.0.202004-gnurx\bits\unique_ptr.h **** 		typename = _DeleterConstraint<_Up>>
 203:c:\gcc for renesas rx 8.3.0.202004-gnurx-elf\rx-elf\rx-elf\rx-elf\include\c++\8.3.0.202004-gnurx\bits\unique_ptr.h **** 	explicit
 204:c:\gcc for renesas rx 8.3.0.202004-gnurx-elf\rx-elf\rx-elf\rx-elf\include\c++\8.3.0.202004-gnurx\bits\unique_ptr.h **** 	unique_ptr(pointer __p) noexcept
 205:c:\gcc for renesas rx 8.3.0.202004-gnurx-elf\rx-elf\rx-elf\rx-elf\include\c++\8.3.0.202004-gnurx\bits\unique_ptr.h **** 	: _M_t(__p)
 206:c:\gcc for renesas rx 8.3.0.202004-gnurx-elf\rx-elf\rx-elf\rx-elf\include\c++\8.3.0.202004-gnurx\bits\unique_ptr.h ****         { }
 207:c:\gcc for renesas rx 8.3.0.202004-gnurx-elf\rx-elf\rx-elf\rx-elf\include\c++\8.3.0.202004-gnurx\bits\unique_ptr.h **** 
 208:c:\gcc for renesas rx 8.3.0.202004-gnurx-elf\rx-elf\rx-elf\rx-elf\include\c++\8.3.0.202004-gnurx\bits\unique_ptr.h ****       /** Takes ownership of a pointer.
 209:c:\gcc for renesas rx 8.3.0.202004-gnurx-elf\rx-elf\rx-elf\rx-elf\include\c++\8.3.0.202004-gnurx\bits\unique_ptr.h ****        *
 210:c:\gcc for renesas rx 8.3.0.202004-gnurx-elf\rx-elf\rx-elf\rx-elf\include\c++\8.3.0.202004-gnurx\bits\unique_ptr.h ****        * @param __p  A pointer to an object of @c element_type
 211:c:\gcc for renesas rx 8.3.0.202004-gnurx-elf\rx-elf\rx-elf\rx-elf\include\c++\8.3.0.202004-gnurx\bits\unique_ptr.h ****        * @param __d  A reference to a deleter.
 212:c:\gcc for renesas rx 8.3.0.202004-gnurx-elf\rx-elf\rx-elf\rx-elf\include\c++\8.3.0.202004-gnurx\bits\unique_ptr.h ****        *
 213:c:\gcc for renesas rx 8.3.0.202004-gnurx-elf\rx-elf\rx-elf\rx-elf\include\c++\8.3.0.202004-gnurx\bits\unique_ptr.h ****        * The deleter will be initialized with @p __d
 214:c:\gcc for renesas rx 8.3.0.202004-gnurx-elf\rx-elf\rx-elf\rx-elf\include\c++\8.3.0.202004-gnurx\bits\unique_ptr.h ****        */
 215:c:\gcc for renesas rx 8.3.0.202004-gnurx-elf\rx-elf\rx-elf\rx-elf\include\c++\8.3.0.202004-gnurx\bits\unique_ptr.h ****       unique_ptr(pointer __p,
 216:c:\gcc for renesas rx 8.3.0.202004-gnurx-elf\rx-elf\rx-elf\rx-elf\include\c++\8.3.0.202004-gnurx\bits\unique_ptr.h **** 	  typename conditional<is_reference<deleter_type>::value,
 217:c:\gcc for renesas rx 8.3.0.202004-gnurx-elf\rx-elf\rx-elf\rx-elf\include\c++\8.3.0.202004-gnurx\bits\unique_ptr.h **** 	    deleter_type, const deleter_type&>::type __d) noexcept
 218:c:\gcc for renesas rx 8.3.0.202004-gnurx-elf\rx-elf\rx-elf\rx-elf\include\c++\8.3.0.202004-gnurx\bits\unique_ptr.h ****       : _M_t(__p, __d) { }
 219:c:\gcc for renesas rx 8.3.0.202004-gnurx-elf\rx-elf\rx-elf\rx-elf\include\c++\8.3.0.202004-gnurx\bits\unique_ptr.h **** 
 220:c:\gcc for renesas rx 8.3.0.202004-gnurx-elf\rx-elf\rx-elf\rx-elf\include\c++\8.3.0.202004-gnurx\bits\unique_ptr.h ****       /** Takes ownership of a pointer.
 221:c:\gcc for renesas rx 8.3.0.202004-gnurx-elf\rx-elf\rx-elf\rx-elf\include\c++\8.3.0.202004-gnurx\bits\unique_ptr.h ****        *
 222:c:\gcc for renesas rx 8.3.0.202004-gnurx-elf\rx-elf\rx-elf\rx-elf\include\c++\8.3.0.202004-gnurx\bits\unique_ptr.h ****        * @param __p  A pointer to an object of @c element_type
 223:c:\gcc for renesas rx 8.3.0.202004-gnurx-elf\rx-elf\rx-elf\rx-elf\include\c++\8.3.0.202004-gnurx\bits\unique_ptr.h ****        * @param __d  An rvalue reference to a deleter.
 224:c:\gcc for renesas rx 8.3.0.202004-gnurx-elf\rx-elf\rx-elf\rx-elf\include\c++\8.3.0.202004-gnurx\bits\unique_ptr.h ****        *
 225:c:\gcc for renesas rx 8.3.0.202004-gnurx-elf\rx-elf\rx-elf\rx-elf\include\c++\8.3.0.202004-gnurx\bits\unique_ptr.h ****        * The deleter will be initialized with @p std::move(__d)
 226:c:\gcc for renesas rx 8.3.0.202004-gnurx-elf\rx-elf\rx-elf\rx-elf\include\c++\8.3.0.202004-gnurx\bits\unique_ptr.h ****        */
 227:c:\gcc for renesas rx 8.3.0.202004-gnurx-elf\rx-elf\rx-elf\rx-elf\include\c++\8.3.0.202004-gnurx\bits\unique_ptr.h ****       unique_ptr(pointer __p,
 228:c:\gcc for renesas rx 8.3.0.202004-gnurx-elf\rx-elf\rx-elf\rx-elf\include\c++\8.3.0.202004-gnurx\bits\unique_ptr.h **** 	  typename remove_reference<deleter_type>::type&& __d) noexcept
 229:c:\gcc for renesas rx 8.3.0.202004-gnurx-elf\rx-elf\rx-elf\rx-elf\include\c++\8.3.0.202004-gnurx\bits\unique_ptr.h ****       : _M_t(std::move(__p), std::move(__d))
 230:c:\gcc for renesas rx 8.3.0.202004-gnurx-elf\rx-elf\rx-elf\rx-elf\include\c++\8.3.0.202004-gnurx\bits\unique_ptr.h ****       { static_assert(!std::is_reference<deleter_type>::value,
 231:c:\gcc for renesas rx 8.3.0.202004-gnurx-elf\rx-elf\rx-elf\rx-elf\include\c++\8.3.0.202004-gnurx\bits\unique_ptr.h **** 		      "rvalue deleter bound to reference"); }
 232:c:\gcc for renesas rx 8.3.0.202004-gnurx-elf\rx-elf\rx-elf\rx-elf\include\c++\8.3.0.202004-gnurx\bits\unique_ptr.h **** 
 233:c:\gcc for renesas rx 8.3.0.202004-gnurx-elf\rx-elf\rx-elf\rx-elf\include\c++\8.3.0.202004-gnurx\bits\unique_ptr.h ****       /// Creates a unique_ptr that owns nothing.
 234:c:\gcc for renesas rx 8.3.0.202004-gnurx-elf\rx-elf\rx-elf\rx-elf\include\c++\8.3.0.202004-gnurx\bits\unique_ptr.h ****       template <typename _Up = _Dp,
 235:c:\gcc for renesas rx 8.3.0.202004-gnurx-elf\rx-elf\rx-elf\rx-elf\include\c++\8.3.0.202004-gnurx\bits\unique_ptr.h **** 		typename = _DeleterConstraint<_Up>>
 236:c:\gcc for renesas rx 8.3.0.202004-gnurx-elf\rx-elf\rx-elf\rx-elf\include\c++\8.3.0.202004-gnurx\bits\unique_ptr.h **** 	constexpr unique_ptr(nullptr_t) noexcept : _M_t() { }
 237:c:\gcc for renesas rx 8.3.0.202004-gnurx-elf\rx-elf\rx-elf\rx-elf\include\c++\8.3.0.202004-gnurx\bits\unique_ptr.h **** 
 238:c:\gcc for renesas rx 8.3.0.202004-gnurx-elf\rx-elf\rx-elf\rx-elf\include\c++\8.3.0.202004-gnurx\bits\unique_ptr.h ****       // Move constructors.
 239:c:\gcc for renesas rx 8.3.0.202004-gnurx-elf\rx-elf\rx-elf\rx-elf\include\c++\8.3.0.202004-gnurx\bits\unique_ptr.h **** 
 240:c:\gcc for renesas rx 8.3.0.202004-gnurx-elf\rx-elf\rx-elf\rx-elf\include\c++\8.3.0.202004-gnurx\bits\unique_ptr.h ****       /// Move constructor.
 241:c:\gcc for renesas rx 8.3.0.202004-gnurx-elf\rx-elf\rx-elf\rx-elf\include\c++\8.3.0.202004-gnurx\bits\unique_ptr.h ****       unique_ptr(unique_ptr&& __u) noexcept
 242:c:\gcc for renesas rx 8.3.0.202004-gnurx-elf\rx-elf\rx-elf\rx-elf\include\c++\8.3.0.202004-gnurx\bits\unique_ptr.h ****       : _M_t(__u.release(), std::forward<deleter_type>(__u.get_deleter())) { }
 243:c:\gcc for renesas rx 8.3.0.202004-gnurx-elf\rx-elf\rx-elf\rx-elf\include\c++\8.3.0.202004-gnurx\bits\unique_ptr.h **** 
 244:c:\gcc for renesas rx 8.3.0.202004-gnurx-elf\rx-elf\rx-elf\rx-elf\include\c++\8.3.0.202004-gnurx\bits\unique_ptr.h ****       /** @brief Converting constructor from another type
 245:c:\gcc for renesas rx 8.3.0.202004-gnurx-elf\rx-elf\rx-elf\rx-elf\include\c++\8.3.0.202004-gnurx\bits\unique_ptr.h ****        *
 246:c:\gcc for renesas rx 8.3.0.202004-gnurx-elf\rx-elf\rx-elf\rx-elf\include\c++\8.3.0.202004-gnurx\bits\unique_ptr.h ****        * Requires that the pointer owned by @p __u is convertible to the
 247:c:\gcc for renesas rx 8.3.0.202004-gnurx-elf\rx-elf\rx-elf\rx-elf\include\c++\8.3.0.202004-gnurx\bits\unique_ptr.h ****        * type of pointer owned by this object, @p __u does not own an array,
 248:c:\gcc for renesas rx 8.3.0.202004-gnurx-elf\rx-elf\rx-elf\rx-elf\include\c++\8.3.0.202004-gnurx\bits\unique_ptr.h ****        * and @p __u has a compatible deleter type.
 249:c:\gcc for renesas rx 8.3.0.202004-gnurx-elf\rx-elf\rx-elf\rx-elf\include\c++\8.3.0.202004-gnurx\bits\unique_ptr.h ****        */
 250:c:\gcc for renesas rx 8.3.0.202004-gnurx-elf\rx-elf\rx-elf\rx-elf\include\c++\8.3.0.202004-gnurx\bits\unique_ptr.h ****       template<typename _Up, typename _Ep, typename = _Require<
 251:c:\gcc for renesas rx 8.3.0.202004-gnurx-elf\rx-elf\rx-elf\rx-elf\include\c++\8.3.0.202004-gnurx\bits\unique_ptr.h ****                __safe_conversion_up<_Up, _Ep>,
 252:c:\gcc for renesas rx 8.3.0.202004-gnurx-elf\rx-elf\rx-elf\rx-elf\include\c++\8.3.0.202004-gnurx\bits\unique_ptr.h **** 	       typename conditional<is_reference<_Dp>::value,
 253:c:\gcc for renesas rx 8.3.0.202004-gnurx-elf\rx-elf\rx-elf\rx-elf\include\c++\8.3.0.202004-gnurx\bits\unique_ptr.h **** 				    is_same<_Ep, _Dp>,
 254:c:\gcc for renesas rx 8.3.0.202004-gnurx-elf\rx-elf\rx-elf\rx-elf\include\c++\8.3.0.202004-gnurx\bits\unique_ptr.h **** 				    is_convertible<_Ep, _Dp>>::type>>
 255:c:\gcc for renesas rx 8.3.0.202004-gnurx-elf\rx-elf\rx-elf\rx-elf\include\c++\8.3.0.202004-gnurx\bits\unique_ptr.h **** 	unique_ptr(unique_ptr<_Up, _Ep>&& __u) noexcept
 256:c:\gcc for renesas rx 8.3.0.202004-gnurx-elf\rx-elf\rx-elf\rx-elf\include\c++\8.3.0.202004-gnurx\bits\unique_ptr.h **** 	: _M_t(__u.release(), std::forward<_Ep>(__u.get_deleter()))
 257:c:\gcc for renesas rx 8.3.0.202004-gnurx-elf\rx-elf\rx-elf\rx-elf\include\c++\8.3.0.202004-gnurx\bits\unique_ptr.h **** 	{ }
 258:c:\gcc for renesas rx 8.3.0.202004-gnurx-elf\rx-elf\rx-elf\rx-elf\include\c++\8.3.0.202004-gnurx\bits\unique_ptr.h **** 
 259:c:\gcc for renesas rx 8.3.0.202004-gnurx-elf\rx-elf\rx-elf\rx-elf\include\c++\8.3.0.202004-gnurx\bits\unique_ptr.h **** #if _GLIBCXX_USE_DEPRECATED
 260:c:\gcc for renesas rx 8.3.0.202004-gnurx-elf\rx-elf\rx-elf\rx-elf\include\c++\8.3.0.202004-gnurx\bits\unique_ptr.h **** #pragma GCC diagnostic push
 261:c:\gcc for renesas rx 8.3.0.202004-gnurx-elf\rx-elf\rx-elf\rx-elf\include\c++\8.3.0.202004-gnurx\bits\unique_ptr.h **** #pragma GCC diagnostic ignored "-Wdeprecated-declarations"
 262:c:\gcc for renesas rx 8.3.0.202004-gnurx-elf\rx-elf\rx-elf\rx-elf\include\c++\8.3.0.202004-gnurx\bits\unique_ptr.h ****       /// Converting constructor from @c auto_ptr
 263:c:\gcc for renesas rx 8.3.0.202004-gnurx-elf\rx-elf\rx-elf\rx-elf\include\c++\8.3.0.202004-gnurx\bits\unique_ptr.h ****       template<typename _Up, typename = _Require<
 264:c:\gcc for renesas rx 8.3.0.202004-gnurx-elf\rx-elf\rx-elf\rx-elf\include\c++\8.3.0.202004-gnurx\bits\unique_ptr.h **** 	       is_convertible<_Up*, _Tp*>, is_same<_Dp, default_delete<_Tp>>>>
 265:c:\gcc for renesas rx 8.3.0.202004-gnurx-elf\rx-elf\rx-elf\rx-elf\include\c++\8.3.0.202004-gnurx\bits\unique_ptr.h **** 	unique_ptr(auto_ptr<_Up>&& __u) noexcept;
 266:c:\gcc for renesas rx 8.3.0.202004-gnurx-elf\rx-elf\rx-elf\rx-elf\include\c++\8.3.0.202004-gnurx\bits\unique_ptr.h **** #pragma GCC diagnostic pop
 267:c:\gcc for renesas rx 8.3.0.202004-gnurx-elf\rx-elf\rx-elf\rx-elf\include\c++\8.3.0.202004-gnurx\bits\unique_ptr.h **** #endif
 268:c:\gcc for renesas rx 8.3.0.202004-gnurx-elf\rx-elf\rx-elf\rx-elf\include\c++\8.3.0.202004-gnurx\bits\unique_ptr.h **** 
 269:c:\gcc for renesas rx 8.3.0.202004-gnurx-elf\rx-elf\rx-elf\rx-elf\include\c++\8.3.0.202004-gnurx\bits\unique_ptr.h ****       /// Destructor, invokes the deleter if the stored pointer is not null.
 270:c:\gcc for renesas rx 8.3.0.202004-gnurx-elf\rx-elf\rx-elf\rx-elf\include\c++\8.3.0.202004-gnurx\bits\unique_ptr.h ****       ~unique_ptr() noexcept
 271:c:\gcc for renesas rx 8.3.0.202004-gnurx-elf\rx-elf\rx-elf\rx-elf\include\c++\8.3.0.202004-gnurx\bits\unique_ptr.h ****       {
 272:c:\gcc for renesas rx 8.3.0.202004-gnurx-elf\rx-elf\rx-elf\rx-elf\include\c++\8.3.0.202004-gnurx\bits\unique_ptr.h **** 	auto& __ptr = _M_t._M_ptr();
 273:c:\gcc for renesas rx 8.3.0.202004-gnurx-elf\rx-elf\rx-elf\rx-elf\include\c++\8.3.0.202004-gnurx\bits\unique_ptr.h **** 	if (__ptr != nullptr)
 3158                             		.loc 5 273 2 is_stmt 0 discriminator 3
 3159 00de 61 08                   		cmp	#0, r8
 3160 00e0 10                      		beq	.L254
 274:c:\gcc for renesas rx 8.3.0.202004-gnurx-elf\rx-elf\rx-elf\rx-elf\include\c++\8.3.0.202004-gnurx\bits\unique_ptr.h **** 	  get_deleter()(__ptr);
 3161                             		.loc 5 274 17
 3162 00e1 EF 81                   		mov.L	r8, r1
 3163 00e3 05 00 00 00             		bsr	_TfLiteIntArrayFree
 3164                             	.LVL376:
 3165 00e7 03                      		.balign 8,3,1
 3166                             	.L254:
 3167                             	.LBE1037:
 3168                             	.LBE1036:
 3169                             	.LBB1038:
 3170                             	.LBB1033:
 405:../src/tensorflow/lite/kernels/kernel_util.cc ****     shape->data[out_dims - i - 1] = std::max(d1, d2);
 3171                             		.loc 1 405 5
 3172 00e8 66 11                   		mov.L	#1, r1
 3173                             	.LVL377:
 3174                             	.LBE1033:
 3175                             	.LBE1038:
 3176                             		.loc 1 410 1
 3177 00ea 3F 6D 0F                		rtsd	#60, r6-r13
 3178                             	.LVL378:
 3179                             	.L232:
 3180                             	.LBB1039:
 3181                             	.LBB1008:
 147:C:\Users\a5116938\Desktop\e2_studio_workspace\EEMBC_final\RX65N_Cloud_Kit\src/tensorflow/lite/kernels\kernel_util.h **** inline int SizeOfDimension(const TfLiteTensor* t, int dim) {
 3182                             		.loc 4 147 67
 3183 00ed ED 3A 02                		mov.L	8[r3], r10
 3184 00f0 EC AA                   		mov.L	[r10], r10
 3185 00f2 EF A6                   		mov.L	r10, r6
 3186 00f4 FC 13 76                		max	r7, r6
 3187                             	.LBE1008:
 3188                             	.LBE1039:
 400:../src/tensorflow/lite/kernels/kernel_util.cc ****       TfLiteIntArrayCreate(out_dims), TfLiteIntArrayFree);
 3189                             		.loc 1 400 3 is_stmt 1
 401:../src/tensorflow/lite/kernels/kernel_util.cc ****   for (int i = 0; i < out_dims; ++i) {
 3190                             		.loc 1 401 57 is_stmt 0
 3191 00f7 EF 61                   		mov.L	r6, r1
 3192                             	.LVL379:
 3193 00f9 A1 02                   		mov.L	r2, 16[r0]
 3194 00fb A1 0B                   		mov.L	r3, 20[r0]
 3195 00fd 05 00 00 00             		bsr	_TfLiteIntArrayCreate
 3196                             	.LVL380:
 3197 0101 EF 18                   		mov.L	r1, r8
 3198                             	.LVL381:
 402:../src/tensorflow/lite/kernels/kernel_util.cc ****     int d1 = i >= dims1 ? 1 : SizeOfDimension(input1, dims1 - i - 1);
 3199                             		.loc 1 402 3 is_stmt 1
 3200                             	.LBB1040:
 402:../src/tensorflow/lite/kernels/kernel_util.cc ****     int d1 = i >= dims1 ? 1 : SizeOfDimension(input1, dims1 - i - 1);
 3201                             		.loc 1 402 21 is_stmt 0
 3202 0103 A9 02                   		mov.L	16[r0], r2
 3203 0105 A9 0B                   		mov.L	20[r0], r3
 3204 0107 61 06                   		cmp	#0, r6
 3205 0109 2B 05 38 4D FF          		bgt	.L242
 3206                             	.LBE1040:
 408:../src/tensorflow/lite/kernels/kernel_util.cc ****   return kTfLiteOk;
 3207                             		.loc 1 408 3 is_stmt 1
 3208                             	.LVL382:
 408:../src/tensorflow/lite/kernels/kernel_util.cc ****   return kTfLiteOk;
 3209                             		.loc 1 408 17 is_stmt 0
 3210 010e E3 C8                   		mov.L	r8, [r12]
 409:../src/tensorflow/lite/kernels/kernel_util.cc **** }
 3211                             		.loc 1 409 3 is_stmt 1
 3212                             	.LVL383:
 409:../src/tensorflow/lite/kernels/kernel_util.cc **** }
 3213                             		.loc 1 409 10 is_stmt 0
 3214 0110 66 01                   		mov.L	#0, r1
 3215                             	.LVL384:
 3216 0112 2E 93                   		bra	.L231
 3217                             	.LFE3317:
 3219 0114 76 10 01 00             		.section	.text._ZN6tflite26CalculateShapeForBroadcastEP13TfLiteContextPK12TfLiteTensorS4_S4_PP14Tf
 3220                             		.global	__ZN6tflite26CalculateShapeForBroadcastEP13TfLiteContextPK12TfLiteTensorS4_S4_PP14TfLiteIn
 3222                             	__ZN6tflite26CalculateShapeForBroadcastEP13TfLiteContextPK12TfLiteTensorS4_S4_PP14TfLiteIntArray:
 3223                             	.LFB3319:
 411:../src/tensorflow/lite/kernels/kernel_util.cc **** 
 412:../src/tensorflow/lite/kernels/kernel_util.cc **** TfLiteStatus CalculateShapeForBroadcast(TfLiteContext* context,
 413:../src/tensorflow/lite/kernels/kernel_util.cc ****                                         const TfLiteTensor* input1,
 414:../src/tensorflow/lite/kernels/kernel_util.cc ****                                         const TfLiteTensor* input2,
 415:../src/tensorflow/lite/kernels/kernel_util.cc ****                                         const TfLiteTensor* input3,
 416:../src/tensorflow/lite/kernels/kernel_util.cc ****                                         TfLiteIntArray** output_shape) {
 3224                             		.loc 1 416 72 is_stmt 1
 3225                             	.LVL385:
 3226 0000 6E 6D                   		pushm	r6-r13
 3227                             	.LCFI15:
 3228 0002 71 00 D4                		add	#-44, r0
 3229                             	.LCFI16:
 417:../src/tensorflow/lite/kernels/kernel_util.cc ****   int dims1 = NumDimensions(input1);
 3230                             		.loc 1 417 3
 416:../src/tensorflow/lite/kernels/kernel_util.cc ****   int dims1 = NumDimensions(input1);
 3231                             		.loc 1 416 72 is_stmt 0
 3232 0005 EF 3D                   		mov.L	r3, r13
 3233                             	.LVL386:
 3234                             	.LBB1041:
 3235                             	.LBB1042:
 147:C:\Users\a5116938\Desktop\e2_studio_workspace\EEMBC_final\RX65N_Cloud_Kit\src/tensorflow/lite/kernels\kernel_util.h **** inline int SizeOfDimension(const TfLiteTensor* t, int dim) {
 3236                             		.loc 4 147 51 is_stmt 1
 3237                             	.LBE1042:
 3238                             	.LBE1041:
 3239                             	.LBB1045:
 3240                             	.LBB1046:
 147:C:\Users\a5116938\Desktop\e2_studio_workspace\EEMBC_final\RX65N_Cloud_Kit\src/tensorflow/lite/kernels\kernel_util.h **** inline int SizeOfDimension(const TfLiteTensor* t, int dim) {
 3241                             		.loc 4 147 67 is_stmt 0
 3242 0007 A8 B5                   		mov.L	8[r3], r5
 3243                             	.LBE1046:
 3244                             	.LBE1045:
 3245                             	.LBB1049:
 3246                             	.LBB1050:
 3247 0009 ED 4A 02                		mov.L	8[r4], r10
 3248                             	.LBE1050:
 3249                             	.LBE1049:
 3250                             	.LBB1053:
 3251                             	.LBB1043:
 3252 000c A8 A7                   		mov.L	8[r2], r7
 3253                             	.LBE1043:
 3254                             	.LBE1053:
 3255                             	.LBB1054:
 3256                             	.LBB1047:
 3257 000e EC 5B                   		mov.L	[r5], r11
 3258                             	.LBE1047:
 3259                             	.LBE1054:
 416:../src/tensorflow/lite/kernels/kernel_util.cc ****   int dims1 = NumDimensions(input1);
 3260                             		.loc 1 416 72
 3261 0010 A1 81                   		mov.L	r1, 24[r0]
 3262                             	.LBB1055:
 3263                             	.LBB1051:
 147:C:\Users\a5116938\Desktop\e2_studio_workspace\EEMBC_final\RX65N_Cloud_Kit\src/tensorflow/lite/kernels\kernel_util.h **** inline int SizeOfDimension(const TfLiteTensor* t, int dim) {
 3264                             		.loc 4 147 67
 3265 0012 EC A6                   		mov.L	[r10], r6
 3266                             	.LBE1051:
 3267                             	.LBE1055:
 3268                             	.LBB1056:
 3269                             	.LBB1044:
 3270 0014 EC 7C                   		mov.L	[r7], r12
 3271                             	.LVL387:
 3272                             	.LBE1044:
 3273                             	.LBE1056:
 418:../src/tensorflow/lite/kernels/kernel_util.cc ****   int dims2 = NumDimensions(input2);
 3274                             		.loc 1 418 3 is_stmt 1
 3275                             	.LBB1057:
 3276                             	.LBB1048:
 147:C:\Users\a5116938\Desktop\e2_studio_workspace\EEMBC_final\RX65N_Cloud_Kit\src/tensorflow/lite/kernels\kernel_util.h **** inline int SizeOfDimension(const TfLiteTensor* t, int dim) {
 3277                             		.loc 4 147 51
 3278                             	.LBE1048:
 3279                             	.LBE1057:
 419:../src/tensorflow/lite/kernels/kernel_util.cc ****   int dims3 = NumDimensions(input3);
 3280                             		.loc 1 419 3
 3281                             	.LBB1058:
 3282                             	.LBB1052:
 147:C:\Users\a5116938\Desktop\e2_studio_workspace\EEMBC_final\RX65N_Cloud_Kit\src/tensorflow/lite/kernels\kernel_util.h **** inline int SizeOfDimension(const TfLiteTensor* t, int dim) {
 3283                             		.loc 4 147 51
 3284                             	.LBE1052:
 3285                             	.LBE1058:
 420:../src/tensorflow/lite/kernels/kernel_util.cc ****   int out_dims = std::max(std::max(dims1, dims2), dims3);
 3286                             		.loc 1 420 3
 416:../src/tensorflow/lite/kernels/kernel_util.cc ****   int dims1 = NumDimensions(input1);
 3287                             		.loc 1 416 72 is_stmt 0
 3288 0016 E5 00 14 07             		mov.L	80[r0], 28[r0]
 3289 001a EF B9                   		mov.L	r11, r9
 3290 001c FC 13 69                		max	r6, r9
 3291 001f EF 97                   		mov.L	r9, r7
 3292 0021 FC 13 C7                		max	r12, r7
 3293                             	.LVL388:
 421:../src/tensorflow/lite/kernels/kernel_util.cc ****   std::unique_ptr<TfLiteIntArray, void (*)(TfLiteIntArray*)> shape(
 3294                             		.loc 1 421 3 is_stmt 1
 422:../src/tensorflow/lite/kernels/kernel_util.cc ****       TfLiteIntArrayCreate(out_dims), TfLiteIntArrayFree);
 3295                             		.loc 1 422 57 is_stmt 0
 3296 0024 EF 71                   		mov.L	r7, r1
 3297                             	.LVL389:
 3298 0026 A2 02                   		mov.L	r2, 32[r0]
 3299 0028 A2 0C                   		mov.L	r4, 36[r0]
 3300 002a 05 00 00 00             		bsr	_TfLiteIntArrayCreate
 3301                             	.LVL390:
 3302 002e A1 09                   		mov.L	r1, 20[r0]
 3303                             	.LVL391:
 423:../src/tensorflow/lite/kernels/kernel_util.cc ****   for (int i = 0; i < out_dims; ++i) {
 3304                             		.loc 1 423 3 is_stmt 1
 3305                             	.LBB1059:
 3306                             		.loc 1 423 21 is_stmt 0
 3307 0030 AA 02                   		mov.L	32[r0], r2
 3308 0032 AA 0C                   		mov.L	36[r0], r4
 3309 0034 61 07                   		cmp	#0, r7
 3310 0036 2A 05 38 90 00          		ble	.L259
 3311 003b FF 03 76                		sub	r7, r6, r3
 3312 003e FB 92 FF FF FF 3F       		mov.L	#0x3fffffff, r9
 3313 0044 4F 69                   		mul	r6, r9
 3314 0046 4B 79                   		add	r7, r9
 3315 0048 EF 65                   		mov.L	r6, r5
 3316 004a 6C 29                   		shll	#2, r9
 3317                             	.LBB1060:
 424:../src/tensorflow/lite/kernels/kernel_util.cc ****     int d1 = i >= dims1 ? 1 : SizeOfDimension(input1, dims1 - i - 1);
 3318                             		.loc 1 424 25
 3319 004c 66 18                   		mov.L	#1, r8
 3320 004e 4B 19                   		add	r1, r9
 3321                             	.LBB1061:
 3322                             	.LBB1062:
 149:C:\Users\a5116938\Desktop\e2_studio_workspace\EEMBC_final\RX65N_Cloud_Kit\src/tensorflow/lite/kernels\kernel_util.h **** }
 3323                             		.loc 4 149 27
 3324 0050 FC 3B 67                		not	r6, r7
 3325 0053 A1 07                   		mov.L	r7, 16[r0]
 3326 0055 2E 5C                   		bra	.L267
 3327                             	.LVL392:
 3328                             	.L287:
 149:C:\Users\a5116938\Desktop\e2_studio_workspace\EEMBC_final\RX65N_Cloud_Kit\src/tensorflow/lite/kernels\kernel_util.h **** }
 3329                             		.loc 4 149 3 is_stmt 1 discriminator 1
 149:C:\Users\a5116938\Desktop\e2_studio_workspace\EEMBC_final\RX65N_Cloud_Kit\src/tensorflow/lite/kernels\kernel_util.h **** }
 3330                             		.loc 4 149 27 is_stmt 0 discriminator 1
 3331 0057 FF 27 C5                		add	r12, r5, r7
 3332 005a ED 2A 02                		mov.L	8[r2], r10
 3333 005d 06 89 07 04             		add	16[r0], r7
 3334 0061 62 17                   		add	#1, r7
 3335 0063 FE 67 A7                		mov.L	[r7,r10], r7
 3336                             	.LVL393:
 3337                             	.LBE1062:
 3338                             	.LBE1061:
 425:../src/tensorflow/lite/kernels/kernel_util.cc ****     int d2 = i >= dims2 ? 1 : SizeOfDimension(input2, dims2 - i - 1);
 3339                             		.loc 1 425 5 is_stmt 1 discriminator 1
 3340                             		.loc 1 425 25 is_stmt 0 discriminator 1
 3341 0066 47 1B                   		cmp	r1, r11
 3342 0068 2B 56                   		ble	.L271
 3343                             	.LVL394:
 3344                             		.balign 8,3,2
 3345                             	.L288:
 3346                             	.LBB1063:
 3347                             	.LBB1064:
 149:C:\Users\a5116938\Desktop\e2_studio_workspace\EEMBC_final\RX65N_Cloud_Kit\src/tensorflow/lite/kernels\kernel_util.h **** }
 3348                             		.loc 4 149 3 is_stmt 1 discriminator 1
 149:C:\Users\a5116938\Desktop\e2_studio_workspace\EEMBC_final\RX65N_Cloud_Kit\src/tensorflow/lite/kernels\kernel_util.h **** }
 3349                             		.loc 4 149 27 is_stmt 0 discriminator 1
 3350 006a FF 2A B5                		add	r11, r5, r10
 3351 006d ED DE 02                		mov.L	8[r13], r14
 3352 0070 06 89 0A 04             		add	16[r0], r10
 3353 0074 62 1A                   		add	#1, r10
 3354 0076 FE 6A EA                		mov.L	[r10,r14], r10
 3355                             	.LVL395:
 3356                             	.LBE1064:
 3357                             	.LBE1063:
 426:../src/tensorflow/lite/kernels/kernel_util.cc ****     int d3 = i >= dims3 ? 1 : SizeOfDimension(input3, dims3 - i - 1);
 3358                             		.loc 1 426 5 is_stmt 1 discriminator 1
 3359                             		.loc 1 426 25 is_stmt 0 discriminator 1
 3360 0079 47 16                   		cmp	r1, r6
 3361 007b 2B 49                   		ble	.L272
 3362                             	.LVL396:
 3363                             		.balign 8,3,1
 3364                             	.L289:
 3365                             	.LBB1065:
 3366                             	.LBB1066:
 149:C:\Users\a5116938\Desktop\e2_studio_workspace\EEMBC_final\RX65N_Cloud_Kit\src/tensorflow/lite/kernels\kernel_util.h **** }
 3367                             		.loc 4 149 3 is_stmt 1 discriminator 1
 149:C:\Users\a5116938\Desktop\e2_studio_workspace\EEMBC_final\RX65N_Cloud_Kit\src/tensorflow/lite/kernels\kernel_util.h **** }
 3368                             		.loc 4 149 27 is_stmt 0 discriminator 1
 3369 007d A8 C1                   		mov.L	8[r4], r1
 3370                             	.LVL397:
 3371 007f FE 65 11                		mov.L	[r5,r1], r1
 3372                             	.LVL398:
 3373                             		.balign 8,3,1
 3374                             	.L262:
 3375                             	.LBE1066:
 3376                             	.LBE1065:
 427:../src/tensorflow/lite/kernels/kernel_util.cc ****     int max_value = std::max(std::max(d1, d2), d3);
 3377                             		.loc 1 427 5 is_stmt 1 discriminator 4
 3378 0082 EF 7F                   		mov.L	r7, r15
 3379 0084 FC 13 AF                		max	r10, r15
 3380                             	.LVL399:
 3381 0087 EF 1E                   		mov.L	r1, r14
 3382 0089 FC 13 FE                		max	r15, r14
 3383                             	.LVL400:
 428:../src/tensorflow/lite/kernels/kernel_util.cc ****     TF_LITE_ENSURE(context, d1 == 1 || d1 == max_value);
 3384                             		.loc 1 428 5 discriminator 4
 3385                             		.loc 1 428 5 discriminator 4
 3386 008c 61 17                   		cmp	#1, r7
 3387 008e 15                      		beq	.L263
 3388                             		.loc 1 428 5 is_stmt 0 discriminator 1
 3389 008f 47 E7                   		cmp	r14, r7
 3390 0091 21 42                   		bne	.L284
 3391                             		.balign 8,3,1
 3392                             	.L263:
 429:../src/tensorflow/lite/kernels/kernel_util.cc ****     TF_LITE_ENSURE(context, d2 == 1 || d2 == max_value);
 3393                             		.loc 1 429 5 is_stmt 1
 3394                             		.loc 1 429 5
 3395 0093 61 1A                   		cmp	#1, r10
 3396 0095 15                      		beq	.L265
 3397                             		.loc 1 429 5 is_stmt 0 discriminator 1
 3398 0096 47 EA                   		cmp	r14, r10
 3399 0098 21 6E                   		bne	.L285
 3400                             		.balign 8,3,1
 3401                             	.L265:
 430:../src/tensorflow/lite/kernels/kernel_util.cc ****     TF_LITE_ENSURE(context, d3 == 1 || d3 == max_value);
 3402                             		.loc 1 430 5 is_stmt 1
 3403                             		.loc 1 430 5
 3404 009a 61 11                   		cmp	#1, r1
 3405 009c 20 0C                   		beq	.L266
 3406                             		.loc 1 430 5 is_stmt 0 discriminator 1
 3407 009e 47 F1                   		cmp	r15, r1
 3408 00a0 28 05 38 89 00          		blt	.L286
 3409 00a5 FC 13 00                		.balign 8,3,5
 3410                             	.L266:
 431:../src/tensorflow/lite/kernels/kernel_util.cc ****     shape->data[out_dims - i - 1] = max_value;
 3411                             		.loc 1 431 5 is_stmt 1
 3412                             		.loc 1 431 35 is_stmt 0
 3413 00a8 FE 25 9E                		mov.L	r14, [r5,r9]
 3414                             	.LVL401:
 3415 00ab 60 15                   		sub	#1, r5
 3416                             	.LVL402:
 3417                             	.LBE1060:
 423:../src/tensorflow/lite/kernels/kernel_util.cc ****     int d1 = i >= dims1 ? 1 : SizeOfDimension(input1, dims1 - i - 1);
 3418                             		.loc 1 423 21
 3419 00ad 47 35                   		cmp	r3, r5
 3420 00af 20 19                   		beq	.L259
 3421                             	.LVL403:
 3422                             		.balign 8,3,2
 3423                             	.L267:
 3424                             	.LBB1067:
 424:../src/tensorflow/lite/kernels/kernel_util.cc ****     int d2 = i >= dims2 ? 1 : SizeOfDimension(input2, dims2 - i - 1);
 3425                             		.loc 1 424 5 is_stmt 1
 3426 00b1 FF 01 56                		sub	r5, r6, r1
 3427                             	.LVL404:
 424:../src/tensorflow/lite/kernels/kernel_util.cc ****     int d2 = i >= dims2 ? 1 : SizeOfDimension(input2, dims2 - i - 1);
 3428                             		.loc 1 424 25 is_stmt 0
 3429 00b4 47 1C                   		cmp	r1, r12
 3430 00b6 2A A1                   		bgt	.L287
 3431 00b8 EF 87                   		mov.L	r8, r7
 3432                             	.LVL405:
 425:../src/tensorflow/lite/kernels/kernel_util.cc ****     int d3 = i >= dims3 ? 1 : SizeOfDimension(input3, dims3 - i - 1);
 3433                             		.loc 1 425 5 is_stmt 1
 425:../src/tensorflow/lite/kernels/kernel_util.cc ****     int d3 = i >= dims3 ? 1 : SizeOfDimension(input3, dims3 - i - 1);
 3434                             		.loc 1 425 25 is_stmt 0
 3435 00ba 47 1B                   		cmp	r1, r11
 3436 00bc 2A AE                   		bgt	.L288
 3437                             		.balign 8,3,1
 3438                             	.L271:
 3439 00be EF 8A                   		mov.L	r8, r10
 3440                             	.LVL406:
 426:../src/tensorflow/lite/kernels/kernel_util.cc ****     int max_value = std::max(std::max(d1, d2), d3);
 3441                             		.loc 1 426 5 is_stmt 1
 426:../src/tensorflow/lite/kernels/kernel_util.cc ****     int max_value = std::max(std::max(d1, d2), d3);
 3442                             		.loc 1 426 25 is_stmt 0
 3443 00c0 47 16                   		cmp	r1, r6
 3444 00c2 2A BB                   		bgt	.L289
 3445                             		.balign 8,3,1
 3446                             	.L272:
 3447 00c4 EF 81                   		mov.L	r8, r1
 3448                             	.LVL407:
 3449 00c6 2E BC                   		bra	.L262
 3450                             	.LVL408:
 3451                             	.L259:
 3452                             	.LBE1067:
 3453                             	.LBE1059:
 432:../src/tensorflow/lite/kernels/kernel_util.cc ****   }
 433:../src/tensorflow/lite/kernels/kernel_util.cc ****   *output_shape = shape.release();
 3454                             		.loc 1 433 3 is_stmt 1
 3455                             		.loc 1 433 17 is_stmt 0
 3456 00c8 ED 0A 07                		mov.L	28[r0], r10
 3457 00cb E1 0A 05                		mov.L	20[r0], [r10]
 434:../src/tensorflow/lite/kernels/kernel_util.cc ****   return kTfLiteOk;
 3458                             		.loc 1 434 3 is_stmt 1
 3459                             	.LVL409:
 3460                             		.loc 1 434 10 is_stmt 0
 3461 00ce 66 01                   		mov.L	#0, r1
 435:../src/tensorflow/lite/kernels/kernel_util.cc **** }
 3462                             		.loc 1 435 1
 3463 00d0 3F 6D 13                		rtsd	#76, r6-r13
 3464                             	.LVL410:
 3465                             	.L284:
 3466                             	.LBB1070:
 3467                             	.LBB1068:
 428:../src/tensorflow/lite/kernels/kernel_util.cc ****     TF_LITE_ENSURE(context, d2 == 1 || d2 == max_value);
 3468                             		.loc 1 428 5 is_stmt 1 discriminator 2
 428:../src/tensorflow/lite/kernels/kernel_util.cc ****     TF_LITE_ENSURE(context, d2 == 1 || d2 == max_value);
 3469                             		.loc 1 428 5 discriminator 2
 3470 00d3 ED 0A 06                		mov.L	24[r0], r10
 3471                             	.LVL411:
 3472 00d6 ED A7 05                		mov.L	20[r10], r7
 3473                             	.LVL412:
 3474 00d9 F9 02 03 00 00 00 00    		mov.L	#.LC20, 12[r0]
 3475 00e0 F9 0A 02 AC 01          		mov.L	#0x1ac, 8[r0]
 3476 00e5 F9 02 01 22 00 00 00    		mov.L	#.LC3, 4[r0]
 3477 00ec EF A1                   		mov.L	r10, r1
 3478                             	.LVL413:
 3479 00ee F8 02 50 00 00 00       		mov.L	#.LC4, [r0]
 3480 00f4 7F 17                   		jsr	r7
 3481                             	.LVL414:
 428:../src/tensorflow/lite/kernels/kernel_util.cc ****     TF_LITE_ENSURE(context, d2 == 1 || d2 == max_value);
 3482                             		.loc 1 428 5 discriminator 2
 3483                             		.balign 8,3,1
 3484                             	.L264:
 3485                             	.LBE1068:
 3486                             	.LBE1070:
 3487                             	.LBB1071:
 3488                             	.LBB1072:
 273:c:\gcc for renesas rx 8.3.0.202004-gnurx-elf\rx-elf\rx-elf\rx-elf\include\c++\8.3.0.202004-gnurx\bits\unique_ptr.h **** 	  get_deleter()(__ptr);
 3489                             		.loc 5 273 2 is_stmt 0 discriminator 3
 3490 00f6 A9 0F                   		mov.L	20[r0], r7
 3491 00f8 61 07                   		cmp	#0, r7
 3492 00fa 17                      		beq	.L283
 3493 00fb EF 71                   		mov.L	r7, r1
 3494                             		.loc 5 274 17
 3495 00fd 05 00 00 00             		bsr	_TfLiteIntArrayFree
 3496                             	.LVL415:
 3497                             		.balign 8,3,1
 3498                             	.L283:
 3499 0101 66 11                   		mov.L	#1, r1
 3500                             	.LVL416:
 3501                             	.LBE1072:
 3502                             	.LBE1071:
 3503                             		.loc 1 435 1
 3504 0103 3F 6D 13                		rtsd	#76, r6-r13
 3505                             	.LVL417:
 3506                             	.L285:
 3507                             	.LBB1073:
 3508                             	.LBB1069:
 429:../src/tensorflow/lite/kernels/kernel_util.cc ****     TF_LITE_ENSURE(context, d3 == 1 || d3 == max_value);
 3509                             		.loc 1 429 5 is_stmt 1 discriminator 2
 429:../src/tensorflow/lite/kernels/kernel_util.cc ****     TF_LITE_ENSURE(context, d3 == 1 || d3 == max_value);
 3510                             		.loc 1 429 5 discriminator 2
 3511 0106 ED 0A 06                		mov.L	24[r0], r10
 3512                             	.LVL418:
 3513 0109 ED A7 05                		mov.L	20[r10], r7
 3514                             	.LVL419:
 3515 010c F9 02 03 1B 00 00 00    		mov.L	#.LC21, 12[r0]
 3516 0113 F9 0A 02 AD 01          		mov.L	#0x1ad, 8[r0]
 3517 0118 F9 02 01 22 00 00 00    		mov.L	#.LC3, 4[r0]
 3518 011f EF A1                   		mov.L	r10, r1
 3519                             	.LVL420:
 3520 0121 F8 02 50 00 00 00       		mov.L	#.LC4, [r0]
 3521 0127 7F 17                   		jsr	r7
 3522                             	.LVL421:
 429:../src/tensorflow/lite/kernels/kernel_util.cc ****     TF_LITE_ENSURE(context, d3 == 1 || d3 == max_value);
 3523                             		.loc 1 429 5 discriminator 2
 3524 0129 2E CD                   		bra	.L264
 3525                             	.LVL422:
 3526                             	.L286:
 430:../src/tensorflow/lite/kernels/kernel_util.cc ****     shape->data[out_dims - i - 1] = max_value;
 3527                             		.loc 1 430 5 discriminator 2
 430:../src/tensorflow/lite/kernels/kernel_util.cc ****     shape->data[out_dims - i - 1] = max_value;
 3528                             		.loc 1 430 5 discriminator 2
 3529 012b ED 0A 06                		mov.L	24[r0], r10
 3530                             	.LVL423:
 3531 012e ED A7 05                		mov.L	20[r10], r7
 3532                             	.LVL424:
 3533 0131 F9 02 03 36 00 00 00    		mov.L	#.LC22, 12[r0]
 3534 0138 F9 0A 02 AE 01          		mov.L	#0x1ae, 8[r0]
 3535 013d F9 02 01 22 00 00 00    		mov.L	#.LC3, 4[r0]
 3536 0144 EF A1                   		mov.L	r10, r1
 3537                             	.LVL425:
 3538 0146 F8 02 50 00 00 00       		mov.L	#.LC4, [r0]
 3539 014c 7F 17                   		jsr	r7
 3540                             	.LVL426:
 430:../src/tensorflow/lite/kernels/kernel_util.cc ****     shape->data[out_dims - i - 1] = max_value;
 3541                             		.loc 1 430 5 discriminator 2
 3542 014e 2E A8                   		bra	.L264
 3543                             	.LBE1069:
 3544                             	.LBE1073:
 3545                             	.LFE3319:
 3547                             		.section	.text._ZN6tflite17TfLiteTypeGetSizeE10TfLiteType,"ax",@progbits
 3548                             		.global	__ZN6tflite17TfLiteTypeGetSizeE10TfLiteType
 3550                             	__ZN6tflite17TfLiteTypeGetSizeE10TfLiteType:
 3551                             	.LFB3320:
 436:../src/tensorflow/lite/kernels/kernel_util.cc **** #endif  // TF_LITE_STATIC_MEMORY
 437:../src/tensorflow/lite/kernels/kernel_util.cc **** 
 438:../src/tensorflow/lite/kernels/kernel_util.cc **** // Size of string is not constant, return 0 in such case.
 439:../src/tensorflow/lite/kernels/kernel_util.cc **** int TfLiteTypeGetSize(TfLiteType type) {
 3552                             		.loc 1 439 40
 3553                             	.LVL427:
 440:../src/tensorflow/lite/kernels/kernel_util.cc ****   switch (type) {
 3554                             		.loc 1 440 3
 3555 0000 61 71                   		cmp	#7, r1
 3556 0002 20 45                   		beq	.L302
 3557 0004 61 71                   		cmp	#7, r1
 3558 0006 24 13                   		bgtu	.L292
 3559 0008 61 31                   		cmp	#3, r1
 3560 000a 20 40                   		beq	.L298
 3561 000c 61 31                   		cmp	#3, r1
 3562 000e 24 17                   		bgtu	.L293
 441:../src/tensorflow/lite/kernels/kernel_util.cc ****     case kTfLiteUInt8:
 442:../src/tensorflow/lite/kernels/kernel_util.cc ****       TF_LITE_ASSERT_EQ(sizeof(uint8_t), 1);
 443:../src/tensorflow/lite/kernels/kernel_util.cc ****       return 1;
 444:../src/tensorflow/lite/kernels/kernel_util.cc ****     case kTfLiteInt8:
 445:../src/tensorflow/lite/kernels/kernel_util.cc ****       TF_LITE_ASSERT_EQ(sizeof(int8_t), 1);
 446:../src/tensorflow/lite/kernels/kernel_util.cc ****       return 1;
 447:../src/tensorflow/lite/kernels/kernel_util.cc ****     case kTfLiteBool:
 448:../src/tensorflow/lite/kernels/kernel_util.cc ****       return sizeof(bool);
 449:../src/tensorflow/lite/kernels/kernel_util.cc ****     case kTfLiteInt16:
 450:../src/tensorflow/lite/kernels/kernel_util.cc ****       TF_LITE_ASSERT_EQ(sizeof(int16_t), 2);
 451:../src/tensorflow/lite/kernels/kernel_util.cc ****       return 2;
 452:../src/tensorflow/lite/kernels/kernel_util.cc ****     case kTfLiteFloat16:
 453:../src/tensorflow/lite/kernels/kernel_util.cc ****       TF_LITE_ASSERT_EQ(sizeof(int16_t), 2);
 454:../src/tensorflow/lite/kernels/kernel_util.cc ****       return 2;
 455:../src/tensorflow/lite/kernels/kernel_util.cc ****     case kTfLiteFloat32:
 456:../src/tensorflow/lite/kernels/kernel_util.cc ****       TF_LITE_ASSERT_EQ(sizeof(float), 4);
 457:../src/tensorflow/lite/kernels/kernel_util.cc ****       return 4;
 3563                             		.loc 1 457 14 is_stmt 0
 3564 0010 61 01                   		cmp	#0, r1
 3565 0012 66 41                   		mov.L	#4, r1
 3566                             	.LVL428:
 3567 0014 FD 74 E1 00             		stz	#0, r1
 3568 0018 02                      		rts
 3569                             	.LVL429:
 3570                             	.L292:
 440:../src/tensorflow/lite/kernels/kernel_util.cc ****   switch (type) {
 3571                             		.loc 1 440 3
 3572 0019 61 A1                   		cmp	#10, r1
 3573 001b 20 2C                   		beq	.L302
 3574 001d 61 A1                   		cmp	#10, r1
 3575 001f 24 13                   		bgtu	.L294
 3576 0021 61 81                   		cmp	#8, r1
 3577 0023 19                      		bne	.L308
 458:../src/tensorflow/lite/kernels/kernel_util.cc ****     case kTfLiteInt32:
 459:../src/tensorflow/lite/kernels/kernel_util.cc ****       TF_LITE_ASSERT_EQ(sizeof(int32_t), 4);
 460:../src/tensorflow/lite/kernels/kernel_util.cc ****       return 4;
 461:../src/tensorflow/lite/kernels/kernel_util.cc ****     case kTfLiteInt64:
 462:../src/tensorflow/lite/kernels/kernel_util.cc ****       TF_LITE_ASSERT_EQ(sizeof(int64_t), 8);
 463:../src/tensorflow/lite/kernels/kernel_util.cc ****       return 8;
 464:../src/tensorflow/lite/kernels/kernel_util.cc ****     case kTfLiteFloat64:
 465:../src/tensorflow/lite/kernels/kernel_util.cc ****       TF_LITE_ASSERT_EQ(sizeof(double), 8);
 466:../src/tensorflow/lite/kernels/kernel_util.cc ****       return 8;
 467:../src/tensorflow/lite/kernels/kernel_util.cc ****     case kTfLiteComplex64:
 468:../src/tensorflow/lite/kernels/kernel_util.cc ****       TF_LITE_ASSERT_EQ(sizeof(std::complex<float>), 8);
 469:../src/tensorflow/lite/kernels/kernel_util.cc ****       return 8;
 470:../src/tensorflow/lite/kernels/kernel_util.cc ****     case kTfLiteComplex128:
 471:../src/tensorflow/lite/kernels/kernel_util.cc ****       TF_LITE_ASSERT_EQ(sizeof(std::complex<double>), 16);
 472:../src/tensorflow/lite/kernels/kernel_util.cc ****       return 16;
 473:../src/tensorflow/lite/kernels/kernel_util.cc ****     default:
 474:../src/tensorflow/lite/kernels/kernel_util.cc ****       return 0;
 475:../src/tensorflow/lite/kernels/kernel_util.cc ****   }
 476:../src/tensorflow/lite/kernels/kernel_util.cc **** }
 3578                             		.loc 1 476 1
 3579 0024 02                      		rts
 3580                             	.L293:
 440:../src/tensorflow/lite/kernels/kernel_util.cc ****     case kTfLiteUInt8:
 3581                             		.loc 1 440 3
 3582 0025 61 41                   		cmp	#4, r1
 3583 0027 21 1A                   		bne	.L309
 463:../src/tensorflow/lite/kernels/kernel_util.cc ****     case kTfLiteFloat64:
 3584                             		.loc 1 463 14
 3585 0029 66 81                   		mov.L	#8, r1
 3586                             	.LVL430:
 3587 002b 02                      		rts
 3588                             	.LVL431:
 3589                             	.L308:
 474:../src/tensorflow/lite/kernels/kernel_util.cc ****   }
 3590                             		.loc 1 474 14
 3591 002c 61 91                   		cmp	#9, r1
 3592 002e FC DB 10                		sceq.L	r1
 3593                             	.LVL432:
 3594 0031 02                      		rts
 3595                             	.LVL433:
 3596                             	.L294:
 439:../src/tensorflow/lite/kernels/kernel_util.cc ****   switch (type) {
 3597                             		.loc 1 439 40
 3598 0032 7E A7                   		push.l	r7
 3599                             	.LCFI17:
 440:../src/tensorflow/lite/kernels/kernel_util.cc ****     case kTfLiteUInt8:
 3600                             		.loc 1 440 3
 3601 0034 61 B1                   		cmp	#11, r1
 3602 0036 20 17                   		beq	.L295
 3603 0038 61 C1                   		cmp	#12, r1
 3604 003a 20 42                   		beq	.L296
 474:../src/tensorflow/lite/kernels/kernel_util.cc ****   }
 3605                             		.loc 1 474 14
 3606 003c 66 01                   		mov.L	#0, r1
 3607                             	.LVL434:
 3608                             		.loc 1 476 1
 3609 003e 3F 77 01                		rtsd	#4, r7-r7
 3610                             	.LVL435:
 3611                             	.L309:
 3612                             	.LCFI18:
 474:../src/tensorflow/lite/kernels/kernel_util.cc ****   }
 3613                             		.loc 1 474 14
 3614 0041 61 61                   		cmp	#6, r1
 3615 0043 FC DB 10                		sceq.L	r1
 3616                             	.LVL436:
 3617 0046 02                      		rts
 3618                             	.LVL437:
 3619                             	.L302:
 451:../src/tensorflow/lite/kernels/kernel_util.cc ****     case kTfLiteFloat16:
 3620                             		.loc 1 451 14
 3621 0047 66 21                   		mov.L	#2, r1
 3622                             	.LVL438:
 3623 0049 02                      		rts
 3624                             	.LVL439:
 3625                             	.L298:
 443:../src/tensorflow/lite/kernels/kernel_util.cc ****     case kTfLiteInt8:
 3626                             		.loc 1 443 14
 3627 004a 66 11                   		mov.L	#1, r1
 3628                             	.LVL440:
 3629 004c 02                      		rts
 3630                             	.LVL441:
 3631                             	.L295:
 3632                             	.LCFI19:
 464:../src/tensorflow/lite/kernels/kernel_util.cc ****       TF_LITE_ASSERT_EQ(sizeof(double), 8);
 3633                             		.loc 1 464 5 is_stmt 1
 465:../src/tensorflow/lite/kernels/kernel_util.cc ****       return 8;
 3634                             		.loc 1 465 7
 465:../src/tensorflow/lite/kernels/kernel_util.cc ****       return 8;
 3635                             		.loc 1 465 7
 465:../src/tensorflow/lite/kernels/kernel_util.cc ****       return 8;
 3636                             		.loc 1 465 7
 465:../src/tensorflow/lite/kernels/kernel_util.cc ****       return 8;
 3637                             		.loc 1 465 7
 465:../src/tensorflow/lite/kernels/kernel_util.cc ****       return 8;
 3638                             		.loc 1 465 7
 3639 004d FB 72 00 00 00 00       		mov.L	#__impure_ptr, r7
 3640 0053 75 43 1D                		mov.L	#29, r3
 3641 0056 EC 75                   		mov.L	[r7], r5
 3642 0058 66 12                   		mov.L	#1, r2
 3643 005a FB 12 00 00 00 00       		mov.L	#.LC23, r1
 3644                             	.LVL442:
 3645 0060 A8 DC                   		mov.L	12[r5], r4
 3646 0062 05 00 00 00             		bsr	_fwrite
 3647                             	.LVL443:
 465:../src/tensorflow/lite/kernels/kernel_util.cc ****       return 8;
 3648                             		.loc 1 465 7
 465:../src/tensorflow/lite/kernels/kernel_util.cc ****       return 8;
 3649                             		.loc 1 465 7
 3650 0066 EC 77                   		mov.L	[r7], r7
 3651 0068 66 73                   		mov.L	#7, r3
 3652 006a A8 FC                   		mov.L	12[r7], r4
 3653 006c 66 12                   		mov.L	#1, r2
 3654 006e FB 12 1E 00 00 00       		mov.L	#.LC24, r1
 3655 0074 05 00 00 00             		bsr	_fwrite
 3656                             	.LVL444:
 465:../src/tensorflow/lite/kernels/kernel_util.cc ****       return 8;
 3657                             		.loc 1 465 7
 3658 0078 05 00 00 00             		bsr	_abort
 3659                             	.LVL445:
 3660                             	.L296:
 470:../src/tensorflow/lite/kernels/kernel_util.cc ****       TF_LITE_ASSERT_EQ(sizeof(std::complex<double>), 16);
 3661                             		.loc 1 470 5
 471:../src/tensorflow/lite/kernels/kernel_util.cc ****       return 16;
 3662                             		.loc 1 471 7
 471:../src/tensorflow/lite/kernels/kernel_util.cc ****       return 16;
 3663                             		.loc 1 471 7
 471:../src/tensorflow/lite/kernels/kernel_util.cc ****       return 16;
 3664                             		.loc 1 471 7
 471:../src/tensorflow/lite/kernels/kernel_util.cc ****       return 16;
 3665                             		.loc 1 471 7
 471:../src/tensorflow/lite/kernels/kernel_util.cc ****       return 16;
 3666                             		.loc 1 471 7
 3667 007c FB 72 00 00 00 00       		mov.L	#__impure_ptr, r7
 3668 0082 75 43 2C                		mov.L	#44, r3
 3669 0085 EC 75                   		mov.L	[r7], r5
 3670 0087 66 12                   		mov.L	#1, r2
 3671 0089 FB 12 26 00 00 00       		mov.L	#.LC25, r1
 3672                             	.LVL446:
 3673 008f A8 DC                   		mov.L	12[r5], r4
 3674 0091 05 00 00 00             		bsr	_fwrite
 3675                             	.LVL447:
 471:../src/tensorflow/lite/kernels/kernel_util.cc ****       return 16;
 3676                             		.loc 1 471 7
 471:../src/tensorflow/lite/kernels/kernel_util.cc ****       return 16;
 3677                             		.loc 1 471 7
 3678 0095 EC 77                   		mov.L	[r7], r7
 3679 0097 66 73                   		mov.L	#7, r3
 3680 0099 A8 FC                   		mov.L	12[r7], r4
 3681 009b 66 12                   		mov.L	#1, r2
 3682 009d FB 12 1E 00 00 00       		mov.L	#.LC24, r1
 3683 00a3 05 00 00 00             		bsr	_fwrite
 3684                             	.LVL448:
 471:../src/tensorflow/lite/kernels/kernel_util.cc ****       return 16;
 3685                             		.loc 1 471 7
 3686 00a7 05 00 00 00             		bsr	_abort
 3687                             	.LVL449:
 3688                             	.LFE3320:
 3690                             		.section	.rodata._ZN6tflite12GetInputSafeEPK13TfLiteContextPK10TfLiteNodeiPPK12TfLiteTensor.str1.1
 3691                             	.LC0:
 3692 0000 49 6E 76 61 6C 69 64 20 		.string	"Invalid tensor index %d (not in [0, %d))\n"
 3692      74 65 6E 73 6F 72 20 69 
 3692      6E 64 65 78 20 25 64 20 
 3692      28 6E 6F 74 20 69 6E 20 
 3692      5B 30 2C 20 25 64 29 29 
 3693                             	.LC1:
 3694 002a 54 65 6E 73 6F 72 20 61 		.string	"Tensor at index %d was optional but was expected\n"
 3694      74 20 69 6E 64 65 78 20 
 3694      25 64 20 77 61 73 20 6F 
 3694      70 74 69 6F 6E 61 6C 20 
 3694      62 75 74 20 77 61 73 20 
 3695                             		.section	.rodata._ZN6tflite17TfLiteTypeGetSizeE10TfLiteType.str1.1,"aMS",@progbits,1
 3696                             	.LC23:
 3697 0000 73 69 7A 65 6F 66 28 64 		.string	"sizeof(double) didn't equal 8"
 3697      6F 75 62 6C 65 29 20 64 
 3697      69 64 6E 27 74 20 65 71 
 3697      75 61 6C 20 38 00 
 3698                             	.LC24:
 3699 001e 0A 46 41 54 41 4C 0A 00 		.string	"\nFATAL\n"
 3700                             	.LC25:
 3701 0026 73 69 7A 65 6F 66 28 73 		.string	"sizeof(std::complex<double>) didn't equal 16"
 3701      74 64 3A 3A 63 6F 6D 70 
 3701      6C 65 78 3C 64 6F 75 62 
 3701      6C 65 3E 29 20 64 69 64 
 3701      6E 27 74 20 65 71 75 61 
 3702                             		.section	.rodata._ZN6tflite26CalculateShapeForBroadcastEP13TfLiteContextPK12TfLiteTensorS4_PP14TfL
 3703                             	.LC19:
 3704 0000 64 31 20 3D 3D 20 64 32 		.string	"d1 == d2 || d1 == 1 || d2 == 1"
 3704      20 7C 7C 20 64 31 20 3D 
 3704      3D 20 31 20 7C 7C 20 64 
 3704      32 20 3D 3D 20 31 00 
 3705                             		.section	.rodata._ZN6tflite26CalculateShapeForBroadcastEP13TfLiteContextPK12TfLiteTensorS4_S4_PP14
 3706                             	.LC20:
 3707 0000 64 31 20 3D 3D 20 31 20 		.string	"d1 == 1 || d1 == max_value"
 3707      7C 7C 20 64 31 20 3D 3D 
 3707      20 6D 61 78 5F 76 61 6C 
 3707      75 65 00 
 3708                             	.LC21:
 3709 001b 64 32 20 3D 3D 20 31 20 		.string	"d2 == 1 || d2 == max_value"
 3709      7C 7C 20 64 32 20 3D 3D 
 3709      20 6D 61 78 5F 76 61 6C 
 3709      75 65 00 
 3710                             	.LC22:
 3711 0036 64 33 20 3D 3D 20 31 20 		.string	"d3 == 1 || d3 == max_value"
 3711      7C 7C 20 64 33 20 3D 3D 
 3711      20 6D 61 78 5F 76 61 6C 
 3711      75 65 00 
 3712                             		.section	.rodata._ZN6tflite32GetQuantizedConvolutionMultiplerEP13TfLiteContextPK12TfLiteTensorS4_S
 3713                             	.LC2:
 3714 0000 73 63 61 6C 65 5F 64 69 		.string	"scale_diff / output_scale <= 0.02"
 3714      66 66 20 2F 20 6F 75 74 
 3714      70 75 74 5F 73 63 61 6C 
 3714      65 20 3C 3D 20 30 2E 30 
 3714      32 00 
 3715                             	.LC3:
 3716 0022 2E 2E 2F 73 72 63 2F 74 		.string	"../src/tensorflow/lite/kernels/kernel_util.cc"
 3716      65 6E 73 6F 72 66 6C 6F 
 3716      77 2F 6C 69 74 65 2F 6B 
 3716      65 72 6E 65 6C 73 2F 6B 
 3716      65 72 6E 65 6C 5F 75 74 
 3717                             	.LC4:
 3718 0050 25 73 3A 25 64 20 25 73 		.string	"%s:%d %s was not true."
 3718      20 77 61 73 20 6E 6F 74 
 3718      20 74 72 75 65 2E 00 
 3719                             	.LC5:
 3720 0067 69 6E 70 75 74 5F 70 72 		.string	"input_product_scale >= 0"
 3720      6F 64 75 63 74 5F 73 63 
 3720      61 6C 65 20 3E 3D 20 30 
 3720      00 
 3721                             		.section	.rodata._ZN6tflite33CalculateActivationRangeQuantizedEP13TfLiteContext21TfLiteFusedActiva
 3722                             	.LC6:
 3723 0000 66 61 6C 73 65 00       		.string	"false"
 3724                             		.section	.rodata._ZN6tflite37PopulateConvolutionQuantizationParamsEP13TfLiteContextPK12TfLiteTenso
 3725                             	.LC7:
 3726 0000 6B 54 66 4C 69 74 65 41 		.string	"kTfLiteAffineQuantization"
 3726      66 66 69 6E 65 51 75 61 
 3726      6E 74 69 7A 61 74 69 6F 
 3726      6E 00 
 3727                             	.LC8:
 3728 001a 69 6E 70 75 74 2D 3E 71 		.string	"input->quantization.type"
 3728      75 61 6E 74 69 7A 61 74 
 3728      69 6F 6E 2E 74 79 70 65 
 3728      00 
 3729                             	.LC9:
 3730 0033 25 73 3A 25 64 20 25 73 		.string	"%s:%d %s != %s (%d != %d)"
 3730      20 21 3D 20 25 73 20 28 
 3730      25 64 20 21 3D 20 25 64 
 3730      29 00 
 3731                             	.LC10:
 3732 004d 66 69 6C 74 65 72 2D 3E 		.string	"filter->quantization.type"
 3732      71 75 61 6E 74 69 7A 61 
 3732      74 69 6F 6E 2E 74 79 70 
 3732      65 00 
 3733                             	.LC11:
 3734 0067 61 66 66 69 6E 65 5F 71 		.string	"affine_quantization"
 3734      75 61 6E 74 69 7A 61 74 
 3734      69 6F 6E 00 
 3735                             	.LC12:
 3736 007b 61 66 66 69 6E 65 5F 71 		.string	"affine_quantization->scale"
 3736      75 61 6E 74 69 7A 61 74 
 3736      69 6F 6E 2D 3E 73 63 61 
 3736      6C 65 00 
 3737                             	.LC13:
 3738 0096 69 6E 70 75 74 2D 3E 74 		.string	"input->type == kTfLiteInt8 || input->type == kTfLiteInt16"
 3738      79 70 65 20 3D 3D 20 6B 
 3738      54 66 4C 69 74 65 49 6E 
 3738      74 38 20 7C 7C 20 69 6E 
 3738      70 75 74 2D 3E 74 79 70 
 3739                             	.LC14:
 3740 00d0 6B 54 66 4C 69 74 65 49 		.string	"kTfLiteInt8"
 3740      6E 74 38 00 
 3741                             	.LC15:
 3742 00dc 66 69 6C 74 65 72 2D 3E 		.string	"filter->type"
 3742      74 79 70 65 00 
 3743                             	.LC16:
 3744 00e9 6E 75 6D 5F 63 68 61 6E 		.string	"num_channels"
 3744      6E 65 6C 73 00 
 3745                             	.LC17:
 3746 00f6 61 66 66 69 6E 65 5F 71 		.string	"affine_quantization->scale->size"
 3746      75 61 6E 74 69 7A 61 74 
 3746      69 6F 6E 2D 3E 73 63 61 
 3746      6C 65 2D 3E 73 69 7A 65 
 3746      00 
 3747                             	.LC18:
 3748 0117 66 69 6C 74 65 72 2D 3E 		.string	"filter->dims->data[affine_quantization->quantized_dimension]"
 3748      64 69 6D 73 2D 3E 64 61 
 3748      74 61 5B 61 66 66 69 6E 
 3748      65 5F 71 75 61 6E 74 69 
 3748      7A 61 74 69 6F 6E 2D 3E 
 4084                             	.Letext0:
 4085                             		.file 6 "c:\\gcc for renesas rx 8.3.0.202004-gnurx-elf\\rx-elf\\rx-elf\\rx-elf\\include\\machine\\
 4086                             		.file 7 "c:\\gcc for renesas rx 8.3.0.202004-gnurx-elf\\rx-elf\\rx-elf\\rx-elf\\include\\sys\\_std
 4087                             		.file 8 "c:\\gcc for renesas rx 8.3.0.202004-gnurx-elf\\rx-elf\\rx-elf\\rx-elf\\include\\stdint.h"
 4088                             		.file 9 "c:\\gcc for renesas rx 8.3.0.202004-gnurx-elf\\rx-elf\\rx-elf\\rx-elf\\include\\c++\\8.3.
 4089                             		.file 10 "c:\\gcc for renesas rx 8.3.0.202004-gnurx-elf\\rx-elf\\rx-elf\\rx-elf\\include\\c++\\8.3
 4090                             		.file 11 "c:\\gcc for renesas rx 8.3.0.202004-gnurx-elf\\rx-elf\\rx-elf\\rx-elf\\include\\c++\\8.3
 4091                             		.file 12 "c:\\gcc for renesas rx 8.3.0.202004-gnurx-elf\\rx-elf\\rx-elf\\rx-elf\\include\\c++\\8.3
 4092                             		.file 13 "c:\\gcc for renesas rx 8.3.0.202004-gnurx-elf\\rx-elf\\rx-elf\\rx-elf\\include\\c++\\8.3
 4093                             		.file 14 "c:\\gcc for renesas rx 8.3.0.202004-gnurx-elf\\rx-elf\\rx-elf\\rx-elf\\include\\c++\\8.3
 4094                             		.file 15 "c:\\gcc for renesas rx 8.3.0.202004-gnurx-elf\\rx-elf\\rx-elf\\rx-elf\\include\\c++\\8.3
 4095                             		.file 16 "c:\\gcc for renesas rx 8.3.0.202004-gnurx-elf\\rx-elf\\rx-elf\\rx-elf\\include\\c++\\8.3
 4096                             		.file 17 "c:\\gcc for renesas rx 8.3.0.202004-gnurx-elf\\rx-elf\\rx-elf\\rx-elf\\include\\c++\\8.3
 4097                             		.file 18 "c:\\gcc for renesas rx 8.3.0.202004-gnurx-elf\\rx-elf\\rx-elf\\rx-elf\\include\\c++\\8.3
 4098                             		.file 19 "c:\\gcc for renesas rx 8.3.0.202004-gnurx-elf\\rx-elf\\rx-elf\\rx-elf\\include\\c++\\8.3
 4099                             		.file 20 "c:\\gcc for renesas rx 8.3.0.202004-gnurx-elf\\rx-elf\\rx-elf\\rx-elf\\include\\c++\\8.3
 4100                             		.file 21 "c:\\gcc for renesas rx 8.3.0.202004-gnurx-elf\\rx-elf\\rx-elf\\rx-elf\\include\\c++\\8.3
 4101                             		.file 22 "c:\\gcc for renesas rx 8.3.0.202004-gnurx-elf\\rx-elf\\rx-elf\\rx-elf\\include\\c++\\8.3
 4102                             		.file 23 "c:\\gcc for renesas rx 8.3.0.202004-gnurx-elf\\rx-elf\\rx-elf\\rx-elf\\include\\c++\\8.3
 4103                             		.file 24 "c:\\gcc for renesas rx 8.3.0.202004-gnurx-elf\\rx-elf\\rx-elf\\rx-elf\\include\\c++\\8.3
 4104                             		.file 25 "c:\\gcc for renesas rx 8.3.0.202004-gnurx-elf\\rx-elf\\rx-elf\\rx-elf\\include\\c++\\8.3
 4105                             		.file 26 "c:\\gcc for renesas rx 8.3.0.202004-gnurx-elf\\rx-elf\\rx-elf\\rx-elf\\include\\c++\\8.3
 4106                             		.file 27 "c:\\gcc for renesas rx 8.3.0.202004-gnurx-elf\\rx-elf\\rx-elf\\rx-elf\\include\\c++\\8.3
 4107                             		.file 28 "c:\\gcc for renesas rx 8.3.0.202004-gnurx-elf\\rx-elf\\rx-elf\\rx-elf\\include\\c++\\8.3
 4108                             		.file 29 "c:\\gcc for renesas rx 8.3.0.202004-gnurx-elf\\rx-elf\\rx-elf\\rx-elf\\include\\c++\\8.3
 4109                             		.file 30 "c:\\gcc for renesas rx 8.3.0.202004-gnurx-elf\\rx-elf\\rx-elf\\rx-elf\\include\\c++\\8.3
 4110                             		.file 31 "c:\\gcc for renesas rx 8.3.0.202004-gnurx-elf\\rx-elf\\rx-elf\\rx-elf\\include\\c++\\8.3
 4111                             		.file 32 "c:\\gcc for renesas rx 8.3.0.202004-gnurx-elf\\rx-elf\\rx-elf\\rx-elf\\include\\c++\\8.3
 4112                             		.file 33 "c:\\gcc for renesas rx 8.3.0.202004-gnurx-elf\\rx-elf\\rx-elf\\rx-elf\\include\\c++\\8.3
 4113                             		.file 34 "c:\\gcc for renesas rx 8.3.0.202004-gnurx-elf\\rx-elf\\rx-elf\\lib\\gcc\\rx-elf\\8.3.0.2
 4114                             		.file 35 "c:\\gcc for renesas rx 8.3.0.202004-gnurx-elf\\rx-elf\\rx-elf\\rx-elf\\include\\c++\\8.3
 4115                             		.file 36 "C:\\Users\\a5116938\\Desktop\\e2_studio_workspace\\EEMBC_final\\RX65N_Cloud_Kit\\src/ten
 4116                             		.file 37 "C:\\Users\\a5116938\\Desktop\\e2_studio_workspace\\EEMBC_final\\RX65N_Cloud_Kit\\src/ten
 4117                             		.file 38 "c:\\gcc for renesas rx 8.3.0.202004-gnurx-elf\\rx-elf\\rx-elf\\rx-elf\\include\\sys\\loc
 4118                             		.file 39 "c:\\gcc for renesas rx 8.3.0.202004-gnurx-elf\\rx-elf\\rx-elf\\rx-elf\\include\\sys\\_ty
 4119                             		.file 40 "c:\\gcc for renesas rx 8.3.0.202004-gnurx-elf\\rx-elf\\rx-elf\\rx-elf\\include\\sys\\ree
 4120                             		.file 41 "c:\\gcc for renesas rx 8.3.0.202004-gnurx-elf\\rx-elf\\rx-elf\\rx-elf\\include\\stdlib.h
 4121                             		.file 42 "c:\\gcc for renesas rx 8.3.0.202004-gnurx-elf\\rx-elf\\rx-elf\\rx-elf\\include\\c++\\8.3
 4122                             		.file 43 "c:\\gcc for renesas rx 8.3.0.202004-gnurx-elf\\rx-elf\\rx-elf\\rx-elf\\include\\math.h"
 4123                             		.file 44 "c:\\gcc for renesas rx 8.3.0.202004-gnurx-elf\\rx-elf\\rx-elf\\lib\\gcc\\rx-elf\\8.3.0.2
 4124                             		.file 45 "c:\\gcc for renesas rx 8.3.0.202004-gnurx-elf\\rx-elf\\rx-elf\\rx-elf\\include\\wchar.h"
 4125                             		.file 46 "c:\\gcc for renesas rx 8.3.0.202004-gnurx-elf\\rx-elf\\rx-elf\\rx-elf\\include\\locale.h
 4126                             		.file 47 "c:\\gcc for renesas rx 8.3.0.202004-gnurx-elf\\rx-elf\\rx-elf\\rx-elf\\include\\ctype.h"
 4127                             		.file 48 "c:\\gcc for renesas rx 8.3.0.202004-gnurx-elf\\rx-elf\\rx-elf\\rx-elf\\include\\stdio.h"
 4128                             		.file 49 "c:\\gcc for renesas rx 8.3.0.202004-gnurx-elf\\rx-elf\\rx-elf\\rx-elf\\include\\sys\\err
 4129                             		.file 50 "c:\\gcc for renesas rx 8.3.0.202004-gnurx-elf\\rx-elf\\rx-elf\\rx-elf\\include\\wctype.h
 4130                             		.file 51 "c:\\gcc for renesas rx 8.3.0.202004-gnurx-elf\\rx-elf\\rx-elf\\rx-elf\\include\\string.h
 4131                             		.file 52 "C:\\Users\\a5116938\\Desktop\\e2_studio_workspace\\EEMBC_final\\RX65N_Cloud_Kit\\src/ten
 4132                             		.file 53 "C:\\Users\\a5116938\\Desktop\\e2_studio_workspace\\EEMBC_final\\RX65N_Cloud_Kit\\src/ten
 4133                             		.file 54 "<built-in>"
