   1                             		.file	"pack.cc"
   2                             		.section P,"ax"
   3                             	.Ltext0:
   4                             		.section	.text._ZN6tflite3ops5micro4pack12_GLOBAL__N_14EvalEP13TfLiteContextP10TfLiteNode,"ax",@pr
   6                             	__ZN6tflite3ops5micro4pack12_GLOBAL__N_14EvalEP13TfLiteContextP10TfLiteNode:
   7                             	.LFB964:
   8                             		.file 1 "../src/tensorflow/lite/micro/kernels/pack.cc"
   1:../src/tensorflow/lite/micro/kernels/pack.cc **** /* Copyright 2019 The TensorFlow Authors. All Rights Reserved.
   2:../src/tensorflow/lite/micro/kernels/pack.cc **** 
   3:../src/tensorflow/lite/micro/kernels/pack.cc **** Licensed under the Apache License, Version 2.0 (the "License");
   4:../src/tensorflow/lite/micro/kernels/pack.cc **** you may not use this file except in compliance with the License.
   5:../src/tensorflow/lite/micro/kernels/pack.cc **** You may obtain a copy of the License at
   6:../src/tensorflow/lite/micro/kernels/pack.cc **** 
   7:../src/tensorflow/lite/micro/kernels/pack.cc ****     http://www.apache.org/licenses/LICENSE-2.0
   8:../src/tensorflow/lite/micro/kernels/pack.cc **** 
   9:../src/tensorflow/lite/micro/kernels/pack.cc **** Unless required by applicable law or agreed to in writing, software
  10:../src/tensorflow/lite/micro/kernels/pack.cc **** distributed under the License is distributed on an "AS IS" BASIS,
  11:../src/tensorflow/lite/micro/kernels/pack.cc **** WITHOUT WARRANTIES OR CONDITIONS OF ANY KIND, either express or implied.
  12:../src/tensorflow/lite/micro/kernels/pack.cc **** See the License for the specific language governing permissions and
  13:../src/tensorflow/lite/micro/kernels/pack.cc **** limitations under the License.
  14:../src/tensorflow/lite/micro/kernels/pack.cc **** ==============================================================================*/
  15:../src/tensorflow/lite/micro/kernels/pack.cc **** 
  16:../src/tensorflow/lite/micro/kernels/pack.cc **** #include "tensorflow/lite/c/builtin_op_data.h"
  17:../src/tensorflow/lite/micro/kernels/pack.cc **** #include "tensorflow/lite/c/common.h"
  18:../src/tensorflow/lite/micro/kernels/pack.cc **** #include "tensorflow/lite/kernels/internal/tensor_ctypes.h"
  19:../src/tensorflow/lite/micro/kernels/pack.cc **** #include "tensorflow/lite/micro/kernels/kernel_util.h"
  20:../src/tensorflow/lite/micro/kernels/pack.cc **** 
  21:../src/tensorflow/lite/micro/kernels/pack.cc **** namespace tflite {
  22:../src/tensorflow/lite/micro/kernels/pack.cc **** namespace ops {
  23:../src/tensorflow/lite/micro/kernels/pack.cc **** namespace micro {
  24:../src/tensorflow/lite/micro/kernels/pack.cc **** namespace pack {
  25:../src/tensorflow/lite/micro/kernels/pack.cc **** namespace {
  26:../src/tensorflow/lite/micro/kernels/pack.cc **** 
  27:../src/tensorflow/lite/micro/kernels/pack.cc **** constexpr int kOutputTensor = 0;
  28:../src/tensorflow/lite/micro/kernels/pack.cc **** 
  29:../src/tensorflow/lite/micro/kernels/pack.cc **** template <typename T>
  30:../src/tensorflow/lite/micro/kernels/pack.cc **** TfLiteStatus PackImpl(TfLiteContext* context, TfLiteNode* node,
  31:../src/tensorflow/lite/micro/kernels/pack.cc ****                       TfLiteEvalTensor* output, int values_count, int axis) {
  32:../src/tensorflow/lite/micro/kernels/pack.cc ****   const TfLiteEvalTensor* input0 =
  33:../src/tensorflow/lite/micro/kernels/pack.cc ****       tflite::micro::GetEvalInput(context, node, 0);
  34:../src/tensorflow/lite/micro/kernels/pack.cc **** 
  35:../src/tensorflow/lite/micro/kernels/pack.cc ****   const int dimensions = output->dims->size;
  36:../src/tensorflow/lite/micro/kernels/pack.cc ****   const TfLiteIntArray* input_dims = input0->dims;
  37:../src/tensorflow/lite/micro/kernels/pack.cc ****   const TfLiteIntArray* output_dims = output->dims;
  38:../src/tensorflow/lite/micro/kernels/pack.cc **** 
  39:../src/tensorflow/lite/micro/kernels/pack.cc ****   if (axis < 0) {
  40:../src/tensorflow/lite/micro/kernels/pack.cc ****     axis += dimensions;
  41:../src/tensorflow/lite/micro/kernels/pack.cc ****   }
  42:../src/tensorflow/lite/micro/kernels/pack.cc **** 
  43:../src/tensorflow/lite/micro/kernels/pack.cc ****   int outer_size = 1;
  44:../src/tensorflow/lite/micro/kernels/pack.cc ****   for (int i = 0; i < axis; ++i) {
  45:../src/tensorflow/lite/micro/kernels/pack.cc ****     outer_size *= output_dims->data[i];
  46:../src/tensorflow/lite/micro/kernels/pack.cc ****   }
  47:../src/tensorflow/lite/micro/kernels/pack.cc ****   int copy_size = 1;
  48:../src/tensorflow/lite/micro/kernels/pack.cc ****   for (int i = axis + 1; i < dimensions; ++i) {
  49:../src/tensorflow/lite/micro/kernels/pack.cc ****     copy_size *= output_dims->data[i];
  50:../src/tensorflow/lite/micro/kernels/pack.cc ****   }
  51:../src/tensorflow/lite/micro/kernels/pack.cc ****   int input_size = 1;
  52:../src/tensorflow/lite/micro/kernels/pack.cc ****   for (int i = 0; i < input_dims->size; ++i) {
  53:../src/tensorflow/lite/micro/kernels/pack.cc ****     input_size *= input_dims->data[i];
  54:../src/tensorflow/lite/micro/kernels/pack.cc ****   }
  55:../src/tensorflow/lite/micro/kernels/pack.cc ****   TFLITE_DCHECK_EQ(input_size, copy_size * outer_size);
  56:../src/tensorflow/lite/micro/kernels/pack.cc **** 
  57:../src/tensorflow/lite/micro/kernels/pack.cc ****   T* output_data = tflite::micro::GetTensorData<T>(output);
  58:../src/tensorflow/lite/micro/kernels/pack.cc **** 
  59:../src/tensorflow/lite/micro/kernels/pack.cc ****   for (int i = 0; i < values_count; ++i) {
  60:../src/tensorflow/lite/micro/kernels/pack.cc ****     const TfLiteEvalTensor* t = tflite::micro::GetEvalInput(context, node, i);
  61:../src/tensorflow/lite/micro/kernels/pack.cc ****     const T* input_data = tflite::micro::GetTensorData<T>(t);
  62:../src/tensorflow/lite/micro/kernels/pack.cc ****     for (int k = 0; k < outer_size; ++k) {
  63:../src/tensorflow/lite/micro/kernels/pack.cc ****       const T* input_ptr = input_data + copy_size * k;
  64:../src/tensorflow/lite/micro/kernels/pack.cc ****       int loc = k * values_count * copy_size + i * copy_size;
  65:../src/tensorflow/lite/micro/kernels/pack.cc ****       T* output_ptr = output_data + loc;
  66:../src/tensorflow/lite/micro/kernels/pack.cc ****       for (int j = 0; j < copy_size; ++j) output_ptr[j] = input_ptr[j];
  67:../src/tensorflow/lite/micro/kernels/pack.cc ****     }
  68:../src/tensorflow/lite/micro/kernels/pack.cc ****   }
  69:../src/tensorflow/lite/micro/kernels/pack.cc **** 
  70:../src/tensorflow/lite/micro/kernels/pack.cc ****   return kTfLiteOk;
  71:../src/tensorflow/lite/micro/kernels/pack.cc **** }
  72:../src/tensorflow/lite/micro/kernels/pack.cc **** 
  73:../src/tensorflow/lite/micro/kernels/pack.cc **** TfLiteStatus Eval(TfLiteContext* context, TfLiteNode* node) {
   9                             		.loc 1 73 61
  10                             	.LVL0:
  11 0000 6E 6D                   		pushm	r6-r13
  12                             	.LCFI0:
  13 0002 71 00 C0                		add	#-64, r0
  14                             	.LCFI1:
  74:../src/tensorflow/lite/micro/kernels/pack.cc ****   const TfLitePackParams* data =
  15                             		.loc 1 74 3
  16                             		.loc 1 74 27 is_stmt 0
  17 0005 ED 2A 05                		mov.L	20[r2], r10
  18                             	.LVL1:
  75:../src/tensorflow/lite/micro/kernels/pack.cc ****       reinterpret_cast<TfLitePackParams*>(node->builtin_data);
  76:../src/tensorflow/lite/micro/kernels/pack.cc **** 
  77:../src/tensorflow/lite/micro/kernels/pack.cc ****   TfLiteEvalTensor* output =
  19                             		.loc 1 77 3 is_stmt 1
  20                             	.LBB274:
  21                             	.LBB275:
  22                             		.file 2 "C:\\Users\\a5116938\\Desktop\\e2_studio_workspace\\EEMBC_final\\RX65N_Cloud_Kit\\src/tens
   1:C:\Users\a5116938\Desktop\e2_studio_workspace\EEMBC_final\RX65N_Cloud_Kit\src/tensorflow/lite/micro/kernels\kernel_util.h **** /* Copyright 2020 The TensorFlow Authors. All Rights Reserved.
   2:C:\Users\a5116938\Desktop\e2_studio_workspace\EEMBC_final\RX65N_Cloud_Kit\src/tensorflow/lite/micro/kernels\kernel_util.h **** 
   3:C:\Users\a5116938\Desktop\e2_studio_workspace\EEMBC_final\RX65N_Cloud_Kit\src/tensorflow/lite/micro/kernels\kernel_util.h **** Licensed under the Apache License, Version 2.0 (the "License");
   4:C:\Users\a5116938\Desktop\e2_studio_workspace\EEMBC_final\RX65N_Cloud_Kit\src/tensorflow/lite/micro/kernels\kernel_util.h **** you may not use this file except in compliance with the License.
   5:C:\Users\a5116938\Desktop\e2_studio_workspace\EEMBC_final\RX65N_Cloud_Kit\src/tensorflow/lite/micro/kernels\kernel_util.h **** You may obtain a copy of the License at
   6:C:\Users\a5116938\Desktop\e2_studio_workspace\EEMBC_final\RX65N_Cloud_Kit\src/tensorflow/lite/micro/kernels\kernel_util.h **** 
   7:C:\Users\a5116938\Desktop\e2_studio_workspace\EEMBC_final\RX65N_Cloud_Kit\src/tensorflow/lite/micro/kernels\kernel_util.h ****     http://www.apache.org/licenses/LICENSE-2.0
   8:C:\Users\a5116938\Desktop\e2_studio_workspace\EEMBC_final\RX65N_Cloud_Kit\src/tensorflow/lite/micro/kernels\kernel_util.h **** 
   9:C:\Users\a5116938\Desktop\e2_studio_workspace\EEMBC_final\RX65N_Cloud_Kit\src/tensorflow/lite/micro/kernels\kernel_util.h **** Unless required by applicable law or agreed to in writing, software
  10:C:\Users\a5116938\Desktop\e2_studio_workspace\EEMBC_final\RX65N_Cloud_Kit\src/tensorflow/lite/micro/kernels\kernel_util.h **** distributed under the License is distributed on an "AS IS" BASIS,
  11:C:\Users\a5116938\Desktop\e2_studio_workspace\EEMBC_final\RX65N_Cloud_Kit\src/tensorflow/lite/micro/kernels\kernel_util.h **** WITHOUT WARRANTIES OR CONDITIONS OF ANY KIND, either express or implied.
  12:C:\Users\a5116938\Desktop\e2_studio_workspace\EEMBC_final\RX65N_Cloud_Kit\src/tensorflow/lite/micro/kernels\kernel_util.h **** See the License for the specific language governing permissions and
  13:C:\Users\a5116938\Desktop\e2_studio_workspace\EEMBC_final\RX65N_Cloud_Kit\src/tensorflow/lite/micro/kernels\kernel_util.h **** limitations under the License.
  14:C:\Users\a5116938\Desktop\e2_studio_workspace\EEMBC_final\RX65N_Cloud_Kit\src/tensorflow/lite/micro/kernels\kernel_util.h **** ==============================================================================*/
  15:C:\Users\a5116938\Desktop\e2_studio_workspace\EEMBC_final\RX65N_Cloud_Kit\src/tensorflow/lite/micro/kernels\kernel_util.h **** 
  16:C:\Users\a5116938\Desktop\e2_studio_workspace\EEMBC_final\RX65N_Cloud_Kit\src/tensorflow/lite/micro/kernels\kernel_util.h **** #ifndef TENSORFLOW_LITE_MICRO_KERNELS_KERNEL_UTIL_H_
  17:C:\Users\a5116938\Desktop\e2_studio_workspace\EEMBC_final\RX65N_Cloud_Kit\src/tensorflow/lite/micro/kernels\kernel_util.h **** #define TENSORFLOW_LITE_MICRO_KERNELS_KERNEL_UTIL_H_
  18:C:\Users\a5116938\Desktop\e2_studio_workspace\EEMBC_final\RX65N_Cloud_Kit\src/tensorflow/lite/micro/kernels\kernel_util.h **** 
  19:C:\Users\a5116938\Desktop\e2_studio_workspace\EEMBC_final\RX65N_Cloud_Kit\src/tensorflow/lite/micro/kernels\kernel_util.h **** #include <cstdint>
  20:C:\Users\a5116938\Desktop\e2_studio_workspace\EEMBC_final\RX65N_Cloud_Kit\src/tensorflow/lite/micro/kernels\kernel_util.h **** 
  21:C:\Users\a5116938\Desktop\e2_studio_workspace\EEMBC_final\RX65N_Cloud_Kit\src/tensorflow/lite/micro/kernels\kernel_util.h **** #include "tensorflow/lite/c/common.h"
  22:C:\Users\a5116938\Desktop\e2_studio_workspace\EEMBC_final\RX65N_Cloud_Kit\src/tensorflow/lite/micro/kernels\kernel_util.h **** #include "tensorflow/lite/kernels/internal/compatibility.h"
  23:C:\Users\a5116938\Desktop\e2_studio_workspace\EEMBC_final\RX65N_Cloud_Kit\src/tensorflow/lite/micro/kernels\kernel_util.h **** #include "tensorflow/lite/kernels/internal/types.h"
  24:C:\Users\a5116938\Desktop\e2_studio_workspace\EEMBC_final\RX65N_Cloud_Kit\src/tensorflow/lite/micro/kernels\kernel_util.h **** 
  25:C:\Users\a5116938\Desktop\e2_studio_workspace\EEMBC_final\RX65N_Cloud_Kit\src/tensorflow/lite/micro/kernels\kernel_util.h **** namespace tflite {
  26:C:\Users\a5116938\Desktop\e2_studio_workspace\EEMBC_final\RX65N_Cloud_Kit\src/tensorflow/lite/micro/kernels\kernel_util.h **** namespace micro {
  27:C:\Users\a5116938\Desktop\e2_studio_workspace\EEMBC_final\RX65N_Cloud_Kit\src/tensorflow/lite/micro/kernels\kernel_util.h **** 
  28:C:\Users\a5116938\Desktop\e2_studio_workspace\EEMBC_final\RX65N_Cloud_Kit\src/tensorflow/lite/micro/kernels\kernel_util.h **** // Returns a mutable tensor for a given input index. is_variable must be checked
  29:C:\Users\a5116938\Desktop\e2_studio_workspace\EEMBC_final\RX65N_Cloud_Kit\src/tensorflow/lite/micro/kernels\kernel_util.h **** // during prepare when the full TfLiteTensor is available.
  30:C:\Users\a5116938\Desktop\e2_studio_workspace\EEMBC_final\RX65N_Cloud_Kit\src/tensorflow/lite/micro/kernels\kernel_util.h **** inline TfLiteEvalTensor* GetMutableEvalInput(const TfLiteContext* context,
  31:C:\Users\a5116938\Desktop\e2_studio_workspace\EEMBC_final\RX65N_Cloud_Kit\src/tensorflow/lite/micro/kernels\kernel_util.h ****                                              const TfLiteNode* node,
  32:C:\Users\a5116938\Desktop\e2_studio_workspace\EEMBC_final\RX65N_Cloud_Kit\src/tensorflow/lite/micro/kernels\kernel_util.h ****                                              int index) {
  33:C:\Users\a5116938\Desktop\e2_studio_workspace\EEMBC_final\RX65N_Cloud_Kit\src/tensorflow/lite/micro/kernels\kernel_util.h ****   TFLITE_DCHECK(context != nullptr);
  34:C:\Users\a5116938\Desktop\e2_studio_workspace\EEMBC_final\RX65N_Cloud_Kit\src/tensorflow/lite/micro/kernels\kernel_util.h ****   TFLITE_DCHECK(node != nullptr);
  35:C:\Users\a5116938\Desktop\e2_studio_workspace\EEMBC_final\RX65N_Cloud_Kit\src/tensorflow/lite/micro/kernels\kernel_util.h ****   return context->GetEvalTensor(context, node->inputs->data[index]);
  36:C:\Users\a5116938\Desktop\e2_studio_workspace\EEMBC_final\RX65N_Cloud_Kit\src/tensorflow/lite/micro/kernels\kernel_util.h **** }
  37:C:\Users\a5116938\Desktop\e2_studio_workspace\EEMBC_final\RX65N_Cloud_Kit\src/tensorflow/lite/micro/kernels\kernel_util.h **** 
  38:C:\Users\a5116938\Desktop\e2_studio_workspace\EEMBC_final\RX65N_Cloud_Kit\src/tensorflow/lite/micro/kernels\kernel_util.h **** // Returns the TfLiteEvalTensor struct for a given input index in a node.
  39:C:\Users\a5116938\Desktop\e2_studio_workspace\EEMBC_final\RX65N_Cloud_Kit\src/tensorflow/lite/micro/kernels\kernel_util.h **** inline const TfLiteEvalTensor* GetEvalInput(const TfLiteContext* context,
  40:C:\Users\a5116938\Desktop\e2_studio_workspace\EEMBC_final\RX65N_Cloud_Kit\src/tensorflow/lite/micro/kernels\kernel_util.h ****                                             const TfLiteNode* node, int index) {
  41:C:\Users\a5116938\Desktop\e2_studio_workspace\EEMBC_final\RX65N_Cloud_Kit\src/tensorflow/lite/micro/kernels\kernel_util.h ****   return GetMutableEvalInput(context, node, index);
  42:C:\Users\a5116938\Desktop\e2_studio_workspace\EEMBC_final\RX65N_Cloud_Kit\src/tensorflow/lite/micro/kernels\kernel_util.h **** }
  43:C:\Users\a5116938\Desktop\e2_studio_workspace\EEMBC_final\RX65N_Cloud_Kit\src/tensorflow/lite/micro/kernels\kernel_util.h **** 
  44:C:\Users\a5116938\Desktop\e2_studio_workspace\EEMBC_final\RX65N_Cloud_Kit\src/tensorflow/lite/micro/kernels\kernel_util.h **** // Returns the TfLiteEvalTensor struct for a given output index in a node.
  45:C:\Users\a5116938\Desktop\e2_studio_workspace\EEMBC_final\RX65N_Cloud_Kit\src/tensorflow/lite/micro/kernels\kernel_util.h **** inline TfLiteEvalTensor* GetEvalOutput(const TfLiteContext* context,
  46:C:\Users\a5116938\Desktop\e2_studio_workspace\EEMBC_final\RX65N_Cloud_Kit\src/tensorflow/lite/micro/kernels\kernel_util.h ****                                        const TfLiteNode* node, int index) {
  47:C:\Users\a5116938\Desktop\e2_studio_workspace\EEMBC_final\RX65N_Cloud_Kit\src/tensorflow/lite/micro/kernels\kernel_util.h ****   TFLITE_DCHECK(context != nullptr);
  23                             		.loc 2 47 3
  24 0008 61 01                   		cmp	#0, r1
  25 000a 3A A0 02                		beq	.L17
  26 000d EF 26                   		mov.L	r2, r6
  27 000f EF 17                   		mov.L	r1, r7
  48:C:\Users\a5116938\Desktop\e2_studio_workspace\EEMBC_final\RX65N_Cloud_Kit\src/tensorflow/lite/micro/kernels\kernel_util.h ****   TFLITE_DCHECK(node != nullptr);
  28                             		.loc 2 48 3
  49:C:\Users\a5116938\Desktop\e2_studio_workspace\EEMBC_final\RX65N_Cloud_Kit\src/tensorflow/lite/micro/kernels\kernel_util.h ****   return context->GetEvalTensor(context, node->outputs->data[index]);
  29                             		.loc 2 49 3
  30                             		.loc 2 49 32 is_stmt 0
  31 0011 A8 2C                   		mov.L	4[r2], r4
  32 0013 AD 1D                   		mov.L	84[r1], r5
  33 0015 A8 4A                   		mov.L	4[r4], r2
  34                             	.LVL2:
  35 0017 7F 15                   		jsr	r5
  36                             	.LVL3:
  37 0019 EF 1C                   		mov.L	r1, r12
  38                             	.LVL4:
  39                             	.LBE275:
  40                             	.LBE274:
  78:../src/tensorflow/lite/micro/kernels/pack.cc ****       tflite::micro::GetEvalOutput(context, node, kOutputTensor);
  79:../src/tensorflow/lite/micro/kernels/pack.cc **** 
  80:../src/tensorflow/lite/micro/kernels/pack.cc ****   switch (output->type) {
  41                             		.loc 1 80 3 is_stmt 1
  42                             		.loc 1 80 19 is_stmt 0
  43 001b A8 91                   		mov.L	8[r1], r1
  44                             	.LVL5:
  45                             		.loc 1 80 3
  46 001d 61 31                   		cmp	#3, r1
  47 001f 3A 87 03                		beq	.L3
  48 0022 24 05 38 99 01          		bleu	.L162
  49 0027 61 41                   		cmp	#4, r1
  50 0029 3A 25 05                		beq	.L8
  51 002c 61 91                   		cmp	#9, r1
  52 002e 3B FE 05                		bne	.L7
  81:../src/tensorflow/lite/micro/kernels/pack.cc ****     case kTfLiteFloat32: {
  82:../src/tensorflow/lite/micro/kernels/pack.cc ****       return PackImpl<float>(context, node, output, data->values_count,
  83:../src/tensorflow/lite/micro/kernels/pack.cc ****                              data->axis);
  84:../src/tensorflow/lite/micro/kernels/pack.cc ****     }
  85:../src/tensorflow/lite/micro/kernels/pack.cc ****     case kTfLiteUInt8: {
  86:../src/tensorflow/lite/micro/kernels/pack.cc ****       return PackImpl<uint8_t>(context, node, output, data->values_count,
  87:../src/tensorflow/lite/micro/kernels/pack.cc ****                                data->axis);
  88:../src/tensorflow/lite/micro/kernels/pack.cc ****     }
  89:../src/tensorflow/lite/micro/kernels/pack.cc ****     case kTfLiteInt8: {
  53                             		.loc 1 89 5 is_stmt 1
  54                             		.loc 1 89 23
  90:../src/tensorflow/lite/micro/kernels/pack.cc ****       return PackImpl<int8_t>(context, node, output, data->values_count,
  55                             		.loc 1 90 7
  56                             	.LBB277:
  57                             	.LBB278:
  58                             	.LBB279:
  59                             	.LBB280:
  60                             	.LBB281:
  35:C:\Users\a5116938\Desktop\e2_studio_workspace\EEMBC_final\RX65N_Cloud_Kit\src/tensorflow/lite/micro/kernels\kernel_util.h **** }
  61                             		.loc 2 35 32 is_stmt 0
  62 0031 EC 64                   		mov.L	[r6], r4
  63 0033 AD 7D                   		mov.L	84[r7], r5
  64 0035 EF 71                   		mov.L	r7, r1
  65                             	.LBE281:
  66                             	.LBE280:
  67                             	.LBE279:
  68                             	.LBE278:
  69                             	.LBE277:
  70                             		.loc 1 90 60
  71 0037 E4 A0 09                		mov.L	[r10], 36[r0]
  72                             	.LBB328:
  73                             	.LBB322:
  74                             	.LBB286:
  75                             	.LBB284:
  76                             	.LBB282:
  35:C:\Users\a5116938\Desktop\e2_studio_workspace\EEMBC_final\RX65N_Cloud_Kit\src/tensorflow/lite/micro/kernels\kernel_util.h **** }
  77                             		.loc 2 35 32
  78 003a A8 4A                   		mov.L	4[r4], r2
  79                             	.LBE282:
  80                             	.LBE284:
  81                             	.LBE286:
  82                             	.LBE322:
  83                             	.LBE328:
  91:../src/tensorflow/lite/micro/kernels/pack.cc ****                               data->axis);
  84                             		.loc 1 91 37
  85 003c ED AA 01                		mov.L	4[r10], r10
  86                             	.LVL6:
  41:C:\Users\a5116938\Desktop\e2_studio_workspace\EEMBC_final\RX65N_Cloud_Kit\src/tensorflow/lite/micro/kernels\kernel_util.h **** }
  87                             		.loc 2 41 3 is_stmt 1
  88                             	.LBB329:
  89                             	.LBB323:
  90                             	.LBB287:
  91                             	.LBB285:
  92                             	.LBB283:
  33:C:\Users\a5116938\Desktop\e2_studio_workspace\EEMBC_final\RX65N_Cloud_Kit\src/tensorflow/lite/micro/kernels\kernel_util.h ****   TFLITE_DCHECK(node != nullptr);
  93                             		.loc 2 33 3
  34:C:\Users\a5116938\Desktop\e2_studio_workspace\EEMBC_final\RX65N_Cloud_Kit\src/tensorflow/lite/micro/kernels\kernel_util.h ****   return context->GetEvalTensor(context, node->inputs->data[index]);
  94                             		.loc 2 34 3
  35:C:\Users\a5116938\Desktop\e2_studio_workspace\EEMBC_final\RX65N_Cloud_Kit\src/tensorflow/lite/micro/kernels\kernel_util.h **** }
  95                             		.loc 2 35 3
  35:C:\Users\a5116938\Desktop\e2_studio_workspace\EEMBC_final\RX65N_Cloud_Kit\src/tensorflow/lite/micro/kernels\kernel_util.h **** }
  96                             		.loc 2 35 32 is_stmt 0
  97 003f 7F 15                   		jsr	r5
  98                             	.LVL7:
  99                             	.LBE283:
 100                             	.LBE285:
 101                             	.LBE287:
  35:../src/tensorflow/lite/micro/kernels/pack.cc ****   const TfLiteIntArray* input_dims = input0->dims;
 102                             		.loc 1 35 34
 103 0041 ED C2 01                		mov.L	4[r12], r2
  36:../src/tensorflow/lite/micro/kernels/pack.cc ****   const TfLiteIntArray* output_dims = output->dims;
 104                             		.loc 1 36 25
 105 0044 A8 1B                   		mov.L	4[r1], r3
  35:../src/tensorflow/lite/micro/kernels/pack.cc ****   const TfLiteIntArray* input_dims = input0->dims;
 106                             		.loc 1 35 13
 107 0046 EC 21                   		mov.L	[r2], r1
 108                             	.LVL8:
  39:../src/tensorflow/lite/micro/kernels/pack.cc ****     axis += dimensions;
 109                             		.loc 1 39 3
 110 0048 61 0A                   		cmp	#0, r10
 111 004a 28 05 38 62 02          		blt	.L163
 112 004f 03                      		.balign 8,3,1
 113                             	.L46:
 114                             	.LVL9:
  43:../src/tensorflow/lite/micro/kernels/pack.cc ****   for (int i = 0; i < axis; ++i) {
 115                             		.loc 1 43 7
 116 0050 66 1E                   		mov.L	#1, r14
 117                             	.LBB288:
  44:../src/tensorflow/lite/micro/kernels/pack.cc ****     outer_size *= output_dims->data[i];
 118                             		.loc 1 44 21
 119 0052 61 0A                   		cmp	#0, r10
 120 0054 2B 12                   		ble	.L47
  44:../src/tensorflow/lite/micro/kernels/pack.cc ****     outer_size *= output_dims->data[i];
 121                             		.loc 1 44 12
 122 0056 66 05                   		mov.L	#0, r5
  45:../src/tensorflow/lite/micro/kernels/pack.cc ****   }
 123                             		.loc 1 45 16
 124 0058 71 2B 04                		add	#4, r2, r11
 125                             	.LVL10:
 126                             		.balign 8,3,3
 127                             	.L48:
  45:../src/tensorflow/lite/micro/kernels/pack.cc ****   }
 128                             		.loc 1 45 5
 129 005b FE 65 B4                		mov.L	[r5,r11], r4
  44:../src/tensorflow/lite/micro/kernels/pack.cc ****     outer_size *= output_dims->data[i];
 130                             		.loc 1 44 3
 131 005e 62 15                   		add	#1, r5
 132                             	.LVL11:
  45:../src/tensorflow/lite/micro/kernels/pack.cc ****   }
 133                             		.loc 1 45 5
 134 0060 4F 4E                   		mul	r4, r14
 135                             	.LVL12:
  44:../src/tensorflow/lite/micro/kernels/pack.cc ****     outer_size *= output_dims->data[i];
 136                             		.loc 1 44 21
 137 0062 47 5A                   		cmp	r5, r10
 138 0064 21 F7                   		bne	.L48
 139                             	.LVL13:
 140                             		.balign 8,3,1
 141                             	.L47:
 142                             	.LBE288:
 143                             	.LBB289:
  48:../src/tensorflow/lite/micro/kernels/pack.cc ****     copy_size *= output_dims->data[i];
 144                             		.loc 1 48 12
 145 0066 62 1A                   		add	#1, r10
 146                             	.LVL14:
 147                             	.LBE289:
  47:../src/tensorflow/lite/micro/kernels/pack.cc ****   for (int i = axis + 1; i < dimensions; ++i) {
 148                             		.loc 1 47 7
 149 0068 66 1B                   		mov.L	#1, r11
 150                             	.LBB290:
  49:../src/tensorflow/lite/micro/kernels/pack.cc ****   }
 151                             		.loc 1 49 15
 152 006a 71 24 04                		add	#4, r2, r4
  48:../src/tensorflow/lite/micro/kernels/pack.cc ****     copy_size *= output_dims->data[i];
 153                             		.loc 1 48 28
 154 006d 47 A1                   		cmp	r10, r1
 155 006f 2A 05 38 E7 05          		ble	.L164
 156                             	.LVL15:
 157                             		.balign 8,3,3
 158                             	.L49:
  49:../src/tensorflow/lite/micro/kernels/pack.cc ****   }
 159                             		.loc 1 49 5
 160 0074 FE 6A 45                		mov.L	[r10,r4], r5
  48:../src/tensorflow/lite/micro/kernels/pack.cc ****     copy_size *= output_dims->data[i];
 161                             		.loc 1 48 3
 162 0077 62 1A                   		add	#1, r10
 163                             	.LVL16:
  49:../src/tensorflow/lite/micro/kernels/pack.cc ****   }
 164                             		.loc 1 49 5
 165 0079 4F 5B                   		mul	r5, r11
 166                             	.LVL17:
  48:../src/tensorflow/lite/micro/kernels/pack.cc ****     copy_size *= output_dims->data[i];
 167                             		.loc 1 48 28
 168 007b 47 A1                   		cmp	r10, r1
 169 007d 21 F7                   		bne	.L49
 170 007f FF 31 EB                		mul	r14, r11, r1
 171                             	.LVL18:
 172                             		.balign 8,3,1
 173                             	.L52:
 174                             	.LBE290:
 175                             	.LBB291:
  52:../src/tensorflow/lite/micro/kernels/pack.cc ****     input_size *= input_dims->data[i];
 176                             		.loc 1 52 35
 177 0082 EC 32                   		mov.L	[r3], r2
 178                             	.LVL19:
 179                             	.LBE291:
  51:../src/tensorflow/lite/micro/kernels/pack.cc ****   for (int i = 0; i < input_dims->size; ++i) {
 180                             		.loc 1 51 7
 181 0084 66 15                   		mov.L	#1, r5
 182                             	.LBB292:
  52:../src/tensorflow/lite/micro/kernels/pack.cc ****     input_size *= input_dims->data[i];
 183                             		.loc 1 52 21
 184 0086 61 02                   		cmp	#0, r2
 185 0088 2B 13                   		ble	.L50
  52:../src/tensorflow/lite/micro/kernels/pack.cc ****     input_size *= input_dims->data[i];
 186                             		.loc 1 52 12
 187 008a 66 0A                   		mov.L	#0, r10
 188                             	.LVL20:
  53:../src/tensorflow/lite/micro/kernels/pack.cc ****   }
 189                             		.loc 1 53 16
 190 008c 62 43                   		add	#4, r3
 191                             	.LVL21:
 192 008e EF 00                   		.balign 8,3,3
 193                             	.L51:
 194 0090 FE 6A 34                		mov.L	[r10,r3], r4
  52:../src/tensorflow/lite/micro/kernels/pack.cc ****     input_size *= input_dims->data[i];
 195                             		.loc 1 52 3
 196 0093 62 1A                   		add	#1, r10
 197                             	.LVL22:
  53:../src/tensorflow/lite/micro/kernels/pack.cc ****   }
 198                             		.loc 1 53 16
 199 0095 4F 45                   		mul	r4, r5
 200                             	.LVL23:
  52:../src/tensorflow/lite/micro/kernels/pack.cc ****     input_size *= input_dims->data[i];
 201                             		.loc 1 52 21
 202 0097 47 A2                   		cmp	r10, r2
 203 0099 21 F7                   		bne	.L51
 204                             	.LVL24:
 205                             		.balign 8,3,1
 206                             	.L50:
 207                             	.LBE292:
  55:../src/tensorflow/lite/micro/kernels/pack.cc **** 
 208                             		.loc 1 55 3
 209 009b 47 15                   		cmp	r1, r5
 210 009d 3B 0D 02                		bne	.L17
 211                             	.LVL25:
 212                             	.LBB293:
 213                             	.LBB294:
  50:C:\Users\a5116938\Desktop\e2_studio_workspace\EEMBC_final\RX65N_Cloud_Kit\src/tensorflow/lite/micro/kernels\kernel_util.h **** }
  51:C:\Users\a5116938\Desktop\e2_studio_workspace\EEMBC_final\RX65N_Cloud_Kit\src/tensorflow/lite/micro/kernels\kernel_util.h **** 
  52:C:\Users\a5116938\Desktop\e2_studio_workspace\EEMBC_final\RX65N_Cloud_Kit\src/tensorflow/lite/micro/kernels\kernel_util.h **** // Returns data for a TfLiteEvalTensor struct.
  53:C:\Users\a5116938\Desktop\e2_studio_workspace\EEMBC_final\RX65N_Cloud_Kit\src/tensorflow/lite/micro/kernels\kernel_util.h **** template <typename T>
  54:C:\Users\a5116938\Desktop\e2_studio_workspace\EEMBC_final\RX65N_Cloud_Kit\src/tensorflow/lite/micro/kernels\kernel_util.h **** T* GetTensorData(TfLiteEvalTensor* tensor) {
  55:C:\Users\a5116938\Desktop\e2_studio_workspace\EEMBC_final\RX65N_Cloud_Kit\src/tensorflow/lite/micro/kernels\kernel_util.h ****   return tensor != nullptr ? reinterpret_cast<T*>(tensor->data.raw) : nullptr;
 214                             		.loc 2 55 28
 215 00a0 E4 C0 03                		mov.L	[r12], 12[r0]
 216                             	.LVL26:
 217                             	.LBE294:
 218                             	.LBE293:
 219                             	.LBB295:
  59:../src/tensorflow/lite/micro/kernels/pack.cc ****     const TfLiteEvalTensor* t = tflite::micro::GetEvalInput(context, node, i);
 220                             		.loc 1 59 21
 221 00a3 ED 09 09                		mov.L	36[r0], r9
 222 00a6 61 09                   		cmp	#0, r9
 223 00a8 2A 05 38 0E 01          		ble	.L21
 224 00ad FB A6 FC                		mov.L	#-4, r10
 225 00b0 53 BA                   		and	r11, r10
 226 00b2 E7 0A 02                		mov.L	r10, 8[r0]
 227 00b5 71 BA FF                		add	#-1, r11, r10
 228                             	.LBB296:
 229                             	.LBB297:
 230                             	.LBB298:
 231                             	.LBB299:
  66:../src/tensorflow/lite/micro/kernels/pack.cc ****     }
 232                             		.loc 1 66 7
 233 00b8 A8 83                   		mov.L	8[r0], r3
 234 00ba 62 13                   		add	#1, r3
 235 00bc A1 03                   		mov.L	r3, 16[r0]
 236 00be 4F B9                   		mul	r11, r9
 237 00c0 E7 09 05                		mov.L	r9, 20[r0]
 238 00c3 FB 46 FC                		mov.L	#-4, r4
 239 00c6 53 B4                   		and	r11, r4
 240 00c8 A2 84                   		mov.L	r4, 40[r0]
 241 00ca EF 4D                   		mov.L	r4, r13
 242 00cc 62 2D                   		add	#2, r13
 243 00ce 66 08                   		mov.L	#0, r8
 244                             	.LBE299:
 245                             	.LBE298:
 246                             	.LBE297:
 247                             	.LBE296:
  59:../src/tensorflow/lite/micro/kernels/pack.cc ****     const TfLiteEvalTensor* t = tflite::micro::GetEvalInput(context, node, i);
 248                             		.loc 1 59 12
 249 00d0 66 09                   		mov.L	#0, r9
 250 00d2 61 8A                   		cmp	#8, r10
 251 00d4 FC DB 54                		scgtu.L	r5
 252 00d7 A2 8D                   		mov.L	r5, 44[r0]
 253                             	.LBB316:
 254                             	.LBB308:
 255                             	.LBB304:
 256                             	.LBB300:
  66:../src/tensorflow/lite/micro/kernels/pack.cc ****     }
 257                             		.loc 1 66 43
 258 00d9 ED 0A 03                		mov.L	12[r0], r10
 259 00dc 4B 4A                   		add	r4, r10
 260 00de E7 0A 0C                		mov.L	r10, 48[r0]
 261 00e1 A8 8C                   		mov.L	12[r0], r4
 262 00e3 4B 34                   		add	r3, r4
 263 00e5 A3 0C                   		mov.L	r4, 52[r0]
 264 00e7 EF EC                   		mov.L	r14, r12
 265                             	.LVL27:
 266 00e9 A3 86                   		mov.L	r6, 56[r0]
 267                             	.LVL28:
 268                             		.balign 8,3,1
 269                             	.L54:
 270                             	.LBE300:
 271                             	.LBE304:
 272                             	.LBE308:
 273                             	.LBE316:
 274                             	.LBE295:
 275                             	.LBE323:
 276                             	.LBE329:
  41:C:\Users\a5116938\Desktop\e2_studio_workspace\EEMBC_final\RX65N_Cloud_Kit\src/tensorflow/lite/micro/kernels\kernel_util.h **** }
 277                             		.loc 2 41 3 is_stmt 1
 278                             	.LBB330:
 279                             	.LBB324:
 280                             	.LBB319:
 281                             	.LBB317:
 282                             	.LBB309:
 283                             	.LBB310:
 284                             	.LBB311:
  33:C:\Users\a5116938\Desktop\e2_studio_workspace\EEMBC_final\RX65N_Cloud_Kit\src/tensorflow/lite/micro/kernels\kernel_util.h ****   TFLITE_DCHECK(node != nullptr);
 285                             		.loc 2 33 3
  34:C:\Users\a5116938\Desktop\e2_studio_workspace\EEMBC_final\RX65N_Cloud_Kit\src/tensorflow/lite/micro/kernels\kernel_util.h ****   return context->GetEvalTensor(context, node->inputs->data[index]);
 286                             		.loc 2 34 3
  35:C:\Users\a5116938\Desktop\e2_studio_workspace\EEMBC_final\RX65N_Cloud_Kit\src/tensorflow/lite/micro/kernels\kernel_util.h **** }
 287                             		.loc 2 35 3
  35:C:\Users\a5116938\Desktop\e2_studio_workspace\EEMBC_final\RX65N_Cloud_Kit\src/tensorflow/lite/micro/kernels\kernel_util.h **** }
 288                             		.loc 2 35 32 is_stmt 0
 289 00eb AB 86                   		mov.L	56[r0], r6
 290 00ed EC 65                   		mov.L	[r6], r5
 291 00ef 71 94 01                		add	#1, r9, r4
 292 00f2 ED 7A 15                		mov.L	84[r7], r10
 293 00f5 EF 71                   		mov.L	r7, r1
 294 00f7 FE 64 52                		mov.L	[r4,r5], r2
 295 00fa 7F 1A                   		jsr	r10
 296                             	.LVL29:
 297                             	.LBE311:
 298                             	.LBE310:
 299                             	.LBE309:
 300                             	.LBB312:
 301                             	.LBB313:
  56:C:\Users\a5116938\Desktop\e2_studio_workspace\EEMBC_final\RX65N_Cloud_Kit\src/tensorflow/lite/micro/kernels\kernel_util.h **** }
  57:C:\Users\a5116938\Desktop\e2_studio_workspace\EEMBC_final\RX65N_Cloud_Kit\src/tensorflow/lite/micro/kernels\kernel_util.h **** 
  58:C:\Users\a5116938\Desktop\e2_studio_workspace\EEMBC_final\RX65N_Cloud_Kit\src/tensorflow/lite/micro/kernels\kernel_util.h **** // Returns const data for a TfLiteEvalTensor struct.
  59:C:\Users\a5116938\Desktop\e2_studio_workspace\EEMBC_final\RX65N_Cloud_Kit\src/tensorflow/lite/micro/kernels\kernel_util.h **** template <typename T>
  60:C:\Users\a5116938\Desktop\e2_studio_workspace\EEMBC_final\RX65N_Cloud_Kit\src/tensorflow/lite/micro/kernels\kernel_util.h **** const T* GetTensorData(const TfLiteEvalTensor* tensor) {
  61:C:\Users\a5116938\Desktop\e2_studio_workspace\EEMBC_final\RX65N_Cloud_Kit\src/tensorflow/lite/micro/kernels\kernel_util.h ****   TFLITE_DCHECK(tensor != nullptr);
 302                             		.loc 2 61 3
 303 00fc 61 01                   		cmp	#0, r1
 304 00fe 3A AC 01                		beq	.L17
  62:C:\Users\a5116938\Desktop\e2_studio_workspace\EEMBC_final\RX65N_Cloud_Kit\src/tensorflow/lite/micro/kernels\kernel_util.h ****   return reinterpret_cast<const T*>(tensor->data.raw);
 305                             		.loc 2 62 53
 306 0101 EC 1A                   		mov.L	[r1], r10
 307                             	.LVL30:
 308                             	.LBE313:
 309                             	.LBE312:
 310                             	.LBB314:
  62:../src/tensorflow/lite/micro/kernels/pack.cc ****       const T* input_ptr = input_data + copy_size * k;
 311                             		.loc 1 62 23
 312 0103 61 0C                   		cmp	#0, r12
 313 0105 2A 05 38 A5 00          		ble	.L59
 314 010a 61 0B                   		cmp	#0, r11
 315 010c 2A 05 38 9E 00          		ble	.L59
 316 0111 A8 8D                   		mov.L	12[r0], r5
 317 0113 4B 85                   		add	r8, r5
 318 0115 EF 82                   		mov.L	r8, r2
 319 0117 66 03                   		mov.L	#0, r3
  62:../src/tensorflow/lite/micro/kernels/pack.cc ****       const T* input_ptr = input_data + copy_size * k;
 320                             		.loc 1 62 14
 321 0119 66 01                   		mov.L	#0, r1
 322                             	.LVL31:
 323                             	.LBB305:
 324                             	.LBB301:
  66:../src/tensorflow/lite/micro/kernels/pack.cc ****     }
 325                             		.loc 1 66 68
 326 011b A8 84                   		mov.L	8[r0], r4
 327 011d 4B A4                   		add	r10, r4
 328 011f A1 84                   		mov.L	r4, 24[r0]
 329 0121 A9 06                   		mov.L	16[r0], r6
 330 0123 4B A6                   		add	r10, r6
 331 0125 A1 8E                   		mov.L	r6, 28[r0]
 332 0127 FF 2E DA                		add	r13, r10, r14
  66:../src/tensorflow/lite/micro/kernels/pack.cc ****     }
 333                             		.loc 1 66 43
 334 012a A8 8C                   		mov.L	12[r0], r4
 335 012c 4B D4                   		add	r13, r4
 336 012e A2 04                   		mov.L	r4, 32[r0]
 337                             	.LVL32:
 338                             		.balign 8,3,2
 339                             	.L62:
 340 0130 71 A6 04                		add	#4, r10, r6
 341 0133 71 54 04                		add	#4, r5, r4
 342 0136 47 65                   		cmp	r6, r5
 343 0138 FC DB 62                		scgeu.L	r6
 344 013b 47 4A                   		cmp	r4, r10
 345 013d FC DB 42                		scgeu.L	r4
 346 0140 FF 5F A5                		or	r10, r5, r15
 347 0143 57 64                   		or	r6, r4
 348 0145 64 3F                   		and	#3, r15
 349 0147 EF 56                   		mov.L	r5, r6
 350 0149 FD 74 F4 00             		stnz	#0, r4
 351 014d 61 04                   		cmp	#0, r4
 352 014f 3A 69 01                		beq	.L107
 353 0152 AA 8C                   		mov.L	44[r0], r4
 354 0154 61 04                   		cmp	#0, r4
 355 0156 3A 62 01                		beq	.L107
 356 0159 ED 0F 0A                		mov.L	40[r0], r15
 357 015c 4B 5F                   		add	r5, r15
 358                             	.LBE301:
 359                             	.LBE305:
  62:../src/tensorflow/lite/micro/kernels/pack.cc ****       const T* input_ptr = input_data + copy_size * k;
 360                             		.loc 1 62 14
 361 015e EF A4                   		mov.L	r10, r4
 362 0160 A3 8F                   		mov.L	r7, 60[r0]
 363                             	.LVL33:
 364                             		.balign 8,3,3
 365                             	.L61:
 366                             	.LBB306:
 367                             	.LBB302:
  66:../src/tensorflow/lite/micro/kernels/pack.cc ****     }
 368                             		.loc 1 66 43
 369 0162 FD 2A 47                		mov.L	[r4+], r7
 370 0165 FD 22 67                		mov.L	r7, [r6+]
 371 0168 47 F6                   		cmp	r15, r6
 372 016a 21 F8                   		bne	.L61
 373 016c AB 8F                   		mov.L	60[r0], r7
 374 016e A8 84                   		mov.L	8[r0], r4
 375 0170 47 B4                   		cmp	r11, r4
 376 0172 20 28                   		beq	.L64
 377                             	.LVL34:
 378 0174 A9 86                   		mov.L	24[r0], r6
 379 0176 FE 43 64                		mov.B	[r3,r6], r4
 380 0179 AB 06                   		mov.L	48[r0], r6
 381 017b FE 02 64                		mov.B	r4, [r2,r6]
 382                             	.LVL35:
  66:../src/tensorflow/lite/micro/kernels/pack.cc ****     }
 383                             		.loc 1 66 25
 384 017e A9 06                   		mov.L	16[r0], r6
 385 0180 47 6B                   		cmp	r6, r11
 386 0182 2B 18                   		ble	.L64
 387                             	.LVL36:
  66:../src/tensorflow/lite/micro/kernels/pack.cc ****     }
 388                             		.loc 1 66 43
 389 0184 A9 8C                   		mov.L	28[r0], r4
 390 0186 FE 43 46                		mov.B	[r3,r4], r6
 391                             	.LVL37:
 392 0189 AB 0C                   		mov.L	52[r0], r4
 393 018b FE 02 46                		mov.B	r6, [r2,r4]
 394                             	.LVL38:
  66:../src/tensorflow/lite/micro/kernels/pack.cc ****     }
 395                             		.loc 1 66 25
 396 018e 47 DB                   		cmp	r13, r11
 397 0190 2B 0A                   		ble	.L64
 398                             	.LVL39:
  66:../src/tensorflow/lite/micro/kernels/pack.cc ****     }
 399                             		.loc 1 66 43
 400 0192 FE 43 E6                		mov.B	[r3,r14], r6
 401 0195 AA 04                   		mov.L	32[r0], r4
 402 0197 FE 02 46                		mov.B	r6, [r2,r4]
 403                             	.LVL40:
 404                             		.balign 8,3,1
 405                             	.L64:
 406                             	.LBE302:
 407                             	.LBE306:
  62:../src/tensorflow/lite/micro/kernels/pack.cc ****       const T* input_ptr = input_data + copy_size * k;
 408                             		.loc 1 62 5
 409 019a 62 11                   		add	#1, r1
 410                             	.LVL41:
 411 019c 4B BA                   		add	r11, r10
 412 019e 06 89 05 05             		add	20[r0], r5
 413 01a2 4B B3                   		add	r11, r3
 414 01a4 06 89 02 05             		add	20[r0], r2
 415                             	.LVL42:
  62:../src/tensorflow/lite/micro/kernels/pack.cc ****       const T* input_ptr = input_data + copy_size * k;
 416                             		.loc 1 62 23
 417 01a8 47 C1                   		cmp	r12, r1
 418 01aa 21 86                   		bne	.L62
 419                             	.LVL43:
 420                             		.balign 8,3,1
 421                             	.L59:
 422                             	.LBE314:
 423                             	.LBE317:
  59:../src/tensorflow/lite/micro/kernels/pack.cc ****     const TfLiteEvalTensor* t = tflite::micro::GetEvalInput(context, node, i);
 424                             		.loc 1 59 3
 425 01ac 62 19                   		add	#1, r9
 426                             	.LVL44:
 427 01ae 4B B8                   		add	r11, r8
  59:../src/tensorflow/lite/micro/kernels/pack.cc ****     const TfLiteEvalTensor* t = tflite::micro::GetEvalInput(context, node, i);
 428                             		.loc 1 59 21
 429 01b0 ED 0A 09                		mov.L	36[r0], r10
 430 01b3 47 9A                   		cmp	r9, r10
 431 01b5 3B 36 FF                		bne	.L54
 432                             	.LVL45:
 433                             		.balign 8,3,1
 434                             	.L21:
 435                             	.LBE319:
 436                             	.LBE324:
 437                             	.LBE330:
  82:../src/tensorflow/lite/micro/kernels/pack.cc ****                              data->axis);
 438                             		.loc 1 82 29
 439 01b8 66 01                   		mov.L	#0, r1
 440                             		.balign 8,3,2
 441                             	.L1:
  92:../src/tensorflow/lite/micro/kernels/pack.cc ****     }
  93:../src/tensorflow/lite/micro/kernels/pack.cc ****     case kTfLiteInt32: {
  94:../src/tensorflow/lite/micro/kernels/pack.cc ****       return PackImpl<int32_t>(context, node, output, data->values_count,
  95:../src/tensorflow/lite/micro/kernels/pack.cc ****                                data->axis);
  96:../src/tensorflow/lite/micro/kernels/pack.cc ****     }
  97:../src/tensorflow/lite/micro/kernels/pack.cc ****     case kTfLiteInt64: {
  98:../src/tensorflow/lite/micro/kernels/pack.cc ****       return PackImpl<int64_t>(context, node, output, data->values_count,
  99:../src/tensorflow/lite/micro/kernels/pack.cc ****                                data->axis);
 100:../src/tensorflow/lite/micro/kernels/pack.cc ****     }
 101:../src/tensorflow/lite/micro/kernels/pack.cc ****     default: {
 102:../src/tensorflow/lite/micro/kernels/pack.cc ****       TF_LITE_KERNEL_LOG(context, "Type '%s' is not supported by pack.",
 103:../src/tensorflow/lite/micro/kernels/pack.cc ****                          TfLiteTypeGetName(output->type));
 104:../src/tensorflow/lite/micro/kernels/pack.cc ****       return kTfLiteError;
 105:../src/tensorflow/lite/micro/kernels/pack.cc ****     }
 106:../src/tensorflow/lite/micro/kernels/pack.cc ****   }
 107:../src/tensorflow/lite/micro/kernels/pack.cc **** 
 108:../src/tensorflow/lite/micro/kernels/pack.cc ****   return kTfLiteOk;
 109:../src/tensorflow/lite/micro/kernels/pack.cc **** }
 442                             		.loc 1 109 1
 443 01ba 3F 6D 18                		rtsd	#96, r6-r13
 444                             	.LVL46:
 445                             	.L162:
  80:../src/tensorflow/lite/micro/kernels/pack.cc ****     case kTfLiteFloat32: {
 446                             		.loc 1 80 3
 447 01bd 61 11                   		cmp	#1, r1
 448 01bf 3A 11 01                		beq	.L5
 449 01c2 61 21                   		cmp	#2, r1
 450 01c4 3B 68 04                		bne	.L7
  93:../src/tensorflow/lite/micro/kernels/pack.cc ****       return PackImpl<int32_t>(context, node, output, data->values_count,
 451                             		.loc 1 93 5 is_stmt 1
  93:../src/tensorflow/lite/micro/kernels/pack.cc ****       return PackImpl<int32_t>(context, node, output, data->values_count,
 452                             		.loc 1 93 24
  94:../src/tensorflow/lite/micro/kernels/pack.cc ****                                data->axis);
 453                             		.loc 1 94 7
 454                             	.LBB331:
 455                             	.LBB332:
 456                             	.LBB333:
 457                             	.LBB334:
 458                             	.LBB335:
  35:C:\Users\a5116938\Desktop\e2_studio_workspace\EEMBC_final\RX65N_Cloud_Kit\src/tensorflow/lite/micro/kernels\kernel_util.h **** }
 459                             		.loc 2 35 32 is_stmt 0
 460 01c7 EC 64                   		mov.L	[r6], r4
 461 01c9 AD 7D                   		mov.L	84[r7], r5
 462 01cb EF 71                   		mov.L	r7, r1
 463                             	.LBE335:
 464                             	.LBE334:
 465                             	.LBE333:
 466                             	.LBE332:
 467                             	.LBE331:
  94:../src/tensorflow/lite/micro/kernels/pack.cc ****                                data->axis);
 468                             		.loc 1 94 61
 469 01cd E4 A0 02                		mov.L	[r10], 8[r0]
 470                             	.LBB374:
 471                             	.LBB368:
 472                             	.LBB340:
 473                             	.LBB338:
 474                             	.LBB336:
  35:C:\Users\a5116938\Desktop\e2_studio_workspace\EEMBC_final\RX65N_Cloud_Kit\src/tensorflow/lite/micro/kernels\kernel_util.h **** }
 475                             		.loc 2 35 32
 476 01d0 A8 4A                   		mov.L	4[r4], r2
 477                             	.LBE336:
 478                             	.LBE338:
 479                             	.LBE340:
 480                             	.LBE368:
 481                             	.LBE374:
  95:../src/tensorflow/lite/micro/kernels/pack.cc ****     }
 482                             		.loc 1 95 38
 483 01d2 ED AA 01                		mov.L	4[r10], r10
 484                             	.LVL47:
  41:C:\Users\a5116938\Desktop\e2_studio_workspace\EEMBC_final\RX65N_Cloud_Kit\src/tensorflow/lite/micro/kernels\kernel_util.h **** }
 485                             		.loc 2 41 3 is_stmt 1
 486                             	.LBB375:
 487                             	.LBB369:
 488                             	.LBB341:
 489                             	.LBB339:
 490                             	.LBB337:
  33:C:\Users\a5116938\Desktop\e2_studio_workspace\EEMBC_final\RX65N_Cloud_Kit\src/tensorflow/lite/micro/kernels\kernel_util.h ****   TFLITE_DCHECK(node != nullptr);
 491                             		.loc 2 33 3
  34:C:\Users\a5116938\Desktop\e2_studio_workspace\EEMBC_final\RX65N_Cloud_Kit\src/tensorflow/lite/micro/kernels\kernel_util.h ****   return context->GetEvalTensor(context, node->inputs->data[index]);
 492                             		.loc 2 34 3
  35:C:\Users\a5116938\Desktop\e2_studio_workspace\EEMBC_final\RX65N_Cloud_Kit\src/tensorflow/lite/micro/kernels\kernel_util.h **** }
 493                             		.loc 2 35 3
  35:C:\Users\a5116938\Desktop\e2_studio_workspace\EEMBC_final\RX65N_Cloud_Kit\src/tensorflow/lite/micro/kernels\kernel_util.h **** }
 494                             		.loc 2 35 32 is_stmt 0
 495 01d5 7F 15                   		jsr	r5
 496                             	.LVL48:
 497                             	.LBE337:
 498                             	.LBE339:
 499                             	.LBE341:
  35:../src/tensorflow/lite/micro/kernels/pack.cc ****   const TfLiteIntArray* input_dims = input0->dims;
 500                             		.loc 1 35 34
 501 01d7 ED C2 01                		mov.L	4[r12], r2
  36:../src/tensorflow/lite/micro/kernels/pack.cc ****   const TfLiteIntArray* output_dims = output->dims;
 502                             		.loc 1 36 25
 503 01da A8 1B                   		mov.L	4[r1], r3
  35:../src/tensorflow/lite/micro/kernels/pack.cc ****   const TfLiteIntArray* input_dims = input0->dims;
 504                             		.loc 1 35 13
 505 01dc EC 21                   		mov.L	[r2], r1
 506                             	.LVL49:
  39:../src/tensorflow/lite/micro/kernels/pack.cc ****     axis += dimensions;
 507                             		.loc 1 39 3
 508 01de 61 0A                   		cmp	#0, r10
 509 01e0 28 05 38 D1 00          		blt	.L165
 510                             		.balign 8,3,1
 511                             	.L65:
 512                             	.LVL50:
  43:../src/tensorflow/lite/micro/kernels/pack.cc ****   for (int i = 0; i < axis; ++i) {
 513                             		.loc 1 43 7
 514 01e5 66 19                   		mov.L	#1, r9
 515                             	.LBB342:
  44:../src/tensorflow/lite/micro/kernels/pack.cc ****     outer_size *= output_dims->data[i];
 516                             		.loc 1 44 21
 517 01e7 61 0A                   		cmp	#0, r10
 518 01e9 2B 12                   		ble	.L66
  44:../src/tensorflow/lite/micro/kernels/pack.cc ****     outer_size *= output_dims->data[i];
 519                             		.loc 1 44 12
 520 01eb 66 05                   		mov.L	#0, r5
  45:../src/tensorflow/lite/micro/kernels/pack.cc ****   }
 521                             		.loc 1 45 16
 522 01ed 71 28 04                		add	#4, r2, r8
 523                             	.LVL51:
 524                             		.balign 8,3,3
 525                             	.L67:
  45:../src/tensorflow/lite/micro/kernels/pack.cc ****   }
 526                             		.loc 1 45 5
 527 01f0 FE 65 84                		mov.L	[r5,r8], r4
  44:../src/tensorflow/lite/micro/kernels/pack.cc ****     outer_size *= output_dims->data[i];
 528                             		.loc 1 44 3
 529 01f3 62 15                   		add	#1, r5
 530                             	.LVL52:
  45:../src/tensorflow/lite/micro/kernels/pack.cc ****   }
 531                             		.loc 1 45 5
 532 01f5 4F 49                   		mul	r4, r9
 533                             	.LVL53:
  44:../src/tensorflow/lite/micro/kernels/pack.cc ****     outer_size *= output_dims->data[i];
 534                             		.loc 1 44 21
 535 01f7 47 5A                   		cmp	r5, r10
 536 01f9 21 F7                   		bne	.L67
 537                             	.LVL54:
 538                             		.balign 8,3,1
 539                             	.L66:
 540                             	.LBE342:
 541                             	.LBB343:
  48:../src/tensorflow/lite/micro/kernels/pack.cc ****     copy_size *= output_dims->data[i];
 542                             		.loc 1 48 12
 543 01fb 62 1A                   		add	#1, r10
 544                             	.LVL55:
 545                             	.LBE343:
  47:../src/tensorflow/lite/micro/kernels/pack.cc ****   for (int i = axis + 1; i < dimensions; ++i) {
 546                             		.loc 1 47 7
 547 01fd 66 1D                   		mov.L	#1, r13
 548                             	.LBB344:
  49:../src/tensorflow/lite/micro/kernels/pack.cc ****   }
 549                             		.loc 1 49 15
 550 01ff 71 24 04                		add	#4, r2, r4
  48:../src/tensorflow/lite/micro/kernels/pack.cc ****     copy_size *= output_dims->data[i];
 551                             		.loc 1 48 28
 552 0202 47 A1                   		cmp	r10, r1
 553 0204 2A 05 38 3E 04          		ble	.L166
 554                             	.LVL56:
 555                             		.balign 8,3,3
 556                             	.L68:
  49:../src/tensorflow/lite/micro/kernels/pack.cc ****   }
 557                             		.loc 1 49 5
 558 0209 FE 6A 45                		mov.L	[r10,r4], r5
  48:../src/tensorflow/lite/micro/kernels/pack.cc ****     copy_size *= output_dims->data[i];
 559                             		.loc 1 48 3
 560 020c 62 1A                   		add	#1, r10
 561                             	.LVL57:
  49:../src/tensorflow/lite/micro/kernels/pack.cc ****   }
 562                             		.loc 1 49 5
 563 020e 4F 5D                   		mul	r5, r13
 564                             	.LVL58:
  48:../src/tensorflow/lite/micro/kernels/pack.cc ****     copy_size *= output_dims->data[i];
 565                             		.loc 1 48 28
 566 0210 47 A1                   		cmp	r10, r1
 567 0212 21 F7                   		bne	.L68
 568 0214 FF 31 D9                		mul	r13, r9, r1
 569                             	.LVL59:
 570 0217 03                      		.balign 8,3,1
 571                             	.L71:
 572                             	.LBE344:
 573                             	.LBB345:
  52:../src/tensorflow/lite/micro/kernels/pack.cc ****     input_size *= input_dims->data[i];
 574                             		.loc 1 52 35
 575 0218 EC 32                   		mov.L	[r3], r2
 576                             	.LVL60:
 577                             	.LBE345:
  51:../src/tensorflow/lite/micro/kernels/pack.cc ****   for (int i = 0; i < input_dims->size; ++i) {
 578                             		.loc 1 51 7
 579 021a 66 15                   		mov.L	#1, r5
 580                             	.LBB346:
  52:../src/tensorflow/lite/micro/kernels/pack.cc ****     input_size *= input_dims->data[i];
 581                             		.loc 1 52 21
 582 021c 61 02                   		cmp	#0, r2
 583 021e 2B 12                   		ble	.L69
  52:../src/tensorflow/lite/micro/kernels/pack.cc ****     input_size *= input_dims->data[i];
 584                             		.loc 1 52 12
 585 0220 66 0A                   		mov.L	#0, r10
 586                             	.LVL61:
  53:../src/tensorflow/lite/micro/kernels/pack.cc ****   }
 587                             		.loc 1 53 16
 588 0222 62 43                   		add	#4, r3
 589                             	.LVL62:
 590                             		.balign 8,3,3
 591                             	.L70:
 592 0224 FE 6A 34                		mov.L	[r10,r3], r4
  52:../src/tensorflow/lite/micro/kernels/pack.cc ****     input_size *= input_dims->data[i];
 593                             		.loc 1 52 3
 594 0227 62 1A                   		add	#1, r10
 595                             	.LVL63:
  53:../src/tensorflow/lite/micro/kernels/pack.cc ****   }
 596                             		.loc 1 53 16
 597 0229 4F 45                   		mul	r4, r5
 598                             	.LVL64:
  52:../src/tensorflow/lite/micro/kernels/pack.cc ****     input_size *= input_dims->data[i];
 599                             		.loc 1 52 21
 600 022b 47 2A                   		cmp	r2, r10
 601 022d 21 F7                   		bne	.L70
 602                             	.LVL65:
 603 022f 03                      		.balign 8,3,1
 604                             	.L69:
 605                             	.LBE346:
  55:../src/tensorflow/lite/micro/kernels/pack.cc **** 
 606                             		.loc 1 55 3
 607 0230 47 51                   		cmp	r5, r1
 608 0232 21 78                   		bne	.L17
 609                             	.LVL66:
 610                             	.LBB347:
 611                             	.LBB348:
  55:C:\Users\a5116938\Desktop\e2_studio_workspace\EEMBC_final\RX65N_Cloud_Kit\src/tensorflow/lite/micro/kernels\kernel_util.h **** }
 612                             		.loc 2 55 28
 613 0234 EC C3                   		mov.L	[r12], r3
 614                             	.LVL67:
 615                             	.LBE348:
 616                             	.LBE347:
 617                             	.LBB349:
  59:../src/tensorflow/lite/micro/kernels/pack.cc ****     const TfLiteEvalTensor* t = tflite::micro::GetEvalInput(context, node, i);
 618                             		.loc 1 59 21
 619 0236 ED 0A 02                		mov.L	8[r0], r10
 620 0239 61 0A                   		cmp	#0, r10
 621 023b 2A 05 38 7B FF          		ble	.L21
 622 0240 4F DA                   		mul	r13, r10
 623 0242 FD C2 D8                		shll	#2, r13, r8
 624 0245 EF 3B                   		mov.L	r3, r11
 625 0247 FD C2 A3                		shll	#2, r10, r3
 626                             	.LVL68:
 627 024a A0 8B                   		mov.L	r3, 12[r0]
  59:../src/tensorflow/lite/micro/kernels/pack.cc ****     const TfLiteEvalTensor* t = tflite::micro::GetEvalInput(context, node, i);
 628                             		.loc 1 59 12
 629 024c 66 0C                   		mov.L	#0, r12
 630                             	.LVL69:
 631 024e FC 43 67                		xchg	r6, r7
 632                             	.LVL70:
 633                             	.LBE349:
 634                             	.LBE369:
 635                             	.LBE375:
  41:C:\Users\a5116938\Desktop\e2_studio_workspace\EEMBC_final\RX65N_Cloud_Kit\src/tensorflow/lite/micro/kernels\kernel_util.h **** }
 636                             		.loc 2 41 3 is_stmt 1
 637                             	.LBB376:
 638                             	.LBB370:
 639                             	.LBB365:
 640                             	.LBB350:
 641                             	.LBB351:
 642                             	.LBB352:
 643                             	.LBB353:
  33:C:\Users\a5116938\Desktop\e2_studio_workspace\EEMBC_final\RX65N_Cloud_Kit\src/tensorflow/lite/micro/kernels\kernel_util.h ****   TFLITE_DCHECK(node != nullptr);
 644                             		.loc 2 33 3
  34:C:\Users\a5116938\Desktop\e2_studio_workspace\EEMBC_final\RX65N_Cloud_Kit\src/tensorflow/lite/micro/kernels\kernel_util.h ****   return context->GetEvalTensor(context, node->inputs->data[index]);
 645                             		.loc 2 34 3
  35:C:\Users\a5116938\Desktop\e2_studio_workspace\EEMBC_final\RX65N_Cloud_Kit\src/tensorflow/lite/micro/kernels\kernel_util.h **** }
 646                             		.loc 2 35 3
  35:C:\Users\a5116938\Desktop\e2_studio_workspace\EEMBC_final\RX65N_Cloud_Kit\src/tensorflow/lite/micro/kernels\kernel_util.h **** }
 647                             		.loc 2 35 32 is_stmt 0
 648 0251 EC 75                   		mov.L	[r7], r5
 649 0253 71 C4 01                		add	#1, r12, r4
 650 0256 ED 6A 15                		mov.L	84[r6], r10
 651 0259 EF 61                   		mov.L	r6, r1
 652 025b FE 64 52                		mov.L	[r4,r5], r2
 653 025e 7F 1A                   		jsr	r10
 654                             	.LVL71:
 655                             	.LBE353:
 656                             	.LBE352:
 657                             	.LBE351:
 658                             	.LBB356:
 659                             	.LBB357:
  61:C:\Users\a5116938\Desktop\e2_studio_workspace\EEMBC_final\RX65N_Cloud_Kit\src/tensorflow/lite/micro/kernels\kernel_util.h ****   return reinterpret_cast<const T*>(tensor->data.raw);
 660                             		.loc 2 61 3
 661 0260 61 01                   		cmp	#0, r1
 662 0262 20 48                   		beq	.L17
 663                             	.LVL72:
 664                             		.balign 8,3,1
 665                             	.L167:
 666                             		.loc 2 62 53
 667 0264 EC 1A                   		mov.L	[r1], r10
 668                             	.LVL73:
 669                             	.LBE357:
 670                             	.LBE356:
 671                             	.LBB359:
  62:../src/tensorflow/lite/micro/kernels/pack.cc ****       const T* input_ptr = input_data + copy_size * k;
 672                             		.loc 1 62 23
 673 0266 61 09                   		cmp	#0, r9
 674 0268 2B 24                   		ble	.L76
 675 026a 61 0D                   		cmp	#0, r13
 676 026c 2B 20                   		ble	.L76
 677 026e EF B4                   		mov.L	r11, r4
  62:../src/tensorflow/lite/micro/kernels/pack.cc ****       const T* input_ptr = input_data + copy_size * k;
 678                             		.loc 1 62 14
 679 0270 66 05                   		mov.L	#0, r5
 680                             	.LVL74:
 681                             		.balign 8,3,2
 682                             	.L77:
 683 0272 FF 21 8A                		add	r8, r10, r1
 684 0275 EF 42                   		mov.L	r4, r2
 685                             	.LVL75:
 686 0277 03                      		.balign 8,3,3
 687                             	.L75:
 688                             	.LBB360:
 689                             	.LBB361:
  66:../src/tensorflow/lite/micro/kernels/pack.cc ****     }
 690                             		.loc 1 66 43
 691 0278 FD 2A A3                		mov.L	[r10+], r3
 692 027b FD 22 23                		mov.L	r3, [r2+]
  66:../src/tensorflow/lite/micro/kernels/pack.cc ****     }
 693                             		.loc 1 66 25
 694 027e 47 1A                   		cmp	r1, r10
 695 0280 21 F8                   		bne	.L75
 696                             	.LBE361:
 697                             	.LBE360:
  62:../src/tensorflow/lite/micro/kernels/pack.cc ****       const T* input_ptr = input_data + copy_size * k;
 698                             		.loc 1 62 5
 699 0282 62 15                   		add	#1, r5
 700                             	.LVL76:
 701 0284 06 89 04 03             		add	12[r0], r4
  62:../src/tensorflow/lite/micro/kernels/pack.cc ****       const T* input_ptr = input_data + copy_size * k;
 702                             		.loc 1 62 23
 703 0288 47 59                   		cmp	r5, r9
 704 028a 21 E8                   		bne	.L77
 705                             	.LVL77:
 706                             		.balign 8,3,1
 707                             	.L76:
 708                             	.LBE359:
 709                             	.LBE350:
  59:../src/tensorflow/lite/micro/kernels/pack.cc ****     const TfLiteEvalTensor* t = tflite::micro::GetEvalInput(context, node, i);
 710                             		.loc 1 59 3
 711 028c 62 1C                   		add	#1, r12
 712                             	.LVL78:
 713 028e 4B 8B                   		add	r8, r11
  59:../src/tensorflow/lite/micro/kernels/pack.cc ****     const TfLiteEvalTensor* t = tflite::micro::GetEvalInput(context, node, i);
 714                             		.loc 1 59 21
 715 0290 A8 84                   		mov.L	8[r0], r4
 716 0292 47 C4                   		cmp	r12, r4
 717 0294 3A 24 FF                		beq	.L21
 718                             	.LVL79:
 719                             	.LBE365:
 720                             	.LBE370:
 721                             	.LBE376:
  41:C:\Users\a5116938\Desktop\e2_studio_workspace\EEMBC_final\RX65N_Cloud_Kit\src/tensorflow/lite/micro/kernels\kernel_util.h **** }
 722                             		.loc 2 41 3 is_stmt 1
 723                             	.LBB377:
 724                             	.LBB371:
 725                             	.LBB366:
 726                             	.LBB364:
 727                             	.LBB362:
 728                             	.LBB355:
 729                             	.LBB354:
  33:C:\Users\a5116938\Desktop\e2_studio_workspace\EEMBC_final\RX65N_Cloud_Kit\src/tensorflow/lite/micro/kernels\kernel_util.h ****   TFLITE_DCHECK(node != nullptr);
 730                             		.loc 2 33 3
  34:C:\Users\a5116938\Desktop\e2_studio_workspace\EEMBC_final\RX65N_Cloud_Kit\src/tensorflow/lite/micro/kernels\kernel_util.h ****   return context->GetEvalTensor(context, node->inputs->data[index]);
 731                             		.loc 2 34 3
  35:C:\Users\a5116938\Desktop\e2_studio_workspace\EEMBC_final\RX65N_Cloud_Kit\src/tensorflow/lite/micro/kernels\kernel_util.h **** }
 732                             		.loc 2 35 3
  35:C:\Users\a5116938\Desktop\e2_studio_workspace\EEMBC_final\RX65N_Cloud_Kit\src/tensorflow/lite/micro/kernels\kernel_util.h **** }
 733                             		.loc 2 35 32 is_stmt 0
 734 0297 EC 75                   		mov.L	[r7], r5
 735 0299 71 C4 01                		add	#1, r12, r4
 736 029c ED 6A 15                		mov.L	84[r6], r10
 737 029f EF 61                   		mov.L	r6, r1
 738 02a1 FE 64 52                		mov.L	[r4,r5], r2
 739 02a4 7F 1A                   		jsr	r10
 740                             	.LVL80:
 741                             	.LBE354:
 742                             	.LBE355:
 743                             	.LBE362:
 744                             	.LBB363:
 745                             	.LBB358:
  61:C:\Users\a5116938\Desktop\e2_studio_workspace\EEMBC_final\RX65N_Cloud_Kit\src/tensorflow/lite/micro/kernels\kernel_util.h ****   return reinterpret_cast<const T*>(tensor->data.raw);
 746                             		.loc 2 61 3
 747 02a6 61 01                   		cmp	#0, r1
 748 02a8 21 BC                   		bne	.L167
 749                             	.LVL81:
 750                             		.balign 8,3,3
 751                             	.L17:
 752                             	.LBE358:
 753                             	.LBE363:
 754                             	.LBE364:
 755                             	.LBE366:
 756                             	.LBE371:
 757                             	.LBE377:
 758                             	.LBB378:
 759                             	.LBB276:
  47:C:\Users\a5116938\Desktop\e2_studio_workspace\EEMBC_final\RX65N_Cloud_Kit\src/tensorflow/lite/micro/kernels\kernel_util.h ****   TFLITE_DCHECK(node != nullptr);
 760                             		.loc 2 47 3
 761 02aa 05 00 00 00             		bsr	_abort
 762                             	.LVL82:
 763                             	.L163:
 764                             	.LBE276:
 765                             	.LBE378:
 766                             	.LBB379:
 767                             	.LBB325:
  40:../src/tensorflow/lite/micro/kernels/pack.cc ****   }
 768                             		.loc 1 40 5
 769 02ae 4B 1A                   		add	r1, r10
 770                             	.LVL83:
 771 02b0 38 A0 FD                		bra	.L46
 772                             	.LVL84:
 773                             	.L165:
 774                             	.LBE325:
 775                             	.LBE379:
 776                             	.LBB380:
 777                             	.LBB372:
 778 02b3 4B 1A                   		add	r1, r10
 779                             	.LVL85:
 780 02b5 38 30 FF                		bra	.L65
 781                             	.LVL86:
 782                             	.L107:
 783                             	.LBE372:
 784                             	.LBE380:
 785                             	.LBB381:
 786                             	.LBB326:
 787                             	.LBB320:
 788                             	.LBB318:
 789                             	.LBB315:
  62:../src/tensorflow/lite/micro/kernels/pack.cc ****       const T* input_ptr = input_data + copy_size * k;
 790                             		.loc 1 62 14
 791 02b8 EF 56                   		mov.L	r5, r6
 792 02ba EF A4                   		mov.L	r10, r4
 793                             	.LBB307:
 794                             	.LBB303:
  66:../src/tensorflow/lite/micro/kernels/pack.cc ****     }
 795                             		.loc 1 66 25
 796 02bc FF 2F BA                		add	r11, r10, r15
 797 02bf A3 8F                   		mov.L	r7, 60[r0]
 798                             	.LVL87:
 799                             		.balign 8,3,5
 800                             	.L58:
  66:../src/tensorflow/lite/micro/kernels/pack.cc ****     }
 801                             		.loc 1 66 43
 802 02c1 FD 28 47                		mov.B	[r4+], r7
 803 02c4 FD 20 67                		mov.B	r7, [r6+]
  66:../src/tensorflow/lite/micro/kernels/pack.cc ****     }
 804                             		.loc 1 66 25
 805 02c7 47 F4                   		cmp	r15, r4
 806 02c9 21 F8                   		bne	.L58
 807 02cb AB 8F                   		mov.L	60[r0], r7
 808 02cd 38 CD FE                		bra	.L64
 809                             	.LVL88:
 810                             	.L5:
 811                             	.LBE303:
 812                             	.LBE307:
 813                             	.LBE315:
 814                             	.LBE318:
 815                             	.LBE320:
 816                             	.LBE326:
 817                             	.LBE381:
  81:../src/tensorflow/lite/micro/kernels/pack.cc ****       return PackImpl<float>(context, node, output, data->values_count,
 818                             		.loc 1 81 5 is_stmt 1
  81:../src/tensorflow/lite/micro/kernels/pack.cc ****       return PackImpl<float>(context, node, output, data->values_count,
 819                             		.loc 1 81 26
  82:../src/tensorflow/lite/micro/kernels/pack.cc ****                              data->axis);
 820                             		.loc 1 82 7
 821                             	.LBB382:
 822                             	.LBB383:
 823                             	.LBB384:
 824                             	.LBB385:
 825                             	.LBB386:
  35:C:\Users\a5116938\Desktop\e2_studio_workspace\EEMBC_final\RX65N_Cloud_Kit\src/tensorflow/lite/micro/kernels\kernel_util.h **** }
 826                             		.loc 2 35 32 is_stmt 0
 827 02d0 EC 64                   		mov.L	[r6], r4
 828 02d2 AD 7D                   		mov.L	84[r7], r5
 829 02d4 EF 71                   		mov.L	r7, r1
 830                             	.LBE386:
 831                             	.LBE385:
 832                             	.LBE384:
 833                             	.LBE383:
 834                             	.LBE382:
  82:../src/tensorflow/lite/micro/kernels/pack.cc ****                              data->axis);
 835                             		.loc 1 82 59
 836 02d6 E4 A0 02                		mov.L	[r10], 8[r0]
 837                             	.LBB416:
 838                             	.LBB412:
 839                             	.LBB391:
 840                             	.LBB389:
 841                             	.LBB387:
  35:C:\Users\a5116938\Desktop\e2_studio_workspace\EEMBC_final\RX65N_Cloud_Kit\src/tensorflow/lite/micro/kernels\kernel_util.h **** }
 842                             		.loc 2 35 32
 843 02d9 A8 4A                   		mov.L	4[r4], r2
 844                             	.LBE387:
 845                             	.LBE389:
 846                             	.LBE391:
 847                             	.LBE412:
 848                             	.LBE416:
  83:../src/tensorflow/lite/micro/kernels/pack.cc ****     }
 849                             		.loc 1 83 36
 850 02db ED AA 01                		mov.L	4[r10], r10
 851                             	.LVL89:
  41:C:\Users\a5116938\Desktop\e2_studio_workspace\EEMBC_final\RX65N_Cloud_Kit\src/tensorflow/lite/micro/kernels\kernel_util.h **** }
 852                             		.loc 2 41 3 is_stmt 1
 853                             	.LBB417:
 854                             	.LBB413:
 855                             	.LBB392:
 856                             	.LBB390:
 857                             	.LBB388:
  33:C:\Users\a5116938\Desktop\e2_studio_workspace\EEMBC_final\RX65N_Cloud_Kit\src/tensorflow/lite/micro/kernels\kernel_util.h ****   TFLITE_DCHECK(node != nullptr);
 858                             		.loc 2 33 3
  34:C:\Users\a5116938\Desktop\e2_studio_workspace\EEMBC_final\RX65N_Cloud_Kit\src/tensorflow/lite/micro/kernels\kernel_util.h ****   return context->GetEvalTensor(context, node->inputs->data[index]);
 859                             		.loc 2 34 3
  35:C:\Users\a5116938\Desktop\e2_studio_workspace\EEMBC_final\RX65N_Cloud_Kit\src/tensorflow/lite/micro/kernels\kernel_util.h **** }
 860                             		.loc 2 35 3
  35:C:\Users\a5116938\Desktop\e2_studio_workspace\EEMBC_final\RX65N_Cloud_Kit\src/tensorflow/lite/micro/kernels\kernel_util.h **** }
 861                             		.loc 2 35 32 is_stmt 0
 862 02de 7F 15                   		jsr	r5
 863                             	.LVL90:
 864                             	.LBE388:
 865                             	.LBE390:
 866                             	.LBE392:
  35:../src/tensorflow/lite/micro/kernels/pack.cc ****   const TfLiteIntArray* input_dims = input0->dims;
 867                             		.loc 1 35 34
 868 02e0 ED C2 01                		mov.L	4[r12], r2
  36:../src/tensorflow/lite/micro/kernels/pack.cc ****   const TfLiteIntArray* output_dims = output->dims;
 869                             		.loc 1 36 25
 870 02e3 A8 1B                   		mov.L	4[r1], r3
  35:../src/tensorflow/lite/micro/kernels/pack.cc ****   const TfLiteIntArray* input_dims = input0->dims;
 871                             		.loc 1 35 13
 872 02e5 EC 21                   		mov.L	[r2], r1
 873                             	.LVL91:
  39:../src/tensorflow/lite/micro/kernels/pack.cc ****     axis += dimensions;
 874                             		.loc 1 39 3
 875 02e7 61 0A                   		cmp	#0, r10
 876 02e9 28 04                   		bge	.L10
  40:../src/tensorflow/lite/micro/kernels/pack.cc ****   }
 877                             		.loc 1 40 5
 878 02eb 4B 1A                   		add	r1, r10
 879                             	.LVL92:
 880                             		.balign 8,3,1
 881                             	.L10:
  43:../src/tensorflow/lite/micro/kernels/pack.cc ****   for (int i = 0; i < axis; ++i) {
 882                             		.loc 1 43 7
 883 02ed 66 19                   		mov.L	#1, r9
 884                             	.LBB393:
  44:../src/tensorflow/lite/micro/kernels/pack.cc ****     outer_size *= output_dims->data[i];
 885                             		.loc 1 44 21
 886 02ef 61 0A                   		cmp	#0, r10
 887 02f1 2B 12                   		ble	.L11
  44:../src/tensorflow/lite/micro/kernels/pack.cc ****     outer_size *= output_dims->data[i];
 888                             		.loc 1 44 12
 889 02f3 66 05                   		mov.L	#0, r5
  45:../src/tensorflow/lite/micro/kernels/pack.cc ****   }
 890                             		.loc 1 45 16
 891 02f5 71 28 04                		add	#4, r2, r8
 892                             	.LVL93:
 893                             		.balign 8,3,3
 894                             	.L12:
  45:../src/tensorflow/lite/micro/kernels/pack.cc ****   }
 895                             		.loc 1 45 5
 896 02f8 FE 65 84                		mov.L	[r5,r8], r4
  44:../src/tensorflow/lite/micro/kernels/pack.cc ****     outer_size *= output_dims->data[i];
 897                             		.loc 1 44 3
 898 02fb 62 15                   		add	#1, r5
 899                             	.LVL94:
  45:../src/tensorflow/lite/micro/kernels/pack.cc ****   }
 900                             		.loc 1 45 5
 901 02fd 4F 49                   		mul	r4, r9
 902                             	.LVL95:
  44:../src/tensorflow/lite/micro/kernels/pack.cc ****     outer_size *= output_dims->data[i];
 903                             		.loc 1 44 21
 904 02ff 47 5A                   		cmp	r5, r10
 905 0301 21 F7                   		bne	.L12
 906                             	.LVL96:
 907                             		.balign 8,3,1
 908                             	.L11:
 909                             	.LBE393:
 910                             	.LBB394:
  48:../src/tensorflow/lite/micro/kernels/pack.cc ****     copy_size *= output_dims->data[i];
 911                             		.loc 1 48 12
 912 0303 62 1A                   		add	#1, r10
 913                             	.LVL97:
 914                             	.LBE394:
  47:../src/tensorflow/lite/micro/kernels/pack.cc ****   for (int i = axis + 1; i < dimensions; ++i) {
 915                             		.loc 1 47 7
 916 0305 66 1D                   		mov.L	#1, r13
 917                             	.LBB395:
  49:../src/tensorflow/lite/micro/kernels/pack.cc ****   }
 918                             		.loc 1 49 15
 919 0307 71 24 04                		add	#4, r2, r4
  48:../src/tensorflow/lite/micro/kernels/pack.cc ****     copy_size *= output_dims->data[i];
 920                             		.loc 1 48 28
 921 030a 47 A1                   		cmp	r10, r1
 922 030c 2A 05 38 45 03          		ble	.L168
 923                             	.LVL98:
 924                             		.balign 8,3,3
 925                             	.L13:
  49:../src/tensorflow/lite/micro/kernels/pack.cc ****   }
 926                             		.loc 1 49 5
 927 0311 FE 6A 45                		mov.L	[r10,r4], r5
  48:../src/tensorflow/lite/micro/kernels/pack.cc ****     copy_size *= output_dims->data[i];
 928                             		.loc 1 48 3
 929 0314 62 1A                   		add	#1, r10
 930                             	.LVL99:
  49:../src/tensorflow/lite/micro/kernels/pack.cc ****   }
 931                             		.loc 1 49 5
 932 0316 4F 5D                   		mul	r5, r13
 933                             	.LVL100:
  48:../src/tensorflow/lite/micro/kernels/pack.cc ****     copy_size *= output_dims->data[i];
 934                             		.loc 1 48 28
 935 0318 47 A1                   		cmp	r10, r1
 936 031a 21 F7                   		bne	.L13
 937 031c FF 31 9D                		mul	r9, r13, r1
 938                             	.LVL101:
 939 031f 03                      		.balign 8,3,1
 940                             	.L16:
 941                             	.LBE395:
 942                             	.LBB396:
  52:../src/tensorflow/lite/micro/kernels/pack.cc ****     input_size *= input_dims->data[i];
 943                             		.loc 1 52 35
 944 0320 EC 32                   		mov.L	[r3], r2
 945                             	.LVL102:
 946                             	.LBE396:
  51:../src/tensorflow/lite/micro/kernels/pack.cc ****   for (int i = 0; i < input_dims->size; ++i) {
 947                             		.loc 1 51 7
 948 0322 66 15                   		mov.L	#1, r5
 949                             	.LBB397:
  52:../src/tensorflow/lite/micro/kernels/pack.cc ****     input_size *= input_dims->data[i];
 950                             		.loc 1 52 21
 951 0324 61 02                   		cmp	#0, r2
 952 0326 2B 12                   		ble	.L14
  52:../src/tensorflow/lite/micro/kernels/pack.cc ****     input_size *= input_dims->data[i];
 953                             		.loc 1 52 12
 954 0328 66 0A                   		mov.L	#0, r10
 955                             	.LVL103:
  53:../src/tensorflow/lite/micro/kernels/pack.cc ****   }
 956                             		.loc 1 53 16
 957 032a 62 43                   		add	#4, r3
 958                             	.LVL104:
 959                             		.balign 8,3,3
 960                             	.L15:
 961 032c FE 6A 34                		mov.L	[r10,r3], r4
  52:../src/tensorflow/lite/micro/kernels/pack.cc ****     input_size *= input_dims->data[i];
 962                             		.loc 1 52 3
 963 032f 62 1A                   		add	#1, r10
 964                             	.LVL105:
  53:../src/tensorflow/lite/micro/kernels/pack.cc ****   }
 965                             		.loc 1 53 16
 966 0331 4F 45                   		mul	r4, r5
 967                             	.LVL106:
  52:../src/tensorflow/lite/micro/kernels/pack.cc ****     input_size *= input_dims->data[i];
 968                             		.loc 1 52 21
 969 0333 47 2A                   		cmp	r2, r10
 970 0335 21 F7                   		bne	.L15
 971                             	.LVL107:
 972 0337 03                      		.balign 8,3,1
 973                             	.L14:
 974                             	.LBE397:
  55:../src/tensorflow/lite/micro/kernels/pack.cc **** 
 975                             		.loc 1 55 3
 976 0338 47 15                   		cmp	r1, r5
 977 033a 3B 70 FF                		bne	.L17
 978                             	.LVL108:
 979                             	.LBB398:
 980                             	.LBB399:
  55:C:\Users\a5116938\Desktop\e2_studio_workspace\EEMBC_final\RX65N_Cloud_Kit\src/tensorflow/lite/micro/kernels\kernel_util.h **** }
 981                             		.loc 2 55 28
 982 033d EC C3                   		mov.L	[r12], r3
 983                             	.LVL109:
 984                             	.LBE399:
 985                             	.LBE398:
 986                             	.LBB400:
  59:../src/tensorflow/lite/micro/kernels/pack.cc ****     const TfLiteEvalTensor* t = tflite::micro::GetEvalInput(context, node, i);
 987                             		.loc 1 59 21
 988 033f A8 84                   		mov.L	8[r0], r4
 989 0341 61 04                   		cmp	#0, r4
 990 0343 2A 05 38 73 FE          		ble	.L21
 991 0348 EF 4A                   		mov.L	r4, r10
 992 034a 4F DA                   		mul	r13, r10
 993 034c FD C2 D8                		shll	#2, r13, r8
 994 034f EF 3B                   		mov.L	r3, r11
 995 0351 FD C2 A5                		shll	#2, r10, r5
 996 0354 A0 8D                   		mov.L	r5, 12[r0]
  59:../src/tensorflow/lite/micro/kernels/pack.cc ****     const TfLiteEvalTensor* t = tflite::micro::GetEvalInput(context, node, i);
 997                             		.loc 1 59 12
 998 0356 66 0C                   		mov.L	#0, r12
 999                             	.LVL110:
 1000 0358 FC 43 67                		xchg	r6, r7
 1001                             	.LVL111:
 1002                             		.balign 8,3,1
 1003                             	.L22:
 1004                             	.LBE400:
 1005                             	.LBE413:
 1006                             	.LBE417:
  41:C:\Users\a5116938\Desktop\e2_studio_workspace\EEMBC_final\RX65N_Cloud_Kit\src/tensorflow/lite/micro/kernels\kernel_util.h **** }
 1007                             		.loc 2 41 3 is_stmt 1
 1008                             	.LBB418:
 1009                             	.LBB414:
 1010                             	.LBB410:
 1011                             	.LBB401:
 1012                             	.LBB402:
 1013                             	.LBB403:
 1014                             	.LBB404:
  33:C:\Users\a5116938\Desktop\e2_studio_workspace\EEMBC_final\RX65N_Cloud_Kit\src/tensorflow/lite/micro/kernels\kernel_util.h ****   TFLITE_DCHECK(node != nullptr);
 1015                             		.loc 2 33 3
  34:C:\Users\a5116938\Desktop\e2_studio_workspace\EEMBC_final\RX65N_Cloud_Kit\src/tensorflow/lite/micro/kernels\kernel_util.h ****   return context->GetEvalTensor(context, node->inputs->data[index]);
 1016                             		.loc 2 34 3
  35:C:\Users\a5116938\Desktop\e2_studio_workspace\EEMBC_final\RX65N_Cloud_Kit\src/tensorflow/lite/micro/kernels\kernel_util.h **** }
 1017                             		.loc 2 35 3
  35:C:\Users\a5116938\Desktop\e2_studio_workspace\EEMBC_final\RX65N_Cloud_Kit\src/tensorflow/lite/micro/kernels\kernel_util.h **** }
 1018                             		.loc 2 35 32 is_stmt 0
 1019 035b EC 75                   		mov.L	[r7], r5
 1020 035d 71 C4 01                		add	#1, r12, r4
 1021 0360 ED 6A 15                		mov.L	84[r6], r10
 1022 0363 EF 61                   		mov.L	r6, r1
 1023 0365 FE 64 52                		mov.L	[r4,r5], r2
 1024 0368 7F 1A                   		jsr	r10
 1025                             	.LVL112:
 1026                             	.LBE404:
 1027                             	.LBE403:
 1028                             	.LBE402:
 1029                             	.LBB405:
 1030                             	.LBB406:
  61:C:\Users\a5116938\Desktop\e2_studio_workspace\EEMBC_final\RX65N_Cloud_Kit\src/tensorflow/lite/micro/kernels\kernel_util.h ****   return reinterpret_cast<const T*>(tensor->data.raw);
 1031                             		.loc 2 61 3
 1032 036a 61 01                   		cmp	#0, r1
 1033 036c 3A 3E FF                		beq	.L17
 1034                             		.loc 2 62 53
 1035 036f EC 1A                   		mov.L	[r1], r10
 1036                             	.LVL113:
 1037                             	.LBE406:
 1038                             	.LBE405:
 1039                             	.LBB407:
  62:../src/tensorflow/lite/micro/kernels/pack.cc ****       const T* input_ptr = input_data + copy_size * k;
 1040                             		.loc 1 62 23
 1041 0371 61 09                   		cmp	#0, r9
 1042 0373 2B 23                   		ble	.L25
 1043 0375 61 0D                   		cmp	#0, r13
 1044 0377 2B 1F                   		ble	.L25
 1045 0379 EF B4                   		mov.L	r11, r4
  62:../src/tensorflow/lite/micro/kernels/pack.cc ****       const T* input_ptr = input_data + copy_size * k;
 1046                             		.loc 1 62 14
 1047 037b 66 05                   		mov.L	#0, r5
 1048                             	.LVL114:
 1049                             		.balign 8,3,2
 1050                             	.L26:
 1051 037d FF 21 8A                		add	r8, r10, r1
 1052 0380 EF 42                   		mov.L	r4, r2
 1053                             	.LVL115:
 1054                             		.balign 8,3,3
 1055                             	.L24:
 1056                             	.LBB408:
 1057                             	.LBB409:
  66:../src/tensorflow/lite/micro/kernels/pack.cc ****     }
 1058                             		.loc 1 66 43
 1059 0382 FD 2A A3                		mov.L	[r10+], r3
 1060 0385 FD 22 23                		mov.L	r3, [r2+]
  66:../src/tensorflow/lite/micro/kernels/pack.cc ****     }
 1061                             		.loc 1 66 25
 1062 0388 47 1A                   		cmp	r1, r10
 1063 038a 21 F8                   		bne	.L24
 1064                             	.LBE409:
 1065                             	.LBE408:
  62:../src/tensorflow/lite/micro/kernels/pack.cc ****       const T* input_ptr = input_data + copy_size * k;
 1066                             		.loc 1 62 5
 1067 038c 62 15                   		add	#1, r5
 1068                             	.LVL116:
 1069 038e 06 89 04 03             		add	12[r0], r4
  62:../src/tensorflow/lite/micro/kernels/pack.cc ****       const T* input_ptr = input_data + copy_size * k;
 1070                             		.loc 1 62 23
 1071 0392 47 95                   		cmp	r9, r5
 1072 0394 21 E9                   		bne	.L26
 1073                             	.LVL117:
 1074                             		.balign 8,3,1
 1075                             	.L25:
 1076                             	.LBE407:
 1077                             	.LBE401:
  59:../src/tensorflow/lite/micro/kernels/pack.cc ****     const TfLiteEvalTensor* t = tflite::micro::GetEvalInput(context, node, i);
 1078                             		.loc 1 59 3
 1079 0396 62 1C                   		add	#1, r12
 1080                             	.LVL118:
 1081 0398 4B 8B                   		add	r8, r11
  59:../src/tensorflow/lite/micro/kernels/pack.cc ****     const TfLiteEvalTensor* t = tflite::micro::GetEvalInput(context, node, i);
 1082                             		.loc 1 59 21
 1083 039a ED 0A 02                		mov.L	8[r0], r10
 1084 039d 47 CA                   		cmp	r12, r10
 1085 039f 21 BC                   		bne	.L22
 1086                             	.LBE410:
 1087                             	.LBE414:
 1088                             	.LBE418:
  82:../src/tensorflow/lite/micro/kernels/pack.cc ****                              data->axis);
 1089                             		.loc 1 82 29
 1090 03a1 66 01                   		mov.L	#0, r1
 1091 03a3 38 17 FE                		bra	.L1
 1092                             	.LVL119:
 1093                             	.L3:
  85:../src/tensorflow/lite/micro/kernels/pack.cc ****       return PackImpl<uint8_t>(context, node, output, data->values_count,
 1094                             		.loc 1 85 5 is_stmt 1
  85:../src/tensorflow/lite/micro/kernels/pack.cc ****       return PackImpl<uint8_t>(context, node, output, data->values_count,
 1095                             		.loc 1 85 24
  86:../src/tensorflow/lite/micro/kernels/pack.cc ****                                data->axis);
 1096                             		.loc 1 86 7
 1097                             	.LBB419:
 1098                             	.LBB420:
 1099                             	.LBB421:
 1100                             	.LBB422:
 1101                             	.LBB423:
  35:C:\Users\a5116938\Desktop\e2_studio_workspace\EEMBC_final\RX65N_Cloud_Kit\src/tensorflow/lite/micro/kernels\kernel_util.h **** }
 1102                             		.loc 2 35 32 is_stmt 0
 1103 03a6 EC 64                   		mov.L	[r6], r4
 1104 03a8 AD 7D                   		mov.L	84[r7], r5
 1105 03aa EF 71                   		mov.L	r7, r1
 1106                             	.LBE423:
 1107                             	.LBE422:
 1108                             	.LBE421:
 1109                             	.LBE420:
 1110                             	.LBE419:
  86:../src/tensorflow/lite/micro/kernels/pack.cc ****                                data->axis);
 1111                             		.loc 1 86 61
 1112 03ac E4 A0 09                		mov.L	[r10], 36[r0]
 1113                             	.LBB469:
 1114                             	.LBB464:
 1115                             	.LBB428:
 1116                             	.LBB426:
 1117                             	.LBB424:
  35:C:\Users\a5116938\Desktop\e2_studio_workspace\EEMBC_final\RX65N_Cloud_Kit\src/tensorflow/lite/micro/kernels\kernel_util.h **** }
 1118                             		.loc 2 35 32
 1119 03af A8 4A                   		mov.L	4[r4], r2
 1120                             	.LBE424:
 1121                             	.LBE426:
 1122                             	.LBE428:
 1123                             	.LBE464:
 1124                             	.LBE469:
  87:../src/tensorflow/lite/micro/kernels/pack.cc ****     }
 1125                             		.loc 1 87 38
 1126 03b1 ED AA 01                		mov.L	4[r10], r10
 1127                             	.LVL120:
  41:C:\Users\a5116938\Desktop\e2_studio_workspace\EEMBC_final\RX65N_Cloud_Kit\src/tensorflow/lite/micro/kernels\kernel_util.h **** }
 1128                             		.loc 2 41 3 is_stmt 1
 1129                             	.LBB470:
 1130                             	.LBB465:
 1131                             	.LBB429:
 1132                             	.LBB427:
 1133                             	.LBB425:
  33:C:\Users\a5116938\Desktop\e2_studio_workspace\EEMBC_final\RX65N_Cloud_Kit\src/tensorflow/lite/micro/kernels\kernel_util.h ****   TFLITE_DCHECK(node != nullptr);
 1134                             		.loc 2 33 3
  34:C:\Users\a5116938\Desktop\e2_studio_workspace\EEMBC_final\RX65N_Cloud_Kit\src/tensorflow/lite/micro/kernels\kernel_util.h ****   return context->GetEvalTensor(context, node->inputs->data[index]);
 1135                             		.loc 2 34 3
  35:C:\Users\a5116938\Desktop\e2_studio_workspace\EEMBC_final\RX65N_Cloud_Kit\src/tensorflow/lite/micro/kernels\kernel_util.h **** }
 1136                             		.loc 2 35 3
  35:C:\Users\a5116938\Desktop\e2_studio_workspace\EEMBC_final\RX65N_Cloud_Kit\src/tensorflow/lite/micro/kernels\kernel_util.h **** }
 1137                             		.loc 2 35 32 is_stmt 0
 1138 03b4 7F 15                   		jsr	r5
 1139                             	.LVL121:
 1140                             	.LBE425:
 1141                             	.LBE427:
 1142                             	.LBE429:
  35:../src/tensorflow/lite/micro/kernels/pack.cc ****   const TfLiteIntArray* input_dims = input0->dims;
 1143                             		.loc 1 35 34
 1144 03b6 ED C3 01                		mov.L	4[r12], r3
  36:../src/tensorflow/lite/micro/kernels/pack.cc ****   const TfLiteIntArray* output_dims = output->dims;
 1145                             		.loc 1 36 25
 1146 03b9 A8 1A                   		mov.L	4[r1], r2
  35:../src/tensorflow/lite/micro/kernels/pack.cc ****   const TfLiteIntArray* input_dims = input0->dims;
 1147                             		.loc 1 35 13
 1148 03bb EC 31                   		mov.L	[r3], r1
 1149                             	.LVL122:
  39:../src/tensorflow/lite/micro/kernels/pack.cc ****     axis += dimensions;
 1150                             		.loc 1 39 3
 1151 03bd 61 0A                   		cmp	#0, r10
 1152 03bf 28 04                   		bge	.L27
  40:../src/tensorflow/lite/micro/kernels/pack.cc ****   }
 1153                             		.loc 1 40 5
 1154 03c1 4B 1A                   		add	r1, r10
 1155                             	.LVL123:
 1156                             		.balign 8,3,1
 1157                             	.L27:
  43:../src/tensorflow/lite/micro/kernels/pack.cc ****   for (int i = 0; i < axis; ++i) {
 1158                             		.loc 1 43 7
 1159 03c3 66 19                   		mov.L	#1, r9
 1160                             	.LBB430:
  44:../src/tensorflow/lite/micro/kernels/pack.cc ****     outer_size *= output_dims->data[i];
 1161                             		.loc 1 44 21
 1162 03c5 61 0A                   		cmp	#0, r10
 1163 03c7 2B 14                   		ble	.L28
  44:../src/tensorflow/lite/micro/kernels/pack.cc ****     outer_size *= output_dims->data[i];
 1164                             		.loc 1 44 12
 1165 03c9 66 05                   		mov.L	#0, r5
  45:../src/tensorflow/lite/micro/kernels/pack.cc ****   }
 1166                             		.loc 1 45 16
 1167 03cb 71 3B 04                		add	#4, r3, r11
 1168                             	.LVL124:
 1169 03ce EF 00                   		.balign 8,3,3
 1170                             	.L29:
  45:../src/tensorflow/lite/micro/kernels/pack.cc ****   }
 1171                             		.loc 1 45 5
 1172 03d0 FE 65 B4                		mov.L	[r5,r11], r4
  44:../src/tensorflow/lite/micro/kernels/pack.cc ****     outer_size *= output_dims->data[i];
 1173                             		.loc 1 44 3
 1174 03d3 62 15                   		add	#1, r5
 1175                             	.LVL125:
  45:../src/tensorflow/lite/micro/kernels/pack.cc ****   }
 1176                             		.loc 1 45 5
 1177 03d5 4F 49                   		mul	r4, r9
 1178                             	.LVL126:
  44:../src/tensorflow/lite/micro/kernels/pack.cc ****     outer_size *= output_dims->data[i];
 1179                             		.loc 1 44 21
 1180 03d7 47 5A                   		cmp	r5, r10
 1181 03d9 21 F7                   		bne	.L29
 1182                             	.LVL127:
 1183                             		.balign 8,3,2
 1184                             	.L28:
 1185                             	.LBE430:
 1186                             	.LBB431:
  48:../src/tensorflow/lite/micro/kernels/pack.cc ****     copy_size *= output_dims->data[i];
 1187                             		.loc 1 48 12
 1188 03db 71 A5 01                		add	#1, r10, r5
 1189                             	.LVL128:
 1190                             	.LBE431:
  47:../src/tensorflow/lite/micro/kernels/pack.cc ****   for (int i = axis + 1; i < dimensions; ++i) {
 1191                             		.loc 1 47 7
 1192 03de 66 1A                   		mov.L	#1, r10
 1193                             	.LVL129:
 1194                             	.LBB432:
  49:../src/tensorflow/lite/micro/kernels/pack.cc ****   }
 1195                             		.loc 1 49 15
 1196 03e0 62 43                   		add	#4, r3
 1197                             	.LVL130:
  48:../src/tensorflow/lite/micro/kernels/pack.cc ****     copy_size *= output_dims->data[i];
 1198                             		.loc 1 48 28
 1199 03e2 47 51                   		cmp	r5, r1
 1200 03e4 2A 05 38 68 02          		ble	.L169
 1201                             	.LVL131:
 1202                             		.balign 8,3,3
 1203                             	.L30:
  49:../src/tensorflow/lite/micro/kernels/pack.cc ****   }
 1204                             		.loc 1 49 5
 1205 03e9 FE 65 34                		mov.L	[r5,r3], r4
  48:../src/tensorflow/lite/micro/kernels/pack.cc ****     copy_size *= output_dims->data[i];
 1206                             		.loc 1 48 3
 1207 03ec 62 15                   		add	#1, r5
 1208                             	.LVL132:
  49:../src/tensorflow/lite/micro/kernels/pack.cc ****   }
 1209                             		.loc 1 49 5
 1210 03ee 4F 4A                   		mul	r4, r10
 1211                             	.LVL133:
  48:../src/tensorflow/lite/micro/kernels/pack.cc ****     copy_size *= output_dims->data[i];
 1212                             		.loc 1 48 28
 1213 03f0 47 51                   		cmp	r5, r1
 1214 03f2 21 F7                   		bne	.L30
 1215 03f4 FF 3B 9A                		mul	r9, r10, r11
 1216                             	.LVL134:
 1217 03f7 03                      		.balign 8,3,1
 1218                             	.L33:
 1219                             	.LBE432:
 1220                             	.LBB433:
  52:../src/tensorflow/lite/micro/kernels/pack.cc ****     input_size *= input_dims->data[i];
 1221                             		.loc 1 52 35
 1222 03f8 EC 21                   		mov.L	[r2], r1
 1223                             	.LVL135:
 1224                             	.LBE433:
  51:../src/tensorflow/lite/micro/kernels/pack.cc ****   for (int i = 0; i < input_dims->size; ++i) {
 1225                             		.loc 1 51 7
 1226 03fa 66 14                   		mov.L	#1, r4
 1227                             	.LBB434:
  52:../src/tensorflow/lite/micro/kernels/pack.cc ****     input_size *= input_dims->data[i];
 1228                             		.loc 1 52 21
 1229 03fc 61 01                   		cmp	#0, r1
 1230 03fe 2B 12                   		ble	.L31
  52:../src/tensorflow/lite/micro/kernels/pack.cc ****     input_size *= input_dims->data[i];
 1231                             		.loc 1 52 12
 1232 0400 66 05                   		mov.L	#0, r5
 1233                             	.LVL136:
  53:../src/tensorflow/lite/micro/kernels/pack.cc ****   }
 1234                             		.loc 1 53 16
 1235 0402 62 42                   		add	#4, r2
 1236                             	.LVL137:
 1237                             		.balign 8,3,3
 1238                             	.L32:
 1239 0404 FE 65 23                		mov.L	[r5,r2], r3
  52:../src/tensorflow/lite/micro/kernels/pack.cc ****     input_size *= input_dims->data[i];
 1240                             		.loc 1 52 3
 1241 0407 62 15                   		add	#1, r5
 1242                             	.LVL138:
  53:../src/tensorflow/lite/micro/kernels/pack.cc ****   }
 1243                             		.loc 1 53 16
 1244 0409 4F 34                   		mul	r3, r4
 1245                             	.LVL139:
  52:../src/tensorflow/lite/micro/kernels/pack.cc ****     input_size *= input_dims->data[i];
 1246                             		.loc 1 52 21
 1247 040b 47 51                   		cmp	r5, r1
 1248 040d 21 F7                   		bne	.L32
 1249                             	.LVL140:
 1250 040f 03                      		.balign 8,3,1
 1251                             	.L31:
 1252                             	.LBE434:
  55:../src/tensorflow/lite/micro/kernels/pack.cc **** 
 1253                             		.loc 1 55 3
 1254 0410 47 B4                   		cmp	r11, r4
 1255 0412 3B 98 FE                		bne	.L17
 1256                             	.LVL141:
 1257                             	.LBB435:
 1258                             	.LBB436:
  55:C:\Users\a5116938\Desktop\e2_studio_workspace\EEMBC_final\RX65N_Cloud_Kit\src/tensorflow/lite/micro/kernels\kernel_util.h **** }
 1259                             		.loc 2 55 28
 1260 0415 E4 C0 03                		mov.L	[r12], 12[r0]
 1261                             	.LVL142:
 1262                             	.LBE436:
 1263                             	.LBE435:
 1264                             	.LBB437:
  59:../src/tensorflow/lite/micro/kernels/pack.cc ****     const TfLiteEvalTensor* t = tflite::micro::GetEvalInput(context, node, i);
 1265                             		.loc 1 59 21
 1266 0418 AA 0C                   		mov.L	36[r0], r4
 1267 041a 61 04                   		cmp	#0, r4
 1268 041c 2A 05 38 9A FD          		ble	.L21
 1269 0421 FB 56 FC                		mov.L	#-4, r5
 1270 0424 53 A5                   		and	r10, r5
 1271 0426 A0 85                   		mov.L	r5, 8[r0]
 1272 0428 71 A5 FF                		add	#-1, r10, r5
 1273                             	.LBB438:
 1274                             	.LBB439:
 1275                             	.LBB440:
 1276                             	.LBB441:
  66:../src/tensorflow/lite/micro/kernels/pack.cc ****     }
 1277                             		.loc 1 66 7
 1278 042b A8 83                   		mov.L	8[r0], r3
 1279 042d 62 13                   		add	#1, r3
 1280 042f A1 03                   		mov.L	r3, 16[r0]
 1281 0431 4F A4                   		mul	r10, r4
 1282 0433 A1 0C                   		mov.L	r4, 20[r0]
 1283 0435 FB 46 FC                		mov.L	#-4, r4
 1284 0438 53 A4                   		and	r10, r4
 1285 043a A2 84                   		mov.L	r4, 40[r0]
 1286 043c EF 4C                   		mov.L	r4, r12
 1287                             	.LVL143:
 1288 043e 62 2C                   		add	#2, r12
 1289 0440 66 0B                   		mov.L	#0, r11
 1290                             	.LBE441:
 1291                             	.LBE440:
 1292                             	.LBE439:
 1293                             	.LBE438:
  59:../src/tensorflow/lite/micro/kernels/pack.cc ****     const TfLiteEvalTensor* t = tflite::micro::GetEvalInput(context, node, i);
 1294                             		.loc 1 59 12
 1295 0442 66 08                   		mov.L	#0, r8
 1296 0444 61 85                   		cmp	#8, r5
 1297 0446 FC DB 54                		scgtu.L	r5
 1298 0449 A2 8D                   		mov.L	r5, 44[r0]
 1299                             	.LBB458:
 1300                             	.LBB450:
 1301                             	.LBB446:
 1302                             	.LBB442:
  66:../src/tensorflow/lite/micro/kernels/pack.cc ****     }
 1303                             		.loc 1 66 43
 1304 044b A8 8D                   		mov.L	12[r0], r5
 1305 044d 4B 45                   		add	r4, r5
 1306 044f A3 05                   		mov.L	r5, 48[r0]
 1307 0451 A8 8C                   		mov.L	12[r0], r4
 1308 0453 4B 34                   		add	r3, r4
 1309 0455 A3 0C                   		mov.L	r4, 52[r0]
 1310 0457 EF 9D                   		mov.L	r9, r13
 1311 0459 A3 86                   		mov.L	r6, 56[r0]
 1312                             	.LVL144:
 1313                             		.balign 8,3,1
 1314                             	.L35:
 1315                             	.LBE442:
 1316                             	.LBE446:
 1317                             	.LBE450:
 1318                             	.LBE458:
 1319                             	.LBE437:
 1320                             	.LBE465:
 1321                             	.LBE470:
  41:C:\Users\a5116938\Desktop\e2_studio_workspace\EEMBC_final\RX65N_Cloud_Kit\src/tensorflow/lite/micro/kernels\kernel_util.h **** }
 1322                             		.loc 2 41 3 is_stmt 1
 1323                             	.LBB471:
 1324                             	.LBB466:
 1325                             	.LBB461:
 1326                             	.LBB459:
 1327                             	.LBB451:
 1328                             	.LBB452:
 1329                             	.LBB453:
  33:C:\Users\a5116938\Desktop\e2_studio_workspace\EEMBC_final\RX65N_Cloud_Kit\src/tensorflow/lite/micro/kernels\kernel_util.h ****   TFLITE_DCHECK(node != nullptr);
 1330                             		.loc 2 33 3
  34:C:\Users\a5116938\Desktop\e2_studio_workspace\EEMBC_final\RX65N_Cloud_Kit\src/tensorflow/lite/micro/kernels\kernel_util.h ****   return context->GetEvalTensor(context, node->inputs->data[index]);
 1331                             		.loc 2 34 3
  35:C:\Users\a5116938\Desktop\e2_studio_workspace\EEMBC_final\RX65N_Cloud_Kit\src/tensorflow/lite/micro/kernels\kernel_util.h **** }
 1332                             		.loc 2 35 3
  35:C:\Users\a5116938\Desktop\e2_studio_workspace\EEMBC_final\RX65N_Cloud_Kit\src/tensorflow/lite/micro/kernels\kernel_util.h **** }
 1333                             		.loc 2 35 32 is_stmt 0
 1334 045b AB 85                   		mov.L	56[r0], r5
 1335 045d EC 54                   		mov.L	[r5], r4
 1336 045f 71 83 01                		add	#1, r8, r3
 1337 0462 AD 7D                   		mov.L	84[r7], r5
 1338 0464 EF 71                   		mov.L	r7, r1
 1339 0466 FE 63 42                		mov.L	[r3,r4], r2
 1340 0469 7F 15                   		jsr	r5
 1341                             	.LVL145:
 1342                             	.LBE453:
 1343                             	.LBE452:
 1344                             	.LBE451:
 1345                             	.LBB454:
 1346                             	.LBB455:
  61:C:\Users\a5116938\Desktop\e2_studio_workspace\EEMBC_final\RX65N_Cloud_Kit\src/tensorflow/lite/micro/kernels\kernel_util.h ****   return reinterpret_cast<const T*>(tensor->data.raw);
 1347                             		.loc 2 61 3
 1348 046b 61 01                   		cmp	#0, r1
 1349 046d 3A 3D FE                		beq	.L17
 1350                             		.loc 2 62 53
 1351 0470 EC 15                   		mov.L	[r1], r5
 1352                             	.LVL146:
 1353                             	.LBE455:
 1354                             	.LBE454:
 1355                             	.LBB456:
  62:../src/tensorflow/lite/micro/kernels/pack.cc ****       const T* input_ptr = input_data + copy_size * k;
 1356                             		.loc 1 62 23
 1357 0472 61 0D                   		cmp	#0, r13
 1358 0474 2A 05 38 AC 00          		ble	.L40
 1359 0479 61 0A                   		cmp	#0, r10
 1360 047b 2A 05 38 A5 00          		ble	.L40
 1361 0480 A8 8C                   		mov.L	12[r0], r4
 1362 0482 4B B4                   		add	r11, r4
 1363 0484 EF B1                   		mov.L	r11, r1
 1364                             	.LVL147:
 1365 0486 66 02                   		mov.L	#0, r2
  62:../src/tensorflow/lite/micro/kernels/pack.cc ****       const T* input_ptr = input_data + copy_size * k;
 1366                             		.loc 1 62 14
 1367 0488 66 06                   		mov.L	#0, r6
 1368                             	.LBB447:
 1369                             	.LBB443:
  66:../src/tensorflow/lite/micro/kernels/pack.cc ****     }
 1370                             		.loc 1 66 68
 1371 048a ED 09 02                		mov.L	8[r0], r9
 1372 048d 4B 59                   		add	r5, r9
 1373 048f E7 09 06                		mov.L	r9, 24[r0]
 1374 0492 A9 03                   		mov.L	16[r0], r3
 1375 0494 4B 53                   		add	r5, r3
 1376 0496 A1 8B                   		mov.L	r3, 28[r0]
 1377 0498 FF 2E C5                		add	r12, r5, r14
  66:../src/tensorflow/lite/micro/kernels/pack.cc ****     }
 1378                             		.loc 1 66 43
 1379 049b ED 09 03                		mov.L	12[r0], r9
 1380 049e 4B C9                   		add	r12, r9
 1381 04a0 E7 09 08                		mov.L	r9, 32[r0]
 1382                             	.LVL148:
 1383                             		.balign 8,3,2
 1384                             	.L43:
 1385 04a3 71 59 04                		add	#4, r5, r9
 1386 04a6 71 43 04                		add	#4, r4, r3
 1387 04a9 47 94                   		cmp	r9, r4
 1388 04ab FC DB 92                		scgeu.L	r9
 1389 04ae 47 35                   		cmp	r3, r5
 1390 04b0 FC DB 32                		scgeu.L	r3
 1391 04b3 FF 5F 45                		or	r4, r5, r15
 1392 04b6 57 93                   		or	r9, r3
 1393 04b8 64 3F                   		and	#3, r15
 1394 04ba EF 49                   		mov.L	r4, r9
 1395 04bc FD 74 F3 00             		stnz	#0, r3
 1396 04c0 61 03                   		cmp	#0, r3
 1397 04c2 20 70                   		beq	.L106
 1398 04c4 AA 8B                   		mov.L	44[r0], r3
 1399 04c6 61 03                   		cmp	#0, r3
 1400 04c8 20 6A                   		beq	.L106
 1401 04ca ED 0F 0A                		mov.L	40[r0], r15
 1402 04cd 4B 4F                   		add	r4, r15
 1403                             	.LBE443:
 1404                             	.LBE447:
  62:../src/tensorflow/lite/micro/kernels/pack.cc ****       const T* input_ptr = input_data + copy_size * k;
 1405                             		.loc 1 62 14
 1406 04cf EF 53                   		mov.L	r5, r3
 1407 04d1 A3 8F                   		mov.L	r7, 60[r0]
 1408                             	.LVL149:
 1409                             		.balign 8,3,3
 1410                             	.L42:
 1411                             	.LBB448:
 1412                             	.LBB444:
  66:../src/tensorflow/lite/micro/kernels/pack.cc ****     }
 1413                             		.loc 1 66 43
 1414 04d3 FD 2A 37                		mov.L	[r3+], r7
 1415 04d6 FD 22 97                		mov.L	r7, [r9+]
 1416 04d9 47 F9                   		cmp	r15, r9
 1417 04db 21 F8                   		bne	.L42
 1418 04dd AB 8F                   		mov.L	60[r0], r7
 1419 04df ED 09 02                		mov.L	8[r0], r9
 1420 04e2 47 A9                   		cmp	r10, r9
 1421 04e4 20 2C                   		beq	.L45
 1422                             	.LVL150:
 1423 04e6 A9 83                   		mov.L	24[r0], r3
 1424 04e8 FE 42 39                		mov.B	[r2,r3], r9
 1425 04eb AB 03                   		mov.L	48[r0], r3
 1426 04ed FE 01 39                		mov.B	r9, [r1,r3]
 1427                             	.LVL151:
  66:../src/tensorflow/lite/micro/kernels/pack.cc ****     }
 1428                             		.loc 1 66 25
 1429 04f0 A9 03                   		mov.L	16[r0], r3
 1430 04f2 47 A3                   		cmp	r10, r3
 1431 04f4 28 1C                   		bge	.L45
 1432                             	.LVL152:
  66:../src/tensorflow/lite/micro/kernels/pack.cc ****     }
 1433                             		.loc 1 66 43
 1434 04f6 ED 09 07                		mov.L	28[r0], r9
 1435 04f9 FE 42 93                		mov.B	[r2,r9], r3
 1436                             	.LVL153:
 1437 04fc ED 09 0D                		mov.L	52[r0], r9
 1438 04ff FE 01 93                		mov.B	r3, [r1,r9]
 1439                             	.LVL154:
  66:../src/tensorflow/lite/micro/kernels/pack.cc ****     }
 1440                             		.loc 1 66 25
 1441 0502 47 CA                   		cmp	r12, r10
 1442 0504 2B 0C                   		ble	.L45
 1443                             	.LVL155:
  66:../src/tensorflow/lite/micro/kernels/pack.cc ****     }
 1444                             		.loc 1 66 43
 1445 0506 FE 42 E3                		mov.B	[r2,r14], r3
 1446 0509 ED 09 08                		mov.L	32[r0], r9
 1447 050c FE 01 93                		mov.B	r3, [r1,r9]
 1448                             	.LVL156:
 1449 050f 03                      		.balign 8,3,1
 1450                             	.L45:
 1451                             	.LBE444:
 1452                             	.LBE448:
  62:../src/tensorflow/lite/micro/kernels/pack.cc ****       const T* input_ptr = input_data + copy_size * k;
 1453                             		.loc 1 62 5
 1454 0510 62 16                   		add	#1, r6
 1455                             	.LVL157:
 1456 0512 4B A5                   		add	r10, r5
 1457 0514 06 89 04 05             		add	20[r0], r4
 1458 0518 4B A2                   		add	r10, r2
 1459 051a 06 89 01 05             		add	20[r0], r1
 1460                             	.LVL158:
  62:../src/tensorflow/lite/micro/kernels/pack.cc ****       const T* input_ptr = input_data + copy_size * k;
 1461                             		.loc 1 62 23
 1462 051e 47 D6                   		cmp	r13, r6
 1463 0520 21 83                   		bne	.L43
 1464                             	.LVL159:
 1465                             		.balign 8,3,1
 1466                             	.L40:
 1467                             	.LBE456:
 1468                             	.LBE459:
  59:../src/tensorflow/lite/micro/kernels/pack.cc ****     const TfLiteEvalTensor* t = tflite::micro::GetEvalInput(context, node, i);
 1469                             		.loc 1 59 3
 1470 0522 62 18                   		add	#1, r8
 1471                             	.LVL160:
 1472 0524 4B AB                   		add	r10, r11
  59:../src/tensorflow/lite/micro/kernels/pack.cc ****     const TfLiteEvalTensor* t = tflite::micro::GetEvalInput(context, node, i);
 1473                             		.loc 1 59 21
 1474 0526 AA 0E                   		mov.L	36[r0], r6
 1475 0528 47 86                   		cmp	r8, r6
 1476 052a 3B 31 FF                		bne	.L35
 1477                             	.LBE461:
 1478                             	.LBE466:
 1479                             	.LBE471:
  82:../src/tensorflow/lite/micro/kernels/pack.cc ****                              data->axis);
 1480                             		.loc 1 82 29
 1481 052d 66 01                   		mov.L	#0, r1
 1482 052f 38 8B FC                		bra	.L1
 1483                             	.LVL161:
 1484                             	.L106:
 1485                             	.LBB472:
 1486                             	.LBB467:
 1487                             	.LBB462:
 1488                             	.LBB460:
 1489                             	.LBB457:
  62:../src/tensorflow/lite/micro/kernels/pack.cc ****       const T* input_ptr = input_data + copy_size * k;
 1490                             		.loc 1 62 14
 1491 0532 EF 49                   		mov.L	r4, r9
 1492 0534 EF 53                   		mov.L	r5, r3
 1493                             	.LBB449:
 1494                             	.LBB445:
  66:../src/tensorflow/lite/micro/kernels/pack.cc ****     }
 1495                             		.loc 1 66 25
 1496 0536 FF 2F A5                		add	r10, r5, r15
 1497 0539 A3 8F                   		mov.L	r7, 60[r0]
 1498                             	.LVL162:
 1499 053b 77 10 01 00 00          		.balign 8,3,5
 1500                             	.L39:
  66:../src/tensorflow/lite/micro/kernels/pack.cc ****     }
 1501                             		.loc 1 66 43
 1502 0540 FD 28 37                		mov.B	[r3+], r7
 1503 0543 FD 20 97                		mov.B	r7, [r9+]
  66:../src/tensorflow/lite/micro/kernels/pack.cc ****     }
 1504                             		.loc 1 66 25
 1505 0546 47 F3                   		cmp	r15, r3
 1506 0548 21 F8                   		bne	.L39
 1507 054a AB 8F                   		mov.L	60[r0], r7
 1508 054c 2E C4                   		bra	.L45
 1509                             	.LVL163:
 1510                             	.L8:
 1511                             	.LBE445:
 1512                             	.LBE449:
 1513                             	.LBE457:
 1514                             	.LBE460:
 1515                             	.LBE462:
 1516                             	.LBE467:
 1517                             	.LBE472:
  97:../src/tensorflow/lite/micro/kernels/pack.cc ****       return PackImpl<int64_t>(context, node, output, data->values_count,
 1518                             		.loc 1 97 5 is_stmt 1
  97:../src/tensorflow/lite/micro/kernels/pack.cc ****       return PackImpl<int64_t>(context, node, output, data->values_count,
 1519                             		.loc 1 97 24
  98:../src/tensorflow/lite/micro/kernels/pack.cc ****                                data->axis);
 1520                             		.loc 1 98 7
 1521                             	.LBB473:
 1522                             	.LBB474:
 1523                             	.LBB475:
 1524                             	.LBB476:
 1525                             	.LBB477:
  35:C:\Users\a5116938\Desktop\e2_studio_workspace\EEMBC_final\RX65N_Cloud_Kit\src/tensorflow/lite/micro/kernels\kernel_util.h **** }
 1526                             		.loc 2 35 32 is_stmt 0
 1527 054e EC 64                   		mov.L	[r6], r4
 1528 0550 AD 7D                   		mov.L	84[r7], r5
 1529 0552 EF 71                   		mov.L	r7, r1
 1530                             	.LBE477:
 1531                             	.LBE476:
 1532                             	.LBE475:
 1533                             	.LBE474:
 1534                             	.LBE473:
  98:../src/tensorflow/lite/micro/kernels/pack.cc ****                                data->axis);
 1535                             		.loc 1 98 61
 1536 0554 E4 A0 02                		mov.L	[r10], 8[r0]
 1537                             	.LBB507:
 1538                             	.LBB503:
 1539                             	.LBB482:
 1540                             	.LBB480:
 1541                             	.LBB478:
  35:C:\Users\a5116938\Desktop\e2_studio_workspace\EEMBC_final\RX65N_Cloud_Kit\src/tensorflow/lite/micro/kernels\kernel_util.h **** }
 1542                             		.loc 2 35 32
 1543 0557 A8 4A                   		mov.L	4[r4], r2
 1544                             	.LBE478:
 1545                             	.LBE480:
 1546                             	.LBE482:
 1547                             	.LBE503:
 1548                             	.LBE507:
  99:../src/tensorflow/lite/micro/kernels/pack.cc ****     }
 1549                             		.loc 1 99 38
 1550 0559 ED AA 01                		mov.L	4[r10], r10
 1551                             	.LVL164:
  41:C:\Users\a5116938\Desktop\e2_studio_workspace\EEMBC_final\RX65N_Cloud_Kit\src/tensorflow/lite/micro/kernels\kernel_util.h **** }
 1552                             		.loc 2 41 3 is_stmt 1
 1553                             	.LBB508:
 1554                             	.LBB504:
 1555                             	.LBB483:
 1556                             	.LBB481:
 1557                             	.LBB479:
  33:C:\Users\a5116938\Desktop\e2_studio_workspace\EEMBC_final\RX65N_Cloud_Kit\src/tensorflow/lite/micro/kernels\kernel_util.h ****   TFLITE_DCHECK(node != nullptr);
 1558                             		.loc 2 33 3
  34:C:\Users\a5116938\Desktop\e2_studio_workspace\EEMBC_final\RX65N_Cloud_Kit\src/tensorflow/lite/micro/kernels\kernel_util.h ****   return context->GetEvalTensor(context, node->inputs->data[index]);
 1559                             		.loc 2 34 3
  35:C:\Users\a5116938\Desktop\e2_studio_workspace\EEMBC_final\RX65N_Cloud_Kit\src/tensorflow/lite/micro/kernels\kernel_util.h **** }
 1560                             		.loc 2 35 3
  35:C:\Users\a5116938\Desktop\e2_studio_workspace\EEMBC_final\RX65N_Cloud_Kit\src/tensorflow/lite/micro/kernels\kernel_util.h **** }
 1561                             		.loc 2 35 32 is_stmt 0
 1562 055c 7F 15                   		jsr	r5
 1563                             	.LVL165:
 1564                             	.LBE479:
 1565                             	.LBE481:
 1566                             	.LBE483:
  35:../src/tensorflow/lite/micro/kernels/pack.cc ****   const TfLiteIntArray* input_dims = input0->dims;
 1567                             		.loc 1 35 34
 1568 055e ED C2 01                		mov.L	4[r12], r2
  36:../src/tensorflow/lite/micro/kernels/pack.cc ****   const TfLiteIntArray* output_dims = output->dims;
 1569                             		.loc 1 36 25
 1570 0561 A8 1B                   		mov.L	4[r1], r3
  35:../src/tensorflow/lite/micro/kernels/pack.cc ****   const TfLiteIntArray* input_dims = input0->dims;
 1571                             		.loc 1 35 13
 1572 0563 EC 21                   		mov.L	[r2], r1
 1573                             	.LVL166:
  39:../src/tensorflow/lite/micro/kernels/pack.cc ****     axis += dimensions;
 1574                             		.loc 1 39 3
 1575 0565 61 0A                   		cmp	#0, r10
 1576 0567 28 04                   		bge	.L78
  40:../src/tensorflow/lite/micro/kernels/pack.cc ****   }
 1577                             		.loc 1 40 5
 1578 0569 4B 1A                   		add	r1, r10
 1579                             	.LVL167:
 1580                             		.balign 8,3,1
 1581                             	.L78:
  43:../src/tensorflow/lite/micro/kernels/pack.cc ****   for (int i = 0; i < axis; ++i) {
 1582                             		.loc 1 43 7
 1583 056b 66 19                   		mov.L	#1, r9
 1584                             	.LBB484:
  44:../src/tensorflow/lite/micro/kernels/pack.cc ****     outer_size *= output_dims->data[i];
 1585                             		.loc 1 44 21
 1586 056d 61 0A                   		cmp	#0, r10
 1587 056f 2B 14                   		ble	.L79
  44:../src/tensorflow/lite/micro/kernels/pack.cc ****     outer_size *= output_dims->data[i];
 1588                             		.loc 1 44 12
 1589 0571 66 05                   		mov.L	#0, r5
  45:../src/tensorflow/lite/micro/kernels/pack.cc ****   }
 1590                             		.loc 1 45 16
 1591 0573 71 28 04                		add	#4, r2, r8
 1592                             	.LVL168:
 1593 0576 EF 00                   		.balign 8,3,3
 1594                             	.L80:
  45:../src/tensorflow/lite/micro/kernels/pack.cc ****   }
 1595                             		.loc 1 45 5
 1596 0578 FE 65 84                		mov.L	[r5,r8], r4
  44:../src/tensorflow/lite/micro/kernels/pack.cc ****     outer_size *= output_dims->data[i];
 1597                             		.loc 1 44 3
 1598 057b 62 15                   		add	#1, r5
 1599                             	.LVL169:
  45:../src/tensorflow/lite/micro/kernels/pack.cc ****   }
 1600                             		.loc 1 45 5
 1601 057d 4F 49                   		mul	r4, r9
 1602                             	.LVL170:
  44:../src/tensorflow/lite/micro/kernels/pack.cc ****     outer_size *= output_dims->data[i];
 1603                             		.loc 1 44 21
 1604 057f 47 5A                   		cmp	r5, r10
 1605 0581 21 F7                   		bne	.L80
 1606                             	.LVL171:
 1607                             		.balign 8,3,1
 1608                             	.L79:
 1609                             	.LBE484:
 1610                             	.LBB485:
  48:../src/tensorflow/lite/micro/kernels/pack.cc ****     copy_size *= output_dims->data[i];
 1611                             		.loc 1 48 12
 1612 0583 62 1A                   		add	#1, r10
 1613                             	.LVL172:
 1614                             	.LBE485:
  47:../src/tensorflow/lite/micro/kernels/pack.cc ****   for (int i = axis + 1; i < dimensions; ++i) {
 1615                             		.loc 1 47 7
 1616 0585 66 1D                   		mov.L	#1, r13
 1617                             	.LBB486:
  49:../src/tensorflow/lite/micro/kernels/pack.cc ****   }
 1618                             		.loc 1 49 15
 1619 0587 71 24 04                		add	#4, r2, r4
  48:../src/tensorflow/lite/micro/kernels/pack.cc ****     copy_size *= output_dims->data[i];
 1620                             		.loc 1 48 28
 1621 058a 47 A1                   		cmp	r10, r1
 1622 058c 2A 05 38 BB 00          		ble	.L170
 1623                             	.LVL173:
 1624                             		.balign 8,3,3
 1625                             	.L81:
  49:../src/tensorflow/lite/micro/kernels/pack.cc ****   }
 1626                             		.loc 1 49 5
 1627 0591 FE 6A 45                		mov.L	[r10,r4], r5
  48:../src/tensorflow/lite/micro/kernels/pack.cc ****     copy_size *= output_dims->data[i];
 1628                             		.loc 1 48 3
 1629 0594 62 1A                   		add	#1, r10
 1630                             	.LVL174:
  49:../src/tensorflow/lite/micro/kernels/pack.cc ****   }
 1631                             		.loc 1 49 5
 1632 0596 4F 5D                   		mul	r5, r13
 1633                             	.LVL175:
  48:../src/tensorflow/lite/micro/kernels/pack.cc ****     copy_size *= output_dims->data[i];
 1634                             		.loc 1 48 28
 1635 0598 47 A1                   		cmp	r10, r1
 1636 059a 21 F7                   		bne	.L81
 1637 059c FF 31 9D                		mul	r9, r13, r1
 1638                             	.LVL176:
 1639 059f 03                      		.balign 8,3,1
 1640                             	.L84:
 1641                             	.LBE486:
 1642                             	.LBB487:
  52:../src/tensorflow/lite/micro/kernels/pack.cc ****     input_size *= input_dims->data[i];
 1643                             		.loc 1 52 35
 1644 05a0 EC 32                   		mov.L	[r3], r2
 1645                             	.LVL177:
 1646                             	.LBE487:
  51:../src/tensorflow/lite/micro/kernels/pack.cc ****   for (int i = 0; i < input_dims->size; ++i) {
 1647                             		.loc 1 51 7
 1648 05a2 66 15                   		mov.L	#1, r5
 1649                             	.LBB488:
  52:../src/tensorflow/lite/micro/kernels/pack.cc ****     input_size *= input_dims->data[i];
 1650                             		.loc 1 52 21
 1651 05a4 61 02                   		cmp	#0, r2
 1652 05a6 2B 12                   		ble	.L82
  52:../src/tensorflow/lite/micro/kernels/pack.cc ****     input_size *= input_dims->data[i];
 1653                             		.loc 1 52 12
 1654 05a8 66 0A                   		mov.L	#0, r10
 1655                             	.LVL178:
  53:../src/tensorflow/lite/micro/kernels/pack.cc ****   }
 1656                             		.loc 1 53 16
 1657 05aa 62 43                   		add	#4, r3
 1658                             	.LVL179:
 1659                             		.balign 8,3,3
 1660                             	.L83:
 1661 05ac FE 6A 34                		mov.L	[r10,r3], r4
  52:../src/tensorflow/lite/micro/kernels/pack.cc ****     input_size *= input_dims->data[i];
 1662                             		.loc 1 52 3
 1663 05af 62 1A                   		add	#1, r10
 1664                             	.LVL180:
  53:../src/tensorflow/lite/micro/kernels/pack.cc ****   }
 1665                             		.loc 1 53 16
 1666 05b1 4F 45                   		mul	r4, r5
 1667                             	.LVL181:
  52:../src/tensorflow/lite/micro/kernels/pack.cc ****     input_size *= input_dims->data[i];
 1668                             		.loc 1 52 21
 1669 05b3 47 2A                   		cmp	r2, r10
 1670 05b5 21 F7                   		bne	.L83
 1671                             	.LVL182:
 1672 05b7 03                      		.balign 8,3,1
 1673                             	.L82:
 1674                             	.LBE488:
  55:../src/tensorflow/lite/micro/kernels/pack.cc **** 
 1675                             		.loc 1 55 3
 1676 05b8 47 51                   		cmp	r5, r1
 1677 05ba 3B F0 FC                		bne	.L17
 1678                             	.LVL183:
 1679                             	.LBB489:
 1680                             	.LBB490:
  55:C:\Users\a5116938\Desktop\e2_studio_workspace\EEMBC_final\RX65N_Cloud_Kit\src/tensorflow/lite/micro/kernels\kernel_util.h **** }
 1681                             		.loc 2 55 28
 1682 05bd EC C3                   		mov.L	[r12], r3
 1683                             	.LVL184:
 1684                             	.LBE490:
 1685                             	.LBE489:
 1686                             	.LBB491:
  59:../src/tensorflow/lite/micro/kernels/pack.cc ****     const TfLiteEvalTensor* t = tflite::micro::GetEvalInput(context, node, i);
 1687                             		.loc 1 59 21
 1688 05bf A8 84                   		mov.L	8[r0], r4
 1689 05c1 61 04                   		cmp	#0, r4
 1690 05c3 2A 05 38 F3 FB          		ble	.L21
 1691 05c8 EF 4A                   		mov.L	r4, r10
 1692 05ca 4F DA                   		mul	r13, r10
 1693 05cc FD C3 DC                		shll	#3, r13, r12
 1694                             	.LVL185:
 1695 05cf EF 3B                   		mov.L	r3, r11
 1696 05d1 FD C3 A5                		shll	#3, r10, r5
 1697 05d4 A0 8D                   		mov.L	r5, 12[r0]
  59:../src/tensorflow/lite/micro/kernels/pack.cc ****     const TfLiteEvalTensor* t = tflite::micro::GetEvalInput(context, node, i);
 1698                             		.loc 1 59 12
 1699 05d6 66 08                   		mov.L	#0, r8
 1700 05d8 FC 43 67                		xchg	r6, r7
 1701                             	.LVL186:
 1702                             		.balign 8,3,1
 1703                             	.L86:
 1704                             	.LBE491:
 1705                             	.LBE504:
 1706                             	.LBE508:
  41:C:\Users\a5116938\Desktop\e2_studio_workspace\EEMBC_final\RX65N_Cloud_Kit\src/tensorflow/lite/micro/kernels\kernel_util.h **** }
 1707                             		.loc 2 41 3 is_stmt 1
 1708                             	.LBB509:
 1709                             	.LBB505:
 1710                             	.LBB501:
 1711                             	.LBB492:
 1712                             	.LBB493:
 1713                             	.LBB494:
 1714                             	.LBB495:
  33:C:\Users\a5116938\Desktop\e2_studio_workspace\EEMBC_final\RX65N_Cloud_Kit\src/tensorflow/lite/micro/kernels\kernel_util.h ****   TFLITE_DCHECK(node != nullptr);
 1715                             		.loc 2 33 3
  34:C:\Users\a5116938\Desktop\e2_studio_workspace\EEMBC_final\RX65N_Cloud_Kit\src/tensorflow/lite/micro/kernels\kernel_util.h ****   return context->GetEvalTensor(context, node->inputs->data[index]);
 1716                             		.loc 2 34 3
  35:C:\Users\a5116938\Desktop\e2_studio_workspace\EEMBC_final\RX65N_Cloud_Kit\src/tensorflow/lite/micro/kernels\kernel_util.h **** }
 1717                             		.loc 2 35 3
  35:C:\Users\a5116938\Desktop\e2_studio_workspace\EEMBC_final\RX65N_Cloud_Kit\src/tensorflow/lite/micro/kernels\kernel_util.h **** }
 1718                             		.loc 2 35 32 is_stmt 0
 1719 05db EC 75                   		mov.L	[r7], r5
 1720 05dd 71 84 01                		add	#1, r8, r4
 1721 05e0 ED 6A 15                		mov.L	84[r6], r10
 1722 05e3 EF 61                   		mov.L	r6, r1
 1723 05e5 FE 64 52                		mov.L	[r4,r5], r2
 1724 05e8 7F 1A                   		jsr	r10
 1725                             	.LVL187:
 1726                             	.LBE495:
 1727                             	.LBE494:
 1728                             	.LBE493:
 1729                             	.LBB496:
 1730                             	.LBB497:
  61:C:\Users\a5116938\Desktop\e2_studio_workspace\EEMBC_final\RX65N_Cloud_Kit\src/tensorflow/lite/micro/kernels\kernel_util.h ****   return reinterpret_cast<const T*>(tensor->data.raw);
 1731                             		.loc 2 61 3
 1732 05ea 61 01                   		cmp	#0, r1
 1733 05ec 3A BE FC                		beq	.L17
 1734                             		.loc 2 62 53
 1735 05ef EC 1A                   		mov.L	[r1], r10
 1736                             	.LVL188:
 1737                             	.LBE497:
 1738                             	.LBE496:
 1739                             	.LBB498:
  62:../src/tensorflow/lite/micro/kernels/pack.cc ****       const T* input_ptr = input_data + copy_size * k;
 1740                             		.loc 1 62 23
 1741 05f1 61 09                   		cmp	#0, r9
 1742 05f3 2B 29                   		ble	.L89
 1743 05f5 61 0D                   		cmp	#0, r13
 1744 05f7 2B 25                   		ble	.L89
 1745 05f9 EF B2                   		mov.L	r11, r2
  62:../src/tensorflow/lite/micro/kernels/pack.cc ****       const T* input_ptr = input_data + copy_size * k;
 1746                             		.loc 1 62 14
 1747 05fb 66 04                   		mov.L	#0, r4
 1748                             	.LVL189:
 1749                             		.balign 8,3,2
 1750                             	.L90:
 1751 05fd FF 21 CA                		add	r12, r10, r1
 1752 0600 EF 25                   		mov.L	r2, r5
 1753                             	.LVL190:
 1754                             		.balign 8,3,1
 1755                             	.L88:
 1756                             	.LBB499:
 1757                             	.LBB500:
  66:../src/tensorflow/lite/micro/kernels/pack.cc ****     }
 1758                             		.loc 1 66 68
 1759 0602 ED AF 01                		mov.L	4[r10], r15
  66:../src/tensorflow/lite/micro/kernels/pack.cc ****     }
 1760                             		.loc 1 66 43
 1761 0605 E0 A5                   		mov.L	[r10], [r5]
 1762 0607 62 8A                   		add	#8, r10
 1763 0609 E7 5F 01                		mov.L	r15, 4[r5]
 1764 060c 62 85                   		add	#8, r5
  66:../src/tensorflow/lite/micro/kernels/pack.cc ****     }
 1765                             		.loc 1 66 25
 1766 060e 47 1A                   		cmp	r1, r10
 1767 0610 21 F2                   		bne	.L88
 1768                             	.LBE500:
 1769                             	.LBE499:
  62:../src/tensorflow/lite/micro/kernels/pack.cc ****       const T* input_ptr = input_data + copy_size * k;
 1770                             		.loc 1 62 5
 1771 0612 62 14                   		add	#1, r4
 1772                             	.LVL191:
 1773 0614 06 89 02 03             		add	12[r0], r2
  62:../src/tensorflow/lite/micro/kernels/pack.cc ****       const T* input_ptr = input_data + copy_size * k;
 1774                             		.loc 1 62 23
 1775 0618 47 94                   		cmp	r9, r4
 1776 061a 21 E3                   		bne	.L90
 1777                             	.LVL192:
 1778                             		.balign 8,3,1
 1779                             	.L89:
 1780                             	.LBE498:
 1781                             	.LBE492:
  59:../src/tensorflow/lite/micro/kernels/pack.cc ****     const TfLiteEvalTensor* t = tflite::micro::GetEvalInput(context, node, i);
 1782                             		.loc 1 59 3
 1783 061c 62 18                   		add	#1, r8
 1784                             	.LVL193:
 1785 061e 4B CB                   		add	r12, r11
  59:../src/tensorflow/lite/micro/kernels/pack.cc ****     const TfLiteEvalTensor* t = tflite::micro::GetEvalInput(context, node, i);
 1786                             		.loc 1 59 21
 1787 0620 ED 0A 02                		mov.L	8[r0], r10
 1788 0623 47 8A                   		cmp	r8, r10
 1789 0625 21 B6                   		bne	.L86
 1790                             	.LBE501:
 1791                             	.LBE505:
 1792                             	.LBE509:
  82:../src/tensorflow/lite/micro/kernels/pack.cc ****                              data->axis);
 1793                             		.loc 1 82 29
 1794 0627 66 01                   		mov.L	#0, r1
 1795 0629 38 91 FB                		bra	.L1
 1796                             	.LVL194:
 1797                             	.L7:
 101:../src/tensorflow/lite/micro/kernels/pack.cc ****       TF_LITE_KERNEL_LOG(context, "Type '%s' is not supported by pack.",
 1798                             		.loc 1 101 5 is_stmt 1
 101:../src/tensorflow/lite/micro/kernels/pack.cc ****       TF_LITE_KERNEL_LOG(context, "Type '%s' is not supported by pack.",
 1799                             		.loc 1 101 14
 102:../src/tensorflow/lite/micro/kernels/pack.cc ****                          TfLiteTypeGetName(output->type));
 1800                             		.loc 1 102 7
 102:../src/tensorflow/lite/micro/kernels/pack.cc ****                          TfLiteTypeGetName(output->type));
 1801                             		.loc 1 102 7
 1802 062c ED 7A 05                		mov.L	20[r7], r10
 1803                             	.LVL195:
 1804 062f 05 00 00 00             		bsr	_TfLiteTypeGetName
 1805                             	.LVL196:
 1806 0633 A0 09                   		mov.L	r1, 4[r0]
 1807 0635 EF 71                   		mov.L	r7, r1
 1808 0637 F8 02 00 00 00 00       		mov.L	#.LC0, [r0]
 1809 063d 7F 1A                   		jsr	r10
 1810                             	.LVL197:
 104:../src/tensorflow/lite/micro/kernels/pack.cc ****     }
 1811                             		.loc 1 104 7
 104:../src/tensorflow/lite/micro/kernels/pack.cc ****     }
 1812                             		.loc 1 104 14 is_stmt 0
 1813 063f 66 11                   		mov.L	#1, r1
 1814                             		.loc 1 109 1
 1815 0641 3F 6D 18                		rtsd	#96, r6-r13
 1816                             	.LVL198:
 1817                             	.L166:
 1818                             	.LBB510:
 1819                             	.LBB373:
 1820                             	.LBB367:
  48:../src/tensorflow/lite/micro/kernels/pack.cc ****     copy_size *= output_dims->data[i];
 1821                             		.loc 1 48 28
 1822 0644 EF 91                   		mov.L	r9, r1
 1823                             	.LVL199:
 1824 0646 38 D2 FB                		bra	.L71
 1825                             	.LVL200:
 1826                             	.L170:
 1827                             	.LBE367:
 1828                             	.LBE373:
 1829                             	.LBE510:
 1830                             	.LBB511:
 1831                             	.LBB506:
 1832                             	.LBB502:
 1833 0649 EF 91                   		mov.L	r9, r1
 1834                             	.LVL201:
 1835 064b 38 55 FF                		bra	.L84
 1836                             	.LVL202:
 1837                             	.L169:
 1838                             	.LBE502:
 1839                             	.LBE506:
 1840                             	.LBE511:
 1841                             	.LBB512:
 1842                             	.LBB468:
 1843                             	.LBB463:
 1844 064e EF 9B                   		mov.L	r9, r11
 1845 0650 38 A8 FD                		bra	.L33
 1846                             	.LVL203:
 1847                             	.L168:
 1848                             	.LBE463:
 1849                             	.LBE468:
 1850                             	.LBE512:
 1851                             	.LBB513:
 1852                             	.LBB415:
 1853                             	.LBB411:
 1854 0653 EF 91                   		mov.L	r9, r1
 1855                             	.LVL204:
 1856 0655 38 CB FC                		bra	.L16
 1857                             	.LVL205:
 1858                             	.L164:
 1859                             	.LBE411:
 1860                             	.LBE415:
 1861                             	.LBE513:
 1862                             	.LBB514:
 1863                             	.LBB327:
 1864                             	.LBB321:
 1865 0658 EF E1                   		mov.L	r14, r1
 1866                             	.LVL206:
 1867 065a 38 28 FA                		bra	.L52
 1868                             	.LBE321:
 1869                             	.LBE327:
 1870                             	.LBE514:
 1871                             	.LFE964:
 1873 065d FC 13 00                		.section	.text._ZN6tflite3ops5micro13Register_PACKEv,"ax",@progbits
 1874                             		.global	__ZN6tflite3ops5micro13Register_PACKEv
 1876                             	__ZN6tflite3ops5micro13Register_PACKEv:
 1877                             	.LFB965:
 110:../src/tensorflow/lite/micro/kernels/pack.cc **** 
 111:../src/tensorflow/lite/micro/kernels/pack.cc **** }  // namespace
 112:../src/tensorflow/lite/micro/kernels/pack.cc **** }  // namespace pack
 113:../src/tensorflow/lite/micro/kernels/pack.cc **** 
 114:../src/tensorflow/lite/micro/kernels/pack.cc **** TfLiteRegistration Register_PACK() {
 1878                             		.loc 1 114 36 is_stmt 1
 115:../src/tensorflow/lite/micro/kernels/pack.cc ****   return {/*init=*/nullptr,
 1879                             		.loc 1 115 3
 116:../src/tensorflow/lite/micro/kernels/pack.cc ****           /*free=*/nullptr,
 117:../src/tensorflow/lite/micro/kernels/pack.cc ****           /*prepare=*/nullptr,
 118:../src/tensorflow/lite/micro/kernels/pack.cc ****           /*invoke=*/pack::Eval,
 119:../src/tensorflow/lite/micro/kernels/pack.cc ****           /*profiling_string=*/nullptr,
 120:../src/tensorflow/lite/micro/kernels/pack.cc ****           /*builtin_code=*/0,
 121:../src/tensorflow/lite/micro/kernels/pack.cc ****           /*custom_name=*/nullptr,
 122:../src/tensorflow/lite/micro/kernels/pack.cc ****           /*version=*/0};
 1880                             		.loc 1 122 24 is_stmt 0
 1881 0000 75 43 20                		mov.L	#32, r3
 1882 0003 EF F1                   		mov.L	r15, r1
 1883 0005 66 02                   		mov	#0, r2
 1884 0007 7F 88                   		sstr.b
 123:../src/tensorflow/lite/micro/kernels/pack.cc **** }
 1885                             		.loc 1 123 1
 1886 0009 EF F1                   		mov.L	r15, r1
 122:../src/tensorflow/lite/micro/kernels/pack.cc **** }
 1887                             		.loc 1 122 24
 1888 000b F9 F2 03 00 00 00 00    		mov.L	#__ZN6tflite3ops5micro4pack12_GLOBAL__N_14EvalEP13TfLiteContextP10TfLiteNode, 12[r15]
 1889                             		.loc 1 123 1
 1890 0012 02                      		rts
 1891                             	.LFE965:
 1893                             		.section	.rodata._ZN6tflite3ops5micro4pack12_GLOBAL__N_14EvalEP13TfLiteContextP10TfLiteNode.str1.1
 1894                             	.LC0:
 1895 0000 54 79 70 65 20 27 25 73 		.string	"Type '%s' is not supported by pack."
 1895      27 20 69 73 20 6E 6F 74 
 1895      20 73 75 70 70 6F 72 74 
 1895      65 64 20 62 79 20 70 61 
 1895      63 6B 2E 00 
 1954                             	.Letext0:
 1955                             		.file 3 "c:\\gcc for renesas rx 8.3.0.202004-gnurx-elf\\rx-elf\\rx-elf\\rx-elf\\include\\machine\\
 1956                             		.file 4 "c:\\gcc for renesas rx 8.3.0.202004-gnurx-elf\\rx-elf\\rx-elf\\rx-elf\\include\\sys\\_std
 1957                             		.file 5 "c:\\gcc for renesas rx 8.3.0.202004-gnurx-elf\\rx-elf\\rx-elf\\rx-elf\\include\\stdint.h"
 1958                             		.file 6 "c:\\gcc for renesas rx 8.3.0.202004-gnurx-elf\\rx-elf\\rx-elf\\lib\\gcc\\rx-elf\\8.3.0.20
 1959                             		.file 7 "C:\\Users\\a5116938\\Desktop\\e2_studio_workspace\\EEMBC_final\\RX65N_Cloud_Kit\\src/tens
 1960                             		.file 8 "C:\\Users\\a5116938\\Desktop\\e2_studio_workspace\\EEMBC_final\\RX65N_Cloud_Kit\\src/tens
 1961                             		.file 9 "c:\\gcc for renesas rx 8.3.0.202004-gnurx-elf\\rx-elf\\rx-elf\\rx-elf\\include\\c++\\8.3.
 1962                             		.file 10 "c:\\gcc for renesas rx 8.3.0.202004-gnurx-elf\\rx-elf\\rx-elf\\rx-elf\\include\\c++\\8.3
 1963                             		.file 11 "c:\\gcc for renesas rx 8.3.0.202004-gnurx-elf\\rx-elf\\rx-elf\\rx-elf\\include\\c++\\8.3
 1964                             		.file 12 "c:\\gcc for renesas rx 8.3.0.202004-gnurx-elf\\rx-elf\\rx-elf\\rx-elf\\include\\c++\\8.3
 1965                             		.file 13 "c:\\gcc for renesas rx 8.3.0.202004-gnurx-elf\\rx-elf\\rx-elf\\rx-elf\\include\\c++\\8.3
 1966                             		.file 14 "c:\\gcc for renesas rx 8.3.0.202004-gnurx-elf\\rx-elf\\rx-elf\\rx-elf\\include\\c++\\8.3
 1967                             		.file 15 "c:\\gcc for renesas rx 8.3.0.202004-gnurx-elf\\rx-elf\\rx-elf\\rx-elf\\include\\c++\\8.3
 1968                             		.file 16 "c:\\gcc for renesas rx 8.3.0.202004-gnurx-elf\\rx-elf\\rx-elf\\rx-elf\\include\\c++\\8.3
 1969                             		.file 17 "c:\\gcc for renesas rx 8.3.0.202004-gnurx-elf\\rx-elf\\rx-elf\\rx-elf\\include\\c++\\8.3
 1970                             		.file 18 "c:\\gcc for renesas rx 8.3.0.202004-gnurx-elf\\rx-elf\\rx-elf\\rx-elf\\include\\c++\\8.3
 1971                             		.file 19 "c:\\gcc for renesas rx 8.3.0.202004-gnurx-elf\\rx-elf\\rx-elf\\rx-elf\\include\\c++\\8.3
 1972                             		.file 20 "c:\\gcc for renesas rx 8.3.0.202004-gnurx-elf\\rx-elf\\rx-elf\\rx-elf\\include\\c++\\8.3
 1973                             		.file 21 "c:\\gcc for renesas rx 8.3.0.202004-gnurx-elf\\rx-elf\\rx-elf\\rx-elf\\include\\c++\\8.3
 1974                             		.file 22 "c:\\gcc for renesas rx 8.3.0.202004-gnurx-elf\\rx-elf\\rx-elf\\rx-elf\\include\\sys\\loc
 1975                             		.file 23 "c:\\gcc for renesas rx 8.3.0.202004-gnurx-elf\\rx-elf\\rx-elf\\rx-elf\\include\\sys\\_ty
 1976                             		.file 24 "c:\\gcc for renesas rx 8.3.0.202004-gnurx-elf\\rx-elf\\rx-elf\\rx-elf\\include\\sys\\ree
 1977                             		.file 25 "c:\\gcc for renesas rx 8.3.0.202004-gnurx-elf\\rx-elf\\rx-elf\\rx-elf\\include\\stdlib.h
 1978                             		.file 26 "c:\\gcc for renesas rx 8.3.0.202004-gnurx-elf\\rx-elf\\rx-elf\\rx-elf\\include\\string.h
 1979                             		.file 27 "c:\\gcc for renesas rx 8.3.0.202004-gnurx-elf\\rx-elf\\rx-elf\\rx-elf\\include\\stdio.h"
 1980                             		.file 28 "C:\\Users\\a5116938\\Desktop\\e2_studio_workspace\\EEMBC_final\\RX65N_Cloud_Kit\\src/ten
 1981                             		.file 29 "<built-in>"
