   1                             		.file	"pad.cc"
   2                             		.section P,"ax"
   3                             	.Ltext0:
   4                             		.section	.text._ZN6tflite3ops5micro3pad4InitEP13TfLiteContextPKcm,"ax",@progbits
   5                             		.global	__ZN6tflite3ops5micro3pad4InitEP13TfLiteContextPKcm
   7                             	__ZN6tflite3ops5micro3pad4InitEP13TfLiteContextPKcm:
   8                             	.LFB2852:
   9                             		.file 1 "../src/tensorflow/lite/micro/kernels/pad.cc"
   1:../src/tensorflow/lite/micro/kernels/pad.cc **** /* Copyright 2019 The TensorFlow Authors. All Rights Reserved.
   2:../src/tensorflow/lite/micro/kernels/pad.cc **** 
   3:../src/tensorflow/lite/micro/kernels/pad.cc **** Licensed under the Apache License, Version 2.0 (the "License");
   4:../src/tensorflow/lite/micro/kernels/pad.cc **** you may not use this file except in compliance with the License.
   5:../src/tensorflow/lite/micro/kernels/pad.cc **** You may obtain a copy of the License at
   6:../src/tensorflow/lite/micro/kernels/pad.cc **** 
   7:../src/tensorflow/lite/micro/kernels/pad.cc ****     http://www.apache.org/licenses/LICENSE-2.0
   8:../src/tensorflow/lite/micro/kernels/pad.cc **** 
   9:../src/tensorflow/lite/micro/kernels/pad.cc **** Unless required by applicable law or agreed to in writing, software
  10:../src/tensorflow/lite/micro/kernels/pad.cc **** distributed under the License is distributed on an "AS IS" BASIS,
  11:../src/tensorflow/lite/micro/kernels/pad.cc **** WITHOUT WARRANTIES OR CONDITIONS OF ANY KIND, either express or implied.
  12:../src/tensorflow/lite/micro/kernels/pad.cc **** See the License for the specific language governing permissions and
  13:../src/tensorflow/lite/micro/kernels/pad.cc **** limitations under the License.
  14:../src/tensorflow/lite/micro/kernels/pad.cc **** ==============================================================================*/
  15:../src/tensorflow/lite/micro/kernels/pad.cc **** #include "tensorflow/lite/kernels/internal/reference/pad.h"
  16:../src/tensorflow/lite/micro/kernels/pad.cc **** 
  17:../src/tensorflow/lite/micro/kernels/pad.cc **** #include <string.h>
  18:../src/tensorflow/lite/micro/kernels/pad.cc **** 
  19:../src/tensorflow/lite/micro/kernels/pad.cc **** #include "tensorflow/lite/c/builtin_op_data.h"
  20:../src/tensorflow/lite/micro/kernels/pad.cc **** #include "tensorflow/lite/c/common.h"
  21:../src/tensorflow/lite/micro/kernels/pad.cc **** #include "tensorflow/lite/kernels/internal/portable_tensor.h"
  22:../src/tensorflow/lite/micro/kernels/pad.cc **** #include "tensorflow/lite/kernels/internal/types.h"
  23:../src/tensorflow/lite/micro/kernels/pad.cc **** #include "tensorflow/lite/kernels/kernel_util.h"
  24:../src/tensorflow/lite/micro/kernels/pad.cc **** #include "tensorflow/lite/kernels/op_macros.h"
  25:../src/tensorflow/lite/micro/kernels/pad.cc **** #include "tensorflow/lite/micro/kernels/kernel_util.h"
  26:../src/tensorflow/lite/micro/kernels/pad.cc **** 
  27:../src/tensorflow/lite/micro/kernels/pad.cc **** namespace tflite {
  28:../src/tensorflow/lite/micro/kernels/pad.cc **** namespace ops {
  29:../src/tensorflow/lite/micro/kernels/pad.cc **** namespace micro {
  30:../src/tensorflow/lite/micro/kernels/pad.cc **** namespace pad {
  31:../src/tensorflow/lite/micro/kernels/pad.cc **** namespace {
  32:../src/tensorflow/lite/micro/kernels/pad.cc **** 
  33:../src/tensorflow/lite/micro/kernels/pad.cc **** struct OpData {
  34:../src/tensorflow/lite/micro/kernels/pad.cc ****   PadParams params;
  35:../src/tensorflow/lite/micro/kernels/pad.cc ****   int32_t output_zero_point;
  36:../src/tensorflow/lite/micro/kernels/pad.cc **** };
  37:../src/tensorflow/lite/micro/kernels/pad.cc **** 
  38:../src/tensorflow/lite/micro/kernels/pad.cc **** }  // namespace
  39:../src/tensorflow/lite/micro/kernels/pad.cc **** 
  40:../src/tensorflow/lite/micro/kernels/pad.cc **** void* Init(TfLiteContext* context, const char* buffer, size_t length) {
  10                             		.loc 1 40 71
  11                             	.LVL0:
  41:../src/tensorflow/lite/micro/kernels/pad.cc ****   TFLITE_DCHECK(context->AllocatePersistentBuffer != nullptr);
  12                             		.loc 1 41 3
  13 0000 AB 95                   		mov.L	56[r1], r5
  14 0002 61 05                   		cmp	#0, r5
  15 0004 17                      		beq	.L4
  42:../src/tensorflow/lite/micro/kernels/pad.cc ****   return context->AllocatePersistentBuffer(context, sizeof(OpData));
  16                             		.loc 1 42 3
  17                             		.loc 1 42 43 is_stmt 0
  18 0005 75 42 30                		mov.L	#48, r2
  19                             	.LVL1:
  20 0008 7F 15                   		jsr	r5
  21                             	.LVL2:
  43:../src/tensorflow/lite/micro/kernels/pad.cc **** }
  22                             		.loc 1 43 1
  23 000a 02                      		rts
  24                             	.LVL3:
  25                             	.L4:
  41:../src/tensorflow/lite/micro/kernels/pad.cc ****   TFLITE_DCHECK(context->AllocatePersistentBuffer != nullptr);
  26                             		.loc 1 41 3 discriminator 1
  27 000b 05 00 00 00             		bsr	_abort
  28                             	.LVL4:
  29                             	.LFE2852:
  31                             		.section	.text._ZN6tflite3ops5micro3pad7PrepareEP13TfLiteContextP10TfLiteNode,"ax",@progbits
  32                             		.global	__ZN6tflite3ops5micro3pad7PrepareEP13TfLiteContextP10TfLiteNode
  34                             	__ZN6tflite3ops5micro3pad7PrepareEP13TfLiteContextP10TfLiteNode:
  35                             	.LFB2853:
  44:../src/tensorflow/lite/micro/kernels/pad.cc **** 
  45:../src/tensorflow/lite/micro/kernels/pad.cc **** TfLiteStatus Prepare(TfLiteContext* context, TfLiteNode* node) {
  36                             		.loc 1 45 64 is_stmt 1
  37                             	.LVL5:
  38 0000 6E 6D                   		pushm	r6-r13
  39                             	.LCFI0:
  40 0002 71 00 C0                		add	#-64, r0
  41                             	.LCFI1:
  46:../src/tensorflow/lite/micro/kernels/pad.cc ****   TFLITE_DCHECK(node->user_data != nullptr);
  42                             		.loc 1 46 3
  43 0005 A9 26                   		mov.L	16[r2], r6
  44 0007 61 06                   		cmp	#0, r6
  45 0009 3A FA 05                		beq	.L104
  46 000c EF 2B                   		mov.L	r2, r11
  47 000e EF 17                   		mov.L	r1, r7
  47:../src/tensorflow/lite/micro/kernels/pad.cc ****   OpData* data = static_cast<OpData*>(node->user_data);
  48                             		.loc 1 47 3
  49                             	.LVL6:
  48:../src/tensorflow/lite/micro/kernels/pad.cc **** 
  49:../src/tensorflow/lite/micro/kernels/pad.cc ****   TF_LITE_ENSURE(context, NumInputs(node) == 2 || NumInputs(node) == 3);
  50                             		.loc 1 49 3
  51                             		.loc 1 49 3
  52                             	.LBB386:
  53                             	.LBB387:
  54                             		.file 2 "C:\\Users\\a5116938\\Desktop\\e2_studio_workspace\\EEMBC_final\\RX65N_Cloud_Kit\\src/tens
   1:C:\Users\a5116938\Desktop\e2_studio_workspace\EEMBC_final\RX65N_Cloud_Kit\src/tensorflow/lite/kernels\kernel_util.h **** /* Copyright 2017 The TensorFlow Authors. All Rights Reserved.
   2:C:\Users\a5116938\Desktop\e2_studio_workspace\EEMBC_final\RX65N_Cloud_Kit\src/tensorflow/lite/kernels\kernel_util.h **** 
   3:C:\Users\a5116938\Desktop\e2_studio_workspace\EEMBC_final\RX65N_Cloud_Kit\src/tensorflow/lite/kernels\kernel_util.h **** Licensed under the Apache License, Version 2.0 (the "License");
   4:C:\Users\a5116938\Desktop\e2_studio_workspace\EEMBC_final\RX65N_Cloud_Kit\src/tensorflow/lite/kernels\kernel_util.h **** you may not use this file except in compliance with the License.
   5:C:\Users\a5116938\Desktop\e2_studio_workspace\EEMBC_final\RX65N_Cloud_Kit\src/tensorflow/lite/kernels\kernel_util.h **** You may obtain a copy of the License at
   6:C:\Users\a5116938\Desktop\e2_studio_workspace\EEMBC_final\RX65N_Cloud_Kit\src/tensorflow/lite/kernels\kernel_util.h **** 
   7:C:\Users\a5116938\Desktop\e2_studio_workspace\EEMBC_final\RX65N_Cloud_Kit\src/tensorflow/lite/kernels\kernel_util.h ****     http://www.apache.org/licenses/LICENSE-2.0
   8:C:\Users\a5116938\Desktop\e2_studio_workspace\EEMBC_final\RX65N_Cloud_Kit\src/tensorflow/lite/kernels\kernel_util.h **** 
   9:C:\Users\a5116938\Desktop\e2_studio_workspace\EEMBC_final\RX65N_Cloud_Kit\src/tensorflow/lite/kernels\kernel_util.h **** Unless required by applicable law or agreed to in writing, software
  10:C:\Users\a5116938\Desktop\e2_studio_workspace\EEMBC_final\RX65N_Cloud_Kit\src/tensorflow/lite/kernels\kernel_util.h **** distributed under the License is distributed on an "AS IS" BASIS,
  11:C:\Users\a5116938\Desktop\e2_studio_workspace\EEMBC_final\RX65N_Cloud_Kit\src/tensorflow/lite/kernels\kernel_util.h **** WITHOUT WARRANTIES OR CONDITIONS OF ANY KIND, either express or implied.
  12:C:\Users\a5116938\Desktop\e2_studio_workspace\EEMBC_final\RX65N_Cloud_Kit\src/tensorflow/lite/kernels\kernel_util.h **** See the License for the specific language governing permissions and
  13:C:\Users\a5116938\Desktop\e2_studio_workspace\EEMBC_final\RX65N_Cloud_Kit\src/tensorflow/lite/kernels\kernel_util.h **** limitations under the License.
  14:C:\Users\a5116938\Desktop\e2_studio_workspace\EEMBC_final\RX65N_Cloud_Kit\src/tensorflow/lite/kernels\kernel_util.h **** ==============================================================================*/
  15:C:\Users\a5116938\Desktop\e2_studio_workspace\EEMBC_final\RX65N_Cloud_Kit\src/tensorflow/lite/kernels\kernel_util.h **** #ifndef TENSORFLOW_LITE_KERNELS_KERNEL_UTIL_H_
  16:C:\Users\a5116938\Desktop\e2_studio_workspace\EEMBC_final\RX65N_Cloud_Kit\src/tensorflow/lite/kernels\kernel_util.h **** #define TENSORFLOW_LITE_KERNELS_KERNEL_UTIL_H_
  17:C:\Users\a5116938\Desktop\e2_studio_workspace\EEMBC_final\RX65N_Cloud_Kit\src/tensorflow/lite/kernels\kernel_util.h **** 
  18:C:\Users\a5116938\Desktop\e2_studio_workspace\EEMBC_final\RX65N_Cloud_Kit\src/tensorflow/lite/kernels\kernel_util.h **** #include <stdint.h>
  19:C:\Users\a5116938\Desktop\e2_studio_workspace\EEMBC_final\RX65N_Cloud_Kit\src/tensorflow/lite/kernels\kernel_util.h **** 
  20:C:\Users\a5116938\Desktop\e2_studio_workspace\EEMBC_final\RX65N_Cloud_Kit\src/tensorflow/lite/kernels\kernel_util.h **** #include <limits>
  21:C:\Users\a5116938\Desktop\e2_studio_workspace\EEMBC_final\RX65N_Cloud_Kit\src/tensorflow/lite/kernels\kernel_util.h **** 
  22:C:\Users\a5116938\Desktop\e2_studio_workspace\EEMBC_final\RX65N_Cloud_Kit\src/tensorflow/lite/kernels\kernel_util.h **** #include "tensorflow/lite/c/builtin_op_data.h"
  23:C:\Users\a5116938\Desktop\e2_studio_workspace\EEMBC_final\RX65N_Cloud_Kit\src/tensorflow/lite/kernels\kernel_util.h **** #include "tensorflow/lite/c/common.h"
  24:C:\Users\a5116938\Desktop\e2_studio_workspace\EEMBC_final\RX65N_Cloud_Kit\src/tensorflow/lite/kernels\kernel_util.h **** 
  25:C:\Users\a5116938\Desktop\e2_studio_workspace\EEMBC_final\RX65N_Cloud_Kit\src/tensorflow/lite/kernels\kernel_util.h **** namespace tflite {
  26:C:\Users\a5116938\Desktop\e2_studio_workspace\EEMBC_final\RX65N_Cloud_Kit\src/tensorflow/lite/kernels\kernel_util.h **** 
  27:C:\Users\a5116938\Desktop\e2_studio_workspace\EEMBC_final\RX65N_Cloud_Kit\src/tensorflow/lite/kernels\kernel_util.h **** // A fair number of functions in this header have historically been inline.
  28:C:\Users\a5116938\Desktop\e2_studio_workspace\EEMBC_final\RX65N_Cloud_Kit\src/tensorflow/lite/kernels\kernel_util.h **** // It is ok to change functions to not be inline if the latency with
  29:C:\Users\a5116938\Desktop\e2_studio_workspace\EEMBC_final\RX65N_Cloud_Kit\src/tensorflow/lite/kernels\kernel_util.h **** // benchmark_model for MobileNet + MobileBERT is unaffected. If such a change is
  30:C:\Users\a5116938\Desktop\e2_studio_workspace\EEMBC_final\RX65N_Cloud_Kit\src/tensorflow/lite/kernels\kernel_util.h **** // made, move the newly non-inlined function declarations to the top of this
  31:C:\Users\a5116938\Desktop\e2_studio_workspace\EEMBC_final\RX65N_Cloud_Kit\src/tensorflow/lite/kernels\kernel_util.h **** // header file.
  32:C:\Users\a5116938\Desktop\e2_studio_workspace\EEMBC_final\RX65N_Cloud_Kit\src/tensorflow/lite/kernels\kernel_util.h **** 
  33:C:\Users\a5116938\Desktop\e2_studio_workspace\EEMBC_final\RX65N_Cloud_Kit\src/tensorflow/lite/kernels\kernel_util.h **** // Note: You must check if result is not null:
  34:C:\Users\a5116938\Desktop\e2_studio_workspace\EEMBC_final\RX65N_Cloud_Kit\src/tensorflow/lite/kernels\kernel_util.h **** //
  35:C:\Users\a5116938\Desktop\e2_studio_workspace\EEMBC_final\RX65N_Cloud_Kit\src/tensorflow/lite/kernels\kernel_util.h **** //   TfLiteTensor* my_tensor = GetInput(context, node, kMyTensorIdx);
  36:C:\Users\a5116938\Desktop\e2_studio_workspace\EEMBC_final\RX65N_Cloud_Kit\src/tensorflow/lite/kernels\kernel_util.h **** //   TF_LITE_ENSURE(context, my_tensor != nullptr);
  37:C:\Users\a5116938\Desktop\e2_studio_workspace\EEMBC_final\RX65N_Cloud_Kit\src/tensorflow/lite/kernels\kernel_util.h **** //
  38:C:\Users\a5116938\Desktop\e2_studio_workspace\EEMBC_final\RX65N_Cloud_Kit\src/tensorflow/lite/kernels\kernel_util.h **** // This is because the index might point to the optional tensor constant
  39:C:\Users\a5116938\Desktop\e2_studio_workspace\EEMBC_final\RX65N_Cloud_Kit\src/tensorflow/lite/kernels\kernel_util.h **** // (kTfLiteOptionalTensor) in which case there is no tensor to return.
  40:C:\Users\a5116938\Desktop\e2_studio_workspace\EEMBC_final\RX65N_Cloud_Kit\src/tensorflow/lite/kernels\kernel_util.h **** const TfLiteTensor* GetInput(const TfLiteContext* context,
  41:C:\Users\a5116938\Desktop\e2_studio_workspace\EEMBC_final\RX65N_Cloud_Kit\src/tensorflow/lite/kernels\kernel_util.h ****                              const TfLiteNode* node, int index);
  42:C:\Users\a5116938\Desktop\e2_studio_workspace\EEMBC_final\RX65N_Cloud_Kit\src/tensorflow/lite/kernels\kernel_util.h **** 
  43:C:\Users\a5116938\Desktop\e2_studio_workspace\EEMBC_final\RX65N_Cloud_Kit\src/tensorflow/lite/kernels\kernel_util.h **** // Same as `GetInput` but returns boolean and uses output argument for tensor.
  44:C:\Users\a5116938\Desktop\e2_studio_workspace\EEMBC_final\RX65N_Cloud_Kit\src/tensorflow/lite/kernels\kernel_util.h **** //
  45:C:\Users\a5116938\Desktop\e2_studio_workspace\EEMBC_final\RX65N_Cloud_Kit\src/tensorflow/lite/kernels\kernel_util.h **** //   TfLiteTensor* my_tensor;
  46:C:\Users\a5116938\Desktop\e2_studio_workspace\EEMBC_final\RX65N_Cloud_Kit\src/tensorflow/lite/kernels\kernel_util.h **** //   TF_LITE_ENSURE_OK(context,
  47:C:\Users\a5116938\Desktop\e2_studio_workspace\EEMBC_final\RX65N_Cloud_Kit\src/tensorflow/lite/kernels\kernel_util.h **** //                     GetInputSafe(context, node, kMyTensorIdx, &my_tensor));
  48:C:\Users\a5116938\Desktop\e2_studio_workspace\EEMBC_final\RX65N_Cloud_Kit\src/tensorflow/lite/kernels\kernel_util.h **** //   // can use my_tensor directly from here onwards, it is not nullptr
  49:C:\Users\a5116938\Desktop\e2_studio_workspace\EEMBC_final\RX65N_Cloud_Kit\src/tensorflow/lite/kernels\kernel_util.h **** //
  50:C:\Users\a5116938\Desktop\e2_studio_workspace\EEMBC_final\RX65N_Cloud_Kit\src/tensorflow/lite/kernels\kernel_util.h **** // Should be used in cases where the binary size is too large.
  51:C:\Users\a5116938\Desktop\e2_studio_workspace\EEMBC_final\RX65N_Cloud_Kit\src/tensorflow/lite/kernels\kernel_util.h **** TfLiteStatus GetInputSafe(const TfLiteContext* context, const TfLiteNode* node,
  52:C:\Users\a5116938\Desktop\e2_studio_workspace\EEMBC_final\RX65N_Cloud_Kit\src/tensorflow/lite/kernels\kernel_util.h ****                           int index, const TfLiteTensor** tensor);
  53:C:\Users\a5116938\Desktop\e2_studio_workspace\EEMBC_final\RX65N_Cloud_Kit\src/tensorflow/lite/kernels\kernel_util.h **** 
  54:C:\Users\a5116938\Desktop\e2_studio_workspace\EEMBC_final\RX65N_Cloud_Kit\src/tensorflow/lite/kernels\kernel_util.h **** // Note: You must check if result is not null:
  55:C:\Users\a5116938\Desktop\e2_studio_workspace\EEMBC_final\RX65N_Cloud_Kit\src/tensorflow/lite/kernels\kernel_util.h **** //
  56:C:\Users\a5116938\Desktop\e2_studio_workspace\EEMBC_final\RX65N_Cloud_Kit\src/tensorflow/lite/kernels\kernel_util.h **** //   TfLiteTensor* my_tensor = GetVariableInput(context, node, kMyTensorIdx);
  57:C:\Users\a5116938\Desktop\e2_studio_workspace\EEMBC_final\RX65N_Cloud_Kit\src/tensorflow/lite/kernels\kernel_util.h **** //   TF_LITE_ENSURE(context, my_tensor != nullptr);
  58:C:\Users\a5116938\Desktop\e2_studio_workspace\EEMBC_final\RX65N_Cloud_Kit\src/tensorflow/lite/kernels\kernel_util.h **** //
  59:C:\Users\a5116938\Desktop\e2_studio_workspace\EEMBC_final\RX65N_Cloud_Kit\src/tensorflow/lite/kernels\kernel_util.h **** // This is because the index might point to the optional tensor constant
  60:C:\Users\a5116938\Desktop\e2_studio_workspace\EEMBC_final\RX65N_Cloud_Kit\src/tensorflow/lite/kernels\kernel_util.h **** // (kTfLiteOptionalTensor) in which case there is no tensor to return.
  61:C:\Users\a5116938\Desktop\e2_studio_workspace\EEMBC_final\RX65N_Cloud_Kit\src/tensorflow/lite/kernels\kernel_util.h **** TfLiteTensor* GetVariableInput(TfLiteContext* context, const TfLiteNode* node,
  62:C:\Users\a5116938\Desktop\e2_studio_workspace\EEMBC_final\RX65N_Cloud_Kit\src/tensorflow/lite/kernels\kernel_util.h ****                                int index);
  63:C:\Users\a5116938\Desktop\e2_studio_workspace\EEMBC_final\RX65N_Cloud_Kit\src/tensorflow/lite/kernels\kernel_util.h **** 
  64:C:\Users\a5116938\Desktop\e2_studio_workspace\EEMBC_final\RX65N_Cloud_Kit\src/tensorflow/lite/kernels\kernel_util.h **** // Note: You must check if result is not null:
  65:C:\Users\a5116938\Desktop\e2_studio_workspace\EEMBC_final\RX65N_Cloud_Kit\src/tensorflow/lite/kernels\kernel_util.h **** //
  66:C:\Users\a5116938\Desktop\e2_studio_workspace\EEMBC_final\RX65N_Cloud_Kit\src/tensorflow/lite/kernels\kernel_util.h **** //   TfLiteTensor* my_tensor = GetOutput(context, node, kMyTensorIdx);
  67:C:\Users\a5116938\Desktop\e2_studio_workspace\EEMBC_final\RX65N_Cloud_Kit\src/tensorflow/lite/kernels\kernel_util.h **** //   TF_LITE_ENSURE(context, my_tensor != nullptr);
  68:C:\Users\a5116938\Desktop\e2_studio_workspace\EEMBC_final\RX65N_Cloud_Kit\src/tensorflow/lite/kernels\kernel_util.h **** //
  69:C:\Users\a5116938\Desktop\e2_studio_workspace\EEMBC_final\RX65N_Cloud_Kit\src/tensorflow/lite/kernels\kernel_util.h **** // This is because the index might point to the optional tensor constant
  70:C:\Users\a5116938\Desktop\e2_studio_workspace\EEMBC_final\RX65N_Cloud_Kit\src/tensorflow/lite/kernels\kernel_util.h **** // (kTfLiteOptionalTensor) in which case there is no tensor to return.
  71:C:\Users\a5116938\Desktop\e2_studio_workspace\EEMBC_final\RX65N_Cloud_Kit\src/tensorflow/lite/kernels\kernel_util.h **** TfLiteTensor* GetOutput(TfLiteContext* context, const TfLiteNode* node,
  72:C:\Users\a5116938\Desktop\e2_studio_workspace\EEMBC_final\RX65N_Cloud_Kit\src/tensorflow/lite/kernels\kernel_util.h ****                         int index);
  73:C:\Users\a5116938\Desktop\e2_studio_workspace\EEMBC_final\RX65N_Cloud_Kit\src/tensorflow/lite/kernels\kernel_util.h **** 
  74:C:\Users\a5116938\Desktop\e2_studio_workspace\EEMBC_final\RX65N_Cloud_Kit\src/tensorflow/lite/kernels\kernel_util.h **** // Same as `GetOutput` but returns boolean and uses output argument for tensor.
  75:C:\Users\a5116938\Desktop\e2_studio_workspace\EEMBC_final\RX65N_Cloud_Kit\src/tensorflow/lite/kernels\kernel_util.h **** //
  76:C:\Users\a5116938\Desktop\e2_studio_workspace\EEMBC_final\RX65N_Cloud_Kit\src/tensorflow/lite/kernels\kernel_util.h **** //   TfLiteTensor* my_tensor;
  77:C:\Users\a5116938\Desktop\e2_studio_workspace\EEMBC_final\RX65N_Cloud_Kit\src/tensorflow/lite/kernels\kernel_util.h **** //   TF_LITE_ENSURE_OK(context,
  78:C:\Users\a5116938\Desktop\e2_studio_workspace\EEMBC_final\RX65N_Cloud_Kit\src/tensorflow/lite/kernels\kernel_util.h **** //                     GetOutputSafe(context, node, kMyTensorIdx, &my_tensor));
  79:C:\Users\a5116938\Desktop\e2_studio_workspace\EEMBC_final\RX65N_Cloud_Kit\src/tensorflow/lite/kernels\kernel_util.h **** //   // can use my_tensor directly from here onwards, it is not nullptr
  80:C:\Users\a5116938\Desktop\e2_studio_workspace\EEMBC_final\RX65N_Cloud_Kit\src/tensorflow/lite/kernels\kernel_util.h **** //
  81:C:\Users\a5116938\Desktop\e2_studio_workspace\EEMBC_final\RX65N_Cloud_Kit\src/tensorflow/lite/kernels\kernel_util.h **** // Should be used in cases where the binary size is too large.
  82:C:\Users\a5116938\Desktop\e2_studio_workspace\EEMBC_final\RX65N_Cloud_Kit\src/tensorflow/lite/kernels\kernel_util.h **** TfLiteStatus GetOutputSafe(const TfLiteContext* context, const TfLiteNode* node,
  83:C:\Users\a5116938\Desktop\e2_studio_workspace\EEMBC_final\RX65N_Cloud_Kit\src/tensorflow/lite/kernels\kernel_util.h ****                            int index, TfLiteTensor** tensor);
  84:C:\Users\a5116938\Desktop\e2_studio_workspace\EEMBC_final\RX65N_Cloud_Kit\src/tensorflow/lite/kernels\kernel_util.h **** 
  85:C:\Users\a5116938\Desktop\e2_studio_workspace\EEMBC_final\RX65N_Cloud_Kit\src/tensorflow/lite/kernels\kernel_util.h **** // Note: You must check if result is not null:
  86:C:\Users\a5116938\Desktop\e2_studio_workspace\EEMBC_final\RX65N_Cloud_Kit\src/tensorflow/lite/kernels\kernel_util.h **** //
  87:C:\Users\a5116938\Desktop\e2_studio_workspace\EEMBC_final\RX65N_Cloud_Kit\src/tensorflow/lite/kernels\kernel_util.h **** //   TfLiteTensor* my_tensor = GetOptionalInputTensor(context, node, kIdx);
  88:C:\Users\a5116938\Desktop\e2_studio_workspace\EEMBC_final\RX65N_Cloud_Kit\src/tensorflow/lite/kernels\kernel_util.h **** //   TF_LITE_ENSURE(context, my_tensor != nullptr);
  89:C:\Users\a5116938\Desktop\e2_studio_workspace\EEMBC_final\RX65N_Cloud_Kit\src/tensorflow/lite/kernels\kernel_util.h **** //
  90:C:\Users\a5116938\Desktop\e2_studio_workspace\EEMBC_final\RX65N_Cloud_Kit\src/tensorflow/lite/kernels\kernel_util.h **** // This is because the index might point to the optional tensor constant
  91:C:\Users\a5116938\Desktop\e2_studio_workspace\EEMBC_final\RX65N_Cloud_Kit\src/tensorflow/lite/kernels\kernel_util.h **** // (kTfLiteOptionalTensor) in which case there is no tensor to return.
  92:C:\Users\a5116938\Desktop\e2_studio_workspace\EEMBC_final\RX65N_Cloud_Kit\src/tensorflow/lite/kernels\kernel_util.h **** //
  93:C:\Users\a5116938\Desktop\e2_studio_workspace\EEMBC_final\RX65N_Cloud_Kit\src/tensorflow/lite/kernels\kernel_util.h **** // Deprecated. GetInput has the same functionality.
  94:C:\Users\a5116938\Desktop\e2_studio_workspace\EEMBC_final\RX65N_Cloud_Kit\src/tensorflow/lite/kernels\kernel_util.h **** const TfLiteTensor* GetOptionalInputTensor(const TfLiteContext* context,
  95:C:\Users\a5116938\Desktop\e2_studio_workspace\EEMBC_final\RX65N_Cloud_Kit\src/tensorflow/lite/kernels\kernel_util.h ****                                            const TfLiteNode* node, int index);
  96:C:\Users\a5116938\Desktop\e2_studio_workspace\EEMBC_final\RX65N_Cloud_Kit\src/tensorflow/lite/kernels\kernel_util.h **** 
  97:C:\Users\a5116938\Desktop\e2_studio_workspace\EEMBC_final\RX65N_Cloud_Kit\src/tensorflow/lite/kernels\kernel_util.h **** #ifndef TF_LITE_STATIC_MEMORY
  98:C:\Users\a5116938\Desktop\e2_studio_workspace\EEMBC_final\RX65N_Cloud_Kit\src/tensorflow/lite/kernels\kernel_util.h **** // Note: You must check if result is not null:
  99:C:\Users\a5116938\Desktop\e2_studio_workspace\EEMBC_final\RX65N_Cloud_Kit\src/tensorflow/lite/kernels\kernel_util.h **** //
 100:C:\Users\a5116938\Desktop\e2_studio_workspace\EEMBC_final\RX65N_Cloud_Kit\src/tensorflow/lite/kernels\kernel_util.h **** //   TfLiteTensor* my_tensor = GetTemporary(context, node, kMyTensorIdx);
 101:C:\Users\a5116938\Desktop\e2_studio_workspace\EEMBC_final\RX65N_Cloud_Kit\src/tensorflow/lite/kernels\kernel_util.h **** //   TF_LITE_ENSURE(context, my_tensor != nullptr);
 102:C:\Users\a5116938\Desktop\e2_studio_workspace\EEMBC_final\RX65N_Cloud_Kit\src/tensorflow/lite/kernels\kernel_util.h **** //
 103:C:\Users\a5116938\Desktop\e2_studio_workspace\EEMBC_final\RX65N_Cloud_Kit\src/tensorflow/lite/kernels\kernel_util.h **** // This is because the index might point to the optional tensor constant
 104:C:\Users\a5116938\Desktop\e2_studio_workspace\EEMBC_final\RX65N_Cloud_Kit\src/tensorflow/lite/kernels\kernel_util.h **** // (kTfLiteOptionalTensor) in which case there is no tensor to return.
 105:C:\Users\a5116938\Desktop\e2_studio_workspace\EEMBC_final\RX65N_Cloud_Kit\src/tensorflow/lite/kernels\kernel_util.h **** TfLiteTensor* GetTemporary(TfLiteContext* context, const TfLiteNode* node,
 106:C:\Users\a5116938\Desktop\e2_studio_workspace\EEMBC_final\RX65N_Cloud_Kit\src/tensorflow/lite/kernels\kernel_util.h ****                            int index);
 107:C:\Users\a5116938\Desktop\e2_studio_workspace\EEMBC_final\RX65N_Cloud_Kit\src/tensorflow/lite/kernels\kernel_util.h **** 
 108:C:\Users\a5116938\Desktop\e2_studio_workspace\EEMBC_final\RX65N_Cloud_Kit\src/tensorflow/lite/kernels\kernel_util.h **** // Same as `GetTemporary` but returns boolean and uses output argument for
 109:C:\Users\a5116938\Desktop\e2_studio_workspace\EEMBC_final\RX65N_Cloud_Kit\src/tensorflow/lite/kernels\kernel_util.h **** // tensor.
 110:C:\Users\a5116938\Desktop\e2_studio_workspace\EEMBC_final\RX65N_Cloud_Kit\src/tensorflow/lite/kernels\kernel_util.h **** //
 111:C:\Users\a5116938\Desktop\e2_studio_workspace\EEMBC_final\RX65N_Cloud_Kit\src/tensorflow/lite/kernels\kernel_util.h **** //   TfLiteTensor* my_tensor;
 112:C:\Users\a5116938\Desktop\e2_studio_workspace\EEMBC_final\RX65N_Cloud_Kit\src/tensorflow/lite/kernels\kernel_util.h **** //   TF_LITE_ENSURE_OK(context,
 113:C:\Users\a5116938\Desktop\e2_studio_workspace\EEMBC_final\RX65N_Cloud_Kit\src/tensorflow/lite/kernels\kernel_util.h **** //                     GetTemporarySafe(context, node, kMyTensorIdx,
 114:C:\Users\a5116938\Desktop\e2_studio_workspace\EEMBC_final\RX65N_Cloud_Kit\src/tensorflow/lite/kernels\kernel_util.h **** //                     &my_tensor));
 115:C:\Users\a5116938\Desktop\e2_studio_workspace\EEMBC_final\RX65N_Cloud_Kit\src/tensorflow/lite/kernels\kernel_util.h **** //   // can use my_tensor directly from here onwards, it is not nullptr
 116:C:\Users\a5116938\Desktop\e2_studio_workspace\EEMBC_final\RX65N_Cloud_Kit\src/tensorflow/lite/kernels\kernel_util.h **** //
 117:C:\Users\a5116938\Desktop\e2_studio_workspace\EEMBC_final\RX65N_Cloud_Kit\src/tensorflow/lite/kernels\kernel_util.h **** // Should be used in cases where the binary size is too large.
 118:C:\Users\a5116938\Desktop\e2_studio_workspace\EEMBC_final\RX65N_Cloud_Kit\src/tensorflow/lite/kernels\kernel_util.h **** TfLiteStatus GetTemporarySafe(const TfLiteContext* context,
 119:C:\Users\a5116938\Desktop\e2_studio_workspace\EEMBC_final\RX65N_Cloud_Kit\src/tensorflow/lite/kernels\kernel_util.h ****                               const TfLiteNode* node, int index,
 120:C:\Users\a5116938\Desktop\e2_studio_workspace\EEMBC_final\RX65N_Cloud_Kit\src/tensorflow/lite/kernels\kernel_util.h ****                               TfLiteTensor** tensor);
 121:C:\Users\a5116938\Desktop\e2_studio_workspace\EEMBC_final\RX65N_Cloud_Kit\src/tensorflow/lite/kernels\kernel_util.h **** 
 122:C:\Users\a5116938\Desktop\e2_studio_workspace\EEMBC_final\RX65N_Cloud_Kit\src/tensorflow/lite/kernels\kernel_util.h **** // Note: You must check if result is not null:
 123:C:\Users\a5116938\Desktop\e2_studio_workspace\EEMBC_final\RX65N_Cloud_Kit\src/tensorflow/lite/kernels\kernel_util.h **** //
 124:C:\Users\a5116938\Desktop\e2_studio_workspace\EEMBC_final\RX65N_Cloud_Kit\src/tensorflow/lite/kernels\kernel_util.h **** //   TfLiteTensor* my_tensor = GetIntermediates(context, node, kMyTensorIdx);
 125:C:\Users\a5116938\Desktop\e2_studio_workspace\EEMBC_final\RX65N_Cloud_Kit\src/tensorflow/lite/kernels\kernel_util.h **** //   TF_LITE_ENSURE(context, my_tensor != nullptr);
 126:C:\Users\a5116938\Desktop\e2_studio_workspace\EEMBC_final\RX65N_Cloud_Kit\src/tensorflow/lite/kernels\kernel_util.h **** //
 127:C:\Users\a5116938\Desktop\e2_studio_workspace\EEMBC_final\RX65N_Cloud_Kit\src/tensorflow/lite/kernels\kernel_util.h **** // This is because the index might point to the optional tensor constant
 128:C:\Users\a5116938\Desktop\e2_studio_workspace\EEMBC_final\RX65N_Cloud_Kit\src/tensorflow/lite/kernels\kernel_util.h **** // (kTfLiteOptionalTensor) in which case there is no tensor to return.
 129:C:\Users\a5116938\Desktop\e2_studio_workspace\EEMBC_final\RX65N_Cloud_Kit\src/tensorflow/lite/kernels\kernel_util.h **** const TfLiteTensor* GetIntermediates(TfLiteContext* context,
 130:C:\Users\a5116938\Desktop\e2_studio_workspace\EEMBC_final\RX65N_Cloud_Kit\src/tensorflow/lite/kernels\kernel_util.h ****                                      const TfLiteNode* node, int index);
 131:C:\Users\a5116938\Desktop\e2_studio_workspace\EEMBC_final\RX65N_Cloud_Kit\src/tensorflow/lite/kernels\kernel_util.h **** 
 132:C:\Users\a5116938\Desktop\e2_studio_workspace\EEMBC_final\RX65N_Cloud_Kit\src/tensorflow/lite/kernels\kernel_util.h **** // Same as `GetIntermediates` but returns boolean and uses output argument for
 133:C:\Users\a5116938\Desktop\e2_studio_workspace\EEMBC_final\RX65N_Cloud_Kit\src/tensorflow/lite/kernels\kernel_util.h **** // tensor.
 134:C:\Users\a5116938\Desktop\e2_studio_workspace\EEMBC_final\RX65N_Cloud_Kit\src/tensorflow/lite/kernels\kernel_util.h **** //
 135:C:\Users\a5116938\Desktop\e2_studio_workspace\EEMBC_final\RX65N_Cloud_Kit\src/tensorflow/lite/kernels\kernel_util.h **** //   TfLiteTensor* my_tensor;
 136:C:\Users\a5116938\Desktop\e2_studio_workspace\EEMBC_final\RX65N_Cloud_Kit\src/tensorflow/lite/kernels\kernel_util.h **** //   TF_LITE_ENSURE_OK(context,
 137:C:\Users\a5116938\Desktop\e2_studio_workspace\EEMBC_final\RX65N_Cloud_Kit\src/tensorflow/lite/kernels\kernel_util.h **** //                     GetIntermediatesSafe(context, node, kMyTensorIdx,
 138:C:\Users\a5116938\Desktop\e2_studio_workspace\EEMBC_final\RX65N_Cloud_Kit\src/tensorflow/lite/kernels\kernel_util.h **** //                     &my_tensor));
 139:C:\Users\a5116938\Desktop\e2_studio_workspace\EEMBC_final\RX65N_Cloud_Kit\src/tensorflow/lite/kernels\kernel_util.h **** //   // can use my_tensor directly from here onwards, it is not nullptr
 140:C:\Users\a5116938\Desktop\e2_studio_workspace\EEMBC_final\RX65N_Cloud_Kit\src/tensorflow/lite/kernels\kernel_util.h **** //
 141:C:\Users\a5116938\Desktop\e2_studio_workspace\EEMBC_final\RX65N_Cloud_Kit\src/tensorflow/lite/kernels\kernel_util.h **** // Should be used in cases where the binary size is too large.
 142:C:\Users\a5116938\Desktop\e2_studio_workspace\EEMBC_final\RX65N_Cloud_Kit\src/tensorflow/lite/kernels\kernel_util.h **** TfLiteStatus GetIntermediatesSafe(const TfLiteContext* context,
 143:C:\Users\a5116938\Desktop\e2_studio_workspace\EEMBC_final\RX65N_Cloud_Kit\src/tensorflow/lite/kernels\kernel_util.h ****                                   const TfLiteNode* node, int index,
 144:C:\Users\a5116938\Desktop\e2_studio_workspace\EEMBC_final\RX65N_Cloud_Kit\src/tensorflow/lite/kernels\kernel_util.h ****                                   TfLiteTensor** tensor);
 145:C:\Users\a5116938\Desktop\e2_studio_workspace\EEMBC_final\RX65N_Cloud_Kit\src/tensorflow/lite/kernels\kernel_util.h **** #endif  // TF_LITE_STATIC_MEMORY
 146:C:\Users\a5116938\Desktop\e2_studio_workspace\EEMBC_final\RX65N_Cloud_Kit\src/tensorflow/lite/kernels\kernel_util.h **** 
 147:C:\Users\a5116938\Desktop\e2_studio_workspace\EEMBC_final\RX65N_Cloud_Kit\src/tensorflow/lite/kernels\kernel_util.h **** inline int NumDimensions(const TfLiteTensor* t) { return t->dims->size; }
 148:C:\Users\a5116938\Desktop\e2_studio_workspace\EEMBC_final\RX65N_Cloud_Kit\src/tensorflow/lite/kernels\kernel_util.h **** inline int SizeOfDimension(const TfLiteTensor* t, int dim) {
 149:C:\Users\a5116938\Desktop\e2_studio_workspace\EEMBC_final\RX65N_Cloud_Kit\src/tensorflow/lite/kernels\kernel_util.h ****   return t->dims->data[dim];
 150:C:\Users\a5116938\Desktop\e2_studio_workspace\EEMBC_final\RX65N_Cloud_Kit\src/tensorflow/lite/kernels\kernel_util.h **** }
 151:C:\Users\a5116938\Desktop\e2_studio_workspace\EEMBC_final\RX65N_Cloud_Kit\src/tensorflow/lite/kernels\kernel_util.h **** 
 152:C:\Users\a5116938\Desktop\e2_studio_workspace\EEMBC_final\RX65N_Cloud_Kit\src/tensorflow/lite/kernels\kernel_util.h **** inline int NumInputs(const TfLiteNode* node) { return node->inputs->size; }
  55                             		.loc 2 152 48
  56                             		.loc 2 152 69 is_stmt 0
  57 0010 EC 2A                   		mov.L	[r2], r10
  58                             	.LBE387:
  59                             	.LBE386:
  60                             		.loc 1 49 3
  61 0012 EC AA                   		mov.L	[r10], r10
  62 0014 60 2A                   		sub	#2, r10
  63 0016 61 1A                   		cmp	#1, r10
  64 0018 25 25                   		bleu	.L7
  65                             	.LVL7:
  66                             		.loc 2 152 48 is_stmt 1
  67                             		.loc 1 49 3
  68                             		.loc 1 49 3
  69 001a A9 1F                   		mov.L	20[r1], r7
  70 001c F9 02 03 00 00 00 00    		mov.L	#.LC1, 12[r0]
  71 0023 3E 02 31                		mov.L	#49, 8[r0]
  72 0026 F9 02 01 2D 00 00 00    		mov.L	#.LC2, 4[r0]
  73 002d 66 1B                   		mov.L	#1, r11
  74 002f F8 02 59 00 00 00       		mov.L	#.LC3, [r0]
  75 0035 7F 17                   		jsr	r7
  76                             	.LVL8:
  77                             		.loc 1 49 3
  78 0037 03                      		.balign 8,3,1
  79                             	.L5:
  50:../src/tensorflow/lite/micro/kernels/pad.cc ****   TF_LITE_ENSURE_EQ(context, NumOutputs(node), 1);
  51:../src/tensorflow/lite/micro/kernels/pad.cc **** 
  52:../src/tensorflow/lite/micro/kernels/pad.cc ****   const TfLiteTensor* input = GetInput(context, node, /*index=*/0);
  53:../src/tensorflow/lite/micro/kernels/pad.cc ****   TF_LITE_ENSURE(context, input != nullptr);
  54:../src/tensorflow/lite/micro/kernels/pad.cc ****   const TfLiteTensor* paddings = GetInput(context, node, /*index=*/1);
  55:../src/tensorflow/lite/micro/kernels/pad.cc ****   TF_LITE_ENSURE(context, paddings != nullptr);
  56:../src/tensorflow/lite/micro/kernels/pad.cc ****   const TfLiteTensor* constant_values =
  57:../src/tensorflow/lite/micro/kernels/pad.cc ****       NumInputs(node) == 3 ? GetInput(context, node, /*index=*/2) : nullptr;
  58:../src/tensorflow/lite/micro/kernels/pad.cc ****   TfLiteTensor* output = GetOutput(context, node, /*index=*/0);
  59:../src/tensorflow/lite/micro/kernels/pad.cc ****   TF_LITE_ENSURE(context, output != nullptr);
  60:../src/tensorflow/lite/micro/kernels/pad.cc **** 
  61:../src/tensorflow/lite/micro/kernels/pad.cc ****   TF_LITE_ENSURE_EQ(context, input->type, output->type);
  62:../src/tensorflow/lite/micro/kernels/pad.cc **** 
  63:../src/tensorflow/lite/micro/kernels/pad.cc ****   // Current implementations rely on the inputs being <= 4D.
  64:../src/tensorflow/lite/micro/kernels/pad.cc ****   TF_LITE_ENSURE(context, NumDimensions(input) <=
  65:../src/tensorflow/lite/micro/kernels/pad.cc ****                               reference_ops::PadKernelMaxDimensionCount());
  66:../src/tensorflow/lite/micro/kernels/pad.cc **** 
  67:../src/tensorflow/lite/micro/kernels/pad.cc ****   if (constant_values != nullptr) {
  68:../src/tensorflow/lite/micro/kernels/pad.cc ****     TF_LITE_ENSURE_EQ(context, input->type, constant_values->type);
  69:../src/tensorflow/lite/micro/kernels/pad.cc ****     // Ensure that constant_values is a scalar.
  70:../src/tensorflow/lite/micro/kernels/pad.cc ****     TF_LITE_ENSURE_EQ(context, NumElements(constant_values), 1);
  71:../src/tensorflow/lite/micro/kernels/pad.cc ****   }
  72:../src/tensorflow/lite/micro/kernels/pad.cc **** 
  73:../src/tensorflow/lite/micro/kernels/pad.cc ****   // There must be a pair of paddings for each output dimension.
  74:../src/tensorflow/lite/micro/kernels/pad.cc ****   TF_LITE_ENSURE_EQ(context, GetTensorShape(paddings).FlatSize(),
  75:../src/tensorflow/lite/micro/kernels/pad.cc ****                     output->dims->size * 2);
  76:../src/tensorflow/lite/micro/kernels/pad.cc **** 
  77:../src/tensorflow/lite/micro/kernels/pad.cc ****   // On Micro, outputs must be properly sized by the converter.
  78:../src/tensorflow/lite/micro/kernels/pad.cc ****   // NOTE: This data is only available because the paddings buffer is stored in
  79:../src/tensorflow/lite/micro/kernels/pad.cc ****   // the flatbuffer:
  80:../src/tensorflow/lite/micro/kernels/pad.cc ****   TF_LITE_ENSURE(context, IsConstantTensor(paddings));
  81:../src/tensorflow/lite/micro/kernels/pad.cc ****   const int32_t* paddings_data = GetTensorData<int32_t>(paddings);
  82:../src/tensorflow/lite/micro/kernels/pad.cc ****   for (int i = 0; i < output->dims->size; i++) {
  83:../src/tensorflow/lite/micro/kernels/pad.cc ****     int output_dim = output->dims->data[i];
  84:../src/tensorflow/lite/micro/kernels/pad.cc ****     int expected_dim =
  85:../src/tensorflow/lite/micro/kernels/pad.cc ****         input->dims->data[i] + paddings_data[i * 2] + paddings_data[i * 2 + 1];
  86:../src/tensorflow/lite/micro/kernels/pad.cc ****     TF_LITE_ENSURE_EQ(context, output_dim, expected_dim);
  87:../src/tensorflow/lite/micro/kernels/pad.cc ****   }
  88:../src/tensorflow/lite/micro/kernels/pad.cc **** 
  89:../src/tensorflow/lite/micro/kernels/pad.cc ****   // Calculate OpData:
  90:../src/tensorflow/lite/micro/kernels/pad.cc ****   data->params.resizing_category = ResizingCategory::kGenericResize;
  91:../src/tensorflow/lite/micro/kernels/pad.cc ****   const int paddings_total = GetTensorShape(paddings).FlatSize();
  92:../src/tensorflow/lite/micro/kernels/pad.cc ****   if (paddings_total == 8 && (paddings_data[0] == 0 && paddings_data[1] == 0) &&
  93:../src/tensorflow/lite/micro/kernels/pad.cc ****       (paddings_data[6] == 0 && paddings_data[7] == 0)) {
  94:../src/tensorflow/lite/micro/kernels/pad.cc ****     data->params.resizing_category = ResizingCategory::kImageStyle;
  95:../src/tensorflow/lite/micro/kernels/pad.cc ****   }
  96:../src/tensorflow/lite/micro/kernels/pad.cc **** 
  97:../src/tensorflow/lite/micro/kernels/pad.cc ****   const int num_input_dimensions = NumDimensions(input);
  98:../src/tensorflow/lite/micro/kernels/pad.cc ****   data->params.left_padding_count = num_input_dimensions;
  99:../src/tensorflow/lite/micro/kernels/pad.cc ****   data->params.right_padding_count = num_input_dimensions;
 100:../src/tensorflow/lite/micro/kernels/pad.cc **** 
 101:../src/tensorflow/lite/micro/kernels/pad.cc ****   for (int idx = num_input_dimensions - 1; idx >= 0; --idx) {
 102:../src/tensorflow/lite/micro/kernels/pad.cc ****     data->params.left_padding[idx] = paddings_data[idx * 2];
 103:../src/tensorflow/lite/micro/kernels/pad.cc ****     data->params.right_padding[idx] = paddings_data[idx * 2 + 1];
 104:../src/tensorflow/lite/micro/kernels/pad.cc ****   }
 105:../src/tensorflow/lite/micro/kernels/pad.cc **** 
 106:../src/tensorflow/lite/micro/kernels/pad.cc ****   if (input->type == kTfLiteInt8 || input->type == kTfLiteUInt8) {
 107:../src/tensorflow/lite/micro/kernels/pad.cc ****     if (constant_values == nullptr) {
 108:../src/tensorflow/lite/micro/kernels/pad.cc ****       // Quantized Pad requires that 0 is represented in the quantized
 109:../src/tensorflow/lite/micro/kernels/pad.cc ****       // range.
 110:../src/tensorflow/lite/micro/kernels/pad.cc ****       if (input->type == kTfLiteUInt8) {
 111:../src/tensorflow/lite/micro/kernels/pad.cc ****         TF_LITE_ENSURE(context, output->params.zero_point >=
 112:../src/tensorflow/lite/micro/kernels/pad.cc ****                                     std::numeric_limits<uint8_t>::min());
 113:../src/tensorflow/lite/micro/kernels/pad.cc ****         TF_LITE_ENSURE(context, output->params.zero_point <=
 114:../src/tensorflow/lite/micro/kernels/pad.cc ****                                     std::numeric_limits<uint8_t>::max());
 115:../src/tensorflow/lite/micro/kernels/pad.cc ****       } else {
 116:../src/tensorflow/lite/micro/kernels/pad.cc ****         TF_LITE_ENSURE(context, output->params.zero_point >=
 117:../src/tensorflow/lite/micro/kernels/pad.cc ****                                     std::numeric_limits<int8_t>::min());
 118:../src/tensorflow/lite/micro/kernels/pad.cc ****         TF_LITE_ENSURE(context, output->params.zero_point <=
 119:../src/tensorflow/lite/micro/kernels/pad.cc ****                                     std::numeric_limits<int8_t>::max());
 120:../src/tensorflow/lite/micro/kernels/pad.cc ****       }
 121:../src/tensorflow/lite/micro/kernels/pad.cc ****     } else {
 122:../src/tensorflow/lite/micro/kernels/pad.cc ****       // Quantized Pad requires that 'constant_values' is represented in the
 123:../src/tensorflow/lite/micro/kernels/pad.cc ****       // same quantized range as the input and output tensors.
 124:../src/tensorflow/lite/micro/kernels/pad.cc ****       TF_LITE_ENSURE_EQ(context, output->params.zero_point,
 125:../src/tensorflow/lite/micro/kernels/pad.cc ****                         constant_values->params.zero_point);
 126:../src/tensorflow/lite/micro/kernels/pad.cc ****       TF_LITE_ENSURE_EQ(context, static_cast<double>(output->params.scale),
 127:../src/tensorflow/lite/micro/kernels/pad.cc ****                         static_cast<double>(constant_values->params.scale));
 128:../src/tensorflow/lite/micro/kernels/pad.cc ****     }
 129:../src/tensorflow/lite/micro/kernels/pad.cc ****     data->output_zero_point = output->params.zero_point;
 130:../src/tensorflow/lite/micro/kernels/pad.cc ****   }
 131:../src/tensorflow/lite/micro/kernels/pad.cc **** 
 132:../src/tensorflow/lite/micro/kernels/pad.cc ****   return kTfLiteOk;
 133:../src/tensorflow/lite/micro/kernels/pad.cc **** }
  80                             		.loc 1 133 1 is_stmt 0
  81 0038 EF B1                   		mov.L	r11, r1
  82 003a 3F 6D 18                		rtsd	#96, r6-r13
  83                             	.LVL9:
  84                             	.L7:
  50:../src/tensorflow/lite/micro/kernels/pad.cc ****   TF_LITE_ENSURE_EQ(context, NumOutputs(node), 1);
  85                             		.loc 1 50 3 is_stmt 1 discriminator 4
  50:../src/tensorflow/lite/micro/kernels/pad.cc ****   TF_LITE_ENSURE_EQ(context, NumOutputs(node), 1);
  86                             		.loc 1 50 3 discriminator 4
  87                             	.LBB388:
  88                             	.LBB389:
 153:C:\Users\a5116938\Desktop\e2_studio_workspace\EEMBC_final\RX65N_Cloud_Kit\src/tensorflow/lite/kernels\kernel_util.h **** inline int NumOutputs(const TfLiteNode* node) { return node->outputs->size; }
  89                             		.loc 2 153 49 discriminator 4
  90                             		.loc 2 153 71 is_stmt 0 discriminator 4
  91 003d ED 2A 01                		mov.L	4[r2], r10
  92 0040 EC AA                   		mov.L	[r10], r10
  93                             	.LBE389:
  94                             	.LBE388:
  50:../src/tensorflow/lite/micro/kernels/pad.cc ****   TF_LITE_ENSURE_EQ(context, NumOutputs(node), 1);
  95                             		.loc 1 50 3 discriminator 4
  96 0042 61 1A                   		cmp	#1, r10
  97 0044 20 31                   		beq	.L9
  50:../src/tensorflow/lite/micro/kernels/pad.cc ****   TF_LITE_ENSURE_EQ(context, NumOutputs(node), 1);
  98                             		.loc 1 50 3 is_stmt 1 discriminator 1
  50:../src/tensorflow/lite/micro/kernels/pad.cc ****   TF_LITE_ENSURE_EQ(context, NumOutputs(node), 1);
  99                             		.loc 1 50 3 discriminator 1
 100                             	.LVL10:
 101                             		.loc 2 153 49 discriminator 1
  50:../src/tensorflow/lite/micro/kernels/pad.cc ****   TF_LITE_ENSURE_EQ(context, NumOutputs(node), 1);
 102                             		.loc 1 50 3 is_stmt 0 discriminator 1
 103 0046 A9 1F                   		mov.L	20[r1], r7
 104 0048 3E 06 01                		mov.L	#1, 24[r0]
 105 004b E7 0A 05                		mov.L	r10, 20[r0]
 106 004e F9 02 04 70 00 00 00    		mov.L	#.LC4, 16[r0]
 107 0055 F9 02 03 72 00 00 00    		mov.L	#.LC5, 12[r0]
 108 005c 3E 02 32                		mov.L	#50, 8[r0]
 109 005f F9 02 01 2D 00 00 00    		mov.L	#.LC2, 4[r0]
 110 0066 66 1B                   		mov.L	#1, r11
 111 0068 F8 02 83 00 00 00       		mov.L	#.LC6, [r0]
 112 006e 7F 17                   		jsr	r7
 113                             	.LVL11:
  50:../src/tensorflow/lite/micro/kernels/pad.cc ****   TF_LITE_ENSURE_EQ(context, NumOutputs(node), 1);
 114                             		.loc 1 50 3 is_stmt 1 discriminator 1
 115                             		.loc 1 133 1 is_stmt 0 discriminator 1
 116 0070 EF B1                   		mov.L	r11, r1
 117 0072 3F 6D 18                		rtsd	#96, r6-r13
 118                             	.LVL12:
 119                             	.L9:
  52:../src/tensorflow/lite/micro/kernels/pad.cc ****   TF_LITE_ENSURE(context, input != nullptr);
 120                             		.loc 1 52 3 is_stmt 1
  52:../src/tensorflow/lite/micro/kernels/pad.cc ****   TF_LITE_ENSURE(context, input != nullptr);
 121                             		.loc 1 52 39 is_stmt 0
 122 0075 66 03                   		mov.L	#0, r3
 123 0077 05 00 00 00             		bsr	__ZN6tflite8GetInputEPK13TfLiteContextPK10TfLiteNodei
 124                             	.LVL13:
  53:../src/tensorflow/lite/micro/kernels/pad.cc ****   const TfLiteTensor* paddings = GetInput(context, node, /*index=*/1);
 125                             		.loc 1 53 3
 126 007b 71 1C 00                		add	#0, r1, r12
 127 007e 20 63                   		beq	.L105
  54:../src/tensorflow/lite/micro/kernels/pad.cc ****   TF_LITE_ENSURE(context, paddings != nullptr);
 128                             		.loc 1 54 3 is_stmt 1
  54:../src/tensorflow/lite/micro/kernels/pad.cc ****   TF_LITE_ENSURE(context, paddings != nullptr);
 129                             		.loc 1 54 42 is_stmt 0
 130 0080 EF A3                   		mov.L	r10, r3
 131 0082 EF B2                   		mov.L	r11, r2
 132 0084 EF 71                   		mov.L	r7, r1
 133 0086 05 00 00 00             		bsr	__ZN6tflite8GetInputEPK13TfLiteContextPK10TfLiteNodei
 134                             	.LVL14:
  55:../src/tensorflow/lite/micro/kernels/pad.cc ****   const TfLiteTensor* constant_values =
 135                             		.loc 1 55 3
 136 008a 71 18 00                		add	#0, r1, r8
 137 008d 3A C7 00                		beq	.L106
  56:../src/tensorflow/lite/micro/kernels/pad.cc ****       NumInputs(node) == 3 ? GetInput(context, node, /*index=*/2) : nullptr;
 138                             		.loc 1 56 3 is_stmt 1
 139                             	.LVL15:
 140                             	.LBB390:
 141                             	.LBB391:
 152:C:\Users\a5116938\Desktop\e2_studio_workspace\EEMBC_final\RX65N_Cloud_Kit\src/tensorflow/lite/kernels\kernel_util.h **** inline int NumOutputs(const TfLiteNode* node) { return node->outputs->size; }
 142                             		.loc 2 152 48
 152:C:\Users\a5116938\Desktop\e2_studio_workspace\EEMBC_final\RX65N_Cloud_Kit\src/tensorflow/lite/kernels\kernel_util.h **** inline int NumOutputs(const TfLiteNode* node) { return node->outputs->size; }
 143                             		.loc 2 152 69 is_stmt 0
 144 0090 EC B5                   		mov.L	[r11], r5
 145                             	.LBE391:
 146                             	.LBE390:
  57:../src/tensorflow/lite/micro/kernels/pad.cc ****   TfLiteTensor* output = GetOutput(context, node, /*index=*/0);
 147                             		.loc 1 57 28
 148 0092 EC 55                   		mov.L	[r5], r5
 149 0094 61 35                   		cmp	#3, r5
 150 0096 3A CC 00                		beq	.L107
 151 0099 66 0D                   		mov.L	#0, r13
 152                             		.balign 8,3,1
 153                             	.L12:
 154                             	.LVL16:
  58:../src/tensorflow/lite/micro/kernels/pad.cc ****   TF_LITE_ENSURE(context, output != nullptr);
 155                             		.loc 1 58 3 is_stmt 1 discriminator 4
  58:../src/tensorflow/lite/micro/kernels/pad.cc ****   TF_LITE_ENSURE(context, output != nullptr);
 156                             		.loc 1 58 35 is_stmt 0 discriminator 4
 157 009b 66 03                   		mov.L	#0, r3
 158 009d EF B2                   		mov.L	r11, r2
 159 009f EF 71                   		mov.L	r7, r1
 160 00a1 05 00 00 00             		bsr	__ZN6tflite9GetOutputEP13TfLiteContextPK10TfLiteNodei
 161                             	.LVL17:
  59:../src/tensorflow/lite/micro/kernels/pad.cc **** 
 162                             		.loc 1 59 3 discriminator 4
 163 00a5 71 19 00                		add	#0, r1, r9
 164 00a8 3A C9 00                		beq	.L108
  61:../src/tensorflow/lite/micro/kernels/pad.cc **** 
 165                             		.loc 1 61 3 is_stmt 1
  61:../src/tensorflow/lite/micro/kernels/pad.cc **** 
 166                             		.loc 1 61 3
 167 00ab EC C5                   		mov.L	[r12], r5
 168 00ad EC 94                   		mov.L	[r9], r4
 169 00af 47 45                   		cmp	r4, r5
 170 00b1 20 52                   		beq	.L14
  61:../src/tensorflow/lite/micro/kernels/pad.cc **** 
 171                             		.loc 1 61 3 discriminator 1
  61:../src/tensorflow/lite/micro/kernels/pad.cc **** 
 172                             		.loc 1 61 3 discriminator 1
 173 00b3 ED 7A 05                		mov.L	20[r7], r10
 174 00b6 A1 84                   		mov.L	r4, 24[r0]
 175 00b8 A1 0D                   		mov.L	r5, 20[r0]
 176 00ba F9 02 04 D4 00 00 00    		mov.L	#.LC10, 16[r0]
 177 00c1 F9 02 03 E1 00 00 00    		mov.L	#.LC11, 12[r0]
 178 00c8 3E 02 3D                		mov.L	#61, 8[r0]
 179                             	.L103:
  68:../src/tensorflow/lite/micro/kernels/pad.cc ****     // Ensure that constant_values is a scalar.
 180                             		.loc 1 68 5 is_stmt 0 discriminator 1
 181 00cb F9 02 01 2D 00 00 00    		mov.L	#.LC2, 4[r0]
 182 00d2 EF 71                   		mov.L	r7, r1
 183 00d4 F8 02 83 00 00 00       		mov.L	#.LC6, [r0]
 184 00da 66 1B                   		mov.L	#1, r11
 185                             	.LVL18:
 186 00dc 7F 1A                   		jsr	r10
 187                             	.LVL19:
  68:../src/tensorflow/lite/micro/kernels/pad.cc ****     // Ensure that constant_values is a scalar.
 188                             		.loc 1 68 5 is_stmt 1 discriminator 1
 189 00de 38 5A FF                		bra	.L5
 190                             	.LVL20:
 191                             	.L105:
  53:../src/tensorflow/lite/micro/kernels/pad.cc ****   const TfLiteTensor* paddings = GetInput(context, node, /*index=*/1);
 192                             		.loc 1 53 3 discriminator 1
  53:../src/tensorflow/lite/micro/kernels/pad.cc ****   const TfLiteTensor* paddings = GetInput(context, node, /*index=*/1);
 193                             		.loc 1 53 3 discriminator 1
 194 00e1 A9 7D                   		mov.L	20[r7], r5
 195 00e3 F9 02 03 9D 00 00 00    		mov.L	#.LC7, 12[r0]
 196 00ea 3E 02 35                		mov.L	#53, 8[r0]
 197                             	.L101:
  55:../src/tensorflow/lite/micro/kernels/pad.cc ****   const TfLiteTensor* constant_values =
 198                             		.loc 1 55 3 is_stmt 0 discriminator 1
 199 00ed F9 02 01 2D 00 00 00    		mov.L	#.LC2, 4[r0]
 200 00f4 EF 71                   		mov.L	r7, r1
 201 00f6 F8 02 59 00 00 00       		mov.L	#.LC3, [r0]
 202 00fc EF AB                   		mov.L	r10, r11
 203                             	.LVL21:
 204 00fe 7F 15                   		jsr	r5
 205                             	.LVL22:
  55:../src/tensorflow/lite/micro/kernels/pad.cc ****   const TfLiteTensor* constant_values =
 206                             		.loc 1 55 3 is_stmt 1 discriminator 1
 207 0100 38 38 FF                		bra	.L5
 208                             	.LVL23:
 209                             	.L14:
  64:../src/tensorflow/lite/micro/kernels/pad.cc ****                               reference_ops::PadKernelMaxDimensionCount());
 210                             		.loc 1 64 3
  64:../src/tensorflow/lite/micro/kernels/pad.cc ****                               reference_ops::PadKernelMaxDimensionCount());
 211                             		.loc 1 64 3
 212                             	.LBB392:
 213                             	.LBB393:
 147:C:\Users\a5116938\Desktop\e2_studio_workspace\EEMBC_final\RX65N_Cloud_Kit\src/tensorflow/lite/kernels\kernel_util.h **** inline int SizeOfDimension(const TfLiteTensor* t, int dim) {
 214                             		.loc 2 147 51
 147:C:\Users\a5116938\Desktop\e2_studio_workspace\EEMBC_final\RX65N_Cloud_Kit\src/tensorflow/lite/kernels\kernel_util.h **** inline int SizeOfDimension(const TfLiteTensor* t, int dim) {
 215                             		.loc 2 147 67 is_stmt 0
 216 0103 ED C4 02                		mov.L	8[r12], r4
 217                             	.LBE393:
 218                             	.LBE392:
  64:../src/tensorflow/lite/micro/kernels/pad.cc ****                               reference_ops::PadKernelMaxDimensionCount());
 219                             		.loc 1 64 3
 220 0106 EC 44                   		mov.L	[r4], r4
 221 0108 61 44                   		cmp	#4, r4
 222 010a 2A 27                   		bgt	.L109
  67:../src/tensorflow/lite/micro/kernels/pad.cc ****     TF_LITE_ENSURE_EQ(context, input->type, constant_values->type);
 223                             		.loc 1 67 3 is_stmt 1
 224 010c 61 0D                   		cmp	#0, r13
 225 010e 3A F7 00                		beq	.L16
  68:../src/tensorflow/lite/micro/kernels/pad.cc ****     // Ensure that constant_values is a scalar.
 226                             		.loc 1 68 5
  68:../src/tensorflow/lite/micro/kernels/pad.cc ****     // Ensure that constant_values is a scalar.
 227                             		.loc 1 68 5
 228 0111 EC D4                   		mov.L	[r13], r4
 229 0113 47 45                   		cmp	r4, r5
 230 0115 20 6B                   		beq	.L17
  68:../src/tensorflow/lite/micro/kernels/pad.cc ****     // Ensure that constant_values is a scalar.
 231                             		.loc 1 68 5 discriminator 1
  68:../src/tensorflow/lite/micro/kernels/pad.cc ****     // Ensure that constant_values is a scalar.
 232                             		.loc 1 68 5 discriminator 1
 233 0117 ED 7A 05                		mov.L	20[r7], r10
 234 011a A1 84                   		mov.L	r4, 24[r0]
 235 011c A1 0D                   		mov.L	r5, 20[r0]
 236 011e F9 02 04 31 01 00 00    		mov.L	#.LC13, 16[r0]
 237 0125 F9 02 03 E1 00 00 00    		mov.L	#.LC11, 12[r0]
 238 012c 3E 02 44                		mov.L	#0x44, 8[r0]
 239 012f 2E 9C                   		bra	.L103
 240                             	.L109:
  64:../src/tensorflow/lite/micro/kernels/pad.cc ****                               reference_ops::PadKernelMaxDimensionCount());
 241                             		.loc 1 64 3 discriminator 1
  64:../src/tensorflow/lite/micro/kernels/pad.cc ****                               reference_ops::PadKernelMaxDimensionCount());
 242                             		.loc 1 64 3 discriminator 1
 243 0131 ED 7A 05                		mov.L	20[r7], r10
 244 0134 F9 02 03 ED 00 00 00    		mov.L	#.LC12, 12[r0]
 245 013b 3E 02 41                		mov.L	#0x41, 8[r0]
 246                             	.LVL24:
 247                             	.L102:
 248 013e F9 02 01 2D 00 00 00    		mov.L	#.LC2, 4[r0]
 249 0145 EF 71                   		mov.L	r7, r1
 250 0147 F8 02 59 00 00 00       		mov.L	#.LC3, [r0]
 251 014d 66 1B                   		mov.L	#1, r11
 252 014f 7F 1A                   		jsr	r10
 253                             	.LVL25:
  64:../src/tensorflow/lite/micro/kernels/pad.cc ****                               reference_ops::PadKernelMaxDimensionCount());
 254                             		.loc 1 64 3 discriminator 1
 255 0151 38 E7 FE                		bra	.L5
 256                             	.LVL26:
 257                             	.L106:
  55:../src/tensorflow/lite/micro/kernels/pad.cc ****   const TfLiteTensor* constant_values =
 258                             		.loc 1 55 3 discriminator 1
  55:../src/tensorflow/lite/micro/kernels/pad.cc ****   const TfLiteTensor* constant_values =
 259                             		.loc 1 55 3 discriminator 1
 260 0154 A9 7D                   		mov.L	20[r7], r5
 261 0156 F9 02 03 AE 00 00 00    		mov.L	#.LC8, 12[r0]
 262 015d 3E 02 37                		mov.L	#55, 8[r0]
 263 0160 2E 8D                   		bra	.L101
 264                             	.LVL27:
 265                             	.L107:
  57:../src/tensorflow/lite/micro/kernels/pad.cc ****   TfLiteTensor* output = GetOutput(context, node, /*index=*/0);
 266                             		.loc 1 57 38 is_stmt 0 discriminator 1
 267 0162 66 23                   		mov.L	#2, r3
 268 0164 EF B2                   		mov.L	r11, r2
 269 0166 EF 71                   		mov.L	r7, r1
 270 0168 05 00 00 00             		bsr	__ZN6tflite8GetInputEPK13TfLiteContextPK10TfLiteNodei
 271                             	.LVL28:
 272 016c EF 1D                   		mov.L	r1, r13
 273 016e 38 2D FF                		bra	.L12
 274                             	.L108:
  59:../src/tensorflow/lite/micro/kernels/pad.cc **** 
 275                             		.loc 1 59 3 is_stmt 1 discriminator 1
  59:../src/tensorflow/lite/micro/kernels/pad.cc **** 
 276                             		.loc 1 59 3 discriminator 1
 277 0171 ED 7A 05                		mov.L	20[r7], r10
 278 0174 F9 02 03 C2 00 00 00    		mov.L	#.LC9, 12[r0]
 279 017b 3E 02 3B                		mov.L	#59, 8[r0]
 280 017e 2E C0                   		bra	.L102
 281                             	.LVL29:
 282                             	.L17:
  70:../src/tensorflow/lite/micro/kernels/pad.cc ****   }
 283                             		.loc 1 70 5
  70:../src/tensorflow/lite/micro/kernels/pad.cc ****   }
 284                             		.loc 1 70 5
 285 0180 ED DB 02                		mov.L	8[r13], r11
 286                             	.LVL30:
 154:C:\Users\a5116938\Desktop\e2_studio_workspace\EEMBC_final\RX65N_Cloud_Kit\src/tensorflow/lite/kernels\kernel_util.h **** 
 155:C:\Users\a5116938\Desktop\e2_studio_workspace\EEMBC_final\RX65N_Cloud_Kit\src/tensorflow/lite/kernels\kernel_util.h **** #ifndef TF_LITE_STATIC_MEMORY
 156:C:\Users\a5116938\Desktop\e2_studio_workspace\EEMBC_final\RX65N_Cloud_Kit\src/tensorflow/lite/kernels\kernel_util.h **** inline int NumIntermediates(const TfLiteNode* node) {
 157:C:\Users\a5116938\Desktop\e2_studio_workspace\EEMBC_final\RX65N_Cloud_Kit\src/tensorflow/lite/kernels\kernel_util.h ****   return node->intermediates->size;
 158:C:\Users\a5116938\Desktop\e2_studio_workspace\EEMBC_final\RX65N_Cloud_Kit\src/tensorflow/lite/kernels\kernel_util.h **** }
 159:C:\Users\a5116938\Desktop\e2_studio_workspace\EEMBC_final\RX65N_Cloud_Kit\src/tensorflow/lite/kernels\kernel_util.h **** #endif  // TF_LITE_STATIC_MEMORY
 160:C:\Users\a5116938\Desktop\e2_studio_workspace\EEMBC_final\RX65N_Cloud_Kit\src/tensorflow/lite/kernels\kernel_util.h **** 
 161:C:\Users\a5116938\Desktop\e2_studio_workspace\EEMBC_final\RX65N_Cloud_Kit\src/tensorflow/lite/kernels\kernel_util.h **** inline int64_t NumElements(const TfLiteIntArray* dims) {
 162:C:\Users\a5116938\Desktop\e2_studio_workspace\EEMBC_final\RX65N_Cloud_Kit\src/tensorflow/lite/kernels\kernel_util.h ****   int64_t count = 1;
 163:C:\Users\a5116938\Desktop\e2_studio_workspace\EEMBC_final\RX65N_Cloud_Kit\src/tensorflow/lite/kernels\kernel_util.h ****   for (int i = 0; i < dims->size; ++i) {
 164:C:\Users\a5116938\Desktop\e2_studio_workspace\EEMBC_final\RX65N_Cloud_Kit\src/tensorflow/lite/kernels\kernel_util.h ****     count *= dims->data[i];
 165:C:\Users\a5116938\Desktop\e2_studio_workspace\EEMBC_final\RX65N_Cloud_Kit\src/tensorflow/lite/kernels\kernel_util.h ****   }
 166:C:\Users\a5116938\Desktop\e2_studio_workspace\EEMBC_final\RX65N_Cloud_Kit\src/tensorflow/lite/kernels\kernel_util.h ****   return count;
 167:C:\Users\a5116938\Desktop\e2_studio_workspace\EEMBC_final\RX65N_Cloud_Kit\src/tensorflow/lite/kernels\kernel_util.h **** }
 168:C:\Users\a5116938\Desktop\e2_studio_workspace\EEMBC_final\RX65N_Cloud_Kit\src/tensorflow/lite/kernels\kernel_util.h **** 
 169:C:\Users\a5116938\Desktop\e2_studio_workspace\EEMBC_final\RX65N_Cloud_Kit\src/tensorflow/lite/kernels\kernel_util.h **** inline int64_t NumElements(const TfLiteTensor* t) {
 170:C:\Users\a5116938\Desktop\e2_studio_workspace\EEMBC_final\RX65N_Cloud_Kit\src/tensorflow/lite/kernels\kernel_util.h ****   return NumElements(t->dims);
 287                             		.loc 2 170 3
 288                             	.LBB394:
 289                             	.LBB395:
 290                             	.LBB396:
 162:C:\Users\a5116938\Desktop\e2_studio_workspace\EEMBC_final\RX65N_Cloud_Kit\src/tensorflow/lite/kernels\kernel_util.h ****   for (int i = 0; i < dims->size; ++i) {
 291                             		.loc 2 162 3
 163:C:\Users\a5116938\Desktop\e2_studio_workspace\EEMBC_final\RX65N_Cloud_Kit\src/tensorflow/lite/kernels\kernel_util.h ****     count *= dims->data[i];
 292                             		.loc 2 163 3
 293                             	.LBB397:
 163:C:\Users\a5116938\Desktop\e2_studio_workspace\EEMBC_final\RX65N_Cloud_Kit\src/tensorflow/lite/kernels\kernel_util.h ****     count *= dims->data[i];
 294                             		.loc 2 163 29 is_stmt 0
 295 0183 EC BE                   		mov.L	[r11], r14
 163:C:\Users\a5116938\Desktop\e2_studio_workspace\EEMBC_final\RX65N_Cloud_Kit\src/tensorflow/lite/kernels\kernel_util.h ****     count *= dims->data[i];
 296                             		.loc 2 163 21
 297 0185 61 0E                   		cmp	#0, r14
 298 0187 2B 7E                   		ble	.L16
 299                             	.LBE397:
 162:C:\Users\a5116938\Desktop\e2_studio_workspace\EEMBC_final\RX65N_Cloud_Kit\src/tensorflow/lite/kernels\kernel_util.h ****   for (int i = 0; i < dims->size; ++i) {
 300                             		.loc 2 162 11
 301 0189 66 14                   		mov.L	#1, r4
 302 018b 66 05                   		mov.L	#0, r5
 303                             	.LBB398:
 163:C:\Users\a5116938\Desktop\e2_studio_workspace\EEMBC_final\RX65N_Cloud_Kit\src/tensorflow/lite/kernels\kernel_util.h ****     count *= dims->data[i];
 304                             		.loc 2 163 12
 305 018d 66 03                   		mov.L	#0, r3
 306 018f 62 4B                   		add	#4, r11
 307                             	.LVL31:
 308                             		.balign 8,3,3
 309                             	.L18:
 164:C:\Users\a5116938\Desktop\e2_studio_workspace\EEMBC_final\RX65N_Cloud_Kit\src/tensorflow/lite/kernels\kernel_util.h ****   }
 310                             		.loc 2 164 5 is_stmt 1
 164:C:\Users\a5116938\Desktop\e2_studio_workspace\EEMBC_final\RX65N_Cloud_Kit\src/tensorflow/lite/kernels\kernel_util.h ****   }
 311                             		.loc 2 164 26 is_stmt 0
 312 0191 FE 63 BF                		mov.L	[r3,r11], r15
 163:C:\Users\a5116938\Desktop\e2_studio_workspace\EEMBC_final\RX65N_Cloud_Kit\src/tensorflow/lite/kernels\kernel_util.h ****     count *= dims->data[i];
 313                             		.loc 2 163 3
 314 0194 62 13                   		add	#1, r3
 315                             	.LVL32:
 164:C:\Users\a5116938\Desktop\e2_studio_workspace\EEMBC_final\RX65N_Cloud_Kit\src/tensorflow/lite/kernels\kernel_util.h ****   }
 316                             		.loc 2 164 26
 317 0196 FD BF F1                		shar	#31, r15, r1
 164:C:\Users\a5116938\Desktop\e2_studio_workspace\EEMBC_final\RX65N_Cloud_Kit\src/tensorflow/lite/kernels\kernel_util.h ****   }
 318                             		.loc 2 164 11
 319 0199 FF 32 F5                		mul	r15, r5, r2
 320 019c 4F 41                   		mul	r4, r1
 321 019e FC 1F F4                		emulu	r15, r4
 322                             	.LVL33:
 323 01a1 4B 12                   		add	r1, r2
 324 01a3 4B 25                   		add	r2, r5
 325                             	.LVL34:
 163:C:\Users\a5116938\Desktop\e2_studio_workspace\EEMBC_final\RX65N_Cloud_Kit\src/tensorflow/lite/kernels\kernel_util.h ****     count *= dims->data[i];
 326                             		.loc 2 163 21
 327 01a5 47 E3                   		cmp	r14, r3
 328 01a7 21 EA                   		bne	.L18
 329                             	.LBE398:
 166:C:\Users\a5116938\Desktop\e2_studio_workspace\EEMBC_final\RX65N_Cloud_Kit\src/tensorflow/lite/kernels\kernel_util.h **** }
 330                             		.loc 2 166 3 is_stmt 1
 331                             	.LVL35:
 332                             	.LBE396:
 333                             	.LBE395:
 334                             	.LBE394:
  70:../src/tensorflow/lite/micro/kernels/pad.cc ****   }
 335                             		.loc 1 70 5 is_stmt 0
 336 01a9 61 14                   		cmp	#1, r4
 337 01ab 20 56                   		beq	.L110
 338                             		.balign 8,3,1
 339                             	.L70:
  70:../src/tensorflow/lite/micro/kernels/pad.cc ****   }
 340                             		.loc 1 70 5 is_stmt 1 discriminator 1
  70:../src/tensorflow/lite/micro/kernels/pad.cc ****   }
 341                             		.loc 1 70 5 discriminator 1
 342 01ad A9 7E                   		mov.L	20[r7], r6
 343                             	.LVL36:
 344                             		.loc 2 170 3 discriminator 1
 345                             	.LBB399:
 346                             	.LBB400:
 347                             	.LBB401:
 162:C:\Users\a5116938\Desktop\e2_studio_workspace\EEMBC_final\RX65N_Cloud_Kit\src/tensorflow/lite/kernels\kernel_util.h ****   for (int i = 0; i < dims->size; ++i) {
 348                             		.loc 2 162 3 discriminator 1
 163:C:\Users\a5116938\Desktop\e2_studio_workspace\EEMBC_final\RX65N_Cloud_Kit\src/tensorflow/lite/kernels\kernel_util.h ****     count *= dims->data[i];
 349                             		.loc 2 163 3 discriminator 1
 162:C:\Users\a5116938\Desktop\e2_studio_workspace\EEMBC_final\RX65N_Cloud_Kit\src/tensorflow/lite/kernels\kernel_util.h ****   for (int i = 0; i < dims->size; ++i) {
 350                             		.loc 2 162 11 is_stmt 0 discriminator 1
 351 01af 66 14                   		mov.L	#1, r4
 352                             	.LBB402:
 163:C:\Users\a5116938\Desktop\e2_studio_workspace\EEMBC_final\RX65N_Cloud_Kit\src/tensorflow/lite/kernels\kernel_util.h ****     count *= dims->data[i];
 353                             		.loc 2 163 12 discriminator 1
 354 01b1 66 03                   		mov.L	#0, r3
 355                             	.LBE402:
 162:C:\Users\a5116938\Desktop\e2_studio_workspace\EEMBC_final\RX65N_Cloud_Kit\src/tensorflow/lite/kernels\kernel_util.h ****   for (int i = 0; i < dims->size; ++i) {
 356                             		.loc 2 162 11 discriminator 1
 357 01b3 66 05                   		mov.L	#0, r5
 358                             	.LVL37:
 359 01b5 FC 13 00                		.balign 8,3,3
 360                             	.L20:
 361                             	.LBB403:
 164:C:\Users\a5116938\Desktop\e2_studio_workspace\EEMBC_final\RX65N_Cloud_Kit\src/tensorflow/lite/kernels\kernel_util.h ****   }
 362                             		.loc 2 164 5 is_stmt 1
 164:C:\Users\a5116938\Desktop\e2_studio_workspace\EEMBC_final\RX65N_Cloud_Kit\src/tensorflow/lite/kernels\kernel_util.h ****   }
 363                             		.loc 2 164 26 is_stmt 0
 364 01b8 FE 63 B1                		mov.L	[r3,r11], r1
 163:C:\Users\a5116938\Desktop\e2_studio_workspace\EEMBC_final\RX65N_Cloud_Kit\src/tensorflow/lite/kernels\kernel_util.h ****     count *= dims->data[i];
 365                             		.loc 2 163 3
 366 01bb 62 13                   		add	#1, r3
 367                             	.LVL38:
 164:C:\Users\a5116938\Desktop\e2_studio_workspace\EEMBC_final\RX65N_Cloud_Kit\src/tensorflow/lite/kernels\kernel_util.h ****   }
 368                             		.loc 2 164 26
 369 01bd FD BF 12                		shar	#31, r1, r2
 164:C:\Users\a5116938\Desktop\e2_studio_workspace\EEMBC_final\RX65N_Cloud_Kit\src/tensorflow/lite/kernels\kernel_util.h ****   }
 370                             		.loc 2 164 11
 371 01c0 FF 3A 15                		mul	r1, r5, r10
 372 01c3 4F 42                   		mul	r4, r2
 373 01c5 FC 1F 14                		emulu	r1, r4
 374                             	.LVL39:
 375 01c8 4B 2A                   		add	r2, r10
 376 01ca 4B 5A                   		add	r5, r10
 377 01cc EF A5                   		mov.L	r10, r5
 378                             	.LVL40:
 163:C:\Users\a5116938\Desktop\e2_studio_workspace\EEMBC_final\RX65N_Cloud_Kit\src/tensorflow/lite/kernels\kernel_util.h ****     count *= dims->data[i];
 379                             		.loc 2 163 21
 380 01ce 47 E3                   		cmp	r14, r3
 381 01d0 21 E8                   		bne	.L20
 382                             	.LBE403:
 166:C:\Users\a5116938\Desktop\e2_studio_workspace\EEMBC_final\RX65N_Cloud_Kit\src/tensorflow/lite/kernels\kernel_util.h **** }
 383                             		.loc 2 166 3 is_stmt 1
 384                             	.LVL41:
 385                             	.LBE401:
 386                             	.LBE400:
 387                             	.LBE399:
  70:../src/tensorflow/lite/micro/kernels/pad.cc ****   }
 388                             		.loc 1 70 5 is_stmt 0
 389 01d2 3E 07 01                		mov.L	#1, 28[r0]
 390 01d5 A1 0C                   		mov.L	r4, 20[r0]
 391 01d7 E7 0A 06                		mov.L	r10, 24[r0]
 392 01da F9 02 04 70 00 00 00    		mov.L	#.LC4, 16[r0]
 393 01e1 F9 02 03 47 01 00 00    		mov.L	#.LC14, 12[r0]
 394 01e8 3E 02 46                		mov.L	#0x46, 8[r0]
 395 01eb F9 02 01 2D 00 00 00    		mov.L	#.LC2, 4[r0]
 396 01f2 EF 71                   		mov.L	r7, r1
 397 01f4 F8 02 83 00 00 00       		mov.L	#.LC6, [r0]
 398 01fa 66 1B                   		mov.L	#1, r11
 399 01fc 7F 16                   		jsr	r6
 400                             	.LVL42:
  70:../src/tensorflow/lite/micro/kernels/pad.cc ****   }
 401                             		.loc 1 70 5 is_stmt 1
 402 01fe 38 3A FE                		bra	.L5
 403                             	.LVL43:
 404                             	.L110:
 405 0201 61 05                   		cmp	#0, r5
 406 0203 21 AA                   		bne	.L70
 407                             		.balign 8,3,1
 408                             	.L16:
  74:../src/tensorflow/lite/micro/kernels/pad.cc ****                     output->dims->size * 2);
 409                             		.loc 1 74 3
  74:../src/tensorflow/lite/micro/kernels/pad.cc ****                     output->dims->size * 2);
 410                             		.loc 1 74 3
 411                             	.LVL44:
 412                             	.LBB404:
 413                             	.LBB405:
 414                             		.file 3 "C:\\Users\\a5116938\\Desktop\\e2_studio_workspace\\EEMBC_final\\RX65N_Cloud_Kit\\src/tens
   1:C:\Users\a5116938\Desktop\e2_studio_workspace\EEMBC_final\RX65N_Cloud_Kit\src/tensorflow/lite/kernels/internal\tensor_ctypes.h **** /* Copyright 2017 The TensorFlow Authors. All Rights Reserved.
   2:C:\Users\a5116938\Desktop\e2_studio_workspace\EEMBC_final\RX65N_Cloud_Kit\src/tensorflow/lite/kernels/internal\tensor_ctypes.h **** 
   3:C:\Users\a5116938\Desktop\e2_studio_workspace\EEMBC_final\RX65N_Cloud_Kit\src/tensorflow/lite/kernels/internal\tensor_ctypes.h **** Licensed under the Apache License, Version 2.0 (the "License");
   4:C:\Users\a5116938\Desktop\e2_studio_workspace\EEMBC_final\RX65N_Cloud_Kit\src/tensorflow/lite/kernels/internal\tensor_ctypes.h **** you may not use this file except in compliance with the License.
   5:C:\Users\a5116938\Desktop\e2_studio_workspace\EEMBC_final\RX65N_Cloud_Kit\src/tensorflow/lite/kernels/internal\tensor_ctypes.h **** You may obtain a copy of the License at
   6:C:\Users\a5116938\Desktop\e2_studio_workspace\EEMBC_final\RX65N_Cloud_Kit\src/tensorflow/lite/kernels/internal\tensor_ctypes.h **** 
   7:C:\Users\a5116938\Desktop\e2_studio_workspace\EEMBC_final\RX65N_Cloud_Kit\src/tensorflow/lite/kernels/internal\tensor_ctypes.h ****     http://www.apache.org/licenses/LICENSE-2.0
   8:C:\Users\a5116938\Desktop\e2_studio_workspace\EEMBC_final\RX65N_Cloud_Kit\src/tensorflow/lite/kernels/internal\tensor_ctypes.h **** 
   9:C:\Users\a5116938\Desktop\e2_studio_workspace\EEMBC_final\RX65N_Cloud_Kit\src/tensorflow/lite/kernels/internal\tensor_ctypes.h **** Unless required by applicable law or agreed to in writing, software
  10:C:\Users\a5116938\Desktop\e2_studio_workspace\EEMBC_final\RX65N_Cloud_Kit\src/tensorflow/lite/kernels/internal\tensor_ctypes.h **** distributed under the License is distributed on an "AS IS" BASIS,
  11:C:\Users\a5116938\Desktop\e2_studio_workspace\EEMBC_final\RX65N_Cloud_Kit\src/tensorflow/lite/kernels/internal\tensor_ctypes.h **** WITHOUT WARRANTIES OR CONDITIONS OF ANY KIND, either express or implied.
  12:C:\Users\a5116938\Desktop\e2_studio_workspace\EEMBC_final\RX65N_Cloud_Kit\src/tensorflow/lite/kernels/internal\tensor_ctypes.h **** See the License for the specific language governing permissions and
  13:C:\Users\a5116938\Desktop\e2_studio_workspace\EEMBC_final\RX65N_Cloud_Kit\src/tensorflow/lite/kernels/internal\tensor_ctypes.h **** limitations under the License.
  14:C:\Users\a5116938\Desktop\e2_studio_workspace\EEMBC_final\RX65N_Cloud_Kit\src/tensorflow/lite/kernels/internal\tensor_ctypes.h **** ==============================================================================*/
  15:C:\Users\a5116938\Desktop\e2_studio_workspace\EEMBC_final\RX65N_Cloud_Kit\src/tensorflow/lite/kernels/internal\tensor_ctypes.h **** #ifndef TENSORFLOW_LITE_KERNELS_INTERNAL_TENSOR_CTYPES_H_
  16:C:\Users\a5116938\Desktop\e2_studio_workspace\EEMBC_final\RX65N_Cloud_Kit\src/tensorflow/lite/kernels/internal\tensor_ctypes.h **** #define TENSORFLOW_LITE_KERNELS_INTERNAL_TENSOR_CTYPES_H_
  17:C:\Users\a5116938\Desktop\e2_studio_workspace\EEMBC_final\RX65N_Cloud_Kit\src/tensorflow/lite/kernels/internal\tensor_ctypes.h **** 
  18:C:\Users\a5116938\Desktop\e2_studio_workspace\EEMBC_final\RX65N_Cloud_Kit\src/tensorflow/lite/kernels/internal\tensor_ctypes.h **** #include "tensorflow/lite/c/common.h"
  19:C:\Users\a5116938\Desktop\e2_studio_workspace\EEMBC_final\RX65N_Cloud_Kit\src/tensorflow/lite/kernels/internal\tensor_ctypes.h **** #include "tensorflow/lite/kernels/internal/types.h"
  20:C:\Users\a5116938\Desktop\e2_studio_workspace\EEMBC_final\RX65N_Cloud_Kit\src/tensorflow/lite/kernels/internal\tensor_ctypes.h **** 
  21:C:\Users\a5116938\Desktop\e2_studio_workspace\EEMBC_final\RX65N_Cloud_Kit\src/tensorflow/lite/kernels/internal\tensor_ctypes.h **** namespace tflite {
  22:C:\Users\a5116938\Desktop\e2_studio_workspace\EEMBC_final\RX65N_Cloud_Kit\src/tensorflow/lite/kernels/internal\tensor_ctypes.h **** 
  23:C:\Users\a5116938\Desktop\e2_studio_workspace\EEMBC_final\RX65N_Cloud_Kit\src/tensorflow/lite/kernels/internal\tensor_ctypes.h **** template <typename T>
  24:C:\Users\a5116938\Desktop\e2_studio_workspace\EEMBC_final\RX65N_Cloud_Kit\src/tensorflow/lite/kernels/internal\tensor_ctypes.h **** inline T* GetTensorData(TfLiteTensor* tensor) {
  25:C:\Users\a5116938\Desktop\e2_studio_workspace\EEMBC_final\RX65N_Cloud_Kit\src/tensorflow/lite/kernels/internal\tensor_ctypes.h ****   return tensor != nullptr ? reinterpret_cast<T*>(tensor->data.raw) : nullptr;
  26:C:\Users\a5116938\Desktop\e2_studio_workspace\EEMBC_final\RX65N_Cloud_Kit\src/tensorflow/lite/kernels/internal\tensor_ctypes.h **** }
  27:C:\Users\a5116938\Desktop\e2_studio_workspace\EEMBC_final\RX65N_Cloud_Kit\src/tensorflow/lite/kernels/internal\tensor_ctypes.h **** 
  28:C:\Users\a5116938\Desktop\e2_studio_workspace\EEMBC_final\RX65N_Cloud_Kit\src/tensorflow/lite/kernels/internal\tensor_ctypes.h **** template <typename T>
  29:C:\Users\a5116938\Desktop\e2_studio_workspace\EEMBC_final\RX65N_Cloud_Kit\src/tensorflow/lite/kernels/internal\tensor_ctypes.h **** inline const T* GetTensorData(const TfLiteTensor* tensor) {
  30:C:\Users\a5116938\Desktop\e2_studio_workspace\EEMBC_final\RX65N_Cloud_Kit\src/tensorflow/lite/kernels/internal\tensor_ctypes.h ****   return tensor != nullptr ? reinterpret_cast<const T*>(tensor->data.raw)
  31:C:\Users\a5116938\Desktop\e2_studio_workspace\EEMBC_final\RX65N_Cloud_Kit\src/tensorflow/lite/kernels/internal\tensor_ctypes.h ****                            : nullptr;
  32:C:\Users\a5116938\Desktop\e2_studio_workspace\EEMBC_final\RX65N_Cloud_Kit\src/tensorflow/lite/kernels/internal\tensor_ctypes.h **** }
  33:C:\Users\a5116938\Desktop\e2_studio_workspace\EEMBC_final\RX65N_Cloud_Kit\src/tensorflow/lite/kernels/internal\tensor_ctypes.h **** 
  34:C:\Users\a5116938\Desktop\e2_studio_workspace\EEMBC_final\RX65N_Cloud_Kit\src/tensorflow/lite/kernels/internal\tensor_ctypes.h **** inline RuntimeShape GetTensorShape(const TfLiteTensor* tensor) {
  35:C:\Users\a5116938\Desktop\e2_studio_workspace\EEMBC_final\RX65N_Cloud_Kit\src/tensorflow/lite/kernels/internal\tensor_ctypes.h ****   if (tensor == nullptr) {
 415                             		.loc 3 35 3
  36:C:\Users\a5116938\Desktop\e2_studio_workspace\EEMBC_final\RX65N_Cloud_Kit\src/tensorflow/lite/kernels/internal\tensor_ctypes.h ****     return RuntimeShape();
  37:C:\Users\a5116938\Desktop\e2_studio_workspace\EEMBC_final\RX65N_Cloud_Kit\src/tensorflow/lite/kernels/internal\tensor_ctypes.h ****   }
  38:C:\Users\a5116938\Desktop\e2_studio_workspace\EEMBC_final\RX65N_Cloud_Kit\src/tensorflow/lite/kernels/internal\tensor_ctypes.h **** 
  39:C:\Users\a5116938\Desktop\e2_studio_workspace\EEMBC_final\RX65N_Cloud_Kit\src/tensorflow/lite/kernels/internal\tensor_ctypes.h ****   TfLiteIntArray* dims = tensor->dims;
 416                             		.loc 3 39 3
 417                             		.loc 3 39 19 is_stmt 0
 418 0205 ED 8B 02                		mov.L	8[r8], r11
 419                             	.LVL45:
  40:C:\Users\a5116938\Desktop\e2_studio_workspace\EEMBC_final\RX65N_Cloud_Kit\src/tensorflow/lite/kernels/internal\tensor_ctypes.h ****   const int dims_size = dims->size;
 420                             		.loc 3 40 3 is_stmt 1
 421                             		.loc 3 40 13 is_stmt 0
 422 0208 EC B1                   		mov.L	[r11], r1
 423                             	.LVL46:
  41:C:\Users\a5116938\Desktop\e2_studio_workspace\EEMBC_final\RX65N_Cloud_Kit\src/tensorflow/lite/kernels/internal\tensor_ctypes.h ****   const int32_t* dims_data = reinterpret_cast<const int32_t*>(dims->data);
 424                             		.loc 3 41 3 is_stmt 1
  42:C:\Users\a5116938\Desktop\e2_studio_workspace\EEMBC_final\RX65N_Cloud_Kit\src/tensorflow/lite/kernels/internal\tensor_ctypes.h ****   return RuntimeShape(dims_size, dims_data);
 425                             		.loc 3 42 3
 426                             	.LBE405:
 427                             	.LBE404:
 428                             		.file 4 "C:\\Users\\a5116938\\Desktop\\e2_studio_workspace\\EEMBC_final\\RX65N_Cloud_Kit\\src/tens
   1:C:\Users\a5116938\Desktop\e2_studio_workspace\EEMBC_final\RX65N_Cloud_Kit\src/tensorflow/lite/kernels/internal\types.h **** /* Copyright 2018 The TensorFlow Authors. All Rights Reserved.
   2:C:\Users\a5116938\Desktop\e2_studio_workspace\EEMBC_final\RX65N_Cloud_Kit\src/tensorflow/lite/kernels/internal\types.h **** 
   3:C:\Users\a5116938\Desktop\e2_studio_workspace\EEMBC_final\RX65N_Cloud_Kit\src/tensorflow/lite/kernels/internal\types.h **** Licensed under the Apache License, Version 2.0 (the "License");
   4:C:\Users\a5116938\Desktop\e2_studio_workspace\EEMBC_final\RX65N_Cloud_Kit\src/tensorflow/lite/kernels/internal\types.h **** you may not use this file except in compliance with the License.
   5:C:\Users\a5116938\Desktop\e2_studio_workspace\EEMBC_final\RX65N_Cloud_Kit\src/tensorflow/lite/kernels/internal\types.h **** You may obtain a copy of the License at
   6:C:\Users\a5116938\Desktop\e2_studio_workspace\EEMBC_final\RX65N_Cloud_Kit\src/tensorflow/lite/kernels/internal\types.h **** 
   7:C:\Users\a5116938\Desktop\e2_studio_workspace\EEMBC_final\RX65N_Cloud_Kit\src/tensorflow/lite/kernels/internal\types.h ****     http://www.apache.org/licenses/LICENSE-2.0
   8:C:\Users\a5116938\Desktop\e2_studio_workspace\EEMBC_final\RX65N_Cloud_Kit\src/tensorflow/lite/kernels/internal\types.h **** 
   9:C:\Users\a5116938\Desktop\e2_studio_workspace\EEMBC_final\RX65N_Cloud_Kit\src/tensorflow/lite/kernels/internal\types.h **** Unless required by applicable law or agreed to in writing, software
  10:C:\Users\a5116938\Desktop\e2_studio_workspace\EEMBC_final\RX65N_Cloud_Kit\src/tensorflow/lite/kernels/internal\types.h **** distributed under the License is distributed on an "AS IS" BASIS,
  11:C:\Users\a5116938\Desktop\e2_studio_workspace\EEMBC_final\RX65N_Cloud_Kit\src/tensorflow/lite/kernels/internal\types.h **** WITHOUT WARRANTIES OR CONDITIONS OF ANY KIND, either express or implied.
  12:C:\Users\a5116938\Desktop\e2_studio_workspace\EEMBC_final\RX65N_Cloud_Kit\src/tensorflow/lite/kernels/internal\types.h **** See the License for the specific language governing permissions and
  13:C:\Users\a5116938\Desktop\e2_studio_workspace\EEMBC_final\RX65N_Cloud_Kit\src/tensorflow/lite/kernels/internal\types.h **** limitations under the License.
  14:C:\Users\a5116938\Desktop\e2_studio_workspace\EEMBC_final\RX65N_Cloud_Kit\src/tensorflow/lite/kernels/internal\types.h **** ==============================================================================*/
  15:C:\Users\a5116938\Desktop\e2_studio_workspace\EEMBC_final\RX65N_Cloud_Kit\src/tensorflow/lite/kernels/internal\types.h **** #ifndef TENSORFLOW_LITE_KERNELS_INTERNAL_TYPES_H_
  16:C:\Users\a5116938\Desktop\e2_studio_workspace\EEMBC_final\RX65N_Cloud_Kit\src/tensorflow/lite/kernels/internal\types.h **** #define TENSORFLOW_LITE_KERNELS_INTERNAL_TYPES_H_
  17:C:\Users\a5116938\Desktop\e2_studio_workspace\EEMBC_final\RX65N_Cloud_Kit\src/tensorflow/lite/kernels/internal\types.h **** 
  18:C:\Users\a5116938\Desktop\e2_studio_workspace\EEMBC_final\RX65N_Cloud_Kit\src/tensorflow/lite/kernels/internal\types.h **** #include <algorithm>
  19:C:\Users\a5116938\Desktop\e2_studio_workspace\EEMBC_final\RX65N_Cloud_Kit\src/tensorflow/lite/kernels/internal\types.h **** #include <cstdint>
  20:C:\Users\a5116938\Desktop\e2_studio_workspace\EEMBC_final\RX65N_Cloud_Kit\src/tensorflow/lite/kernels/internal\types.h **** #include <cstring>
  21:C:\Users\a5116938\Desktop\e2_studio_workspace\EEMBC_final\RX65N_Cloud_Kit\src/tensorflow/lite/kernels/internal\types.h **** #include <initializer_list>
  22:C:\Users\a5116938\Desktop\e2_studio_workspace\EEMBC_final\RX65N_Cloud_Kit\src/tensorflow/lite/kernels/internal\types.h **** 
  23:C:\Users\a5116938\Desktop\e2_studio_workspace\EEMBC_final\RX65N_Cloud_Kit\src/tensorflow/lite/kernels/internal\types.h **** #include "tensorflow/lite/kernels/internal/compatibility.h"
  24:C:\Users\a5116938\Desktop\e2_studio_workspace\EEMBC_final\RX65N_Cloud_Kit\src/tensorflow/lite/kernels/internal\types.h **** 
  25:C:\Users\a5116938\Desktop\e2_studio_workspace\EEMBC_final\RX65N_Cloud_Kit\src/tensorflow/lite/kernels/internal\types.h **** namespace tflite {
  26:C:\Users\a5116938\Desktop\e2_studio_workspace\EEMBC_final\RX65N_Cloud_Kit\src/tensorflow/lite/kernels/internal\types.h **** 
  27:C:\Users\a5116938\Desktop\e2_studio_workspace\EEMBC_final\RX65N_Cloud_Kit\src/tensorflow/lite/kernels/internal\types.h **** enum class FusedActivationFunctionType : uint8_t {
  28:C:\Users\a5116938\Desktop\e2_studio_workspace\EEMBC_final\RX65N_Cloud_Kit\src/tensorflow/lite/kernels/internal\types.h ****   kNone,
  29:C:\Users\a5116938\Desktop\e2_studio_workspace\EEMBC_final\RX65N_Cloud_Kit\src/tensorflow/lite/kernels/internal\types.h ****   kRelu6,
  30:C:\Users\a5116938\Desktop\e2_studio_workspace\EEMBC_final\RX65N_Cloud_Kit\src/tensorflow/lite/kernels/internal\types.h ****   kRelu1,
  31:C:\Users\a5116938\Desktop\e2_studio_workspace\EEMBC_final\RX65N_Cloud_Kit\src/tensorflow/lite/kernels/internal\types.h ****   kRelu
  32:C:\Users\a5116938\Desktop\e2_studio_workspace\EEMBC_final\RX65N_Cloud_Kit\src/tensorflow/lite/kernels/internal\types.h **** };
  33:C:\Users\a5116938\Desktop\e2_studio_workspace\EEMBC_final\RX65N_Cloud_Kit\src/tensorflow/lite/kernels/internal\types.h **** enum class PaddingType : uint8_t { kNone, kSame, kValid };
  34:C:\Users\a5116938\Desktop\e2_studio_workspace\EEMBC_final\RX65N_Cloud_Kit\src/tensorflow/lite/kernels/internal\types.h **** 
  35:C:\Users\a5116938\Desktop\e2_studio_workspace\EEMBC_final\RX65N_Cloud_Kit\src/tensorflow/lite/kernels/internal\types.h **** struct PaddingValues {
  36:C:\Users\a5116938\Desktop\e2_studio_workspace\EEMBC_final\RX65N_Cloud_Kit\src/tensorflow/lite/kernels/internal\types.h ****   int16_t width;
  37:C:\Users\a5116938\Desktop\e2_studio_workspace\EEMBC_final\RX65N_Cloud_Kit\src/tensorflow/lite/kernels/internal\types.h ****   int16_t height;
  38:C:\Users\a5116938\Desktop\e2_studio_workspace\EEMBC_final\RX65N_Cloud_Kit\src/tensorflow/lite/kernels/internal\types.h ****   // offset is used for calculating "remaining" padding, for example, `width`
  39:C:\Users\a5116938\Desktop\e2_studio_workspace\EEMBC_final\RX65N_Cloud_Kit\src/tensorflow/lite/kernels/internal\types.h ****   // is 1 and `width_offset` is 1, so padding_left is 1 while padding_right is
  40:C:\Users\a5116938\Desktop\e2_studio_workspace\EEMBC_final\RX65N_Cloud_Kit\src/tensorflow/lite/kernels/internal\types.h ****   // 1 + 1 = 2.
  41:C:\Users\a5116938\Desktop\e2_studio_workspace\EEMBC_final\RX65N_Cloud_Kit\src/tensorflow/lite/kernels/internal\types.h ****   int16_t width_offset;
  42:C:\Users\a5116938\Desktop\e2_studio_workspace\EEMBC_final\RX65N_Cloud_Kit\src/tensorflow/lite/kernels/internal\types.h ****   // Same as width_offset except it's over the height dimension.
  43:C:\Users\a5116938\Desktop\e2_studio_workspace\EEMBC_final\RX65N_Cloud_Kit\src/tensorflow/lite/kernels/internal\types.h ****   int16_t height_offset;
  44:C:\Users\a5116938\Desktop\e2_studio_workspace\EEMBC_final\RX65N_Cloud_Kit\src/tensorflow/lite/kernels/internal\types.h **** };
  45:C:\Users\a5116938\Desktop\e2_studio_workspace\EEMBC_final\RX65N_Cloud_Kit\src/tensorflow/lite/kernels/internal\types.h **** 
  46:C:\Users\a5116938\Desktop\e2_studio_workspace\EEMBC_final\RX65N_Cloud_Kit\src/tensorflow/lite/kernels/internal\types.h **** // This enumeration allows for non-default formats for the weights array
  47:C:\Users\a5116938\Desktop\e2_studio_workspace\EEMBC_final\RX65N_Cloud_Kit\src/tensorflow/lite/kernels/internal\types.h **** // of a fully-connected operator, allowing the use of special optimized
  48:C:\Users\a5116938\Desktop\e2_studio_workspace\EEMBC_final\RX65N_Cloud_Kit\src/tensorflow/lite/kernels/internal\types.h **** // runtime paths.
  49:C:\Users\a5116938\Desktop\e2_studio_workspace\EEMBC_final\RX65N_Cloud_Kit\src/tensorflow/lite/kernels/internal\types.h **** enum class FullyConnectedWeightsFormat : uint8_t {
  50:C:\Users\a5116938\Desktop\e2_studio_workspace\EEMBC_final\RX65N_Cloud_Kit\src/tensorflow/lite/kernels/internal\types.h ****   // Default format (flat 2D layout, the inner contiguous dimension
  51:C:\Users\a5116938\Desktop\e2_studio_workspace\EEMBC_final\RX65N_Cloud_Kit\src/tensorflow/lite/kernels/internal\types.h ****   // is input_depth, the outer non-contiguous dimension is output_depth)
  52:C:\Users\a5116938\Desktop\e2_studio_workspace\EEMBC_final\RX65N_Cloud_Kit\src/tensorflow/lite/kernels/internal\types.h ****   kDefault,
  53:C:\Users\a5116938\Desktop\e2_studio_workspace\EEMBC_final\RX65N_Cloud_Kit\src/tensorflow/lite/kernels/internal\types.h ****   // Summary: optimized layout for fast CPU runtime implementation,
  54:C:\Users\a5116938\Desktop\e2_studio_workspace\EEMBC_final\RX65N_Cloud_Kit\src/tensorflow/lite/kernels/internal\types.h ****   // aimed specifically at ARM CPUs at the moment, and specialized for
  55:C:\Users\a5116938\Desktop\e2_studio_workspace\EEMBC_final\RX65N_Cloud_Kit\src/tensorflow/lite/kernels/internal\types.h ****   // 8-bit quantized layers.
  56:C:\Users\a5116938\Desktop\e2_studio_workspace\EEMBC_final\RX65N_Cloud_Kit\src/tensorflow/lite/kernels/internal\types.h ****   //
  57:C:\Users\a5116938\Desktop\e2_studio_workspace\EEMBC_final\RX65N_Cloud_Kit\src/tensorflow/lite/kernels/internal\types.h ****   // The use case we're concerned with here is: 8-bit quantization,
  58:C:\Users\a5116938\Desktop\e2_studio_workspace\EEMBC_final\RX65N_Cloud_Kit\src/tensorflow/lite/kernels/internal\types.h ****   // large weights matrix that doesn't fit in cache (e.g. 4096x2048 in
  59:C:\Users\a5116938\Desktop\e2_studio_workspace\EEMBC_final\RX65N_Cloud_Kit\src/tensorflow/lite/kernels/internal\types.h ****   // a key application that drove this), very small batch size (e.g. 1 -- 4).
  60:C:\Users\a5116938\Desktop\e2_studio_workspace\EEMBC_final\RX65N_Cloud_Kit\src/tensorflow/lite/kernels/internal\types.h ****   //
  61:C:\Users\a5116938\Desktop\e2_studio_workspace\EEMBC_final\RX65N_Cloud_Kit\src/tensorflow/lite/kernels/internal\types.h ****   // Even with 8-bit quantization of weights, the performance of memory
  62:C:\Users\a5116938\Desktop\e2_studio_workspace\EEMBC_final\RX65N_Cloud_Kit\src/tensorflow/lite/kernels/internal\types.h ****   // accesses to the weights can become the dominant issue when
  63:C:\Users\a5116938\Desktop\e2_studio_workspace\EEMBC_final\RX65N_Cloud_Kit\src/tensorflow/lite/kernels/internal\types.h ****   // the batch size is small, so each weight value is used in only a few
  64:C:\Users\a5116938\Desktop\e2_studio_workspace\EEMBC_final\RX65N_Cloud_Kit\src/tensorflow/lite/kernels/internal\types.h ****   // arithmetic ops, i.e. the fully-connected node has a low arithmetic
  65:C:\Users\a5116938\Desktop\e2_studio_workspace\EEMBC_final\RX65N_Cloud_Kit\src/tensorflow/lite/kernels/internal\types.h ****   // intensity. The specific issues that arise are of three kinds:
  66:C:\Users\a5116938\Desktop\e2_studio_workspace\EEMBC_final\RX65N_Cloud_Kit\src/tensorflow/lite/kernels/internal\types.h ****   // (1) One may, ideally, max out DRAM bandwidth, i.e. be truly memory
  67:C:\Users\a5116938\Desktop\e2_studio_workspace\EEMBC_final\RX65N_Cloud_Kit\src/tensorflow/lite/kernels/internal\types.h ****   //     bound. That's the "good" issue to run into.
  68:C:\Users\a5116938\Desktop\e2_studio_workspace\EEMBC_final\RX65N_Cloud_Kit\src/tensorflow/lite/kernels/internal\types.h ****   // (2) One may run into sub-optimal pre-fetching: the data hasn't been
  69:C:\Users\a5116938\Desktop\e2_studio_workspace\EEMBC_final\RX65N_Cloud_Kit\src/tensorflow/lite/kernels/internal\types.h ****   //     prefetched into the cache by the time we need it.
  70:C:\Users\a5116938\Desktop\e2_studio_workspace\EEMBC_final\RX65N_Cloud_Kit\src/tensorflow/lite/kernels/internal\types.h ****   // (3) One may run into cache aliasing: multiple values that are
  71:C:\Users\a5116938\Desktop\e2_studio_workspace\EEMBC_final\RX65N_Cloud_Kit\src/tensorflow/lite/kernels/internal\types.h ****   //     pre-fetched, alias each other in the L1 cache (which typically
  72:C:\Users\a5116938\Desktop\e2_studio_workspace\EEMBC_final\RX65N_Cloud_Kit\src/tensorflow/lite/kernels/internal\types.h ****   //     has only 4-way set associativity in ARM CPUs) and thus evict
  73:C:\Users\a5116938\Desktop\e2_studio_workspace\EEMBC_final\RX65N_Cloud_Kit\src/tensorflow/lite/kernels/internal\types.h ****   //     each other before we get to using them.
  74:C:\Users\a5116938\Desktop\e2_studio_workspace\EEMBC_final\RX65N_Cloud_Kit\src/tensorflow/lite/kernels/internal\types.h ****   //
  75:C:\Users\a5116938\Desktop\e2_studio_workspace\EEMBC_final\RX65N_Cloud_Kit\src/tensorflow/lite/kernels/internal\types.h ****   // The point of this shuffling is to avoid issues (2) and (3) so that
  76:C:\Users\a5116938\Desktop\e2_studio_workspace\EEMBC_final\RX65N_Cloud_Kit\src/tensorflow/lite/kernels/internal\types.h ****   // we get as fast as possible given only the hard constraint (1).
  77:C:\Users\a5116938\Desktop\e2_studio_workspace\EEMBC_final\RX65N_Cloud_Kit\src/tensorflow/lite/kernels/internal\types.h ****   // This is achieved by turning the difficulty into a solution: the
  78:C:\Users\a5116938\Desktop\e2_studio_workspace\EEMBC_final\RX65N_Cloud_Kit\src/tensorflow/lite/kernels/internal\types.h ****   // difficulty, that each value loaded from memory is used only in
  79:C:\Users\a5116938\Desktop\e2_studio_workspace\EEMBC_final\RX65N_Cloud_Kit\src/tensorflow/lite/kernels/internal\types.h ****   // one kernel iteration, making this operation memory-intensive, hints at
  80:C:\Users\a5116938\Desktop\e2_studio_workspace\EEMBC_final\RX65N_Cloud_Kit\src/tensorflow/lite/kernels/internal\types.h ****   // the solution, of shuffling the weights so that they are stored in the
  81:C:\Users\a5116938\Desktop\e2_studio_workspace\EEMBC_final\RX65N_Cloud_Kit\src/tensorflow/lite/kernels/internal\types.h ****   // exact order as the kernel needs to load them, so that the memory
  82:C:\Users\a5116938\Desktop\e2_studio_workspace\EEMBC_final\RX65N_Cloud_Kit\src/tensorflow/lite/kernels/internal\types.h ****   // accesses made by the kernel are trivial. This solves (2) because the
  83:C:\Users\a5116938\Desktop\e2_studio_workspace\EEMBC_final\RX65N_Cloud_Kit\src/tensorflow/lite/kernels/internal\types.h ****   // trivial memory access pattern allows the CPU's automatic prefetching
  84:C:\Users\a5116938\Desktop\e2_studio_workspace\EEMBC_final\RX65N_Cloud_Kit\src/tensorflow/lite/kernels/internal\types.h ****   // to perform very well (no need even for preload instructions), and this
  85:C:\Users\a5116938\Desktop\e2_studio_workspace\EEMBC_final\RX65N_Cloud_Kit\src/tensorflow/lite/kernels/internal\types.h ****   // solves (3) because the values being loaded concurrently are now
  86:C:\Users\a5116938\Desktop\e2_studio_workspace\EEMBC_final\RX65N_Cloud_Kit\src/tensorflow/lite/kernels/internal\types.h ****   // contiguous in the address space, thus don't alias each other in the cache.
  87:C:\Users\a5116938\Desktop\e2_studio_workspace\EEMBC_final\RX65N_Cloud_Kit\src/tensorflow/lite/kernels/internal\types.h ****   //
  88:C:\Users\a5116938\Desktop\e2_studio_workspace\EEMBC_final\RX65N_Cloud_Kit\src/tensorflow/lite/kernels/internal\types.h ****   // On ARM, we typically want our kernel to process a 4x16 block of weights
  89:C:\Users\a5116938\Desktop\e2_studio_workspace\EEMBC_final\RX65N_Cloud_Kit\src/tensorflow/lite/kernels/internal\types.h ****   // at a time, because:
  90:C:\Users\a5116938\Desktop\e2_studio_workspace\EEMBC_final\RX65N_Cloud_Kit\src/tensorflow/lite/kernels/internal\types.h ****   //   - 16 is the number of bytes in a NEON register.
  91:C:\Users\a5116938\Desktop\e2_studio_workspace\EEMBC_final\RX65N_Cloud_Kit\src/tensorflow/lite/kernels/internal\types.h ****   //   - 4 is how many rows we need to handle concurrently in the kernel in
  92:C:\Users\a5116938\Desktop\e2_studio_workspace\EEMBC_final\RX65N_Cloud_Kit\src/tensorflow/lite/kernels/internal\types.h ****   //     order to have sufficient mutual independence of instructions to
  93:C:\Users\a5116938\Desktop\e2_studio_workspace\EEMBC_final\RX65N_Cloud_Kit\src/tensorflow/lite/kernels/internal\types.h ****   //     maximize arithmetic throughput.
  94:C:\Users\a5116938\Desktop\e2_studio_workspace\EEMBC_final\RX65N_Cloud_Kit\src/tensorflow/lite/kernels/internal\types.h ****   //
  95:C:\Users\a5116938\Desktop\e2_studio_workspace\EEMBC_final\RX65N_Cloud_Kit\src/tensorflow/lite/kernels/internal\types.h ****   // Finally, the 'Int8' part in the name refers to the fact that this
  96:C:\Users\a5116938\Desktop\e2_studio_workspace\EEMBC_final\RX65N_Cloud_Kit\src/tensorflow/lite/kernels/internal\types.h ****   // weights format has each weights value encoded as a signed int8_t value,
  97:C:\Users\a5116938\Desktop\e2_studio_workspace\EEMBC_final\RX65N_Cloud_Kit\src/tensorflow/lite/kernels/internal\types.h ****   // even if the data type of the weights buffer is uint8_t.  This is intended
  98:C:\Users\a5116938\Desktop\e2_studio_workspace\EEMBC_final\RX65N_Cloud_Kit\src/tensorflow/lite/kernels/internal\types.h ****   // to save runtime kernels the effort to have to XOR the top bit of these
  99:C:\Users\a5116938\Desktop\e2_studio_workspace\EEMBC_final\RX65N_Cloud_Kit\src/tensorflow/lite/kernels/internal\types.h ****   // bytes before using them in signed arithmetic, see this file for more
 100:C:\Users\a5116938\Desktop\e2_studio_workspace\EEMBC_final\RX65N_Cloud_Kit\src/tensorflow/lite/kernels/internal\types.h ****   // explanations on the 'signed int8_t trick' in matrix multiplication kernels:
 101:C:\Users\a5116938\Desktop\e2_studio_workspace\EEMBC_final\RX65N_Cloud_Kit\src/tensorflow/lite/kernels/internal\types.h ****   //
 102:C:\Users\a5116938\Desktop\e2_studio_workspace\EEMBC_final\RX65N_Cloud_Kit\src/tensorflow/lite/kernels/internal\types.h ****   //   tensorflow/lite/toco/graph_transformations/ensure_uint8_weights_safe_for_fast_int8_kernels.c
 103:C:\Users\a5116938\Desktop\e2_studio_workspace\EEMBC_final\RX65N_Cloud_Kit\src/tensorflow/lite/kernels/internal\types.h ****   //
 104:C:\Users\a5116938\Desktop\e2_studio_workspace\EEMBC_final\RX65N_Cloud_Kit\src/tensorflow/lite/kernels/internal\types.h ****   kShuffled4x16Int8,
 105:C:\Users\a5116938\Desktop\e2_studio_workspace\EEMBC_final\RX65N_Cloud_Kit\src/tensorflow/lite/kernels/internal\types.h **** };
 106:C:\Users\a5116938\Desktop\e2_studio_workspace\EEMBC_final\RX65N_Cloud_Kit\src/tensorflow/lite/kernels/internal\types.h **** 
 107:C:\Users\a5116938\Desktop\e2_studio_workspace\EEMBC_final\RX65N_Cloud_Kit\src/tensorflow/lite/kernels/internal\types.h **** // Quantization parameters, determining the mapping of quantized values
 108:C:\Users\a5116938\Desktop\e2_studio_workspace\EEMBC_final\RX65N_Cloud_Kit\src/tensorflow/lite/kernels/internal\types.h **** // to real values (i.e. determining how quantized values are mathematically
 109:C:\Users\a5116938\Desktop\e2_studio_workspace\EEMBC_final\RX65N_Cloud_Kit\src/tensorflow/lite/kernels/internal\types.h **** // interpreted).
 110:C:\Users\a5116938\Desktop\e2_studio_workspace\EEMBC_final\RX65N_Cloud_Kit\src/tensorflow/lite/kernels/internal\types.h **** //
 111:C:\Users\a5116938\Desktop\e2_studio_workspace\EEMBC_final\RX65N_Cloud_Kit\src/tensorflow/lite/kernels/internal\types.h **** // The correspondence is as follows:
 112:C:\Users\a5116938\Desktop\e2_studio_workspace\EEMBC_final\RX65N_Cloud_Kit\src/tensorflow/lite/kernels/internal\types.h **** //
 113:C:\Users\a5116938\Desktop\e2_studio_workspace\EEMBC_final\RX65N_Cloud_Kit\src/tensorflow/lite/kernels/internal\types.h **** //   real_value = scale * (quantized_value - zero_point);
 114:C:\Users\a5116938\Desktop\e2_studio_workspace\EEMBC_final\RX65N_Cloud_Kit\src/tensorflow/lite/kernels/internal\types.h **** //
 115:C:\Users\a5116938\Desktop\e2_studio_workspace\EEMBC_final\RX65N_Cloud_Kit\src/tensorflow/lite/kernels/internal\types.h **** // In other words, zero_point designates which quantized value corresponds to
 116:C:\Users\a5116938\Desktop\e2_studio_workspace\EEMBC_final\RX65N_Cloud_Kit\src/tensorflow/lite/kernels/internal\types.h **** // the real 0 value, and scale designates the difference between the real values
 117:C:\Users\a5116938\Desktop\e2_studio_workspace\EEMBC_final\RX65N_Cloud_Kit\src/tensorflow/lite/kernels/internal\types.h **** // corresponding to consecutive quantized values differing by 1.
 118:C:\Users\a5116938\Desktop\e2_studio_workspace\EEMBC_final\RX65N_Cloud_Kit\src/tensorflow/lite/kernels/internal\types.h **** struct QuantizationParams {
 119:C:\Users\a5116938\Desktop\e2_studio_workspace\EEMBC_final\RX65N_Cloud_Kit\src/tensorflow/lite/kernels/internal\types.h ****   int32_t zero_point = 0;
 120:C:\Users\a5116938\Desktop\e2_studio_workspace\EEMBC_final\RX65N_Cloud_Kit\src/tensorflow/lite/kernels/internal\types.h ****   double scale = 0.0;
 121:C:\Users\a5116938\Desktop\e2_studio_workspace\EEMBC_final\RX65N_Cloud_Kit\src/tensorflow/lite/kernels/internal\types.h **** };
 122:C:\Users\a5116938\Desktop\e2_studio_workspace\EEMBC_final\RX65N_Cloud_Kit\src/tensorflow/lite/kernels/internal\types.h **** 
 123:C:\Users\a5116938\Desktop\e2_studio_workspace\EEMBC_final\RX65N_Cloud_Kit\src/tensorflow/lite/kernels/internal\types.h **** inline bool operator==(const QuantizationParams& qp1,
 124:C:\Users\a5116938\Desktop\e2_studio_workspace\EEMBC_final\RX65N_Cloud_Kit\src/tensorflow/lite/kernels/internal\types.h ****                        const QuantizationParams& qp2) {
 125:C:\Users\a5116938\Desktop\e2_studio_workspace\EEMBC_final\RX65N_Cloud_Kit\src/tensorflow/lite/kernels/internal\types.h ****   return qp1.zero_point == qp2.zero_point && qp1.scale == qp2.scale;
 126:C:\Users\a5116938\Desktop\e2_studio_workspace\EEMBC_final\RX65N_Cloud_Kit\src/tensorflow/lite/kernels/internal\types.h **** }
 127:C:\Users\a5116938\Desktop\e2_studio_workspace\EEMBC_final\RX65N_Cloud_Kit\src/tensorflow/lite/kernels/internal\types.h **** 
 128:C:\Users\a5116938\Desktop\e2_studio_workspace\EEMBC_final\RX65N_Cloud_Kit\src/tensorflow/lite/kernels/internal\types.h **** template <int N>
 129:C:\Users\a5116938\Desktop\e2_studio_workspace\EEMBC_final\RX65N_Cloud_Kit\src/tensorflow/lite/kernels/internal\types.h **** struct Dims {
 130:C:\Users\a5116938\Desktop\e2_studio_workspace\EEMBC_final\RX65N_Cloud_Kit\src/tensorflow/lite/kernels/internal\types.h ****   int sizes[N];
 131:C:\Users\a5116938\Desktop\e2_studio_workspace\EEMBC_final\RX65N_Cloud_Kit\src/tensorflow/lite/kernels/internal\types.h ****   int strides[N];
 132:C:\Users\a5116938\Desktop\e2_studio_workspace\EEMBC_final\RX65N_Cloud_Kit\src/tensorflow/lite/kernels/internal\types.h **** };
 133:C:\Users\a5116938\Desktop\e2_studio_workspace\EEMBC_final\RX65N_Cloud_Kit\src/tensorflow/lite/kernels/internal\types.h **** 
 134:C:\Users\a5116938\Desktop\e2_studio_workspace\EEMBC_final\RX65N_Cloud_Kit\src/tensorflow/lite/kernels/internal\types.h **** class RuntimeShape {
 135:C:\Users\a5116938\Desktop\e2_studio_workspace\EEMBC_final\RX65N_Cloud_Kit\src/tensorflow/lite/kernels/internal\types.h ****  public:
 136:C:\Users\a5116938\Desktop\e2_studio_workspace\EEMBC_final\RX65N_Cloud_Kit\src/tensorflow/lite/kernels/internal\types.h ****   // Shapes with dimensions up to 5 are stored directly in the structure, while
 137:C:\Users\a5116938\Desktop\e2_studio_workspace\EEMBC_final\RX65N_Cloud_Kit\src/tensorflow/lite/kernels/internal\types.h ****   // larger shapes are separately allocated.
 138:C:\Users\a5116938\Desktop\e2_studio_workspace\EEMBC_final\RX65N_Cloud_Kit\src/tensorflow/lite/kernels/internal\types.h ****   static constexpr int kMaxSmallSize = 5;
 139:C:\Users\a5116938\Desktop\e2_studio_workspace\EEMBC_final\RX65N_Cloud_Kit\src/tensorflow/lite/kernels/internal\types.h **** 
 140:C:\Users\a5116938\Desktop\e2_studio_workspace\EEMBC_final\RX65N_Cloud_Kit\src/tensorflow/lite/kernels/internal\types.h ****   RuntimeShape& operator=(RuntimeShape const&) = delete;
 141:C:\Users\a5116938\Desktop\e2_studio_workspace\EEMBC_final\RX65N_Cloud_Kit\src/tensorflow/lite/kernels/internal\types.h **** 
 142:C:\Users\a5116938\Desktop\e2_studio_workspace\EEMBC_final\RX65N_Cloud_Kit\src/tensorflow/lite/kernels/internal\types.h ****   RuntimeShape() : size_(0) {}
 143:C:\Users\a5116938\Desktop\e2_studio_workspace\EEMBC_final\RX65N_Cloud_Kit\src/tensorflow/lite/kernels/internal\types.h **** 
 144:C:\Users\a5116938\Desktop\e2_studio_workspace\EEMBC_final\RX65N_Cloud_Kit\src/tensorflow/lite/kernels/internal\types.h ****   explicit RuntimeShape(int dimensions_count) : size_(dimensions_count) {
 145:C:\Users\a5116938\Desktop\e2_studio_workspace\EEMBC_final\RX65N_Cloud_Kit\src/tensorflow/lite/kernels/internal\types.h ****     if (dimensions_count > kMaxSmallSize) {
 146:C:\Users\a5116938\Desktop\e2_studio_workspace\EEMBC_final\RX65N_Cloud_Kit\src/tensorflow/lite/kernels/internal\types.h **** #ifdef TF_LITE_STATIC_MEMORY
 147:C:\Users\a5116938\Desktop\e2_studio_workspace\EEMBC_final\RX65N_Cloud_Kit\src/tensorflow/lite/kernels/internal\types.h ****       TFLITE_CHECK(false && "No shape resizing supported on this platform");
 148:C:\Users\a5116938\Desktop\e2_studio_workspace\EEMBC_final\RX65N_Cloud_Kit\src/tensorflow/lite/kernels/internal\types.h **** #else  // TF_LITE_STATIC_MEMORY
 149:C:\Users\a5116938\Desktop\e2_studio_workspace\EEMBC_final\RX65N_Cloud_Kit\src/tensorflow/lite/kernels/internal\types.h ****       dims_pointer_ = new int32_t[dimensions_count];
 150:C:\Users\a5116938\Desktop\e2_studio_workspace\EEMBC_final\RX65N_Cloud_Kit\src/tensorflow/lite/kernels/internal\types.h **** #endif  // TF_LITE_STATIC_MEMORY
 151:C:\Users\a5116938\Desktop\e2_studio_workspace\EEMBC_final\RX65N_Cloud_Kit\src/tensorflow/lite/kernels/internal\types.h ****     }
 152:C:\Users\a5116938\Desktop\e2_studio_workspace\EEMBC_final\RX65N_Cloud_Kit\src/tensorflow/lite/kernels/internal\types.h ****   }
 153:C:\Users\a5116938\Desktop\e2_studio_workspace\EEMBC_final\RX65N_Cloud_Kit\src/tensorflow/lite/kernels/internal\types.h **** 
 154:C:\Users\a5116938\Desktop\e2_studio_workspace\EEMBC_final\RX65N_Cloud_Kit\src/tensorflow/lite/kernels/internal\types.h ****   RuntimeShape(int shape_size, int32_t value) : size_(0) {
 155:C:\Users\a5116938\Desktop\e2_studio_workspace\EEMBC_final\RX65N_Cloud_Kit\src/tensorflow/lite/kernels/internal\types.h ****     Resize(shape_size);
 156:C:\Users\a5116938\Desktop\e2_studio_workspace\EEMBC_final\RX65N_Cloud_Kit\src/tensorflow/lite/kernels/internal\types.h ****     for (int i = 0; i < shape_size; ++i) {
 157:C:\Users\a5116938\Desktop\e2_studio_workspace\EEMBC_final\RX65N_Cloud_Kit\src/tensorflow/lite/kernels/internal\types.h ****       SetDim(i, value);
 158:C:\Users\a5116938\Desktop\e2_studio_workspace\EEMBC_final\RX65N_Cloud_Kit\src/tensorflow/lite/kernels/internal\types.h ****     }
 159:C:\Users\a5116938\Desktop\e2_studio_workspace\EEMBC_final\RX65N_Cloud_Kit\src/tensorflow/lite/kernels/internal\types.h ****   }
 160:C:\Users\a5116938\Desktop\e2_studio_workspace\EEMBC_final\RX65N_Cloud_Kit\src/tensorflow/lite/kernels/internal\types.h **** 
 161:C:\Users\a5116938\Desktop\e2_studio_workspace\EEMBC_final\RX65N_Cloud_Kit\src/tensorflow/lite/kernels/internal\types.h ****   RuntimeShape(int dimensions_count, const int32_t* dims_data) : size_(0) {
 162:C:\Users\a5116938\Desktop\e2_studio_workspace\EEMBC_final\RX65N_Cloud_Kit\src/tensorflow/lite/kernels/internal\types.h ****     ReplaceWith(dimensions_count, dims_data);
 429                             		.loc 4 162 5
 430                             	.LBB422:
 431                             	.LBB420:
 432                             	.LBB406:
 433                             	.LBB407:
 434                             	.LBB408:
 163:C:\Users\a5116938\Desktop\e2_studio_workspace\EEMBC_final\RX65N_Cloud_Kit\src/tensorflow/lite/kernels/internal\types.h ****   }
 164:C:\Users\a5116938\Desktop\e2_studio_workspace\EEMBC_final\RX65N_Cloud_Kit\src/tensorflow/lite/kernels/internal\types.h **** 
 165:C:\Users\a5116938\Desktop\e2_studio_workspace\EEMBC_final\RX65N_Cloud_Kit\src/tensorflow/lite/kernels/internal\types.h ****   RuntimeShape(const std::initializer_list<int> init_list) : size_(0) {
 166:C:\Users\a5116938\Desktop\e2_studio_workspace\EEMBC_final\RX65N_Cloud_Kit\src/tensorflow/lite/kernels/internal\types.h ****     BuildFrom(init_list);
 167:C:\Users\a5116938\Desktop\e2_studio_workspace\EEMBC_final\RX65N_Cloud_Kit\src/tensorflow/lite/kernels/internal\types.h ****   }
 168:C:\Users\a5116938\Desktop\e2_studio_workspace\EEMBC_final\RX65N_Cloud_Kit\src/tensorflow/lite/kernels/internal\types.h **** 
 169:C:\Users\a5116938\Desktop\e2_studio_workspace\EEMBC_final\RX65N_Cloud_Kit\src/tensorflow/lite/kernels/internal\types.h ****   // Avoid using this constructor.  We should be able to delete it when C++17
 170:C:\Users\a5116938\Desktop\e2_studio_workspace\EEMBC_final\RX65N_Cloud_Kit\src/tensorflow/lite/kernels/internal\types.h ****   // rolls out.
 171:C:\Users\a5116938\Desktop\e2_studio_workspace\EEMBC_final\RX65N_Cloud_Kit\src/tensorflow/lite/kernels/internal\types.h ****   RuntimeShape(RuntimeShape const& other) : size_(other.DimensionsCount()) {
 172:C:\Users\a5116938\Desktop\e2_studio_workspace\EEMBC_final\RX65N_Cloud_Kit\src/tensorflow/lite/kernels/internal\types.h ****     if (size_ > kMaxSmallSize) {
 173:C:\Users\a5116938\Desktop\e2_studio_workspace\EEMBC_final\RX65N_Cloud_Kit\src/tensorflow/lite/kernels/internal\types.h ****       dims_pointer_ = new int32_t[size_];
 174:C:\Users\a5116938\Desktop\e2_studio_workspace\EEMBC_final\RX65N_Cloud_Kit\src/tensorflow/lite/kernels/internal\types.h ****     }
 175:C:\Users\a5116938\Desktop\e2_studio_workspace\EEMBC_final\RX65N_Cloud_Kit\src/tensorflow/lite/kernels/internal\types.h ****     std::memcpy(DimsData(), other.DimsData(), sizeof(int32_t) * size_);
 176:C:\Users\a5116938\Desktop\e2_studio_workspace\EEMBC_final\RX65N_Cloud_Kit\src/tensorflow/lite/kernels/internal\types.h ****   }
 177:C:\Users\a5116938\Desktop\e2_studio_workspace\EEMBC_final\RX65N_Cloud_Kit\src/tensorflow/lite/kernels/internal\types.h **** 
 178:C:\Users\a5116938\Desktop\e2_studio_workspace\EEMBC_final\RX65N_Cloud_Kit\src/tensorflow/lite/kernels/internal\types.h ****   bool operator==(const RuntimeShape& comp) const {
 179:C:\Users\a5116938\Desktop\e2_studio_workspace\EEMBC_final\RX65N_Cloud_Kit\src/tensorflow/lite/kernels/internal\types.h ****     return this->size_ == comp.size_ &&
 180:C:\Users\a5116938\Desktop\e2_studio_workspace\EEMBC_final\RX65N_Cloud_Kit\src/tensorflow/lite/kernels/internal\types.h ****            std::memcmp(DimsData(), comp.DimsData(), size_ * sizeof(int32_t)) ==
 181:C:\Users\a5116938\Desktop\e2_studio_workspace\EEMBC_final\RX65N_Cloud_Kit\src/tensorflow/lite/kernels/internal\types.h ****                0;
 182:C:\Users\a5116938\Desktop\e2_studio_workspace\EEMBC_final\RX65N_Cloud_Kit\src/tensorflow/lite/kernels/internal\types.h ****   }
 183:C:\Users\a5116938\Desktop\e2_studio_workspace\EEMBC_final\RX65N_Cloud_Kit\src/tensorflow/lite/kernels/internal\types.h **** 
 184:C:\Users\a5116938\Desktop\e2_studio_workspace\EEMBC_final\RX65N_Cloud_Kit\src/tensorflow/lite/kernels/internal\types.h ****   ~RuntimeShape() {
 185:C:\Users\a5116938\Desktop\e2_studio_workspace\EEMBC_final\RX65N_Cloud_Kit\src/tensorflow/lite/kernels/internal\types.h ****     if (size_ > kMaxSmallSize) {
 186:C:\Users\a5116938\Desktop\e2_studio_workspace\EEMBC_final\RX65N_Cloud_Kit\src/tensorflow/lite/kernels/internal\types.h **** #ifdef TF_LITE_STATIC_MEMORY
 187:C:\Users\a5116938\Desktop\e2_studio_workspace\EEMBC_final\RX65N_Cloud_Kit\src/tensorflow/lite/kernels/internal\types.h ****       TFLITE_CHECK(false && "No shape resizing supported on this platform");
 188:C:\Users\a5116938\Desktop\e2_studio_workspace\EEMBC_final\RX65N_Cloud_Kit\src/tensorflow/lite/kernels/internal\types.h **** #else  // TF_LITE_STATIC_MEMORY
 189:C:\Users\a5116938\Desktop\e2_studio_workspace\EEMBC_final\RX65N_Cloud_Kit\src/tensorflow/lite/kernels/internal\types.h ****       delete[] dims_pointer_;
 190:C:\Users\a5116938\Desktop\e2_studio_workspace\EEMBC_final\RX65N_Cloud_Kit\src/tensorflow/lite/kernels/internal\types.h **** #endif  // TF_LITE_STATIC_MEMORY
 191:C:\Users\a5116938\Desktop\e2_studio_workspace\EEMBC_final\RX65N_Cloud_Kit\src/tensorflow/lite/kernels/internal\types.h ****     }
 192:C:\Users\a5116938\Desktop\e2_studio_workspace\EEMBC_final\RX65N_Cloud_Kit\src/tensorflow/lite/kernels/internal\types.h ****   }
 193:C:\Users\a5116938\Desktop\e2_studio_workspace\EEMBC_final\RX65N_Cloud_Kit\src/tensorflow/lite/kernels/internal\types.h **** 
 194:C:\Users\a5116938\Desktop\e2_studio_workspace\EEMBC_final\RX65N_Cloud_Kit\src/tensorflow/lite/kernels/internal\types.h ****   inline int32_t DimensionsCount() const { return size_; }
 195:C:\Users\a5116938\Desktop\e2_studio_workspace\EEMBC_final\RX65N_Cloud_Kit\src/tensorflow/lite/kernels/internal\types.h ****   inline int32_t Dims(int i) const {
 196:C:\Users\a5116938\Desktop\e2_studio_workspace\EEMBC_final\RX65N_Cloud_Kit\src/tensorflow/lite/kernels/internal\types.h ****     TFLITE_DCHECK_GE(i, 0);
 197:C:\Users\a5116938\Desktop\e2_studio_workspace\EEMBC_final\RX65N_Cloud_Kit\src/tensorflow/lite/kernels/internal\types.h ****     TFLITE_DCHECK_LT(i, size_);
 198:C:\Users\a5116938\Desktop\e2_studio_workspace\EEMBC_final\RX65N_Cloud_Kit\src/tensorflow/lite/kernels/internal\types.h ****     return size_ > kMaxSmallSize ? dims_pointer_[i] : dims_[i];
 199:C:\Users\a5116938\Desktop\e2_studio_workspace\EEMBC_final\RX65N_Cloud_Kit\src/tensorflow/lite/kernels/internal\types.h ****   }
 200:C:\Users\a5116938\Desktop\e2_studio_workspace\EEMBC_final\RX65N_Cloud_Kit\src/tensorflow/lite/kernels/internal\types.h ****   inline void SetDim(int i, int32_t val) {
 201:C:\Users\a5116938\Desktop\e2_studio_workspace\EEMBC_final\RX65N_Cloud_Kit\src/tensorflow/lite/kernels/internal\types.h ****     TFLITE_DCHECK_GE(i, 0);
 202:C:\Users\a5116938\Desktop\e2_studio_workspace\EEMBC_final\RX65N_Cloud_Kit\src/tensorflow/lite/kernels/internal\types.h ****     TFLITE_DCHECK_LT(i, size_);
 203:C:\Users\a5116938\Desktop\e2_studio_workspace\EEMBC_final\RX65N_Cloud_Kit\src/tensorflow/lite/kernels/internal\types.h ****     if (size_ > kMaxSmallSize) {
 204:C:\Users\a5116938\Desktop\e2_studio_workspace\EEMBC_final\RX65N_Cloud_Kit\src/tensorflow/lite/kernels/internal\types.h ****       dims_pointer_[i] = val;
 205:C:\Users\a5116938\Desktop\e2_studio_workspace\EEMBC_final\RX65N_Cloud_Kit\src/tensorflow/lite/kernels/internal\types.h ****     } else {
 206:C:\Users\a5116938\Desktop\e2_studio_workspace\EEMBC_final\RX65N_Cloud_Kit\src/tensorflow/lite/kernels/internal\types.h ****       dims_[i] = val;
 207:C:\Users\a5116938\Desktop\e2_studio_workspace\EEMBC_final\RX65N_Cloud_Kit\src/tensorflow/lite/kernels/internal\types.h ****     }
 208:C:\Users\a5116938\Desktop\e2_studio_workspace\EEMBC_final\RX65N_Cloud_Kit\src/tensorflow/lite/kernels/internal\types.h ****   }
 209:C:\Users\a5116938\Desktop\e2_studio_workspace\EEMBC_final\RX65N_Cloud_Kit\src/tensorflow/lite/kernels/internal\types.h **** 
 210:C:\Users\a5116938\Desktop\e2_studio_workspace\EEMBC_final\RX65N_Cloud_Kit\src/tensorflow/lite/kernels/internal\types.h ****   inline int32_t* DimsData() {
 211:C:\Users\a5116938\Desktop\e2_studio_workspace\EEMBC_final\RX65N_Cloud_Kit\src/tensorflow/lite/kernels/internal\types.h ****     return size_ > kMaxSmallSize ? dims_pointer_ : dims_;
 212:C:\Users\a5116938\Desktop\e2_studio_workspace\EEMBC_final\RX65N_Cloud_Kit\src/tensorflow/lite/kernels/internal\types.h ****   }
 213:C:\Users\a5116938\Desktop\e2_studio_workspace\EEMBC_final\RX65N_Cloud_Kit\src/tensorflow/lite/kernels/internal\types.h ****   inline const int32_t* DimsData() const {
 214:C:\Users\a5116938\Desktop\e2_studio_workspace\EEMBC_final\RX65N_Cloud_Kit\src/tensorflow/lite/kernels/internal\types.h ****     return size_ > kMaxSmallSize ? dims_pointer_ : dims_;
 215:C:\Users\a5116938\Desktop\e2_studio_workspace\EEMBC_final\RX65N_Cloud_Kit\src/tensorflow/lite/kernels/internal\types.h ****   }
 216:C:\Users\a5116938\Desktop\e2_studio_workspace\EEMBC_final\RX65N_Cloud_Kit\src/tensorflow/lite/kernels/internal\types.h ****   // The caller must ensure that the shape is no bigger than 5-D.
 217:C:\Users\a5116938\Desktop\e2_studio_workspace\EEMBC_final\RX65N_Cloud_Kit\src/tensorflow/lite/kernels/internal\types.h ****   inline const int32_t* DimsDataUpTo5D() const { return dims_; }
 218:C:\Users\a5116938\Desktop\e2_studio_workspace\EEMBC_final\RX65N_Cloud_Kit\src/tensorflow/lite/kernels/internal\types.h **** 
 219:C:\Users\a5116938\Desktop\e2_studio_workspace\EEMBC_final\RX65N_Cloud_Kit\src/tensorflow/lite/kernels/internal\types.h ****   inline void Resize(int dimensions_count) {
 220:C:\Users\a5116938\Desktop\e2_studio_workspace\EEMBC_final\RX65N_Cloud_Kit\src/tensorflow/lite/kernels/internal\types.h ****     if (size_ > kMaxSmallSize) {
 221:C:\Users\a5116938\Desktop\e2_studio_workspace\EEMBC_final\RX65N_Cloud_Kit\src/tensorflow/lite/kernels/internal\types.h **** #ifdef TF_LITE_STATIC_MEMORY
 222:C:\Users\a5116938\Desktop\e2_studio_workspace\EEMBC_final\RX65N_Cloud_Kit\src/tensorflow/lite/kernels/internal\types.h ****       TFLITE_CHECK(false && "No shape resizing supported on this platform");
 223:C:\Users\a5116938\Desktop\e2_studio_workspace\EEMBC_final\RX65N_Cloud_Kit\src/tensorflow/lite/kernels/internal\types.h **** #else  // TF_LITE_STATIC_MEMORY
 224:C:\Users\a5116938\Desktop\e2_studio_workspace\EEMBC_final\RX65N_Cloud_Kit\src/tensorflow/lite/kernels/internal\types.h ****       delete[] dims_pointer_;
 225:C:\Users\a5116938\Desktop\e2_studio_workspace\EEMBC_final\RX65N_Cloud_Kit\src/tensorflow/lite/kernels/internal\types.h **** #endif  // TF_LITE_STATIC_MEMORY
 226:C:\Users\a5116938\Desktop\e2_studio_workspace\EEMBC_final\RX65N_Cloud_Kit\src/tensorflow/lite/kernels/internal\types.h ****     }
 227:C:\Users\a5116938\Desktop\e2_studio_workspace\EEMBC_final\RX65N_Cloud_Kit\src/tensorflow/lite/kernels/internal\types.h ****     size_ = dimensions_count;
 228:C:\Users\a5116938\Desktop\e2_studio_workspace\EEMBC_final\RX65N_Cloud_Kit\src/tensorflow/lite/kernels/internal\types.h ****     if (dimensions_count > kMaxSmallSize) {
 229:C:\Users\a5116938\Desktop\e2_studio_workspace\EEMBC_final\RX65N_Cloud_Kit\src/tensorflow/lite/kernels/internal\types.h **** #ifdef TF_LITE_STATIC_MEMORY
 230:C:\Users\a5116938\Desktop\e2_studio_workspace\EEMBC_final\RX65N_Cloud_Kit\src/tensorflow/lite/kernels/internal\types.h ****       TFLITE_CHECK(false && "No shape resizing supported on this platform");
 231:C:\Users\a5116938\Desktop\e2_studio_workspace\EEMBC_final\RX65N_Cloud_Kit\src/tensorflow/lite/kernels/internal\types.h **** #else  // TF_LITE_STATIC_MEMORY
 232:C:\Users\a5116938\Desktop\e2_studio_workspace\EEMBC_final\RX65N_Cloud_Kit\src/tensorflow/lite/kernels/internal\types.h ****       dims_pointer_ = new int32_t[dimensions_count];
 233:C:\Users\a5116938\Desktop\e2_studio_workspace\EEMBC_final\RX65N_Cloud_Kit\src/tensorflow/lite/kernels/internal\types.h **** #endif  // TF_LITE_STATIC_MEMORY
 234:C:\Users\a5116938\Desktop\e2_studio_workspace\EEMBC_final\RX65N_Cloud_Kit\src/tensorflow/lite/kernels/internal\types.h ****     }
 235:C:\Users\a5116938\Desktop\e2_studio_workspace\EEMBC_final\RX65N_Cloud_Kit\src/tensorflow/lite/kernels/internal\types.h ****   }
 236:C:\Users\a5116938\Desktop\e2_studio_workspace\EEMBC_final\RX65N_Cloud_Kit\src/tensorflow/lite/kernels/internal\types.h **** 
 237:C:\Users\a5116938\Desktop\e2_studio_workspace\EEMBC_final\RX65N_Cloud_Kit\src/tensorflow/lite/kernels/internal\types.h ****   inline void ReplaceWith(int dimensions_count, const int32_t* dims_data) {
 238:C:\Users\a5116938\Desktop\e2_studio_workspace\EEMBC_final\RX65N_Cloud_Kit\src/tensorflow/lite/kernels/internal\types.h ****     Resize(dimensions_count);
 435                             		.loc 4 238 5
 436                             	.LBB409:
 437                             	.LBB410:
 220:C:\Users\a5116938\Desktop\e2_studio_workspace\EEMBC_final\RX65N_Cloud_Kit\src/tensorflow/lite/kernels/internal\types.h **** #ifdef TF_LITE_STATIC_MEMORY
 438                             		.loc 4 220 5
 227:C:\Users\a5116938\Desktop\e2_studio_workspace\EEMBC_final\RX65N_Cloud_Kit\src/tensorflow/lite/kernels/internal\types.h ****     if (dimensions_count > kMaxSmallSize) {
 439                             		.loc 4 227 5
 227:C:\Users\a5116938\Desktop\e2_studio_workspace\EEMBC_final\RX65N_Cloud_Kit\src/tensorflow/lite/kernels/internal\types.h ****     if (dimensions_count > kMaxSmallSize) {
 440                             		.loc 4 227 11 is_stmt 0
 441 020a A2 01                   		mov.L	r1, 32[r0]
 228:C:\Users\a5116938\Desktop\e2_studio_workspace\EEMBC_final\RX65N_Cloud_Kit\src/tensorflow/lite/kernels/internal\types.h **** #ifdef TF_LITE_STATIC_MEMORY
 442                             		.loc 4 228 5 is_stmt 1
 443 020c FD C2 13                		shll	#2, r1, r3
 444 020f 61 51                   		cmp	#5, r1
 445 0211 2B 6C                   		ble	.L64
 446                             	.LVL47:
 447                             	.LBB411:
 448                             	.LBB412:
 232:C:\Users\a5116938\Desktop\e2_studio_workspace\EEMBC_final\RX65N_Cloud_Kit\src/tensorflow/lite/kernels/internal\types.h **** #endif  // TF_LITE_STATIC_MEMORY
 449                             		.loc 4 232 7
 232:C:\Users\a5116938\Desktop\e2_studio_workspace\EEMBC_final\RX65N_Cloud_Kit\src/tensorflow/lite/kernels/internal\types.h **** #endif  // TF_LITE_STATIC_MEMORY
 450                             		.loc 4 232 51 is_stmt 0
 451 0213 74 01 FF FF FF 1F       		cmp	#0x1fffffff, r1
 452 0219 EF 31                   		mov.L	r3, r1
 453                             	.LVL48:
 454 021b 2B 05                   		ble 1f
 455 021d FB 16 FF                		mov #-1, r1
 456                             	1:
 457 0220 A3 8B                   		mov.L	r3, 60[r0]
 458 0222 05 00 00 00             		bsr	__Znam
 459                             	.LVL49:
 232:C:\Users\a5116938\Desktop\e2_studio_workspace\EEMBC_final\RX65N_Cloud_Kit\src/tensorflow/lite/kernels/internal\types.h **** #endif  // TF_LITE_STATIC_MEMORY
 460                             		.loc 4 232 21
 461 0226 A2 09                   		mov.L	r1, 36[r0]
 462                             	.LBE412:
 463                             	.LBE411:
 464                             	.LBE410:
 465                             	.LBE409:
 239:C:\Users\a5116938\Desktop\e2_studio_workspace\EEMBC_final\RX65N_Cloud_Kit\src/tensorflow/lite/kernels/internal\types.h ****     int32_t* dst_dims = DimsData();
 466                             		.loc 4 239 5 is_stmt 1
 467                             	.LVL50:
 468                             	.LBB413:
 469                             	.LBB414:
 211:C:\Users\a5116938\Desktop\e2_studio_workspace\EEMBC_final\RX65N_Cloud_Kit\src/tensorflow/lite/kernels/internal\types.h ****   }
 470                             		.loc 4 211 5
 471 0228 AB 8B                   		mov.L	60[r0], r3
 472                             	.LVL51:
 473                             		.balign 8,3,2
 474                             	.L21:
 475                             	.LBE414:
 476                             	.LBE413:
 240:C:\Users\a5116938\Desktop\e2_studio_workspace\EEMBC_final\RX65N_Cloud_Kit\src/tensorflow/lite/kernels/internal\types.h ****     std::memcpy(dst_dims, dims_data, dimensions_count * sizeof(int32_t));
 477                             		.loc 4 240 5
 478                             		.loc 4 240 16 is_stmt 0
 479 022a 71 B2 04                		add	#4, r11, r2
 480 022d 7F 8F                   		smovf
 481                             	.LVL52:
 482                             	.LBE408:
 483                             	.LBE407:
 484                             	.LBE406:
 485                             	.LBE420:
 486                             	.LBE422:
 487                             	.LBB423:
 488                             	.LBB424:
 241:C:\Users\a5116938\Desktop\e2_studio_workspace\EEMBC_final\RX65N_Cloud_Kit\src/tensorflow/lite/kernels/internal\types.h ****   }
 242:C:\Users\a5116938\Desktop\e2_studio_workspace\EEMBC_final\RX65N_Cloud_Kit\src/tensorflow/lite/kernels/internal\types.h **** 
 243:C:\Users\a5116938\Desktop\e2_studio_workspace\EEMBC_final\RX65N_Cloud_Kit\src/tensorflow/lite/kernels/internal\types.h ****   template <typename T>
 244:C:\Users\a5116938\Desktop\e2_studio_workspace\EEMBC_final\RX65N_Cloud_Kit\src/tensorflow/lite/kernels/internal\types.h ****   inline void BuildFrom(const T& src_iterable) {
 245:C:\Users\a5116938\Desktop\e2_studio_workspace\EEMBC_final\RX65N_Cloud_Kit\src/tensorflow/lite/kernels/internal\types.h ****     const int dimensions_count =
 246:C:\Users\a5116938\Desktop\e2_studio_workspace\EEMBC_final\RX65N_Cloud_Kit\src/tensorflow/lite/kernels/internal\types.h ****         std::distance(src_iterable.begin(), src_iterable.end());
 247:C:\Users\a5116938\Desktop\e2_studio_workspace\EEMBC_final\RX65N_Cloud_Kit\src/tensorflow/lite/kernels/internal\types.h ****     Resize(dimensions_count);
 248:C:\Users\a5116938\Desktop\e2_studio_workspace\EEMBC_final\RX65N_Cloud_Kit\src/tensorflow/lite/kernels/internal\types.h ****     int32_t* data = DimsData();
 249:C:\Users\a5116938\Desktop\e2_studio_workspace\EEMBC_final\RX65N_Cloud_Kit\src/tensorflow/lite/kernels/internal\types.h ****     for (auto it : src_iterable) {
 250:C:\Users\a5116938\Desktop\e2_studio_workspace\EEMBC_final\RX65N_Cloud_Kit\src/tensorflow/lite/kernels/internal\types.h ****       *data = it;
 251:C:\Users\a5116938\Desktop\e2_studio_workspace\EEMBC_final\RX65N_Cloud_Kit\src/tensorflow/lite/kernels/internal\types.h ****       ++data;
 252:C:\Users\a5116938\Desktop\e2_studio_workspace\EEMBC_final\RX65N_Cloud_Kit\src/tensorflow/lite/kernels/internal\types.h ****     }
 253:C:\Users\a5116938\Desktop\e2_studio_workspace\EEMBC_final\RX65N_Cloud_Kit\src/tensorflow/lite/kernels/internal\types.h ****   }
 254:C:\Users\a5116938\Desktop\e2_studio_workspace\EEMBC_final\RX65N_Cloud_Kit\src/tensorflow/lite/kernels/internal\types.h **** 
 255:C:\Users\a5116938\Desktop\e2_studio_workspace\EEMBC_final\RX65N_Cloud_Kit\src/tensorflow/lite/kernels/internal\types.h ****   // This will probably be factored out. Old code made substantial use of 4-D
 256:C:\Users\a5116938\Desktop\e2_studio_workspace\EEMBC_final\RX65N_Cloud_Kit\src/tensorflow/lite/kernels/internal\types.h ****   // shapes, and so this function is used to extend smaller shapes. Note that
 257:C:\Users\a5116938\Desktop\e2_studio_workspace\EEMBC_final\RX65N_Cloud_Kit\src/tensorflow/lite/kernels/internal\types.h ****   // (a) as Dims<4>-dependent code is eliminated, the reliance on this should be
 258:C:\Users\a5116938\Desktop\e2_studio_workspace\EEMBC_final\RX65N_Cloud_Kit\src/tensorflow/lite/kernels/internal\types.h ****   // reduced, and (b) some kernels are stricly 4-D, but then the shapes of their
 259:C:\Users\a5116938\Desktop\e2_studio_workspace\EEMBC_final\RX65N_Cloud_Kit\src/tensorflow/lite/kernels/internal\types.h ****   // inputs should already be 4-D, so this function should not be needed.
 260:C:\Users\a5116938\Desktop\e2_studio_workspace\EEMBC_final\RX65N_Cloud_Kit\src/tensorflow/lite/kernels/internal\types.h ****   inline static RuntimeShape ExtendedShape(int new_shape_size,
 261:C:\Users\a5116938\Desktop\e2_studio_workspace\EEMBC_final\RX65N_Cloud_Kit\src/tensorflow/lite/kernels/internal\types.h ****                                            const RuntimeShape& shape) {
 262:C:\Users\a5116938\Desktop\e2_studio_workspace\EEMBC_final\RX65N_Cloud_Kit\src/tensorflow/lite/kernels/internal\types.h ****     return RuntimeShape(new_shape_size, shape, 1);
 263:C:\Users\a5116938\Desktop\e2_studio_workspace\EEMBC_final\RX65N_Cloud_Kit\src/tensorflow/lite/kernels/internal\types.h ****   }
 264:C:\Users\a5116938\Desktop\e2_studio_workspace\EEMBC_final\RX65N_Cloud_Kit\src/tensorflow/lite/kernels/internal\types.h **** 
 265:C:\Users\a5116938\Desktop\e2_studio_workspace\EEMBC_final\RX65N_Cloud_Kit\src/tensorflow/lite/kernels/internal\types.h ****   inline void BuildFrom(const std::initializer_list<int> init_list) {
 266:C:\Users\a5116938\Desktop\e2_studio_workspace\EEMBC_final\RX65N_Cloud_Kit\src/tensorflow/lite/kernels/internal\types.h ****     BuildFrom<const std::initializer_list<int>>(init_list);
 267:C:\Users\a5116938\Desktop\e2_studio_workspace\EEMBC_final\RX65N_Cloud_Kit\src/tensorflow/lite/kernels/internal\types.h ****   }
 268:C:\Users\a5116938\Desktop\e2_studio_workspace\EEMBC_final\RX65N_Cloud_Kit\src/tensorflow/lite/kernels/internal\types.h **** 
 269:C:\Users\a5116938\Desktop\e2_studio_workspace\EEMBC_final\RX65N_Cloud_Kit\src/tensorflow/lite/kernels/internal\types.h ****   // Returns the total count of elements, that is the size when flattened into a
 270:C:\Users\a5116938\Desktop\e2_studio_workspace\EEMBC_final\RX65N_Cloud_Kit\src/tensorflow/lite/kernels/internal\types.h ****   // vector.
 271:C:\Users\a5116938\Desktop\e2_studio_workspace\EEMBC_final\RX65N_Cloud_Kit\src/tensorflow/lite/kernels/internal\types.h ****   inline int FlatSize() const {
 272:C:\Users\a5116938\Desktop\e2_studio_workspace\EEMBC_final\RX65N_Cloud_Kit\src/tensorflow/lite/kernels/internal\types.h ****     int buffer_size = 1;
 489                             		.loc 4 272 5 is_stmt 1
 273:C:\Users\a5116938\Desktop\e2_studio_workspace\EEMBC_final\RX65N_Cloud_Kit\src/tensorflow/lite/kernels/internal\types.h ****     const int* dims_data = reinterpret_cast<const int*>(DimsData());
 490                             		.loc 4 273 5
 491                             	.LBB425:
 492                             	.LBB426:
 214:C:\Users\a5116938\Desktop\e2_studio_workspace\EEMBC_final\RX65N_Cloud_Kit\src/tensorflow/lite/kernels/internal\types.h ****   }
 493                             		.loc 4 214 5
 214:C:\Users\a5116938\Desktop\e2_studio_workspace\EEMBC_final\RX65N_Cloud_Kit\src/tensorflow/lite/kernels/internal\types.h ****   }
 494                             		.loc 4 214 12 is_stmt 0
 495 022f AA 03                   		mov.L	32[r0], r3
 496 0231 ED 95 02                		mov.L	8[r9], r5
 214:C:\Users\a5116938\Desktop\e2_studio_workspace\EEMBC_final\RX65N_Cloud_Kit\src/tensorflow/lite/kernels/internal\types.h ****   }
 497                             		.loc 4 214 34
 498 0234 61 53                   		cmp	#5, r3
 499 0236 2B 4C                   		ble	.L23
 500 0238 AA 0A                   		mov.L	36[r0], r2
 501                             	.LVL53:
 502                             	.LBE426:
 503                             	.LBE425:
 274:C:\Users\a5116938\Desktop\e2_studio_workspace\EEMBC_final\RX65N_Cloud_Kit\src/tensorflow/lite/kernels/internal\types.h ****     for (int i = 0; i < size_; i++) {
 504                             		.loc 4 274 5 is_stmt 1
 505 023a EC 5E                   		mov.L	[r5], r14
 506 023c 4B EE                   		add	r14, r14
 507                             		.balign 8,3,1
 508                             	.L24:
 509                             	.LBB429:
 510                             	.LBB427:
 214:C:\Users\a5116938\Desktop\e2_studio_workspace\EEMBC_final\RX65N_Cloud_Kit\src/tensorflow/lite/kernels/internal\types.h ****   }
 511                             		.loc 4 214 34 is_stmt 0
 512 023e EF AB                   		mov.L	r10, r11
 513                             	.LVL54:
 514 0240 66 05                   		mov.L	#0, r5
 515                             	.LVL55:
 516                             		.balign 8,3,3
 517                             	.L26:
 518                             	.LBE427:
 519                             	.LBE429:
 520                             	.LBB430:
 275:C:\Users\a5116938\Desktop\e2_studio_workspace\EEMBC_final\RX65N_Cloud_Kit\src/tensorflow/lite/kernels/internal\types.h ****       buffer_size *= dims_data[i];
 521                             		.loc 4 275 7 is_stmt 1
 522                             		.loc 4 275 19 is_stmt 0
 523 0242 FE 65 24                		mov.L	[r5,r2], r4
 274:C:\Users\a5116938\Desktop\e2_studio_workspace\EEMBC_final\RX65N_Cloud_Kit\src/tensorflow/lite/kernels/internal\types.h ****     for (int i = 0; i < size_; i++) {
 524                             		.loc 4 274 5
 525 0245 62 15                   		add	#1, r5
 526                             	.LVL56:
 527                             		.loc 4 275 19
 528 0247 4F 4B                   		mul	r4, r11
 529                             	.LVL57:
 274:C:\Users\a5116938\Desktop\e2_studio_workspace\EEMBC_final\RX65N_Cloud_Kit\src/tensorflow/lite/kernels/internal\types.h ****     for (int i = 0; i < size_; i++) {
 530                             		.loc 4 274 23
 531 0249 47 53                   		cmp	r5, r3
 532 024b 2A F7                   		bgt	.L26
 533                             	.LBE430:
 276:C:\Users\a5116938\Desktop\e2_studio_workspace\EEMBC_final\RX65N_Cloud_Kit\src/tensorflow/lite/kernels/internal\types.h ****     }
 277:C:\Users\a5116938\Desktop\e2_studio_workspace\EEMBC_final\RX65N_Cloud_Kit\src/tensorflow/lite/kernels/internal\types.h ****     return buffer_size;
 534                             		.loc 4 277 5 is_stmt 1
 535                             	.LVL58:
 536                             	.LBE424:
 537                             	.LBE423:
 538                             	.LBB434:
 539                             	.LBB435:
 185:C:\Users\a5116938\Desktop\e2_studio_workspace\EEMBC_final\RX65N_Cloud_Kit\src/tensorflow/lite/kernels/internal\types.h **** #ifdef TF_LITE_STATIC_MEMORY
 540                             		.loc 4 185 5
 541 024d 61 53                   		cmp	#5, r3
 542 024f 2B 12                   		ble	.L27
 189:C:\Users\a5116938\Desktop\e2_studio_workspace\EEMBC_final\RX65N_Cloud_Kit\src/tensorflow/lite/kernels/internal\types.h **** #endif  // TF_LITE_STATIC_MEMORY
 543                             		.loc 4 189 7
 189:C:\Users\a5116938\Desktop\e2_studio_workspace\EEMBC_final\RX65N_Cloud_Kit\src/tensorflow/lite/kernels/internal\types.h **** #endif  // TF_LITE_STATIC_MEMORY
 544                             		.loc 4 189 16 is_stmt 0
 545 0251 AA 09                   		mov.L	36[r0], r1
 189:C:\Users\a5116938\Desktop\e2_studio_workspace\EEMBC_final\RX65N_Cloud_Kit\src/tensorflow/lite/kernels/internal\types.h **** #endif  // TF_LITE_STATIC_MEMORY
 546                             		.loc 4 189 29
 547 0253 61 01                   		cmp	#0, r1
 548 0255 20 0C                   		beq	.L27
 189:C:\Users\a5116938\Desktop\e2_studio_workspace\EEMBC_final\RX65N_Cloud_Kit\src/tensorflow/lite/kernels/internal\types.h **** #endif  // TF_LITE_STATIC_MEMORY
 549                             		.loc 4 189 16
 550 0257 E7 0E 0F                		mov.L	r14, 60[r0]
 551 025a 05 00 00 00             		bsr	__ZdaPv
 552                             	.LVL59:
 553 025e ED 0E 0F                		mov.L	60[r0], r14
 554                             		.balign 8,3,1
 555                             	.L27:
 556                             	.LVL60:
 557                             	.LBE435:
 558                             	.LBE434:
  74:../src/tensorflow/lite/micro/kernels/pad.cc ****                     output->dims->size * 2);
 559                             		.loc 1 74 3
 560 0261 47 EB                   		cmp	r14, r11
 561 0263 3B 4E 01                		bne	.L62
  80:../src/tensorflow/lite/micro/kernels/pad.cc ****   const int32_t* paddings_data = GetTensorData<int32_t>(paddings);
 562                             		.loc 1 80 3 is_stmt 1
  80:../src/tensorflow/lite/micro/kernels/pad.cc ****   const int32_t* paddings_data = GetTensorData<int32_t>(paddings);
 563                             		.loc 1 80 3
 564 0266 ED 8B 05                		mov.L	20[r8], r11
 565                             	.LVL61:
 171:C:\Users\a5116938\Desktop\e2_studio_workspace\EEMBC_final\RX65N_Cloud_Kit\src/tensorflow/lite/kernels\kernel_util.h **** }
 172:C:\Users\a5116938\Desktop\e2_studio_workspace\EEMBC_final\RX65N_Cloud_Kit\src/tensorflow/lite/kernels\kernel_util.h **** 
 173:C:\Users\a5116938\Desktop\e2_studio_workspace\EEMBC_final\RX65N_Cloud_Kit\src/tensorflow/lite/kernels\kernel_util.h **** // Determines whether tensor is constant.
 174:C:\Users\a5116938\Desktop\e2_studio_workspace\EEMBC_final\RX65N_Cloud_Kit\src/tensorflow/lite/kernels\kernel_util.h **** // TODO(b/138199592): Introduce new query which checks for constant OR
 175:C:\Users\a5116938\Desktop\e2_studio_workspace\EEMBC_final\RX65N_Cloud_Kit\src/tensorflow/lite/kernels\kernel_util.h **** // persistent-read-only, which would be useful for most tensor kernels that
 176:C:\Users\a5116938\Desktop\e2_studio_workspace\EEMBC_final\RX65N_Cloud_Kit\src/tensorflow/lite/kernels\kernel_util.h **** // are potentially dynamic based on the input tensor value availability at the
 177:C:\Users\a5116938\Desktop\e2_studio_workspace\EEMBC_final\RX65N_Cloud_Kit\src/tensorflow/lite/kernels\kernel_util.h **** // time of prepare.
 178:C:\Users\a5116938\Desktop\e2_studio_workspace\EEMBC_final\RX65N_Cloud_Kit\src/tensorflow/lite/kernels\kernel_util.h **** inline bool IsConstantTensor(const TfLiteTensor* tensor) {
 179:C:\Users\a5116938\Desktop\e2_studio_workspace\EEMBC_final\RX65N_Cloud_Kit\src/tensorflow/lite/kernels\kernel_util.h ****   return tensor->allocation_type == kTfLiteMmapRo;
 566                             		.loc 2 179 3
  80:../src/tensorflow/lite/micro/kernels/pad.cc ****   const int32_t* paddings_data = GetTensorData<int32_t>(paddings);
 567                             		.loc 1 80 3 is_stmt 0
 568 0269 61 1B                   		cmp	#1, r11
 569 026b 20 27                   		beq	.L34
  80:../src/tensorflow/lite/micro/kernels/pad.cc ****   const int32_t* paddings_data = GetTensorData<int32_t>(paddings);
 570                             		.loc 1 80 3 is_stmt 1 discriminator 1
  80:../src/tensorflow/lite/micro/kernels/pad.cc ****   const int32_t* paddings_data = GetTensorData<int32_t>(paddings);
 571                             		.loc 1 80 3 discriminator 1
 572 026d ED 7A 05                		mov.L	20[r7], r10
 573 0270 F9 02 03 9F 01 00 00    		mov.L	#.LC17, 12[r0]
 574 0277 3E 02 50                		mov.L	#0x50, 8[r0]
 575 027a 38 C4 FE                		bra	.L102
 576                             	.LVL62:
 577                             	.L64:
 578                             	.LBB436:
 579                             	.LBB421:
 580                             	.LBB419:
 581                             	.LBB418:
 582                             	.LBB417:
 583                             	.LBB416:
 584                             	.LBB415:
 211:C:\Users\a5116938\Desktop\e2_studio_workspace\EEMBC_final\RX65N_Cloud_Kit\src/tensorflow/lite/kernels/internal\types.h ****   }
 585                             		.loc 4 211 34 is_stmt 0
 586 027d 71 01 24                		add	#36, r0, r1
 587                             	.LVL63:
 588 0280 2E AA                   		bra	.L21
 589                             	.LVL64:
 590                             	.L23:
 591                             	.LBE415:
 592                             	.LBE416:
 593                             	.LBE417:
 594                             	.LBE418:
 595                             	.LBE419:
 596                             	.LBE421:
 597                             	.LBE436:
 598                             	.LBB437:
 599                             	.LBB433:
 274:C:\Users\a5116938\Desktop\e2_studio_workspace\EEMBC_final\RX65N_Cloud_Kit\src/tensorflow/lite/kernels/internal\types.h ****       buffer_size *= dims_data[i];
 600                             		.loc 4 274 5 is_stmt 1
 601 0282 EC 5E                   		mov.L	[r5], r14
 602 0284 4B EE                   		add	r14, r14
 603                             	.LBB431:
 274:C:\Users\a5116938\Desktop\e2_studio_workspace\EEMBC_final\RX65N_Cloud_Kit\src/tensorflow/lite/kernels/internal\types.h ****       buffer_size *= dims_data[i];
 604                             		.loc 4 274 23 is_stmt 0
 605 0286 61 03                   		cmp	#0, r3
 606 0288 2A 05 38 27 01          		ble	.L62
 607                             	.LBE431:
 608                             	.LBB432:
 609                             	.LBB428:
 214:C:\Users\a5116938\Desktop\e2_studio_workspace\EEMBC_final\RX65N_Cloud_Kit\src/tensorflow/lite/kernels/internal\types.h ****   }
 610                             		.loc 4 214 34
 611 028d 71 02 24                		add	#36, r0, r2
 612                             	.LVL65:
 613 0290 2E AE                   		bra	.L24
 614                             	.LVL66:
 615                             	.L34:
 616                             	.LBE428:
 617                             	.LBE432:
 618                             	.LBE433:
 619                             	.LBE437:
  81:../src/tensorflow/lite/micro/kernels/pad.cc ****   for (int i = 0; i < output->dims->size; i++) {
 620                             		.loc 1 81 3 is_stmt 1
 621                             	.LBB438:
  82:../src/tensorflow/lite/micro/kernels/pad.cc ****     int output_dim = output->dims->data[i];
 622                             		.loc 1 82 31 is_stmt 0
 623 0292 ED 91 02                		mov.L	8[r9], r1
 624                             	.LBE438:
 625                             	.LBB442:
 626                             	.LBB443:
  30:C:\Users\a5116938\Desktop\e2_studio_workspace\EEMBC_final\RX65N_Cloud_Kit\src/tensorflow/lite/kernels/internal\tensor_ctypes.h ****                            : nullptr;
 627                             		.loc 3 30 28
 628 0295 E5 80 01 0E             		mov.L	4[r8], 56[r0]
 629                             	.LVL67:
 630                             	.LBE443:
 631                             	.LBE442:
  82:../src/tensorflow/lite/micro/kernels/pad.cc ****     int output_dim = output->dims->data[i];
 632                             		.loc 1 82 3 is_stmt 1
 633                             	.LBB444:
  82:../src/tensorflow/lite/micro/kernels/pad.cc ****     int output_dim = output->dims->data[i];
 634                             		.loc 1 82 37 is_stmt 0
 635 0299 EC 1F                   		mov.L	[r1], r15
  82:../src/tensorflow/lite/micro/kernels/pad.cc ****     int output_dim = output->dims->data[i];
 636                             		.loc 1 82 21
 637 029b 61 0F                   		cmp	#0, r15
 638 029d 2B 3E                   		ble	.L35
 639                             	.LBB439:
  83:../src/tensorflow/lite/micro/kernels/pad.cc ****     int expected_dim =
 640                             		.loc 1 83 5 is_stmt 1
  85:../src/tensorflow/lite/micro/kernels/pad.cc ****     TF_LITE_ENSURE_EQ(context, output_dim, expected_dim);
 641                             		.loc 1 85 16 is_stmt 0
 642 029f ED CE 02                		mov.L	8[r12], r14
  83:../src/tensorflow/lite/micro/kernels/pad.cc ****     int expected_dim =
 643                             		.loc 1 83 42
 644 02a2 A8 1A                   		mov.L	4[r1], r2
 645                             	.LVL68:
  84:../src/tensorflow/lite/micro/kernels/pad.cc ****         input->dims->data[i] + paddings_data[i * 2] + paddings_data[i * 2 + 1];
 646                             		.loc 1 84 5 is_stmt 1
  85:../src/tensorflow/lite/micro/kernels/pad.cc ****     TF_LITE_ENSURE_EQ(context, output_dim, expected_dim);
 647                             		.loc 1 85 30 is_stmt 0
 648 02a4 ED E5 01                		mov.L	4[r14], r5
 649 02a7 AB 84                   		mov.L	56[r0], r4
 650 02a9 06 88 45                		add	[r4].L, r5
  85:../src/tensorflow/lite/micro/kernels/pad.cc ****     TF_LITE_ENSURE_EQ(context, output_dim, expected_dim);
 651                             		.loc 1 85 53
 652 02ac 06 89 45 01             		add	4[r4].L, r5
 653                             	.LVL69:
  86:../src/tensorflow/lite/micro/kernels/pad.cc ****   }
 654                             		.loc 1 86 5 is_stmt 1
  86:../src/tensorflow/lite/micro/kernels/pad.cc ****   }
 655                             		.loc 1 86 5
 656 02b0 47 25                   		cmp	r2, r5
 657 02b2 3B 89 01                		bne	.L36
 658 02b5 EF 43                   		mov.L	r4, r3
 659 02b7 62 83                   		add	#8, r3
 660                             	.LBE439:
  82:../src/tensorflow/lite/micro/kernels/pad.cc ****     int output_dim = output->dims->data[i];
 661                             		.loc 1 82 12 is_stmt 0
 662 02b9 66 04                   		mov.L	#0, r4
 663                             	.LBB440:
  83:../src/tensorflow/lite/micro/kernels/pad.cc ****     int expected_dim =
 664                             		.loc 1 83 42
 665 02bb 62 41                   		add	#4, r1
  85:../src/tensorflow/lite/micro/kernels/pad.cc ****     TF_LITE_ENSURE_EQ(context, output_dim, expected_dim);
 666                             		.loc 1 85 28
 667 02bd 62 4E                   		add	#4, r14
 668 02bf 2E 16                   		bra	.L38
 669                             	.LVL70:
 670                             	.L39:
  83:../src/tensorflow/lite/micro/kernels/pad.cc ****     int expected_dim =
 671                             		.loc 1 83 5 is_stmt 1
  85:../src/tensorflow/lite/micro/kernels/pad.cc ****     TF_LITE_ENSURE_EQ(context, output_dim, expected_dim);
 672                             		.loc 1 85 30 is_stmt 0
 673 02c1 FE 64 E5                		mov.L	[r4,r14], r5
  83:../src/tensorflow/lite/micro/kernels/pad.cc ****     int expected_dim =
 674                             		.loc 1 83 42
 675 02c4 FE 64 12                		mov.L	[r4,r1], r2
 676                             	.LVL71:
  84:../src/tensorflow/lite/micro/kernels/pad.cc ****         input->dims->data[i] + paddings_data[i * 2] + paddings_data[i * 2 + 1];
 677                             		.loc 1 84 5 is_stmt 1
  85:../src/tensorflow/lite/micro/kernels/pad.cc ****     TF_LITE_ENSURE_EQ(context, output_dim, expected_dim);
 678                             		.loc 1 85 30 is_stmt 0
 679 02c7 06 88 35                		add	[r3].L, r5
  85:../src/tensorflow/lite/micro/kernels/pad.cc ****     TF_LITE_ENSURE_EQ(context, output_dim, expected_dim);
 680                             		.loc 1 85 53
 681 02ca 06 89 35 01             		add	4[r3].L, r5
 682                             	.LVL72:
  86:../src/tensorflow/lite/micro/kernels/pad.cc ****   }
 683                             		.loc 1 86 5 is_stmt 1
  86:../src/tensorflow/lite/micro/kernels/pad.cc ****   }
 684                             		.loc 1 86 5
 685 02ce 62 83                   		add	#8, r3
 686 02d0 47 52                   		cmp	r5, r2
 687 02d2 3B 69 01                		bne	.L36
 688                             	.LVL73:
 689                             		.balign 8,3,1
 690                             	.L38:
 691                             	.LBE440:
  82:../src/tensorflow/lite/micro/kernels/pad.cc ****     int output_dim = output->dims->data[i];
 692                             		.loc 1 82 3 is_stmt 0
 693 02d5 62 14                   		add	#1, r4
 694                             	.LVL74:
  82:../src/tensorflow/lite/micro/kernels/pad.cc ****     int output_dim = output->dims->data[i];
 695                             		.loc 1 82 21
 696 02d7 47 F4                   		cmp	r15, r4
 697 02d9 21 E8                   		bne	.L39
 698                             	.LVL75:
 699                             		.balign 8,3,1
 700                             	.L35:
 701                             	.LBE444:
  90:../src/tensorflow/lite/micro/kernels/pad.cc ****   const int paddings_total = GetTensorShape(paddings).FlatSize();
 702                             		.loc 1 90 3 is_stmt 1
 703                             	.LBB445:
 704                             	.LBB446:
  39:C:\Users\a5116938\Desktop\e2_studio_workspace\EEMBC_final\RX65N_Cloud_Kit\src/tensorflow/lite/kernels/internal\tensor_ctypes.h ****   const int dims_size = dims->size;
 705                             		.loc 3 39 19 is_stmt 0
 706 02db ED 82 02                		mov.L	8[r8], r2
 707                             	.LBE446:
 708                             	.LBE445:
  90:../src/tensorflow/lite/micro/kernels/pad.cc ****   const int paddings_total = GetTensorShape(paddings).FlatSize();
 709                             		.loc 1 90 34
 710 02de F9 64 28 02             		mov.B	#2, 40[r6]
  91:../src/tensorflow/lite/micro/kernels/pad.cc ****   if (paddings_total == 8 && (paddings_data[0] == 0 && paddings_data[1] == 0) &&
 711                             		.loc 1 91 3 is_stmt 1
 712                             	.LVL76:
 713                             	.LBB464:
 714                             	.LBB461:
  35:C:\Users\a5116938\Desktop\e2_studio_workspace\EEMBC_final\RX65N_Cloud_Kit\src/tensorflow/lite/kernels/internal\tensor_ctypes.h ****     return RuntimeShape();
 715                             		.loc 3 35 3
  39:C:\Users\a5116938\Desktop\e2_studio_workspace\EEMBC_final\RX65N_Cloud_Kit\src/tensorflow/lite/kernels/internal\tensor_ctypes.h ****   const int dims_size = dims->size;
 716                             		.loc 3 39 3
  40:C:\Users\a5116938\Desktop\e2_studio_workspace\EEMBC_final\RX65N_Cloud_Kit\src/tensorflow/lite/kernels/internal\tensor_ctypes.h ****   const int32_t* dims_data = reinterpret_cast<const int32_t*>(dims->data);
 717                             		.loc 3 40 3
  40:C:\Users\a5116938\Desktop\e2_studio_workspace\EEMBC_final\RX65N_Cloud_Kit\src/tensorflow/lite/kernels/internal\tensor_ctypes.h ****   const int32_t* dims_data = reinterpret_cast<const int32_t*>(dims->data);
 718                             		.loc 3 40 13 is_stmt 0
 719 02e2 EC 21                   		mov.L	[r2], r1
 720                             	.LVL77:
  41:C:\Users\a5116938\Desktop\e2_studio_workspace\EEMBC_final\RX65N_Cloud_Kit\src/tensorflow/lite/kernels/internal\tensor_ctypes.h ****   return RuntimeShape(dims_size, dims_data);
 721                             		.loc 3 41 3 is_stmt 1
 722                             		.loc 3 42 3
 723                             	.LBE461:
 724                             	.LBE464:
 162:C:\Users\a5116938\Desktop\e2_studio_workspace\EEMBC_final\RX65N_Cloud_Kit\src/tensorflow/lite/kernels/internal\types.h ****   }
 725                             		.loc 4 162 5
 726                             	.LBB465:
 727                             	.LBB462:
 728                             	.LBB447:
 729                             	.LBB448:
 730                             	.LBB449:
 238:C:\Users\a5116938\Desktop\e2_studio_workspace\EEMBC_final\RX65N_Cloud_Kit\src/tensorflow/lite/kernels/internal\types.h ****     int32_t* dst_dims = DimsData();
 731                             		.loc 4 238 5
 732                             	.LBB450:
 733                             	.LBB451:
 220:C:\Users\a5116938\Desktop\e2_studio_workspace\EEMBC_final\RX65N_Cloud_Kit\src/tensorflow/lite/kernels/internal\types.h **** #ifdef TF_LITE_STATIC_MEMORY
 734                             		.loc 4 220 5
 227:C:\Users\a5116938\Desktop\e2_studio_workspace\EEMBC_final\RX65N_Cloud_Kit\src/tensorflow/lite/kernels/internal\types.h ****     if (dimensions_count > kMaxSmallSize) {
 735                             		.loc 4 227 5
 227:C:\Users\a5116938\Desktop\e2_studio_workspace\EEMBC_final\RX65N_Cloud_Kit\src/tensorflow/lite/kernels/internal\types.h ****     if (dimensions_count > kMaxSmallSize) {
 736                             		.loc 4 227 11 is_stmt 0
 737 02e4 A2 01                   		mov.L	r1, 32[r0]
 228:C:\Users\a5116938\Desktop\e2_studio_workspace\EEMBC_final\RX65N_Cloud_Kit\src/tensorflow/lite/kernels/internal\types.h **** #ifdef TF_LITE_STATIC_MEMORY
 738                             		.loc 4 228 5 is_stmt 1
 739 02e6 FD C2 18                		shll	#2, r1, r8
 740                             	.LVL78:
 741 02e9 61 51                   		cmp	#5, r1
 742 02eb 2A 05 38 87 01          		ble	.L68
 743                             	.LVL79:
 744                             	.LBB452:
 745                             	.LBB453:
 232:C:\Users\a5116938\Desktop\e2_studio_workspace\EEMBC_final\RX65N_Cloud_Kit\src/tensorflow/lite/kernels/internal\types.h **** #endif  // TF_LITE_STATIC_MEMORY
 746                             		.loc 4 232 7
 232:C:\Users\a5116938\Desktop\e2_studio_workspace\EEMBC_final\RX65N_Cloud_Kit\src/tensorflow/lite/kernels/internal\types.h **** #endif  // TF_LITE_STATIC_MEMORY
 747                             		.loc 4 232 51 is_stmt 0
 748 02f0 74 01 FF FF FF 1F       		cmp	#0x1fffffff, r1
 749 02f6 EF 81                   		mov.L	r8, r1
 750                             	.LVL80:
 751 02f8 2B 05                   		ble 1f
 752 02fa FB 16 FF                		mov #-1, r1
 753                             	1:
 754 02fd A3 8A                   		mov.L	r2, 60[r0]
 755 02ff 05 00 00 00             		bsr	__Znam
 756                             	.LVL81:
 232:C:\Users\a5116938\Desktop\e2_studio_workspace\EEMBC_final\RX65N_Cloud_Kit\src/tensorflow/lite/kernels/internal\types.h **** #endif  // TF_LITE_STATIC_MEMORY
 757                             		.loc 4 232 21
 758 0303 A2 09                   		mov.L	r1, 36[r0]
 759                             	.LBE453:
 760                             	.LBE452:
 761                             	.LBE451:
 762                             	.LBE450:
 239:C:\Users\a5116938\Desktop\e2_studio_workspace\EEMBC_final\RX65N_Cloud_Kit\src/tensorflow/lite/kernels/internal\types.h ****     std::memcpy(dst_dims, dims_data, dimensions_count * sizeof(int32_t));
 763                             		.loc 4 239 5 is_stmt 1
 764                             	.LVL82:
 765                             	.LBB454:
 766                             	.LBB455:
 211:C:\Users\a5116938\Desktop\e2_studio_workspace\EEMBC_final\RX65N_Cloud_Kit\src/tensorflow/lite/kernels/internal\types.h ****   }
 767                             		.loc 4 211 5
 768 0305 AB 8A                   		mov.L	60[r0], r2
 769                             	.LVL83:
 770 0307 03                      		.balign 8,3,1
 771                             	.L40:
 772                             	.LBE455:
 773                             	.LBE454:
 240:C:\Users\a5116938\Desktop\e2_studio_workspace\EEMBC_final\RX65N_Cloud_Kit\src/tensorflow/lite/kernels/internal\types.h ****   }
 774                             		.loc 4 240 5
 240:C:\Users\a5116938\Desktop\e2_studio_workspace\EEMBC_final\RX65N_Cloud_Kit\src/tensorflow/lite/kernels/internal\types.h ****   }
 775                             		.loc 4 240 16 is_stmt 0
 776 0308 62 42                   		add	#4, r2
 777 030a EF 83                   		mov.L	r8, r3
 778 030c 7F 8F                   		smovf
 779                             	.LVL84:
 780                             	.LBE449:
 781                             	.LBE448:
 782                             	.LBE447:
 783                             	.LBE462:
 784                             	.LBE465:
 785                             	.LBB466:
 786                             	.LBB467:
 272:C:\Users\a5116938\Desktop\e2_studio_workspace\EEMBC_final\RX65N_Cloud_Kit\src/tensorflow/lite/kernels/internal\types.h ****     const int* dims_data = reinterpret_cast<const int*>(DimsData());
 787                             		.loc 4 272 5 is_stmt 1
 273:C:\Users\a5116938\Desktop\e2_studio_workspace\EEMBC_final\RX65N_Cloud_Kit\src/tensorflow/lite/kernels/internal\types.h ****     for (int i = 0; i < size_; i++) {
 788                             		.loc 4 273 5
 789                             	.LBB468:
 790                             	.LBB469:
 214:C:\Users\a5116938\Desktop\e2_studio_workspace\EEMBC_final\RX65N_Cloud_Kit\src/tensorflow/lite/kernels/internal\types.h ****   }
 791                             		.loc 4 214 5
 214:C:\Users\a5116938\Desktop\e2_studio_workspace\EEMBC_final\RX65N_Cloud_Kit\src/tensorflow/lite/kernels/internal\types.h ****   }
 792                             		.loc 4 214 12 is_stmt 0
 793 030e AA 03                   		mov.L	32[r0], r3
 214:C:\Users\a5116938\Desktop\e2_studio_workspace\EEMBC_final\RX65N_Cloud_Kit\src/tensorflow/lite/kernels/internal\types.h ****   }
 794                             		.loc 4 214 34
 795 0310 61 53                   		cmp	#5, r3
 796 0312 2A 05 38 66 01          		ble	.L42
 797 0317 AA 0A                   		mov.L	36[r0], r2
 798                             	.LVL85:
 799                             	.LBE469:
 800                             	.LBE468:
 274:C:\Users\a5116938\Desktop\e2_studio_workspace\EEMBC_final\RX65N_Cloud_Kit\src/tensorflow/lite/kernels/internal\types.h ****       buffer_size *= dims_data[i];
 801                             		.loc 4 274 5 is_stmt 1
 802                             		.balign 8,3,1
 803                             	.L43:
 804                             	.LBB472:
 805                             	.LBB470:
 214:C:\Users\a5116938\Desktop\e2_studio_workspace\EEMBC_final\RX65N_Cloud_Kit\src/tensorflow/lite/kernels/internal\types.h ****   }
 806                             		.loc 4 214 34 is_stmt 0
 807 0319 66 05                   		mov.L	#0, r5
 808                             	.LVL86:
 809                             		.balign 8,3,3
 810                             	.L45:
 811                             	.LBE470:
 812                             	.LBE472:
 813                             	.LBB473:
 275:C:\Users\a5116938\Desktop\e2_studio_workspace\EEMBC_final\RX65N_Cloud_Kit\src/tensorflow/lite/kernels/internal\types.h ****     }
 814                             		.loc 4 275 7 is_stmt 1
 275:C:\Users\a5116938\Desktop\e2_studio_workspace\EEMBC_final\RX65N_Cloud_Kit\src/tensorflow/lite/kernels/internal\types.h ****     }
 815                             		.loc 4 275 19 is_stmt 0
 816 031b FE 65 24                		mov.L	[r5,r2], r4
 274:C:\Users\a5116938\Desktop\e2_studio_workspace\EEMBC_final\RX65N_Cloud_Kit\src/tensorflow/lite/kernels/internal\types.h ****       buffer_size *= dims_data[i];
 817                             		.loc 4 274 5
 818 031e 62 15                   		add	#1, r5
 819                             	.LVL87:
 275:C:\Users\a5116938\Desktop\e2_studio_workspace\EEMBC_final\RX65N_Cloud_Kit\src/tensorflow/lite/kernels/internal\types.h ****     }
 820                             		.loc 4 275 19
 821 0320 4F 4A                   		mul	r4, r10
 822                             	.LVL88:
 274:C:\Users\a5116938\Desktop\e2_studio_workspace\EEMBC_final\RX65N_Cloud_Kit\src/tensorflow/lite/kernels/internal\types.h ****       buffer_size *= dims_data[i];
 823                             		.loc 4 274 23
 824 0322 47 53                   		cmp	r5, r3
 825 0324 2A F7                   		bgt	.L45
 826                             	.LBE473:
 827                             		.loc 4 277 5 is_stmt 1
 828                             	.LVL89:
 829                             	.LBE467:
 830                             	.LBE466:
 831                             	.LBB477:
 832                             	.LBB478:
 185:C:\Users\a5116938\Desktop\e2_studio_workspace\EEMBC_final\RX65N_Cloud_Kit\src/tensorflow/lite/kernels/internal\types.h **** #ifdef TF_LITE_STATIC_MEMORY
 833                             		.loc 4 185 5
 834 0326 61 53                   		cmp	#5, r3
 835 0328 2B 0B                   		ble	.L46
 189:C:\Users\a5116938\Desktop\e2_studio_workspace\EEMBC_final\RX65N_Cloud_Kit\src/tensorflow/lite/kernels/internal\types.h **** #endif  // TF_LITE_STATIC_MEMORY
 836                             		.loc 4 189 7
 189:C:\Users\a5116938\Desktop\e2_studio_workspace\EEMBC_final\RX65N_Cloud_Kit\src/tensorflow/lite/kernels/internal\types.h **** #endif  // TF_LITE_STATIC_MEMORY
 837                             		.loc 4 189 16 is_stmt 0
 838 032a AA 09                   		mov.L	36[r0], r1
 189:C:\Users\a5116938\Desktop\e2_studio_workspace\EEMBC_final\RX65N_Cloud_Kit\src/tensorflow/lite/kernels/internal\types.h **** #endif  // TF_LITE_STATIC_MEMORY
 839                             		.loc 4 189 29
 840 032c 61 01                   		cmp	#0, r1
 841 032e 15                      		beq	.L46
 189:C:\Users\a5116938\Desktop\e2_studio_workspace\EEMBC_final\RX65N_Cloud_Kit\src/tensorflow/lite/kernels/internal\types.h **** #endif  // TF_LITE_STATIC_MEMORY
 842                             		.loc 4 189 16
 843 032f 05 00 00 00             		bsr	__ZdaPv
 844                             	.LVL90:
 845                             		.balign 8,3,1
 846                             	.L46:
 847                             	.LBE478:
 848                             	.LBE477:
  92:../src/tensorflow/lite/micro/kernels/pad.cc ****       (paddings_data[6] == 0 && paddings_data[7] == 0)) {
 849                             		.loc 1 92 3 is_stmt 1
 850 0333 61 8A                   		cmp	#8, r10
 851 0335 3A 52 01                		beq	.L111
 852                             	.LVL91:
 853                             		.balign 8,3,1
 854                             	.L47:
  97:../src/tensorflow/lite/micro/kernels/pad.cc ****   data->params.left_padding_count = num_input_dimensions;
 855                             		.loc 1 97 3
 856                             	.LBB479:
 857                             	.LBB480:
 147:C:\Users\a5116938\Desktop\e2_studio_workspace\EEMBC_final\RX65N_Cloud_Kit\src/tensorflow/lite/kernels\kernel_util.h **** inline int SizeOfDimension(const TfLiteTensor* t, int dim) {
 858                             		.loc 2 147 51
 147:C:\Users\a5116938\Desktop\e2_studio_workspace\EEMBC_final\RX65N_Cloud_Kit\src/tensorflow/lite/kernels\kernel_util.h **** inline int SizeOfDimension(const TfLiteTensor* t, int dim) {
 859                             		.loc 2 147 67 is_stmt 0
 860 0338 ED CA 02                		mov.L	8[r12], r10
 861 033b EC AA                   		mov.L	[r10], r10
 862                             	.LVL92:
 863                             	.LBE480:
 864                             	.LBE479:
  98:../src/tensorflow/lite/micro/kernels/pad.cc ****   data->params.right_padding_count = num_input_dimensions;
 865                             		.loc 1 98 3 is_stmt 1
  98:../src/tensorflow/lite/micro/kernels/pad.cc ****   data->params.right_padding_count = num_input_dimensions;
 866                             		.loc 1 98 35 is_stmt 0
 867 033d C3 6A                   		mov.B	r10, [r6]
  99:../src/tensorflow/lite/micro/kernels/pad.cc **** 
 868                             		.loc 1 99 3 is_stmt 1
  99:../src/tensorflow/lite/micro/kernels/pad.cc **** 
 869                             		.loc 1 99 36 is_stmt 0
 870 033f C7 6A 14                		mov.B	r10, 20[r6]
 101:../src/tensorflow/lite/micro/kernels/pad.cc ****     data->params.left_padding[idx] = paddings_data[idx * 2];
 871                             		.loc 1 101 3 is_stmt 1
 872                             	.LBB481:
 101:../src/tensorflow/lite/micro/kernels/pad.cc ****     data->params.left_padding[idx] = paddings_data[idx * 2];
 873                             		.loc 1 101 12 is_stmt 0
 874 0342 71 A4 FF                		add	#-1, r10, r4
 875                             	.LVL93:
 101:../src/tensorflow/lite/micro/kernels/pad.cc ****     data->params.left_padding[idx] = paddings_data[idx * 2];
 876                             		.loc 1 101 48
 877 0345 27 5B                   		bn	.L51
 102:../src/tensorflow/lite/micro/kernels/pad.cc ****     data->params.right_padding[idx] = paddings_data[idx * 2 + 1];
 878                             		.loc 1 102 5 is_stmt 1
 102:../src/tensorflow/lite/micro/kernels/pad.cc ****     data->params.right_padding[idx] = paddings_data[idx * 2 + 1];
 879                             		.loc 1 102 59 is_stmt 0
 880 0347 FD C3 45                		shll	#3, r4, r5
 881 034a 6C 24                   		shll	#2, r4
 882                             	.LVL94:
 883 034c 06 89 05 0E             		add	56[r0], r5
 884 0350 4B 64                   		add	r6, r4
 102:../src/tensorflow/lite/micro/kernels/pad.cc ****     data->params.right_padding[idx] = paddings_data[idx * 2 + 1];
 885                             		.loc 1 102 36
 886 0352 E4 54 01                		mov.L	[r5], 4[r4]
 103:../src/tensorflow/lite/micro/kernels/pad.cc ****   }
 887                             		.loc 1 103 5 is_stmt 1
 101:../src/tensorflow/lite/micro/kernels/pad.cc ****     data->params.left_padding[idx] = paddings_data[idx * 2];
 888                             		.loc 1 101 3 is_stmt 0
 889 0355 71 A3 FE                		add	#-2, r10, r3
 890                             	.LVL95:
 103:../src/tensorflow/lite/micro/kernels/pad.cc ****   }
 891                             		.loc 1 103 37
 892 0358 E5 54 01 06             		mov.L	4[r5], 24[r4]
 101:../src/tensorflow/lite/micro/kernels/pad.cc ****     data->params.left_padding[idx] = paddings_data[idx * 2];
 893                             		.loc 1 101 48
 894 035c 75 03 FF                		cmp	#-1, r3
 895 035f 20 41                   		beq	.L51
 102:../src/tensorflow/lite/micro/kernels/pad.cc ****     data->params.right_padding[idx] = paddings_data[idx * 2 + 1];
 896                             		.loc 1 102 5 is_stmt 1
 897 0361 6C 23                   		shll	#2, r3
 898                             	.LVL96:
 102:../src/tensorflow/lite/micro/kernels/pad.cc ****     data->params.right_padding[idx] = paddings_data[idx * 2 + 1];
 899                             		.loc 1 102 59 is_stmt 0
 900 0363 71 54 F8                		add	#-8, r5, r4
 901 0366 4B 63                   		add	r6, r3
 103:../src/tensorflow/lite/micro/kernels/pad.cc ****   }
 902                             		.loc 1 103 64
 903 0368 71 52 FC                		add	#-4, r5, r2
 102:../src/tensorflow/lite/micro/kernels/pad.cc ****     data->params.right_padding[idx] = paddings_data[idx * 2 + 1];
 904                             		.loc 1 102 36
 905 036b E4 43 01                		mov.L	[r4], 4[r3]
 103:../src/tensorflow/lite/micro/kernels/pad.cc ****   }
 906                             		.loc 1 103 5 is_stmt 1
 101:../src/tensorflow/lite/micro/kernels/pad.cc ****     data->params.left_padding[idx] = paddings_data[idx * 2];
 907                             		.loc 1 101 3 is_stmt 0
 908 036e 71 A4 FD                		add	#-3, r10, r4
 909                             	.LVL97:
 103:../src/tensorflow/lite/micro/kernels/pad.cc ****   }
 910                             		.loc 1 103 37
 911 0371 E4 23 06                		mov.L	[r2], 24[r3]
 101:../src/tensorflow/lite/micro/kernels/pad.cc ****     data->params.left_padding[idx] = paddings_data[idx * 2];
 912                             		.loc 1 101 48
 913 0374 75 04 FF                		cmp	#-1, r4
 914 0377 20 29                   		beq	.L51
 102:../src/tensorflow/lite/micro/kernels/pad.cc ****     data->params.right_padding[idx] = paddings_data[idx * 2 + 1];
 915                             		.loc 1 102 5 is_stmt 1
 916 0379 6C 24                   		shll	#2, r4
 917                             	.LVL98:
 102:../src/tensorflow/lite/micro/kernels/pad.cc ****     data->params.right_padding[idx] = paddings_data[idx * 2 + 1];
 918                             		.loc 1 102 59 is_stmt 0
 919 037b 71 52 F0                		add	#-16, r5, r2
 920 037e 4B 64                   		add	r6, r4
 103:../src/tensorflow/lite/micro/kernels/pad.cc ****   }
 921                             		.loc 1 103 64
 922 0380 71 53 F4                		add	#-12, r5, r3
 102:../src/tensorflow/lite/micro/kernels/pad.cc ****     data->params.right_padding[idx] = paddings_data[idx * 2 + 1];
 923                             		.loc 1 102 36
 924 0383 E4 24 01                		mov.L	[r2], 4[r4]
 103:../src/tensorflow/lite/micro/kernels/pad.cc ****   }
 925                             		.loc 1 103 5 is_stmt 1
 101:../src/tensorflow/lite/micro/kernels/pad.cc ****     data->params.left_padding[idx] = paddings_data[idx * 2];
 926                             		.loc 1 101 3 is_stmt 0
 927 0386 60 4A                   		sub	#4, r10
 928                             	.LVL99:
 103:../src/tensorflow/lite/micro/kernels/pad.cc ****   }
 929                             		.loc 1 103 37
 930 0388 E4 34 06                		mov.L	[r3], 24[r4]
 931                             	.LVL100:
 101:../src/tensorflow/lite/micro/kernels/pad.cc ****     data->params.left_padding[idx] = paddings_data[idx * 2];
 932                             		.loc 1 101 48
 933 038b 75 0A FF                		cmp	#-1, r10
 934 038e 20 12                   		beq	.L51
 102:../src/tensorflow/lite/micro/kernels/pad.cc ****     data->params.right_padding[idx] = paddings_data[idx * 2 + 1];
 935                             		.loc 1 102 5 is_stmt 1
 936 0390 6C 2A                   		shll	#2, r10
 937                             	.LVL101:
 102:../src/tensorflow/lite/micro/kernels/pad.cc ****     data->params.right_padding[idx] = paddings_data[idx * 2 + 1];
 938                             		.loc 1 102 59 is_stmt 0
 939 0392 71 54 E8                		add	#-24, r5, r4
 940 0395 4B 6A                   		add	r6, r10
 103:../src/tensorflow/lite/micro/kernels/pad.cc ****   }
 941                             		.loc 1 103 64
 942 0397 71 55 EC                		add	#-20, r5
 102:../src/tensorflow/lite/micro/kernels/pad.cc ****     data->params.right_padding[idx] = paddings_data[idx * 2 + 1];
 943                             		.loc 1 102 36
 944 039a E4 4A 01                		mov.L	[r4], 4[r10]
 103:../src/tensorflow/lite/micro/kernels/pad.cc ****   }
 945                             		.loc 1 103 5 is_stmt 1
 103:../src/tensorflow/lite/micro/kernels/pad.cc ****   }
 946                             		.loc 1 103 37 is_stmt 0
 947 039d E4 5A 06                		mov.L	[r5], 24[r10]
 948                             		.balign 8,3,1
 949                             	.L51:
 950                             	.LBE481:
 106:../src/tensorflow/lite/micro/kernels/pad.cc ****     if (constant_values == nullptr) {
 951                             		.loc 1 106 3 is_stmt 1
 106:../src/tensorflow/lite/micro/kernels/pad.cc ****     if (constant_values == nullptr) {
 952                             		.loc 1 106 14 is_stmt 0
 953 03a0 EC CA                   		mov.L	[r12], r10
 106:../src/tensorflow/lite/micro/kernels/pad.cc ****     if (constant_values == nullptr) {
 954                             		.loc 1 106 3
 955 03a2 61 9A                   		cmp	#9, r10
 956 03a4 3A 0B 01                		beq	.L112
 106:../src/tensorflow/lite/micro/kernels/pad.cc ****     if (constant_values == nullptr) {
 957                             		.loc 1 106 34 discriminator 1
 958 03a7 61 3A                   		cmp	#3, r10
 959 03a9 3A 41 01                		beq	.L52
 132:../src/tensorflow/lite/micro/kernels/pad.cc **** }
 960                             		.loc 1 132 10
 961 03ac 66 0B                   		mov.L	#0, r11
 962 03ae 38 8A FC                		bra	.L5
 963                             	.LVL102:
 964                             	.L62:
  74:../src/tensorflow/lite/micro/kernels/pad.cc ****                     output->dims->size * 2);
 965                             		.loc 1 74 3 is_stmt 1 discriminator 1
  74:../src/tensorflow/lite/micro/kernels/pad.cc ****                     output->dims->size * 2);
 966                             		.loc 1 74 3 discriminator 1
 967                             	.LBB482:
 968                             	.LBB483:
  39:C:\Users\a5116938\Desktop\e2_studio_workspace\EEMBC_final\RX65N_Cloud_Kit\src/tensorflow/lite/kernels/internal\tensor_ctypes.h ****   const int dims_size = dims->size;
 969                             		.loc 3 39 19 is_stmt 0 discriminator 1
 970 03b1 ED 86 02                		mov.L	8[r8], r6
 971                             	.LVL103:
 972                             	.LBE483:
 973                             	.LBE482:
  74:../src/tensorflow/lite/micro/kernels/pad.cc ****                     output->dims->size * 2);
 974                             		.loc 1 74 3 discriminator 1
 975 03b4 ED 7B 05                		mov.L	20[r7], r11
 976                             	.LVL104:
 977                             	.LBB501:
 978                             	.LBB498:
  35:C:\Users\a5116938\Desktop\e2_studio_workspace\EEMBC_final\RX65N_Cloud_Kit\src/tensorflow/lite/kernels/internal\tensor_ctypes.h ****     return RuntimeShape();
 979                             		.loc 3 35 3 is_stmt 1 discriminator 1
  39:C:\Users\a5116938\Desktop\e2_studio_workspace\EEMBC_final\RX65N_Cloud_Kit\src/tensorflow/lite/kernels/internal\tensor_ctypes.h ****   const int dims_size = dims->size;
 980                             		.loc 3 39 3 discriminator 1
  40:C:\Users\a5116938\Desktop\e2_studio_workspace\EEMBC_final\RX65N_Cloud_Kit\src/tensorflow/lite/kernels/internal\tensor_ctypes.h ****   const int32_t* dims_data = reinterpret_cast<const int32_t*>(dims->data);
 981                             		.loc 3 40 3 discriminator 1
  40:C:\Users\a5116938\Desktop\e2_studio_workspace\EEMBC_final\RX65N_Cloud_Kit\src/tensorflow/lite/kernels/internal\tensor_ctypes.h ****   const int32_t* dims_data = reinterpret_cast<const int32_t*>(dims->data);
 982                             		.loc 3 40 13 is_stmt 0 discriminator 1
 983 03b7 EC 61                   		mov.L	[r6], r1
 984                             	.LVL105:
  41:C:\Users\a5116938\Desktop\e2_studio_workspace\EEMBC_final\RX65N_Cloud_Kit\src/tensorflow/lite/kernels/internal\tensor_ctypes.h ****   return RuntimeShape(dims_size, dims_data);
 985                             		.loc 3 41 3 is_stmt 1 discriminator 1
 986                             		.loc 3 42 3 discriminator 1
 987                             	.LBE498:
 988                             	.LBE501:
 162:C:\Users\a5116938\Desktop\e2_studio_workspace\EEMBC_final\RX65N_Cloud_Kit\src/tensorflow/lite/kernels/internal\types.h ****   }
 989                             		.loc 4 162 5 discriminator 1
 990                             	.LBB502:
 991                             	.LBB499:
 992                             	.LBB484:
 993                             	.LBB485:
 994                             	.LBB486:
 238:C:\Users\a5116938\Desktop\e2_studio_workspace\EEMBC_final\RX65N_Cloud_Kit\src/tensorflow/lite/kernels/internal\types.h ****     int32_t* dst_dims = DimsData();
 995                             		.loc 4 238 5 discriminator 1
 996                             	.LBB487:
 997                             	.LBB488:
 220:C:\Users\a5116938\Desktop\e2_studio_workspace\EEMBC_final\RX65N_Cloud_Kit\src/tensorflow/lite/kernels/internal\types.h **** #ifdef TF_LITE_STATIC_MEMORY
 998                             		.loc 4 220 5 discriminator 1
 227:C:\Users\a5116938\Desktop\e2_studio_workspace\EEMBC_final\RX65N_Cloud_Kit\src/tensorflow/lite/kernels/internal\types.h ****     if (dimensions_count > kMaxSmallSize) {
 999                             		.loc 4 227 5 discriminator 1
 227:C:\Users\a5116938\Desktop\e2_studio_workspace\EEMBC_final\RX65N_Cloud_Kit\src/tensorflow/lite/kernels/internal\types.h ****     if (dimensions_count > kMaxSmallSize) {
 1000                             		.loc 4 227 11 is_stmt 0 discriminator 1
 1001 03b9 A2 01                   		mov.L	r1, 32[r0]
 228:C:\Users\a5116938\Desktop\e2_studio_workspace\EEMBC_final\RX65N_Cloud_Kit\src/tensorflow/lite/kernels/internal\types.h **** #ifdef TF_LITE_STATIC_MEMORY
 1002                             		.loc 4 228 5 is_stmt 1 discriminator 1
 1003 03bb FD C2 13                		shll	#2, r1, r3
 1004 03be 61 51                   		cmp	#5, r1
 1005 03c0 2B 76                   		ble	.L66
 1006                             	.LVL106:
 1007                             	.LBB489:
 1008                             	.LBB490:
 232:C:\Users\a5116938\Desktop\e2_studio_workspace\EEMBC_final\RX65N_Cloud_Kit\src/tensorflow/lite/kernels/internal\types.h **** #endif  // TF_LITE_STATIC_MEMORY
 1009                             		.loc 4 232 7
 232:C:\Users\a5116938\Desktop\e2_studio_workspace\EEMBC_final\RX65N_Cloud_Kit\src/tensorflow/lite/kernels/internal\types.h **** #endif  // TF_LITE_STATIC_MEMORY
 1010                             		.loc 4 232 51 is_stmt 0
 1011 03c2 74 01 FF FF FF 1F       		cmp	#0x1fffffff, r1
 1012 03c8 EF 31                   		mov.L	r3, r1
 1013                             	.LVL107:
 1014 03ca 2B 05                   		ble 1f
 1015 03cc FB 16 FF                		mov #-1, r1
 1016                             	1:
 1017 03cf A3 8B                   		mov.L	r3, 60[r0]
 1018 03d1 05 00 00 00             		bsr	__Znam
 1019                             	.LVL108:
 232:C:\Users\a5116938\Desktop\e2_studio_workspace\EEMBC_final\RX65N_Cloud_Kit\src/tensorflow/lite/kernels/internal\types.h **** #endif  // TF_LITE_STATIC_MEMORY
 1020                             		.loc 4 232 21
 1021 03d5 A2 09                   		mov.L	r1, 36[r0]
 1022                             	.LBE490:
 1023                             	.LBE489:
 1024                             	.LBE488:
 1025                             	.LBE487:
 239:C:\Users\a5116938\Desktop\e2_studio_workspace\EEMBC_final\RX65N_Cloud_Kit\src/tensorflow/lite/kernels/internal\types.h ****     std::memcpy(dst_dims, dims_data, dimensions_count * sizeof(int32_t));
 1026                             		.loc 4 239 5 is_stmt 1
 1027                             	.LVL109:
 1028                             	.LBB491:
 1029                             	.LBB492:
 211:C:\Users\a5116938\Desktop\e2_studio_workspace\EEMBC_final\RX65N_Cloud_Kit\src/tensorflow/lite/kernels/internal\types.h ****   }
 1030                             		.loc 4 211 5
 1031 03d7 AB 8B                   		mov.L	60[r0], r3
 1032                             	.LVL110:
 1033                             		.balign 8,3,2
 1034                             	.L29:
 1035                             	.LBE492:
 1036                             	.LBE491:
 240:C:\Users\a5116938\Desktop\e2_studio_workspace\EEMBC_final\RX65N_Cloud_Kit\src/tensorflow/lite/kernels/internal\types.h ****   }
 1037                             		.loc 4 240 5
 240:C:\Users\a5116938\Desktop\e2_studio_workspace\EEMBC_final\RX65N_Cloud_Kit\src/tensorflow/lite/kernels/internal\types.h ****   }
 1038                             		.loc 4 240 16 is_stmt 0
 1039 03d9 71 62 04                		add	#4, r6, r2
 1040 03dc 7F 8F                   		smovf
 1041                             	.LVL111:
 1042                             	.LBE486:
 1043                             	.LBE485:
 1044                             	.LBE484:
 1045                             	.LBE499:
 1046                             	.LBE502:
 1047                             	.LBB503:
 1048                             	.LBB504:
 272:C:\Users\a5116938\Desktop\e2_studio_workspace\EEMBC_final\RX65N_Cloud_Kit\src/tensorflow/lite/kernels/internal\types.h ****     const int* dims_data = reinterpret_cast<const int*>(DimsData());
 1049                             		.loc 4 272 5 is_stmt 1
 273:C:\Users\a5116938\Desktop\e2_studio_workspace\EEMBC_final\RX65N_Cloud_Kit\src/tensorflow/lite/kernels/internal\types.h ****     for (int i = 0; i < size_; i++) {
 1050                             		.loc 4 273 5
 1051                             	.LBB505:
 1052                             	.LBB506:
 214:C:\Users\a5116938\Desktop\e2_studio_workspace\EEMBC_final\RX65N_Cloud_Kit\src/tensorflow/lite/kernels/internal\types.h ****   }
 1053                             		.loc 4 214 5
 214:C:\Users\a5116938\Desktop\e2_studio_workspace\EEMBC_final\RX65N_Cloud_Kit\src/tensorflow/lite/kernels/internal\types.h ****   }
 1054                             		.loc 4 214 12 is_stmt 0
 1055 03de AA 06                   		mov.L	32[r0], r6
 1056                             	.LVL112:
 214:C:\Users\a5116938\Desktop\e2_studio_workspace\EEMBC_final\RX65N_Cloud_Kit\src/tensorflow/lite/kernels/internal\types.h ****   }
 1057                             		.loc 4 214 34
 1058 03e0 61 56                   		cmp	#5, r6
 1059 03e2 2A 05 38 83 00          		ble	.L31
 1060 03e7 AA 0B                   		mov.L	36[r0], r3
 1061                             	.LVL113:
 1062                             	.LBE506:
 1063                             	.LBE505:
 274:C:\Users\a5116938\Desktop\e2_studio_workspace\EEMBC_final\RX65N_Cloud_Kit\src/tensorflow/lite/kernels/internal\types.h ****       buffer_size *= dims_data[i];
 1064                             		.loc 4 274 5 is_stmt 1
 1065                             		.balign 8,3,1
 1066                             	.L58:
 1067                             	.LBB509:
 1068                             	.LBB507:
 214:C:\Users\a5116938\Desktop\e2_studio_workspace\EEMBC_final\RX65N_Cloud_Kit\src/tensorflow/lite/kernels/internal\types.h ****   }
 1069                             		.loc 4 214 34 is_stmt 0
 1070 03e9 66 05                   		mov.L	#0, r5
 1071                             	.LVL114:
 1072                             		.balign 8,3,3
 1073                             	.L32:
 1074                             	.LBE507:
 1075                             	.LBE509:
 1076                             	.LBB510:
 275:C:\Users\a5116938\Desktop\e2_studio_workspace\EEMBC_final\RX65N_Cloud_Kit\src/tensorflow/lite/kernels/internal\types.h ****     }
 1077                             		.loc 4 275 7 is_stmt 1
 275:C:\Users\a5116938\Desktop\e2_studio_workspace\EEMBC_final\RX65N_Cloud_Kit\src/tensorflow/lite/kernels/internal\types.h ****     }
 1078                             		.loc 4 275 19 is_stmt 0
 1079 03eb FE 65 34                		mov.L	[r5,r3], r4
 274:C:\Users\a5116938\Desktop\e2_studio_workspace\EEMBC_final\RX65N_Cloud_Kit\src/tensorflow/lite/kernels/internal\types.h ****       buffer_size *= dims_data[i];
 1080                             		.loc 4 274 5
 1081 03ee 62 15                   		add	#1, r5
 1082                             	.LVL115:
 275:C:\Users\a5116938\Desktop\e2_studio_workspace\EEMBC_final\RX65N_Cloud_Kit\src/tensorflow/lite/kernels/internal\types.h ****     }
 1083                             		.loc 4 275 19
 1084 03f0 4F 4A                   		mul	r4, r10
 1085                             	.LVL116:
 274:C:\Users\a5116938\Desktop\e2_studio_workspace\EEMBC_final\RX65N_Cloud_Kit\src/tensorflow/lite/kernels/internal\types.h ****       buffer_size *= dims_data[i];
 1086                             		.loc 4 274 23
 1087 03f2 47 56                   		cmp	r5, r6
 1088 03f4 2A F7                   		bgt	.L32
 1089                             	.LBE510:
 1090                             		.loc 4 277 5 is_stmt 1
 1091                             	.LVL117:
 1092                             	.LBE504:
 1093                             	.LBE503:
  74:../src/tensorflow/lite/micro/kernels/pad.cc ****                     output->dims->size * 2);
 1094                             		.loc 1 74 3 is_stmt 0
 1095 03f6 ED 95 02                		mov.L	8[r9], r5
 1096 03f9 EF 71                   		mov.L	r7, r1
 1097 03fb EC 57                   		mov.L	[r5], r7
 1098                             	.LVL118:
 1099 03fd E7 0A 05                		mov.L	r10, 20[r0]
 1100 0400 4B 77                   		add	r7, r7
 1101 0402 F9 02 04 64 01 00 00    		mov.L	#.LC15, 16[r0]
 1102 0409 A1 87                   		mov.L	r7, 24[r0]
 1103 040b F9 02 03 7B 01 00 00    		mov.L	#.LC16, 12[r0]
 1104 0412 3E 02 4B                		mov.L	#0x4b, 8[r0]
 1105 0415 F9 02 01 2D 00 00 00    		mov.L	#.LC2, 4[r0]
 1106 041c F8 02 83 00 00 00       		mov.L	#.LC6, [r0]
 1107 0422 7F 1B                   		jsr	r11
 1108                             	.LVL119:
 1109                             	.LBB515:
 1110                             	.LBB516:
 185:C:\Users\a5116938\Desktop\e2_studio_workspace\EEMBC_final\RX65N_Cloud_Kit\src/tensorflow/lite/kernels/internal\types.h **** #ifdef TF_LITE_STATIC_MEMORY
 1111                             		.loc 4 185 5 is_stmt 1
 1112 0424 61 56                   		cmp	#5, r6
 1113 0426 2B 0B                   		ble	.L33
 189:C:\Users\a5116938\Desktop\e2_studio_workspace\EEMBC_final\RX65N_Cloud_Kit\src/tensorflow/lite/kernels/internal\types.h **** #endif  // TF_LITE_STATIC_MEMORY
 1114                             		.loc 4 189 7
 189:C:\Users\a5116938\Desktop\e2_studio_workspace\EEMBC_final\RX65N_Cloud_Kit\src/tensorflow/lite/kernels/internal\types.h **** #endif  // TF_LITE_STATIC_MEMORY
 1115                             		.loc 4 189 16 is_stmt 0
 1116 0428 AA 09                   		mov.L	36[r0], r1
 189:C:\Users\a5116938\Desktop\e2_studio_workspace\EEMBC_final\RX65N_Cloud_Kit\src/tensorflow/lite/kernels/internal\types.h **** #endif  // TF_LITE_STATIC_MEMORY
 1117                             		.loc 4 189 29
 1118 042a 61 01                   		cmp	#0, r1
 1119 042c 15                      		beq	.L33
 189:C:\Users\a5116938\Desktop\e2_studio_workspace\EEMBC_final\RX65N_Cloud_Kit\src/tensorflow/lite/kernels/internal\types.h **** #endif  // TF_LITE_STATIC_MEMORY
 1120                             		.loc 4 189 16
 1121 042d 05 00 00 00             		bsr	__ZdaPv
 1122                             	.LVL120:
 1123                             		.balign 8,3,1
 1124                             	.L33:
 1125                             	.LBE516:
 1126                             	.LBE515:
  74:../src/tensorflow/lite/micro/kernels/pad.cc ****                     output->dims->size * 2);
 1127                             		.loc 1 74 3 is_stmt 1
 1128 0431 66 1B                   		mov.L	#1, r11
 1129 0433 38 05 FC                		bra	.L5
 1130                             	.LVL121:
 1131                             	.L66:
 1132                             	.LBB518:
 1133                             	.LBB500:
 1134                             	.LBB497:
 1135                             	.LBB496:
 1136                             	.LBB495:
 1137                             	.LBB494:
 1138                             	.LBB493:
 211:C:\Users\a5116938\Desktop\e2_studio_workspace\EEMBC_final\RX65N_Cloud_Kit\src/tensorflow/lite/kernels/internal\types.h ****   }
 1139                             		.loc 4 211 34 is_stmt 0
 1140 0436 71 01 24                		add	#36, r0, r1
 1141                             	.LVL122:
 1142 0439 2E A0                   		bra	.L29
 1143                             	.LVL123:
 1144                             	.L36:
 1145                             	.LBE493:
 1146                             	.LBE494:
 1147                             	.LBE495:
 1148                             	.LBE496:
 1149                             	.LBE497:
 1150                             	.LBE500:
 1151                             	.LBE518:
 1152                             	.LBB519:
 1153                             	.LBB441:
  86:../src/tensorflow/lite/micro/kernels/pad.cc ****   }
 1154                             		.loc 1 86 5 is_stmt 1 discriminator 1
  86:../src/tensorflow/lite/micro/kernels/pad.cc ****   }
 1155                             		.loc 1 86 5 discriminator 1
 1156 043b ED 7A 05                		mov.L	20[r7], r10
 1157 043e A1 85                   		mov.L	r5, 24[r0]
 1158                             	.LVL124:
 1159 0440 A1 0A                   		mov.L	r2, 20[r0]
 1160 0442 F9 02 04 BA 01 00 00    		mov.L	#.LC18, 16[r0]
 1161 0449 F9 02 03 C7 01 00 00    		mov.L	#.LC19, 12[r0]
 1162 0450 3E 02 56                		mov.L	#0x56, 8[r0]
 1163 0453 F9 02 01 2D 00 00 00    		mov.L	#.LC2, 4[r0]
 1164 045a EF 71                   		mov.L	r7, r1
 1165 045c F8 02 83 00 00 00       		mov.L	#.LC6, [r0]
 1166 0462 7F 1A                   		jsr	r10
 1167                             	.LVL125:
  86:../src/tensorflow/lite/micro/kernels/pad.cc ****   }
 1168                             		.loc 1 86 5 discriminator 1
 1169 0464 38 D4 FB                		bra	.L5
 1170                             	.LVL126:
 1171                             	.L31:
 1172                             	.LBE441:
 1173                             	.LBE519:
 1174                             	.LBB520:
 1175                             	.LBB513:
 274:C:\Users\a5116938\Desktop\e2_studio_workspace\EEMBC_final\RX65N_Cloud_Kit\src/tensorflow/lite/kernels/internal\types.h ****       buffer_size *= dims_data[i];
 1176                             		.loc 4 274 5
 1177                             	.LBB511:
 274:C:\Users\a5116938\Desktop\e2_studio_workspace\EEMBC_final\RX65N_Cloud_Kit\src/tensorflow/lite/kernels/internal\types.h ****       buffer_size *= dims_data[i];
 1178                             		.loc 4 274 23 is_stmt 0
 1179 0467 61 06                   		cmp	#0, r6
 1180 0469 2A 05 38 9D 00          		ble	.L57
 1181                             	.LBE511:
 1182                             	.LBB512:
 1183                             	.LBB508:
 214:C:\Users\a5116938\Desktop\e2_studio_workspace\EEMBC_final\RX65N_Cloud_Kit\src/tensorflow/lite/kernels/internal\types.h ****   }
 1184                             		.loc 4 214 34
 1185 046e 71 03 24                		add	#36, r0, r3
 1186                             	.LVL127:
 1187 0471 38 78 FF                		bra	.L58
 1188                             	.LVL128:
 1189                             	.L68:
 1190                             	.LBE508:
 1191                             	.LBE512:
 1192                             	.LBE513:
 1193                             	.LBE520:
 1194                             	.LBB521:
 1195                             	.LBB463:
 1196                             	.LBB460:
 1197                             	.LBB459:
 1198                             	.LBB458:
 1199                             	.LBB457:
 1200                             	.LBB456:
 211:C:\Users\a5116938\Desktop\e2_studio_workspace\EEMBC_final\RX65N_Cloud_Kit\src/tensorflow/lite/kernels/internal\types.h ****   }
 1201                             		.loc 4 211 34
 1202 0474 71 01 24                		add	#36, r0, r1
 1203                             	.LVL129:
 1204 0477 38 91 FE                		bra	.L40
 1205                             	.LVL130:
 1206                             	.L42:
 1207                             	.LBE456:
 1208                             	.LBE457:
 1209                             	.LBE458:
 1210                             	.LBE459:
 1211                             	.LBE460:
 1212                             	.LBE463:
 1213                             	.LBE521:
 1214                             	.LBB522:
 1215                             	.LBB476:
 274:C:\Users\a5116938\Desktop\e2_studio_workspace\EEMBC_final\RX65N_Cloud_Kit\src/tensorflow/lite/kernels/internal\types.h ****       buffer_size *= dims_data[i];
 1216                             		.loc 4 274 5 is_stmt 1
 1217                             	.LBB474:
 274:C:\Users\a5116938\Desktop\e2_studio_workspace\EEMBC_final\RX65N_Cloud_Kit\src/tensorflow/lite/kernels/internal\types.h ****       buffer_size *= dims_data[i];
 1218                             		.loc 4 274 23 is_stmt 0
 1219 047a 61 03                   		cmp	#0, r3
 1220 047c 2A 05 38 BA FE          		ble	.L47
 1221                             	.LBE474:
 1222                             	.LBB475:
 1223                             	.LBB471:
 214:C:\Users\a5116938\Desktop\e2_studio_workspace\EEMBC_final\RX65N_Cloud_Kit\src/tensorflow/lite/kernels/internal\types.h ****   }
 1224                             		.loc 4 214 34
 1225 0481 71 02 24                		add	#36, r0, r2
 1226                             	.LVL131:
 1227 0484 38 95 FE                		bra	.L43
 1228                             	.LVL132:
 1229                             	.L111:
 1230                             	.LBE471:
 1231                             	.LBE475:
 1232                             	.LBE476:
 1233                             	.LBE522:
  92:../src/tensorflow/lite/micro/kernels/pad.cc ****       (paddings_data[6] == 0 && paddings_data[7] == 0)) {
 1234                             		.loc 1 92 27 discriminator 1
 1235 0487 AB 85                   		mov.L	56[r0], r5
 1236 0489 EC 5A                   		mov.L	[r5], r10
 1237                             	.LVL133:
 1238 048b 61 0A                   		cmp	#0, r10
 1239 048d 3B AB FE                		bne	.L47
  92:../src/tensorflow/lite/micro/kernels/pad.cc ****       (paddings_data[6] == 0 && paddings_data[7] == 0)) {
 1240                             		.loc 1 92 53 discriminator 2
 1241 0490 ED 5A 01                		mov.L	4[r5], r10
 1242 0493 61 0A                   		cmp	#0, r10
 1243 0495 3B A3 FE                		bne	.L47
  92:../src/tensorflow/lite/micro/kernels/pad.cc ****       (paddings_data[6] == 0 && paddings_data[7] == 0)) {
 1244                             		.loc 1 92 79 discriminator 3
 1245 0498 ED 5A 06                		mov.L	24[r5], r10
 1246 049b 61 0A                   		cmp	#0, r10
 1247 049d 3B 9B FE                		bne	.L47
  93:../src/tensorflow/lite/micro/kernels/pad.cc ****     data->params.resizing_category = ResizingCategory::kImageStyle;
 1248                             		.loc 1 93 30
 1249 04a0 ED 5A 07                		mov.L	28[r5], r10
 1250 04a3 61 0A                   		cmp	#0, r10
 1251 04a5 3B 93 FE                		bne	.L47
  94:../src/tensorflow/lite/micro/kernels/pad.cc ****   }
 1252                             		.loc 1 94 5 is_stmt 1
  94:../src/tensorflow/lite/micro/kernels/pad.cc ****   }
 1253                             		.loc 1 94 36 is_stmt 0
 1254 04a8 F9 64 28 01             		mov.B	#1, 40[r6]
 1255 04ac 38 8C FE                		bra	.L47
 1256                             	.LVL134:
 1257                             	.L112:
 107:../src/tensorflow/lite/micro/kernels/pad.cc ****       // Quantized Pad requires that 0 is represented in the quantized
 1258                             		.loc 1 107 5 is_stmt 1
 1259 04af 61 0D                   		cmp	#0, r13
 1260 04b1 3A C1 00                		beq	.L113
 1261                             		.balign 8,3,1
 1262                             	.L60:
 124:../src/tensorflow/lite/micro/kernels/pad.cc ****                         constant_values->params.zero_point);
 1263                             		.loc 1 124 7
 124:../src/tensorflow/lite/micro/kernels/pad.cc ****                         constant_values->params.zero_point);
 1264                             		.loc 1 124 7
 1265 04b4 ED 9A 04                		mov.L	16[r9], r10
 1266 04b7 ED D5 04                		mov.L	16[r13], r5
 1267 04ba 47 5A                   		cmp	r5, r10
 1268 04bc 20 7F                   		beq	.L56
 124:../src/tensorflow/lite/micro/kernels/pad.cc ****                         constant_values->params.zero_point);
 1269                             		.loc 1 124 7 discriminator 1
 124:../src/tensorflow/lite/micro/kernels/pad.cc ****                         constant_values->params.zero_point);
 1270                             		.loc 1 124 7 discriminator 1
 1271 04be A9 7C                   		mov.L	20[r7], r4
 1272 04c0 A1 85                   		mov.L	r5, 24[r0]
 1273 04c2 E7 0A 05                		mov.L	r10, 20[r0]
 1274 04c5 F9 02 04 D4 02 00 00    		mov.L	#.LC24, 16[r0]
 1275 04cc F9 02 03 F7 02 00 00    		mov.L	#.LC25, 12[r0]
 1276 04d3 3E 02 7D                		mov.L	#0x7d, 8[r0]
 1277 04d6 F9 02 01 2D 00 00 00    		mov.L	#.LC2, 4[r0]
 1278 04dd EF 71                   		mov.L	r7, r1
 1279 04df F8 02 83 00 00 00       		mov.L	#.LC6, [r0]
 1280 04e5 7F 14                   		jsr	r4
 1281                             	.LVL135:
 124:../src/tensorflow/lite/micro/kernels/pad.cc ****                         constant_values->params.zero_point);
 1282                             		.loc 1 124 7 discriminator 1
 1283 04e7 38 51 FB                		bra	.L5
 1284                             	.L52:
 107:../src/tensorflow/lite/micro/kernels/pad.cc ****       // Quantized Pad requires that 0 is represented in the quantized
 1285                             		.loc 1 107 5
 1286 04ea 61 0D                   		cmp	#0, r13
 1287 04ec 21 C8                   		bne	.L60
 1288 04ee ED 9A 04                		mov.L	16[r9], r10
 111:../src/tensorflow/lite/micro/kernels/pad.cc ****                                     std::numeric_limits<uint8_t>::min());
 1289                             		.loc 1 111 9
 111:../src/tensorflow/lite/micro/kernels/pad.cc ****                                     std::numeric_limits<uint8_t>::min());
 1290                             		.loc 1 111 9
 1291 04f1 61 0A                   		cmp	#0, r10
 1292 04f3 28 05 38 CC 00          		blt	.L114
 113:../src/tensorflow/lite/micro/kernels/pad.cc ****                                     std::numeric_limits<uint8_t>::max());
 1293                             		.loc 1 113 9
 113:../src/tensorflow/lite/micro/kernels/pad.cc ****                                     std::numeric_limits<uint8_t>::max());
 1294                             		.loc 1 113 9
 1295 04f8 75 5A FF                		cmp	#0xff, r10
 1296 04fb 2B 05 38 A3 00          		bgt	.L115
 1297                             		.balign 8,3,1
 1298                             	.L54:
 129:../src/tensorflow/lite/micro/kernels/pad.cc ****   }
 1299                             		.loc 1 129 5
 132:../src/tensorflow/lite/micro/kernels/pad.cc **** }
 1300                             		.loc 1 132 10 is_stmt 0
 1301 0500 66 0B                   		mov.L	#0, r11
 129:../src/tensorflow/lite/micro/kernels/pad.cc ****   }
 1302                             		.loc 1 129 29
 1303 0502 E7 6A 0B                		mov.L	r10, 44[r6]
 1304 0505 38 33 FB                		bra	.L5
 1305                             	.LVL136:
 1306                             	.L57:
 1307                             	.LBB523:
 1308                             	.LBB514:
 1309                             		.loc 4 277 5 is_stmt 1
 1310                             	.LBE514:
 1311                             	.LBE523:
  74:../src/tensorflow/lite/micro/kernels/pad.cc ****                     output->dims->size * 2);
 1312                             		.loc 1 74 3 is_stmt 0
 1313 0508 ED 9A 02                		mov.L	8[r9], r10
 1314 050b EF 71                   		mov.L	r7, r1
 1315 050d EC A7                   		mov.L	[r10], r7
 1316                             	.LVL137:
 1317 050f 3E 05 01                		mov.L	#1, 20[r0]
 1318 0512 4B 77                   		add	r7, r7
 1319 0514 F9 02 04 64 01 00 00    		mov.L	#.LC15, 16[r0]
 1320 051b A1 87                   		mov.L	r7, 24[r0]
 1321 051d F9 02 03 7B 01 00 00    		mov.L	#.LC16, 12[r0]
 1322 0524 3E 02 4B                		mov.L	#0x4b, 8[r0]
 1323 0527 F9 02 01 2D 00 00 00    		mov.L	#.LC2, 4[r0]
 1324 052e F8 02 83 00 00 00       		mov.L	#.LC6, [r0]
 1325 0534 7F 1B                   		jsr	r11
 1326                             	.LVL138:
 1327                             	.LBB524:
 1328                             	.LBB517:
 185:C:\Users\a5116938\Desktop\e2_studio_workspace\EEMBC_final\RX65N_Cloud_Kit\src/tensorflow/lite/kernels/internal\types.h **** #ifdef TF_LITE_STATIC_MEMORY
 1329                             		.loc 4 185 5 is_stmt 1
 1330                             	.LBE517:
 1331                             	.LBE524:
  74:../src/tensorflow/lite/micro/kernels/pad.cc ****                     output->dims->size * 2);
 1332                             		.loc 1 74 3
 1333 0536 66 1B                   		mov.L	#1, r11
 1334 0538 38 00 FB                		bra	.L5
 1335                             	.LVL139:
 1336                             	.L56:
 126:../src/tensorflow/lite/micro/kernels/pad.cc ****                         static_cast<double>(constant_values->params.scale));
 1337                             		.loc 1 126 7
 126:../src/tensorflow/lite/micro/kernels/pad.cc ****                         static_cast<double>(constant_values->params.scale));
 1338                             		.loc 1 126 7
 1339 053b ED 95 03                		mov.L	12[r9], r5
 1340 053e ED D4 03                		mov.L	12[r13], r4
 1341 0541 FC 87 45                		fcmp	r4, r5
 1342 0544 20 BC                   		beq	.L54
 126:../src/tensorflow/lite/micro/kernels/pad.cc ****                         static_cast<double>(constant_values->params.scale));
 1343                             		.loc 1 126 7 discriminator 1
 126:../src/tensorflow/lite/micro/kernels/pad.cc ****                         static_cast<double>(constant_values->params.scale));
 1344                             		.loc 1 126 7 discriminator 1
 1345 0546 ED 7A 05                		mov.L	20[r7], r10
 1346 0549 A1 84                   		mov.L	r4, 24[r0]
 1347 054b A1 0D                   		mov.L	r5, 20[r0]
 1348 054d F9 02 04 11 03 00 00    		mov.L	#.LC26, 16[r0]
 1349 0554 F9 02 03 44 03 00 00    		mov.L	#.LC27, 12[r0]
 1350 055b 3E 02 7F                		mov.L	#0x7f, 8[r0]
 1351 055e F9 02 01 2D 00 00 00    		mov.L	#.LC2, 4[r0]
 1352 0565 EF 71                   		mov.L	r7, r1
 1353 0567 F8 02 83 00 00 00       		mov.L	#.LC6, [r0]
 1354 056d 7F 1A                   		jsr	r10
 1355                             	.LVL140:
 126:../src/tensorflow/lite/micro/kernels/pad.cc ****                         static_cast<double>(constant_values->params.scale));
 1356                             		.loc 1 126 7 discriminator 1
 1357 056f 38 C9 FA                		bra	.L5
 1358                             	.L113:
 1359 0572 ED 9A 04                		mov.L	16[r9], r10
 116:../src/tensorflow/lite/micro/kernels/pad.cc ****                                     std::numeric_limits<int8_t>::min());
 1360                             		.loc 1 116 9
 116:../src/tensorflow/lite/micro/kernels/pad.cc ****                                     std::numeric_limits<int8_t>::min());
 1361                             		.loc 1 116 9
 1362 0575 75 0A 80                		cmp	#-128, r10
 1363 0578 29 6A                   		blt	.L116
 118:../src/tensorflow/lite/micro/kernels/pad.cc ****                                     std::numeric_limits<int8_t>::max());
 1364                             		.loc 1 118 9
 118:../src/tensorflow/lite/micro/kernels/pad.cc ****                                     std::numeric_limits<int8_t>::max());
 1365                             		.loc 1 118 9
 1366 057a 75 5A 7F                		cmp	#0x7f, r10
 1367 057d 2B 83                   		ble	.L54
 118:../src/tensorflow/lite/micro/kernels/pad.cc ****                                     std::numeric_limits<int8_t>::max());
 1368                             		.loc 1 118 9 discriminator 1
 118:../src/tensorflow/lite/micro/kernels/pad.cc ****                                     std::numeric_limits<int8_t>::max());
 1369                             		.loc 1 118 9 discriminator 1
 1370 057f ED 7A 05                		mov.L	20[r7], r10
 1371 0582 F9 02 03 94 02 00 00    		mov.L	#.LC23, 12[r0]
 1372 0589 3E 02 77                		mov.L	#0x77, 8[r0]
 1373 058c F9 02 01 2D 00 00 00    		mov.L	#.LC2, 4[r0]
 1374 0593 EF 71                   		mov.L	r7, r1
 1375 0595 F8 02 59 00 00 00       		mov.L	#.LC3, [r0]
 1376 059b 7F 1A                   		jsr	r10
 1377                             	.LVL141:
 118:../src/tensorflow/lite/micro/kernels/pad.cc ****                                     std::numeric_limits<int8_t>::max());
 1378                             		.loc 1 118 9 discriminator 1
 1379 059d 38 9B FA                		bra	.L5
 1380                             	.L115:
 113:../src/tensorflow/lite/micro/kernels/pad.cc ****                                     std::numeric_limits<uint8_t>::max());
 1381                             		.loc 1 113 9 discriminator 1
 113:../src/tensorflow/lite/micro/kernels/pad.cc ****                                     std::numeric_limits<uint8_t>::max());
 1382                             		.loc 1 113 9 discriminator 1
 1383 05a0 ED 7A 05                		mov.L	20[r7], r10
 1384 05a3 F9 02 03 13 02 00 00    		mov.L	#.LC21, 12[r0]
 1385 05aa 3E 02 72                		mov.L	#0x72, 8[r0]
 1386 05ad F9 02 01 2D 00 00 00    		mov.L	#.LC2, 4[r0]
 1387 05b4 EF 71                   		mov.L	r7, r1
 1388 05b6 F8 02 59 00 00 00       		mov.L	#.LC3, [r0]
 1389 05bc 7F 1A                   		jsr	r10
 1390                             	.LVL142:
 113:../src/tensorflow/lite/micro/kernels/pad.cc ****                                     std::numeric_limits<uint8_t>::max());
 1391                             		.loc 1 113 9 discriminator 1
 1392 05be 38 7A FA                		bra	.L5
 1393                             	.L114:
 111:../src/tensorflow/lite/micro/kernels/pad.cc ****                                     std::numeric_limits<uint8_t>::min());
 1394                             		.loc 1 111 9 discriminator 1
 111:../src/tensorflow/lite/micro/kernels/pad.cc ****                                     std::numeric_limits<uint8_t>::min());
 1395                             		.loc 1 111 9 discriminator 1
 1396 05c1 ED 7A 05                		mov.L	20[r7], r10
 1397 05c4 F9 02 03 D2 01 00 00    		mov.L	#.LC20, 12[r0]
 1398 05cb 3E 02 70                		mov.L	#0x70, 8[r0]
 1399 05ce F9 02 01 2D 00 00 00    		mov.L	#.LC2, 4[r0]
 1400 05d5 EF 71                   		mov.L	r7, r1
 1401 05d7 F8 02 59 00 00 00       		mov.L	#.LC3, [r0]
 1402 05dd 7F 1A                   		jsr	r10
 1403                             	.LVL143:
 111:../src/tensorflow/lite/micro/kernels/pad.cc ****                                     std::numeric_limits<uint8_t>::min());
 1404                             		.loc 1 111 9 discriminator 1
 1405 05df 38 59 FA                		bra	.L5
 1406                             	.L116:
 116:../src/tensorflow/lite/micro/kernels/pad.cc ****                                     std::numeric_limits<int8_t>::min());
 1407                             		.loc 1 116 9 discriminator 1
 116:../src/tensorflow/lite/micro/kernels/pad.cc ****                                     std::numeric_limits<int8_t>::min());
 1408                             		.loc 1 116 9 discriminator 1
 1409 05e2 ED 7A 05                		mov.L	20[r7], r10
 1410 05e5 F9 02 03 54 02 00 00    		mov.L	#.LC22, 12[r0]
 1411 05ec 3E 02 75                		mov.L	#0x75, 8[r0]
 1412 05ef F9 02 01 2D 00 00 00    		mov.L	#.LC2, 4[r0]
 1413 05f6 EF 71                   		mov.L	r7, r1
 1414 05f8 F8 02 59 00 00 00       		mov.L	#.LC3, [r0]
 1415 05fe 7F 1A                   		jsr	r10
 1416                             	.LVL144:
 116:../src/tensorflow/lite/micro/kernels/pad.cc ****                                     std::numeric_limits<int8_t>::min());
 1417                             		.loc 1 116 9 discriminator 1
 1418 0600 38 38 FA                		bra	.L5
 1419                             	.LVL145:
 1420                             	.L104:
  46:../src/tensorflow/lite/micro/kernels/pad.cc ****   OpData* data = static_cast<OpData*>(node->user_data);
 1421                             		.loc 1 46 3 is_stmt 0 discriminator 1
 1422 0603 05 00 00 00             		bsr	_abort
 1423                             	.LVL146:
 1424                             	.LFE2853:
 1426 0607 03                      		.section	.text._ZN6tflite3ops5micro3pad4EvalEP13TfLiteContextP10TfLiteNode,"ax",@progbits
 1427                             		.global	__ZN6tflite3ops5micro3pad4EvalEP13TfLiteContextP10TfLiteNode
 1429                             	__ZN6tflite3ops5micro3pad4EvalEP13TfLiteContextP10TfLiteNode:
 1430                             	.LFB2854:
 134:../src/tensorflow/lite/micro/kernels/pad.cc **** 
 135:../src/tensorflow/lite/micro/kernels/pad.cc **** TfLiteStatus Eval(TfLiteContext* context, TfLiteNode* node) {
 1431                             		.loc 1 135 61 is_stmt 1
 1432                             	.LVL147:
 1433 0000 6E 6D                   		pushm	r6-r13
 1434                             	.LCFI2:
 1435 0002 72 00 40 FC             		add	#-960, r0
 1436                             	.LCFI3:
 136:../src/tensorflow/lite/micro/kernels/pad.cc ****   TFLITE_DCHECK(node->user_data != nullptr);
 1437                             		.loc 1 136 3
 1438 0006 A9 26                   		mov.L	16[r2], r6
 1439 0008 61 06                   		cmp	#0, r6
 1440 000a 3A 64 19                		beq	.L119
 1441                             	.LBB1030:
 1442                             	.LBB1031:
 1443                             	.LBB1032:
 1444                             		.file 5 "C:\\Users\\a5116938\\Desktop\\e2_studio_workspace\\EEMBC_final\\RX65N_Cloud_Kit\\src/tens
   1:C:\Users\a5116938\Desktop\e2_studio_workspace\EEMBC_final\RX65N_Cloud_Kit\src/tensorflow/lite/micro/kernels\kernel_util.h **** /* Copyright 2020 The TensorFlow Authors. All Rights Reserved.
   2:C:\Users\a5116938\Desktop\e2_studio_workspace\EEMBC_final\RX65N_Cloud_Kit\src/tensorflow/lite/micro/kernels\kernel_util.h **** 
   3:C:\Users\a5116938\Desktop\e2_studio_workspace\EEMBC_final\RX65N_Cloud_Kit\src/tensorflow/lite/micro/kernels\kernel_util.h **** Licensed under the Apache License, Version 2.0 (the "License");
   4:C:\Users\a5116938\Desktop\e2_studio_workspace\EEMBC_final\RX65N_Cloud_Kit\src/tensorflow/lite/micro/kernels\kernel_util.h **** you may not use this file except in compliance with the License.
   5:C:\Users\a5116938\Desktop\e2_studio_workspace\EEMBC_final\RX65N_Cloud_Kit\src/tensorflow/lite/micro/kernels\kernel_util.h **** You may obtain a copy of the License at
   6:C:\Users\a5116938\Desktop\e2_studio_workspace\EEMBC_final\RX65N_Cloud_Kit\src/tensorflow/lite/micro/kernels\kernel_util.h **** 
   7:C:\Users\a5116938\Desktop\e2_studio_workspace\EEMBC_final\RX65N_Cloud_Kit\src/tensorflow/lite/micro/kernels\kernel_util.h ****     http://www.apache.org/licenses/LICENSE-2.0
   8:C:\Users\a5116938\Desktop\e2_studio_workspace\EEMBC_final\RX65N_Cloud_Kit\src/tensorflow/lite/micro/kernels\kernel_util.h **** 
   9:C:\Users\a5116938\Desktop\e2_studio_workspace\EEMBC_final\RX65N_Cloud_Kit\src/tensorflow/lite/micro/kernels\kernel_util.h **** Unless required by applicable law or agreed to in writing, software
  10:C:\Users\a5116938\Desktop\e2_studio_workspace\EEMBC_final\RX65N_Cloud_Kit\src/tensorflow/lite/micro/kernels\kernel_util.h **** distributed under the License is distributed on an "AS IS" BASIS,
  11:C:\Users\a5116938\Desktop\e2_studio_workspace\EEMBC_final\RX65N_Cloud_Kit\src/tensorflow/lite/micro/kernels\kernel_util.h **** WITHOUT WARRANTIES OR CONDITIONS OF ANY KIND, either express or implied.
  12:C:\Users\a5116938\Desktop\e2_studio_workspace\EEMBC_final\RX65N_Cloud_Kit\src/tensorflow/lite/micro/kernels\kernel_util.h **** See the License for the specific language governing permissions and
  13:C:\Users\a5116938\Desktop\e2_studio_workspace\EEMBC_final\RX65N_Cloud_Kit\src/tensorflow/lite/micro/kernels\kernel_util.h **** limitations under the License.
  14:C:\Users\a5116938\Desktop\e2_studio_workspace\EEMBC_final\RX65N_Cloud_Kit\src/tensorflow/lite/micro/kernels\kernel_util.h **** ==============================================================================*/
  15:C:\Users\a5116938\Desktop\e2_studio_workspace\EEMBC_final\RX65N_Cloud_Kit\src/tensorflow/lite/micro/kernels\kernel_util.h **** 
  16:C:\Users\a5116938\Desktop\e2_studio_workspace\EEMBC_final\RX65N_Cloud_Kit\src/tensorflow/lite/micro/kernels\kernel_util.h **** #ifndef TENSORFLOW_LITE_MICRO_KERNELS_KERNEL_UTIL_H_
  17:C:\Users\a5116938\Desktop\e2_studio_workspace\EEMBC_final\RX65N_Cloud_Kit\src/tensorflow/lite/micro/kernels\kernel_util.h **** #define TENSORFLOW_LITE_MICRO_KERNELS_KERNEL_UTIL_H_
  18:C:\Users\a5116938\Desktop\e2_studio_workspace\EEMBC_final\RX65N_Cloud_Kit\src/tensorflow/lite/micro/kernels\kernel_util.h **** 
  19:C:\Users\a5116938\Desktop\e2_studio_workspace\EEMBC_final\RX65N_Cloud_Kit\src/tensorflow/lite/micro/kernels\kernel_util.h **** #include <cstdint>
  20:C:\Users\a5116938\Desktop\e2_studio_workspace\EEMBC_final\RX65N_Cloud_Kit\src/tensorflow/lite/micro/kernels\kernel_util.h **** 
  21:C:\Users\a5116938\Desktop\e2_studio_workspace\EEMBC_final\RX65N_Cloud_Kit\src/tensorflow/lite/micro/kernels\kernel_util.h **** #include "tensorflow/lite/c/common.h"
  22:C:\Users\a5116938\Desktop\e2_studio_workspace\EEMBC_final\RX65N_Cloud_Kit\src/tensorflow/lite/micro/kernels\kernel_util.h **** #include "tensorflow/lite/kernels/internal/compatibility.h"
  23:C:\Users\a5116938\Desktop\e2_studio_workspace\EEMBC_final\RX65N_Cloud_Kit\src/tensorflow/lite/micro/kernels\kernel_util.h **** #include "tensorflow/lite/kernels/internal/types.h"
  24:C:\Users\a5116938\Desktop\e2_studio_workspace\EEMBC_final\RX65N_Cloud_Kit\src/tensorflow/lite/micro/kernels\kernel_util.h **** 
  25:C:\Users\a5116938\Desktop\e2_studio_workspace\EEMBC_final\RX65N_Cloud_Kit\src/tensorflow/lite/micro/kernels\kernel_util.h **** namespace tflite {
  26:C:\Users\a5116938\Desktop\e2_studio_workspace\EEMBC_final\RX65N_Cloud_Kit\src/tensorflow/lite/micro/kernels\kernel_util.h **** namespace micro {
  27:C:\Users\a5116938\Desktop\e2_studio_workspace\EEMBC_final\RX65N_Cloud_Kit\src/tensorflow/lite/micro/kernels\kernel_util.h **** 
  28:C:\Users\a5116938\Desktop\e2_studio_workspace\EEMBC_final\RX65N_Cloud_Kit\src/tensorflow/lite/micro/kernels\kernel_util.h **** // Returns a mutable tensor for a given input index. is_variable must be checked
  29:C:\Users\a5116938\Desktop\e2_studio_workspace\EEMBC_final\RX65N_Cloud_Kit\src/tensorflow/lite/micro/kernels\kernel_util.h **** // during prepare when the full TfLiteTensor is available.
  30:C:\Users\a5116938\Desktop\e2_studio_workspace\EEMBC_final\RX65N_Cloud_Kit\src/tensorflow/lite/micro/kernels\kernel_util.h **** inline TfLiteEvalTensor* GetMutableEvalInput(const TfLiteContext* context,
  31:C:\Users\a5116938\Desktop\e2_studio_workspace\EEMBC_final\RX65N_Cloud_Kit\src/tensorflow/lite/micro/kernels\kernel_util.h ****                                              const TfLiteNode* node,
  32:C:\Users\a5116938\Desktop\e2_studio_workspace\EEMBC_final\RX65N_Cloud_Kit\src/tensorflow/lite/micro/kernels\kernel_util.h ****                                              int index) {
  33:C:\Users\a5116938\Desktop\e2_studio_workspace\EEMBC_final\RX65N_Cloud_Kit\src/tensorflow/lite/micro/kernels\kernel_util.h ****   TFLITE_DCHECK(context != nullptr);
 1445                             		.loc 5 33 3 is_stmt 0
 1446 000d 71 1A 00                		add	#0, r1, r10
 1447 0010 3A 5E 19                		beq	.L119
 1448 0013 EF 27                   		mov.L	r2, r7
  34:C:\Users\a5116938\Desktop\e2_studio_workspace\EEMBC_final\RX65N_Cloud_Kit\src/tensorflow/lite/micro/kernels\kernel_util.h ****   TFLITE_DCHECK(node != nullptr);
 1449                             		.loc 5 34 3 is_stmt 1
  35:C:\Users\a5116938\Desktop\e2_studio_workspace\EEMBC_final\RX65N_Cloud_Kit\src/tensorflow/lite/micro/kernels\kernel_util.h ****   return context->GetEvalTensor(context, node->inputs->data[index]);
 1450                             		.loc 5 35 3
 1451                             		.loc 5 35 32 is_stmt 0
 1452 0015 EC 24                   		mov.L	[r2], r4
 1453 0017 ED A5 15                		mov.L	84[r10], r5
 1454 001a A8 4A                   		mov.L	4[r4], r2
 1455                             	.LVL148:
 1456 001c 7F 15                   		jsr	r5
 1457                             	.LVL149:
 1458 001e EF 1B                   		mov.L	r1, r11
 1459                             	.LVL150:
 1460                             	.LBE1032:
 1461                             	.LBE1031:
 1462                             	.LBE1030:
 137:../src/tensorflow/lite/micro/kernels/pad.cc ****   const OpData* data = static_cast<const OpData*>(node->user_data);
 138:../src/tensorflow/lite/micro/kernels/pad.cc **** 
 139:../src/tensorflow/lite/micro/kernels/pad.cc ****   const TfLiteEvalTensor* input =
 140:../src/tensorflow/lite/micro/kernels/pad.cc ****       tflite::micro::GetEvalInput(context, node, /*index=*/0);
 141:../src/tensorflow/lite/micro/kernels/pad.cc ****   const TfLiteEvalTensor* constant_values =
 1463                             		.loc 1 141 3 is_stmt 1
 142:../src/tensorflow/lite/micro/kernels/pad.cc ****       NumInputs(node) == 3
 1464                             		.loc 1 142 16 is_stmt 0
 1465 0020 EC 75                   		mov.L	[r7], r5
 1466                             	.LVL151:
 1467                             	.LBB1033:
 1468                             	.LBB1034:
 152:C:\Users\a5116938\Desktop\e2_studio_workspace\EEMBC_final\RX65N_Cloud_Kit\src/tensorflow/lite/kernels\kernel_util.h **** inline int NumOutputs(const TfLiteNode* node) { return node->outputs->size; }
 1469                             		.loc 2 152 48 is_stmt 1
 1470                             	.LBE1034:
 1471                             	.LBE1033:
 143:../src/tensorflow/lite/micro/kernels/pad.cc ****           ? tflite::micro::GetEvalInput(context, node, /*index=*/2)
 1472                             		.loc 1 143 11 is_stmt 0
 1473 0022 EC 54                   		mov.L	[r5], r4
 1474 0024 61 34                   		cmp	#3, r4
 1475 0026 3A 77 05                		beq	.L916
 1476                             	.LVL152:
 144:../src/tensorflow/lite/micro/kernels/pad.cc ****           : nullptr;
 145:../src/tensorflow/lite/micro/kernels/pad.cc ****   TfLiteEvalTensor* output =
 1477                             		.loc 1 145 3 is_stmt 1
 1478                             	.LBB1035:
 1479                             	.LBB1036:
  36:C:\Users\a5116938\Desktop\e2_studio_workspace\EEMBC_final\RX65N_Cloud_Kit\src/tensorflow/lite/micro/kernels\kernel_util.h **** }
  37:C:\Users\a5116938\Desktop\e2_studio_workspace\EEMBC_final\RX65N_Cloud_Kit\src/tensorflow/lite/micro/kernels\kernel_util.h **** 
  38:C:\Users\a5116938\Desktop\e2_studio_workspace\EEMBC_final\RX65N_Cloud_Kit\src/tensorflow/lite/micro/kernels\kernel_util.h **** // Returns the TfLiteEvalTensor struct for a given input index in a node.
  39:C:\Users\a5116938\Desktop\e2_studio_workspace\EEMBC_final\RX65N_Cloud_Kit\src/tensorflow/lite/micro/kernels\kernel_util.h **** inline const TfLiteEvalTensor* GetEvalInput(const TfLiteContext* context,
  40:C:\Users\a5116938\Desktop\e2_studio_workspace\EEMBC_final\RX65N_Cloud_Kit\src/tensorflow/lite/micro/kernels\kernel_util.h ****                                             const TfLiteNode* node, int index) {
  41:C:\Users\a5116938\Desktop\e2_studio_workspace\EEMBC_final\RX65N_Cloud_Kit\src/tensorflow/lite/micro/kernels\kernel_util.h ****   return GetMutableEvalInput(context, node, index);
  42:C:\Users\a5116938\Desktop\e2_studio_workspace\EEMBC_final\RX65N_Cloud_Kit\src/tensorflow/lite/micro/kernels\kernel_util.h **** }
  43:C:\Users\a5116938\Desktop\e2_studio_workspace\EEMBC_final\RX65N_Cloud_Kit\src/tensorflow/lite/micro/kernels\kernel_util.h **** 
  44:C:\Users\a5116938\Desktop\e2_studio_workspace\EEMBC_final\RX65N_Cloud_Kit\src/tensorflow/lite/micro/kernels\kernel_util.h **** // Returns the TfLiteEvalTensor struct for a given output index in a node.
  45:C:\Users\a5116938\Desktop\e2_studio_workspace\EEMBC_final\RX65N_Cloud_Kit\src/tensorflow/lite/micro/kernels\kernel_util.h **** inline TfLiteEvalTensor* GetEvalOutput(const TfLiteContext* context,
  46:C:\Users\a5116938\Desktop\e2_studio_workspace\EEMBC_final\RX65N_Cloud_Kit\src/tensorflow/lite/micro/kernels\kernel_util.h ****                                        const TfLiteNode* node, int index) {
  47:C:\Users\a5116938\Desktop\e2_studio_workspace\EEMBC_final\RX65N_Cloud_Kit\src/tensorflow/lite/micro/kernels\kernel_util.h ****   TFLITE_DCHECK(context != nullptr);
 1480                             		.loc 5 47 3
  48:C:\Users\a5116938\Desktop\e2_studio_workspace\EEMBC_final\RX65N_Cloud_Kit\src/tensorflow/lite/micro/kernels\kernel_util.h ****   TFLITE_DCHECK(node != nullptr);
 1481                             		.loc 5 48 3
  49:C:\Users\a5116938\Desktop\e2_studio_workspace\EEMBC_final\RX65N_Cloud_Kit\src/tensorflow/lite/micro/kernels\kernel_util.h ****   return context->GetEvalTensor(context, node->outputs->data[index]);
 1482                             		.loc 5 49 3
 1483                             		.loc 5 49 32 is_stmt 0
 1484 0029 A8 7D                   		mov.L	4[r7], r5
 1485 002b ED A7 15                		mov.L	84[r10], r7
 1486                             	.LVL153:
 1487 002e EF A1                   		mov.L	r10, r1
 1488                             	.LVL154:
 1489 0030 A8 5A                   		mov.L	4[r5], r2
 1490 0032 7F 17                   		jsr	r7
 1491                             	.LVL155:
 1492 0034 EF 17                   		mov.L	r1, r7
 1493                             	.LVL156:
 1494                             	.LBE1036:
 1495                             	.LBE1035:
 146:../src/tensorflow/lite/micro/kernels/pad.cc ****       tflite::micro::GetEvalOutput(context, node, /*index=*/0);
 147:../src/tensorflow/lite/micro/kernels/pad.cc **** 
 148:../src/tensorflow/lite/micro/kernels/pad.cc ****   switch (input->type) {
 1496                             		.loc 1 148 3 is_stmt 1
 1497                             	.LBB1038:
 1498                             		.loc 1 148 18 is_stmt 0
 1499 0036 ED B1 02                		mov.L	8[r11], r1
 1500                             	.LVL157:
 1501                             		.loc 1 148 3
 1502 0039 61 21                   		cmp	#2, r1
 1503 003b 3A E9 0C                		beq	.L495
 1504 003e 24 05 38 9F 02          		bleu	.L917
 1505 0043 61 31                   		cmp	#3, r1
 1506 0045 3A A1 05                		beq	.L437
 1507 0048 61 91                   		cmp	#9, r1
 1508 004a 3B 99 02                		bne	.L124
 1509                             	.LVL158:
 1510 004d FC 13 00                		.balign 8,3,5
 1511                             	.L438:
 1512                             	.LBB1039:
 1513                             	.LBB1040:
 149:../src/tensorflow/lite/micro/kernels/pad.cc ****     case kTfLiteFloat32: {
 150:../src/tensorflow/lite/micro/kernels/pad.cc ****       float pad_value =
 151:../src/tensorflow/lite/micro/kernels/pad.cc ****           constant_values == nullptr
 152:../src/tensorflow/lite/micro/kernels/pad.cc ****               ? 0.f
 153:../src/tensorflow/lite/micro/kernels/pad.cc ****               : *tflite::micro::GetTensorData<float>(constant_values);
 154:../src/tensorflow/lite/micro/kernels/pad.cc ****       if (data->params.resizing_category == ResizingCategory::kImageStyle) {
 155:../src/tensorflow/lite/micro/kernels/pad.cc ****         reference_ops::PadImageStyle(
 156:../src/tensorflow/lite/micro/kernels/pad.cc ****             data->params, tflite::micro::GetTensorShape(input),
 157:../src/tensorflow/lite/micro/kernels/pad.cc ****             tflite::micro::GetTensorData<float>(input), &pad_value,
 158:../src/tensorflow/lite/micro/kernels/pad.cc ****             tflite::micro::GetTensorShape(output),
 159:../src/tensorflow/lite/micro/kernels/pad.cc ****             tflite::micro::GetTensorData<float>(output));
 160:../src/tensorflow/lite/micro/kernels/pad.cc ****       } else {
 161:../src/tensorflow/lite/micro/kernels/pad.cc ****         reference_ops::Pad(data->params, tflite::micro::GetTensorShape(input),
 162:../src/tensorflow/lite/micro/kernels/pad.cc ****                            tflite::micro::GetTensorData<float>(input),
 163:../src/tensorflow/lite/micro/kernels/pad.cc ****                            &pad_value, tflite::micro::GetTensorShape(output),
 164:../src/tensorflow/lite/micro/kernels/pad.cc ****                            tflite::micro::GetTensorData<float>(output));
 165:../src/tensorflow/lite/micro/kernels/pad.cc ****       }
 166:../src/tensorflow/lite/micro/kernels/pad.cc ****     } break;
 167:../src/tensorflow/lite/micro/kernels/pad.cc ****     case kTfLiteUInt8: {
 168:../src/tensorflow/lite/micro/kernels/pad.cc ****       uint8_t pad_value;
 169:../src/tensorflow/lite/micro/kernels/pad.cc ****       if (constant_values == nullptr) {
 170:../src/tensorflow/lite/micro/kernels/pad.cc ****         pad_value = static_cast<uint8_t>(data->output_zero_point);
 171:../src/tensorflow/lite/micro/kernels/pad.cc ****       } else {
 172:../src/tensorflow/lite/micro/kernels/pad.cc ****         pad_value = *tflite::micro::GetTensorData<uint8_t>(constant_values);
 173:../src/tensorflow/lite/micro/kernels/pad.cc ****       }
 174:../src/tensorflow/lite/micro/kernels/pad.cc ****       if (data->params.resizing_category == ResizingCategory::kImageStyle) {
 175:../src/tensorflow/lite/micro/kernels/pad.cc ****         reference_ops::PadImageStyle(
 176:../src/tensorflow/lite/micro/kernels/pad.cc ****             data->params, tflite::micro::GetTensorShape(input),
 177:../src/tensorflow/lite/micro/kernels/pad.cc ****             tflite::micro::GetTensorData<uint8_t>(input), &pad_value,
 178:../src/tensorflow/lite/micro/kernels/pad.cc ****             tflite::micro::GetTensorShape(output),
 179:../src/tensorflow/lite/micro/kernels/pad.cc ****             tflite::micro::GetTensorData<uint8_t>(output));
 180:../src/tensorflow/lite/micro/kernels/pad.cc ****       } else {
 181:../src/tensorflow/lite/micro/kernels/pad.cc ****         reference_ops::Pad(data->params, tflite::micro::GetTensorShape(input),
 182:../src/tensorflow/lite/micro/kernels/pad.cc ****                            tflite::micro::GetTensorData<uint8_t>(input),
 183:../src/tensorflow/lite/micro/kernels/pad.cc ****                            &pad_value, tflite::micro::GetTensorShape(output),
 184:../src/tensorflow/lite/micro/kernels/pad.cc ****                            tflite::micro::GetTensorData<uint8_t>(output));
 185:../src/tensorflow/lite/micro/kernels/pad.cc ****       }
 186:../src/tensorflow/lite/micro/kernels/pad.cc ****     } break;
 187:../src/tensorflow/lite/micro/kernels/pad.cc ****     case kTfLiteInt8: {
 188:../src/tensorflow/lite/micro/kernels/pad.cc ****       int8_t pad_value;
 189:../src/tensorflow/lite/micro/kernels/pad.cc ****       if (constant_values == nullptr) {
 190:../src/tensorflow/lite/micro/kernels/pad.cc ****         pad_value = static_cast<uint8_t>(data->output_zero_point);
 1514                             		.loc 1 190 9 is_stmt 1
 1515                             		.loc 1 190 21 is_stmt 0
 1516 0050 CD 6A 2C                		mov.B	44[r6], r10
 1517                             	.LVL159:
 1518                             		.balign 8,3,3
 1519                             	.L304:
 191:../src/tensorflow/lite/micro/kernels/pad.cc ****       } else {
 192:../src/tensorflow/lite/micro/kernels/pad.cc ****         pad_value = *tflite::micro::GetTensorData<int8_t>(constant_values);
 193:../src/tensorflow/lite/micro/kernels/pad.cc ****       }
 194:../src/tensorflow/lite/micro/kernels/pad.cc ****       if (data->params.resizing_category == ResizingCategory::kImageStyle) {
 1520                             		.loc 1 194 7 is_stmt 1
 1521 0053 59 65 28                		movu.B	40[r6], r5
 1522 0056 61 15                   		cmp	#1, r5
 1523 0058 3A 0E 10                		beq	.L918
 195:../src/tensorflow/lite/micro/kernels/pad.cc ****         reference_ops::PadImageStyle(
 196:../src/tensorflow/lite/micro/kernels/pad.cc ****             data->params, tflite::micro::GetTensorShape(input),
 197:../src/tensorflow/lite/micro/kernels/pad.cc ****             tflite::micro::GetTensorData<int8_t>(input), &pad_value,
 198:../src/tensorflow/lite/micro/kernels/pad.cc ****             tflite::micro::GetTensorShape(output),
 199:../src/tensorflow/lite/micro/kernels/pad.cc ****             tflite::micro::GetTensorData<int8_t>(output));
 200:../src/tensorflow/lite/micro/kernels/pad.cc ****       } else {
 201:../src/tensorflow/lite/micro/kernels/pad.cc ****         reference_ops::Pad(data->params, tflite::micro::GetTensorShape(input),
 1524                             		.loc 1 201 9
 1525                             		.loc 1 201 71 is_stmt 0
 1526 005b 72 0F A0 01             		add	#0x1a0, r0, r15
 1527 005f EF B1                   		mov.L	r11, r1
 1528 0061 05 00 00 00             		bsr	__ZN6tflite5micro14GetTensorShapeEPK16TfLiteEvalTensor
 1529                             	.LVL160:
 202:../src/tensorflow/lite/micro/kernels/pad.cc ****                            tflite::micro::GetTensorData<int8_t>(input),
 203:../src/tensorflow/lite/micro/kernels/pad.cc ****                            &pad_value, tflite::micro::GetTensorShape(output),
 1530                             		.loc 1 203 69
 1531 0065 72 0F 88 01             		add	#0x188, r0, r15
 1532 0069 EF 71                   		mov.L	r7, r1
 1533                             	.LBB1041:
 1534                             	.LBB1042:
  50:C:\Users\a5116938\Desktop\e2_studio_workspace\EEMBC_final\RX65N_Cloud_Kit\src/tensorflow/lite/micro/kernels\kernel_util.h **** }
  51:C:\Users\a5116938\Desktop\e2_studio_workspace\EEMBC_final\RX65N_Cloud_Kit\src/tensorflow/lite/micro/kernels\kernel_util.h **** 
  52:C:\Users\a5116938\Desktop\e2_studio_workspace\EEMBC_final\RX65N_Cloud_Kit\src/tensorflow/lite/micro/kernels\kernel_util.h **** // Returns data for a TfLiteEvalTensor struct.
  53:C:\Users\a5116938\Desktop\e2_studio_workspace\EEMBC_final\RX65N_Cloud_Kit\src/tensorflow/lite/micro/kernels\kernel_util.h **** template <typename T>
  54:C:\Users\a5116938\Desktop\e2_studio_workspace\EEMBC_final\RX65N_Cloud_Kit\src/tensorflow/lite/micro/kernels\kernel_util.h **** T* GetTensorData(TfLiteEvalTensor* tensor) {
  55:C:\Users\a5116938\Desktop\e2_studio_workspace\EEMBC_final\RX65N_Cloud_Kit\src/tensorflow/lite/micro/kernels\kernel_util.h ****   return tensor != nullptr ? reinterpret_cast<T*>(tensor->data.raw) : nullptr;
  56:C:\Users\a5116938\Desktop\e2_studio_workspace\EEMBC_final\RX65N_Cloud_Kit\src/tensorflow/lite/micro/kernels\kernel_util.h **** }
  57:C:\Users\a5116938\Desktop\e2_studio_workspace\EEMBC_final\RX65N_Cloud_Kit\src/tensorflow/lite/micro/kernels\kernel_util.h **** 
  58:C:\Users\a5116938\Desktop\e2_studio_workspace\EEMBC_final\RX65N_Cloud_Kit\src/tensorflow/lite/micro/kernels\kernel_util.h **** // Returns const data for a TfLiteEvalTensor struct.
  59:C:\Users\a5116938\Desktop\e2_studio_workspace\EEMBC_final\RX65N_Cloud_Kit\src/tensorflow/lite/micro/kernels\kernel_util.h **** template <typename T>
  60:C:\Users\a5116938\Desktop\e2_studio_workspace\EEMBC_final\RX65N_Cloud_Kit\src/tensorflow/lite/micro/kernels\kernel_util.h **** const T* GetTensorData(const TfLiteEvalTensor* tensor) {
  61:C:\Users\a5116938\Desktop\e2_studio_workspace\EEMBC_final\RX65N_Cloud_Kit\src/tensorflow/lite/micro/kernels\kernel_util.h ****   TFLITE_DCHECK(tensor != nullptr);
  62:C:\Users\a5116938\Desktop\e2_studio_workspace\EEMBC_final\RX65N_Cloud_Kit\src/tensorflow/lite/micro/kernels\kernel_util.h ****   return reinterpret_cast<const T*>(tensor->data.raw);
 1535                             		.loc 5 62 53
 1536 006b E4 B0 ED                		mov.L	[r11], 948[r0]
 1537                             	.LVL161:
 1538                             	.LBE1042:
 1539                             	.LBE1041:
 1540                             		.loc 1 203 69
 1541 006e 05 00 00 00             		bsr	__ZN6tflite5micro14GetTensorShapeEPK16TfLiteEvalTensor
 1542                             	.LVL162:
 1543                             	.LBB1043:
 1544                             	.LBB1044:
  55:C:\Users\a5116938\Desktop\e2_studio_workspace\EEMBC_final\RX65N_Cloud_Kit\src/tensorflow/lite/micro/kernels\kernel_util.h **** }
 1545                             		.loc 5 55 28
 1546 0072 61 07                   		cmp	#0, r7
 1547 0074 14                      		beq	.L350
 1548 0075 EC 77                   		mov.L	[r7], r7
 1549                             	.LVL163:
 1550 0077 03                      		.balign 8,3,2
 1551                             	.L350:
 1552                             	.LBE1044:
 1553                             	.LBE1043:
 1554                             	.LBE1040:
 1555                             	.LBE1039:
 1556                             	.LBE1038:
 262:C:\Users\a5116938\Desktop\e2_studio_workspace\EEMBC_final\RX65N_Cloud_Kit\src/tensorflow/lite/kernels/internal\types.h ****   }
 1557                             		.loc 4 262 5 is_stmt 1
 1558                             	.LBB2252:
 1559                             	.LBB2192:
 1560                             	.LBB1342:
 1561                             	.LBB1045:
 1562                             	.LBB1046:
 1563                             	.LBB1047:
 1564                             	.LBB1048:
 1565                             	.LBB1049:
 1566                             	.LBB1050:
 1567                             	.LBB1051:
 1568                             	.LBB1052:
 278:C:\Users\a5116938\Desktop\e2_studio_workspace\EEMBC_final\RX65N_Cloud_Kit\src/tensorflow/lite/kernels/internal\types.h ****   }
 279:C:\Users\a5116938\Desktop\e2_studio_workspace\EEMBC_final\RX65N_Cloud_Kit\src/tensorflow/lite/kernels/internal\types.h **** 
 280:C:\Users\a5116938\Desktop\e2_studio_workspace\EEMBC_final\RX65N_Cloud_Kit\src/tensorflow/lite/kernels/internal\types.h ****   bool operator!=(const RuntimeShape& comp) const { return !((*this) == comp); }
 281:C:\Users\a5116938\Desktop\e2_studio_workspace\EEMBC_final\RX65N_Cloud_Kit\src/tensorflow/lite/kernels/internal\types.h **** 
 282:C:\Users\a5116938\Desktop\e2_studio_workspace\EEMBC_final\RX65N_Cloud_Kit\src/tensorflow/lite/kernels/internal\types.h ****  private:
 283:C:\Users\a5116938\Desktop\e2_studio_workspace\EEMBC_final\RX65N_Cloud_Kit\src/tensorflow/lite/kernels/internal\types.h ****   // For use only by ExtendedShape(), written to guarantee (return-value) copy
 284:C:\Users\a5116938\Desktop\e2_studio_workspace\EEMBC_final\RX65N_Cloud_Kit\src/tensorflow/lite/kernels/internal\types.h ****   // elision in C++17.
 285:C:\Users\a5116938\Desktop\e2_studio_workspace\EEMBC_final\RX65N_Cloud_Kit\src/tensorflow/lite/kernels/internal\types.h ****   // This creates a shape padded to the desired size with the specified value.
 286:C:\Users\a5116938\Desktop\e2_studio_workspace\EEMBC_final\RX65N_Cloud_Kit\src/tensorflow/lite/kernels/internal\types.h ****   RuntimeShape(int new_shape_size, const RuntimeShape& shape, int pad_value)
 287:C:\Users\a5116938\Desktop\e2_studio_workspace\EEMBC_final\RX65N_Cloud_Kit\src/tensorflow/lite/kernels/internal\types.h ****       : size_(0) {
 288:C:\Users\a5116938\Desktop\e2_studio_workspace\EEMBC_final\RX65N_Cloud_Kit\src/tensorflow/lite/kernels/internal\types.h ****     // If the following check fails, it is likely because a 4D-only kernel is
 289:C:\Users\a5116938\Desktop\e2_studio_workspace\EEMBC_final\RX65N_Cloud_Kit\src/tensorflow/lite/kernels/internal\types.h ****     // being used with an array of larger dimension count.
 290:C:\Users\a5116938\Desktop\e2_studio_workspace\EEMBC_final\RX65N_Cloud_Kit\src/tensorflow/lite/kernels/internal\types.h ****     TFLITE_CHECK_GE(new_shape_size, shape.DimensionsCount());
 1569                             		.loc 4 290 5 is_stmt 0
 1570 0078 ED 03 68                		mov.L	416[r0], r3
 1571                             	.LBE1052:
 287:C:\Users\a5116938\Desktop\e2_studio_workspace\EEMBC_final\RX65N_Cloud_Kit\src/tensorflow/lite/kernels/internal\types.h ****     // If the following check fails, it is likely because a 4D-only kernel is
 1572                             		.loc 4 287 16
 1573 007b 3E 84 00                		mov.L	#0, 80[r0]
 1574                             	.LBB1064:
 1575                             		.loc 4 290 5 is_stmt 1
 1576                             	.LVL164:
 1577                             	.LBE1064:
 1578                             	.LBE1051:
 1579                             	.LBE1050:
 1580                             	.LBE1049:
 1581                             	.LBE1048:
 1582                             	.LBE1047:
 1583                             	.LBE1046:
 1584                             	.LBE1045:
 1585                             	.LBE1342:
 1586                             	.LBE2192:
 1587                             	.LBE2252:
 194:C:\Users\a5116938\Desktop\e2_studio_workspace\EEMBC_final\RX65N_Cloud_Kit\src/tensorflow/lite/kernels/internal\types.h ****   inline int32_t Dims(int i) const {
 1588                             		.loc 4 194 44
 1589                             	.LBB2253:
 1590                             	.LBB2193:
 1591                             	.LBB1343:
 1592                             	.LBB1170:
 1593                             	.LBB1160:
 1594                             	.LBB1150:
 1595                             	.LBB1077:
 1596                             	.LBB1074:
 1597                             	.LBB1071:
 1598                             	.LBB1068:
 1599                             	.LBB1065:
 1600                             		.loc 4 290 5 is_stmt 0
 1601 007e 61 43                   		cmp	#4, r3
 1602 0080 2B 05 38 EC 18          		bgt	.L119
 291:C:\Users\a5116938\Desktop\e2_studio_workspace\EEMBC_final\RX65N_Cloud_Kit\src/tensorflow/lite/kernels/internal\types.h ****     Resize(new_shape_size);
 1603                             		.loc 4 291 5 is_stmt 1
 1604                             	.LVL165:
 1605                             	.LBB1053:
 1606                             	.LBB1054:
 220:C:\Users\a5116938\Desktop\e2_studio_workspace\EEMBC_final\RX65N_Cloud_Kit\src/tensorflow/lite/kernels/internal\types.h **** #ifdef TF_LITE_STATIC_MEMORY
 1607                             		.loc 4 220 5
 227:C:\Users\a5116938\Desktop\e2_studio_workspace\EEMBC_final\RX65N_Cloud_Kit\src/tensorflow/lite/kernels/internal\types.h ****     if (dimensions_count > kMaxSmallSize) {
 1608                             		.loc 4 227 5
 227:C:\Users\a5116938\Desktop\e2_studio_workspace\EEMBC_final\RX65N_Cloud_Kit\src/tensorflow/lite/kernels/internal\types.h ****     if (dimensions_count > kMaxSmallSize) {
 1609                             		.loc 4 227 11 is_stmt 0
 1610 0085 3E 84 04                		mov.L	#4, 80[r0]
 228:C:\Users\a5116938\Desktop\e2_studio_workspace\EEMBC_final\RX65N_Cloud_Kit\src/tensorflow/lite/kernels/internal\types.h **** #ifdef TF_LITE_STATIC_MEMORY
 1611                             		.loc 4 228 5 is_stmt 1
 1612                             	.LVL166:
 1613                             	.LBE1054:
 1614                             	.LBE1053:
 292:C:\Users\a5116938\Desktop\e2_studio_workspace\EEMBC_final\RX65N_Cloud_Kit\src/tensorflow/lite/kernels/internal\types.h ****     const int size_increase = new_shape_size - shape.DimensionsCount();
 1615                             		.loc 4 292 5
 1616                             	.LBE1065:
 1617                             	.LBE1068:
 1618                             	.LBE1071:
 1619                             	.LBE1074:
 1620                             	.LBE1077:
 1621                             	.LBE1150:
 1622                             	.LBE1160:
 1623                             	.LBE1170:
 1624                             	.LBE1343:
 1625                             	.LBE2193:
 1626                             	.LBE2253:
 194:C:\Users\a5116938\Desktop\e2_studio_workspace\EEMBC_final\RX65N_Cloud_Kit\src/tensorflow/lite/kernels/internal\types.h ****   inline int32_t Dims(int i) const {
 1627                             		.loc 4 194 44
 1628                             	.LBB2254:
 1629                             	.LBB2194:
 1630                             	.LBB1344:
 1631                             	.LBB1171:
 1632                             	.LBB1161:
 1633                             	.LBB1151:
 1634                             	.LBB1078:
 1635                             	.LBB1075:
 1636                             	.LBB1072:
 1637                             	.LBB1069:
 1638                             	.LBB1066:
 1639                             		.loc 4 292 70 is_stmt 0
 1640 0088 66 41                   		mov.L	#4, r1
 1641 008a 43 31                   		sub	r3, r1
 1642                             	.LVL167:
 293:C:\Users\a5116938\Desktop\e2_studio_workspace\EEMBC_final\RX65N_Cloud_Kit\src/tensorflow/lite/kernels/internal\types.h ****     for (int i = 0; i < size_increase; ++i) {
 1643                             		.loc 4 293 5 is_stmt 1
 1644                             	.LBB1055:
 1645                             		.loc 4 293 23 is_stmt 0
 1646 008c 20 1E                   		beq	.L351
 1647                             	.LVL168:
 1648                             	.LBB1056:
 1649                             	.LBB1057:
 203:C:\Users\a5116938\Desktop\e2_studio_workspace\EEMBC_final\RX65N_Cloud_Kit\src/tensorflow/lite/kernels/internal\types.h ****       dims_pointer_[i] = val;
 1650                             		.loc 4 203 5 is_stmt 1
 206:C:\Users\a5116938\Desktop\e2_studio_workspace\EEMBC_final\RX65N_Cloud_Kit\src/tensorflow/lite/kernels/internal\types.h ****     }
 1651                             		.loc 4 206 7
 206:C:\Users\a5116938\Desktop\e2_studio_workspace\EEMBC_final\RX65N_Cloud_Kit\src/tensorflow/lite/kernels/internal\types.h ****     }
 1652                             		.loc 4 206 16 is_stmt 0
 1653 008e 3E 85 01                		mov.L	#1, 84[r0]
 1654                             	.LVL169:
 1655                             	.LBE1057:
 1656                             	.LBE1056:
 1657                             		.loc 4 293 23
 1658 0091 61 11                   		cmp	#1, r1
 1659 0093 20 17                   		beq	.L351
 294:C:\Users\a5116938\Desktop\e2_studio_workspace\EEMBC_final\RX65N_Cloud_Kit\src/tensorflow/lite/kernels/internal\types.h ****       SetDim(i, pad_value);
 1660                             		.loc 4 294 7 is_stmt 1
 1661                             	.LVL170:
 1662                             	.LBB1061:
 1663                             	.LBB1058:
 201:C:\Users\a5116938\Desktop\e2_studio_workspace\EEMBC_final\RX65N_Cloud_Kit\src/tensorflow/lite/kernels/internal\types.h ****     TFLITE_DCHECK_LT(i, size_);
 1664                             		.loc 4 201 5
 202:C:\Users\a5116938\Desktop\e2_studio_workspace\EEMBC_final\RX65N_Cloud_Kit\src/tensorflow/lite/kernels/internal\types.h ****     if (size_ > kMaxSmallSize) {
 1665                             		.loc 4 202 5
 203:C:\Users\a5116938\Desktop\e2_studio_workspace\EEMBC_final\RX65N_Cloud_Kit\src/tensorflow/lite/kernels/internal\types.h ****       dims_pointer_[i] = val;
 1666                             		.loc 4 203 5
 206:C:\Users\a5116938\Desktop\e2_studio_workspace\EEMBC_final\RX65N_Cloud_Kit\src/tensorflow/lite/kernels/internal\types.h ****     }
 1667                             		.loc 4 206 7
 206:C:\Users\a5116938\Desktop\e2_studio_workspace\EEMBC_final\RX65N_Cloud_Kit\src/tensorflow/lite/kernels/internal\types.h ****     }
 1668                             		.loc 4 206 16 is_stmt 0
 1669 0095 3E 86 01                		mov.L	#1, 88[r0]
 1670                             	.LVL171:
 1671                             	.LBE1058:
 1672                             	.LBE1061:
 293:C:\Users\a5116938\Desktop\e2_studio_workspace\EEMBC_final\RX65N_Cloud_Kit\src/tensorflow/lite/kernels/internal\types.h ****       SetDim(i, pad_value);
 1673                             		.loc 4 293 23
 1674 0098 61 21                   		cmp	#2, r1
 1675 009a 20 10                   		beq	.L351
 1676                             		.loc 4 294 7 is_stmt 1
 1677                             	.LVL172:
 1678                             	.LBB1062:
 1679                             	.LBB1059:
 201:C:\Users\a5116938\Desktop\e2_studio_workspace\EEMBC_final\RX65N_Cloud_Kit\src/tensorflow/lite/kernels/internal\types.h ****     TFLITE_DCHECK_LT(i, size_);
 1680                             		.loc 4 201 5
 202:C:\Users\a5116938\Desktop\e2_studio_workspace\EEMBC_final\RX65N_Cloud_Kit\src/tensorflow/lite/kernels/internal\types.h ****     if (size_ > kMaxSmallSize) {
 1681                             		.loc 4 202 5
 203:C:\Users\a5116938\Desktop\e2_studio_workspace\EEMBC_final\RX65N_Cloud_Kit\src/tensorflow/lite/kernels/internal\types.h ****       dims_pointer_[i] = val;
 1682                             		.loc 4 203 5
 206:C:\Users\a5116938\Desktop\e2_studio_workspace\EEMBC_final\RX65N_Cloud_Kit\src/tensorflow/lite/kernels/internal\types.h ****     }
 1683                             		.loc 4 206 7
 206:C:\Users\a5116938\Desktop\e2_studio_workspace\EEMBC_final\RX65N_Cloud_Kit\src/tensorflow/lite/kernels/internal\types.h ****     }
 1684                             		.loc 4 206 16 is_stmt 0
 1685 009c 3E 87 01                		mov.L	#1, 92[r0]
 1686                             	.LVL173:
 1687                             	.LBE1059:
 1688                             	.LBE1062:
 293:C:\Users\a5116938\Desktop\e2_studio_workspace\EEMBC_final\RX65N_Cloud_Kit\src/tensorflow/lite/kernels/internal\types.h ****       SetDim(i, pad_value);
 1689                             		.loc 4 293 23
 1690 009f 61 31                   		cmp	#3, r1
 1691 00a1 11                      		beq	.L351
 1692                             		.loc 4 294 7 is_stmt 1
 1693                             	.LVL174:
 1694                             	.LBB1063:
 1695                             	.LBB1060:
 201:C:\Users\a5116938\Desktop\e2_studio_workspace\EEMBC_final\RX65N_Cloud_Kit\src/tensorflow/lite/kernels/internal\types.h ****     TFLITE_DCHECK_LT(i, size_);
 1696                             		.loc 4 201 5
 202:C:\Users\a5116938\Desktop\e2_studio_workspace\EEMBC_final\RX65N_Cloud_Kit\src/tensorflow/lite/kernels/internal\types.h ****     if (size_ > kMaxSmallSize) {
 1697                             		.loc 4 202 5
 203:C:\Users\a5116938\Desktop\e2_studio_workspace\EEMBC_final\RX65N_Cloud_Kit\src/tensorflow/lite/kernels/internal\types.h ****       dims_pointer_[i] = val;
 1698                             		.loc 4 203 5
 206:C:\Users\a5116938\Desktop\e2_studio_workspace\EEMBC_final\RX65N_Cloud_Kit\src/tensorflow/lite/kernels/internal\types.h ****     }
 1699                             		.loc 4 206 7
 206:C:\Users\a5116938\Desktop\e2_studio_workspace\EEMBC_final\RX65N_Cloud_Kit\src/tensorflow/lite/kernels/internal\types.h ****     }
 1700                             		.loc 4 206 16 is_stmt 0
 1701 00a2 3E 88 01                		mov.L	#1, 96[r0]
 1702                             	.LVL175:
 1703                             	.LBE1060:
 1704                             	.LBE1063:
 293:C:\Users\a5116938\Desktop\e2_studio_workspace\EEMBC_final\RX65N_Cloud_Kit\src/tensorflow/lite/kernels/internal\types.h ****       SetDim(i, pad_value);
 1705                             		.loc 4 293 23
 1706 00a5 61 41                   		cmp	#4, r1
 1707 00a7 3B C7 18                		bne	.L119
 1708                             	.LVL176:
 1709                             		.balign 8,3,1
 1710                             	.L351:
 1711                             	.LBE1055:
 1712                             	.LBE1066:
 1713                             	.LBE1069:
 1714                             	.LBE1072:
 1715                             	.LBE1075:
 1716                             	.LBE1078:
 1717                             	.LBE1151:
 1718                             	.LBE1161:
 1719                             	.LBE1171:
 1720                             	.LBE1344:
 1721                             	.LBE2194:
 1722                             	.LBE2254:
 214:C:\Users\a5116938\Desktop\e2_studio_workspace\EEMBC_final\RX65N_Cloud_Kit\src/tensorflow/lite/kernels/internal\types.h ****   }
 1723                             		.loc 4 214 5 is_stmt 1
 194:C:\Users\a5116938\Desktop\e2_studio_workspace\EEMBC_final\RX65N_Cloud_Kit\src/tensorflow/lite/kernels/internal\types.h ****   inline int32_t Dims(int i) const {
 1724                             		.loc 4 194 44
 1725                             	.LBB2255:
 1726                             	.LBB2195:
 1727                             	.LBB1345:
 1728                             	.LBB1172:
 1729                             	.LBB1162:
 1730                             	.LBB1152:
 1731                             	.LBB1079:
 1732                             	.LBB1076:
 1733                             	.LBB1073:
 1734                             	.LBB1070:
 1735                             	.LBB1067:
 295:C:\Users\a5116938\Desktop\e2_studio_workspace\EEMBC_final\RX65N_Cloud_Kit\src/tensorflow/lite/kernels/internal\types.h ****     }
 296:C:\Users\a5116938\Desktop\e2_studio_workspace\EEMBC_final\RX65N_Cloud_Kit\src/tensorflow/lite/kernels/internal\types.h ****     std::memcpy(DimsData() + size_increase, shape.DimsData(),
 1736                             		.loc 4 296 28 is_stmt 0
 1737 00aa 6C 21                   		shll	#2, r1
 1738                             	.LVL177:
 1739                             		.loc 4 296 16
 1740 00ac 75 4F 54                		mov.L	#0x54, r15
 1741 00af 4B 0F                   		add	r0, r15
 1742 00b1 4B F1                   		add	r15, r1
 1743 00b3 72 02 A4 01             		add	#0x1a4, r0, r2
 1744 00b7 6C 23                   		shll	#2, r3
 1745                             	.LVL178:
 1746 00b9 7F 8F                   		smovf
 1747                             	.LVL179:
 1748                             	.LBE1067:
 1749                             	.LBE1070:
 1750                             	.LBE1073:
 1751                             	.LBE1076:
 1752                             	.LBE1079:
 1753                             	.LBE1152:
 1754                             	.LBE1162:
 1755                             	.LBE1172:
 1756                             	.LBE1345:
 1757                             	.LBE2195:
 1758                             	.LBE2255:
 262:C:\Users\a5116938\Desktop\e2_studio_workspace\EEMBC_final\RX65N_Cloud_Kit\src/tensorflow/lite/kernels/internal\types.h ****   }
 1759                             		.loc 4 262 5 is_stmt 1
 1760                             	.LBB2256:
 1761                             	.LBB2196:
 1762                             	.LBB1346:
 1763                             	.LBB1173:
 1764                             	.LBB1163:
 1765                             	.LBB1153:
 1766                             	.LBB1080:
 1767                             	.LBB1081:
 1768                             	.LBB1082:
 1769                             	.LBB1083:
 1770                             	.LBB1084:
 290:C:\Users\a5116938\Desktop\e2_studio_workspace\EEMBC_final\RX65N_Cloud_Kit\src/tensorflow/lite/kernels/internal\types.h ****     Resize(new_shape_size);
 1771                             		.loc 4 290 5 is_stmt 0
 1772 00bb ED 03 62                		mov.L	392[r0], r3
 1773                             	.LBE1084:
 287:C:\Users\a5116938\Desktop\e2_studio_workspace\EEMBC_final\RX65N_Cloud_Kit\src/tensorflow/lite/kernels/internal\types.h ****     // If the following check fails, it is likely because a 4D-only kernel is
 1774                             		.loc 4 287 16
 1775 00be 3E 0E 00                		mov.L	#0, 56[r0]
 1776                             	.LBB1098:
 290:C:\Users\a5116938\Desktop\e2_studio_workspace\EEMBC_final\RX65N_Cloud_Kit\src/tensorflow/lite/kernels/internal\types.h ****     Resize(new_shape_size);
 1777                             		.loc 4 290 5 is_stmt 1
 1778                             	.LVL180:
 1779                             	.LBE1098:
 1780                             	.LBE1083:
 1781                             	.LBE1082:
 1782                             	.LBE1081:
 1783                             	.LBE1080:
 1784                             	.LBE1153:
 1785                             	.LBE1163:
 1786                             	.LBE1173:
 1787                             	.LBE1346:
 1788                             	.LBE2196:
 1789                             	.LBE2256:
 194:C:\Users\a5116938\Desktop\e2_studio_workspace\EEMBC_final\RX65N_Cloud_Kit\src/tensorflow/lite/kernels/internal\types.h ****   inline int32_t Dims(int i) const {
 1790                             		.loc 4 194 44
 1791                             	.LBB2257:
 1792                             	.LBB2197:
 1793                             	.LBB1347:
 1794                             	.LBB1174:
 1795                             	.LBB1164:
 1796                             	.LBB1154:
 1797                             	.LBB1111:
 1798                             	.LBB1108:
 1799                             	.LBB1105:
 1800                             	.LBB1102:
 1801                             	.LBB1099:
 290:C:\Users\a5116938\Desktop\e2_studio_workspace\EEMBC_final\RX65N_Cloud_Kit\src/tensorflow/lite/kernels/internal\types.h ****     Resize(new_shape_size);
 1802                             		.loc 4 290 5 is_stmt 0
 1803 00c1 61 43                   		cmp	#4, r3
 1804 00c3 2B 05 38 A9 18          		bgt	.L119
 291:C:\Users\a5116938\Desktop\e2_studio_workspace\EEMBC_final\RX65N_Cloud_Kit\src/tensorflow/lite/kernels/internal\types.h ****     const int size_increase = new_shape_size - shape.DimensionsCount();
 1805                             		.loc 4 291 5 is_stmt 1
 1806                             	.LVL181:
 1807                             	.LBB1085:
 1808                             	.LBB1086:
 220:C:\Users\a5116938\Desktop\e2_studio_workspace\EEMBC_final\RX65N_Cloud_Kit\src/tensorflow/lite/kernels/internal\types.h **** #ifdef TF_LITE_STATIC_MEMORY
 1809                             		.loc 4 220 5
 227:C:\Users\a5116938\Desktop\e2_studio_workspace\EEMBC_final\RX65N_Cloud_Kit\src/tensorflow/lite/kernels/internal\types.h ****     if (dimensions_count > kMaxSmallSize) {
 1810                             		.loc 4 227 5
 1811                             	.LBE1086:
 1812                             	.LBE1085:
 292:C:\Users\a5116938\Desktop\e2_studio_workspace\EEMBC_final\RX65N_Cloud_Kit\src/tensorflow/lite/kernels/internal\types.h ****     for (int i = 0; i < size_increase; ++i) {
 1813                             		.loc 4 292 70 is_stmt 0
 1814 00c8 66 41                   		mov.L	#4, r1
 1815 00ca 43 31                   		sub	r3, r1
 1816                             	.LBB1088:
 1817                             	.LBB1087:
 227:C:\Users\a5116938\Desktop\e2_studio_workspace\EEMBC_final\RX65N_Cloud_Kit\src/tensorflow/lite/kernels/internal\types.h ****     if (dimensions_count > kMaxSmallSize) {
 1818                             		.loc 4 227 11
 1819 00cc 3E 0E 04                		mov.L	#4, 56[r0]
 228:C:\Users\a5116938\Desktop\e2_studio_workspace\EEMBC_final\RX65N_Cloud_Kit\src/tensorflow/lite/kernels/internal\types.h **** #ifdef TF_LITE_STATIC_MEMORY
 1820                             		.loc 4 228 5 is_stmt 1
 1821                             	.LVL182:
 1822                             	.LBE1087:
 1823                             	.LBE1088:
 292:C:\Users\a5116938\Desktop\e2_studio_workspace\EEMBC_final\RX65N_Cloud_Kit\src/tensorflow/lite/kernels/internal\types.h ****     for (int i = 0; i < size_increase; ++i) {
 1824                             		.loc 4 292 5
 1825                             	.LBE1099:
 1826                             	.LBE1102:
 1827                             	.LBE1105:
 1828                             	.LBE1108:
 1829                             	.LBE1111:
 1830                             	.LBE1154:
 1831                             	.LBE1164:
 1832                             	.LBE1174:
 1833                             	.LBE1347:
 1834                             	.LBE2197:
 1835                             	.LBE2257:
 194:C:\Users\a5116938\Desktop\e2_studio_workspace\EEMBC_final\RX65N_Cloud_Kit\src/tensorflow/lite/kernels/internal\types.h ****   inline int32_t Dims(int i) const {
 1836                             		.loc 4 194 44
 1837                             	.LBB2258:
 1838                             	.LBB2198:
 1839                             	.LBB1348:
 1840                             	.LBB1175:
 1841                             	.LBB1165:
 1842                             	.LBB1155:
 1843                             	.LBB1112:
 1844                             	.LBB1109:
 1845                             	.LBB1106:
 1846                             	.LBB1103:
 1847                             	.LBB1100:
 293:C:\Users\a5116938\Desktop\e2_studio_workspace\EEMBC_final\RX65N_Cloud_Kit\src/tensorflow/lite/kernels/internal\types.h ****       SetDim(i, pad_value);
 1848                             		.loc 4 293 5
 1849                             	.LBB1089:
 293:C:\Users\a5116938\Desktop\e2_studio_workspace\EEMBC_final\RX65N_Cloud_Kit\src/tensorflow/lite/kernels/internal\types.h ****       SetDim(i, pad_value);
 1850                             		.loc 4 293 23 is_stmt 0
 1851 00cf 20 1E                   		beq	.L353
 1852                             	.LVL183:
 1853                             	.LBB1090:
 1854                             	.LBB1091:
 203:C:\Users\a5116938\Desktop\e2_studio_workspace\EEMBC_final\RX65N_Cloud_Kit\src/tensorflow/lite/kernels/internal\types.h ****       dims_pointer_[i] = val;
 1855                             		.loc 4 203 5 is_stmt 1
 206:C:\Users\a5116938\Desktop\e2_studio_workspace\EEMBC_final\RX65N_Cloud_Kit\src/tensorflow/lite/kernels/internal\types.h ****     }
 1856                             		.loc 4 206 7
 206:C:\Users\a5116938\Desktop\e2_studio_workspace\EEMBC_final\RX65N_Cloud_Kit\src/tensorflow/lite/kernels/internal\types.h ****     }
 1857                             		.loc 4 206 16 is_stmt 0
 1858 00d1 3E 0F 01                		mov.L	#1, 60[r0]
 1859                             	.LVL184:
 1860                             	.LBE1091:
 1861                             	.LBE1090:
 293:C:\Users\a5116938\Desktop\e2_studio_workspace\EEMBC_final\RX65N_Cloud_Kit\src/tensorflow/lite/kernels/internal\types.h ****       SetDim(i, pad_value);
 1862                             		.loc 4 293 23
 1863 00d4 61 11                   		cmp	#1, r1
 1864 00d6 20 17                   		beq	.L353
 294:C:\Users\a5116938\Desktop\e2_studio_workspace\EEMBC_final\RX65N_Cloud_Kit\src/tensorflow/lite/kernels/internal\types.h ****     }
 1865                             		.loc 4 294 7 is_stmt 1
 1866                             	.LVL185:
 1867                             	.LBB1095:
 1868                             	.LBB1092:
 201:C:\Users\a5116938\Desktop\e2_studio_workspace\EEMBC_final\RX65N_Cloud_Kit\src/tensorflow/lite/kernels/internal\types.h ****     TFLITE_DCHECK_LT(i, size_);
 1869                             		.loc 4 201 5
 202:C:\Users\a5116938\Desktop\e2_studio_workspace\EEMBC_final\RX65N_Cloud_Kit\src/tensorflow/lite/kernels/internal\types.h ****     if (size_ > kMaxSmallSize) {
 1870                             		.loc 4 202 5
 203:C:\Users\a5116938\Desktop\e2_studio_workspace\EEMBC_final\RX65N_Cloud_Kit\src/tensorflow/lite/kernels/internal\types.h ****       dims_pointer_[i] = val;
 1871                             		.loc 4 203 5
 206:C:\Users\a5116938\Desktop\e2_studio_workspace\EEMBC_final\RX65N_Cloud_Kit\src/tensorflow/lite/kernels/internal\types.h ****     }
 1872                             		.loc 4 206 7
 206:C:\Users\a5116938\Desktop\e2_studio_workspace\EEMBC_final\RX65N_Cloud_Kit\src/tensorflow/lite/kernels/internal\types.h ****     }
 1873                             		.loc 4 206 16 is_stmt 0
 1874 00d8 3E 80 01                		mov.L	#1, 64[r0]
 1875                             	.LVL186:
 1876                             	.LBE1092:
 1877                             	.LBE1095:
 293:C:\Users\a5116938\Desktop\e2_studio_workspace\EEMBC_final\RX65N_Cloud_Kit\src/tensorflow/lite/kernels/internal\types.h ****       SetDim(i, pad_value);
 1878                             		.loc 4 293 23
 1879 00db 61 21                   		cmp	#2, r1
 1880 00dd 20 10                   		beq	.L353
 294:C:\Users\a5116938\Desktop\e2_studio_workspace\EEMBC_final\RX65N_Cloud_Kit\src/tensorflow/lite/kernels/internal\types.h ****     }
 1881                             		.loc 4 294 7 is_stmt 1
 1882                             	.LVL187:
 1883                             	.LBB1096:
 1884                             	.LBB1093:
 201:C:\Users\a5116938\Desktop\e2_studio_workspace\EEMBC_final\RX65N_Cloud_Kit\src/tensorflow/lite/kernels/internal\types.h ****     TFLITE_DCHECK_LT(i, size_);
 1885                             		.loc 4 201 5
 202:C:\Users\a5116938\Desktop\e2_studio_workspace\EEMBC_final\RX65N_Cloud_Kit\src/tensorflow/lite/kernels/internal\types.h ****     if (size_ > kMaxSmallSize) {
 1886                             		.loc 4 202 5
 203:C:\Users\a5116938\Desktop\e2_studio_workspace\EEMBC_final\RX65N_Cloud_Kit\src/tensorflow/lite/kernels/internal\types.h ****       dims_pointer_[i] = val;
 1887                             		.loc 4 203 5
 206:C:\Users\a5116938\Desktop\e2_studio_workspace\EEMBC_final\RX65N_Cloud_Kit\src/tensorflow/lite/kernels/internal\types.h ****     }
 1888                             		.loc 4 206 7
 206:C:\Users\a5116938\Desktop\e2_studio_workspace\EEMBC_final\RX65N_Cloud_Kit\src/tensorflow/lite/kernels/internal\types.h ****     }
 1889                             		.loc 4 206 16 is_stmt 0
 1890 00df 3E 81 01                		mov.L	#1, 68[r0]
 1891                             	.LVL188:
 1892                             	.LBE1093:
 1893                             	.LBE1096:
 293:C:\Users\a5116938\Desktop\e2_studio_workspace\EEMBC_final\RX65N_Cloud_Kit\src/tensorflow/lite/kernels/internal\types.h ****       SetDim(i, pad_value);
 1894                             		.loc 4 293 23
 1895 00e2 61 31                   		cmp	#3, r1
 1896 00e4 11                      		beq	.L353
 294:C:\Users\a5116938\Desktop\e2_studio_workspace\EEMBC_final\RX65N_Cloud_Kit\src/tensorflow/lite/kernels/internal\types.h ****     }
 1897                             		.loc 4 294 7 is_stmt 1
 1898                             	.LVL189:
 1899                             	.LBB1097:
 1900                             	.LBB1094:
 201:C:\Users\a5116938\Desktop\e2_studio_workspace\EEMBC_final\RX65N_Cloud_Kit\src/tensorflow/lite/kernels/internal\types.h ****     TFLITE_DCHECK_LT(i, size_);
 1901                             		.loc 4 201 5
 202:C:\Users\a5116938\Desktop\e2_studio_workspace\EEMBC_final\RX65N_Cloud_Kit\src/tensorflow/lite/kernels/internal\types.h ****     if (size_ > kMaxSmallSize) {
 1902                             		.loc 4 202 5
 203:C:\Users\a5116938\Desktop\e2_studio_workspace\EEMBC_final\RX65N_Cloud_Kit\src/tensorflow/lite/kernels/internal\types.h ****       dims_pointer_[i] = val;
 1903                             		.loc 4 203 5
 206:C:\Users\a5116938\Desktop\e2_studio_workspace\EEMBC_final\RX65N_Cloud_Kit\src/tensorflow/lite/kernels/internal\types.h ****     }
 1904                             		.loc 4 206 7
 206:C:\Users\a5116938\Desktop\e2_studio_workspace\EEMBC_final\RX65N_Cloud_Kit\src/tensorflow/lite/kernels/internal\types.h ****     }
 1905                             		.loc 4 206 16 is_stmt 0
 1906 00e5 3E 82 01                		mov.L	#1, 72[r0]
 1907                             	.LVL190:
 1908                             	.LBE1094:
 1909                             	.LBE1097:
 293:C:\Users\a5116938\Desktop\e2_studio_workspace\EEMBC_final\RX65N_Cloud_Kit\src/tensorflow/lite/kernels/internal\types.h ****       SetDim(i, pad_value);
 1910                             		.loc 4 293 23
 1911 00e8 61 41                   		cmp	#4, r1
 1912 00ea 3B 84 18                		bne	.L119
 1913                             	.LVL191:
 1914                             		.balign 8,3,1
 1915                             	.L353:
 1916                             	.LBE1089:
 1917                             	.LBE1100:
 1918                             	.LBE1103:
 1919                             	.LBE1106:
 1920                             	.LBE1109:
 1921                             	.LBE1112:
 1922                             	.LBE1155:
 1923                             	.LBE1165:
 1924                             	.LBE1175:
 1925                             	.LBE1348:
 1926                             	.LBE2198:
 1927                             	.LBE2258:
 214:C:\Users\a5116938\Desktop\e2_studio_workspace\EEMBC_final\RX65N_Cloud_Kit\src/tensorflow/lite/kernels/internal\types.h ****   }
 1928                             		.loc 4 214 5 is_stmt 1
 194:C:\Users\a5116938\Desktop\e2_studio_workspace\EEMBC_final\RX65N_Cloud_Kit\src/tensorflow/lite/kernels/internal\types.h ****   inline int32_t Dims(int i) const {
 1929                             		.loc 4 194 44
 1930                             	.LBB2259:
 1931                             	.LBB2199:
 1932                             	.LBB1349:
 1933                             	.LBB1176:
 1934                             	.LBB1166:
 1935                             	.LBB1156:
 1936                             	.LBB1113:
 1937                             	.LBB1110:
 1938                             	.LBB1107:
 1939                             	.LBB1104:
 1940                             	.LBB1101:
 1941                             		.loc 4 296 28 is_stmt 0
 1942 00ed 6C 21                   		shll	#2, r1
 1943                             	.LVL192:
 1944                             		.loc 4 296 16
 1945 00ef 75 42 3C                		mov.L	#60, r2
 1946 00f2 4B 02                   		add	r0, r2
 1947 00f4 4B 21                   		add	r2, r1
 1948 00f6 72 02 8C 01             		add	#0x18c, r0, r2
 1949 00fa 6C 23                   		shll	#2, r3
 1950                             	.LVL193:
 1951 00fc 7F 8F                   		smovf
 1952                             	.LVL194:
 1953                             	.LBE1101:
 1954                             	.LBE1104:
 1955                             	.LBE1107:
 1956                             	.LBE1110:
 1957                             	.LBE1113:
 1958                             		.file 6 "C:\\Users\\a5116938\\Desktop\\e2_studio_workspace\\EEMBC_final\\RX65N_Cloud_Kit\\src/tens
   1:C:\Users\a5116938\Desktop\e2_studio_workspace\EEMBC_final\RX65N_Cloud_Kit\src/tensorflow/lite/kernels/internal/reference\pad.h **** /* Copyright 2019 The TensorFlow Authors. All Rights Reserved.
   2:C:\Users\a5116938\Desktop\e2_studio_workspace\EEMBC_final\RX65N_Cloud_Kit\src/tensorflow/lite/kernels/internal/reference\pad.h **** 
   3:C:\Users\a5116938\Desktop\e2_studio_workspace\EEMBC_final\RX65N_Cloud_Kit\src/tensorflow/lite/kernels/internal/reference\pad.h **** Licensed under the Apache License, Version 2.0 (the "License");
   4:C:\Users\a5116938\Desktop\e2_studio_workspace\EEMBC_final\RX65N_Cloud_Kit\src/tensorflow/lite/kernels/internal/reference\pad.h **** you may not use this file except in compliance with the License.
   5:C:\Users\a5116938\Desktop\e2_studio_workspace\EEMBC_final\RX65N_Cloud_Kit\src/tensorflow/lite/kernels/internal/reference\pad.h **** You may obtain a copy of the License at
   6:C:\Users\a5116938\Desktop\e2_studio_workspace\EEMBC_final\RX65N_Cloud_Kit\src/tensorflow/lite/kernels/internal/reference\pad.h **** 
   7:C:\Users\a5116938\Desktop\e2_studio_workspace\EEMBC_final\RX65N_Cloud_Kit\src/tensorflow/lite/kernels/internal/reference\pad.h ****     http://www.apache.org/licenses/LICENSE-2.0
   8:C:\Users\a5116938\Desktop\e2_studio_workspace\EEMBC_final\RX65N_Cloud_Kit\src/tensorflow/lite/kernels/internal/reference\pad.h **** 
   9:C:\Users\a5116938\Desktop\e2_studio_workspace\EEMBC_final\RX65N_Cloud_Kit\src/tensorflow/lite/kernels/internal/reference\pad.h **** Unless required by applicable law or agreed to in writing, software
  10:C:\Users\a5116938\Desktop\e2_studio_workspace\EEMBC_final\RX65N_Cloud_Kit\src/tensorflow/lite/kernels/internal/reference\pad.h **** distributed under the License is distributed on an "AS IS" BASIS,
  11:C:\Users\a5116938\Desktop\e2_studio_workspace\EEMBC_final\RX65N_Cloud_Kit\src/tensorflow/lite/kernels/internal/reference\pad.h **** WITHOUT WARRANTIES OR CONDITIONS OF ANY KIND, either express or implied.
  12:C:\Users\a5116938\Desktop\e2_studio_workspace\EEMBC_final\RX65N_Cloud_Kit\src/tensorflow/lite/kernels/internal/reference\pad.h **** See the License for the specific language governing permissions and
  13:C:\Users\a5116938\Desktop\e2_studio_workspace\EEMBC_final\RX65N_Cloud_Kit\src/tensorflow/lite/kernels/internal/reference\pad.h **** limitations under the License.
  14:C:\Users\a5116938\Desktop\e2_studio_workspace\EEMBC_final\RX65N_Cloud_Kit\src/tensorflow/lite/kernels/internal/reference\pad.h **** ==============================================================================*/
  15:C:\Users\a5116938\Desktop\e2_studio_workspace\EEMBC_final\RX65N_Cloud_Kit\src/tensorflow/lite/kernels/internal/reference\pad.h **** 
  16:C:\Users\a5116938\Desktop\e2_studio_workspace\EEMBC_final\RX65N_Cloud_Kit\src/tensorflow/lite/kernels/internal/reference\pad.h **** #ifndef TENSORFLOW_LITE_KERNELS_INTERNAL_REFERENCE_PAD_H_
  17:C:\Users\a5116938\Desktop\e2_studio_workspace\EEMBC_final\RX65N_Cloud_Kit\src/tensorflow/lite/kernels/internal/reference\pad.h **** #define TENSORFLOW_LITE_KERNELS_INTERNAL_REFERENCE_PAD_H_
  18:C:\Users\a5116938\Desktop\e2_studio_workspace\EEMBC_final\RX65N_Cloud_Kit\src/tensorflow/lite/kernels/internal/reference\pad.h **** 
  19:C:\Users\a5116938\Desktop\e2_studio_workspace\EEMBC_final\RX65N_Cloud_Kit\src/tensorflow/lite/kernels/internal/reference\pad.h **** #include <vector>
  20:C:\Users\a5116938\Desktop\e2_studio_workspace\EEMBC_final\RX65N_Cloud_Kit\src/tensorflow/lite/kernels/internal/reference\pad.h **** 
  21:C:\Users\a5116938\Desktop\e2_studio_workspace\EEMBC_final\RX65N_Cloud_Kit\src/tensorflow/lite/kernels/internal/reference\pad.h **** #include "tensorflow/lite/kernels/internal/types.h"
  22:C:\Users\a5116938\Desktop\e2_studio_workspace\EEMBC_final\RX65N_Cloud_Kit\src/tensorflow/lite/kernels/internal/reference\pad.h **** 
  23:C:\Users\a5116938\Desktop\e2_studio_workspace\EEMBC_final\RX65N_Cloud_Kit\src/tensorflow/lite/kernels/internal/reference\pad.h **** namespace tflite {
  24:C:\Users\a5116938\Desktop\e2_studio_workspace\EEMBC_final\RX65N_Cloud_Kit\src/tensorflow/lite/kernels/internal/reference\pad.h **** 
  25:C:\Users\a5116938\Desktop\e2_studio_workspace\EEMBC_final\RX65N_Cloud_Kit\src/tensorflow/lite/kernels/internal/reference\pad.h **** namespace reference_ops {
  26:C:\Users\a5116938\Desktop\e2_studio_workspace\EEMBC_final\RX65N_Cloud_Kit\src/tensorflow/lite/kernels/internal/reference\pad.h **** 
  27:C:\Users\a5116938\Desktop\e2_studio_workspace\EEMBC_final\RX65N_Cloud_Kit\src/tensorflow/lite/kernels/internal/reference\pad.h **** // TFLite Pad supports activation tensors with up to 4 dimensions.
  28:C:\Users\a5116938\Desktop\e2_studio_workspace\EEMBC_final\RX65N_Cloud_Kit\src/tensorflow/lite/kernels/internal/reference\pad.h **** constexpr int PadKernelMaxDimensionCount() { return 4; }
  29:C:\Users\a5116938\Desktop\e2_studio_workspace\EEMBC_final\RX65N_Cloud_Kit\src/tensorflow/lite/kernels/internal/reference\pad.h **** 
  30:C:\Users\a5116938\Desktop\e2_studio_workspace\EEMBC_final\RX65N_Cloud_Kit\src/tensorflow/lite/kernels/internal/reference\pad.h **** // There are two versions of pad: Pad and PadV2.  In PadV2 there is a second
  31:C:\Users\a5116938\Desktop\e2_studio_workspace\EEMBC_final\RX65N_Cloud_Kit\src/tensorflow/lite/kernels/internal/reference\pad.h **** // scalar input that provides the padding value.  Therefore pad_value_ptr can be
  32:C:\Users\a5116938\Desktop\e2_studio_workspace\EEMBC_final\RX65N_Cloud_Kit\src/tensorflow/lite/kernels/internal/reference\pad.h **** // equivalent to a simple input1_data.  For Pad, it should point to a zero
  33:C:\Users\a5116938\Desktop\e2_studio_workspace\EEMBC_final\RX65N_Cloud_Kit\src/tensorflow/lite/kernels/internal/reference\pad.h **** // value.
  34:C:\Users\a5116938\Desktop\e2_studio_workspace\EEMBC_final\RX65N_Cloud_Kit\src/tensorflow/lite/kernels/internal/reference\pad.h **** //
  35:C:\Users\a5116938\Desktop\e2_studio_workspace\EEMBC_final\RX65N_Cloud_Kit\src/tensorflow/lite/kernels/internal/reference\pad.h **** // Note that two typenames are required, so that T=P=int32_t is considered a
  36:C:\Users\a5116938\Desktop\e2_studio_workspace\EEMBC_final\RX65N_Cloud_Kit\src/tensorflow/lite/kernels/internal/reference\pad.h **** // specialization distinct from P=int32_t.
  37:C:\Users\a5116938\Desktop\e2_studio_workspace\EEMBC_final\RX65N_Cloud_Kit\src/tensorflow/lite/kernels/internal/reference\pad.h **** template <typename T, typename P>
  38:C:\Users\a5116938\Desktop\e2_studio_workspace\EEMBC_final\RX65N_Cloud_Kit\src/tensorflow/lite/kernels/internal/reference\pad.h **** inline void PadImpl(const tflite::PadParams& op_params,
  39:C:\Users\a5116938\Desktop\e2_studio_workspace\EEMBC_final\RX65N_Cloud_Kit\src/tensorflow/lite/kernels/internal/reference\pad.h ****                     const RuntimeShape& input_shape, const T* input_data,
  40:C:\Users\a5116938\Desktop\e2_studio_workspace\EEMBC_final\RX65N_Cloud_Kit\src/tensorflow/lite/kernels/internal/reference\pad.h ****                     const P* pad_value_ptr, const RuntimeShape& output_shape,
  41:C:\Users\a5116938\Desktop\e2_studio_workspace\EEMBC_final\RX65N_Cloud_Kit\src/tensorflow/lite/kernels/internal/reference\pad.h ****                     T* output_data) {
  42:C:\Users\a5116938\Desktop\e2_studio_workspace\EEMBC_final\RX65N_Cloud_Kit\src/tensorflow/lite/kernels/internal/reference\pad.h ****   const RuntimeShape ext_input_shape =
  43:C:\Users\a5116938\Desktop\e2_studio_workspace\EEMBC_final\RX65N_Cloud_Kit\src/tensorflow/lite/kernels/internal/reference\pad.h ****       RuntimeShape::ExtendedShape(PadKernelMaxDimensionCount(), input_shape);
  44:C:\Users\a5116938\Desktop\e2_studio_workspace\EEMBC_final\RX65N_Cloud_Kit\src/tensorflow/lite/kernels/internal/reference\pad.h ****   const RuntimeShape ext_output_shape =
  45:C:\Users\a5116938\Desktop\e2_studio_workspace\EEMBC_final\RX65N_Cloud_Kit\src/tensorflow/lite/kernels/internal/reference\pad.h ****       RuntimeShape::ExtendedShape(PadKernelMaxDimensionCount(), output_shape);
  46:C:\Users\a5116938\Desktop\e2_studio_workspace\EEMBC_final\RX65N_Cloud_Kit\src/tensorflow/lite/kernels/internal/reference\pad.h ****   TFLITE_DCHECK_LE(op_params.left_padding_count, PadKernelMaxDimensionCount());
 1959                             		.loc 6 46 3
 1960 00fe CC 63                   		mov.B	[r6], r3
 1961 0100 61 43                   		cmp	#4, r3
 1962 0102 2B 05 38 6A 18          		bgt	.L119
  47:C:\Users\a5116938\Desktop\e2_studio_workspace\EEMBC_final\RX65N_Cloud_Kit\src/tensorflow/lite/kernels/internal/reference\pad.h ****   TFLITE_DCHECK_LE(op_params.right_padding_count, PadKernelMaxDimensionCount());
 1963                             		.loc 6 47 3
 1964 0107 8D 65                   		mov.B	20[r6], r5
 1965 0109 61 45                   		cmp	#4, r5
 1966 010b 2B 05 38 61 18          		bgt	.L119
 1967                             	.LVL195:
 1968                             	.LBB1114:
  48:C:\Users\a5116938\Desktop\e2_studio_workspace\EEMBC_final\RX65N_Cloud_Kit\src/tensorflow/lite/kernels/internal/reference\pad.h **** 
  49:C:\Users\a5116938\Desktop\e2_studio_workspace\EEMBC_final\RX65N_Cloud_Kit\src/tensorflow/lite/kernels/internal/reference\pad.h ****   // Runtime calls are currently fixed at 4 dimensions. Copy inputs so we can
  50:C:\Users\a5116938\Desktop\e2_studio_workspace\EEMBC_final\RX65N_Cloud_Kit\src/tensorflow/lite/kernels/internal/reference\pad.h ****   // pad them to 4 dims (yes, we are "padding the padding").
  51:C:\Users\a5116938\Desktop\e2_studio_workspace\EEMBC_final\RX65N_Cloud_Kit\src/tensorflow/lite/kernels/internal/reference\pad.h ****   int left_padding_copy[PadKernelMaxDimensionCount()];
  52:C:\Users\a5116938\Desktop\e2_studio_workspace\EEMBC_final\RX65N_Cloud_Kit\src/tensorflow/lite/kernels/internal/reference\pad.h ****   for (int i = 0; i < PadKernelMaxDimensionCount(); i++) {
  53:C:\Users\a5116938\Desktop\e2_studio_workspace\EEMBC_final\RX65N_Cloud_Kit\src/tensorflow/lite/kernels/internal/reference\pad.h ****     left_padding_copy[i] = 0;
 1969                             		.loc 6 53 5
 1970 0110 F9 06 B6 00             		mov.L	#0, 728[r0]
 1971                             	.LVL196:
 1972 0114 F9 06 B7 00             		mov.L	#0, 732[r0]
 1973                             	.LVL197:
 1974 0118 F9 06 B8 00             		mov.L	#0, 736[r0]
 1975                             	.LVL198:
 1976 011c F9 06 B9 00             		mov.L	#0, 740[r0]
 1977                             	.LVL199:
 1978                             	.LBE1114:
 1979                             	.LBB1115:
  54:C:\Users\a5116938\Desktop\e2_studio_workspace\EEMBC_final\RX65N_Cloud_Kit\src/tensorflow/lite/kernels/internal/reference\pad.h ****   }
  55:C:\Users\a5116938\Desktop\e2_studio_workspace\EEMBC_final\RX65N_Cloud_Kit\src/tensorflow/lite/kernels/internal/reference\pad.h ****   for (int i = 0; i < op_params.left_padding_count; ++i) {
 1980                             		.loc 6 55 21
 1981 0120 61 03                   		cmp	#0, r3
 1982 0122 2B 17                   		ble	.L358
 1983 0124 66 41                   		mov.L	#4, r1
 1984 0126 43 31                   		sub	r3, r1
 1985 0128 71 62 04                		add	#4, r6, r2
 1986 012b 6C 21                   		shll	#2, r1
 1987 012d 6C 23                   		shll	#2, r3
 1988 012f FB 9A D8 02             		mov.L	#0x2d8, r9
 1989 0133 4B 09                   		add	r0, r9
 1990 0135 4B 91                   		add	r9, r1
 1991 0137 7F 8F                   		smovf
 1992                             		.balign 8,3,4
 1993                             	.L358:
 1994                             	.LVL200:
 1995                             	.LBE1115:
 1996                             	.LBB1116:
  56:C:\Users\a5116938\Desktop\e2_studio_workspace\EEMBC_final\RX65N_Cloud_Kit\src/tensorflow/lite/kernels/internal/reference\pad.h ****     left_padding_copy[i + PadKernelMaxDimensionCount() -
  57:C:\Users\a5116938\Desktop\e2_studio_workspace\EEMBC_final\RX65N_Cloud_Kit\src/tensorflow/lite/kernels/internal/reference\pad.h ****                       op_params.left_padding_count] = op_params.left_padding[i];
  58:C:\Users\a5116938\Desktop\e2_studio_workspace\EEMBC_final\RX65N_Cloud_Kit\src/tensorflow/lite/kernels/internal/reference\pad.h ****   }
  59:C:\Users\a5116938\Desktop\e2_studio_workspace\EEMBC_final\RX65N_Cloud_Kit\src/tensorflow/lite/kernels/internal/reference\pad.h ****   int right_padding_copy[PadKernelMaxDimensionCount()];
  60:C:\Users\a5116938\Desktop\e2_studio_workspace\EEMBC_final\RX65N_Cloud_Kit\src/tensorflow/lite/kernels/internal/reference\pad.h ****   for (int i = 0; i < PadKernelMaxDimensionCount(); i++) {
  61:C:\Users\a5116938\Desktop\e2_studio_workspace\EEMBC_final\RX65N_Cloud_Kit\src/tensorflow/lite/kernels/internal/reference\pad.h ****     right_padding_copy[i] = 0;
 1997                             		.loc 6 61 5
 1998 0139 F9 06 B2 00             		mov.L	#0, 712[r0]
 1999                             	.LVL201:
 2000 013d F9 06 B3 00             		mov.L	#0, 716[r0]
 2001                             	.LVL202:
 2002 0141 F9 06 B4 00             		mov.L	#0, 720[r0]
 2003                             	.LVL203:
 2004 0145 F9 06 B5 00             		mov.L	#0, 724[r0]
 2005                             	.LVL204:
 2006                             	.LBE1116:
 2007                             	.LBB1117:
  62:C:\Users\a5116938\Desktop\e2_studio_workspace\EEMBC_final\RX65N_Cloud_Kit\src/tensorflow/lite/kernels/internal/reference\pad.h ****   }
  63:C:\Users\a5116938\Desktop\e2_studio_workspace\EEMBC_final\RX65N_Cloud_Kit\src/tensorflow/lite/kernels/internal/reference\pad.h ****   for (int i = 0; i < op_params.right_padding_count; ++i) {
 2008                             		.loc 6 63 21
 2009 0149 61 05                   		cmp	#0, r5
 2010 014b 2B 18                   		ble	.L359
 2011 014d 66 41                   		mov.L	#4, r1
 2012 014f 43 51                   		sub	r5, r1
 2013 0151 71 62 18                		add	#24, r6, r2
 2014 0154 6C 21                   		shll	#2, r1
 2015 0156 FD C2 53                		shll	#2, r5, r3
 2016 0159 FB EA C8 02             		mov.L	#0x2c8, r14
 2017 015d 4B 0E                   		add	r0, r14
 2018 015f 4B E1                   		add	r14, r1
 2019 0161 7F 8F                   		smovf
 2020                             		.balign 8,3,1
 2021                             	.L359:
 2022                             	.LVL205:
 2023                             	.LBE1117:
 2024                             	.LBB1118:
 2025                             	.LBB1119:
 196:C:\Users\a5116938\Desktop\e2_studio_workspace\EEMBC_final\RX65N_Cloud_Kit\src/tensorflow/lite/kernels/internal\types.h ****     TFLITE_DCHECK_LT(i, size_);
 2026                             		.loc 4 196 5 is_stmt 1
 197:C:\Users\a5116938\Desktop\e2_studio_workspace\EEMBC_final\RX65N_Cloud_Kit\src/tensorflow/lite/kernels/internal\types.h ****     return size_ > kMaxSmallSize ? dims_pointer_[i] : dims_[i];
 2027                             		.loc 4 197 5
 2028 0163 E5 00 0E EC             		mov.L	56[r0], 944[r0]
 2029 0167 ED 04 EC                		mov.L	944[r0], r4
 2030 016a 61 04                   		cmp	#0, r4
 2031 016c 2A 05 38 00 18          		ble	.L119
 198:C:\Users\a5116938\Desktop\e2_studio_workspace\EEMBC_final\RX65N_Cloud_Kit\src/tensorflow/lite/kernels/internal\types.h ****   }
 2032                             		.loc 4 198 5
 2033 0171 E5 00 0F EF             		mov.L	60[r0], 956[r0]
 198:C:\Users\a5116938\Desktop\e2_studio_workspace\EEMBC_final\RX65N_Cloud_Kit\src/tensorflow/lite/kernels/internal\types.h ****   }
 2034                             		.loc 4 198 34 is_stmt 0
 2035 0175 61 54                   		cmp	#5, r4
 2036 0177 2A 05 38 0B 15          		ble	.L360
 2037 017c ED 04 EF                		mov.L	956[r0], r4
 2038 017f E4 40 E4                		mov.L	[r4], 912[r0]
 2039                             	.LVL206:
 2040                             	.LBE1119:
 2041                             	.LBE1118:
 2042                             	.LBB1120:
 2043                             	.LBB1121:
 196:C:\Users\a5116938\Desktop\e2_studio_workspace\EEMBC_final\RX65N_Cloud_Kit\src/tensorflow/lite/kernels/internal\types.h ****     TFLITE_DCHECK_LT(i, size_);
 2044                             		.loc 4 196 5 is_stmt 1
 197:C:\Users\a5116938\Desktop\e2_studio_workspace\EEMBC_final\RX65N_Cloud_Kit\src/tensorflow/lite/kernels/internal\types.h ****     return size_ > kMaxSmallSize ? dims_pointer_[i] : dims_[i];
 2045                             		.loc 4 197 5
 198:C:\Users\a5116938\Desktop\e2_studio_workspace\EEMBC_final\RX65N_Cloud_Kit\src/tensorflow/lite/kernels/internal\types.h ****   }
 2046                             		.loc 4 198 34 is_stmt 0
 2047 0182 E5 40 01 E2             		mov.L	4[r4], 904[r0]
 2048                             	.LVL207:
 2049                             	.LBE1121:
 2050                             	.LBE1120:
 2051                             	.LBB1123:
 2052                             	.LBB1124:
 196:C:\Users\a5116938\Desktop\e2_studio_workspace\EEMBC_final\RX65N_Cloud_Kit\src/tensorflow/lite/kernels/internal\types.h ****     TFLITE_DCHECK_LT(i, size_);
 2053                             		.loc 4 196 5 is_stmt 1
 197:C:\Users\a5116938\Desktop\e2_studio_workspace\EEMBC_final\RX65N_Cloud_Kit\src/tensorflow/lite/kernels/internal\types.h ****     return size_ > kMaxSmallSize ? dims_pointer_[i] : dims_[i];
 2054                             		.loc 4 197 5
 198:C:\Users\a5116938\Desktop\e2_studio_workspace\EEMBC_final\RX65N_Cloud_Kit\src/tensorflow/lite/kernels/internal\types.h ****   }
 2055                             		.loc 4 198 34 is_stmt 0
 2056 0186 ED 48 02                		mov.L	8[r4], r8
 2057                             	.LVL208:
 2058                             	.LBE1124:
 2059                             	.LBE1123:
 2060                             	.LBB1126:
 2061                             	.LBB1127:
 196:C:\Users\a5116938\Desktop\e2_studio_workspace\EEMBC_final\RX65N_Cloud_Kit\src/tensorflow/lite/kernels/internal\types.h ****     TFLITE_DCHECK_LT(i, size_);
 2062                             		.loc 4 196 5 is_stmt 1
 197:C:\Users\a5116938\Desktop\e2_studio_workspace\EEMBC_final\RX65N_Cloud_Kit\src/tensorflow/lite/kernels/internal\types.h ****     return size_ > kMaxSmallSize ? dims_pointer_[i] : dims_[i];
 2063                             		.loc 4 197 5
 198:C:\Users\a5116938\Desktop\e2_studio_workspace\EEMBC_final\RX65N_Cloud_Kit\src/tensorflow/lite/kernels/internal\types.h ****   }
 2064                             		.loc 4 198 34 is_stmt 0
 2065 0189 A8 CD                   		mov.L	12[r4], r5
 2066                             	.LVL209:
 2067                             	.LBE1127:
 2068                             	.LBE1126:
  64:C:\Users\a5116938\Desktop\e2_studio_workspace\EEMBC_final\RX65N_Cloud_Kit\src/tensorflow/lite/kernels/internal/reference\pad.h ****     right_padding_copy[i + PadKernelMaxDimensionCount() -
  65:C:\Users\a5116938\Desktop\e2_studio_workspace\EEMBC_final\RX65N_Cloud_Kit\src/tensorflow/lite/kernels/internal/reference\pad.h ****                        op_params.right_padding_count] =
  66:C:\Users\a5116938\Desktop\e2_studio_workspace\EEMBC_final\RX65N_Cloud_Kit\src/tensorflow/lite/kernels/internal/reference\pad.h ****         op_params.right_padding[i];
  67:C:\Users\a5116938\Desktop\e2_studio_workspace\EEMBC_final\RX65N_Cloud_Kit\src/tensorflow/lite/kernels/internal/reference\pad.h ****   }
  68:C:\Users\a5116938\Desktop\e2_studio_workspace\EEMBC_final\RX65N_Cloud_Kit\src/tensorflow/lite/kernels/internal/reference\pad.h **** 
  69:C:\Users\a5116938\Desktop\e2_studio_workspace\EEMBC_final\RX65N_Cloud_Kit\src/tensorflow/lite/kernels/internal/reference\pad.h ****   const int output_batch = ext_output_shape.Dims(0);
  70:C:\Users\a5116938\Desktop\e2_studio_workspace\EEMBC_final\RX65N_Cloud_Kit\src/tensorflow/lite/kernels/internal/reference\pad.h ****   const int output_height = ext_output_shape.Dims(1);
  71:C:\Users\a5116938\Desktop\e2_studio_workspace\EEMBC_final\RX65N_Cloud_Kit\src/tensorflow/lite/kernels/internal/reference\pad.h ****   const int output_width = ext_output_shape.Dims(2);
  72:C:\Users\a5116938\Desktop\e2_studio_workspace\EEMBC_final\RX65N_Cloud_Kit\src/tensorflow/lite/kernels/internal/reference\pad.h ****   const int output_depth = ext_output_shape.Dims(3);
  73:C:\Users\a5116938\Desktop\e2_studio_workspace\EEMBC_final\RX65N_Cloud_Kit\src/tensorflow/lite/kernels/internal/reference\pad.h **** 
  74:C:\Users\a5116938\Desktop\e2_studio_workspace\EEMBC_final\RX65N_Cloud_Kit\src/tensorflow/lite/kernels/internal/reference\pad.h ****   const int left_b_padding = left_padding_copy[0];
 2069                             		.loc 6 74 13
 2070 018b E5 00 B6 E7             		mov.L	728[r0], 924[r0]
 2071                             	.LVL210:
  75:C:\Users\a5116938\Desktop\e2_studio_workspace\EEMBC_final\RX65N_Cloud_Kit\src/tensorflow/lite/kernels/internal/reference\pad.h ****   const int left_h_padding = left_padding_copy[1];
 2072                             		.loc 6 75 13
 2073 018f E5 00 B7 E6             		mov.L	732[r0], 920[r0]
 2074                             	.LVL211:
  76:C:\Users\a5116938\Desktop\e2_studio_workspace\EEMBC_final\RX65N_Cloud_Kit\src/tensorflow/lite/kernels/internal/reference\pad.h ****   const int left_w_padding = left_padding_copy[2];
 2075                             		.loc 6 76 13
 2076 0193 E5 00 B8 E8             		mov.L	736[r0], 928[r0]
 2077                             	.LVL212:
  77:C:\Users\a5116938\Desktop\e2_studio_workspace\EEMBC_final\RX65N_Cloud_Kit\src/tensorflow/lite/kernels/internal/reference\pad.h ****   const int left_d_padding = left_padding_copy[3];
 2078                             		.loc 6 77 13
 2079 0197 E5 00 B9 EE             		mov.L	740[r0], 952[r0]
 2080                             	.LVL213:
  78:C:\Users\a5116938\Desktop\e2_studio_workspace\EEMBC_final\RX65N_Cloud_Kit\src/tensorflow/lite/kernels/internal/reference\pad.h **** 
  79:C:\Users\a5116938\Desktop\e2_studio_workspace\EEMBC_final\RX65N_Cloud_Kit\src/tensorflow/lite/kernels/internal/reference\pad.h ****   const int right_b_padding = right_padding_copy[0];
 2081                             		.loc 6 79 13
 2082 019b E5 00 B2 EB             		mov.L	712[r0], 940[r0]
 2083                             	.LVL214:
  80:C:\Users\a5116938\Desktop\e2_studio_workspace\EEMBC_final\RX65N_Cloud_Kit\src/tensorflow/lite/kernels/internal/reference\pad.h ****   const int right_h_padding = right_padding_copy[1];
 2084                             		.loc 6 80 13
 2085 019f E5 00 B3 E5             		mov.L	716[r0], 916[r0]
 2086                             	.LVL215:
  81:C:\Users\a5116938\Desktop\e2_studio_workspace\EEMBC_final\RX65N_Cloud_Kit\src/tensorflow/lite/kernels/internal/reference\pad.h ****   const int right_w_padding = right_padding_copy[2];
 2087                             		.loc 6 81 13
 2088 01a3 E5 00 B4 E9             		mov.L	720[r0], 932[r0]
 2089                             	.LVL216:
  82:C:\Users\a5116938\Desktop\e2_studio_workspace\EEMBC_final\RX65N_Cloud_Kit\src/tensorflow/lite/kernels/internal/reference\pad.h ****   const int right_d_padding = right_padding_copy[3];
 2090                             		.loc 6 82 13
 2091 01a7 ED 03 B5                		mov.L	724[r0], r3
 2092                             	.LVL217:
 2093                             	.LBB1129:
  83:C:\Users\a5116938\Desktop\e2_studio_workspace\EEMBC_final\RX65N_Cloud_Kit\src/tensorflow/lite/kernels/internal/reference\pad.h **** 
  84:C:\Users\a5116938\Desktop\e2_studio_workspace\EEMBC_final\RX65N_Cloud_Kit\src/tensorflow/lite/kernels/internal/reference\pad.h ****   const T pad_value = *pad_value_ptr;
  85:C:\Users\a5116938\Desktop\e2_studio_workspace\EEMBC_final\RX65N_Cloud_Kit\src/tensorflow/lite/kernels/internal/reference\pad.h **** 
  86:C:\Users\a5116938\Desktop\e2_studio_workspace\EEMBC_final\RX65N_Cloud_Kit\src/tensorflow/lite/kernels/internal/reference\pad.h ****   const T* in_ptr = input_data;
  87:C:\Users\a5116938\Desktop\e2_studio_workspace\EEMBC_final\RX65N_Cloud_Kit\src/tensorflow/lite/kernels/internal/reference\pad.h ****   T* out_ptr = output_data;
  88:C:\Users\a5116938\Desktop\e2_studio_workspace\EEMBC_final\RX65N_Cloud_Kit\src/tensorflow/lite/kernels/internal/reference\pad.h ****   for (int out_b = 0; out_b < output_batch; ++out_b) {
 2094                             		.loc 6 88 29
 2095 01aa ED 09 E4                		mov.L	912[r0], r9
 2096 01ad EF 41                   		mov.L	r4, r1
 2097 01af 61 09                   		cmp	#0, r9
 2098 01b1 2A 05 38 3D 16          		ble	.L363
 2099                             	.LVL218:
 2100 01b6 EF 00                   		.balign 8,3,2
 2101                             	.L362:
 2102 01b8 ED 09 E2                		mov.L	904[r0], r9
 2103 01bb 61 09                   		cmp	#0, r9
 2104 01bd 2A 05 38 D9 00          		ble	.L366
 2105 01c2 5B A4                   		movu.B	r10, r4
 2106 01c4 FF 03 35                		sub	r3, r5, r3
 2107                             	.LVL219:
 2108 01c7 E7 03 E3                		mov.L	r3, 908[r0]
 2109 01ca FD C8 43                		shll	#8, r4, r3
 2110 01cd FD D0 42                		shll	#16, r4, r2
 2111 01d0 57 43                   		or	r4, r3
 2112 01d2 6D 84                   		shll	#24, r4
 2113 01d4 57 23                   		or	r2, r3
 2114 01d6 66 0B                   		mov.L	#0, r11
 2115                             	.LVL220:
 2116 01d8 57 43                   		or	r4, r3
 2117 01da E7 03 EA                		mov.L	r3, 936[r0]
 2118                             	.LVL221:
 2119                             		.balign 8,3,2
 2120                             	.L389:
 2121                             	.LBB1130:
 2122                             	.LBB1131:
 2123                             	.LBB1132:
  89:C:\Users\a5116938\Desktop\e2_studio_workspace\EEMBC_final\RX65N_Cloud_Kit\src/tensorflow/lite/kernels/internal/reference\pad.h ****     for (int out_h = 0; out_h < output_height; ++out_h) {
  90:C:\Users\a5116938\Desktop\e2_studio_workspace\EEMBC_final\RX65N_Cloud_Kit\src/tensorflow/lite/kernels/internal/reference\pad.h ****       for (int out_w = 0; out_w < output_width; ++out_w) {
  91:C:\Users\a5116938\Desktop\e2_studio_workspace\EEMBC_final\RX65N_Cloud_Kit\src/tensorflow/lite/kernels/internal/reference\pad.h ****         for (int out_d = 0; out_d < output_depth; ++out_d) {
  92:C:\Users\a5116938\Desktop\e2_studio_workspace\EEMBC_final\RX65N_Cloud_Kit\src/tensorflow/lite/kernels/internal/reference\pad.h ****           if (out_b < left_b_padding ||
  93:C:\Users\a5116938\Desktop\e2_studio_workspace\EEMBC_final\RX65N_Cloud_Kit\src/tensorflow/lite/kernels/internal/reference\pad.h ****               out_b >= output_batch - right_b_padding ||
 2124                             		.loc 6 93 37
 2125 01dd ED 09 E4                		mov.L	912[r0], r9
 2126 01e0 ED 0E EB                		mov.L	940[r0], r14
 2127 01e3 43 E9                   		sub	r14, r9
 2128                             	.LBE1132:
 2129                             	.LBE1131:
  89:C:\Users\a5116938\Desktop\e2_studio_workspace\EEMBC_final\RX65N_Cloud_Kit\src/tensorflow/lite/kernels/internal/reference\pad.h ****     for (int out_h = 0; out_h < output_height; ++out_h) {
 2130                             		.loc 6 89 14
 2131 01e5 66 06                   		mov.L	#0, r6
 2132                             	.LVL222:
 2133 01e7 03                      		.balign 8,3,1
 2134                             	.L388:
 2135                             	.LBB1136:
  90:C:\Users\a5116938\Desktop\e2_studio_workspace\EEMBC_final\RX65N_Cloud_Kit\src/tensorflow/lite/kernels/internal/reference\pad.h ****         for (int out_d = 0; out_d < output_depth; ++out_d) {
 2136                             		.loc 6 90 33
 2137 01e8 61 08                   		cmp	#0, r8
 2138 01ea 2A 05 38 95 00          		ble	.L367
 2139                             	.LBB1133:
  94:C:\Users\a5116938\Desktop\e2_studio_workspace\EEMBC_final\RX65N_Cloud_Kit\src/tensorflow/lite/kernels/internal/reference\pad.h ****               out_h < left_h_padding ||
  95:C:\Users\a5116938\Desktop\e2_studio_workspace\EEMBC_final\RX65N_Cloud_Kit\src/tensorflow/lite/kernels/internal/reference\pad.h ****               out_h >= output_height - right_h_padding ||
 2140                             		.loc 6 95 38
 2141 01ef ED 0D E2                		mov.L	904[r0], r13
 2142 01f2 ED 0F E5                		mov.L	916[r0], r15
 2143 01f5 43 FD                   		sub	r15, r13
 2144                             	.LBE1133:
  90:C:\Users\a5116938\Desktop\e2_studio_workspace\EEMBC_final\RX65N_Cloud_Kit\src/tensorflow/lite/kernels/internal/reference\pad.h ****         for (int out_d = 0; out_d < output_depth; ++out_d) {
 2145                             		.loc 6 90 16
 2146 01f7 66 0C                   		mov.L	#0, r12
 2147                             	.LVL223:
 2148                             		.balign 8,3,1
 2149                             	.L387:
 2150                             	.LBB1134:
  91:C:\Users\a5116938\Desktop\e2_studio_workspace\EEMBC_final\RX65N_Cloud_Kit\src/tensorflow/lite/kernels/internal/reference\pad.h ****           if (out_b < left_b_padding ||
 2151                             		.loc 6 91 35
 2152 01f9 61 05                   		cmp	#0, r5
 2153 01fb 2B 7F                   		ble	.L368
  96:C:\Users\a5116938\Desktop\e2_studio_workspace\EEMBC_final\RX65N_Cloud_Kit\src/tensorflow/lite/kernels/internal/reference\pad.h ****               out_w < left_w_padding ||
  97:C:\Users\a5116938\Desktop\e2_studio_workspace\EEMBC_final\RX65N_Cloud_Kit\src/tensorflow/lite/kernels/internal/reference\pad.h ****               out_w >= output_width - right_w_padding ||
 2154                             		.loc 6 97 37
 2155 01fd ED 0E E9                		mov.L	932[r0], r14
 2156 0200 FF 04 E8                		sub	r14, r8, r4
 2157 0203 ED 0F E7                		mov.L	924[r0], r15
 2158 0206 47 FB                   		cmp	r15, r11
 2159 0208 28 05 38 C9 09          		blt	.L369
 2160 020d 47 C4                   		cmp	r12, r4
 2161 020f 2A 05 38 C2 09          		ble	.L369
 2162 0214 47 B9                   		cmp	r11, r9
 2163 0216 2A 05 38 BB 09          		ble	.L369
 2164 021b 47 6D                   		cmp	r6, r13
 2165 021d 2A 05 38 B4 09          		ble	.L369
 2166 0222 ED 04 E3                		mov.L	908[r0], r4
 2167 0225 61 04                   		cmp	#0, r4
 2168 0227 2A 05 38 F8 08          		ble	.L479
 2169 022c EF 41                   		mov.L	r4, r1
 2170 022e FC 17 51                		min	r5, r1
 2171 0231 EF 73                   		mov.L	r7, r3
  91:C:\Users\a5116938\Desktop\e2_studio_workspace\EEMBC_final\RX65N_Cloud_Kit\src/tensorflow/lite/kernels/internal/reference\pad.h ****           if (out_b < left_b_padding ||
 2172                             		.loc 6 91 18
 2173 0233 66 04                   		mov.L	#0, r4
 2174 0235 2E 24                   		bra	.L375
 2175                             	.LVL224:
 2176                             	.L920:
  95:C:\Users\a5116938\Desktop\e2_studio_workspace\EEMBC_final\RX65N_Cloud_Kit\src/tensorflow/lite/kernels/internal/reference\pad.h ****               out_w < left_w_padding ||
 2177                             		.loc 6 95 56
 2178 0237 ED 0F E8                		mov.L	928[r0], r15
 2179 023a 47 FC                   		cmp	r15, r12
 2180 023c 29 26                   		blt	.L482
 2181                             		.loc 6 97 55
 2182 023e ED 0E EE                		mov.L	952[r0], r14
 2183 0241 47 E4                   		cmp	r14, r4
 2184 0243 29 1F                   		blt	.L482
  98:C:\Users\a5116938\Desktop\e2_studio_workspace\EEMBC_final\RX65N_Cloud_Kit\src/tensorflow/lite/kernels/internal/reference\pad.h ****               out_d < left_d_padding ||
  99:C:\Users\a5116938\Desktop\e2_studio_workspace\EEMBC_final\RX65N_Cloud_Kit\src/tensorflow/lite/kernels/internal/reference\pad.h ****               out_d >= output_depth - right_d_padding) {
 100:C:\Users\a5116938\Desktop\e2_studio_workspace\EEMBC_final\RX65N_Cloud_Kit\src/tensorflow/lite/kernels/internal/reference\pad.h ****             *out_ptr++ = pad_value;
 101:C:\Users\a5116938\Desktop\e2_studio_workspace\EEMBC_final\RX65N_Cloud_Kit\src/tensorflow/lite/kernels/internal/reference\pad.h ****           } else {
 102:C:\Users\a5116938\Desktop\e2_studio_workspace\EEMBC_final\RX65N_Cloud_Kit\src/tensorflow/lite/kernels/internal/reference\pad.h ****             *out_ptr++ = *in_ptr++;
 2185                             		.loc 6 102 13
 2186 0245 ED 0E ED                		mov.L	948[r0], r14
 2187                             	.LVL225:
 2188 0248 FD 28 E2                		mov.B	[r14+], r2
 2189                             	.LVL226:
 2190 024b E7 0E ED                		mov.L	r14, 948[r0]
 2191                             	.LVL227:
 2192 024e 71 3E FF                		add	#-1, r3, r14
 2193                             	.LVL228:
  91:C:\Users\a5116938\Desktop\e2_studio_workspace\EEMBC_final\RX65N_Cloud_Kit\src/tensorflow/lite/kernels/internal/reference\pad.h ****           if (out_b < left_b_padding ||
 2194                             		.loc 6 91 9
 2195 0251 62 14                   		add	#1, r4
 2196                             	.LVL229:
 2197 0253 C3 E2                   		mov.B	r2, [r14]
 2198                             	.LVL230:
  91:C:\Users\a5116938\Desktop\e2_studio_workspace\EEMBC_final\RX65N_Cloud_Kit\src/tensorflow/lite/kernels/internal/reference\pad.h ****           if (out_b < left_b_padding ||
 2199                             		.loc 6 91 35
 2200 0255 47 14                   		cmp	r1, r4
 2201 0257 28 19                   		bge	.L919
 2202                             	.LVL231:
 2203                             		.balign 8,3,1
 2204                             	.L375:
 2205 0259 62 13                   		add	#1, r3
 2206                             	.LVL232:
  93:C:\Users\a5116938\Desktop\e2_studio_workspace\EEMBC_final\RX65N_Cloud_Kit\src/tensorflow/lite/kernels/internal/reference\pad.h ****               out_h < left_h_padding ||
 2207                             		.loc 6 93 55
 2208 025b ED 0E E6                		mov.L	920[r0], r14
 2209 025e 47 E6                   		cmp	r14, r6
 2210 0260 28 D7                   		bge	.L920
 2211                             		.balign 8,3,1
 2212                             	.L482:
 100:C:\Users\a5116938\Desktop\e2_studio_workspace\EEMBC_final\RX65N_Cloud_Kit\src/tensorflow/lite/kernels/internal/reference\pad.h ****           } else {
 2213                             		.loc 6 100 13
 2214 0262 CF A2                   		mov.B	r10, r2
 2215 0264 71 3E FF                		add	#-1, r3, r14
  91:C:\Users\a5116938\Desktop\e2_studio_workspace\EEMBC_final\RX65N_Cloud_Kit\src/tensorflow/lite/kernels/internal/reference\pad.h ****           if (out_b < left_b_padding ||
 2216                             		.loc 6 91 9
 2217 0267 62 14                   		add	#1, r4
 2218                             	.LVL233:
 2219 0269 C3 E2                   		mov.B	r2, [r14]
 2220                             	.LVL234:
  91:C:\Users\a5116938\Desktop\e2_studio_workspace\EEMBC_final\RX65N_Cloud_Kit\src/tensorflow/lite/kernels/internal/reference\pad.h ****           if (out_b < left_b_padding ||
 2221                             		.loc 6 91 35
 2222 026b 47 14                   		cmp	r1, r4
 2223 026d 29 EC                   		blt	.L375
 2224                             	.LVL235:
 2225 026f 03                      		.balign 8,3,1
 2226                             	.L919:
 2227 0270 47 45                   		cmp	r4, r5
 2228 0272 2B 05 38 B1 08          		bgt	.L373
 2229                             	.LVL236:
 2230 0277 03                      		.balign 8,3,1
 2231                             	.L907:
 2232 0278 4B 57                   		add	r5, r7
 2233                             		.balign 8,3,1
 2234                             	.L368:
 2235                             	.LBE1134:
  90:C:\Users\a5116938\Desktop\e2_studio_workspace\EEMBC_final\RX65N_Cloud_Kit\src/tensorflow/lite/kernels/internal/reference\pad.h ****         for (int out_d = 0; out_d < output_depth; ++out_d) {
 2236                             		.loc 6 90 7
 2237 027a 62 1C                   		add	#1, r12
 2238                             	.LVL237:
  90:C:\Users\a5116938\Desktop\e2_studio_workspace\EEMBC_final\RX65N_Cloud_Kit\src/tensorflow/lite/kernels/internal/reference\pad.h ****         for (int out_d = 0; out_d < output_depth; ++out_d) {
 2239                             		.loc 6 90 33
 2240 027c 47 8C                   		cmp	r8, r12
 2241 027e 3B 7B FF                		bne	.L387
 2242                             	.LVL238:
 2243                             		.balign 8,3,1
 2244                             	.L367:
 2245                             	.LBE1136:
  89:C:\Users\a5116938\Desktop\e2_studio_workspace\EEMBC_final\RX65N_Cloud_Kit\src/tensorflow/lite/kernels/internal/reference\pad.h ****       for (int out_w = 0; out_w < output_width; ++out_w) {
 2246                             		.loc 6 89 5
 2247 0281 62 16                   		add	#1, r6
 2248                             	.LVL239:
  89:C:\Users\a5116938\Desktop\e2_studio_workspace\EEMBC_final\RX65N_Cloud_Kit\src/tensorflow/lite/kernels/internal/reference\pad.h ****       for (int out_w = 0; out_w < output_width; ++out_w) {
 2249                             		.loc 6 89 31
 2250 0283 ED 04 E2                		mov.L	904[r0], r4
 2251 0286 47 46                   		cmp	r4, r6
 2252 0288 3B 60 FF                		bne	.L388
 2253                             	.LBE1130:
  88:C:\Users\a5116938\Desktop\e2_studio_workspace\EEMBC_final\RX65N_Cloud_Kit\src/tensorflow/lite/kernels/internal/reference\pad.h ****     for (int out_h = 0; out_h < output_height; ++out_h) {
 2254                             		.loc 6 88 3
 2255 028b 62 1B                   		add	#1, r11
 2256                             	.LVL240:
  88:C:\Users\a5116938\Desktop\e2_studio_workspace\EEMBC_final\RX65N_Cloud_Kit\src/tensorflow/lite/kernels/internal/reference\pad.h ****     for (int out_h = 0; out_h < output_height; ++out_h) {
 2257                             		.loc 6 88 29
 2258 028d ED 09 E4                		mov.L	912[r0], r9
 2259 0290 47 9B                   		cmp	r9, r11
 2260 0292 28 05 38 49 FF          		blt	.L389
 2261                             	.LVL241:
 2262 0297 03                      		.balign 8,3,2
 2263                             	.L366:
 2264                             	.LBE1129:
 2265                             	.LBB1139:
 2266                             	.LBB1140:
 185:C:\Users\a5116938\Desktop\e2_studio_workspace\EEMBC_final\RX65N_Cloud_Kit\src/tensorflow/lite/kernels/internal\types.h **** #ifdef TF_LITE_STATIC_MEMORY
 2267                             		.loc 4 185 5 is_stmt 1
 2268 0298 ED 0E EC                		mov.L	944[r0], r14
 2269 029b 61 5E                   		cmp	#5, r14
 2270 029d 2B 0B                   		ble	.L365
 189:C:\Users\a5116938\Desktop\e2_studio_workspace\EEMBC_final\RX65N_Cloud_Kit\src/tensorflow/lite/kernels/internal\types.h **** #endif  // TF_LITE_STATIC_MEMORY
 2271                             		.loc 4 189 7
 189:C:\Users\a5116938\Desktop\e2_studio_workspace\EEMBC_final\RX65N_Cloud_Kit\src/tensorflow/lite/kernels/internal\types.h **** #endif  // TF_LITE_STATIC_MEMORY
 2272                             		.loc 4 189 29 is_stmt 0
 2273 029f ED 0E EF                		mov.L	956[r0], r14
 2274 02a2 61 0E                   		cmp	#0, r14
 2275 02a4 3B 47 15                		bne	.L921
 2276                             	.LVL242:
 2277 02a7 03                      		.balign 8,3,1
 2278                             	.L365:
 2279                             	.LBE1140:
 2280                             	.LBE1139:
 2281                             	.LBB1142:
 2282                             	.LBB1143:
 185:C:\Users\a5116938\Desktop\e2_studio_workspace\EEMBC_final\RX65N_Cloud_Kit\src/tensorflow/lite/kernels/internal\types.h **** #ifdef TF_LITE_STATIC_MEMORY
 2283                             		.loc 4 185 5 is_stmt 1
 2284 02a8 AD 07                   		mov.L	80[r0], r7
 2285                             	.LVL243:
 2286 02aa 61 57                   		cmp	#5, r7
 2287 02ac 2B 0C                   		ble	.L391
 189:C:\Users\a5116938\Desktop\e2_studio_workspace\EEMBC_final\RX65N_Cloud_Kit\src/tensorflow/lite/kernels/internal\types.h **** #endif  // TF_LITE_STATIC_MEMORY
 2288                             		.loc 4 189 7
 189:C:\Users\a5116938\Desktop\e2_studio_workspace\EEMBC_final\RX65N_Cloud_Kit\src/tensorflow/lite/kernels/internal\types.h **** #endif  // TF_LITE_STATIC_MEMORY
 2289                             		.loc 4 189 16 is_stmt 0
 2290 02ae AD 09                   		mov.L	84[r0], r1
 189:C:\Users\a5116938\Desktop\e2_studio_workspace\EEMBC_final\RX65N_Cloud_Kit\src/tensorflow/lite/kernels/internal\types.h **** #endif  // TF_LITE_STATIC_MEMORY
 2291                             		.loc 4 189 29
 2292 02b0 61 01                   		cmp	#0, r1
 2293 02b2 16                      		beq	.L391
 189:C:\Users\a5116938\Desktop\e2_studio_workspace\EEMBC_final\RX65N_Cloud_Kit\src/tensorflow/lite/kernels/internal\types.h **** #endif  // TF_LITE_STATIC_MEMORY
 2294                             		.loc 4 189 16
 2295 02b3 05 00 00 00             		bsr	__ZdaPv
 2296                             	.LVL244:
 2297 02b7 03                      		.balign 8,3,2
 2298                             	.L391:
 2299                             	.LBE1143:
 2300                             	.LBE1142:
 2301                             	.LBE1156:
 2302                             	.LBE1166:
 2303                             	.LBE1176:
 2304                             	.LBB1177:
 2305                             	.LBB1178:
 185:C:\Users\a5116938\Desktop\e2_studio_workspace\EEMBC_final\RX65N_Cloud_Kit\src/tensorflow/lite/kernels/internal\types.h **** #ifdef TF_LITE_STATIC_MEMORY
 2306                             		.loc 4 185 5 is_stmt 1
 2307 02b8 ED 07 62                		mov.L	392[r0], r7
 2308 02bb 61 57                   		cmp	#5, r7
 2309 02bd 2B 0C                   		ble	.L392
 189:C:\Users\a5116938\Desktop\e2_studio_workspace\EEMBC_final\RX65N_Cloud_Kit\src/tensorflow/lite/kernels/internal\types.h **** #endif  // TF_LITE_STATIC_MEMORY
 2310                             		.loc 4 189 7
 189:C:\Users\a5116938\Desktop\e2_studio_workspace\EEMBC_final\RX65N_Cloud_Kit\src/tensorflow/lite/kernels/internal\types.h **** #endif  // TF_LITE_STATIC_MEMORY
 2311                             		.loc 4 189 16 is_stmt 0
 2312 02bf ED 01 63                		mov.L	396[r0], r1
 189:C:\Users\a5116938\Desktop\e2_studio_workspace\EEMBC_final\RX65N_Cloud_Kit\src/tensorflow/lite/kernels/internal\types.h **** #endif  // TF_LITE_STATIC_MEMORY
 2313                             		.loc 4 189 29
 2314 02c2 61 01                   		cmp	#0, r1
 2315 02c4 15                      		beq	.L392
 189:C:\Users\a5116938\Desktop\e2_studio_workspace\EEMBC_final\RX65N_Cloud_Kit\src/tensorflow/lite/kernels/internal\types.h **** #endif  // TF_LITE_STATIC_MEMORY
 2316                             		.loc 4 189 16
 2317 02c5 05 00 00 00             		bsr	__ZdaPv
 2318                             	.LVL245:
 2319                             		.balign 8,3,2
 2320                             	.L392:
 2321                             	.LBE1178:
 2322                             	.LBE1177:
 2323                             	.LBB1179:
 2324                             	.LBB1180:
 185:C:\Users\a5116938\Desktop\e2_studio_workspace\EEMBC_final\RX65N_Cloud_Kit\src/tensorflow/lite/kernels/internal\types.h **** #ifdef TF_LITE_STATIC_MEMORY
 2325                             		.loc 4 185 5 is_stmt 1
 2326 02c9 ED 07 68                		mov.L	416[r0], r7
 2327 02cc 61 57                   		cmp	#5, r7
 2328 02ce 2B 0C                   		ble	.L435
 189:C:\Users\a5116938\Desktop\e2_studio_workspace\EEMBC_final\RX65N_Cloud_Kit\src/tensorflow/lite/kernels/internal\types.h **** #endif  // TF_LITE_STATIC_MEMORY
 2329                             		.loc 4 189 7
 189:C:\Users\a5116938\Desktop\e2_studio_workspace\EEMBC_final\RX65N_Cloud_Kit\src/tensorflow/lite/kernels/internal\types.h **** #endif  // TF_LITE_STATIC_MEMORY
 2330                             		.loc 4 189 16 is_stmt 0
 2331 02d0 ED 01 69                		mov.L	420[r0], r1
 189:C:\Users\a5116938\Desktop\e2_studio_workspace\EEMBC_final\RX65N_Cloud_Kit\src/tensorflow/lite/kernels/internal\types.h **** #endif  // TF_LITE_STATIC_MEMORY
 2332                             		.loc 4 189 29
 2333 02d3 61 01                   		cmp	#0, r1
 2334 02d5 15                      		beq	.L435
 2335                             	.LBE1180:
 2336                             	.LBE1179:
 2337                             	.LBE1349:
 2338                             	.LBB1350:
 2339                             	.LBB1351:
 2340                             	.LBB1352:
 189:C:\Users\a5116938\Desktop\e2_studio_workspace\EEMBC_final\RX65N_Cloud_Kit\src/tensorflow/lite/kernels/internal\types.h **** #endif  // TF_LITE_STATIC_MEMORY
 2341                             		.loc 4 189 16
 2342 02d6 05 00 00 00             		bsr	__ZdaPv
 2343                             	.LVL246:
 2344                             		.balign 8,3,1
 2345                             	.L435:
 2346                             	.LBE1352:
 2347                             	.LBE1351:
 2348                             	.LBE1350:
 204:../src/tensorflow/lite/micro/kernels/pad.cc ****                            tflite::micro::GetTensorData<int8_t>(output));
 205:../src/tensorflow/lite/micro/kernels/pad.cc ****       }
 206:../src/tensorflow/lite/micro/kernels/pad.cc ****     } break;
 207:../src/tensorflow/lite/micro/kernels/pad.cc ****     case kTfLiteInt32: {
 208:../src/tensorflow/lite/micro/kernels/pad.cc ****       int32_t pad_value =
 209:../src/tensorflow/lite/micro/kernels/pad.cc ****           constant_values == nullptr
 210:../src/tensorflow/lite/micro/kernels/pad.cc ****               ? 0
 211:../src/tensorflow/lite/micro/kernels/pad.cc ****               : *tflite::micro::GetTensorData<int32_t>(constant_values);
 212:../src/tensorflow/lite/micro/kernels/pad.cc ****       reference_ops::Pad(data->params, tflite::micro::GetTensorShape(input),
 213:../src/tensorflow/lite/micro/kernels/pad.cc ****                          tflite::micro::GetTensorData<int32_t>(input),
 214:../src/tensorflow/lite/micro/kernels/pad.cc ****                          &pad_value, tflite::micro::GetTensorShape(output),
 215:../src/tensorflow/lite/micro/kernels/pad.cc ****                          tflite::micro::GetTensorData<int32_t>(output));
 216:../src/tensorflow/lite/micro/kernels/pad.cc ****     } break;
 2349                             		.loc 1 216 7 is_stmt 1
 2350                             	.LBE2199:
 2351                             	.LBE2259:
 217:../src/tensorflow/lite/micro/kernels/pad.cc ****     default:
 218:../src/tensorflow/lite/micro/kernels/pad.cc **** 
 219:../src/tensorflow/lite/micro/kernels/pad.cc ****       TF_LITE_KERNEL_LOG(context, "Type %s not currently supported by Pad.",
 220:../src/tensorflow/lite/micro/kernels/pad.cc ****                          TfLiteTypeGetName(input->type));
 221:../src/tensorflow/lite/micro/kernels/pad.cc ****       return kTfLiteError;
 222:../src/tensorflow/lite/micro/kernels/pad.cc ****   }
 223:../src/tensorflow/lite/micro/kernels/pad.cc **** #undef TF_LITE_PAD
 224:../src/tensorflow/lite/micro/kernels/pad.cc ****   return kTfLiteOk;
 2352                             		.loc 1 224 10 is_stmt 0
 2353 02da 66 01                   		mov.L	#0, r1
 225:../src/tensorflow/lite/micro/kernels/pad.cc **** }
 2354                             		.loc 1 225 1
 2355 02dc 3F 6D F8                		rtsd	#992, r6-r13
 2356                             	.LVL247:
 2357                             	.L917:
 2358                             	.LBB2260:
 148:../src/tensorflow/lite/micro/kernels/pad.cc ****     case kTfLiteFloat32: {
 2359                             		.loc 1 148 3
 2360 02df 61 11                   		cmp	#1, r1
 2361 02e1 20 1A                   		beq	.L496
 2362                             	.LVL248:
 2363                             		.balign 8,3,1
 2364                             	.L124:
 2365                             	.LBB2200:
 217:../src/tensorflow/lite/micro/kernels/pad.cc ****     default:
 2366                             		.loc 1 217 5 is_stmt 1
 219:../src/tensorflow/lite/micro/kernels/pad.cc ****                          TfLiteTypeGetName(input->type));
 2367                             		.loc 1 219 7
 219:../src/tensorflow/lite/micro/kernels/pad.cc ****                          TfLiteTypeGetName(input->type));
 2368                             		.loc 1 219 7
 2369 02e3 ED A7 05                		mov.L	20[r10], r7
 2370                             	.LVL249:
 2371 02e6 05 00 00 00             		bsr	_TfLiteTypeGetName
 2372                             	.LVL250:
 2373 02ea A0 09                   		mov.L	r1, 4[r0]
 2374 02ec EF A1                   		mov.L	r10, r1
 2375 02ee F8 02 00 00 00 00       		mov.L	#.LC28, [r0]
 2376 02f4 7F 17                   		jsr	r7
 2377                             	.LVL251:
 221:../src/tensorflow/lite/micro/kernels/pad.cc ****   }
 2378                             		.loc 1 221 7
 221:../src/tensorflow/lite/micro/kernels/pad.cc ****   }
 2379                             		.loc 1 221 14 is_stmt 0
 2380 02f6 66 11                   		mov.L	#1, r1
 2381                             	.LBE2200:
 2382                             	.LBE2260:
 2383                             		.loc 1 225 1
 2384 02f8 3F 6D F8                		rtsd	#992, r6-r13
 2385                             	.LVL252:
 2386                             	.L496:
 2387                             	.LBB2261:
 2388                             	.LBB2201:
 2389                             	.LBB1502:
 152:../src/tensorflow/lite/micro/kernels/pad.cc ****               : *tflite::micro::GetTensorData<float>(constant_values);
 2390                             		.loc 1 152 15
 2391 02fb 66 0A                   		mov.L	#0x0, r10
 2392 02fd FC 13 00                		.balign 8,3,3
 2393                             	.L127:
 2394                             	.LVL253:
 154:../src/tensorflow/lite/micro/kernels/pad.cc ****         reference_ops::PadImageStyle(
 2395                             		.loc 1 154 7 is_stmt 1
 2396 0300 59 65 28                		movu.B	40[r6], r5
 2397 0303 61 15                   		cmp	#1, r5
 2398 0305 3A 7E 05                		beq	.L922
 161:../src/tensorflow/lite/micro/kernels/pad.cc ****                            tflite::micro::GetTensorData<float>(input),
 2399                             		.loc 1 161 9
 161:../src/tensorflow/lite/micro/kernels/pad.cc ****                            tflite::micro::GetTensorData<float>(input),
 2400                             		.loc 1 161 71 is_stmt 0
 2401 0308 72 0F 60 02             		add	#0x260, r0, r15
 2402 030c EF B1                   		mov.L	r11, r1
 2403 030e 05 00 00 00             		bsr	__ZN6tflite5micro14GetTensorShapeEPK16TfLiteEvalTensor
 2404                             	.LVL254:
 163:../src/tensorflow/lite/micro/kernels/pad.cc ****                            tflite::micro::GetTensorData<float>(output));
 2405                             		.loc 1 163 69
 2406 0312 72 0F 48 02             		add	#0x248, r0, r15
 2407 0316 EF 71                   		mov.L	r7, r1
 2408                             	.LBB1503:
 2409                             	.LBB1504:
 2410                             		.loc 5 62 53
 2411 0318 E4 B0 E2                		mov.L	[r11], 904[r0]
 2412                             	.LVL255:
 2413                             	.LBE1504:
 2414                             	.LBE1503:
 163:../src/tensorflow/lite/micro/kernels/pad.cc ****                            tflite::micro::GetTensorData<float>(output));
 2415                             		.loc 1 163 69
 2416 031b 05 00 00 00             		bsr	__ZN6tflite5micro14GetTensorShapeEPK16TfLiteEvalTensor
 2417                             	.LVL256:
 2418                             	.LBB1505:
 2419                             	.LBB1506:
  55:C:\Users\a5116938\Desktop\e2_studio_workspace\EEMBC_final\RX65N_Cloud_Kit\src/tensorflow/lite/micro/kernels\kernel_util.h **** }
 2420                             		.loc 5 55 28
 2421 031f 61 07                   		cmp	#0, r7
 2422 0321 13                      		beq	.L171
 2423 0322 EC 77                   		mov.L	[r7], r7
 2424                             	.LVL257:
 2425                             		.balign 8,3,2
 2426                             	.L171:
 2427                             	.LBE1506:
 2428                             	.LBE1505:
 2429                             	.LBE1502:
 2430                             	.LBE2201:
 2431                             	.LBE2261:
 262:C:\Users\a5116938\Desktop\e2_studio_workspace\EEMBC_final\RX65N_Cloud_Kit\src/tensorflow/lite/kernels/internal\types.h ****   }
 2432                             		.loc 4 262 5 is_stmt 1
 2433                             	.LBB2262:
 2434                             	.LBB2202:
 2435                             	.LBB1809:
 2436                             	.LBB1507:
 2437                             	.LBB1508:
 2438                             	.LBB1509:
 2439                             	.LBB1510:
 2440                             	.LBB1511:
 2441                             	.LBB1512:
 2442                             	.LBB1513:
 2443                             	.LBB1514:
 290:C:\Users\a5116938\Desktop\e2_studio_workspace\EEMBC_final\RX65N_Cloud_Kit\src/tensorflow/lite/kernels/internal\types.h ****     Resize(new_shape_size);
 2444                             		.loc 4 290 5 is_stmt 0
 2445 0324 ED 03 98                		mov.L	608[r0], r3
 2446                             	.LBE1514:
 287:C:\Users\a5116938\Desktop\e2_studio_workspace\EEMBC_final\RX65N_Cloud_Kit\src/tensorflow/lite/kernels/internal\types.h ****     // If the following check fails, it is likely because a 4D-only kernel is
 2447                             		.loc 4 287 16
 2448 0327 F9 06 44 00             		mov.L	#0, 272[r0]
 2449                             	.LBB1526:
 290:C:\Users\a5116938\Desktop\e2_studio_workspace\EEMBC_final\RX65N_Cloud_Kit\src/tensorflow/lite/kernels/internal\types.h ****     Resize(new_shape_size);
 2450                             		.loc 4 290 5 is_stmt 1
 2451                             	.LVL258:
 2452                             	.LBE1526:
 2453                             	.LBE1513:
 2454                             	.LBE1512:
 2455                             	.LBE1511:
 2456                             	.LBE1510:
 2457                             	.LBE1509:
 2458                             	.LBE1508:
 2459                             	.LBE1507:
 2460                             	.LBE1809:
 2461                             	.LBE2202:
 2462                             	.LBE2262:
 194:C:\Users\a5116938\Desktop\e2_studio_workspace\EEMBC_final\RX65N_Cloud_Kit\src/tensorflow/lite/kernels/internal\types.h ****   inline int32_t Dims(int i) const {
 2463                             		.loc 4 194 44
 2464                             	.LBB2263:
 2465                             	.LBB2203:
 2466                             	.LBB1810:
 2467                             	.LBB1637:
 2468                             	.LBB1626:
 2469                             	.LBB1615:
 2470                             	.LBB1539:
 2471                             	.LBB1536:
 2472                             	.LBB1533:
 2473                             	.LBB1530:
 2474                             	.LBB1527:
 290:C:\Users\a5116938\Desktop\e2_studio_workspace\EEMBC_final\RX65N_Cloud_Kit\src/tensorflow/lite/kernels/internal\types.h ****     Resize(new_shape_size);
 2475                             		.loc 4 290 5 is_stmt 0
 2476 032b 61 43                   		cmp	#4, r3
 2477 032d 2B 05 38 3F 16          		bgt	.L119
 291:C:\Users\a5116938\Desktop\e2_studio_workspace\EEMBC_final\RX65N_Cloud_Kit\src/tensorflow/lite/kernels/internal\types.h ****     const int size_increase = new_shape_size - shape.DimensionsCount();
 2478                             		.loc 4 291 5 is_stmt 1
 2479                             	.LVL259:
 2480                             	.LBB1515:
 2481                             	.LBB1516:
 220:C:\Users\a5116938\Desktop\e2_studio_workspace\EEMBC_final\RX65N_Cloud_Kit\src/tensorflow/lite/kernels/internal\types.h **** #ifdef TF_LITE_STATIC_MEMORY
 2482                             		.loc 4 220 5
 227:C:\Users\a5116938\Desktop\e2_studio_workspace\EEMBC_final\RX65N_Cloud_Kit\src/tensorflow/lite/kernels/internal\types.h ****     if (dimensions_count > kMaxSmallSize) {
 2483                             		.loc 4 227 5
 227:C:\Users\a5116938\Desktop\e2_studio_workspace\EEMBC_final\RX65N_Cloud_Kit\src/tensorflow/lite/kernels/internal\types.h ****     if (dimensions_count > kMaxSmallSize) {
 2484                             		.loc 4 227 11 is_stmt 0
 2485 0332 F9 06 44 04             		mov.L	#4, 272[r0]
 228:C:\Users\a5116938\Desktop\e2_studio_workspace\EEMBC_final\RX65N_Cloud_Kit\src/tensorflow/lite/kernels/internal\types.h **** #ifdef TF_LITE_STATIC_MEMORY
 2486                             		.loc 4 228 5 is_stmt 1
 2487                             	.LVL260:
 2488                             	.LBE1516:
 2489                             	.LBE1515:
 292:C:\Users\a5116938\Desktop\e2_studio_workspace\EEMBC_final\RX65N_Cloud_Kit\src/tensorflow/lite/kernels/internal\types.h ****     for (int i = 0; i < size_increase; ++i) {
 2490                             		.loc 4 292 5
 2491                             	.LBE1527:
 2492                             	.LBE1530:
 2493                             	.LBE1533:
 2494                             	.LBE1536:
 2495                             	.LBE1539:
 2496                             	.LBE1615:
 2497                             	.LBE1626:
 2498                             	.LBE1637:
 2499                             	.LBE1810:
 2500                             	.LBE2203:
 2501                             	.LBE2263:
 194:C:\Users\a5116938\Desktop\e2_studio_workspace\EEMBC_final\RX65N_Cloud_Kit\src/tensorflow/lite/kernels/internal\types.h ****   inline int32_t Dims(int i) const {
 2502                             		.loc 4 194 44
 2503                             	.LBB2264:
 2504                             	.LBB2204:
 2505                             	.LBB1811:
 2506                             	.LBB1638:
 2507                             	.LBB1627:
 2508                             	.LBB1616:
 2509                             	.LBB1540:
 2510                             	.LBB1537:
 2511                             	.LBB1534:
 2512                             	.LBB1531:
 2513                             	.LBB1528:
 292:C:\Users\a5116938\Desktop\e2_studio_workspace\EEMBC_final\RX65N_Cloud_Kit\src/tensorflow/lite/kernels/internal\types.h ****     for (int i = 0; i < size_increase; ++i) {
 2514                             		.loc 4 292 70 is_stmt 0
 2515 0336 66 41                   		mov.L	#4, r1
 2516 0338 43 31                   		sub	r3, r1
 2517                             	.LVL261:
 293:C:\Users\a5116938\Desktop\e2_studio_workspace\EEMBC_final\RX65N_Cloud_Kit\src/tensorflow/lite/kernels/internal\types.h ****       SetDim(i, pad_value);
 2518                             		.loc 4 293 5 is_stmt 1
 2519                             	.LBB1517:
 293:C:\Users\a5116938\Desktop\e2_studio_workspace\EEMBC_final\RX65N_Cloud_Kit\src/tensorflow/lite/kernels/internal\types.h ****       SetDim(i, pad_value);
 2520                             		.loc 4 293 23 is_stmt 0
 2521 033a 20 22                   		beq	.L172
 2522                             	.LVL262:
 2523                             	.LBB1518:
 2524                             	.LBB1519:
 203:C:\Users\a5116938\Desktop\e2_studio_workspace\EEMBC_final\RX65N_Cloud_Kit\src/tensorflow/lite/kernels/internal\types.h ****       dims_pointer_[i] = val;
 2525                             		.loc 4 203 5 is_stmt 1
 206:C:\Users\a5116938\Desktop\e2_studio_workspace\EEMBC_final\RX65N_Cloud_Kit\src/tensorflow/lite/kernels/internal\types.h ****     }
 2526                             		.loc 4 206 7
 206:C:\Users\a5116938\Desktop\e2_studio_workspace\EEMBC_final\RX65N_Cloud_Kit\src/tensorflow/lite/kernels/internal\types.h ****     }
 2527                             		.loc 4 206 16 is_stmt 0
 2528 033c F9 06 45 01             		mov.L	#1, 276[r0]
 2529                             	.LVL263:
 2530                             	.LBE1519:
 2531                             	.LBE1518:
 293:C:\Users\a5116938\Desktop\e2_studio_workspace\EEMBC_final\RX65N_Cloud_Kit\src/tensorflow/lite/kernels/internal\types.h ****       SetDim(i, pad_value);
 2532                             		.loc 4 293 23
 2533 0340 61 11                   		cmp	#1, r1
 2534 0342 20 1A                   		beq	.L172
 294:C:\Users\a5116938\Desktop\e2_studio_workspace\EEMBC_final\RX65N_Cloud_Kit\src/tensorflow/lite/kernels/internal\types.h ****     }
 2535                             		.loc 4 294 7 is_stmt 1
 2536                             	.LVL264:
 2537                             	.LBB1523:
 2538                             	.LBB1520:
 201:C:\Users\a5116938\Desktop\e2_studio_workspace\EEMBC_final\RX65N_Cloud_Kit\src/tensorflow/lite/kernels/internal\types.h ****     TFLITE_DCHECK_LT(i, size_);
 2539                             		.loc 4 201 5
 202:C:\Users\a5116938\Desktop\e2_studio_workspace\EEMBC_final\RX65N_Cloud_Kit\src/tensorflow/lite/kernels/internal\types.h ****     if (size_ > kMaxSmallSize) {
 2540                             		.loc 4 202 5
 203:C:\Users\a5116938\Desktop\e2_studio_workspace\EEMBC_final\RX65N_Cloud_Kit\src/tensorflow/lite/kernels/internal\types.h ****       dims_pointer_[i] = val;
 2541                             		.loc 4 203 5
 206:C:\Users\a5116938\Desktop\e2_studio_workspace\EEMBC_final\RX65N_Cloud_Kit\src/tensorflow/lite/kernels/internal\types.h ****     }
 2542                             		.loc 4 206 7
 206:C:\Users\a5116938\Desktop\e2_studio_workspace\EEMBC_final\RX65N_Cloud_Kit\src/tensorflow/lite/kernels/internal\types.h ****     }
 2543                             		.loc 4 206 16 is_stmt 0
 2544 0344 F9 06 46 01             		mov.L	#1, 280[r0]
 2545                             	.LVL265:
 2546                             	.LBE1520:
 2547                             	.LBE1523:
 293:C:\Users\a5116938\Desktop\e2_studio_workspace\EEMBC_final\RX65N_Cloud_Kit\src/tensorflow/lite/kernels/internal\types.h ****       SetDim(i, pad_value);
 2548                             		.loc 4 293 23
 2549 0348 61 21                   		cmp	#2, r1
 2550 034a 20 12                   		beq	.L172
 294:C:\Users\a5116938\Desktop\e2_studio_workspace\EEMBC_final\RX65N_Cloud_Kit\src/tensorflow/lite/kernels/internal\types.h ****     }
 2551                             		.loc 4 294 7 is_stmt 1
 2552                             	.LVL266:
 2553                             	.LBB1524:
 2554                             	.LBB1521:
 201:C:\Users\a5116938\Desktop\e2_studio_workspace\EEMBC_final\RX65N_Cloud_Kit\src/tensorflow/lite/kernels/internal\types.h ****     TFLITE_DCHECK_LT(i, size_);
 2555                             		.loc 4 201 5
 202:C:\Users\a5116938\Desktop\e2_studio_workspace\EEMBC_final\RX65N_Cloud_Kit\src/tensorflow/lite/kernels/internal\types.h ****     if (size_ > kMaxSmallSize) {
 2556                             		.loc 4 202 5
 203:C:\Users\a5116938\Desktop\e2_studio_workspace\EEMBC_final\RX65N_Cloud_Kit\src/tensorflow/lite/kernels/internal\types.h ****       dims_pointer_[i] = val;
 2557                             		.loc 4 203 5
 206:C:\Users\a5116938\Desktop\e2_studio_workspace\EEMBC_final\RX65N_Cloud_Kit\src/tensorflow/lite/kernels/internal\types.h ****     }
 2558                             		.loc 4 206 7
 206:C:\Users\a5116938\Desktop\e2_studio_workspace\EEMBC_final\RX65N_Cloud_Kit\src/tensorflow/lite/kernels/internal\types.h ****     }
 2559                             		.loc 4 206 16 is_stmt 0
 2560 034c F9 06 47 01             		mov.L	#1, 284[r0]
 2561                             	.LVL267:
 2562                             	.LBE1521:
 2563                             	.LBE1524:
 293:C:\Users\a5116938\Desktop\e2_studio_workspace\EEMBC_final\RX65N_Cloud_Kit\src/tensorflow/lite/kernels/internal\types.h ****       SetDim(i, pad_value);
 2564                             		.loc 4 293 23
 2565 0350 61 31                   		cmp	#3, r1
 2566 0352 12                      		beq	.L172
 294:C:\Users\a5116938\Desktop\e2_studio_workspace\EEMBC_final\RX65N_Cloud_Kit\src/tensorflow/lite/kernels/internal\types.h ****     }
 2567                             		.loc 4 294 7 is_stmt 1
 2568                             	.LVL268:
 2569                             	.LBB1525:
 2570                             	.LBB1522:
 201:C:\Users\a5116938\Desktop\e2_studio_workspace\EEMBC_final\RX65N_Cloud_Kit\src/tensorflow/lite/kernels/internal\types.h ****     TFLITE_DCHECK_LT(i, size_);
 2571                             		.loc 4 201 5
 202:C:\Users\a5116938\Desktop\e2_studio_workspace\EEMBC_final\RX65N_Cloud_Kit\src/tensorflow/lite/kernels/internal\types.h ****     if (size_ > kMaxSmallSize) {
 2572                             		.loc 4 202 5
 203:C:\Users\a5116938\Desktop\e2_studio_workspace\EEMBC_final\RX65N_Cloud_Kit\src/tensorflow/lite/kernels/internal\types.h ****       dims_pointer_[i] = val;
 2573                             		.loc 4 203 5
 206:C:\Users\a5116938\Desktop\e2_studio_workspace\EEMBC_final\RX65N_Cloud_Kit\src/tensorflow/lite/kernels/internal\types.h ****     }
 2574                             		.loc 4 206 7
 206:C:\Users\a5116938\Desktop\e2_studio_workspace\EEMBC_final\RX65N_Cloud_Kit\src/tensorflow/lite/kernels/internal\types.h ****     }
 2575                             		.loc 4 206 16 is_stmt 0
 2576 0353 F9 06 48 01             		mov.L	#1, 288[r0]
 2577                             	.LVL269:
 2578                             	.LBE1522:
 2579                             	.LBE1525:
 293:C:\Users\a5116938\Desktop\e2_studio_workspace\EEMBC_final\RX65N_Cloud_Kit\src/tensorflow/lite/kernels/internal\types.h ****       SetDim(i, pad_value);
 2580                             		.loc 4 293 23
 2581 0357 61 41                   		cmp	#4, r1
 2582 0359 3B 15 16                		bne	.L119
 2583                             	.LVL270:
 2584                             		.balign 8,3,1
 2585                             	.L172:
 2586                             	.LBE1517:
 2587                             	.LBE1528:
 2588                             	.LBE1531:
 2589                             	.LBE1534:
 2590                             	.LBE1537:
 2591                             	.LBE1540:
 2592                             	.LBE1616:
 2593                             	.LBE1627:
 2594                             	.LBE1638:
 2595                             	.LBE1811:
 2596                             	.LBE2204:
 2597                             	.LBE2264:
 214:C:\Users\a5116938\Desktop\e2_studio_workspace\EEMBC_final\RX65N_Cloud_Kit\src/tensorflow/lite/kernels/internal\types.h ****   }
 2598                             		.loc 4 214 5 is_stmt 1
 194:C:\Users\a5116938\Desktop\e2_studio_workspace\EEMBC_final\RX65N_Cloud_Kit\src/tensorflow/lite/kernels/internal\types.h ****   inline int32_t Dims(int i) const {
 2599                             		.loc 4 194 44
 2600                             	.LBB2265:
 2601                             	.LBB2205:
 2602                             	.LBB1812:
 2603                             	.LBB1639:
 2604                             	.LBB1628:
 2605                             	.LBB1617:
 2606                             	.LBB1541:
 2607                             	.LBB1538:
 2608                             	.LBB1535:
 2609                             	.LBB1532:
 2610                             	.LBB1529:
 2611                             		.loc 4 296 28 is_stmt 0
 2612 035c 6C 21                   		shll	#2, r1
 2613                             	.LVL271:
 2614                             		.loc 4 296 16
 2615 035e FB 5A 14 01             		mov.L	#0x114, r5
 2616 0362 4B 05                   		add	r0, r5
 2617 0364 4B 51                   		add	r5, r1
 2618 0366 72 02 64 02             		add	#0x264, r0, r2
 2619 036a 6C 23                   		shll	#2, r3
 2620                             	.LVL272:
 2621 036c 7F 8F                   		smovf
 2622                             	.LVL273:
 2623                             	.LBE1529:
 2624                             	.LBE1532:
 2625                             	.LBE1535:
 2626                             	.LBE1538:
 2627                             	.LBE1541:
 2628                             	.LBE1617:
 2629                             	.LBE1628:
 2630                             	.LBE1639:
 2631                             	.LBE1812:
 2632                             	.LBE2205:
 2633                             	.LBE2265:
 262:C:\Users\a5116938\Desktop\e2_studio_workspace\EEMBC_final\RX65N_Cloud_Kit\src/tensorflow/lite/kernels/internal\types.h ****   }
 2634                             		.loc 4 262 5 is_stmt 1
 2635                             	.LBB2266:
 2636                             	.LBB2206:
 2637                             	.LBB1813:
 2638                             	.LBB1640:
 2639                             	.LBB1629:
 2640                             	.LBB1618:
 2641                             	.LBB1542:
 2642                             	.LBB1543:
 2643                             	.LBB1544:
 2644                             	.LBB1545:
 2645                             	.LBB1546:
 290:C:\Users\a5116938\Desktop\e2_studio_workspace\EEMBC_final\RX65N_Cloud_Kit\src/tensorflow/lite/kernels/internal\types.h ****     Resize(new_shape_size);
 2646                             		.loc 4 290 5 is_stmt 0
 2647 036e ED 03 92                		mov.L	584[r0], r3
 2648                             	.LBE1546:
 287:C:\Users\a5116938\Desktop\e2_studio_workspace\EEMBC_final\RX65N_Cloud_Kit\src/tensorflow/lite/kernels/internal\types.h ****     // If the following check fails, it is likely because a 4D-only kernel is
 2649                             		.loc 4 287 16
 2650 0371 F9 06 3E 00             		mov.L	#0, 248[r0]
 2651                             	.LBB1560:
 290:C:\Users\a5116938\Desktop\e2_studio_workspace\EEMBC_final\RX65N_Cloud_Kit\src/tensorflow/lite/kernels/internal\types.h ****     Resize(new_shape_size);
 2652                             		.loc 4 290 5 is_stmt 1
 2653                             	.LVL274:
 2654                             	.LBE1560:
 2655                             	.LBE1545:
 2656                             	.LBE1544:
 2657                             	.LBE1543:
 2658                             	.LBE1542:
 2659                             	.LBE1618:
 2660                             	.LBE1629:
 2661                             	.LBE1640:
 2662                             	.LBE1813:
 2663                             	.LBE2206:
 2664                             	.LBE2266:
 194:C:\Users\a5116938\Desktop\e2_studio_workspace\EEMBC_final\RX65N_Cloud_Kit\src/tensorflow/lite/kernels/internal\types.h ****   inline int32_t Dims(int i) const {
 2665                             		.loc 4 194 44
 2666                             	.LBB2267:
 2667                             	.LBB2207:
 2668                             	.LBB1814:
 2669                             	.LBB1641:
 2670                             	.LBB1630:
 2671                             	.LBB1619:
 2672                             	.LBB1573:
 2673                             	.LBB1570:
 2674                             	.LBB1567:
 2675                             	.LBB1564:
 2676                             	.LBB1561:
 290:C:\Users\a5116938\Desktop\e2_studio_workspace\EEMBC_final\RX65N_Cloud_Kit\src/tensorflow/lite/kernels/internal\types.h ****     Resize(new_shape_size);
 2677                             		.loc 4 290 5 is_stmt 0
 2678 0375 61 43                   		cmp	#4, r3
 2679 0377 2B 05 38 F5 15          		bgt	.L119
 291:C:\Users\a5116938\Desktop\e2_studio_workspace\EEMBC_final\RX65N_Cloud_Kit\src/tensorflow/lite/kernels/internal\types.h ****     const int size_increase = new_shape_size - shape.DimensionsCount();
 2680                             		.loc 4 291 5 is_stmt 1
 2681                             	.LVL275:
 2682                             	.LBB1547:
 2683                             	.LBB1548:
 220:C:\Users\a5116938\Desktop\e2_studio_workspace\EEMBC_final\RX65N_Cloud_Kit\src/tensorflow/lite/kernels/internal\types.h **** #ifdef TF_LITE_STATIC_MEMORY
 2684                             		.loc 4 220 5
 227:C:\Users\a5116938\Desktop\e2_studio_workspace\EEMBC_final\RX65N_Cloud_Kit\src/tensorflow/lite/kernels/internal\types.h ****     if (dimensions_count > kMaxSmallSize) {
 2685                             		.loc 4 227 5
 2686                             	.LBE1548:
 2687                             	.LBE1547:
 292:C:\Users\a5116938\Desktop\e2_studio_workspace\EEMBC_final\RX65N_Cloud_Kit\src/tensorflow/lite/kernels/internal\types.h ****     for (int i = 0; i < size_increase; ++i) {
 2688                             		.loc 4 292 70 is_stmt 0
 2689 037c 66 41                   		mov.L	#4, r1
 2690 037e 43 31                   		sub	r3, r1
 2691                             	.LBB1550:
 2692                             	.LBB1549:
 227:C:\Users\a5116938\Desktop\e2_studio_workspace\EEMBC_final\RX65N_Cloud_Kit\src/tensorflow/lite/kernels/internal\types.h ****     if (dimensions_count > kMaxSmallSize) {
 2693                             		.loc 4 227 11
 2694 0380 F9 06 3E 04             		mov.L	#4, 248[r0]
 228:C:\Users\a5116938\Desktop\e2_studio_workspace\EEMBC_final\RX65N_Cloud_Kit\src/tensorflow/lite/kernels/internal\types.h **** #ifdef TF_LITE_STATIC_MEMORY
 2695                             		.loc 4 228 5 is_stmt 1
 2696                             	.LVL276:
 2697                             	.LBE1549:
 2698                             	.LBE1550:
 292:C:\Users\a5116938\Desktop\e2_studio_workspace\EEMBC_final\RX65N_Cloud_Kit\src/tensorflow/lite/kernels/internal\types.h ****     for (int i = 0; i < size_increase; ++i) {
 2699                             		.loc 4 292 5
 2700                             	.LBE1561:
 2701                             	.LBE1564:
 2702                             	.LBE1567:
 2703                             	.LBE1570:
 2704                             	.LBE1573:
 2705                             	.LBE1619:
 2706                             	.LBE1630:
 2707                             	.LBE1641:
 2708                             	.LBE1814:
 2709                             	.LBE2207:
 2710                             	.LBE2267:
 194:C:\Users\a5116938\Desktop\e2_studio_workspace\EEMBC_final\RX65N_Cloud_Kit\src/tensorflow/lite/kernels/internal\types.h ****   inline int32_t Dims(int i) const {
 2711                             		.loc 4 194 44
 2712                             	.LBB2268:
 2713                             	.LBB2208:
 2714                             	.LBB1815:
 2715                             	.LBB1642:
 2716                             	.LBB1631:
 2717                             	.LBB1620:
 2718                             	.LBB1574:
 2719                             	.LBB1571:
 2720                             	.LBB1568:
 2721                             	.LBB1565:
 2722                             	.LBB1562:
 293:C:\Users\a5116938\Desktop\e2_studio_workspace\EEMBC_final\RX65N_Cloud_Kit\src/tensorflow/lite/kernels/internal\types.h ****       SetDim(i, pad_value);
 2723                             		.loc 4 293 5
 2724                             	.LBB1551:
 293:C:\Users\a5116938\Desktop\e2_studio_workspace\EEMBC_final\RX65N_Cloud_Kit\src/tensorflow/lite/kernels/internal\types.h ****       SetDim(i, pad_value);
 2725                             		.loc 4 293 23 is_stmt 0
 2726 0384 20 22                   		beq	.L174
 2727                             	.LVL277:
 2728                             	.LBB1552:
 2729                             	.LBB1553:
 203:C:\Users\a5116938\Desktop\e2_studio_workspace\EEMBC_final\RX65N_Cloud_Kit\src/tensorflow/lite/kernels/internal\types.h ****       dims_pointer_[i] = val;
 2730                             		.loc 4 203 5 is_stmt 1
 206:C:\Users\a5116938\Desktop\e2_studio_workspace\EEMBC_final\RX65N_Cloud_Kit\src/tensorflow/lite/kernels/internal\types.h ****     }
 2731                             		.loc 4 206 7
 206:C:\Users\a5116938\Desktop\e2_studio_workspace\EEMBC_final\RX65N_Cloud_Kit\src/tensorflow/lite/kernels/internal\types.h ****     }
 2732                             		.loc 4 206 16 is_stmt 0
 2733 0386 F9 06 3F 01             		mov.L	#1, 252[r0]
 2734                             	.LVL278:
 2735                             	.LBE1553:
 2736                             	.LBE1552:
 293:C:\Users\a5116938\Desktop\e2_studio_workspace\EEMBC_final\RX65N_Cloud_Kit\src/tensorflow/lite/kernels/internal\types.h ****       SetDim(i, pad_value);
 2737                             		.loc 4 293 23
 2738 038a 61 11                   		cmp	#1, r1
 2739 038c 20 1A                   		beq	.L174
 294:C:\Users\a5116938\Desktop\e2_studio_workspace\EEMBC_final\RX65N_Cloud_Kit\src/tensorflow/lite/kernels/internal\types.h ****     }
 2740                             		.loc 4 294 7 is_stmt 1
 2741                             	.LVL279:
 2742                             	.LBB1557:
 2743                             	.LBB1554:
 201:C:\Users\a5116938\Desktop\e2_studio_workspace\EEMBC_final\RX65N_Cloud_Kit\src/tensorflow/lite/kernels/internal\types.h ****     TFLITE_DCHECK_LT(i, size_);
 2744                             		.loc 4 201 5
 202:C:\Users\a5116938\Desktop\e2_studio_workspace\EEMBC_final\RX65N_Cloud_Kit\src/tensorflow/lite/kernels/internal\types.h ****     if (size_ > kMaxSmallSize) {
 2745                             		.loc 4 202 5
 203:C:\Users\a5116938\Desktop\e2_studio_workspace\EEMBC_final\RX65N_Cloud_Kit\src/tensorflow/lite/kernels/internal\types.h ****       dims_pointer_[i] = val;
 2746                             		.loc 4 203 5
 206:C:\Users\a5116938\Desktop\e2_studio_workspace\EEMBC_final\RX65N_Cloud_Kit\src/tensorflow/lite/kernels/internal\types.h ****     }
 2747                             		.loc 4 206 7
 206:C:\Users\a5116938\Desktop\e2_studio_workspace\EEMBC_final\RX65N_Cloud_Kit\src/tensorflow/lite/kernels/internal\types.h ****     }
 2748                             		.loc 4 206 16 is_stmt 0
 2749 038e F9 06 40 01             		mov.L	#1, 256[r0]
 2750                             	.LVL280:
 2751                             	.LBE1554:
 2752                             	.LBE1557:
 293:C:\Users\a5116938\Desktop\e2_studio_workspace\EEMBC_final\RX65N_Cloud_Kit\src/tensorflow/lite/kernels/internal\types.h ****       SetDim(i, pad_value);
 2753                             		.loc 4 293 23
 2754 0392 61 21                   		cmp	#2, r1
 2755 0394 20 12                   		beq	.L174
 294:C:\Users\a5116938\Desktop\e2_studio_workspace\EEMBC_final\RX65N_Cloud_Kit\src/tensorflow/lite/kernels/internal\types.h ****     }
 2756                             		.loc 4 294 7 is_stmt 1
 2757                             	.LVL281:
 2758                             	.LBB1558:
 2759                             	.LBB1555:
 201:C:\Users\a5116938\Desktop\e2_studio_workspace\EEMBC_final\RX65N_Cloud_Kit\src/tensorflow/lite/kernels/internal\types.h ****     TFLITE_DCHECK_LT(i, size_);
 2760                             		.loc 4 201 5
 202:C:\Users\a5116938\Desktop\e2_studio_workspace\EEMBC_final\RX65N_Cloud_Kit\src/tensorflow/lite/kernels/internal\types.h ****     if (size_ > kMaxSmallSize) {
 2761                             		.loc 4 202 5
 203:C:\Users\a5116938\Desktop\e2_studio_workspace\EEMBC_final\RX65N_Cloud_Kit\src/tensorflow/lite/kernels/internal\types.h ****       dims_pointer_[i] = val;
 2762                             		.loc 4 203 5
 206:C:\Users\a5116938\Desktop\e2_studio_workspace\EEMBC_final\RX65N_Cloud_Kit\src/tensorflow/lite/kernels/internal\types.h ****     }
 2763                             		.loc 4 206 7
 206:C:\Users\a5116938\Desktop\e2_studio_workspace\EEMBC_final\RX65N_Cloud_Kit\src/tensorflow/lite/kernels/internal\types.h ****     }
 2764                             		.loc 4 206 16 is_stmt 0
 2765 0396 F9 06 41 01             		mov.L	#1, 260[r0]
 2766                             	.LVL282:
 2767                             	.LBE1555:
 2768                             	.LBE1558:
 293:C:\Users\a5116938\Desktop\e2_studio_workspace\EEMBC_final\RX65N_Cloud_Kit\src/tensorflow/lite/kernels/internal\types.h ****       SetDim(i, pad_value);
 2769                             		.loc 4 293 23
 2770 039a 61 31                   		cmp	#3, r1
 2771 039c 12                      		beq	.L174
 294:C:\Users\a5116938\Desktop\e2_studio_workspace\EEMBC_final\RX65N_Cloud_Kit\src/tensorflow/lite/kernels/internal\types.h ****     }
 2772                             		.loc 4 294 7 is_stmt 1
 2773                             	.LVL283:
 2774                             	.LBB1559:
 2775                             	.LBB1556:
 201:C:\Users\a5116938\Desktop\e2_studio_workspace\EEMBC_final\RX65N_Cloud_Kit\src/tensorflow/lite/kernels/internal\types.h ****     TFLITE_DCHECK_LT(i, size_);
 2776                             		.loc 4 201 5
 202:C:\Users\a5116938\Desktop\e2_studio_workspace\EEMBC_final\RX65N_Cloud_Kit\src/tensorflow/lite/kernels/internal\types.h ****     if (size_ > kMaxSmallSize) {
 2777                             		.loc 4 202 5
 203:C:\Users\a5116938\Desktop\e2_studio_workspace\EEMBC_final\RX65N_Cloud_Kit\src/tensorflow/lite/kernels/internal\types.h ****       dims_pointer_[i] = val;
 2778                             		.loc 4 203 5
 206:C:\Users\a5116938\Desktop\e2_studio_workspace\EEMBC_final\RX65N_Cloud_Kit\src/tensorflow/lite/kernels/internal\types.h ****     }
 2779                             		.loc 4 206 7
 206:C:\Users\a5116938\Desktop\e2_studio_workspace\EEMBC_final\RX65N_Cloud_Kit\src/tensorflow/lite/kernels/internal\types.h ****     }
 2780                             		.loc 4 206 16 is_stmt 0
 2781 039d F9 06 42 01             		mov.L	#1, 264[r0]
 2782                             	.LVL284:
 2783                             	.LBE1556:
 2784                             	.LBE1559:
 293:C:\Users\a5116938\Desktop\e2_studio_workspace\EEMBC_final\RX65N_Cloud_Kit\src/tensorflow/lite/kernels/internal\types.h ****       SetDim(i, pad_value);
 2785                             		.loc 4 293 23
 2786 03a1 61 41                   		cmp	#4, r1
 2787 03a3 3B CB 15                		bne	.L119
 2788                             	.LVL285:
 2789                             		.balign 8,3,1
 2790                             	.L174:
 2791                             	.LBE1551:
 2792                             	.LBE1562:
 2793                             	.LBE1565:
 2794                             	.LBE1568:
 2795                             	.LBE1571:
 2796                             	.LBE1574:
 2797                             	.LBE1620:
 2798                             	.LBE1631:
 2799                             	.LBE1642:
 2800                             	.LBE1815:
 2801                             	.LBE2208:
 2802                             	.LBE2268:
 214:C:\Users\a5116938\Desktop\e2_studio_workspace\EEMBC_final\RX65N_Cloud_Kit\src/tensorflow/lite/kernels/internal\types.h ****   }
 2803                             		.loc 4 214 5 is_stmt 1
 194:C:\Users\a5116938\Desktop\e2_studio_workspace\EEMBC_final\RX65N_Cloud_Kit\src/tensorflow/lite/kernels/internal\types.h ****   inline int32_t Dims(int i) const {
 2804                             		.loc 4 194 44
 2805                             	.LBB2269:
 2806                             	.LBB2209:
 2807                             	.LBB1816:
 2808                             	.LBB1643:
 2809                             	.LBB1632:
 2810                             	.LBB1621:
 2811                             	.LBB1575:
 2812                             	.LBB1572:
 2813                             	.LBB1569:
 2814                             	.LBB1566:
 2815                             	.LBB1563:
 2816                             		.loc 4 296 28 is_stmt 0
 2817 03a6 6C 21                   		shll	#2, r1
 2818                             	.LVL286:
 2819                             		.loc 4 296 16
 2820 03a8 75 49 FC                		mov.L	#0xfc, r9
 2821 03ab 4B 09                   		add	r0, r9
 2822 03ad 4B 91                   		add	r9, r1
 2823 03af 72 02 4C 02             		add	#0x24c, r0, r2
 2824 03b3 6C 23                   		shll	#2, r3
 2825                             	.LVL287:
 2826 03b5 7F 8F                   		smovf
 2827                             	.LVL288:
 2828                             	.LBE1563:
 2829                             	.LBE1566:
 2830                             	.LBE1569:
 2831                             	.LBE1572:
 2832                             	.LBE1575:
  46:C:\Users\a5116938\Desktop\e2_studio_workspace\EEMBC_final\RX65N_Cloud_Kit\src/tensorflow/lite/kernels/internal/reference\pad.h ****   TFLITE_DCHECK_LE(op_params.right_padding_count, PadKernelMaxDimensionCount());
 2833                             		.loc 6 46 3
 2834 03b7 CC 63                   		mov.B	[r6], r3
 2835 03b9 61 43                   		cmp	#4, r3
 2836 03bb 2B 05 38 B1 15          		bgt	.L119
  47:C:\Users\a5116938\Desktop\e2_studio_workspace\EEMBC_final\RX65N_Cloud_Kit\src/tensorflow/lite/kernels/internal/reference\pad.h **** 
 2837                             		.loc 6 47 3
 2838 03c0 8D 65                   		mov.B	20[r6], r5
 2839 03c2 61 45                   		cmp	#4, r5
 2840 03c4 2B 05 38 A8 15          		bgt	.L119
 2841                             	.LVL289:
 2842                             	.LBB1576:
  53:C:\Users\a5116938\Desktop\e2_studio_workspace\EEMBC_final\RX65N_Cloud_Kit\src/tensorflow/lite/kernels/internal/reference\pad.h ****   }
 2843                             		.loc 6 53 5
 2844 03c9 F9 06 D6 00             		mov.L	#0, 856[r0]
 2845                             	.LVL290:
 2846 03cd F9 06 D7 00             		mov.L	#0, 860[r0]
 2847                             	.LVL291:
 2848 03d1 F9 06 D8 00             		mov.L	#0, 864[r0]
 2849                             	.LVL292:
 2850 03d5 F9 06 D9 00             		mov.L	#0, 868[r0]
 2851                             	.LVL293:
 2852                             	.LBE1576:
 2853                             	.LBB1577:
  55:C:\Users\a5116938\Desktop\e2_studio_workspace\EEMBC_final\RX65N_Cloud_Kit\src/tensorflow/lite/kernels/internal/reference\pad.h ****     left_padding_copy[i + PadKernelMaxDimensionCount() -
 2854                             		.loc 6 55 21
 2855 03d9 61 03                   		cmp	#0, r3
 2856 03db 2B 17                   		ble	.L179
 2857 03dd 66 41                   		mov.L	#4, r1
 2858 03df 43 31                   		sub	r3, r1
 2859 03e1 71 62 04                		add	#4, r6, r2
 2860 03e4 6C 21                   		shll	#2, r1
 2861 03e6 6C 23                   		shll	#2, r3
 2862 03e8 FB FA 58 03             		mov.L	#0x358, r15
 2863 03ec 4B 0F                   		add	r0, r15
 2864 03ee 4B F1                   		add	r15, r1
 2865 03f0 7F 8F                   		smovf
 2866                             		.balign 8,3,4
 2867                             	.L179:
 2868                             	.LVL294:
 2869                             	.LBE1577:
 2870                             	.LBB1578:
  61:C:\Users\a5116938\Desktop\e2_studio_workspace\EEMBC_final\RX65N_Cloud_Kit\src/tensorflow/lite/kernels/internal/reference\pad.h ****   }
 2871                             		.loc 6 61 5
 2872 03f2 F9 06 D2 00             		mov.L	#0, 840[r0]
 2873                             	.LVL295:
 2874 03f6 F9 06 D3 00             		mov.L	#0, 844[r0]
 2875                             	.LVL296:
 2876 03fa F9 06 D4 00             		mov.L	#0, 848[r0]
 2877                             	.LVL297:
 2878 03fe F9 06 D5 00             		mov.L	#0, 852[r0]
 2879                             	.LVL298:
 2880                             	.LBE1578:
 2881                             	.LBB1579:
  63:C:\Users\a5116938\Desktop\e2_studio_workspace\EEMBC_final\RX65N_Cloud_Kit\src/tensorflow/lite/kernels/internal/reference\pad.h ****     right_padding_copy[i + PadKernelMaxDimensionCount() -
 2882                             		.loc 6 63 21
 2883 0402 61 05                   		cmp	#0, r5
 2884 0404 2B 18                   		ble	.L180
 2885 0406 66 41                   		mov.L	#4, r1
 2886 0408 43 51                   		sub	r5, r1
 2887 040a 71 62 18                		add	#24, r6, r2
 2888 040d 6C 21                   		shll	#2, r1
 2889 040f FD C2 53                		shll	#2, r5, r3
 2890 0412 FB 4A 48 03             		mov.L	#0x348, r4
 2891 0416 4B 04                   		add	r0, r4
 2892 0418 4B 41                   		add	r4, r1
 2893 041a 7F 8F                   		smovf
 2894                             		.balign 8,3,1
 2895                             	.L180:
 2896                             	.LVL299:
 2897                             	.LBE1579:
 2898                             	.LBB1580:
 2899                             	.LBB1581:
 196:C:\Users\a5116938\Desktop\e2_studio_workspace\EEMBC_final\RX65N_Cloud_Kit\src/tensorflow/lite/kernels/internal\types.h ****     TFLITE_DCHECK_LT(i, size_);
 2900                             		.loc 4 196 5 is_stmt 1
 197:C:\Users\a5116938\Desktop\e2_studio_workspace\EEMBC_final\RX65N_Cloud_Kit\src/tensorflow/lite/kernels/internal\types.h ****     return size_ > kMaxSmallSize ? dims_pointer_[i] : dims_[i];
 2901                             		.loc 4 197 5
 2902 041c E5 00 3E EB             		mov.L	248[r0], 940[r0]
 2903 0420 ED 0E EB                		mov.L	940[r0], r14
 2904 0423 61 0E                   		cmp	#0, r14
 2905 0425 2A 05 38 47 15          		ble	.L119
 2906 042a EF E5                   		mov.L	r14, r5
 198:C:\Users\a5116938\Desktop\e2_studio_workspace\EEMBC_final\RX65N_Cloud_Kit\src/tensorflow/lite/kernels/internal\types.h ****   }
 2907                             		.loc 4 198 5
 2908 042c E5 00 3F ED             		mov.L	252[r0], 948[r0]
 198:C:\Users\a5116938\Desktop\e2_studio_workspace\EEMBC_final\RX65N_Cloud_Kit\src/tensorflow/lite/kernels/internal\types.h ****   }
 2909                             		.loc 4 198 34 is_stmt 0
 2910 0430 61 5E                   		cmp	#5, r14
 2911 0432 2A 05 38 98 12          		ble	.L181
 2912 0437 ED 09 ED                		mov.L	948[r0], r9
 2913 043a EC 9F                   		mov.L	[r9], r15
 2914                             	.LVL300:
 2915                             	.LBE1581:
 2916                             	.LBE1580:
 2917                             	.LBB1582:
 2918                             	.LBB1583:
 196:C:\Users\a5116938\Desktop\e2_studio_workspace\EEMBC_final\RX65N_Cloud_Kit\src/tensorflow/lite/kernels/internal\types.h ****     TFLITE_DCHECK_LT(i, size_);
 2919                             		.loc 4 196 5 is_stmt 1
 197:C:\Users\a5116938\Desktop\e2_studio_workspace\EEMBC_final\RX65N_Cloud_Kit\src/tensorflow/lite/kernels/internal\types.h ****     return size_ > kMaxSmallSize ? dims_pointer_[i] : dims_[i];
 2920                             		.loc 4 197 5
 198:C:\Users\a5116938\Desktop\e2_studio_workspace\EEMBC_final\RX65N_Cloud_Kit\src/tensorflow/lite/kernels/internal\types.h ****   }
 2921                             		.loc 4 198 34 is_stmt 0
 2922 043c E5 90 01 E3             		mov.L	4[r9], 908[r0]
 2923                             	.LVL301:
 2924                             	.LBE1583:
 2925                             	.LBE1582:
 2926                             	.LBB1585:
 2927                             	.LBB1586:
 196:C:\Users\a5116938\Desktop\e2_studio_workspace\EEMBC_final\RX65N_Cloud_Kit\src/tensorflow/lite/kernels/internal\types.h ****     TFLITE_DCHECK_LT(i, size_);
 2928                             		.loc 4 196 5 is_stmt 1
 197:C:\Users\a5116938\Desktop\e2_studio_workspace\EEMBC_final\RX65N_Cloud_Kit\src/tensorflow/lite/kernels/internal\types.h ****     return size_ > kMaxSmallSize ? dims_pointer_[i] : dims_[i];
 2929                             		.loc 4 197 5
 198:C:\Users\a5116938\Desktop\e2_studio_workspace\EEMBC_final\RX65N_Cloud_Kit\src/tensorflow/lite/kernels/internal\types.h ****   }
 2930                             		.loc 4 198 34 is_stmt 0
 2931 0440 ED 9E 02                		mov.L	8[r9], r14
 2932                             	.LVL302:
 2933                             	.LBE1586:
 2934                             	.LBE1585:
 2935                             	.LBB1588:
 2936                             	.LBB1589:
 196:C:\Users\a5116938\Desktop\e2_studio_workspace\EEMBC_final\RX65N_Cloud_Kit\src/tensorflow/lite/kernels/internal\types.h ****     TFLITE_DCHECK_LT(i, size_);
 2937                             		.loc 4 196 5 is_stmt 1
 197:C:\Users\a5116938\Desktop\e2_studio_workspace\EEMBC_final\RX65N_Cloud_Kit\src/tensorflow/lite/kernels/internal\types.h ****     return size_ > kMaxSmallSize ? dims_pointer_[i] : dims_[i];
 2938                             		.loc 4 197 5
 198:C:\Users\a5116938\Desktop\e2_studio_workspace\EEMBC_final\RX65N_Cloud_Kit\src/tensorflow/lite/kernels/internal\types.h ****   }
 2939                             		.loc 4 198 34 is_stmt 0
 2940 0443 ED 95 03                		mov.L	12[r9], r5
 2941                             	.LVL303:
 2942                             	.LBE1589:
 2943                             	.LBE1588:
  74:C:\Users\a5116938\Desktop\e2_studio_workspace\EEMBC_final\RX65N_Cloud_Kit\src/tensorflow/lite/kernels/internal/reference\pad.h ****   const int left_h_padding = left_padding_copy[1];
 2944                             		.loc 6 74 13
 2945 0446 E5 00 D6 E5             		mov.L	856[r0], 916[r0]
 2946                             	.LVL304:
  75:C:\Users\a5116938\Desktop\e2_studio_workspace\EEMBC_final\RX65N_Cloud_Kit\src/tensorflow/lite/kernels/internal/reference\pad.h ****   const int left_w_padding = left_padding_copy[2];
 2947                             		.loc 6 75 13
 2948 044a E5 00 D7 E7             		mov.L	860[r0], 924[r0]
 2949                             	.LVL305:
  76:C:\Users\a5116938\Desktop\e2_studio_workspace\EEMBC_final\RX65N_Cloud_Kit\src/tensorflow/lite/kernels/internal/reference\pad.h ****   const int left_d_padding = left_padding_copy[3];
 2950                             		.loc 6 76 13
 2951 044e E5 00 D8 E6             		mov.L	864[r0], 920[r0]
 2952                             	.LVL306:
  77:C:\Users\a5116938\Desktop\e2_studio_workspace\EEMBC_final\RX65N_Cloud_Kit\src/tensorflow/lite/kernels/internal/reference\pad.h **** 
 2953                             		.loc 6 77 13
 2954 0452 E5 00 D9 EC             		mov.L	868[r0], 944[r0]
 2955                             	.LVL307:
  79:C:\Users\a5116938\Desktop\e2_studio_workspace\EEMBC_final\RX65N_Cloud_Kit\src/tensorflow/lite/kernels/internal/reference\pad.h ****   const int right_h_padding = right_padding_copy[1];
 2956                             		.loc 6 79 13
 2957 0456 E5 00 D2 EA             		mov.L	840[r0], 936[r0]
 2958                             	.LVL308:
  80:C:\Users\a5116938\Desktop\e2_studio_workspace\EEMBC_final\RX65N_Cloud_Kit\src/tensorflow/lite/kernels/internal/reference\pad.h ****   const int right_w_padding = right_padding_copy[2];
 2959                             		.loc 6 80 13
 2960 045a ED 0D D3                		mov.L	844[r0], r13
 2961                             	.LVL309:
  81:C:\Users\a5116938\Desktop\e2_studio_workspace\EEMBC_final\RX65N_Cloud_Kit\src/tensorflow/lite/kernels/internal/reference\pad.h ****   const int right_d_padding = right_padding_copy[3];
 2962                             		.loc 6 81 13
 2963 045d ED 04 D4                		mov.L	848[r0], r4
 2964                             	.LVL310:
  82:C:\Users\a5116938\Desktop\e2_studio_workspace\EEMBC_final\RX65N_Cloud_Kit\src/tensorflow/lite/kernels/internal/reference\pad.h **** 
 2965                             		.loc 6 82 13
 2966 0460 ED 03 D5                		mov.L	852[r0], r3
 2967                             	.LVL311:
 2968 0463 EF 91                   		mov.L	r9, r1
 2969                             	.LBB1591:
  88:C:\Users\a5116938\Desktop\e2_studio_workspace\EEMBC_final\RX65N_Cloud_Kit\src/tensorflow/lite/kernels/internal/reference\pad.h ****     for (int out_h = 0; out_h < output_height; ++out_h) {
 2970                             		.loc 6 88 29
 2971 0465 61 0F                   		cmp	#0, r15
 2972 0467 2A 05 38 72 13          		ble	.L184
 2973                             	.LVL312:
 2974                             		.balign 8,3,2
 2975                             	.L183:
 2976 046c ED 02 E3                		mov.L	908[r0], r2
 2977 046f 61 02                   		cmp	#0, r2
 2978 0471 2A 05 38 E0 00          		ble	.L187
 2979 0476 FF 03 35                		sub	r3, r5, r3
 2980                             	.LVL313:
 2981 0479 E7 03 E4                		mov.L	r3, 912[r0]
 2982 047c FD C2 52                		shll	#2, r5, r2
 2983 047f 66 06                   		mov.L	#0, r6
 2984                             	.LVL314:
 2985                             	.LBB1592:
 2986                             	.LBB1593:
 2987                             	.LBB1594:
  95:C:\Users\a5116938\Desktop\e2_studio_workspace\EEMBC_final\RX65N_Cloud_Kit\src/tensorflow/lite/kernels/internal/reference\pad.h ****               out_w < left_w_padding ||
 2988                             		.loc 6 95 38
 2989 0481 ED 03 E3                		mov.L	908[r0], r3
 2990 0484 FF 0D D3                		sub	r13, r3, r13
 2991                             	.LVL315:
 2992 0487 ED 09 E4                		mov.L	912[r0], r9
 2993 048a FC 17 59                		min	r5, r9
 2994 048d E7 09 E9                		mov.L	r9, 932[r0]
  97:C:\Users\a5116938\Desktop\e2_studio_workspace\EEMBC_final\RX65N_Cloud_Kit\src/tensorflow/lite/kernels/internal/reference\pad.h ****               out_d < left_d_padding ||
 2995                             		.loc 6 97 37
 2996 0490 FF 04 4E                		sub	r4, r14, r4
 2997                             	.LVL316:
 2998 0493 E7 04 E8                		mov.L	r4, 928[r0]
 2999                             	.LVL317:
 3000 0496 EF 00                   		.balign 8,3,2
 3001                             	.L207:
  93:C:\Users\a5116938\Desktop\e2_studio_workspace\EEMBC_final\RX65N_Cloud_Kit\src/tensorflow/lite/kernels/internal/reference\pad.h ****               out_h < left_h_padding ||
 3002                             		.loc 6 93 37
 3003 0498 ED 03 EA                		mov.L	936[r0], r3
 3004 049b FF 09 3F                		sub	r3, r15, r9
 3005                             	.LBE1594:
 3006                             	.LBE1593:
  89:C:\Users\a5116938\Desktop\e2_studio_workspace\EEMBC_final\RX65N_Cloud_Kit\src/tensorflow/lite/kernels/internal/reference\pad.h ****       for (int out_w = 0; out_w < output_width; ++out_w) {
 3007                             		.loc 6 89 14
 3008 049e 66 01                   		mov.L	#0, r1
 3009                             	.LVL318:
 3010                             		.balign 8,3,1
 3011                             	.L206:
 3012                             	.LBB1598:
  90:C:\Users\a5116938\Desktop\e2_studio_workspace\EEMBC_final\RX65N_Cloud_Kit\src/tensorflow/lite/kernels/internal/reference\pad.h ****         for (int out_d = 0; out_d < output_depth; ++out_d) {
 3013                             		.loc 6 90 33
 3014 04a0 61 0E                   		cmp	#0, r14
 3015 04a2 2A 05 38 9C 00          		ble	.L188
  90:C:\Users\a5116938\Desktop\e2_studio_workspace\EEMBC_final\RX65N_Cloud_Kit\src/tensorflow/lite/kernels/internal/reference\pad.h ****         for (int out_d = 0; out_d < output_depth; ++out_d) {
 3016                             		.loc 6 90 16
 3017 04a7 66 0B                   		mov.L	#0, r11
 3018                             	.LVL319:
 3019                             		.balign 8,3,1
 3020                             	.L205:
 3021                             	.LBB1595:
  91:C:\Users\a5116938\Desktop\e2_studio_workspace\EEMBC_final\RX65N_Cloud_Kit\src/tensorflow/lite/kernels/internal/reference\pad.h ****           if (out_b < left_b_padding ||
 3022                             		.loc 6 91 35
 3023 04a9 61 05                   		cmp	#0, r5
 3024 04ab 2A 05 38 8B 00          		ble	.L189
 3025 04b0 ED 04 E5                		mov.L	916[r0], r4
 3026 04b3 47 64                   		cmp	r6, r4
 3027 04b5 2B 05 38 5F 08          		bgt	.L451
 3028 04ba ED 03 E8                		mov.L	928[r0], r3
 3029 04bd 47 B3                   		cmp	r11, r3
 3030 04bf 2A 05 38 43 07          		ble	.L191
 3031 04c4 47 69                   		cmp	r6, r9
 3032 04c6 2A 05 38 2D 07          		ble	.L452
 3033 04cb 47 1D                   		cmp	r1, r13
 3034 04cd 2A 05 38 18 07          		ble	.L453
 3035 04d2 ED 04 E4                		mov.L	912[r0], r4
 3036 04d5 61 04                   		cmp	#0, r4
 3037 04d7 2A 05 38 07 07          		ble	.L454
  97:C:\Users\a5116938\Desktop\e2_studio_workspace\EEMBC_final\RX65N_Cloud_Kit\src/tensorflow/lite/kernels/internal/reference\pad.h ****               out_d < left_d_padding ||
 3038                             		.loc 6 97 37
 3039 04dc EF 7C                   		mov.L	r7, r12
  91:C:\Users\a5116938\Desktop\e2_studio_workspace\EEMBC_final\RX65N_Cloud_Kit\src/tensorflow/lite/kernels/internal/reference\pad.h ****           if (out_b < left_b_padding ||
 3040                             		.loc 6 91 18
 3041 04de 66 04                   		mov.L	#0, r4
 3042 04e0 EF 98                   		mov.L	r9, r8
 3043 04e2 E7 07 EE                		mov.L	r7, 952[r0]
 3044 04e5 2E 26                   		bra	.L196
 3045                             	.LVL320:
 3046                             	.L924:
  95:C:\Users\a5116938\Desktop\e2_studio_workspace\EEMBC_final\RX65N_Cloud_Kit\src/tensorflow/lite/kernels/internal/reference\pad.h ****               out_w < left_w_padding ||
 3047                             		.loc 6 95 56
 3048 04e7 ED 09 E6                		mov.L	920[r0], r9
 3049 04ea 47 B9                   		cmp	r11, r9
 3050 04ec 2A 29                   		bgt	.L457
  97:C:\Users\a5116938\Desktop\e2_studio_workspace\EEMBC_final\RX65N_Cloud_Kit\src/tensorflow/lite/kernels/internal/reference\pad.h ****               out_d < left_d_padding ||
 3051                             		.loc 6 97 55
 3052 04ee ED 07 EC                		mov.L	944[r0], r7
 3053 04f1 47 74                   		cmp	r7, r4
 3054 04f3 29 22                   		blt	.L457
 3055                             	.LVL321:
 3056                             		.loc 6 102 13
 3057 04f5 ED 07 E2                		mov.L	904[r0], r7
 3058 04f8 FD 2A 79                		mov.L	[r7+], r9
 3059 04fb E7 07 E2                		mov.L	r7, 904[r0]
 3060                             	.LVL322:
 3061 04fe E3 C9                   		mov.L	r9, [r12]
 3062                             	.LVL323:
  91:C:\Users\a5116938\Desktop\e2_studio_workspace\EEMBC_final\RX65N_Cloud_Kit\src/tensorflow/lite/kernels/internal/reference\pad.h ****           if (out_b < left_b_padding ||
 3063                             		.loc 6 91 9
 3064 0500 62 14                   		add	#1, r4
 3065                             	.LVL324:
 3066 0502 EF 3C                   		mov.L	r3, r12
  91:C:\Users\a5116938\Desktop\e2_studio_workspace\EEMBC_final\RX65N_Cloud_Kit\src/tensorflow/lite/kernels/internal/reference\pad.h ****           if (out_b < left_b_padding ||
 3067                             		.loc 6 91 35
 3068 0504 ED 09 E9                		mov.L	932[r0], r9
 3069 0507 47 94                   		cmp	r9, r4
 3070 0509 28 1B                   		bge	.L923
 3071                             	.LVL325:
 3072                             		.balign 8,3,2
 3073                             	.L196:
 3074 050b 71 C3 04                		add	#4, r12, r3
  93:C:\Users\a5116938\Desktop\e2_studio_workspace\EEMBC_final\RX65N_Cloud_Kit\src/tensorflow/lite/kernels/internal/reference\pad.h ****               out_h < left_h_padding ||
 3075                             		.loc 6 93 55
 3076 050e ED 07 E7                		mov.L	924[r0], r7
 3077 0511 47 17                   		cmp	r1, r7
 3078 0513 2B D4                   		ble	.L924
 3079                             		.balign 8,3,1
 3080                             	.L457:
 100:C:\Users\a5116938\Desktop\e2_studio_workspace\EEMBC_final\RX65N_Cloud_Kit\src/tensorflow/lite/kernels/internal/reference\pad.h ****           } else {
 3081                             		.loc 6 100 13
 3082 0515 EF A9                   		mov.L	r10, r9
 3083 0517 E3 C9                   		mov.L	r9, [r12]
 3084                             	.LVL326:
  91:C:\Users\a5116938\Desktop\e2_studio_workspace\EEMBC_final\RX65N_Cloud_Kit\src/tensorflow/lite/kernels/internal/reference\pad.h ****           if (out_b < left_b_padding ||
 3085                             		.loc 6 91 9
 3086 0519 62 14                   		add	#1, r4
 3087                             	.LVL327:
 3088 051b EF 3C                   		mov.L	r3, r12
  91:C:\Users\a5116938\Desktop\e2_studio_workspace\EEMBC_final\RX65N_Cloud_Kit\src/tensorflow/lite/kernels/internal/reference\pad.h ****           if (out_b < left_b_padding ||
 3089                             		.loc 6 91 35
 3090 051d ED 09 E9                		mov.L	932[r0], r9
 3091 0520 47 94                   		cmp	r9, r4
 3092 0522 29 E9                   		blt	.L196
 3093                             	.LVL328:
 3094                             		.balign 8,3,1
 3095                             	.L923:
 3096 0524 EF 89                   		mov.L	r8, r9
 3097 0526 ED 07 EE                		mov.L	952[r0], r7
 3098 0529 47 54                   		cmp	r5, r4
 3099 052b 28 0B                   		bge	.L899
 3100                             	.LVL329:
 3101                             		.balign 8,3,1
 3102                             	.L199:
  91:C:\Users\a5116938\Desktop\e2_studio_workspace\EEMBC_final\RX65N_Cloud_Kit\src/tensorflow/lite/kernels/internal/reference\pad.h ****           if (out_b < left_b_padding ||
 3103                             		.loc 6 91 9
 3104 052d 62 14                   		add	#1, r4
 3105                             	.LVL330:
 3106 052f FD 22 3A                		mov.L	r10, [r3+]
 3107                             	.LVL331:
  91:C:\Users\a5116938\Desktop\e2_studio_workspace\EEMBC_final\RX65N_Cloud_Kit\src/tensorflow/lite/kernels/internal/reference\pad.h ****           if (out_b < left_b_padding ||
 3108                             		.loc 6 91 35
 3109 0532 47 45                   		cmp	r4, r5
 3110 0534 2A F9                   		bgt	.L199
 3111                             	.LVL332:
 3112                             		.balign 8,3,1
 3113                             	.L899:
 3114 0536 4B 27                   		add	r2, r7
 3115                             	.LVL333:
 3116                             		.balign 8,3,1
 3117                             	.L189:
 3118                             	.LBE1595:
  90:C:\Users\a5116938\Desktop\e2_studio_workspace\EEMBC_final\RX65N_Cloud_Kit\src/tensorflow/lite/kernels/internal/reference\pad.h ****         for (int out_d = 0; out_d < output_depth; ++out_d) {
 3119                             		.loc 6 90 7
 3120 0538 62 1B                   		add	#1, r11
 3121                             	.LVL334:
  90:C:\Users\a5116938\Desktop\e2_studio_workspace\EEMBC_final\RX65N_Cloud_Kit\src/tensorflow/lite/kernels/internal/reference\pad.h ****         for (int out_d = 0; out_d < output_depth; ++out_d) {
 3122                             		.loc 6 90 33
 3123 053a 47 EB                   		cmp	r14, r11
 3124 053c 3B 6D FF                		bne	.L205
 3125                             	.LVL335:
 3126 053f 03                      		.balign 8,3,1
 3127                             	.L188:
 3128                             	.LBE1598:
  89:C:\Users\a5116938\Desktop\e2_studio_workspace\EEMBC_final\RX65N_Cloud_Kit\src/tensorflow/lite/kernels/internal/reference\pad.h ****       for (int out_w = 0; out_w < output_width; ++out_w) {
 3129                             		.loc 6 89 5
 3130 0540 62 11                   		add	#1, r1
 3131                             	.LVL336:
  89:C:\Users\a5116938\Desktop\e2_studio_workspace\EEMBC_final\RX65N_Cloud_Kit\src/tensorflow/lite/kernels/internal/reference\pad.h ****       for (int out_w = 0; out_w < output_width; ++out_w) {
 3132                             		.loc 6 89 31
 3133 0542 ED 03 E3                		mov.L	908[r0], r3
 3134 0545 47 31                   		cmp	r3, r1
 3135 0547 3B 59 FF                		bne	.L206
 3136                             	.LBE1592:
  88:C:\Users\a5116938\Desktop\e2_studio_workspace\EEMBC_final\RX65N_Cloud_Kit\src/tensorflow/lite/kernels/internal/reference\pad.h ****     for (int out_h = 0; out_h < output_height; ++out_h) {
 3137                             		.loc 6 88 3
 3138 054a 62 16                   		add	#1, r6
 3139                             	.LVL337:
  88:C:\Users\a5116938\Desktop\e2_studio_workspace\EEMBC_final\RX65N_Cloud_Kit\src/tensorflow/lite/kernels/internal/reference\pad.h ****     for (int out_h = 0; out_h < output_height; ++out_h) {
 3140                             		.loc 6 88 29
 3141 054c 47 F6                   		cmp	r15, r6
 3142 054e 28 05 38 48 FF          		blt	.L207
 3143                             	.LVL338:
 3144                             		.balign 8,3,2
 3145                             	.L187:
 3146                             	.LBE1591:
 3147                             	.LBB1603:
 3148                             	.LBB1604:
 185:C:\Users\a5116938\Desktop\e2_studio_workspace\EEMBC_final\RX65N_Cloud_Kit\src/tensorflow/lite/kernels/internal\types.h **** #ifdef TF_LITE_STATIC_MEMORY
 3149                             		.loc 4 185 5 is_stmt 1
 3150 0553 ED 04 EB                		mov.L	940[r0], r4
 3151 0556 61 54                   		cmp	#5, r4
 3152 0558 2B 0A                   		ble	.L186
 189:C:\Users\a5116938\Desktop\e2_studio_workspace\EEMBC_final\RX65N_Cloud_Kit\src/tensorflow/lite/kernels/internal\types.h **** #endif  // TF_LITE_STATIC_MEMORY
 3153                             		.loc 4 189 7
 189:C:\Users\a5116938\Desktop\e2_studio_workspace\EEMBC_final\RX65N_Cloud_Kit\src/tensorflow/lite/kernels/internal\types.h **** #endif  // TF_LITE_STATIC_MEMORY
 3154                             		.loc 4 189 29 is_stmt 0
 3155 055a ED 0E ED                		mov.L	948[r0], r14
 3156                             	.LVL339:
 3157 055d 61 0E                   		cmp	#0, r14
 3158 055f 3B 7A 12                		bne	.L925
 3159                             	.LVL340:
 3160                             		.balign 8,3,2
 3161                             	.L186:
 3162                             	.LBE1604:
 3163                             	.LBE1603:
 3164                             	.LBB1606:
 3165                             	.LBB1607:
 185:C:\Users\a5116938\Desktop\e2_studio_workspace\EEMBC_final\RX65N_Cloud_Kit\src/tensorflow/lite/kernels/internal\types.h **** #ifdef TF_LITE_STATIC_MEMORY
 3166                             		.loc 4 185 5 is_stmt 1
 3167 0562 ED 07 44                		mov.L	272[r0], r7
 3168                             	.LVL341:
 3169 0565 61 57                   		cmp	#5, r7
 3170 0567 2B 0C                   		ble	.L209
 189:C:\Users\a5116938\Desktop\e2_studio_workspace\EEMBC_final\RX65N_Cloud_Kit\src/tensorflow/lite/kernels/internal\types.h **** #endif  // TF_LITE_STATIC_MEMORY
 3171                             		.loc 4 189 7
 189:C:\Users\a5116938\Desktop\e2_studio_workspace\EEMBC_final\RX65N_Cloud_Kit\src/tensorflow/lite/kernels/internal\types.h **** #endif  // TF_LITE_STATIC_MEMORY
 3172                             		.loc 4 189 16 is_stmt 0
 3173 0569 ED 01 45                		mov.L	276[r0], r1
 189:C:\Users\a5116938\Desktop\e2_studio_workspace\EEMBC_final\RX65N_Cloud_Kit\src/tensorflow/lite/kernels/internal\types.h **** #endif  // TF_LITE_STATIC_MEMORY
 3174                             		.loc 4 189 29
 3175 056c 61 01                   		cmp	#0, r1
 3176 056e 15                      		beq	.L209
 189:C:\Users\a5116938\Desktop\e2_studio_workspace\EEMBC_final\RX65N_Cloud_Kit\src/tensorflow/lite/kernels/internal\types.h **** #endif  // TF_LITE_STATIC_MEMORY
 3177                             		.loc 4 189 16
 3178 056f 05 00 00 00             		bsr	__ZdaPv
 3179                             	.LVL342:
 3180                             		.balign 8,3,2
 3181                             	.L209:
 3182                             	.LBE1607:
 3183                             	.LBE1606:
 3184                             	.LBE1621:
 3185                             	.LBE1632:
 3186                             	.LBE1643:
 3187                             	.LBB1644:
 3188                             	.LBB1645:
 185:C:\Users\a5116938\Desktop\e2_studio_workspace\EEMBC_final\RX65N_Cloud_Kit\src/tensorflow/lite/kernels/internal\types.h **** #ifdef TF_LITE_STATIC_MEMORY
 3189                             		.loc 4 185 5 is_stmt 1
 3190 0573 ED 07 92                		mov.L	584[r0], r7
 3191 0576 61 57                   		cmp	#5, r7
 3192 0578 2B 0C                   		ble	.L210
 189:C:\Users\a5116938\Desktop\e2_studio_workspace\EEMBC_final\RX65N_Cloud_Kit\src/tensorflow/lite/kernels/internal\types.h **** #endif  // TF_LITE_STATIC_MEMORY
 3193                             		.loc 4 189 7
 189:C:\Users\a5116938\Desktop\e2_studio_workspace\EEMBC_final\RX65N_Cloud_Kit\src/tensorflow/lite/kernels/internal\types.h **** #endif  // TF_LITE_STATIC_MEMORY
 3194                             		.loc 4 189 16 is_stmt 0
 3195 057a ED 01 93                		mov.L	588[r0], r1
 189:C:\Users\a5116938\Desktop\e2_studio_workspace\EEMBC_final\RX65N_Cloud_Kit\src/tensorflow/lite/kernels/internal\types.h **** #endif  // TF_LITE_STATIC_MEMORY
 3196                             		.loc 4 189 29
 3197 057d 61 01                   		cmp	#0, r1
 3198 057f 15                      		beq	.L210
 189:C:\Users\a5116938\Desktop\e2_studio_workspace\EEMBC_final\RX65N_Cloud_Kit\src/tensorflow/lite/kernels/internal\types.h **** #endif  // TF_LITE_STATIC_MEMORY
 3199                             		.loc 4 189 16
 3200 0580 05 00 00 00             		bsr	__ZdaPv
 3201                             	.LVL343:
 3202                             		.balign 8,3,2
 3203                             	.L210:
 3204                             	.LBE1645:
 3205                             	.LBE1644:
 3206                             	.LBB1646:
 3207                             	.LBB1647:
 185:C:\Users\a5116938\Desktop\e2_studio_workspace\EEMBC_final\RX65N_Cloud_Kit\src/tensorflow/lite/kernels/internal\types.h **** #ifdef TF_LITE_STATIC_MEMORY
 3208                             		.loc 4 185 5 is_stmt 1
 3209 0584 ED 07 98                		mov.L	608[r0], r7
 3210 0587 61 57                   		cmp	#5, r7
 3211 0589 2A 05 38 4F FD          		ble	.L435
 189:C:\Users\a5116938\Desktop\e2_studio_workspace\EEMBC_final\RX65N_Cloud_Kit\src/tensorflow/lite/kernels/internal\types.h **** #endif  // TF_LITE_STATIC_MEMORY
 3212                             		.loc 4 189 7
 189:C:\Users\a5116938\Desktop\e2_studio_workspace\EEMBC_final\RX65N_Cloud_Kit\src/tensorflow/lite/kernels/internal\types.h **** #endif  // TF_LITE_STATIC_MEMORY
 3213                             		.loc 4 189 16 is_stmt 0
 3214 058e ED 01 99                		mov.L	612[r0], r1
 189:C:\Users\a5116938\Desktop\e2_studio_workspace\EEMBC_final\RX65N_Cloud_Kit\src/tensorflow/lite/kernels/internal\types.h **** #endif  // TF_LITE_STATIC_MEMORY
 3215                             		.loc 4 189 29
 3216 0591 61 01                   		cmp	#0, r1
 3217 0593 3A 47 FD                		beq	.L435
 3218                             	.LBE1647:
 3219                             	.LBE1646:
 3220                             	.LBE1816:
 3221                             	.LBB1817:
 3222                             	.LBB1359:
 3223                             	.LBB1353:
 189:C:\Users\a5116938\Desktop\e2_studio_workspace\EEMBC_final\RX65N_Cloud_Kit\src/tensorflow/lite/kernels/internal\types.h **** #endif  // TF_LITE_STATIC_MEMORY
 3224                             		.loc 4 189 16
 3225 0596 05 00 00 00             		bsr	__ZdaPv
 3226                             	.LVL344:
 3227 059a 38 40 FD                		bra	.L435
 3228                             	.LVL345:
 3229                             	.L916:
 3230                             	.LBE1353:
 3231                             	.LBE1359:
 3232                             	.LBE1817:
 3233                             	.LBE2209:
 3234                             	.LBE2269:
  41:C:\Users\a5116938\Desktop\e2_studio_workspace\EEMBC_final\RX65N_Cloud_Kit\src/tensorflow/lite/micro/kernels\kernel_util.h **** }
 3235                             		.loc 5 41 3 is_stmt 1
 3236                             	.LBB2270:
 3237                             	.LBB2271:
 3238                             	.LBB2272:
  33:C:\Users\a5116938\Desktop\e2_studio_workspace\EEMBC_final\RX65N_Cloud_Kit\src/tensorflow/lite/micro/kernels\kernel_util.h ****   TFLITE_DCHECK(node != nullptr);
 3239                             		.loc 5 33 3
  34:C:\Users\a5116938\Desktop\e2_studio_workspace\EEMBC_final\RX65N_Cloud_Kit\src/tensorflow/lite/micro/kernels\kernel_util.h ****   return context->GetEvalTensor(context, node->inputs->data[index]);
 3240                             		.loc 5 34 3
  35:C:\Users\a5116938\Desktop\e2_studio_workspace\EEMBC_final\RX65N_Cloud_Kit\src/tensorflow/lite/micro/kernels\kernel_util.h **** }
 3241                             		.loc 5 35 3
  35:C:\Users\a5116938\Desktop\e2_studio_workspace\EEMBC_final\RX65N_Cloud_Kit\src/tensorflow/lite/micro/kernels\kernel_util.h **** }
 3242                             		.loc 5 35 32 is_stmt 0
 3243 059d A8 DA                   		mov.L	12[r5], r2
 3244 059f ED A5 15                		mov.L	84[r10], r5
 3245 05a2 EF A1                   		mov.L	r10, r1
 3246                             	.LVL346:
 3247 05a4 7F 15                   		jsr	r5
 3248                             	.LVL347:
 3249 05a6 EF 1C                   		mov.L	r1, r12
 3250                             	.LVL348:
 3251                             	.LBE2272:
 3252                             	.LBE2271:
 3253                             	.LBE2270:
 145:../src/tensorflow/lite/micro/kernels/pad.cc ****       tflite::micro::GetEvalOutput(context, node, /*index=*/0);
 3254                             		.loc 1 145 3 is_stmt 1
 3255                             	.LBB2273:
 3256                             	.LBB1037:
  47:C:\Users\a5116938\Desktop\e2_studio_workspace\EEMBC_final\RX65N_Cloud_Kit\src/tensorflow/lite/micro/kernels\kernel_util.h ****   TFLITE_DCHECK(node != nullptr);
 3257                             		.loc 5 47 3
  48:C:\Users\a5116938\Desktop\e2_studio_workspace\EEMBC_final\RX65N_Cloud_Kit\src/tensorflow/lite/micro/kernels\kernel_util.h ****   return context->GetEvalTensor(context, node->outputs->data[index]);
 3258                             		.loc 5 48 3
  49:C:\Users\a5116938\Desktop\e2_studio_workspace\EEMBC_final\RX65N_Cloud_Kit\src/tensorflow/lite/micro/kernels\kernel_util.h **** }
 3259                             		.loc 5 49 3
  49:C:\Users\a5116938\Desktop\e2_studio_workspace\EEMBC_final\RX65N_Cloud_Kit\src/tensorflow/lite/micro/kernels\kernel_util.h **** }
 3260                             		.loc 5 49 32 is_stmt 0
 3261 05a8 A8 7D                   		mov.L	4[r7], r5
 3262 05aa ED A7 15                		mov.L	84[r10], r7
 3263                             	.LVL349:
 3264 05ad EF A1                   		mov.L	r10, r1
 3265                             	.LVL350:
 3266 05af A8 5A                   		mov.L	4[r5], r2
 3267 05b1 7F 17                   		jsr	r7
 3268                             	.LVL351:
 3269 05b3 EF 17                   		mov.L	r1, r7
 3270                             	.LVL352:
 3271                             	.LBE1037:
 3272                             	.LBE2273:
 148:../src/tensorflow/lite/micro/kernels/pad.cc ****     case kTfLiteFloat32: {
 3273                             		.loc 1 148 3 is_stmt 1
 3274                             	.LBB2274:
 148:../src/tensorflow/lite/micro/kernels/pad.cc ****     case kTfLiteFloat32: {
 3275                             		.loc 1 148 18 is_stmt 0
 3276 05b5 ED B1 02                		mov.L	8[r11], r1
 3277                             	.LVL353:
 148:../src/tensorflow/lite/micro/kernels/pad.cc ****     case kTfLiteFloat32: {
 3278                             		.loc 1 148 3
 3279 05b8 61 21                   		cmp	#2, r1
 3280 05ba 3A 3D 12                		beq	.L121
 3281 05bd 24 13                   		bgtu	.L122
 3282 05bf 61 11                   		cmp	#1, r1
 3283 05c1 3B 22 FD                		bne	.L124
 3284                             	.LBB2210:
 149:../src/tensorflow/lite/micro/kernels/pad.cc ****       float pad_value =
 3285                             		.loc 1 149 5 is_stmt 1
 149:../src/tensorflow/lite/micro/kernels/pad.cc ****       float pad_value =
 3286                             		.loc 1 149 26
 3287                             	.LBB1818:
 150:../src/tensorflow/lite/micro/kernels/pad.cc ****           constant_values == nullptr
 3288                             		.loc 1 150 7
 152:../src/tensorflow/lite/micro/kernels/pad.cc ****               : *tflite::micro::GetTensorData<float>(constant_values);
 3289                             		.loc 1 152 15 is_stmt 0
 3290 05c4 61 0C                   		cmp	#0, r12
 3291 05c6 3A 35 FD                		beq	.L496
 3292 05c9 EC CA                   		mov.L	[r12], r10
 3293 05cb EC AA                   		mov.L	[r10], r10
 3294 05cd 38 33 FD                		bra	.L127
 3295                             	.L122:
 3296                             	.LBE1818:
 3297                             	.LBE2210:
 148:../src/tensorflow/lite/micro/kernels/pad.cc ****     case kTfLiteFloat32: {
 3298                             		.loc 1 148 3
 3299 05d0 61 31                   		cmp	#3, r1
 3300 05d2 3A 46 11                		beq	.L125
 3301 05d5 61 91                   		cmp	#9, r1
 3302 05d7 3B 0C FD                		bne	.L124
 3303                             	.LBB2211:
 187:../src/tensorflow/lite/micro/kernels/pad.cc ****       int8_t pad_value;
 3304                             		.loc 1 187 5 is_stmt 1
 187:../src/tensorflow/lite/micro/kernels/pad.cc ****       int8_t pad_value;
 3305                             		.loc 1 187 23
 3306                             	.LBB1819:
 188:../src/tensorflow/lite/micro/kernels/pad.cc ****       if (constant_values == nullptr) {
 3307                             		.loc 1 188 7
 189:../src/tensorflow/lite/micro/kernels/pad.cc ****         pad_value = static_cast<uint8_t>(data->output_zero_point);
 3308                             		.loc 1 189 7
 3309 05da 61 0C                   		cmp	#0, r12
 3310 05dc 3A 74 FA                		beq	.L438
 192:../src/tensorflow/lite/micro/kernels/pad.cc ****       }
 3311                             		.loc 1 192 9
 192:../src/tensorflow/lite/micro/kernels/pad.cc ****       }
 3312                             		.loc 1 192 21 is_stmt 0
 3313 05df EC CA                   		mov.L	[r12], r10
 3314 05e1 CC AA                   		mov.B	[r10], r10
 3315                             	.LVL354:
 3316 05e3 38 70 FA                		bra	.L304
 3317                             	.LVL355:
 3318                             	.L437:
 3319                             	.LBE1819:
 3320                             	.LBB1820:
 170:../src/tensorflow/lite/micro/kernels/pad.cc ****       } else {
 3321                             		.loc 1 170 9 is_stmt 1
 170:../src/tensorflow/lite/micro/kernels/pad.cc ****       } else {
 3322                             		.loc 1 170 19 is_stmt 0
 3323 05e6 CD 6A 2C                		mov.B	44[r6], r10
 3324                             	.LVL356:
 3325                             		.balign 8,3,3
 3326                             	.L213:
 174:../src/tensorflow/lite/micro/kernels/pad.cc ****         reference_ops::PadImageStyle(
 3327                             		.loc 1 174 7 is_stmt 1
 3328 05e9 59 65 28                		movu.B	40[r6], r5
 3329 05ec 61 15                   		cmp	#1, r5
 3330 05ee 3A 13 0D                		beq	.L926
 181:../src/tensorflow/lite/micro/kernels/pad.cc ****                            tflite::micro::GetTensorData<uint8_t>(input),
 3331                             		.loc 1 181 9
 181:../src/tensorflow/lite/micro/kernels/pad.cc ****                            tflite::micro::GetTensorData<uint8_t>(input),
 3332                             		.loc 1 181 71 is_stmt 0
 3333 05f1 72 0F 00 02             		add	#0x200, r0, r15
 3334 05f5 EF B1                   		mov.L	r11, r1
 3335 05f7 05 00 00 00             		bsr	__ZN6tflite5micro14GetTensorShapeEPK16TfLiteEvalTensor
 3336                             	.LVL357:
 183:../src/tensorflow/lite/micro/kernels/pad.cc ****                            tflite::micro::GetTensorData<uint8_t>(output));
 3337                             		.loc 1 183 69
 3338 05fb 72 0F E8 01             		add	#0x1e8, r0, r15
 3339 05ff EF 71                   		mov.L	r7, r1
 3340                             	.LBB1821:
 3341                             	.LBB1822:
 3342                             		.loc 5 62 53
 3343 0601 E4 B0 ED                		mov.L	[r11], 948[r0]
 3344                             	.LVL358:
 3345                             	.LBE1822:
 3346                             	.LBE1821:
 183:../src/tensorflow/lite/micro/kernels/pad.cc ****                            tflite::micro::GetTensorData<uint8_t>(output));
 3347                             		.loc 1 183 69
 3348 0604 05 00 00 00             		bsr	__ZN6tflite5micro14GetTensorShapeEPK16TfLiteEvalTensor
 3349                             	.LVL359:
 3350                             	.LBB1823:
 3351                             	.LBB1824:
  55:C:\Users\a5116938\Desktop\e2_studio_workspace\EEMBC_final\RX65N_Cloud_Kit\src/tensorflow/lite/micro/kernels\kernel_util.h **** }
 3352                             		.loc 5 55 28
 3353 0608 61 07                   		cmp	#0, r7
 3354 060a 13                      		beq	.L259
 3355 060b EC 77                   		mov.L	[r7], r7
 3356                             	.LVL360:
 3357                             		.balign 8,3,2
 3358                             	.L259:
 3359                             	.LBE1824:
 3360                             	.LBE1823:
 3361                             	.LBE1820:
 3362                             	.LBE2211:
 3363                             	.LBE2274:
 262:C:\Users\a5116938\Desktop\e2_studio_workspace\EEMBC_final\RX65N_Cloud_Kit\src/tensorflow/lite/kernels/internal\types.h ****   }
 3364                             		.loc 4 262 5 is_stmt 1
 3365                             	.LBB2275:
 3366                             	.LBB2212:
 3367                             	.LBB2122:
 3368                             	.LBB1825:
 3369                             	.LBB1826:
 3370                             	.LBB1827:
 3371                             	.LBB1828:
 3372                             	.LBB1829:
 3373                             	.LBB1830:
 3374                             	.LBB1831:
 3375                             	.LBB1832:
 290:C:\Users\a5116938\Desktop\e2_studio_workspace\EEMBC_final\RX65N_Cloud_Kit\src/tensorflow/lite/kernels/internal\types.h ****     Resize(new_shape_size);
 3376                             		.loc 4 290 5 is_stmt 0
 3377 060d ED 03 80                		mov.L	512[r0], r3
 3378                             	.LBE1832:
 287:C:\Users\a5116938\Desktop\e2_studio_workspace\EEMBC_final\RX65N_Cloud_Kit\src/tensorflow/lite/kernels/internal\types.h ****     // If the following check fails, it is likely because a 4D-only kernel is
 3379                             		.loc 4 287 16
 3380 0610 F9 06 2C 00             		mov.L	#0, 176[r0]
 3381                             	.LBB1844:
 290:C:\Users\a5116938\Desktop\e2_studio_workspace\EEMBC_final\RX65N_Cloud_Kit\src/tensorflow/lite/kernels/internal\types.h ****     Resize(new_shape_size);
 3382                             		.loc 4 290 5 is_stmt 1
 3383                             	.LVL361:
 3384                             	.LBE1844:
 3385                             	.LBE1831:
 3386                             	.LBE1830:
 3387                             	.LBE1829:
 3388                             	.LBE1828:
 3389                             	.LBE1827:
 3390                             	.LBE1826:
 3391                             	.LBE1825:
 3392                             	.LBE2122:
 3393                             	.LBE2212:
 3394                             	.LBE2275:
 194:C:\Users\a5116938\Desktop\e2_studio_workspace\EEMBC_final\RX65N_Cloud_Kit\src/tensorflow/lite/kernels/internal\types.h ****   inline int32_t Dims(int i) const {
 3395                             		.loc 4 194 44
 3396                             	.LBB2276:
 3397                             	.LBB2213:
 3398                             	.LBB2123:
 3399                             	.LBB1950:
 3400                             	.LBB1940:
 3401                             	.LBB1930:
 3402                             	.LBB1857:
 3403                             	.LBB1854:
 3404                             	.LBB1851:
 3405                             	.LBB1848:
 3406                             	.LBB1845:
 290:C:\Users\a5116938\Desktop\e2_studio_workspace\EEMBC_final\RX65N_Cloud_Kit\src/tensorflow/lite/kernels/internal\types.h ****     Resize(new_shape_size);
 3407                             		.loc 4 290 5 is_stmt 0
 3408 0614 61 43                   		cmp	#4, r3
 3409 0616 2B 05 38 56 13          		bgt	.L119
 291:C:\Users\a5116938\Desktop\e2_studio_workspace\EEMBC_final\RX65N_Cloud_Kit\src/tensorflow/lite/kernels/internal\types.h ****     const int size_increase = new_shape_size - shape.DimensionsCount();
 3410                             		.loc 4 291 5 is_stmt 1
 3411                             	.LVL362:
 3412                             	.LBB1833:
 3413                             	.LBB1834:
 220:C:\Users\a5116938\Desktop\e2_studio_workspace\EEMBC_final\RX65N_Cloud_Kit\src/tensorflow/lite/kernels/internal\types.h **** #ifdef TF_LITE_STATIC_MEMORY
 3414                             		.loc 4 220 5
 227:C:\Users\a5116938\Desktop\e2_studio_workspace\EEMBC_final\RX65N_Cloud_Kit\src/tensorflow/lite/kernels/internal\types.h ****     if (dimensions_count > kMaxSmallSize) {
 3415                             		.loc 4 227 5
 227:C:\Users\a5116938\Desktop\e2_studio_workspace\EEMBC_final\RX65N_Cloud_Kit\src/tensorflow/lite/kernels/internal\types.h ****     if (dimensions_count > kMaxSmallSize) {
 3416                             		.loc 4 227 11 is_stmt 0
 3417 061b F9 06 2C 04             		mov.L	#4, 176[r0]
 228:C:\Users\a5116938\Desktop\e2_studio_workspace\EEMBC_final\RX65N_Cloud_Kit\src/tensorflow/lite/kernels/internal\types.h **** #ifdef TF_LITE_STATIC_MEMORY
 3418                             		.loc 4 228 5 is_stmt 1
 3419                             	.LVL363:
 3420                             	.LBE1834:
 3421                             	.LBE1833:
 292:C:\Users\a5116938\Desktop\e2_studio_workspace\EEMBC_final\RX65N_Cloud_Kit\src/tensorflow/lite/kernels/internal\types.h ****     for (int i = 0; i < size_increase; ++i) {
 3422                             		.loc 4 292 5
 3423                             	.LBE1845:
 3424                             	.LBE1848:
 3425                             	.LBE1851:
 3426                             	.LBE1854:
 3427                             	.LBE1857:
 3428                             	.LBE1930:
 3429                             	.LBE1940:
 3430                             	.LBE1950:
 3431                             	.LBE2123:
 3432                             	.LBE2213:
 3433                             	.LBE2276:
 194:C:\Users\a5116938\Desktop\e2_studio_workspace\EEMBC_final\RX65N_Cloud_Kit\src/tensorflow/lite/kernels/internal\types.h ****   inline int32_t Dims(int i) const {
 3434                             		.loc 4 194 44
 3435                             	.LBB2277:
 3436                             	.LBB2214:
 3437                             	.LBB2124:
 3438                             	.LBB1951:
 3439                             	.LBB1941:
 3440                             	.LBB1931:
 3441                             	.LBB1858:
 3442                             	.LBB1855:
 3443                             	.LBB1852:
 3444                             	.LBB1849:
 3445                             	.LBB1846:
 292:C:\Users\a5116938\Desktop\e2_studio_workspace\EEMBC_final\RX65N_Cloud_Kit\src/tensorflow/lite/kernels/internal\types.h ****     for (int i = 0; i < size_increase; ++i) {
 3446                             		.loc 4 292 70 is_stmt 0
 3447 061f 66 41                   		mov.L	#4, r1
 3448 0621 43 31                   		sub	r3, r1
 3449                             	.LVL364:
 293:C:\Users\a5116938\Desktop\e2_studio_workspace\EEMBC_final\RX65N_Cloud_Kit\src/tensorflow/lite/kernels/internal\types.h ****       SetDim(i, pad_value);
 3450                             		.loc 4 293 5 is_stmt 1
 3451                             	.LBB1835:
 293:C:\Users\a5116938\Desktop\e2_studio_workspace\EEMBC_final\RX65N_Cloud_Kit\src/tensorflow/lite/kernels/internal\types.h ****       SetDim(i, pad_value);
 3452                             		.loc 4 293 23 is_stmt 0
 3453 0623 20 22                   		beq	.L260
 3454                             	.LVL365:
 3455                             	.LBB1836:
 3456                             	.LBB1837:
 203:C:\Users\a5116938\Desktop\e2_studio_workspace\EEMBC_final\RX65N_Cloud_Kit\src/tensorflow/lite/kernels/internal\types.h ****       dims_pointer_[i] = val;
 3457                             		.loc 4 203 5 is_stmt 1
 206:C:\Users\a5116938\Desktop\e2_studio_workspace\EEMBC_final\RX65N_Cloud_Kit\src/tensorflow/lite/kernels/internal\types.h ****     }
 3458                             		.loc 4 206 7
 206:C:\Users\a5116938\Desktop\e2_studio_workspace\EEMBC_final\RX65N_Cloud_Kit\src/tensorflow/lite/kernels/internal\types.h ****     }
 3459                             		.loc 4 206 16 is_stmt 0
 3460 0625 F9 06 2D 01             		mov.L	#1, 180[r0]
 3461                             	.LVL366:
 3462                             	.LBE1837:
 3463                             	.LBE1836:
 293:C:\Users\a5116938\Desktop\e2_studio_workspace\EEMBC_final\RX65N_Cloud_Kit\src/tensorflow/lite/kernels/internal\types.h ****       SetDim(i, pad_value);
 3464                             		.loc 4 293 23
 3465 0629 61 11                   		cmp	#1, r1
 3466 062b 20 1A                   		beq	.L260
 294:C:\Users\a5116938\Desktop\e2_studio_workspace\EEMBC_final\RX65N_Cloud_Kit\src/tensorflow/lite/kernels/internal\types.h ****     }
 3467                             		.loc 4 294 7 is_stmt 1
 3468                             	.LVL367:
 3469                             	.LBB1841:
 3470                             	.LBB1838:
 201:C:\Users\a5116938\Desktop\e2_studio_workspace\EEMBC_final\RX65N_Cloud_Kit\src/tensorflow/lite/kernels/internal\types.h ****     TFLITE_DCHECK_LT(i, size_);
 3471                             		.loc 4 201 5
 202:C:\Users\a5116938\Desktop\e2_studio_workspace\EEMBC_final\RX65N_Cloud_Kit\src/tensorflow/lite/kernels/internal\types.h ****     if (size_ > kMaxSmallSize) {
 3472                             		.loc 4 202 5
 203:C:\Users\a5116938\Desktop\e2_studio_workspace\EEMBC_final\RX65N_Cloud_Kit\src/tensorflow/lite/kernels/internal\types.h ****       dims_pointer_[i] = val;
 3473                             		.loc 4 203 5
 206:C:\Users\a5116938\Desktop\e2_studio_workspace\EEMBC_final\RX65N_Cloud_Kit\src/tensorflow/lite/kernels/internal\types.h ****     }
 3474                             		.loc 4 206 7
 206:C:\Users\a5116938\Desktop\e2_studio_workspace\EEMBC_final\RX65N_Cloud_Kit\src/tensorflow/lite/kernels/internal\types.h ****     }
 3475                             		.loc 4 206 16 is_stmt 0
 3476 062d F9 06 2E 01             		mov.L	#1, 184[r0]
 3477                             	.LVL368:
 3478                             	.LBE1838:
 3479                             	.LBE1841:
 293:C:\Users\a5116938\Desktop\e2_studio_workspace\EEMBC_final\RX65N_Cloud_Kit\src/tensorflow/lite/kernels/internal\types.h ****       SetDim(i, pad_value);
 3480                             		.loc 4 293 23
 3481 0631 61 21                   		cmp	#2, r1
 3482 0633 20 12                   		beq	.L260
 294:C:\Users\a5116938\Desktop\e2_studio_workspace\EEMBC_final\RX65N_Cloud_Kit\src/tensorflow/lite/kernels/internal\types.h ****     }
 3483                             		.loc 4 294 7 is_stmt 1
 3484                             	.LVL369:
 3485                             	.LBB1842:
 3486                             	.LBB1839:
 201:C:\Users\a5116938\Desktop\e2_studio_workspace\EEMBC_final\RX65N_Cloud_Kit\src/tensorflow/lite/kernels/internal\types.h ****     TFLITE_DCHECK_LT(i, size_);
 3487                             		.loc 4 201 5
 202:C:\Users\a5116938\Desktop\e2_studio_workspace\EEMBC_final\RX65N_Cloud_Kit\src/tensorflow/lite/kernels/internal\types.h ****     if (size_ > kMaxSmallSize) {
 3488                             		.loc 4 202 5
 203:C:\Users\a5116938\Desktop\e2_studio_workspace\EEMBC_final\RX65N_Cloud_Kit\src/tensorflow/lite/kernels/internal\types.h ****       dims_pointer_[i] = val;
 3489                             		.loc 4 203 5
 206:C:\Users\a5116938\Desktop\e2_studio_workspace\EEMBC_final\RX65N_Cloud_Kit\src/tensorflow/lite/kernels/internal\types.h ****     }
 3490                             		.loc 4 206 7
 206:C:\Users\a5116938\Desktop\e2_studio_workspace\EEMBC_final\RX65N_Cloud_Kit\src/tensorflow/lite/kernels/internal\types.h ****     }
 3491                             		.loc 4 206 16 is_stmt 0
 3492 0635 F9 06 2F 01             		mov.L	#1, 188[r0]
 3493                             	.LVL370:
 3494                             	.LBE1839:
 3495                             	.LBE1842:
 293:C:\Users\a5116938\Desktop\e2_studio_workspace\EEMBC_final\RX65N_Cloud_Kit\src/tensorflow/lite/kernels/internal\types.h ****       SetDim(i, pad_value);
 3496                             		.loc 4 293 23
 3497 0639 61 31                   		cmp	#3, r1
 3498 063b 12                      		beq	.L260
 294:C:\Users\a5116938\Desktop\e2_studio_workspace\EEMBC_final\RX65N_Cloud_Kit\src/tensorflow/lite/kernels/internal\types.h ****     }
 3499                             		.loc 4 294 7 is_stmt 1
 3500                             	.LVL371:
 3501                             	.LBB1843:
 3502                             	.LBB1840:
 201:C:\Users\a5116938\Desktop\e2_studio_workspace\EEMBC_final\RX65N_Cloud_Kit\src/tensorflow/lite/kernels/internal\types.h ****     TFLITE_DCHECK_LT(i, size_);
 3503                             		.loc 4 201 5
 202:C:\Users\a5116938\Desktop\e2_studio_workspace\EEMBC_final\RX65N_Cloud_Kit\src/tensorflow/lite/kernels/internal\types.h ****     if (size_ > kMaxSmallSize) {
 3504                             		.loc 4 202 5
 203:C:\Users\a5116938\Desktop\e2_studio_workspace\EEMBC_final\RX65N_Cloud_Kit\src/tensorflow/lite/kernels/internal\types.h ****       dims_pointer_[i] = val;
 3505                             		.loc 4 203 5
 206:C:\Users\a5116938\Desktop\e2_studio_workspace\EEMBC_final\RX65N_Cloud_Kit\src/tensorflow/lite/kernels/internal\types.h ****     }
 3506                             		.loc 4 206 7
 206:C:\Users\a5116938\Desktop\e2_studio_workspace\EEMBC_final\RX65N_Cloud_Kit\src/tensorflow/lite/kernels/internal\types.h ****     }
 3507                             		.loc 4 206 16 is_stmt 0
 3508 063c F9 06 30 01             		mov.L	#1, 192[r0]
 3509                             	.LVL372:
 3510                             	.LBE1840:
 3511                             	.LBE1843:
 293:C:\Users\a5116938\Desktop\e2_studio_workspace\EEMBC_final\RX65N_Cloud_Kit\src/tensorflow/lite/kernels/internal\types.h ****       SetDim(i, pad_value);
 3512                             		.loc 4 293 23
 3513 0640 61 41                   		cmp	#4, r1
 3514 0642 3B 2C 13                		bne	.L119
 3515                             	.LVL373:
 3516                             		.balign 8,3,1
 3517                             	.L260:
 3518                             	.LBE1835:
 3519                             	.LBE1846:
 3520                             	.LBE1849:
 3521                             	.LBE1852:
 3522                             	.LBE1855:
 3523                             	.LBE1858:
 3524                             	.LBE1931:
 3525                             	.LBE1941:
 3526                             	.LBE1951:
 3527                             	.LBE2124:
 3528                             	.LBE2214:
 3529                             	.LBE2277:
 214:C:\Users\a5116938\Desktop\e2_studio_workspace\EEMBC_final\RX65N_Cloud_Kit\src/tensorflow/lite/kernels/internal\types.h ****   }
 3530                             		.loc 4 214 5 is_stmt 1
 194:C:\Users\a5116938\Desktop\e2_studio_workspace\EEMBC_final\RX65N_Cloud_Kit\src/tensorflow/lite/kernels/internal\types.h ****   inline int32_t Dims(int i) const {
 3531                             		.loc 4 194 44
 3532                             	.LBB2278:
 3533                             	.LBB2215:
 3534                             	.LBB2125:
 3535                             	.LBB1952:
 3536                             	.LBB1942:
 3537                             	.LBB1932:
 3538                             	.LBB1859:
 3539                             	.LBB1856:
 3540                             	.LBB1853:
 3541                             	.LBB1850:
 3542                             	.LBB1847:
 3543                             		.loc 4 296 28 is_stmt 0
 3544 0645 6C 21                   		shll	#2, r1
 3545                             	.LVL374:
 3546                             		.loc 4 296 16
 3547 0647 75 4F B4                		mov.L	#0xb4, r15
 3548 064a 4B 0F                   		add	r0, r15
 3549 064c 4B F1                   		add	r15, r1
 3550 064e 72 02 04 02             		add	#0x204, r0, r2
 3551 0652 6C 23                   		shll	#2, r3
 3552                             	.LVL375:
 3553 0654 7F 8F                   		smovf
 3554                             	.LVL376:
 3555                             	.LBE1847:
 3556                             	.LBE1850:
 3557                             	.LBE1853:
 3558                             	.LBE1856:
 3559                             	.LBE1859:
 3560                             	.LBE1932:
 3561                             	.LBE1942:
 3562                             	.LBE1952:
 3563                             	.LBE2125:
 3564                             	.LBE2215:
 3565                             	.LBE2278:
 262:C:\Users\a5116938\Desktop\e2_studio_workspace\EEMBC_final\RX65N_Cloud_Kit\src/tensorflow/lite/kernels/internal\types.h ****   }
 3566                             		.loc 4 262 5 is_stmt 1
 3567                             	.LBB2279:
 3568                             	.LBB2216:
 3569                             	.LBB2126:
 3570                             	.LBB1953:
 3571                             	.LBB1943:
 3572                             	.LBB1933:
 3573                             	.LBB1860:
 3574                             	.LBB1861:
 3575                             	.LBB1862:
 3576                             	.LBB1863:
 3577                             	.LBB1864:
 290:C:\Users\a5116938\Desktop\e2_studio_workspace\EEMBC_final\RX65N_Cloud_Kit\src/tensorflow/lite/kernels/internal\types.h ****     Resize(new_shape_size);
 3578                             		.loc 4 290 5 is_stmt 0
 3579 0656 ED 03 7A                		mov.L	488[r0], r3
 3580                             	.LBE1864:
 287:C:\Users\a5116938\Desktop\e2_studio_workspace\EEMBC_final\RX65N_Cloud_Kit\src/tensorflow/lite/kernels/internal\types.h ****     // If the following check fails, it is likely because a 4D-only kernel is
 3581                             		.loc 4 287 16
 3582 0659 F9 06 26 00             		mov.L	#0, 152[r0]
 3583                             	.LBB1878:
 290:C:\Users\a5116938\Desktop\e2_studio_workspace\EEMBC_final\RX65N_Cloud_Kit\src/tensorflow/lite/kernels/internal\types.h ****     Resize(new_shape_size);
 3584                             		.loc 4 290 5 is_stmt 1
 3585                             	.LVL377:
 3586                             	.LBE1878:
 3587                             	.LBE1863:
 3588                             	.LBE1862:
 3589                             	.LBE1861:
 3590                             	.LBE1860:
 3591                             	.LBE1933:
 3592                             	.LBE1943:
 3593                             	.LBE1953:
 3594                             	.LBE2126:
 3595                             	.LBE2216:
 3596                             	.LBE2279:
 194:C:\Users\a5116938\Desktop\e2_studio_workspace\EEMBC_final\RX65N_Cloud_Kit\src/tensorflow/lite/kernels/internal\types.h ****   inline int32_t Dims(int i) const {
 3597                             		.loc 4 194 44
 3598                             	.LBB2280:
 3599                             	.LBB2217:
 3600                             	.LBB2127:
 3601                             	.LBB1954:
 3602                             	.LBB1944:
 3603                             	.LBB1934:
 3604                             	.LBB1891:
 3605                             	.LBB1888:
 3606                             	.LBB1885:
 3607                             	.LBB1882:
 3608                             	.LBB1879:
 290:C:\Users\a5116938\Desktop\e2_studio_workspace\EEMBC_final\RX65N_Cloud_Kit\src/tensorflow/lite/kernels/internal\types.h ****     Resize(new_shape_size);
 3609                             		.loc 4 290 5 is_stmt 0
 3610 065d 61 43                   		cmp	#4, r3
 3611 065f 2B 05 38 0D 13          		bgt	.L119
 291:C:\Users\a5116938\Desktop\e2_studio_workspace\EEMBC_final\RX65N_Cloud_Kit\src/tensorflow/lite/kernels/internal\types.h ****     const int size_increase = new_shape_size - shape.DimensionsCount();
 3612                             		.loc 4 291 5 is_stmt 1
 3613                             	.LVL378:
 3614                             	.LBB1865:
 3615                             	.LBB1866:
 220:C:\Users\a5116938\Desktop\e2_studio_workspace\EEMBC_final\RX65N_Cloud_Kit\src/tensorflow/lite/kernels/internal\types.h **** #ifdef TF_LITE_STATIC_MEMORY
 3616                             		.loc 4 220 5
 227:C:\Users\a5116938\Desktop\e2_studio_workspace\EEMBC_final\RX65N_Cloud_Kit\src/tensorflow/lite/kernels/internal\types.h ****     if (dimensions_count > kMaxSmallSize) {
 3617                             		.loc 4 227 5
 3618                             	.LBE1866:
 3619                             	.LBE1865:
 292:C:\Users\a5116938\Desktop\e2_studio_workspace\EEMBC_final\RX65N_Cloud_Kit\src/tensorflow/lite/kernels/internal\types.h ****     for (int i = 0; i < size_increase; ++i) {
 3620                             		.loc 4 292 70 is_stmt 0
 3621 0664 66 41                   		mov.L	#4, r1
 3622 0666 43 31                   		sub	r3, r1
 3623                             	.LBB1868:
 3624                             	.LBB1867:
 227:C:\Users\a5116938\Desktop\e2_studio_workspace\EEMBC_final\RX65N_Cloud_Kit\src/tensorflow/lite/kernels/internal\types.h ****     if (dimensions_count > kMaxSmallSize) {
 3625                             		.loc 4 227 11
 3626 0668 F9 06 26 04             		mov.L	#4, 152[r0]
 228:C:\Users\a5116938\Desktop\e2_studio_workspace\EEMBC_final\RX65N_Cloud_Kit\src/tensorflow/lite/kernels/internal\types.h **** #ifdef TF_LITE_STATIC_MEMORY
 3627                             		.loc 4 228 5 is_stmt 1
 3628                             	.LVL379:
 3629                             	.LBE1867:
 3630                             	.LBE1868:
 292:C:\Users\a5116938\Desktop\e2_studio_workspace\EEMBC_final\RX65N_Cloud_Kit\src/tensorflow/lite/kernels/internal\types.h ****     for (int i = 0; i < size_increase; ++i) {
 3631                             		.loc 4 292 5
 3632                             	.LBE1879:
 3633                             	.LBE1882:
 3634                             	.LBE1885:
 3635                             	.LBE1888:
 3636                             	.LBE1891:
 3637                             	.LBE1934:
 3638                             	.LBE1944:
 3639                             	.LBE1954:
 3640                             	.LBE2127:
 3641                             	.LBE2217:
 3642                             	.LBE2280:
 194:C:\Users\a5116938\Desktop\e2_studio_workspace\EEMBC_final\RX65N_Cloud_Kit\src/tensorflow/lite/kernels/internal\types.h ****   inline int32_t Dims(int i) const {
 3643                             		.loc 4 194 44
 3644                             	.LBB2281:
 3645                             	.LBB2218:
 3646                             	.LBB2128:
 3647                             	.LBB1955:
 3648                             	.LBB1945:
 3649                             	.LBB1935:
 3650                             	.LBB1892:
 3651                             	.LBB1889:
 3652                             	.LBB1886:
 3653                             	.LBB1883:
 3654                             	.LBB1880:
 293:C:\Users\a5116938\Desktop\e2_studio_workspace\EEMBC_final\RX65N_Cloud_Kit\src/tensorflow/lite/kernels/internal\types.h ****       SetDim(i, pad_value);
 3655                             		.loc 4 293 5
 3656                             	.LBB1869:
 293:C:\Users\a5116938\Desktop\e2_studio_workspace\EEMBC_final\RX65N_Cloud_Kit\src/tensorflow/lite/kernels/internal\types.h ****       SetDim(i, pad_value);
 3657                             		.loc 4 293 23 is_stmt 0
 3658 066c 20 22                   		beq	.L262
 3659                             	.LVL380:
 3660                             	.LBB1870:
 3661                             	.LBB1871:
 203:C:\Users\a5116938\Desktop\e2_studio_workspace\EEMBC_final\RX65N_Cloud_Kit\src/tensorflow/lite/kernels/internal\types.h ****       dims_pointer_[i] = val;
 3662                             		.loc 4 203 5 is_stmt 1
 206:C:\Users\a5116938\Desktop\e2_studio_workspace\EEMBC_final\RX65N_Cloud_Kit\src/tensorflow/lite/kernels/internal\types.h ****     }
 3663                             		.loc 4 206 7
 206:C:\Users\a5116938\Desktop\e2_studio_workspace\EEMBC_final\RX65N_Cloud_Kit\src/tensorflow/lite/kernels/internal\types.h ****     }
 3664                             		.loc 4 206 16 is_stmt 0
 3665 066e F9 06 27 01             		mov.L	#1, 156[r0]
 3666                             	.LVL381:
 3667                             	.LBE1871:
 3668                             	.LBE1870:
 293:C:\Users\a5116938\Desktop\e2_studio_workspace\EEMBC_final\RX65N_Cloud_Kit\src/tensorflow/lite/kernels/internal\types.h ****       SetDim(i, pad_value);
 3669                             		.loc 4 293 23
 3670 0672 61 11                   		cmp	#1, r1
 3671 0674 20 1A                   		beq	.L262
 294:C:\Users\a5116938\Desktop\e2_studio_workspace\EEMBC_final\RX65N_Cloud_Kit\src/tensorflow/lite/kernels/internal\types.h ****     }
 3672                             		.loc 4 294 7 is_stmt 1
 3673                             	.LVL382:
 3674                             	.LBB1875:
 3675                             	.LBB1872:
 201:C:\Users\a5116938\Desktop\e2_studio_workspace\EEMBC_final\RX65N_Cloud_Kit\src/tensorflow/lite/kernels/internal\types.h ****     TFLITE_DCHECK_LT(i, size_);
 3676                             		.loc 4 201 5
 202:C:\Users\a5116938\Desktop\e2_studio_workspace\EEMBC_final\RX65N_Cloud_Kit\src/tensorflow/lite/kernels/internal\types.h ****     if (size_ > kMaxSmallSize) {
 3677                             		.loc 4 202 5
 203:C:\Users\a5116938\Desktop\e2_studio_workspace\EEMBC_final\RX65N_Cloud_Kit\src/tensorflow/lite/kernels/internal\types.h ****       dims_pointer_[i] = val;
 3678                             		.loc 4 203 5
 206:C:\Users\a5116938\Desktop\e2_studio_workspace\EEMBC_final\RX65N_Cloud_Kit\src/tensorflow/lite/kernels/internal\types.h ****     }
 3679                             		.loc 4 206 7
 206:C:\Users\a5116938\Desktop\e2_studio_workspace\EEMBC_final\RX65N_Cloud_Kit\src/tensorflow/lite/kernels/internal\types.h ****     }
 3680                             		.loc 4 206 16 is_stmt 0
 3681 0676 F9 06 28 01             		mov.L	#1, 160[r0]
 3682                             	.LVL383:
 3683                             	.LBE1872:
 3684                             	.LBE1875:
 293:C:\Users\a5116938\Desktop\e2_studio_workspace\EEMBC_final\RX65N_Cloud_Kit\src/tensorflow/lite/kernels/internal\types.h ****       SetDim(i, pad_value);
 3685                             		.loc 4 293 23
 3686 067a 61 21                   		cmp	#2, r1
 3687 067c 20 12                   		beq	.L262
 294:C:\Users\a5116938\Desktop\e2_studio_workspace\EEMBC_final\RX65N_Cloud_Kit\src/tensorflow/lite/kernels/internal\types.h ****     }
 3688                             		.loc 4 294 7 is_stmt 1
 3689                             	.LVL384:
 3690                             	.LBB1876:
 3691                             	.LBB1873:
 201:C:\Users\a5116938\Desktop\e2_studio_workspace\EEMBC_final\RX65N_Cloud_Kit\src/tensorflow/lite/kernels/internal\types.h ****     TFLITE_DCHECK_LT(i, size_);
 3692                             		.loc 4 201 5
 202:C:\Users\a5116938\Desktop\e2_studio_workspace\EEMBC_final\RX65N_Cloud_Kit\src/tensorflow/lite/kernels/internal\types.h ****     if (size_ > kMaxSmallSize) {
 3693                             		.loc 4 202 5
 203:C:\Users\a5116938\Desktop\e2_studio_workspace\EEMBC_final\RX65N_Cloud_Kit\src/tensorflow/lite/kernels/internal\types.h ****       dims_pointer_[i] = val;
 3694                             		.loc 4 203 5
 206:C:\Users\a5116938\Desktop\e2_studio_workspace\EEMBC_final\RX65N_Cloud_Kit\src/tensorflow/lite/kernels/internal\types.h ****     }
 3695                             		.loc 4 206 7
 206:C:\Users\a5116938\Desktop\e2_studio_workspace\EEMBC_final\RX65N_Cloud_Kit\src/tensorflow/lite/kernels/internal\types.h ****     }
 3696                             		.loc 4 206 16 is_stmt 0
 3697 067e F9 06 29 01             		mov.L	#1, 164[r0]
 3698                             	.LVL385:
 3699                             	.LBE1873:
 3700                             	.LBE1876:
 293:C:\Users\a5116938\Desktop\e2_studio_workspace\EEMBC_final\RX65N_Cloud_Kit\src/tensorflow/lite/kernels/internal\types.h ****       SetDim(i, pad_value);
 3701                             		.loc 4 293 23
 3702 0682 61 31                   		cmp	#3, r1
 3703 0684 12                      		beq	.L262
 294:C:\Users\a5116938\Desktop\e2_studio_workspace\EEMBC_final\RX65N_Cloud_Kit\src/tensorflow/lite/kernels/internal\types.h ****     }
 3704                             		.loc 4 294 7 is_stmt 1
 3705                             	.LVL386:
 3706                             	.LBB1877:
 3707                             	.LBB1874:
 201:C:\Users\a5116938\Desktop\e2_studio_workspace\EEMBC_final\RX65N_Cloud_Kit\src/tensorflow/lite/kernels/internal\types.h ****     TFLITE_DCHECK_LT(i, size_);
 3708                             		.loc 4 201 5
 202:C:\Users\a5116938\Desktop\e2_studio_workspace\EEMBC_final\RX65N_Cloud_Kit\src/tensorflow/lite/kernels/internal\types.h ****     if (size_ > kMaxSmallSize) {
 3709                             		.loc 4 202 5
 203:C:\Users\a5116938\Desktop\e2_studio_workspace\EEMBC_final\RX65N_Cloud_Kit\src/tensorflow/lite/kernels/internal\types.h ****       dims_pointer_[i] = val;
 3710                             		.loc 4 203 5
 206:C:\Users\a5116938\Desktop\e2_studio_workspace\EEMBC_final\RX65N_Cloud_Kit\src/tensorflow/lite/kernels/internal\types.h ****     }
 3711                             		.loc 4 206 7
 206:C:\Users\a5116938\Desktop\e2_studio_workspace\EEMBC_final\RX65N_Cloud_Kit\src/tensorflow/lite/kernels/internal\types.h ****     }
 3712                             		.loc 4 206 16 is_stmt 0
 3713 0685 F9 06 2A 01             		mov.L	#1, 168[r0]
 3714                             	.LVL387:
 3715                             	.LBE1874:
 3716                             	.LBE1877:
 293:C:\Users\a5116938\Desktop\e2_studio_workspace\EEMBC_final\RX65N_Cloud_Kit\src/tensorflow/lite/kernels/internal\types.h ****       SetDim(i, pad_value);
 3717                             		.loc 4 293 23
 3718 0689 61 41                   		cmp	#4, r1
 3719 068b 3B E3 12                		bne	.L119
 3720                             	.LVL388:
 3721                             		.balign 8,3,1
 3722                             	.L262:
 3723                             	.LBE1869:
 3724                             	.LBE1880:
 3725                             	.LBE1883:
 3726                             	.LBE1886:
 3727                             	.LBE1889:
 3728                             	.LBE1892:
 3729                             	.LBE1935:
 3730                             	.LBE1945:
 3731                             	.LBE1955:
 3732                             	.LBE2128:
 3733                             	.LBE2218:
 3734                             	.LBE2281:
 214:C:\Users\a5116938\Desktop\e2_studio_workspace\EEMBC_final\RX65N_Cloud_Kit\src/tensorflow/lite/kernels/internal\types.h ****   }
 3735                             		.loc 4 214 5 is_stmt 1
 194:C:\Users\a5116938\Desktop\e2_studio_workspace\EEMBC_final\RX65N_Cloud_Kit\src/tensorflow/lite/kernels/internal\types.h ****   inline int32_t Dims(int i) const {
 3736                             		.loc 4 194 44
 3737                             	.LBB2282:
 3738                             	.LBB2219:
 3739                             	.LBB2129:
 3740                             	.LBB1956:
 3741                             	.LBB1946:
 3742                             	.LBB1936:
 3743                             	.LBB1893:
 3744                             	.LBB1890:
 3745                             	.LBB1887:
 3746                             	.LBB1884:
 3747                             	.LBB1881:
 3748                             		.loc 4 296 28 is_stmt 0
 3749 068e 6C 21                   		shll	#2, r1
 3750                             	.LVL389:
 3751                             		.loc 4 296 16
 3752 0690 75 42 9C                		mov.L	#0x9c, r2
 3753 0693 4B 02                   		add	r0, r2
 3754 0695 4B 21                   		add	r2, r1
 3755 0697 72 02 EC 01             		add	#0x1ec, r0, r2
 3756 069b 6C 23                   		shll	#2, r3
 3757                             	.LVL390:
 3758 069d 7F 8F                   		smovf
 3759                             	.LVL391:
 3760                             	.LBE1881:
 3761                             	.LBE1884:
 3762                             	.LBE1887:
 3763                             	.LBE1890:
 3764                             	.LBE1893:
  46:C:\Users\a5116938\Desktop\e2_studio_workspace\EEMBC_final\RX65N_Cloud_Kit\src/tensorflow/lite/kernels/internal/reference\pad.h ****   TFLITE_DCHECK_LE(op_params.right_padding_count, PadKernelMaxDimensionCount());
 3765                             		.loc 6 46 3
 3766 069f CC 63                   		mov.B	[r6], r3
 3767 06a1 61 43                   		cmp	#4, r3
 3768 06a3 2B 05 38 C9 12          		bgt	.L119
  47:C:\Users\a5116938\Desktop\e2_studio_workspace\EEMBC_final\RX65N_Cloud_Kit\src/tensorflow/lite/kernels/internal/reference\pad.h **** 
 3769                             		.loc 6 47 3
 3770 06a8 8D 65                   		mov.B	20[r6], r5
 3771 06aa 61 45                   		cmp	#4, r5
 3772 06ac 2B 05 38 C0 12          		bgt	.L119
 3773                             	.LVL392:
 3774                             	.LBB1894:
  53:C:\Users\a5116938\Desktop\e2_studio_workspace\EEMBC_final\RX65N_Cloud_Kit\src/tensorflow/lite/kernels/internal/reference\pad.h ****   }
 3775                             		.loc 6 53 5
 3776 06b1 F9 06 C6 00             		mov.L	#0, 792[r0]
 3777                             	.LVL393:
 3778 06b5 F9 06 C7 00             		mov.L	#0, 796[r0]
 3779                             	.LVL394:
 3780 06b9 F9 06 C8 00             		mov.L	#0, 800[r0]
 3781                             	.LVL395:
 3782 06bd F9 06 C9 00             		mov.L	#0, 804[r0]
 3783                             	.LVL396:
 3784                             	.LBE1894:
 3785                             	.LBB1895:
  55:C:\Users\a5116938\Desktop\e2_studio_workspace\EEMBC_final\RX65N_Cloud_Kit\src/tensorflow/lite/kernels/internal/reference\pad.h ****     left_padding_copy[i + PadKernelMaxDimensionCount() -
 3786                             		.loc 6 55 21
 3787 06c1 61 03                   		cmp	#0, r3
 3788 06c3 2B 17                   		ble	.L267
 3789 06c5 66 41                   		mov.L	#4, r1
 3790 06c7 43 31                   		sub	r3, r1
 3791 06c9 71 62 04                		add	#4, r6, r2
 3792 06cc 6C 21                   		shll	#2, r1
 3793 06ce 6C 23                   		shll	#2, r3
 3794 06d0 FB 9A 18 03             		mov.L	#0x318, r9
 3795 06d4 4B 09                   		add	r0, r9
 3796 06d6 4B 91                   		add	r9, r1
 3797 06d8 7F 8F                   		smovf
 3798                             		.balign 8,3,4
 3799                             	.L267:
 3800                             	.LVL397:
 3801                             	.LBE1895:
 3802                             	.LBB1896:
  61:C:\Users\a5116938\Desktop\e2_studio_workspace\EEMBC_final\RX65N_Cloud_Kit\src/tensorflow/lite/kernels/internal/reference\pad.h ****   }
 3803                             		.loc 6 61 5
 3804 06da F9 06 C2 00             		mov.L	#0, 776[r0]
 3805                             	.LVL398:
 3806 06de F9 06 C3 00             		mov.L	#0, 780[r0]
 3807                             	.LVL399:
 3808 06e2 F9 06 C4 00             		mov.L	#0, 784[r0]
 3809                             	.LVL400:
 3810 06e6 F9 06 C5 00             		mov.L	#0, 788[r0]
 3811                             	.LVL401:
 3812                             	.LBE1896:
 3813                             	.LBB1897:
  63:C:\Users\a5116938\Desktop\e2_studio_workspace\EEMBC_final\RX65N_Cloud_Kit\src/tensorflow/lite/kernels/internal/reference\pad.h ****     right_padding_copy[i + PadKernelMaxDimensionCount() -
 3814                             		.loc 6 63 21
 3815 06ea 61 05                   		cmp	#0, r5
 3816 06ec 2B 18                   		ble	.L268
 3817 06ee 66 41                   		mov.L	#4, r1
 3818 06f0 43 51                   		sub	r5, r1
 3819 06f2 71 62 18                		add	#24, r6, r2
 3820 06f5 6C 21                   		shll	#2, r1
 3821 06f7 FD C2 53                		shll	#2, r5, r3
 3822 06fa FB EA 08 03             		mov.L	#0x308, r14
 3823 06fe 4B 0E                   		add	r0, r14
 3824 0700 4B E1                   		add	r14, r1
 3825 0702 7F 8F                   		smovf
 3826                             		.balign 8,3,1
 3827                             	.L268:
 3828                             	.LVL402:
 3829                             	.LBE1897:
 3830                             	.LBB1898:
 3831                             	.LBB1899:
 196:C:\Users\a5116938\Desktop\e2_studio_workspace\EEMBC_final\RX65N_Cloud_Kit\src/tensorflow/lite/kernels/internal\types.h ****     TFLITE_DCHECK_LT(i, size_);
 3832                             		.loc 4 196 5 is_stmt 1
 197:C:\Users\a5116938\Desktop\e2_studio_workspace\EEMBC_final\RX65N_Cloud_Kit\src/tensorflow/lite/kernels/internal\types.h ****     return size_ > kMaxSmallSize ? dims_pointer_[i] : dims_[i];
 3833                             		.loc 4 197 5
 3834 0704 E5 00 26 EC             		mov.L	152[r0], 944[r0]
 3835 0708 ED 04 EC                		mov.L	944[r0], r4
 3836 070b 61 04                   		cmp	#0, r4
 3837 070d 2A 05 38 5F 12          		ble	.L119
 198:C:\Users\a5116938\Desktop\e2_studio_workspace\EEMBC_final\RX65N_Cloud_Kit\src/tensorflow/lite/kernels/internal\types.h ****   }
 3838                             		.loc 4 198 5
 3839 0712 E5 00 27 EF             		mov.L	156[r0], 956[r0]
 198:C:\Users\a5116938\Desktop\e2_studio_workspace\EEMBC_final\RX65N_Cloud_Kit\src/tensorflow/lite/kernels/internal\types.h ****   }
 3840                             		.loc 4 198 34 is_stmt 0
 3841 0716 61 54                   		cmp	#5, r4
 3842 0718 2A 05 38 21 0F          		ble	.L269
 3843 071d ED 04 EF                		mov.L	956[r0], r4
 3844 0720 E4 40 E4                		mov.L	[r4], 912[r0]
 3845                             	.LVL403:
 3846                             	.LBE1899:
 3847                             	.LBE1898:
 3848                             	.LBB1900:
 3849                             	.LBB1901:
 196:C:\Users\a5116938\Desktop\e2_studio_workspace\EEMBC_final\RX65N_Cloud_Kit\src/tensorflow/lite/kernels/internal\types.h ****     TFLITE_DCHECK_LT(i, size_);
 3850                             		.loc 4 196 5 is_stmt 1
 197:C:\Users\a5116938\Desktop\e2_studio_workspace\EEMBC_final\RX65N_Cloud_Kit\src/tensorflow/lite/kernels/internal\types.h ****     return size_ > kMaxSmallSize ? dims_pointer_[i] : dims_[i];
 3851                             		.loc 4 197 5
 198:C:\Users\a5116938\Desktop\e2_studio_workspace\EEMBC_final\RX65N_Cloud_Kit\src/tensorflow/lite/kernels/internal\types.h ****   }
 3852                             		.loc 4 198 34 is_stmt 0
 3853 0723 E5 40 01 E2             		mov.L	4[r4], 904[r0]
 3854                             	.LVL404:
 3855                             	.LBE1901:
 3856                             	.LBE1900:
 3857                             	.LBB1903:
 3858                             	.LBB1904:
 196:C:\Users\a5116938\Desktop\e2_studio_workspace\EEMBC_final\RX65N_Cloud_Kit\src/tensorflow/lite/kernels/internal\types.h ****     TFLITE_DCHECK_LT(i, size_);
 3859                             		.loc 4 196 5 is_stmt 1
 197:C:\Users\a5116938\Desktop\e2_studio_workspace\EEMBC_final\RX65N_Cloud_Kit\src/tensorflow/lite/kernels/internal\types.h ****     return size_ > kMaxSmallSize ? dims_pointer_[i] : dims_[i];
 3860                             		.loc 4 197 5
 198:C:\Users\a5116938\Desktop\e2_studio_workspace\EEMBC_final\RX65N_Cloud_Kit\src/tensorflow/lite/kernels/internal\types.h ****   }
 3861                             		.loc 4 198 34 is_stmt 0
 3862 0727 ED 48 02                		mov.L	8[r4], r8
 3863                             	.LVL405:
 3864                             	.LBE1904:
 3865                             	.LBE1903:
 3866                             	.LBB1906:
 3867                             	.LBB1907:
 196:C:\Users\a5116938\Desktop\e2_studio_workspace\EEMBC_final\RX65N_Cloud_Kit\src/tensorflow/lite/kernels/internal\types.h ****     TFLITE_DCHECK_LT(i, size_);
 3868                             		.loc 4 196 5 is_stmt 1
 197:C:\Users\a5116938\Desktop\e2_studio_workspace\EEMBC_final\RX65N_Cloud_Kit\src/tensorflow/lite/kernels/internal\types.h ****     return size_ > kMaxSmallSize ? dims_pointer_[i] : dims_[i];
 3869                             		.loc 4 197 5
 198:C:\Users\a5116938\Desktop\e2_studio_workspace\EEMBC_final\RX65N_Cloud_Kit\src/tensorflow/lite/kernels/internal\types.h ****   }
 3870                             		.loc 4 198 34 is_stmt 0
 3871 072a A8 CD                   		mov.L	12[r4], r5
 3872                             	.LVL406:
 3873                             	.LBE1907:
 3874                             	.LBE1906:
  74:C:\Users\a5116938\Desktop\e2_studio_workspace\EEMBC_final\RX65N_Cloud_Kit\src/tensorflow/lite/kernels/internal/reference\pad.h ****   const int left_h_padding = left_padding_copy[1];
 3875                             		.loc 6 74 13
 3876 072c E5 00 C6 E9             		mov.L	792[r0], 932[r0]
 3877                             	.LVL407:
  75:C:\Users\a5116938\Desktop\e2_studio_workspace\EEMBC_final\RX65N_Cloud_Kit\src/tensorflow/lite/kernels/internal/reference\pad.h ****   const int left_w_padding = left_padding_copy[2];
 3878                             		.loc 6 75 13
 3879 0730 E5 00 C7 E8             		mov.L	796[r0], 928[r0]
 3880                             	.LVL408:
  76:C:\Users\a5116938\Desktop\e2_studio_workspace\EEMBC_final\RX65N_Cloud_Kit\src/tensorflow/lite/kernels/internal/reference\pad.h ****   const int left_d_padding = left_padding_copy[3];
 3881                             		.loc 6 76 13
 3882 0734 E5 00 C8 E7             		mov.L	800[r0], 924[r0]
 3883                             	.LVL409:
  77:C:\Users\a5116938\Desktop\e2_studio_workspace\EEMBC_final\RX65N_Cloud_Kit\src/tensorflow/lite/kernels/internal/reference\pad.h **** 
 3884                             		.loc 6 77 13
 3885 0738 E5 00 C9 EE             		mov.L	804[r0], 952[r0]
 3886                             	.LVL410:
  79:C:\Users\a5116938\Desktop\e2_studio_workspace\EEMBC_final\RX65N_Cloud_Kit\src/tensorflow/lite/kernels/internal/reference\pad.h ****   const int right_h_padding = right_padding_copy[1];
 3887                             		.loc 6 79 13
 3888 073c E5 00 C2 EB             		mov.L	776[r0], 940[r0]
 3889                             	.LVL411:
  80:C:\Users\a5116938\Desktop\e2_studio_workspace\EEMBC_final\RX65N_Cloud_Kit\src/tensorflow/lite/kernels/internal/reference\pad.h ****   const int right_w_padding = right_padding_copy[2];
 3890                             		.loc 6 80 13
 3891 0740 E5 00 C3 E6             		mov.L	780[r0], 920[r0]
 3892                             	.LVL412:
  81:C:\Users\a5116938\Desktop\e2_studio_workspace\EEMBC_final\RX65N_Cloud_Kit\src/tensorflow/lite/kernels/internal/reference\pad.h ****   const int right_d_padding = right_padding_copy[3];
 3893                             		.loc 6 81 13
 3894 0744 E5 00 C4 E5             		mov.L	784[r0], 916[r0]
 3895                             	.LVL413:
  82:C:\Users\a5116938\Desktop\e2_studio_workspace\EEMBC_final\RX65N_Cloud_Kit\src/tensorflow/lite/kernels/internal/reference\pad.h **** 
 3896                             		.loc 6 82 13
 3897 0748 ED 03 C5                		mov.L	788[r0], r3
 3898                             	.LVL414:
 3899                             	.LBB1909:
  88:C:\Users\a5116938\Desktop\e2_studio_workspace\EEMBC_final\RX65N_Cloud_Kit\src/tensorflow/lite/kernels/internal/reference\pad.h ****     for (int out_h = 0; out_h < output_height; ++out_h) {
 3900                             		.loc 6 88 29
 3901 074b ED 09 E4                		mov.L	912[r0], r9
 3902 074e EF 41                   		mov.L	r4, r1
 3903 0750 61 09                   		cmp	#0, r9
 3904 0752 2A 05 38 90 10          		ble	.L272
 3905                             	.LVL415:
 3906 0757 03                      		.balign 8,3,2
 3907                             	.L271:
 3908 0758 ED 09 E2                		mov.L	904[r0], r9
 3909 075b 61 09                   		cmp	#0, r9
 3910 075d 2A 05 38 D9 00          		ble	.L275
 3911 0762 5B A4                   		movu.B	r10, r4
 3912 0764 FF 03 35                		sub	r3, r5, r3
 3913                             	.LVL416:
 3914 0767 E7 03 E3                		mov.L	r3, 908[r0]
 3915 076a FD C8 43                		shll	#8, r4, r3
 3916 076d FD D0 42                		shll	#16, r4, r2
 3917 0770 57 43                   		or	r4, r3
 3918 0772 6D 84                   		shll	#24, r4
 3919 0774 57 23                   		or	r2, r3
 3920 0776 66 0B                   		mov.L	#0, r11
 3921                             	.LVL417:
 3922 0778 57 43                   		or	r4, r3
 3923 077a E7 03 EA                		mov.L	r3, 936[r0]
 3924                             	.LVL418:
 3925                             		.balign 8,3,2
 3926                             	.L298:
 3927                             	.LBB1910:
 3928                             	.LBB1911:
 3929                             	.LBB1912:
  93:C:\Users\a5116938\Desktop\e2_studio_workspace\EEMBC_final\RX65N_Cloud_Kit\src/tensorflow/lite/kernels/internal/reference\pad.h ****               out_h < left_h_padding ||
 3930                             		.loc 6 93 37
 3931 077d ED 09 E4                		mov.L	912[r0], r9
 3932 0780 ED 0E EB                		mov.L	940[r0], r14
 3933 0783 43 E9                   		sub	r14, r9
 3934                             	.LBE1912:
 3935                             	.LBE1911:
  89:C:\Users\a5116938\Desktop\e2_studio_workspace\EEMBC_final\RX65N_Cloud_Kit\src/tensorflow/lite/kernels/internal/reference\pad.h ****       for (int out_w = 0; out_w < output_width; ++out_w) {
 3936                             		.loc 6 89 14
 3937 0785 66 06                   		mov.L	#0, r6
 3938                             	.LVL419:
 3939 0787 03                      		.balign 8,3,1
 3940                             	.L297:
 3941                             	.LBB1916:
  90:C:\Users\a5116938\Desktop\e2_studio_workspace\EEMBC_final\RX65N_Cloud_Kit\src/tensorflow/lite/kernels/internal/reference\pad.h ****         for (int out_d = 0; out_d < output_depth; ++out_d) {
 3942                             		.loc 6 90 33
 3943 0788 61 08                   		cmp	#0, r8
 3944 078a 2A 05 38 95 00          		ble	.L276
 3945                             	.LBB1913:
  95:C:\Users\a5116938\Desktop\e2_studio_workspace\EEMBC_final\RX65N_Cloud_Kit\src/tensorflow/lite/kernels/internal/reference\pad.h ****               out_w < left_w_padding ||
 3946                             		.loc 6 95 38
 3947 078f ED 0D E2                		mov.L	904[r0], r13
 3948 0792 ED 0F E6                		mov.L	920[r0], r15
 3949 0795 43 FD                   		sub	r15, r13
 3950                             	.LBE1913:
  90:C:\Users\a5116938\Desktop\e2_studio_workspace\EEMBC_final\RX65N_Cloud_Kit\src/tensorflow/lite/kernels/internal/reference\pad.h ****         for (int out_d = 0; out_d < output_depth; ++out_d) {
 3951                             		.loc 6 90 16
 3952 0797 66 0C                   		mov.L	#0, r12
 3953                             	.LVL420:
 3954                             		.balign 8,3,1
 3955                             	.L296:
 3956                             	.LBB1914:
  91:C:\Users\a5116938\Desktop\e2_studio_workspace\EEMBC_final\RX65N_Cloud_Kit\src/tensorflow/lite/kernels/internal/reference\pad.h ****           if (out_b < left_b_padding ||
 3957                             		.loc 6 91 35
 3958 0799 61 05                   		cmp	#0, r5
 3959 079b 2B 7F                   		ble	.L277
  97:C:\Users\a5116938\Desktop\e2_studio_workspace\EEMBC_final\RX65N_Cloud_Kit\src/tensorflow/lite/kernels/internal/reference\pad.h ****               out_d < left_d_padding ||
 3960                             		.loc 6 97 37
 3961 079d ED 0E E5                		mov.L	916[r0], r14
 3962 07a0 FF 04 E8                		sub	r14, r8, r4
 3963 07a3 ED 0F E9                		mov.L	932[r0], r15
 3964 07a6 47 BF                   		cmp	r11, r15
 3965 07a8 2B 05 38 61 05          		bgt	.L278
 3966 07ad 47 C4                   		cmp	r12, r4
 3967 07af 2A 05 38 5A 05          		ble	.L278
 3968 07b4 47 B9                   		cmp	r11, r9
 3969 07b6 2A 05 38 53 05          		ble	.L278
 3970 07bb 47 6D                   		cmp	r6, r13
 3971 07bd 2A 05 38 4C 05          		ble	.L278
 3972 07c2 ED 04 E3                		mov.L	908[r0], r4
 3973 07c5 61 04                   		cmp	#0, r4
 3974 07c7 2A 05 38 91 04          		ble	.L467
 3975 07cc EF 41                   		mov.L	r4, r1
 3976 07ce FC 17 51                		min	r5, r1
 3977 07d1 EF 73                   		mov.L	r7, r3
  91:C:\Users\a5116938\Desktop\e2_studio_workspace\EEMBC_final\RX65N_Cloud_Kit\src/tensorflow/lite/kernels/internal/reference\pad.h ****           if (out_b < left_b_padding ||
 3978                             		.loc 6 91 18
 3979 07d3 66 04                   		mov.L	#0, r4
 3980 07d5 2E 24                   		bra	.L284
 3981                             	.LVL421:
 3982                             	.L928:
  95:C:\Users\a5116938\Desktop\e2_studio_workspace\EEMBC_final\RX65N_Cloud_Kit\src/tensorflow/lite/kernels/internal/reference\pad.h ****               out_w < left_w_padding ||
 3983                             		.loc 6 95 56
 3984 07d7 ED 0F E7                		mov.L	924[r0], r15
 3985 07da 47 CF                   		cmp	r12, r15
 3986 07dc 2A 26                   		bgt	.L470
  97:C:\Users\a5116938\Desktop\e2_studio_workspace\EEMBC_final\RX65N_Cloud_Kit\src/tensorflow/lite/kernels/internal/reference\pad.h ****               out_d < left_d_padding ||
 3987                             		.loc 6 97 55
 3988 07de ED 0E EE                		mov.L	952[r0], r14
 3989 07e1 47 4E                   		cmp	r4, r14
 3990 07e3 2A 1F                   		bgt	.L470
 3991                             		.loc 6 102 13
 3992 07e5 ED 0E ED                		mov.L	948[r0], r14
 3993                             	.LVL422:
 3994 07e8 FD 28 E2                		mov.B	[r14+], r2
 3995                             	.LVL423:
 3996 07eb E7 0E ED                		mov.L	r14, 948[r0]
 3997                             	.LVL424:
 3998 07ee 71 3E FF                		add	#-1, r3, r14
 3999                             	.LVL425:
  91:C:\Users\a5116938\Desktop\e2_studio_workspace\EEMBC_final\RX65N_Cloud_Kit\src/tensorflow/lite/kernels/internal/reference\pad.h ****           if (out_b < left_b_padding ||
 4000                             		.loc 6 91 9
 4001 07f1 62 14                   		add	#1, r4
 4002                             	.LVL426:
 4003 07f3 C3 E2                   		mov.B	r2, [r14]
 4004                             	.LVL427:
  91:C:\Users\a5116938\Desktop\e2_studio_workspace\EEMBC_final\RX65N_Cloud_Kit\src/tensorflow/lite/kernels/internal/reference\pad.h ****           if (out_b < left_b_padding ||
 4005                             		.loc 6 91 35
 4006 07f5 47 14                   		cmp	r1, r4
 4007 07f7 28 19                   		bge	.L927
 4008                             	.LVL428:
 4009                             		.balign 8,3,1
 4010                             	.L284:
 4011 07f9 62 13                   		add	#1, r3
 4012                             	.LVL429:
  93:C:\Users\a5116938\Desktop\e2_studio_workspace\EEMBC_final\RX65N_Cloud_Kit\src/tensorflow/lite/kernels/internal/reference\pad.h ****               out_h < left_h_padding ||
 4013                             		.loc 6 93 55
 4014 07fb ED 0E E8                		mov.L	928[r0], r14
 4015 07fe 47 6E                   		cmp	r6, r14
 4016 0800 2B D7                   		ble	.L928
 4017                             		.balign 8,3,1
 4018                             	.L470:
 100:C:\Users\a5116938\Desktop\e2_studio_workspace\EEMBC_final\RX65N_Cloud_Kit\src/tensorflow/lite/kernels/internal/reference\pad.h ****           } else {
 4019                             		.loc 6 100 13
 4020 0802 CF A2                   		mov.B	r10, r2
 4021 0804 71 3E FF                		add	#-1, r3, r14
  91:C:\Users\a5116938\Desktop\e2_studio_workspace\EEMBC_final\RX65N_Cloud_Kit\src/tensorflow/lite/kernels/internal/reference\pad.h ****           if (out_b < left_b_padding ||
 4022                             		.loc 6 91 9
 4023 0807 62 14                   		add	#1, r4
 4024                             	.LVL430:
 4025 0809 C3 E2                   		mov.B	r2, [r14]
 4026                             	.LVL431:
  91:C:\Users\a5116938\Desktop\e2_studio_workspace\EEMBC_final\RX65N_Cloud_Kit\src/tensorflow/lite/kernels/internal/reference\pad.h ****           if (out_b < left_b_padding ||
 4027                             		.loc 6 91 35
 4028 080b 47 14                   		cmp	r1, r4
 4029 080d 29 EC                   		blt	.L284
 4030                             	.LVL432:
 4031 080f 03                      		.balign 8,3,1
 4032                             	.L927:
 4033 0810 47 45                   		cmp	r4, r5
 4034 0812 2B 05 38 4C 04          		bgt	.L282
 4035                             	.LVL433:
 4036 0817 03                      		.balign 8,3,1
 4037                             	.L903:
 4038 0818 4B 57                   		add	r5, r7
 4039                             		.balign 8,3,1
 4040                             	.L277:
 4041                             	.LBE1914:
  90:C:\Users\a5116938\Desktop\e2_studio_workspace\EEMBC_final\RX65N_Cloud_Kit\src/tensorflow/lite/kernels/internal/reference\pad.h ****         for (int out_d = 0; out_d < output_depth; ++out_d) {
 4042                             		.loc 6 90 7
 4043 081a 62 1C                   		add	#1, r12
 4044                             	.LVL434:
  90:C:\Users\a5116938\Desktop\e2_studio_workspace\EEMBC_final\RX65N_Cloud_Kit\src/tensorflow/lite/kernels/internal/reference\pad.h ****         for (int out_d = 0; out_d < output_depth; ++out_d) {
 4045                             		.loc 6 90 33
 4046 081c 47 C8                   		cmp	r12, r8
 4047 081e 3B 7B FF                		bne	.L296
 4048                             	.LVL435:
 4049                             		.balign 8,3,1
 4050                             	.L276:
 4051                             	.LBE1916:
  89:C:\Users\a5116938\Desktop\e2_studio_workspace\EEMBC_final\RX65N_Cloud_Kit\src/tensorflow/lite/kernels/internal/reference\pad.h ****       for (int out_w = 0; out_w < output_width; ++out_w) {
 4052                             		.loc 6 89 5
 4053 0821 62 16                   		add	#1, r6
 4054                             	.LVL436:
  89:C:\Users\a5116938\Desktop\e2_studio_workspace\EEMBC_final\RX65N_Cloud_Kit\src/tensorflow/lite/kernels/internal/reference\pad.h ****       for (int out_w = 0; out_w < output_width; ++out_w) {
 4055                             		.loc 6 89 31
 4056 0823 ED 04 E2                		mov.L	904[r0], r4
 4057 0826 47 64                   		cmp	r6, r4
 4058 0828 3B 60 FF                		bne	.L297
 4059                             	.LBE1910:
  88:C:\Users\a5116938\Desktop\e2_studio_workspace\EEMBC_final\RX65N_Cloud_Kit\src/tensorflow/lite/kernels/internal/reference\pad.h ****     for (int out_h = 0; out_h < output_height; ++out_h) {
 4060                             		.loc 6 88 3
 4061 082b 62 1B                   		add	#1, r11
 4062                             	.LVL437:
  88:C:\Users\a5116938\Desktop\e2_studio_workspace\EEMBC_final\RX65N_Cloud_Kit\src/tensorflow/lite/kernels/internal/reference\pad.h ****     for (int out_h = 0; out_h < output_height; ++out_h) {
 4063                             		.loc 6 88 29
 4064 082d ED 09 E4                		mov.L	912[r0], r9
 4065 0830 47 B9                   		cmp	r11, r9
 4066 0832 2B 05 38 49 FF          		bgt	.L298
 4067                             	.LVL438:
 4068 0837 03                      		.balign 8,3,2
 4069                             	.L275:
 4070                             	.LBE1909:
 4071                             	.LBB1919:
 4072                             	.LBB1920:
 185:C:\Users\a5116938\Desktop\e2_studio_workspace\EEMBC_final\RX65N_Cloud_Kit\src/tensorflow/lite/kernels/internal\types.h **** #ifdef TF_LITE_STATIC_MEMORY
 4073                             		.loc 4 185 5 is_stmt 1
 4074 0838 ED 0E EC                		mov.L	944[r0], r14
 4075 083b 61 5E                   		cmp	#5, r14
 4076 083d 2B 0B                   		ble	.L274
 189:C:\Users\a5116938\Desktop\e2_studio_workspace\EEMBC_final\RX65N_Cloud_Kit\src/tensorflow/lite/kernels/internal\types.h **** #endif  // TF_LITE_STATIC_MEMORY
 4077                             		.loc 4 189 7
 189:C:\Users\a5116938\Desktop\e2_studio_workspace\EEMBC_final\RX65N_Cloud_Kit\src/tensorflow/lite/kernels/internal\types.h **** #endif  // TF_LITE_STATIC_MEMORY
 4078                             		.loc 4 189 29 is_stmt 0
 4079 083f ED 0E EF                		mov.L	956[r0], r14
 4080 0842 61 0E                   		cmp	#0, r14
 4081 0844 3B 9E 0F                		bne	.L929
 4082                             	.LVL439:
 4083 0847 03                      		.balign 8,3,2
 4084                             	.L274:
 4085                             	.LBE1920:
 4086                             	.LBE1919:
 4087                             	.LBB1922:
 4088                             	.LBB1923:
 185:C:\Users\a5116938\Desktop\e2_studio_workspace\EEMBC_final\RX65N_Cloud_Kit\src/tensorflow/lite/kernels/internal\types.h **** #ifdef TF_LITE_STATIC_MEMORY
 4089                             		.loc 4 185 5 is_stmt 1
 4090 0848 ED 07 2C                		mov.L	176[r0], r7
 4091                             	.LVL440:
 4092 084b 61 57                   		cmp	#5, r7
 4093 084d 2B 0C                   		ble	.L300
 189:C:\Users\a5116938\Desktop\e2_studio_workspace\EEMBC_final\RX65N_Cloud_Kit\src/tensorflow/lite/kernels/internal\types.h **** #endif  // TF_LITE_STATIC_MEMORY
 4094                             		.loc 4 189 7
 189:C:\Users\a5116938\Desktop\e2_studio_workspace\EEMBC_final\RX65N_Cloud_Kit\src/tensorflow/lite/kernels/internal\types.h **** #endif  // TF_LITE_STATIC_MEMORY
 4095                             		.loc 4 189 16 is_stmt 0
 4096 084f ED 01 2D                		mov.L	180[r0], r1
 189:C:\Users\a5116938\Desktop\e2_studio_workspace\EEMBC_final\RX65N_Cloud_Kit\src/tensorflow/lite/kernels/internal\types.h **** #endif  // TF_LITE_STATIC_MEMORY
 4097                             		.loc 4 189 29
 4098 0852 61 01                   		cmp	#0, r1
 4099 0854 15                      		beq	.L300
 189:C:\Users\a5116938\Desktop\e2_studio_workspace\EEMBC_final\RX65N_Cloud_Kit\src/tensorflow/lite/kernels/internal\types.h **** #endif  // TF_LITE_STATIC_MEMORY
 4100                             		.loc 4 189 16
 4101 0855 05 00 00 00             		bsr	__ZdaPv
 4102                             	.LVL441:
 4103                             		.balign 8,3,2
 4104                             	.L300:
 4105                             	.LBE1923:
 4106                             	.LBE1922:
 4107                             	.LBE1936:
 4108                             	.LBE1946:
 4109                             	.LBE1956:
 4110                             	.LBB1957:
 4111                             	.LBB1958:
 185:C:\Users\a5116938\Desktop\e2_studio_workspace\EEMBC_final\RX65N_Cloud_Kit\src/tensorflow/lite/kernels/internal\types.h **** #ifdef TF_LITE_STATIC_MEMORY
 4112                             		.loc 4 185 5 is_stmt 1
 4113 0859 ED 07 7A                		mov.L	488[r0], r7
 4114 085c 61 57                   		cmp	#5, r7
 4115 085e 2B 0C                   		ble	.L301
 189:C:\Users\a5116938\Desktop\e2_studio_workspace\EEMBC_final\RX65N_Cloud_Kit\src/tensorflow/lite/kernels/internal\types.h **** #endif  // TF_LITE_STATIC_MEMORY
 4116                             		.loc 4 189 7
 189:C:\Users\a5116938\Desktop\e2_studio_workspace\EEMBC_final\RX65N_Cloud_Kit\src/tensorflow/lite/kernels/internal\types.h **** #endif  // TF_LITE_STATIC_MEMORY
 4117                             		.loc 4 189 16 is_stmt 0
 4118 0860 ED 01 7B                		mov.L	492[r0], r1
 189:C:\Users\a5116938\Desktop\e2_studio_workspace\EEMBC_final\RX65N_Cloud_Kit\src/tensorflow/lite/kernels/internal\types.h **** #endif  // TF_LITE_STATIC_MEMORY
 4119                             		.loc 4 189 29
 4120 0863 61 01                   		cmp	#0, r1
 4121 0865 15                      		beq	.L301
 189:C:\Users\a5116938\Desktop\e2_studio_workspace\EEMBC_final\RX65N_Cloud_Kit\src/tensorflow/lite/kernels/internal\types.h **** #endif  // TF_LITE_STATIC_MEMORY
 4122                             		.loc 4 189 16
 4123 0866 05 00 00 00             		bsr	__ZdaPv
 4124                             	.LVL442:
 4125                             		.balign 8,3,2
 4126                             	.L301:
 4127                             	.LBE1958:
 4128                             	.LBE1957:
 4129                             	.LBB1959:
 4130                             	.LBB1960:
 185:C:\Users\a5116938\Desktop\e2_studio_workspace\EEMBC_final\RX65N_Cloud_Kit\src/tensorflow/lite/kernels/internal\types.h **** #ifdef TF_LITE_STATIC_MEMORY
 4131                             		.loc 4 185 5 is_stmt 1
 4132 086a ED 07 80                		mov.L	512[r0], r7
 4133 086d 61 57                   		cmp	#5, r7
 4134 086f 2A 05 38 69 FA          		ble	.L435
 189:C:\Users\a5116938\Desktop\e2_studio_workspace\EEMBC_final\RX65N_Cloud_Kit\src/tensorflow/lite/kernels/internal\types.h **** #endif  // TF_LITE_STATIC_MEMORY
 4135                             		.loc 4 189 7
 189:C:\Users\a5116938\Desktop\e2_studio_workspace\EEMBC_final\RX65N_Cloud_Kit\src/tensorflow/lite/kernels/internal\types.h **** #endif  // TF_LITE_STATIC_MEMORY
 4136                             		.loc 4 189 16 is_stmt 0
 4137 0874 ED 01 81                		mov.L	516[r0], r1
 189:C:\Users\a5116938\Desktop\e2_studio_workspace\EEMBC_final\RX65N_Cloud_Kit\src/tensorflow/lite/kernels/internal\types.h **** #endif  // TF_LITE_STATIC_MEMORY
 4138                             		.loc 4 189 29
 4139 0877 61 01                   		cmp	#0, r1
 4140 0879 3A 61 FA                		beq	.L435
 4141                             	.LBE1960:
 4142                             	.LBE1959:
 4143                             	.LBE2129:
 4144                             	.LBB2130:
 4145                             	.LBB1360:
 4146                             	.LBB1354:
 189:C:\Users\a5116938\Desktop\e2_studio_workspace\EEMBC_final\RX65N_Cloud_Kit\src/tensorflow/lite/kernels/internal\types.h **** #endif  // TF_LITE_STATIC_MEMORY
 4147                             		.loc 4 189 16
 4148 087c 05 00 00 00             		bsr	__ZdaPv
 4149                             	.LVL443:
 4150 0880 38 5A FA                		bra	.L435
 4151                             	.LVL444:
 4152                             	.L922:
 4153                             	.LBE1354:
 4154                             	.LBE1360:
 4155                             	.LBE2130:
 4156                             	.LBB2131:
 155:../src/tensorflow/lite/micro/kernels/pad.cc ****             data->params, tflite::micro::GetTensorShape(input),
 4157                             		.loc 1 155 9 is_stmt 1
 156:../src/tensorflow/lite/micro/kernels/pad.cc ****             tflite::micro::GetTensorData<float>(input), &pad_value,
 4158                             		.loc 1 156 56 is_stmt 0
 4159 0883 72 0F 90 02             		add	#0x290, r0, r15
 4160 0887 EF B1                   		mov.L	r11, r1
 4161 0889 05 00 00 00             		bsr	__ZN6tflite5micro14GetTensorShapeEPK16TfLiteEvalTensor
 4162                             	.LVL445:
 158:../src/tensorflow/lite/micro/kernels/pad.cc ****             tflite::micro::GetTensorData<float>(output));
 4163                             		.loc 1 158 42
 4164 088d 72 0F 78 02             		add	#0x278, r0, r15
 4165 0891 EF 71                   		mov.L	r7, r1
 4166                             	.LBB1648:
 4167                             	.LBB1649:
 4168                             		.loc 5 62 53
 4169 0893 E4 B0 E9                		mov.L	[r11], 932[r0]
 4170                             	.LVL446:
 4171                             	.LBE1649:
 4172                             	.LBE1648:
 158:../src/tensorflow/lite/micro/kernels/pad.cc ****             tflite::micro::GetTensorData<float>(output));
 4173                             		.loc 1 158 42
 4174 0896 05 00 00 00             		bsr	__ZN6tflite5micro14GetTensorShapeEPK16TfLiteEvalTensor
 4175                             	.LVL447:
 4176                             	.LBB1650:
 4177                             	.LBB1651:
  55:C:\Users\a5116938\Desktop\e2_studio_workspace\EEMBC_final\RX65N_Cloud_Kit\src/tensorflow/lite/micro/kernels\kernel_util.h **** }
 4178                             		.loc 5 55 28
 4179 089a 61 07                   		cmp	#0, r7
 4180 089c 14                      		beq	.L129
 4181 089d EC 77                   		mov.L	[r7], r7
 4182                             	.LVL448:
 4183 089f 03                      		.balign 8,3,2
 4184                             	.L129:
 4185                             	.LBE1651:
 4186                             	.LBE1650:
 4187                             	.LBE2131:
 4188                             	.LBE2219:
 4189                             	.LBE2282:
 262:C:\Users\a5116938\Desktop\e2_studio_workspace\EEMBC_final\RX65N_Cloud_Kit\src/tensorflow/lite/kernels/internal\types.h ****   }
 4190                             		.loc 4 262 5 is_stmt 1
 4191                             	.LBB2283:
 4192                             	.LBB2220:
 4193                             	.LBB2132:
 4194                             	.LBB1652:
 4195                             	.LBB1653:
 4196                             	.LBB1654:
 4197                             	.LBB1655:
 4198                             	.LBB1656:
 4199                             	.LBB1657:
 4200                             	.LBB1658:
 4201                             	.LBB1659:
 4202                             	.LBB1660:
 290:C:\Users\a5116938\Desktop\e2_studio_workspace\EEMBC_final\RX65N_Cloud_Kit\src/tensorflow/lite/kernels/internal\types.h ****     Resize(new_shape_size);
 4203                             		.loc 4 290 5 is_stmt 0
 4204 08a0 ED 03 A4                		mov.L	656[r0], r3
 4205                             	.LBE1660:
 287:C:\Users\a5116938\Desktop\e2_studio_workspace\EEMBC_final\RX65N_Cloud_Kit\src/tensorflow/lite/kernels/internal\types.h ****     // If the following check fails, it is likely because a 4D-only kernel is
 4206                             		.loc 4 287 16
 4207 08a3 F9 06 50 00             		mov.L	#0, 320[r0]
 4208                             	.LBB1672:
 290:C:\Users\a5116938\Desktop\e2_studio_workspace\EEMBC_final\RX65N_Cloud_Kit\src/tensorflow/lite/kernels/internal\types.h ****     Resize(new_shape_size);
 4209                             		.loc 4 290 5 is_stmt 1
 4210                             	.LVL449:
 4211                             	.LBE1672:
 4212                             	.LBE1659:
 4213                             	.LBE1658:
 4214                             	.LBE1657:
 4215                             	.LBE1656:
 4216                             	.LBE1655:
 4217                             	.LBE1654:
 4218                             	.LBE1653:
 4219                             	.LBE1652:
 4220                             	.LBE2132:
 4221                             	.LBE2220:
 4222                             	.LBE2283:
 194:C:\Users\a5116938\Desktop\e2_studio_workspace\EEMBC_final\RX65N_Cloud_Kit\src/tensorflow/lite/kernels/internal\types.h ****   inline int32_t Dims(int i) const {
 4223                             		.loc 4 194 44
 4224                             	.LBB2284:
 4225                             	.LBB2221:
 4226                             	.LBB2133:
 4227                             	.LBB1791:
 4228                             	.LBB1781:
 4229                             	.LBB1771:
 4230                             	.LBB1761:
 4231                             	.LBB1685:
 4232                             	.LBB1682:
 4233                             	.LBB1679:
 4234                             	.LBB1676:
 4235                             	.LBB1673:
 290:C:\Users\a5116938\Desktop\e2_studio_workspace\EEMBC_final\RX65N_Cloud_Kit\src/tensorflow/lite/kernels/internal\types.h ****     Resize(new_shape_size);
 4236                             		.loc 4 290 5 is_stmt 0
 4237 08a7 61 43                   		cmp	#4, r3
 4238 08a9 2B 05 38 C3 10          		bgt	.L119
 291:C:\Users\a5116938\Desktop\e2_studio_workspace\EEMBC_final\RX65N_Cloud_Kit\src/tensorflow/lite/kernels/internal\types.h ****     const int size_increase = new_shape_size - shape.DimensionsCount();
 4239                             		.loc 4 291 5 is_stmt 1
 4240                             	.LVL450:
 4241                             	.LBB1661:
 4242                             	.LBB1662:
 220:C:\Users\a5116938\Desktop\e2_studio_workspace\EEMBC_final\RX65N_Cloud_Kit\src/tensorflow/lite/kernels/internal\types.h **** #ifdef TF_LITE_STATIC_MEMORY
 4243                             		.loc 4 220 5
 227:C:\Users\a5116938\Desktop\e2_studio_workspace\EEMBC_final\RX65N_Cloud_Kit\src/tensorflow/lite/kernels/internal\types.h ****     if (dimensions_count > kMaxSmallSize) {
 4244                             		.loc 4 227 5
 227:C:\Users\a5116938\Desktop\e2_studio_workspace\EEMBC_final\RX65N_Cloud_Kit\src/tensorflow/lite/kernels/internal\types.h ****     if (dimensions_count > kMaxSmallSize) {
 4245                             		.loc 4 227 11 is_stmt 0
 4246 08ae F9 06 50 04             		mov.L	#4, 320[r0]
 228:C:\Users\a5116938\Desktop\e2_studio_workspace\EEMBC_final\RX65N_Cloud_Kit\src/tensorflow/lite/kernels/internal\types.h **** #ifdef TF_LITE_STATIC_MEMORY
 4247                             		.loc 4 228 5 is_stmt 1
 4248                             	.LVL451:
 4249                             	.LBE1662:
 4250                             	.LBE1661:
 292:C:\Users\a5116938\Desktop\e2_studio_workspace\EEMBC_final\RX65N_Cloud_Kit\src/tensorflow/lite/kernels/internal\types.h ****     for (int i = 0; i < size_increase; ++i) {
 4251                             		.loc 4 292 5
 4252                             	.LBE1673:
 4253                             	.LBE1676:
 4254                             	.LBE1679:
 4255                             	.LBE1682:
 4256                             	.LBE1685:
 4257                             	.LBE1761:
 4258                             	.LBE1771:
 4259                             	.LBE1781:
 4260                             	.LBE1791:
 4261                             	.LBE2133:
 4262                             	.LBE2221:
 4263                             	.LBE2284:
 194:C:\Users\a5116938\Desktop\e2_studio_workspace\EEMBC_final\RX65N_Cloud_Kit\src/tensorflow/lite/kernels/internal\types.h ****   inline int32_t Dims(int i) const {
 4264                             		.loc 4 194 44
 4265                             	.LBB2285:
 4266                             	.LBB2222:
 4267                             	.LBB2134:
 4268                             	.LBB1792:
 4269                             	.LBB1782:
 4270                             	.LBB1772:
 4271                             	.LBB1762:
 4272                             	.LBB1686:
 4273                             	.LBB1683:
 4274                             	.LBB1680:
 4275                             	.LBB1677:
 4276                             	.LBB1674:
 292:C:\Users\a5116938\Desktop\e2_studio_workspace\EEMBC_final\RX65N_Cloud_Kit\src/tensorflow/lite/kernels/internal\types.h ****     for (int i = 0; i < size_increase; ++i) {
 4277                             		.loc 4 292 70 is_stmt 0
 4278 08b2 66 41                   		mov.L	#4, r1
 4279 08b4 43 31                   		sub	r3, r1
 4280                             	.LVL452:
 293:C:\Users\a5116938\Desktop\e2_studio_workspace\EEMBC_final\RX65N_Cloud_Kit\src/tensorflow/lite/kernels/internal\types.h ****       SetDim(i, pad_value);
 4281                             		.loc 4 293 5 is_stmt 1
 4282                             	.LBB1663:
 293:C:\Users\a5116938\Desktop\e2_studio_workspace\EEMBC_final\RX65N_Cloud_Kit\src/tensorflow/lite/kernels/internal\types.h ****       SetDim(i, pad_value);
 4283                             		.loc 4 293 23 is_stmt 0
 4284 08b6 20 22                   		beq	.L130
 4285                             	.LVL453:
 4286                             	.LBB1664:
 4287                             	.LBB1665:
 203:C:\Users\a5116938\Desktop\e2_studio_workspace\EEMBC_final\RX65N_Cloud_Kit\src/tensorflow/lite/kernels/internal\types.h ****       dims_pointer_[i] = val;
 4288                             		.loc 4 203 5 is_stmt 1
 206:C:\Users\a5116938\Desktop\e2_studio_workspace\EEMBC_final\RX65N_Cloud_Kit\src/tensorflow/lite/kernels/internal\types.h ****     }
 4289                             		.loc 4 206 7
 206:C:\Users\a5116938\Desktop\e2_studio_workspace\EEMBC_final\RX65N_Cloud_Kit\src/tensorflow/lite/kernels/internal\types.h ****     }
 4290                             		.loc 4 206 16 is_stmt 0
 4291 08b8 F9 06 51 01             		mov.L	#1, 324[r0]
 4292                             	.LVL454:
 4293                             	.LBE1665:
 4294                             	.LBE1664:
 293:C:\Users\a5116938\Desktop\e2_studio_workspace\EEMBC_final\RX65N_Cloud_Kit\src/tensorflow/lite/kernels/internal\types.h ****       SetDim(i, pad_value);
 4295                             		.loc 4 293 23
 4296 08bc 61 11                   		cmp	#1, r1
 4297 08be 20 1A                   		beq	.L130
 294:C:\Users\a5116938\Desktop\e2_studio_workspace\EEMBC_final\RX65N_Cloud_Kit\src/tensorflow/lite/kernels/internal\types.h ****     }
 4298                             		.loc 4 294 7 is_stmt 1
 4299                             	.LVL455:
 4300                             	.LBB1669:
 4301                             	.LBB1666:
 201:C:\Users\a5116938\Desktop\e2_studio_workspace\EEMBC_final\RX65N_Cloud_Kit\src/tensorflow/lite/kernels/internal\types.h ****     TFLITE_DCHECK_LT(i, size_);
 4302                             		.loc 4 201 5
 202:C:\Users\a5116938\Desktop\e2_studio_workspace\EEMBC_final\RX65N_Cloud_Kit\src/tensorflow/lite/kernels/internal\types.h ****     if (size_ > kMaxSmallSize) {
 4303                             		.loc 4 202 5
 203:C:\Users\a5116938\Desktop\e2_studio_workspace\EEMBC_final\RX65N_Cloud_Kit\src/tensorflow/lite/kernels/internal\types.h ****       dims_pointer_[i] = val;
 4304                             		.loc 4 203 5
 206:C:\Users\a5116938\Desktop\e2_studio_workspace\EEMBC_final\RX65N_Cloud_Kit\src/tensorflow/lite/kernels/internal\types.h ****     }
 4305                             		.loc 4 206 7
 206:C:\Users\a5116938\Desktop\e2_studio_workspace\EEMBC_final\RX65N_Cloud_Kit\src/tensorflow/lite/kernels/internal\types.h ****     }
 4306                             		.loc 4 206 16 is_stmt 0
 4307 08c0 F9 06 52 01             		mov.L	#1, 328[r0]
 4308                             	.LVL456:
 4309                             	.LBE1666:
 4310                             	.LBE1669:
 293:C:\Users\a5116938\Desktop\e2_studio_workspace\EEMBC_final\RX65N_Cloud_Kit\src/tensorflow/lite/kernels/internal\types.h ****       SetDim(i, pad_value);
 4311                             		.loc 4 293 23
 4312 08c4 61 21                   		cmp	#2, r1
 4313 08c6 20 12                   		beq	.L130
 294:C:\Users\a5116938\Desktop\e2_studio_workspace\EEMBC_final\RX65N_Cloud_Kit\src/tensorflow/lite/kernels/internal\types.h ****     }
 4314                             		.loc 4 294 7 is_stmt 1
 4315                             	.LVL457:
 4316                             	.LBB1670:
 4317                             	.LBB1667:
 201:C:\Users\a5116938\Desktop\e2_studio_workspace\EEMBC_final\RX65N_Cloud_Kit\src/tensorflow/lite/kernels/internal\types.h ****     TFLITE_DCHECK_LT(i, size_);
 4318                             		.loc 4 201 5
 202:C:\Users\a5116938\Desktop\e2_studio_workspace\EEMBC_final\RX65N_Cloud_Kit\src/tensorflow/lite/kernels/internal\types.h ****     if (size_ > kMaxSmallSize) {
 4319                             		.loc 4 202 5
 203:C:\Users\a5116938\Desktop\e2_studio_workspace\EEMBC_final\RX65N_Cloud_Kit\src/tensorflow/lite/kernels/internal\types.h ****       dims_pointer_[i] = val;
 4320                             		.loc 4 203 5
 206:C:\Users\a5116938\Desktop\e2_studio_workspace\EEMBC_final\RX65N_Cloud_Kit\src/tensorflow/lite/kernels/internal\types.h ****     }
 4321                             		.loc 4 206 7
 206:C:\Users\a5116938\Desktop\e2_studio_workspace\EEMBC_final\RX65N_Cloud_Kit\src/tensorflow/lite/kernels/internal\types.h ****     }
 4322                             		.loc 4 206 16 is_stmt 0
 4323 08c8 F9 06 53 01             		mov.L	#1, 332[r0]
 4324                             	.LVL458:
 4325                             	.LBE1667:
 4326                             	.LBE1670:
 293:C:\Users\a5116938\Desktop\e2_studio_workspace\EEMBC_final\RX65N_Cloud_Kit\src/tensorflow/lite/kernels/internal\types.h ****       SetDim(i, pad_value);
 4327                             		.loc 4 293 23
 4328 08cc 61 31                   		cmp	#3, r1
 4329 08ce 12                      		beq	.L130
 294:C:\Users\a5116938\Desktop\e2_studio_workspace\EEMBC_final\RX65N_Cloud_Kit\src/tensorflow/lite/kernels/internal\types.h ****     }
 4330                             		.loc 4 294 7 is_stmt 1
 4331                             	.LVL459:
 4332                             	.LBB1671:
 4333                             	.LBB1668:
 201:C:\Users\a5116938\Desktop\e2_studio_workspace\EEMBC_final\RX65N_Cloud_Kit\src/tensorflow/lite/kernels/internal\types.h ****     TFLITE_DCHECK_LT(i, size_);
 4334                             		.loc 4 201 5
 202:C:\Users\a5116938\Desktop\e2_studio_workspace\EEMBC_final\RX65N_Cloud_Kit\src/tensorflow/lite/kernels/internal\types.h ****     if (size_ > kMaxSmallSize) {
 4335                             		.loc 4 202 5
 203:C:\Users\a5116938\Desktop\e2_studio_workspace\EEMBC_final\RX65N_Cloud_Kit\src/tensorflow/lite/kernels/internal\types.h ****       dims_pointer_[i] = val;
 4336                             		.loc 4 203 5
 206:C:\Users\a5116938\Desktop\e2_studio_workspace\EEMBC_final\RX65N_Cloud_Kit\src/tensorflow/lite/kernels/internal\types.h ****     }
 4337                             		.loc 4 206 7
 206:C:\Users\a5116938\Desktop\e2_studio_workspace\EEMBC_final\RX65N_Cloud_Kit\src/tensorflow/lite/kernels/internal\types.h ****     }
 4338                             		.loc 4 206 16 is_stmt 0
 4339 08cf F9 06 54 01             		mov.L	#1, 336[r0]
 4340                             	.LVL460:
 4341                             	.LBE1668:
 4342                             	.LBE1671:
 293:C:\Users\a5116938\Desktop\e2_studio_workspace\EEMBC_final\RX65N_Cloud_Kit\src/tensorflow/lite/kernels/internal\types.h ****       SetDim(i, pad_value);
 4343                             		.loc 4 293 23
 4344 08d3 61 41                   		cmp	#4, r1
 4345 08d5 3B 99 10                		bne	.L119
 4346                             	.LVL461:
 4347                             		.balign 8,3,1
 4348                             	.L130:
 4349                             	.LBE1663:
 4350                             	.LBE1674:
 4351                             	.LBE1677:
 4352                             	.LBE1680:
 4353                             	.LBE1683:
 4354                             	.LBE1686:
 4355                             	.LBE1762:
 4356                             	.LBE1772:
 4357                             	.LBE1782:
 4358                             	.LBE1792:
 4359                             	.LBE2134:
 4360                             	.LBE2222:
 4361                             	.LBE2285:
 214:C:\Users\a5116938\Desktop\e2_studio_workspace\EEMBC_final\RX65N_Cloud_Kit\src/tensorflow/lite/kernels/internal\types.h ****   }
 4362                             		.loc 4 214 5 is_stmt 1
 194:C:\Users\a5116938\Desktop\e2_studio_workspace\EEMBC_final\RX65N_Cloud_Kit\src/tensorflow/lite/kernels/internal\types.h ****   inline int32_t Dims(int i) const {
 4363                             		.loc 4 194 44
 4364                             	.LBB2286:
 4365                             	.LBB2223:
 4366                             	.LBB2135:
 4367                             	.LBB1793:
 4368                             	.LBB1783:
 4369                             	.LBB1773:
 4370                             	.LBB1763:
 4371                             	.LBB1687:
 4372                             	.LBB1684:
 4373                             	.LBB1681:
 4374                             	.LBB1678:
 4375                             	.LBB1675:
 4376                             		.loc 4 296 28 is_stmt 0
 4377 08d8 6C 21                   		shll	#2, r1
 4378                             	.LVL462:
 4379                             		.loc 4 296 16
 4380 08da FB 2A 44 01             		mov.L	#0x144, r2
 4381 08de 4B 02                   		add	r0, r2
 4382 08e0 4B 21                   		add	r2, r1
 4383 08e2 72 02 94 02             		add	#0x294, r0, r2
 4384 08e6 6C 23                   		shll	#2, r3
 4385                             	.LVL463:
 4386 08e8 7F 8F                   		smovf
 4387                             	.LVL464:
 4388                             	.LBE1675:
 4389                             	.LBE1678:
 4390                             	.LBE1681:
 4391                             	.LBE1684:
 4392                             	.LBE1687:
 4393                             	.LBE1763:
 4394                             	.LBE1773:
 4395                             	.LBE1783:
 4396                             	.LBE1793:
 4397                             	.LBE2135:
 4398                             	.LBE2223:
 4399                             	.LBE2286:
 262:C:\Users\a5116938\Desktop\e2_studio_workspace\EEMBC_final\RX65N_Cloud_Kit\src/tensorflow/lite/kernels/internal\types.h ****   }
 4400                             		.loc 4 262 5 is_stmt 1
 4401                             	.LBB2287:
 4402                             	.LBB2224:
 4403                             	.LBB2136:
 4404                             	.LBB1794:
 4405                             	.LBB1784:
 4406                             	.LBB1774:
 4407                             	.LBB1764:
 4408                             	.LBB1688:
 4409                             	.LBB1689:
 4410                             	.LBB1690:
 4411                             	.LBB1691:
 4412                             	.LBB1692:
 290:C:\Users\a5116938\Desktop\e2_studio_workspace\EEMBC_final\RX65N_Cloud_Kit\src/tensorflow/lite/kernels/internal\types.h ****     Resize(new_shape_size);
 4413                             		.loc 4 290 5 is_stmt 0
 4414 08ea ED 03 9E                		mov.L	632[r0], r3
 4415                             	.LBE1692:
 287:C:\Users\a5116938\Desktop\e2_studio_workspace\EEMBC_final\RX65N_Cloud_Kit\src/tensorflow/lite/kernels/internal\types.h ****     // If the following check fails, it is likely because a 4D-only kernel is
 4416                             		.loc 4 287 16
 4417 08ed F9 06 4A 00             		mov.L	#0, 296[r0]
 4418                             	.LBB1706:
 290:C:\Users\a5116938\Desktop\e2_studio_workspace\EEMBC_final\RX65N_Cloud_Kit\src/tensorflow/lite/kernels/internal\types.h ****     Resize(new_shape_size);
 4419                             		.loc 4 290 5 is_stmt 1
 4420                             	.LVL465:
 4421                             	.LBE1706:
 4422                             	.LBE1691:
 4423                             	.LBE1690:
 4424                             	.LBE1689:
 4425                             	.LBE1688:
 4426                             	.LBE1764:
 4427                             	.LBE1774:
 4428                             	.LBE1784:
 4429                             	.LBE1794:
 4430                             	.LBE2136:
 4431                             	.LBE2224:
 4432                             	.LBE2287:
 194:C:\Users\a5116938\Desktop\e2_studio_workspace\EEMBC_final\RX65N_Cloud_Kit\src/tensorflow/lite/kernels/internal\types.h ****   inline int32_t Dims(int i) const {
 4433                             		.loc 4 194 44
 4434                             	.LBB2288:
 4435                             	.LBB2225:
 4436                             	.LBB2137:
 4437                             	.LBB1795:
 4438                             	.LBB1785:
 4439                             	.LBB1775:
 4440                             	.LBB1765:
 4441                             	.LBB1719:
 4442                             	.LBB1716:
 4443                             	.LBB1713:
 4444                             	.LBB1710:
 4445                             	.LBB1707:
 290:C:\Users\a5116938\Desktop\e2_studio_workspace\EEMBC_final\RX65N_Cloud_Kit\src/tensorflow/lite/kernels/internal\types.h ****     Resize(new_shape_size);
 4446                             		.loc 4 290 5 is_stmt 0
 4447 08f1 61 43                   		cmp	#4, r3
 4448 08f3 2B 05 38 79 10          		bgt	.L119
 291:C:\Users\a5116938\Desktop\e2_studio_workspace\EEMBC_final\RX65N_Cloud_Kit\src/tensorflow/lite/kernels/internal\types.h ****     const int size_increase = new_shape_size - shape.DimensionsCount();
 4449                             		.loc 4 291 5 is_stmt 1
 4450                             	.LVL466:
 4451                             	.LBB1693:
 4452                             	.LBB1694:
 220:C:\Users\a5116938\Desktop\e2_studio_workspace\EEMBC_final\RX65N_Cloud_Kit\src/tensorflow/lite/kernels/internal\types.h **** #ifdef TF_LITE_STATIC_MEMORY
 4453                             		.loc 4 220 5
 227:C:\Users\a5116938\Desktop\e2_studio_workspace\EEMBC_final\RX65N_Cloud_Kit\src/tensorflow/lite/kernels/internal\types.h ****     if (dimensions_count > kMaxSmallSize) {
 4454                             		.loc 4 227 5
 4455                             	.LBE1694:
 4456                             	.LBE1693:
 292:C:\Users\a5116938\Desktop\e2_studio_workspace\EEMBC_final\RX65N_Cloud_Kit\src/tensorflow/lite/kernels/internal\types.h ****     for (int i = 0; i < size_increase; ++i) {
 4457                             		.loc 4 292 70 is_stmt 0
 4458 08f8 66 41                   		mov.L	#4, r1
 4459 08fa 43 31                   		sub	r3, r1
 4460                             	.LBB1696:
 4461                             	.LBB1695:
 227:C:\Users\a5116938\Desktop\e2_studio_workspace\EEMBC_final\RX65N_Cloud_Kit\src/tensorflow/lite/kernels/internal\types.h ****     if (dimensions_count > kMaxSmallSize) {
 4462                             		.loc 4 227 11
 4463 08fc F9 06 4A 04             		mov.L	#4, 296[r0]
 228:C:\Users\a5116938\Desktop\e2_studio_workspace\EEMBC_final\RX65N_Cloud_Kit\src/tensorflow/lite/kernels/internal\types.h **** #ifdef TF_LITE_STATIC_MEMORY
 4464                             		.loc 4 228 5 is_stmt 1
 4465                             	.LVL467:
 4466                             	.LBE1695:
 4467                             	.LBE1696:
 292:C:\Users\a5116938\Desktop\e2_studio_workspace\EEMBC_final\RX65N_Cloud_Kit\src/tensorflow/lite/kernels/internal\types.h ****     for (int i = 0; i < size_increase; ++i) {
 4468                             		.loc 4 292 5
 4469                             	.LBE1707:
 4470                             	.LBE1710:
 4471                             	.LBE1713:
 4472                             	.LBE1716:
 4473                             	.LBE1719:
 4474                             	.LBE1765:
 4475                             	.LBE1775:
 4476                             	.LBE1785:
 4477                             	.LBE1795:
 4478                             	.LBE2137:
 4479                             	.LBE2225:
 4480                             	.LBE2288:
 194:C:\Users\a5116938\Desktop\e2_studio_workspace\EEMBC_final\RX65N_Cloud_Kit\src/tensorflow/lite/kernels/internal\types.h ****   inline int32_t Dims(int i) const {
 4481                             		.loc 4 194 44
 4482                             	.LBB2289:
 4483                             	.LBB2226:
 4484                             	.LBB2138:
 4485                             	.LBB1796:
 4486                             	.LBB1786:
 4487                             	.LBB1776:
 4488                             	.LBB1766:
 4489                             	.LBB1720:
 4490                             	.LBB1717:
 4491                             	.LBB1714:
 4492                             	.LBB1711:
 4493                             	.LBB1708:
 293:C:\Users\a5116938\Desktop\e2_studio_workspace\EEMBC_final\RX65N_Cloud_Kit\src/tensorflow/lite/kernels/internal\types.h ****       SetDim(i, pad_value);
 4494                             		.loc 4 293 5
 4495                             	.LBB1697:
 293:C:\Users\a5116938\Desktop\e2_studio_workspace\EEMBC_final\RX65N_Cloud_Kit\src/tensorflow/lite/kernels/internal\types.h ****       SetDim(i, pad_value);
 4496                             		.loc 4 293 23 is_stmt 0
 4497 0900 20 22                   		beq	.L132
 4498                             	.LVL468:
 4499                             	.LBB1698:
 4500                             	.LBB1699:
 203:C:\Users\a5116938\Desktop\e2_studio_workspace\EEMBC_final\RX65N_Cloud_Kit\src/tensorflow/lite/kernels/internal\types.h ****       dims_pointer_[i] = val;
 4501                             		.loc 4 203 5 is_stmt 1
 206:C:\Users\a5116938\Desktop\e2_studio_workspace\EEMBC_final\RX65N_Cloud_Kit\src/tensorflow/lite/kernels/internal\types.h ****     }
 4502                             		.loc 4 206 7
 206:C:\Users\a5116938\Desktop\e2_studio_workspace\EEMBC_final\RX65N_Cloud_Kit\src/tensorflow/lite/kernels/internal\types.h ****     }
 4503                             		.loc 4 206 16 is_stmt 0
 4504 0902 F9 06 4B 01             		mov.L	#1, 300[r0]
 4505                             	.LVL469:
 4506                             	.LBE1699:
 4507                             	.LBE1698:
 293:C:\Users\a5116938\Desktop\e2_studio_workspace\EEMBC_final\RX65N_Cloud_Kit\src/tensorflow/lite/kernels/internal\types.h ****       SetDim(i, pad_value);
 4508                             		.loc 4 293 23
 4509 0906 61 11                   		cmp	#1, r1
 4510 0908 20 1A                   		beq	.L132
 294:C:\Users\a5116938\Desktop\e2_studio_workspace\EEMBC_final\RX65N_Cloud_Kit\src/tensorflow/lite/kernels/internal\types.h ****     }
 4511                             		.loc 4 294 7 is_stmt 1
 4512                             	.LVL470:
 4513                             	.LBB1703:
 4514                             	.LBB1700:
 201:C:\Users\a5116938\Desktop\e2_studio_workspace\EEMBC_final\RX65N_Cloud_Kit\src/tensorflow/lite/kernels/internal\types.h ****     TFLITE_DCHECK_LT(i, size_);
 4515                             		.loc 4 201 5
 202:C:\Users\a5116938\Desktop\e2_studio_workspace\EEMBC_final\RX65N_Cloud_Kit\src/tensorflow/lite/kernels/internal\types.h ****     if (size_ > kMaxSmallSize) {
 4516                             		.loc 4 202 5
 203:C:\Users\a5116938\Desktop\e2_studio_workspace\EEMBC_final\RX65N_Cloud_Kit\src/tensorflow/lite/kernels/internal\types.h ****       dims_pointer_[i] = val;
 4517                             		.loc 4 203 5
 206:C:\Users\a5116938\Desktop\e2_studio_workspace\EEMBC_final\RX65N_Cloud_Kit\src/tensorflow/lite/kernels/internal\types.h ****     }
 4518                             		.loc 4 206 7
 206:C:\Users\a5116938\Desktop\e2_studio_workspace\EEMBC_final\RX65N_Cloud_Kit\src/tensorflow/lite/kernels/internal\types.h ****     }
 4519                             		.loc 4 206 16 is_stmt 0
 4520 090a F9 06 4C 01             		mov.L	#1, 304[r0]
 4521                             	.LVL471:
 4522                             	.LBE1700:
 4523                             	.LBE1703:
 293:C:\Users\a5116938\Desktop\e2_studio_workspace\EEMBC_final\RX65N_Cloud_Kit\src/tensorflow/lite/kernels/internal\types.h ****       SetDim(i, pad_value);
 4524                             		.loc 4 293 23
 4525 090e 61 21                   		cmp	#2, r1
 4526 0910 20 12                   		beq	.L132
 294:C:\Users\a5116938\Desktop\e2_studio_workspace\EEMBC_final\RX65N_Cloud_Kit\src/tensorflow/lite/kernels/internal\types.h ****     }
 4527                             		.loc 4 294 7 is_stmt 1
 4528                             	.LVL472:
 4529                             	.LBB1704:
 4530                             	.LBB1701:
 201:C:\Users\a5116938\Desktop\e2_studio_workspace\EEMBC_final\RX65N_Cloud_Kit\src/tensorflow/lite/kernels/internal\types.h ****     TFLITE_DCHECK_LT(i, size_);
 4531                             		.loc 4 201 5
 202:C:\Users\a5116938\Desktop\e2_studio_workspace\EEMBC_final\RX65N_Cloud_Kit\src/tensorflow/lite/kernels/internal\types.h ****     if (size_ > kMaxSmallSize) {
 4532                             		.loc 4 202 5
 203:C:\Users\a5116938\Desktop\e2_studio_workspace\EEMBC_final\RX65N_Cloud_Kit\src/tensorflow/lite/kernels/internal\types.h ****       dims_pointer_[i] = val;
 4533                             		.loc 4 203 5
 206:C:\Users\a5116938\Desktop\e2_studio_workspace\EEMBC_final\RX65N_Cloud_Kit\src/tensorflow/lite/kernels/internal\types.h ****     }
 4534                             		.loc 4 206 7
 206:C:\Users\a5116938\Desktop\e2_studio_workspace\EEMBC_final\RX65N_Cloud_Kit\src/tensorflow/lite/kernels/internal\types.h ****     }
 4535                             		.loc 4 206 16 is_stmt 0
 4536 0912 F9 06 4D 01             		mov.L	#1, 308[r0]
 4537                             	.LVL473:
 4538                             	.LBE1701:
 4539                             	.LBE1704:
 293:C:\Users\a5116938\Desktop\e2_studio_workspace\EEMBC_final\RX65N_Cloud_Kit\src/tensorflow/lite/kernels/internal\types.h ****       SetDim(i, pad_value);
 4540                             		.loc 4 293 23
 4541 0916 61 31                   		cmp	#3, r1
 4542 0918 12                      		beq	.L132
 294:C:\Users\a5116938\Desktop\e2_studio_workspace\EEMBC_final\RX65N_Cloud_Kit\src/tensorflow/lite/kernels/internal\types.h ****     }
 4543                             		.loc 4 294 7 is_stmt 1
 4544                             	.LVL474:
 4545                             	.LBB1705:
 4546                             	.LBB1702:
 201:C:\Users\a5116938\Desktop\e2_studio_workspace\EEMBC_final\RX65N_Cloud_Kit\src/tensorflow/lite/kernels/internal\types.h ****     TFLITE_DCHECK_LT(i, size_);
 4547                             		.loc 4 201 5
 202:C:\Users\a5116938\Desktop\e2_studio_workspace\EEMBC_final\RX65N_Cloud_Kit\src/tensorflow/lite/kernels/internal\types.h ****     if (size_ > kMaxSmallSize) {
 4548                             		.loc 4 202 5
 203:C:\Users\a5116938\Desktop\e2_studio_workspace\EEMBC_final\RX65N_Cloud_Kit\src/tensorflow/lite/kernels/internal\types.h ****       dims_pointer_[i] = val;
 4549                             		.loc 4 203 5
 206:C:\Users\a5116938\Desktop\e2_studio_workspace\EEMBC_final\RX65N_Cloud_Kit\src/tensorflow/lite/kernels/internal\types.h ****     }
 4550                             		.loc 4 206 7
 206:C:\Users\a5116938\Desktop\e2_studio_workspace\EEMBC_final\RX65N_Cloud_Kit\src/tensorflow/lite/kernels/internal\types.h ****     }
 4551                             		.loc 4 206 16 is_stmt 0
 4552 0919 F9 06 4E 01             		mov.L	#1, 312[r0]
 4553                             	.LVL475:
 4554                             	.LBE1702:
 4555                             	.LBE1705:
 293:C:\Users\a5116938\Desktop\e2_studio_workspace\EEMBC_final\RX65N_Cloud_Kit\src/tensorflow/lite/kernels/internal\types.h ****       SetDim(i, pad_value);
 4556                             		.loc 4 293 23
 4557 091d 61 41                   		cmp	#4, r1
 4558 091f 3B 4F 10                		bne	.L119
 4559                             	.LVL476:
 4560                             		.balign 8,3,1
 4561                             	.L132:
 4562                             	.LBE1697:
 4563                             	.LBE1708:
 4564                             	.LBE1711:
 4565                             	.LBE1714:
 4566                             	.LBE1717:
 4567                             	.LBE1720:
 4568                             	.LBE1766:
 4569                             	.LBE1776:
 4570                             	.LBE1786:
 4571                             	.LBE1796:
 4572                             	.LBE2138:
 4573                             	.LBE2226:
 4574                             	.LBE2289:
 214:C:\Users\a5116938\Desktop\e2_studio_workspace\EEMBC_final\RX65N_Cloud_Kit\src/tensorflow/lite/kernels/internal\types.h ****   }
 4575                             		.loc 4 214 5 is_stmt 1
 194:C:\Users\a5116938\Desktop\e2_studio_workspace\EEMBC_final\RX65N_Cloud_Kit\src/tensorflow/lite/kernels/internal\types.h ****   inline int32_t Dims(int i) const {
 4576                             		.loc 4 194 44
 4577                             	.LBB2290:
 4578                             	.LBB2227:
 4579                             	.LBB2139:
 4580                             	.LBB1797:
 4581                             	.LBB1787:
 4582                             	.LBB1777:
 4583                             	.LBB1767:
 4584                             	.LBB1721:
 4585                             	.LBB1718:
 4586                             	.LBB1715:
 4587                             	.LBB1712:
 4588                             	.LBB1709:
 4589                             		.loc 4 296 28 is_stmt 0
 4590 0922 6C 21                   		shll	#2, r1
 4591                             	.LVL477:
 4592                             		.loc 4 296 16
 4593 0924 FB 4A 2C 01             		mov.L	#0x12c, r4
 4594 0928 4B 04                   		add	r0, r4
 4595 092a 4B 41                   		add	r4, r1
 4596 092c 72 02 7C 02             		add	#0x27c, r0, r2
 4597 0930 6C 23                   		shll	#2, r3
 4598                             	.LVL478:
 4599 0932 7F 8F                   		smovf
 4600                             	.LVL479:
 4601                             	.LBE1709:
 4602                             	.LBE1712:
 4603                             	.LBE1715:
 4604                             	.LBE1718:
 4605                             	.LBE1721:
  46:C:\Users\a5116938\Desktop\e2_studio_workspace\EEMBC_final\RX65N_Cloud_Kit\src/tensorflow/lite/kernels/internal/reference\pad.h ****   TFLITE_DCHECK_LE(op_params.right_padding_count, PadKernelMaxDimensionCount());
 4606                             		.loc 6 46 3
 4607 0934 CC 63                   		mov.B	[r6], r3
 4608 0936 61 43                   		cmp	#4, r3
 4609 0938 2B 05 38 34 10          		bgt	.L119
  47:C:\Users\a5116938\Desktop\e2_studio_workspace\EEMBC_final\RX65N_Cloud_Kit\src/tensorflow/lite/kernels/internal/reference\pad.h **** 
 4610                             		.loc 6 47 3
 4611 093d 8D 65                   		mov.B	20[r6], r5
 4612 093f 61 45                   		cmp	#4, r5
 4613 0941 2B 05 38 2B 10          		bgt	.L119
 4614                             	.LVL480:
 4615                             	.LBB1722:
  53:C:\Users\a5116938\Desktop\e2_studio_workspace\EEMBC_final\RX65N_Cloud_Kit\src/tensorflow/lite/kernels/internal/reference\pad.h ****   }
 4616                             		.loc 6 53 5
 4617 0946 F9 06 DE 00             		mov.L	#0, 888[r0]
 4618                             	.LVL481:
 4619 094a F9 06 DF 00             		mov.L	#0, 892[r0]
 4620                             	.LVL482:
 4621 094e F9 06 E0 00             		mov.L	#0, 896[r0]
 4622                             	.LVL483:
 4623 0952 F9 06 E1 00             		mov.L	#0, 900[r0]
 4624                             	.LVL484:
 4625                             	.LBE1722:
 4626                             	.LBB1723:
  55:C:\Users\a5116938\Desktop\e2_studio_workspace\EEMBC_final\RX65N_Cloud_Kit\src/tensorflow/lite/kernels/internal/reference\pad.h ****     left_padding_copy[i + PadKernelMaxDimensionCount() -
 4627                             		.loc 6 55 21
 4628 0956 61 03                   		cmp	#0, r3
 4629 0958 2B 18                   		ble	.L137
 4630 095a 66 41                   		mov.L	#4, r1
 4631 095c 43 31                   		sub	r3, r1
 4632 095e 71 62 04                		add	#4, r6, r2
 4633 0961 6C 21                   		shll	#2, r1
 4634 0963 6C 23                   		shll	#2, r3
 4635 0965 FB 9A 78 03             		mov.L	#0x378, r9
 4636 0969 4B 09                   		add	r0, r9
 4637 096b 4B 91                   		add	r9, r1
 4638 096d 7F 8F                   		smovf
 4639 096f 03                      		.balign 8,3,4
 4640                             	.L137:
 4641                             	.LVL485:
 4642                             	.LBE1723:
 4643                             	.LBB1724:
  61:C:\Users\a5116938\Desktop\e2_studio_workspace\EEMBC_final\RX65N_Cloud_Kit\src/tensorflow/lite/kernels/internal/reference\pad.h ****   }
 4644                             		.loc 6 61 5
 4645 0970 F9 06 DA 00             		mov.L	#0, 872[r0]
 4646                             	.LVL486:
 4647 0974 F9 06 DB 00             		mov.L	#0, 876[r0]
 4648                             	.LVL487:
 4649 0978 F9 06 DC 00             		mov.L	#0, 880[r0]
 4650                             	.LVL488:
 4651 097c F9 06 DD 00             		mov.L	#0, 884[r0]
 4652                             	.LVL489:
 4653                             	.LBE1724:
 4654                             	.LBB1725:
  63:C:\Users\a5116938\Desktop\e2_studio_workspace\EEMBC_final\RX65N_Cloud_Kit\src/tensorflow/lite/kernels/internal/reference\pad.h ****     right_padding_copy[i + PadKernelMaxDimensionCount() -
 4655                             		.loc 6 63 21
 4656 0980 61 05                   		cmp	#0, r5
 4657 0982 2B 18                   		ble	.L138
 4658 0984 66 41                   		mov.L	#4, r1
 4659 0986 43 51                   		sub	r5, r1
 4660 0988 71 62 18                		add	#24, r6, r2
 4661 098b 6C 21                   		shll	#2, r1
 4662 098d FD C2 53                		shll	#2, r5, r3
 4663 0990 FB EA 68 03             		mov.L	#0x368, r14
 4664 0994 4B 0E                   		add	r0, r14
 4665 0996 4B E1                   		add	r14, r1
 4666 0998 7F 8F                   		smovf
 4667                             		.balign 8,3,1
 4668                             	.L138:
 4669                             	.LVL490:
 4670                             	.LBE1725:
 4671                             	.LBB1726:
 4672                             	.LBB1727:
 196:C:\Users\a5116938\Desktop\e2_studio_workspace\EEMBC_final\RX65N_Cloud_Kit\src/tensorflow/lite/kernels/internal\types.h ****     TFLITE_DCHECK_LT(i, size_);
 4673                             		.loc 4 196 5 is_stmt 1
 197:C:\Users\a5116938\Desktop\e2_studio_workspace\EEMBC_final\RX65N_Cloud_Kit\src/tensorflow/lite/kernels/internal\types.h ****     return size_ > kMaxSmallSize ? dims_pointer_[i] : dims_[i];
 4674                             		.loc 4 197 5
 4675 099a E5 00 4A EB             		mov.L	296[r0], 940[r0]
 4676 099e ED 05 EB                		mov.L	940[r0], r5
 4677 09a1 61 05                   		cmp	#0, r5
 4678 09a3 2A 05 38 C9 0F          		ble	.L119
 198:C:\Users\a5116938\Desktop\e2_studio_workspace\EEMBC_final\RX65N_Cloud_Kit\src/tensorflow/lite/kernels/internal\types.h ****   }
 4679                             		.loc 4 198 5
 4680 09a8 E5 00 4B ED             		mov.L	300[r0], 948[r0]
 198:C:\Users\a5116938\Desktop\e2_studio_workspace\EEMBC_final\RX65N_Cloud_Kit\src/tensorflow/lite/kernels/internal\types.h ****   }
 4681                             		.loc 4 198 34 is_stmt 0
 4682 09ac 61 55                   		cmp	#5, r5
 4683 09ae 2B 05 38 74 0D          		bgt	.L930
 4684                             	.LVL491:
 4685                             	.LBE1727:
 4686                             	.LBE1726:
 4687                             	.LBB1729:
 4688                             	.LBB1730:
 196:C:\Users\a5116938\Desktop\e2_studio_workspace\EEMBC_final\RX65N_Cloud_Kit\src/tensorflow/lite/kernels/internal\types.h ****     TFLITE_DCHECK_LT(i, size_);
 4689                             		.loc 4 196 5 is_stmt 1
 197:C:\Users\a5116938\Desktop\e2_studio_workspace\EEMBC_final\RX65N_Cloud_Kit\src/tensorflow/lite/kernels/internal\types.h ****     return size_ > kMaxSmallSize ? dims_pointer_[i] : dims_[i];
 4690                             		.loc 4 197 5
 4691 09b3 61 15                   		cmp	#1, r5
 4692 09b5 3A B9 0F                		beq	.L119
 198:C:\Users\a5116938\Desktop\e2_studio_workspace\EEMBC_final\RX65N_Cloud_Kit\src/tensorflow/lite/kernels/internal\types.h ****   }
 4693                             		.loc 4 198 34 is_stmt 0
 4694 09b8 ED 0F 4C                		mov.L	304[r0], r15
 4695                             	.LVL492:
 4696                             	.LBE1730:
 4697                             	.LBE1729:
 4698                             	.LBB1732:
 4699                             	.LBB1733:
 196:C:\Users\a5116938\Desktop\e2_studio_workspace\EEMBC_final\RX65N_Cloud_Kit\src/tensorflow/lite/kernels/internal\types.h ****     TFLITE_DCHECK_LT(i, size_);
 4700                             		.loc 4 196 5 is_stmt 1
 197:C:\Users\a5116938\Desktop\e2_studio_workspace\EEMBC_final\RX65N_Cloud_Kit\src/tensorflow/lite/kernels/internal\types.h ****     return size_ > kMaxSmallSize ? dims_pointer_[i] : dims_[i];
 4701                             		.loc 4 197 5
 4702 09bb 61 25                   		cmp	#2, r5
 4703 09bd 3A B1 0F                		beq	.L119
 198:C:\Users\a5116938\Desktop\e2_studio_workspace\EEMBC_final\RX65N_Cloud_Kit\src/tensorflow/lite/kernels/internal\types.h ****   }
 4704                             		.loc 4 198 34 is_stmt 0
 4705 09c0 ED 0E 4D                		mov.L	308[r0], r14
 4706                             	.LVL493:
 4707                             	.LBE1733:
 4708                             	.LBE1732:
 4709                             	.LBB1735:
 4710                             	.LBB1736:
 196:C:\Users\a5116938\Desktop\e2_studio_workspace\EEMBC_final\RX65N_Cloud_Kit\src/tensorflow/lite/kernels/internal\types.h ****     TFLITE_DCHECK_LT(i, size_);
 4711                             		.loc 4 196 5 is_stmt 1
 197:C:\Users\a5116938\Desktop\e2_studio_workspace\EEMBC_final\RX65N_Cloud_Kit\src/tensorflow/lite/kernels/internal\types.h ****     return size_ > kMaxSmallSize ? dims_pointer_[i] : dims_[i];
 4712                             		.loc 4 197 5
 4713 09c3 61 35                   		cmp	#3, r5
 4714 09c5 3A A9 0F                		beq	.L119
 198:C:\Users\a5116938\Desktop\e2_studio_workspace\EEMBC_final\RX65N_Cloud_Kit\src/tensorflow/lite/kernels/internal\types.h ****   }
 4715                             		.loc 4 198 34 is_stmt 0
 4716 09c8 ED 05 4E                		mov.L	312[r0], r5
 4717                             	.LVL494:
 4718                             	.LBE1736:
 4719                             	.LBE1735:
  74:C:\Users\a5116938\Desktop\e2_studio_workspace\EEMBC_final\RX65N_Cloud_Kit\src/tensorflow/lite/kernels/internal/reference\pad.h ****   const int left_h_padding = left_padding_copy[1];
 4720                             		.loc 6 74 13
 4721 09cb E5 00 DE E5             		mov.L	888[r0], 916[r0]
 4722                             	.LVL495:
  75:C:\Users\a5116938\Desktop\e2_studio_workspace\EEMBC_final\RX65N_Cloud_Kit\src/tensorflow/lite/kernels/internal/reference\pad.h ****   const int left_w_padding = left_padding_copy[2];
 4723                             		.loc 6 75 13
 4724 09cf E5 00 DF E4             		mov.L	892[r0], 912[r0]
 4725                             	.LVL496:
  76:C:\Users\a5116938\Desktop\e2_studio_workspace\EEMBC_final\RX65N_Cloud_Kit\src/tensorflow/lite/kernels/internal/reference\pad.h ****   const int left_d_padding = left_padding_copy[3];
 4726                             		.loc 6 76 13
 4727 09d3 E5 00 E0 E3             		mov.L	896[r0], 908[r0]
 4728                             	.LVL497:
  77:C:\Users\a5116938\Desktop\e2_studio_workspace\EEMBC_final\RX65N_Cloud_Kit\src/tensorflow/lite/kernels/internal/reference\pad.h **** 
 4729                             		.loc 6 77 13
 4730 09d7 E5 00 E1 EC             		mov.L	900[r0], 944[r0]
 4731                             	.LVL498:
  79:C:\Users\a5116938\Desktop\e2_studio_workspace\EEMBC_final\RX65N_Cloud_Kit\src/tensorflow/lite/kernels/internal/reference\pad.h ****   const int right_h_padding = right_padding_copy[1];
 4732                             		.loc 6 79 13
 4733 09db E5 00 DA EA             		mov.L	872[r0], 936[r0]
 4734                             	.LVL499:
  80:C:\Users\a5116938\Desktop\e2_studio_workspace\EEMBC_final\RX65N_Cloud_Kit\src/tensorflow/lite/kernels/internal/reference\pad.h ****   const int right_w_padding = right_padding_copy[2];
 4735                             		.loc 6 80 13
 4736 09df ED 0D DB                		mov.L	876[r0], r13
 4737                             	.LVL500:
  81:C:\Users\a5116938\Desktop\e2_studio_workspace\EEMBC_final\RX65N_Cloud_Kit\src/tensorflow/lite/kernels/internal/reference\pad.h ****   const int right_d_padding = right_padding_copy[3];
 4738                             		.loc 6 81 13
 4739 09e2 ED 04 DC                		mov.L	880[r0], r4
 4740                             	.LVL501:
  82:C:\Users\a5116938\Desktop\e2_studio_workspace\EEMBC_final\RX65N_Cloud_Kit\src/tensorflow/lite/kernels/internal/reference\pad.h **** 
 4741                             		.loc 6 82 13
 4742 09e5 ED 03 DD                		mov.L	884[r0], r3
 4743                             	.LVL502:
 4744                             	.LBB1738:
  88:C:\Users\a5116938\Desktop\e2_studio_workspace\EEMBC_final\RX65N_Cloud_Kit\src/tensorflow/lite/kernels/internal/reference\pad.h ****     for (int out_h = 0; out_h < output_height; ++out_h) {
 4745                             		.loc 6 88 29
 4746 09e8 E5 00 ED E6             		mov.L	948[r0], 920[r0]
 4747 09ec ED 09 ED                		mov.L	948[r0], r9
 4748 09ef 61 09                   		cmp	#0, r9
 4749 09f1 2A 05 38 F1 00          		ble	.L144
 4750                             	.LVL503:
 4751                             		.balign 8,3,1
 4752                             	.L141:
 4753 09f6 61 0F                   		cmp	#0, r15
 4754 09f8 2A 05 38 D6 00          		ble	.L145
 4755 09fd FF 03 35                		sub	r3, r5, r3
 4756                             	.LVL504:
 4757 0a00 E7 03 E2                		mov.L	r3, 904[r0]
 4758 0a03 FD C2 52                		shll	#2, r5, r2
 4759 0a06 66 0B                   		mov.L	#0, r11
 4760                             	.LVL505:
 4761                             	.LBB1739:
 4762                             	.LBB1740:
 4763                             	.LBB1741:
  95:C:\Users\a5116938\Desktop\e2_studio_workspace\EEMBC_final\RX65N_Cloud_Kit\src/tensorflow/lite/kernels/internal/reference\pad.h ****               out_w < left_w_padding ||
 4764                             		.loc 6 95 38
 4765 0a08 FF 0D DF                		sub	r13, r15, r13
 4766                             	.LVL506:
 4767 0a0b FC 17 53                		min	r5, r3
 4768 0a0e E7 03 E8                		mov.L	r3, 928[r0]
  97:C:\Users\a5116938\Desktop\e2_studio_workspace\EEMBC_final\RX65N_Cloud_Kit\src/tensorflow/lite/kernels/internal/reference\pad.h ****               out_d < left_d_padding ||
 4769                             		.loc 6 97 37
 4770 0a11 FF 04 4E                		sub	r4, r14, r4
 4771                             	.LVL507:
 4772 0a14 E7 04 E7                		mov.L	r4, 924[r0]
 4773                             	.LVL508:
 4774 0a17 03                      		.balign 8,3,2
 4775                             	.L165:
  93:C:\Users\a5116938\Desktop\e2_studio_workspace\EEMBC_final\RX65N_Cloud_Kit\src/tensorflow/lite/kernels/internal/reference\pad.h ****               out_h < left_h_padding ||
 4776                             		.loc 6 93 37
 4777 0a18 ED 09 E6                		mov.L	920[r0], r9
 4778 0a1b ED 03 EA                		mov.L	936[r0], r3
 4779 0a1e 43 39                   		sub	r3, r9
 4780                             	.LBE1741:
 4781                             	.LBE1740:
  89:C:\Users\a5116938\Desktop\e2_studio_workspace\EEMBC_final\RX65N_Cloud_Kit\src/tensorflow/lite/kernels/internal/reference\pad.h ****       for (int out_w = 0; out_w < output_width; ++out_w) {
 4782                             		.loc 6 89 14
 4783 0a20 66 01                   		mov.L	#0, r1
 4784                             	.LVL509:
 4785                             		.balign 8,3,1
 4786                             	.L164:
 4787                             	.LBB1745:
  90:C:\Users\a5116938\Desktop\e2_studio_workspace\EEMBC_final\RX65N_Cloud_Kit\src/tensorflow/lite/kernels/internal/reference\pad.h ****         for (int out_d = 0; out_d < output_depth; ++out_d) {
 4788                             		.loc 6 90 33
 4789 0a22 61 0E                   		cmp	#0, r14
 4790 0a24 2A 05 38 97 00          		ble	.L146
  90:C:\Users\a5116938\Desktop\e2_studio_workspace\EEMBC_final\RX65N_Cloud_Kit\src/tensorflow/lite/kernels/internal/reference\pad.h ****         for (int out_d = 0; out_d < output_depth; ++out_d) {
 4791                             		.loc 6 90 16
 4792 0a29 66 06                   		mov.L	#0, r6
 4793                             	.LVL510:
 4794                             		.balign 8,3,1
 4795                             	.L163:
 4796                             	.LBB1742:
  91:C:\Users\a5116938\Desktop\e2_studio_workspace\EEMBC_final\RX65N_Cloud_Kit\src/tensorflow/lite/kernels/internal/reference\pad.h ****           if (out_b < left_b_padding ||
 4797                             		.loc 6 91 35
 4798 0a2b 61 05                   		cmp	#0, r5
 4799 0a2d 2A 05 38 87 00          		ble	.L147
 4800 0a32 ED 04 E5                		mov.L	916[r0], r4
 4801 0a35 47 4B                   		cmp	r4, r11
 4802 0a37 28 05 38 19 0F          		blt	.L441
 4803 0a3c ED 03 E7                		mov.L	924[r0], r3
 4804 0a3f 47 63                   		cmp	r6, r3
 4805 0a41 2A 05 38 B9 0E          		ble	.L149
 4806 0a46 47 B9                   		cmp	r11, r9
 4807 0a48 2A 05 38 A4 0E          		ble	.L442
 4808 0a4d 47 1D                   		cmp	r1, r13
 4809 0a4f 2A 05 38 8F 0E          		ble	.L443
 4810 0a54 ED 04 E2                		mov.L	904[r0], r4
 4811 0a57 61 04                   		cmp	#0, r4
 4812 0a59 2A 05 38 B3 0D          		ble	.L444
  97:C:\Users\a5116938\Desktop\e2_studio_workspace\EEMBC_final\RX65N_Cloud_Kit\src/tensorflow/lite/kernels/internal/reference\pad.h ****               out_d < left_d_padding ||
 4813                             		.loc 6 97 37
 4814 0a5e EF 7C                   		mov.L	r7, r12
  91:C:\Users\a5116938\Desktop\e2_studio_workspace\EEMBC_final\RX65N_Cloud_Kit\src/tensorflow/lite/kernels/internal/reference\pad.h ****           if (out_b < left_b_padding ||
 4815                             		.loc 6 91 18
 4816 0a60 66 04                   		mov.L	#0, r4
 4817 0a62 EF 98                   		mov.L	r9, r8
 4818 0a64 E7 07 EE                		mov.L	r7, 952[r0]
 4819 0a67 2E 26                   		bra	.L154
 4820                             	.LVL511:
 4821                             	.L932:
  95:C:\Users\a5116938\Desktop\e2_studio_workspace\EEMBC_final\RX65N_Cloud_Kit\src/tensorflow/lite/kernels/internal/reference\pad.h ****               out_w < left_w_padding ||
 4822                             		.loc 6 95 56
 4823 0a69 ED 09 E3                		mov.L	908[r0], r9
 4824 0a6c 47 96                   		cmp	r9, r6
 4825 0a6e 29 2A                   		blt	.L447
  97:C:\Users\a5116938\Desktop\e2_studio_workspace\EEMBC_final\RX65N_Cloud_Kit\src/tensorflow/lite/kernels/internal/reference\pad.h ****               out_d < left_d_padding ||
 4826                             		.loc 6 97 55
 4827 0a70 ED 07 EC                		mov.L	944[r0], r7
 4828 0a73 47 47                   		cmp	r4, r7
 4829 0a75 2A 23                   		bgt	.L447
 4830                             	.LVL512:
 4831                             		.loc 6 102 13
 4832 0a77 ED 07 E9                		mov.L	932[r0], r7
 4833 0a7a FD 2A 79                		mov.L	[r7+], r9
 4834 0a7d E7 07 E9                		mov.L	r7, 932[r0]
 4835                             	.LVL513:
 4836 0a80 E3 C9                   		mov.L	r9, [r12]
 4837                             	.LVL514:
  91:C:\Users\a5116938\Desktop\e2_studio_workspace\EEMBC_final\RX65N_Cloud_Kit\src/tensorflow/lite/kernels/internal/reference\pad.h ****           if (out_b < left_b_padding ||
 4838                             		.loc 6 91 9
 4839 0a82 62 14                   		add	#1, r4
 4840                             	.LVL515:
 4841 0a84 EF 3C                   		mov.L	r3, r12
  91:C:\Users\a5116938\Desktop\e2_studio_workspace\EEMBC_final\RX65N_Cloud_Kit\src/tensorflow/lite/kernels/internal/reference\pad.h ****           if (out_b < left_b_padding ||
 4842                             		.loc 6 91 35
 4843 0a86 ED 09 E8                		mov.L	928[r0], r9
 4844 0a89 47 94                   		cmp	r9, r4
 4845 0a8b 28 1D                   		bge	.L931
 4846                             	.LVL516:
 4847                             		.balign 8,3,2
 4848                             	.L154:
 4849 0a8d 71 C3 04                		add	#4, r12, r3
  93:C:\Users\a5116938\Desktop\e2_studio_workspace\EEMBC_final\RX65N_Cloud_Kit\src/tensorflow/lite/kernels/internal/reference\pad.h ****               out_h < left_h_padding ||
 4850                             		.loc 6 93 55
 4851 0a90 ED 07 E4                		mov.L	912[r0], r7
 4852 0a93 47 71                   		cmp	r7, r1
 4853 0a95 28 D4                   		bge	.L932
 4854 0a97 03                      		.balign 8,3,1
 4855                             	.L447:
 100:C:\Users\a5116938\Desktop\e2_studio_workspace\EEMBC_final\RX65N_Cloud_Kit\src/tensorflow/lite/kernels/internal/reference\pad.h ****           } else {
 4856                             		.loc 6 100 13
 4857 0a98 EF A9                   		mov.L	r10, r9
 4858 0a9a E3 C9                   		mov.L	r9, [r12]
 4859                             	.LVL517:
  91:C:\Users\a5116938\Desktop\e2_studio_workspace\EEMBC_final\RX65N_Cloud_Kit\src/tensorflow/lite/kernels/internal/reference\pad.h ****           if (out_b < left_b_padding ||
 4860                             		.loc 6 91 9
 4861 0a9c 62 14                   		add	#1, r4
 4862                             	.LVL518:
 4863 0a9e EF 3C                   		mov.L	r3, r12
  91:C:\Users\a5116938\Desktop\e2_studio_workspace\EEMBC_final\RX65N_Cloud_Kit\src/tensorflow/lite/kernels/internal/reference\pad.h ****           if (out_b < left_b_padding ||
 4864                             		.loc 6 91 35
 4865 0aa0 ED 09 E8                		mov.L	928[r0], r9
 4866 0aa3 47 94                   		cmp	r9, r4
 4867 0aa5 29 E8                   		blt	.L154
 4868                             	.LVL519:
 4869 0aa7 03                      		.balign 8,3,1
 4870                             	.L931:
 4871 0aa8 EF 89                   		mov.L	r8, r9
 4872 0aaa ED 07 EE                		mov.L	952[r0], r7
 4873 0aad 47 45                   		cmp	r4, r5
 4874 0aaf 2B 05 38 61 0D          		bgt	.L157
 4875                             	.LVL520:
 4876                             		.balign 8,3,1
 4877                             	.L898:
 4878 0ab4 4B 27                   		add	r2, r7
 4879                             	.LVL521:
 4880                             		.balign 8,3,1
 4881                             	.L147:
 4882                             	.LBE1742:
  90:C:\Users\a5116938\Desktop\e2_studio_workspace\EEMBC_final\RX65N_Cloud_Kit\src/tensorflow/lite/kernels/internal/reference\pad.h ****         for (int out_d = 0; out_d < output_depth; ++out_d) {
 4883                             		.loc 6 90 7
 4884 0ab6 62 16                   		add	#1, r6
 4885                             	.LVL522:
  90:C:\Users\a5116938\Desktop\e2_studio_workspace\EEMBC_final\RX65N_Cloud_Kit\src/tensorflow/lite/kernels/internal/reference\pad.h ****         for (int out_d = 0; out_d < output_depth; ++out_d) {
 4886                             		.loc 6 90 33
 4887 0ab8 47 E6                   		cmp	r14, r6
 4888 0aba 3B 71 FF                		bne	.L163
 4889                             	.LVL523:
 4890                             		.balign 8,3,1
 4891                             	.L146:
 4892                             	.LBE1745:
  89:C:\Users\a5116938\Desktop\e2_studio_workspace\EEMBC_final\RX65N_Cloud_Kit\src/tensorflow/lite/kernels/internal/reference\pad.h ****       for (int out_w = 0; out_w < output_width; ++out_w) {
 4893                             		.loc 6 89 5
 4894 0abd 62 11                   		add	#1, r1
 4895                             	.LVL524:
  89:C:\Users\a5116938\Desktop\e2_studio_workspace\EEMBC_final\RX65N_Cloud_Kit\src/tensorflow/lite/kernels/internal/reference\pad.h ****       for (int out_w = 0; out_w < output_width; ++out_w) {
 4896                             		.loc 6 89 31
 4897 0abf 47 F1                   		cmp	r15, r1
 4898 0ac1 3B 61 FF                		bne	.L164
 4899                             	.LBE1739:
  88:C:\Users\a5116938\Desktop\e2_studio_workspace\EEMBC_final\RX65N_Cloud_Kit\src/tensorflow/lite/kernels/internal/reference\pad.h ****     for (int out_h = 0; out_h < output_height; ++out_h) {
 4900                             		.loc 6 88 3
 4901 0ac4 62 1B                   		add	#1, r11
 4902                             	.LVL525:
  88:C:\Users\a5116938\Desktop\e2_studio_workspace\EEMBC_final\RX65N_Cloud_Kit\src/tensorflow/lite/kernels/internal/reference\pad.h ****     for (int out_h = 0; out_h < output_height; ++out_h) {
 4903                             		.loc 6 88 29
 4904 0ac6 ED 03 E6                		mov.L	920[r0], r3
 4905 0ac9 47 3B                   		cmp	r3, r11
 4906 0acb 28 05 38 4B FF          		blt	.L165
 4907                             	.LVL526:
 4908                             		.balign 8,3,2
 4909                             	.L145:
 4910                             	.LBE1738:
 4911                             	.LBB1750:
 4912                             	.LBB1751:
 185:C:\Users\a5116938\Desktop\e2_studio_workspace\EEMBC_final\RX65N_Cloud_Kit\src/tensorflow/lite/kernels/internal\types.h **** #ifdef TF_LITE_STATIC_MEMORY
 4913                             		.loc 4 185 5 is_stmt 1
 4914 0ad0 ED 04 EB                		mov.L	940[r0], r4
 4915 0ad3 61 54                   		cmp	#5, r4
 4916 0ad5 2B 0F                   		ble	.L144
 189:C:\Users\a5116938\Desktop\e2_studio_workspace\EEMBC_final\RX65N_Cloud_Kit\src/tensorflow/lite/kernels/internal\types.h **** #endif  // TF_LITE_STATIC_MEMORY
 4917                             		.loc 4 189 7
 189:C:\Users\a5116938\Desktop\e2_studio_workspace\EEMBC_final\RX65N_Cloud_Kit\src/tensorflow/lite/kernels/internal\types.h **** #endif  // TF_LITE_STATIC_MEMORY
 4918                             		.loc 4 189 29 is_stmt 0
 4919 0ad7 ED 0E ED                		mov.L	948[r0], r14
 4920                             	.LVL527:
 4921 0ada 61 0E                   		cmp	#0, r14
 4922 0adc 10                      		beq	.L144
 4923 0add EF E1                   		mov.L	r14, r1
 4924                             	.LVL528:
 4925 0adf 03                      		.balign 8,3,3
 4926                             	.L142:
 189:C:\Users\a5116938\Desktop\e2_studio_workspace\EEMBC_final\RX65N_Cloud_Kit\src/tensorflow/lite/kernels/internal\types.h **** #endif  // TF_LITE_STATIC_MEMORY
 4927                             		.loc 4 189 16
 4928 0ae0 05 00 00 00             		bsr	__ZdaPv
 4929                             	.LVL529:
 4930                             		.balign 8,3,2
 4931                             	.L144:
 4932                             	.LBE1751:
 4933                             	.LBE1750:
 4934                             	.LBB1752:
 4935                             	.LBB1753:
 185:C:\Users\a5116938\Desktop\e2_studio_workspace\EEMBC_final\RX65N_Cloud_Kit\src/tensorflow/lite/kernels/internal\types.h **** #ifdef TF_LITE_STATIC_MEMORY
 4936                             		.loc 4 185 5 is_stmt 1
 4937 0ae4 ED 07 50                		mov.L	320[r0], r7
 4938                             	.LVL530:
 4939 0ae7 61 57                   		cmp	#5, r7
 4940 0ae9 2B 0C                   		ble	.L167
 189:C:\Users\a5116938\Desktop\e2_studio_workspace\EEMBC_final\RX65N_Cloud_Kit\src/tensorflow/lite/kernels/internal\types.h **** #endif  // TF_LITE_STATIC_MEMORY
 4941                             		.loc 4 189 7
 189:C:\Users\a5116938\Desktop\e2_studio_workspace\EEMBC_final\RX65N_Cloud_Kit\src/tensorflow/lite/kernels/internal\types.h **** #endif  // TF_LITE_STATIC_MEMORY
 4942                             		.loc 4 189 16 is_stmt 0
 4943 0aeb ED 01 51                		mov.L	324[r0], r1
 189:C:\Users\a5116938\Desktop\e2_studio_workspace\EEMBC_final\RX65N_Cloud_Kit\src/tensorflow/lite/kernels/internal\types.h **** #endif  // TF_LITE_STATIC_MEMORY
 4944                             		.loc 4 189 29
 4945 0aee 61 01                   		cmp	#0, r1
 4946 0af0 15                      		beq	.L167
 189:C:\Users\a5116938\Desktop\e2_studio_workspace\EEMBC_final\RX65N_Cloud_Kit\src/tensorflow/lite/kernels/internal\types.h **** #endif  // TF_LITE_STATIC_MEMORY
 4947                             		.loc 4 189 16
 4948 0af1 05 00 00 00             		bsr	__ZdaPv
 4949                             	.LVL531:
 4950                             		.balign 8,3,2
 4951                             	.L167:
 4952                             	.LBE1753:
 4953                             	.LBE1752:
 4954                             	.LBE1767:
 4955                             	.LBE1777:
 4956                             	.LBE1787:
 4957                             	.LBE1797:
 4958                             	.LBB1798:
 4959                             	.LBB1799:
 185:C:\Users\a5116938\Desktop\e2_studio_workspace\EEMBC_final\RX65N_Cloud_Kit\src/tensorflow/lite/kernels/internal\types.h **** #ifdef TF_LITE_STATIC_MEMORY
 4960                             		.loc 4 185 5 is_stmt 1
 4961 0af5 ED 07 9E                		mov.L	632[r0], r7
 4962 0af8 61 57                   		cmp	#5, r7
 4963 0afa 2B 0E                   		ble	.L168
 189:C:\Users\a5116938\Desktop\e2_studio_workspace\EEMBC_final\RX65N_Cloud_Kit\src/tensorflow/lite/kernels/internal\types.h **** #endif  // TF_LITE_STATIC_MEMORY
 4964                             		.loc 4 189 7
 189:C:\Users\a5116938\Desktop\e2_studio_workspace\EEMBC_final\RX65N_Cloud_Kit\src/tensorflow/lite/kernels/internal\types.h **** #endif  // TF_LITE_STATIC_MEMORY
 4965                             		.loc 4 189 16 is_stmt 0
 4966 0afc ED 01 9F                		mov.L	636[r0], r1
 189:C:\Users\a5116938\Desktop\e2_studio_workspace\EEMBC_final\RX65N_Cloud_Kit\src/tensorflow/lite/kernels/internal\types.h **** #endif  // TF_LITE_STATIC_MEMORY
 4967                             		.loc 4 189 29
 4968 0aff 61 01                   		cmp	#0, r1
 4969 0b01 17                      		beq	.L168
 189:C:\Users\a5116938\Desktop\e2_studio_workspace\EEMBC_final\RX65N_Cloud_Kit\src/tensorflow/lite/kernels/internal\types.h **** #endif  // TF_LITE_STATIC_MEMORY
 4970                             		.loc 4 189 16
 4971 0b02 05 00 00 00             		bsr	__ZdaPv
 4972                             	.LVL532:
 4973 0b06 EF 00                   		.balign 8,3,2
 4974                             	.L168:
 4975                             	.LBE1799:
 4976                             	.LBE1798:
 4977                             	.LBB1800:
 4978                             	.LBB1801:
 185:C:\Users\a5116938\Desktop\e2_studio_workspace\EEMBC_final\RX65N_Cloud_Kit\src/tensorflow/lite/kernels/internal\types.h **** #ifdef TF_LITE_STATIC_MEMORY
 4979                             		.loc 4 185 5 is_stmt 1
 4980 0b08 ED 07 A4                		mov.L	656[r0], r7
 4981 0b0b 61 57                   		cmp	#5, r7
 4982 0b0d 2A 05 38 CB F7          		ble	.L435
 189:C:\Users\a5116938\Desktop\e2_studio_workspace\EEMBC_final\RX65N_Cloud_Kit\src/tensorflow/lite/kernels/internal\types.h **** #endif  // TF_LITE_STATIC_MEMORY
 4983                             		.loc 4 189 7
 189:C:\Users\a5116938\Desktop\e2_studio_workspace\EEMBC_final\RX65N_Cloud_Kit\src/tensorflow/lite/kernels/internal\types.h **** #endif  // TF_LITE_STATIC_MEMORY
 4984                             		.loc 4 189 16 is_stmt 0
 4985 0b12 ED 01 A5                		mov.L	660[r0], r1
 189:C:\Users\a5116938\Desktop\e2_studio_workspace\EEMBC_final\RX65N_Cloud_Kit\src/tensorflow/lite/kernels/internal\types.h **** #endif  // TF_LITE_STATIC_MEMORY
 4986                             		.loc 4 189 29
 4987 0b15 61 01                   		cmp	#0, r1
 4988 0b17 3A C3 F7                		beq	.L435
 4989                             	.LBE1801:
 4990                             	.LBE1800:
 4991                             	.LBE2139:
 4992                             	.LBB2140:
 4993                             	.LBB1361:
 4994                             	.LBB1355:
 189:C:\Users\a5116938\Desktop\e2_studio_workspace\EEMBC_final\RX65N_Cloud_Kit\src/tensorflow/lite/kernels/internal\types.h **** #endif  // TF_LITE_STATIC_MEMORY
 4995                             		.loc 4 189 16
 4996 0b1a 05 00 00 00             		bsr	__ZdaPv
 4997                             	.LVL533:
 4998 0b1e 38 BC F7                		bra	.L435
 4999                             	.LVL534:
 5000                             	.L479:
 5001                             	.LBE1355:
 5002                             	.LBE1361:
 5003                             	.LBE2140:
 5004                             	.LBB2141:
 5005                             	.LBB1181:
 5006                             	.LBB1167:
 5007                             	.LBB1157:
 5008                             	.LBB1144:
 5009                             	.LBB1138:
 5010                             	.LBB1137:
 5011                             	.LBB1135:
  97:C:\Users\a5116938\Desktop\e2_studio_workspace\EEMBC_final\RX65N_Cloud_Kit\src/tensorflow/lite/kernels/internal/reference\pad.h ****               out_d < left_d_padding ||
 5012                             		.loc 6 97 37
 5013 0b21 EF 73                   		mov.L	r7, r3
 5014 0b23 66 04                   		mov.L	#0, r4
 5015                             	.LVL535:
 5016                             		.balign 8,3,2
 5017                             	.L373:
 5018 0b25 71 5E FF                		add	#-1, r5, r14
 5019 0b28 FF 01 45                		sub	r4, r5, r1
 5020 0b2b FC 07 32                		neg	r3, r2
 5021 0b2e 43 4E                   		sub	r4, r14
 5022 0b30 47 45                   		cmp	r4, r5
 5023 0b32 2A 04                   		bgt 1f
 5024 0b34 66 11                   		mov #1, r1
 5025                             	1:
 5026 0b36 64 32                   		and #3, r2
 5027 0b38 61 5E                   		cmp	#5, r14
 5028 0b3a 25 52                   		bleu	.L377
 5029 0b3c 47 45                   		cmp	r4, r5
 5030 0b3e 2B 4E                   		ble	.L377
 5031 0b40 EF 3E                   		mov.L	r3, r14
 5032 0b42 61 02                   		cmp	#0, r2
 5033 0b44 20 24                   		beq	.L378
 5034                             	.LVL536:
  91:C:\Users\a5116938\Desktop\e2_studio_workspace\EEMBC_final\RX65N_Cloud_Kit\src/tensorflow/lite/kernels/internal/reference\pad.h ****           if (out_b < left_b_padding ||
 5035                             		.loc 6 91 9
 5036 0b46 71 4F 01                		add	#1, r4, r15
 5037 0b49 FD 20 EA                		mov.B	r10, [r14+]
 5038                             	.LVL537:
 5039 0b4c 61 12                   		cmp	#1, r2
 5040 0b4e 20 17                   		beq	.L379
 5041                             	.LVL538:
 5042 0b50 71 3E 02                		add	#2, r3, r14
 5043                             	.LVL539:
 5044 0b53 C7 3A 01                		mov.B	r10, 1[r3]
 5045                             	.LVL540:
 5046 0b56 71 4F 02                		add	#2, r4, r15
 5047                             	.LVL541:
 5048 0b59 61 22                   		cmp	#2, r2
 5049 0b5b 12                      		beq	.L379
 5050                             	.LVL542:
 5051 0b5c 71 3E 03                		add	#3, r3, r14
 5052                             	.LVL543:
 5053 0b5f C7 3A 02                		mov.B	r10, 2[r3]
 5054                             	.LVL544:
 5055 0b62 71 4F 03                		add	#3, r4, r15
 5056                             	.LVL545:
 5057                             		.balign 8,3,1
 5058                             	.L379:
  91:C:\Users\a5116938\Desktop\e2_studio_workspace\EEMBC_final\RX65N_Cloud_Kit\src/tensorflow/lite/kernels/internal/reference\pad.h ****           if (out_b < left_b_padding ||
 5059                             		.loc 6 91 18
 5060 0b65 EF F4                   		mov.L	r15, r4
 5061                             	.LVL546:
 5062 0b67 03                      		.balign 8,3,1
 5063                             	.L378:
 5064 0b68 43 21                   		sub	r2, r1
 5065 0b6a 4B 23                   		add	r2, r3
 5066 0b6c FB 26 FC                		mov.L	#-4, r2
 5067 0b6f 53 12                   		and	r1, r2
 5068 0b71 4B 32                   		add	r3, r2
 5069                             		.balign 8,3,2
 5070                             	.L381:
 5071                             	.LVL547:
 5072 0b73 ED 0F EA                		mov.L	936[r0], r15
 5073 0b76 FD 22 3F                		mov.L	r15, [r3+]
 5074 0b79 47 23                   		cmp	r2, r3
 5075 0b7b 21 F8                   		bne	.L381
 5076 0b7d FB 26 FC                		mov.L	#-4, r2
 5077 0b80 53 12                   		and	r1, r2
 5078 0b82 4B 24                   		add	r2, r4
 5079 0b84 FF 23 2E                		add	r2, r14, r3
 5080 0b87 47 21                   		cmp	r2, r1
 5081 0b89 3A EF F6                		beq	.L907
 5082                             	.LVL548:
 5083                             		.balign 8,3,1
 5084                             	.L377:
 5085 0b8c C3 3A                   		mov.B	r10, [r3]
 5086                             	.LVL549:
  91:C:\Users\a5116938\Desktop\e2_studio_workspace\EEMBC_final\RX65N_Cloud_Kit\src/tensorflow/lite/kernels/internal/reference\pad.h ****           if (out_b < left_b_padding ||
 5087                             		.loc 6 91 9
 5088 0b8e 71 42 01                		add	#1, r4, r2
 5089                             	.LVL550:
  91:C:\Users\a5116938\Desktop\e2_studio_workspace\EEMBC_final\RX65N_Cloud_Kit\src/tensorflow/lite/kernels/internal/reference\pad.h ****           if (out_b < left_b_padding ||
 5090                             		.loc 6 91 35
 5091 0b91 47 25                   		cmp	r2, r5
 5092 0b93 2A 05 38 E3 F6          		ble	.L907
  91:C:\Users\a5116938\Desktop\e2_studio_workspace\EEMBC_final\RX65N_Cloud_Kit\src/tensorflow/lite/kernels/internal/reference\pad.h ****           if (out_b < left_b_padding ||
 5093                             		.loc 6 91 9
 5094 0b98 71 42 02                		add	#2, r4, r2
 5095                             	.LVL551:
 5096 0b9b C7 3A 01                		mov.B	r10, 1[r3]
 5097                             	.LVL552:
  91:C:\Users\a5116938\Desktop\e2_studio_workspace\EEMBC_final\RX65N_Cloud_Kit\src/tensorflow/lite/kernels/internal/reference\pad.h ****           if (out_b < left_b_padding ||
 5098                             		.loc 6 91 35
 5099 0b9e 47 25                   		cmp	r2, r5
 5100 0ba0 2A 05 38 D6 F6          		ble	.L907
  91:C:\Users\a5116938\Desktop\e2_studio_workspace\EEMBC_final\RX65N_Cloud_Kit\src/tensorflow/lite/kernels/internal/reference\pad.h ****           if (out_b < left_b_padding ||
 5101                             		.loc 6 91 9
 5102 0ba5 71 42 03                		add	#3, r4, r2
 5103                             	.LVL553:
 5104 0ba8 C7 3A 02                		mov.B	r10, 2[r3]
 5105                             	.LVL554:
  91:C:\Users\a5116938\Desktop\e2_studio_workspace\EEMBC_final\RX65N_Cloud_Kit\src/tensorflow/lite/kernels/internal/reference\pad.h ****           if (out_b < left_b_padding ||
 5106                             		.loc 6 91 35
 5107 0bab 47 25                   		cmp	r2, r5
 5108 0bad 2A 05 38 C9 F6          		ble	.L907
  91:C:\Users\a5116938\Desktop\e2_studio_workspace\EEMBC_final\RX65N_Cloud_Kit\src/tensorflow/lite/kernels/internal/reference\pad.h ****           if (out_b < left_b_padding ||
 5109                             		.loc 6 91 9
 5110 0bb2 71 42 04                		add	#4, r4, r2
 5111                             	.LVL555:
 5112 0bb5 C7 3A 03                		mov.B	r10, 3[r3]
 5113                             	.LVL556:
  91:C:\Users\a5116938\Desktop\e2_studio_workspace\EEMBC_final\RX65N_Cloud_Kit\src/tensorflow/lite/kernels/internal/reference\pad.h ****           if (out_b < left_b_padding ||
 5114                             		.loc 6 91 35
 5115 0bb8 47 25                   		cmp	r2, r5
 5116 0bba 2A 05 38 BC F6          		ble	.L907
  91:C:\Users\a5116938\Desktop\e2_studio_workspace\EEMBC_final\RX65N_Cloud_Kit\src/tensorflow/lite/kernels/internal/reference\pad.h ****           if (out_b < left_b_padding ||
 5117                             		.loc 6 91 9
 5118 0bbf 62 54                   		add	#5, r4
 5119 0bc1 C7 3A 04                		mov.B	r10, 4[r3]
 5120                             	.LVL557:
  91:C:\Users\a5116938\Desktop\e2_studio_workspace\EEMBC_final\RX65N_Cloud_Kit\src/tensorflow/lite/kernels/internal/reference\pad.h ****           if (out_b < left_b_padding ||
 5121                             		.loc 6 91 35
 5122 0bc4 47 45                   		cmp	r4, r5
 5123 0bc6 2A 05 38 B0 F6          		ble	.L907
 5124 0bcb C7 3A 05                		mov.B	r10, 5[r3]
 5125                             	.LVL558:
 5126 0bce 4B 57                   		add	r5, r7
 5127 0bd0 38 AA F6                		bra	.L368
 5128                             	.LVL559:
 5129                             	.L369:
 5130 0bd3 EF 71                   		mov.L	r7, r1
 5131 0bd5 EF 53                   		mov.L	r5, r3
 5132 0bd7 CF A2                   		mov.B	r10, r2
 5133 0bd9 7F 88                   		sstr.b
 5134 0bdb 4B 57                   		add	r5, r7
 5135                             	.LVL560:
 5136 0bdd 38 9D F6                		bra	.L368
 5137                             	.LVL561:
 5138                             	.L454:
 5139                             	.LBE1135:
 5140                             	.LBE1137:
 5141                             	.LBE1138:
 5142                             	.LBE1144:
 5143                             	.LBE1157:
 5144                             	.LBE1167:
 5145                             	.LBE1181:
 5146                             	.LBE2141:
 5147                             	.LBB2142:
 5148                             	.LBB1802:
 5149                             	.LBB1633:
 5150                             	.LBB1622:
 5151                             	.LBB1608:
 5152                             	.LBB1601:
 5153                             	.LBB1599:
 5154                             	.LBB1596:
  97:C:\Users\a5116938\Desktop\e2_studio_workspace\EEMBC_final\RX65N_Cloud_Kit\src/tensorflow/lite/kernels/internal/reference\pad.h ****               out_d < left_d_padding ||
 5155                             		.loc 6 97 37
 5156 0be0 EF 73                   		mov.L	r7, r3
 5157 0be2 66 04                   		mov.L	#0, r4
 5158 0be4 38 49 F9                		bra	.L199
 5159                             	.L453:
  91:C:\Users\a5116938\Desktop\e2_studio_workspace\EEMBC_final\RX65N_Cloud_Kit\src/tensorflow/lite/kernels/internal/reference\pad.h ****           if (out_b < left_b_padding ||
 5160                             		.loc 6 91 18
 5161 0be7 66 04                   		mov.L	#0, r4
 5162                             	.LVL562:
 5163                             		.balign 8,3,5
 5164                             	.L193:
 5165 0be9 FE 24 7A                		mov.L	r10, [r4,r7]
 5166                             	.LVL563:
  91:C:\Users\a5116938\Desktop\e2_studio_workspace\EEMBC_final\RX65N_Cloud_Kit\src/tensorflow/lite/kernels/internal/reference\pad.h ****           if (out_b < left_b_padding ||
 5167                             		.loc 6 91 9
 5168 0bec 62 14                   		add	#1, r4
 5169                             	.LVL564:
  91:C:\Users\a5116938\Desktop\e2_studio_workspace\EEMBC_final\RX65N_Cloud_Kit\src/tensorflow/lite/kernels/internal/reference\pad.h ****           if (out_b < left_b_padding ||
 5170                             		.loc 6 91 35
 5171 0bee 47 54                   		cmp	r5, r4
 5172 0bf0 21 F9                   		bne	.L193
 5173 0bf2 38 44 F9                		bra	.L899
 5174                             	.LVL565:
 5175                             	.L452:
  91:C:\Users\a5116938\Desktop\e2_studio_workspace\EEMBC_final\RX65N_Cloud_Kit\src/tensorflow/lite/kernels/internal/reference\pad.h ****           if (out_b < left_b_padding ||
 5176                             		.loc 6 91 18
 5177 0bf5 66 04                   		mov.L	#0, r4
 5178                             	.LVL566:
 5179 0bf7 03                      		.balign 8,3,5
 5180                             	.L192:
 5181 0bf8 FE 24 7A                		mov.L	r10, [r4,r7]
 5182                             	.LVL567:
  91:C:\Users\a5116938\Desktop\e2_studio_workspace\EEMBC_final\RX65N_Cloud_Kit\src/tensorflow/lite/kernels/internal/reference\pad.h ****           if (out_b < left_b_padding ||
 5183                             		.loc 6 91 9
 5184 0bfb 62 14                   		add	#1, r4
 5185                             	.LVL568:
  91:C:\Users\a5116938\Desktop\e2_studio_workspace\EEMBC_final\RX65N_Cloud_Kit\src/tensorflow/lite/kernels/internal/reference\pad.h ****           if (out_b < left_b_padding ||
 5186                             		.loc 6 91 35
 5187 0bfd 47 54                   		cmp	r5, r4
 5188 0bff 21 F9                   		bne	.L192
 5189 0c01 38 35 F9                		bra	.L899
 5190                             	.LVL569:
 5191                             	.L191:
  91:C:\Users\a5116938\Desktop\e2_studio_workspace\EEMBC_final\RX65N_Cloud_Kit\src/tensorflow/lite/kernels/internal/reference\pad.h ****           if (out_b < left_b_padding ||
 5192                             		.loc 6 91 18
 5193 0c04 66 04                   		mov.L	#0, r4
 5194 0c06 47 1D                   		cmp	r1, r13
 5195 0c08 2B 2A                   		ble	.L200
 5196 0c0a 47 69                   		cmp	r6, r9
 5197 0c0c 2B 10                   		ble	.L201
 5198                             	.LVL570:
 5199 0c0e EF 00                   		.balign 8,3,5
 5200                             	.L202:
 5201 0c10 FE 24 7A                		mov.L	r10, [r4,r7]
 5202                             	.LVL571:
  91:C:\Users\a5116938\Desktop\e2_studio_workspace\EEMBC_final\RX65N_Cloud_Kit\src/tensorflow/lite/kernels/internal/reference\pad.h ****           if (out_b < left_b_padding ||
 5203                             		.loc 6 91 9
 5204 0c13 62 14                   		add	#1, r4
 5205                             	.LVL572:
  91:C:\Users\a5116938\Desktop\e2_studio_workspace\EEMBC_final\RX65N_Cloud_Kit\src/tensorflow/lite/kernels/internal/reference\pad.h ****           if (out_b < left_b_padding ||
 5206                             		.loc 6 91 35
 5207 0c15 47 54                   		cmp	r5, r4
 5208 0c17 21 F9                   		bne	.L202
 5209 0c19 38 1D F9                		bra	.L899
 5210                             	.LVL573:
 5211                             	.L201:
 5212 0c1c FE 24 7A                		mov.L	r10, [r4,r7]
 5213                             	.LVL574:
  91:C:\Users\a5116938\Desktop\e2_studio_workspace\EEMBC_final\RX65N_Cloud_Kit\src/tensorflow/lite/kernels/internal/reference\pad.h ****           if (out_b < left_b_padding ||
 5214                             		.loc 6 91 9
 5215 0c1f 62 14                   		add	#1, r4
 5216                             	.LVL575:
  91:C:\Users\a5116938\Desktop\e2_studio_workspace\EEMBC_final\RX65N_Cloud_Kit\src/tensorflow/lite/kernels/internal/reference\pad.h ****           if (out_b < left_b_padding ||
 5217                             		.loc 6 91 35
 5218 0c21 47 54                   		cmp	r5, r4
 5219 0c23 3A 13 F9                		beq	.L899
 5220                             	.LVL576:
 5221 0c26 FE 24 7A                		mov.L	r10, [r4,r7]
 5222                             	.LVL577:
  91:C:\Users\a5116938\Desktop\e2_studio_workspace\EEMBC_final\RX65N_Cloud_Kit\src/tensorflow/lite/kernels/internal/reference\pad.h ****           if (out_b < left_b_padding ||
 5223                             		.loc 6 91 9
 5224 0c29 62 14                   		add	#1, r4
 5225                             	.LVL578:
  91:C:\Users\a5116938\Desktop\e2_studio_workspace\EEMBC_final\RX65N_Cloud_Kit\src/tensorflow/lite/kernels/internal/reference\pad.h ****           if (out_b < left_b_padding ||
 5226                             		.loc 6 91 35
 5227 0c2b 47 54                   		cmp	r5, r4
 5228 0c2d 21 EF                   		bne	.L201
 5229 0c2f 38 07 F9                		bra	.L899
 5230                             	.LVL579:
 5231                             	.L200:
 5232 0c32 47 69                   		cmp	r6, r9
 5233 0c34 2B 10                   		ble	.L203
 5234                             	.LVL580:
 5235 0c36 EF 00                   		.balign 8,3,5
 5236                             	.L204:
 5237 0c38 FE 24 7A                		mov.L	r10, [r4,r7]
 5238                             	.LVL581:
  91:C:\Users\a5116938\Desktop\e2_studio_workspace\EEMBC_final\RX65N_Cloud_Kit\src/tensorflow/lite/kernels/internal/reference\pad.h ****           if (out_b < left_b_padding ||
 5239                             		.loc 6 91 9
 5240 0c3b 62 14                   		add	#1, r4
 5241                             	.LVL582:
  91:C:\Users\a5116938\Desktop\e2_studio_workspace\EEMBC_final\RX65N_Cloud_Kit\src/tensorflow/lite/kernels/internal/reference\pad.h ****           if (out_b < left_b_padding ||
 5242                             		.loc 6 91 35
 5243 0c3d 47 45                   		cmp	r4, r5
 5244 0c3f 21 F9                   		bne	.L204
 5245 0c41 38 F5 F8                		bra	.L899
 5246                             	.LVL583:
 5247                             	.L203:
 5248 0c44 FE 24 7A                		mov.L	r10, [r4,r7]
 5249                             	.LVL584:
  91:C:\Users\a5116938\Desktop\e2_studio_workspace\EEMBC_final\RX65N_Cloud_Kit\src/tensorflow/lite/kernels/internal/reference\pad.h ****           if (out_b < left_b_padding ||
 5250                             		.loc 6 91 9
 5251 0c47 62 14                   		add	#1, r4
 5252                             	.LVL585:
  91:C:\Users\a5116938\Desktop\e2_studio_workspace\EEMBC_final\RX65N_Cloud_Kit\src/tensorflow/lite/kernels/internal/reference\pad.h ****           if (out_b < left_b_padding ||
 5253                             		.loc 6 91 35
 5254 0c49 47 45                   		cmp	r4, r5
 5255 0c4b 3A EB F8                		beq	.L899
 5256                             	.LVL586:
 5257 0c4e FE 24 7A                		mov.L	r10, [r4,r7]
 5258                             	.LVL587:
  91:C:\Users\a5116938\Desktop\e2_studio_workspace\EEMBC_final\RX65N_Cloud_Kit\src/tensorflow/lite/kernels/internal/reference\pad.h ****           if (out_b < left_b_padding ||
 5259                             		.loc 6 91 9
 5260 0c51 62 14                   		add	#1, r4
 5261                             	.LVL588:
  91:C:\Users\a5116938\Desktop\e2_studio_workspace\EEMBC_final\RX65N_Cloud_Kit\src/tensorflow/lite/kernels/internal/reference\pad.h ****           if (out_b < left_b_padding ||
 5262                             		.loc 6 91 35
 5263 0c53 47 45                   		cmp	r4, r5
 5264 0c55 21 EF                   		bne	.L203
 5265 0c57 38 DF F8                		bra	.L899
 5266                             	.LVL589:
 5267                             	.L467:
 5268                             	.LBE1596:
 5269                             	.LBE1599:
 5270                             	.LBE1601:
 5271                             	.LBE1608:
 5272                             	.LBE1622:
 5273                             	.LBE1633:
 5274                             	.LBE1802:
 5275                             	.LBE2142:
 5276                             	.LBB2143:
 5277                             	.LBB1961:
 5278                             	.LBB1947:
 5279                             	.LBB1937:
 5280                             	.LBB1924:
 5281                             	.LBB1918:
 5282                             	.LBB1917:
 5283                             	.LBB1915:
  97:C:\Users\a5116938\Desktop\e2_studio_workspace\EEMBC_final\RX65N_Cloud_Kit\src/tensorflow/lite/kernels/internal/reference\pad.h ****               out_d < left_d_padding ||
 5284                             		.loc 6 97 37
 5285 0c5a EF 73                   		mov.L	r7, r3
 5286 0c5c 66 04                   		mov.L	#0, r4
 5287                             	.LVL590:
 5288 0c5e EF 00                   		.balign 8,3,2
 5289                             	.L282:
 5290 0c60 71 5E FF                		add	#-1, r5, r14
 5291 0c63 FF 01 45                		sub	r4, r5, r1
 5292 0c66 FC 07 32                		neg	r3, r2
 5293 0c69 43 4E                   		sub	r4, r14
 5294 0c6b 47 45                   		cmp	r4, r5
 5295 0c6d 2A 04                   		bgt 1f
 5296 0c6f 66 11                   		mov #1, r1
 5297                             	1:
 5298 0c71 64 32                   		and #3, r2
 5299 0c73 61 5E                   		cmp	#5, r14
 5300 0c75 25 51                   		bleu	.L286
 5301 0c77 47 45                   		cmp	r4, r5
 5302 0c79 2B 4D                   		ble	.L286
 5303 0c7b EF 3E                   		mov.L	r3, r14
 5304 0c7d 61 02                   		cmp	#0, r2
 5305 0c7f 20 23                   		beq	.L287
 5306                             	.LVL591:
  91:C:\Users\a5116938\Desktop\e2_studio_workspace\EEMBC_final\RX65N_Cloud_Kit\src/tensorflow/lite/kernels/internal/reference\pad.h ****           if (out_b < left_b_padding ||
 5307                             		.loc 6 91 9
 5308 0c81 71 4F 01                		add	#1, r4, r15
 5309 0c84 FD 20 EA                		mov.B	r10, [r14+]
 5310                             	.LVL592:
 5311 0c87 61 12                   		cmp	#1, r2
 5312 0c89 20 17                   		beq	.L288
 5313                             	.LVL593:
 5314 0c8b 71 3E 02                		add	#2, r3, r14
 5315                             	.LVL594:
 5316 0c8e C7 3A 01                		mov.B	r10, 1[r3]
 5317                             	.LVL595:
 5318 0c91 71 4F 02                		add	#2, r4, r15
 5319                             	.LVL596:
 5320 0c94 61 22                   		cmp	#2, r2
 5321 0c96 12                      		beq	.L288
 5322                             	.LVL597:
 5323 0c97 71 3E 03                		add	#3, r3, r14
 5324                             	.LVL598:
 5325 0c9a C7 3A 02                		mov.B	r10, 2[r3]
 5326                             	.LVL599:
 5327 0c9d 71 4F 03                		add	#3, r4, r15
 5328                             	.LVL600:
 5329                             		.balign 8,3,1
 5330                             	.L288:
  91:C:\Users\a5116938\Desktop\e2_studio_workspace\EEMBC_final\RX65N_Cloud_Kit\src/tensorflow/lite/kernels/internal/reference\pad.h ****           if (out_b < left_b_padding ||
 5331                             		.loc 6 91 18
 5332 0ca0 EF F4                   		mov.L	r15, r4
 5333                             	.LVL601:
 5334                             		.balign 8,3,1
 5335                             	.L287:
 5336 0ca2 43 21                   		sub	r2, r1
 5337 0ca4 4B 23                   		add	r2, r3
 5338 0ca6 FB 26 FC                		mov.L	#-4, r2
 5339 0ca9 53 12                   		and	r1, r2
 5340 0cab 4B 32                   		add	r3, r2
 5341                             		.balign 8,3,2
 5342                             	.L290:
 5343                             	.LVL602:
 5344 0cad ED 0F EA                		mov.L	936[r0], r15
 5345 0cb0 FD 22 3F                		mov.L	r15, [r3+]
 5346 0cb3 47 23                   		cmp	r2, r3
 5347 0cb5 21 F8                   		bne	.L290
 5348 0cb7 FB 26 FC                		mov.L	#-4, r2
 5349 0cba 53 12                   		and	r1, r2
 5350 0cbc 4B 24                   		add	r2, r4
 5351 0cbe FF 23 2E                		add	r2, r14, r3
 5352 0cc1 47 21                   		cmp	r2, r1
 5353 0cc3 3A 55 FB                		beq	.L903
 5354                             	.LVL603:
 5355                             		.balign 8,3,1
 5356                             	.L286:
 5357 0cc6 C3 3A                   		mov.B	r10, [r3]
 5358                             	.LVL604:
  91:C:\Users\a5116938\Desktop\e2_studio_workspace\EEMBC_final\RX65N_Cloud_Kit\src/tensorflow/lite/kernels/internal/reference\pad.h ****           if (out_b < left_b_padding ||
 5359                             		.loc 6 91 9
 5360 0cc8 71 42 01                		add	#1, r4, r2
 5361                             	.LVL605:
  91:C:\Users\a5116938\Desktop\e2_studio_workspace\EEMBC_final\RX65N_Cloud_Kit\src/tensorflow/lite/kernels/internal/reference\pad.h ****           if (out_b < left_b_padding ||
 5362                             		.loc 6 91 35
 5363 0ccb 47 25                   		cmp	r2, r5
 5364 0ccd 2A 05 38 49 FB          		ble	.L903
  91:C:\Users\a5116938\Desktop\e2_studio_workspace\EEMBC_final\RX65N_Cloud_Kit\src/tensorflow/lite/kernels/internal/reference\pad.h ****           if (out_b < left_b_padding ||
 5365                             		.loc 6 91 9
 5366 0cd2 71 42 02                		add	#2, r4, r2
 5367                             	.LVL606:
 5368 0cd5 C7 3A 01                		mov.B	r10, 1[r3]
 5369                             	.LVL607:
  91:C:\Users\a5116938\Desktop\e2_studio_workspace\EEMBC_final\RX65N_Cloud_Kit\src/tensorflow/lite/kernels/internal/reference\pad.h ****           if (out_b < left_b_padding ||
 5370                             		.loc 6 91 35
 5371 0cd8 47 25                   		cmp	r2, r5
 5372 0cda 2A 05 38 3C FB          		ble	.L903
  91:C:\Users\a5116938\Desktop\e2_studio_workspace\EEMBC_final\RX65N_Cloud_Kit\src/tensorflow/lite/kernels/internal/reference\pad.h ****           if (out_b < left_b_padding ||
 5373                             		.loc 6 91 9
 5374 0cdf 71 42 03                		add	#3, r4, r2
 5375                             	.LVL608:
 5376 0ce2 C7 3A 02                		mov.B	r10, 2[r3]
 5377                             	.LVL609:
  91:C:\Users\a5116938\Desktop\e2_studio_workspace\EEMBC_final\RX65N_Cloud_Kit\src/tensorflow/lite/kernels/internal/reference\pad.h ****           if (out_b < left_b_padding ||
 5378                             		.loc 6 91 35
 5379 0ce5 47 25                   		cmp	r2, r5
 5380 0ce7 2A 05 38 2F FB          		ble	.L903
  91:C:\Users\a5116938\Desktop\e2_studio_workspace\EEMBC_final\RX65N_Cloud_Kit\src/tensorflow/lite/kernels/internal/reference\pad.h ****           if (out_b < left_b_padding ||
 5381                             		.loc 6 91 9
 5382 0cec 71 42 04                		add	#4, r4, r2
 5383                             	.LVL610:
 5384 0cef C7 3A 03                		mov.B	r10, 3[r3]
 5385                             	.LVL611:
  91:C:\Users\a5116938\Desktop\e2_studio_workspace\EEMBC_final\RX65N_Cloud_Kit\src/tensorflow/lite/kernels/internal/reference\pad.h ****           if (out_b < left_b_padding ||
 5386                             		.loc 6 91 35
 5387 0cf2 47 25                   		cmp	r2, r5
 5388 0cf4 2A 05 38 22 FB          		ble	.L903
  91:C:\Users\a5116938\Desktop\e2_studio_workspace\EEMBC_final\RX65N_Cloud_Kit\src/tensorflow/lite/kernels/internal/reference\pad.h ****           if (out_b < left_b_padding ||
 5389                             		.loc 6 91 9
 5390 0cf9 62 54                   		add	#5, r4
 5391 0cfb C7 3A 04                		mov.B	r10, 4[r3]
 5392                             	.LVL612:
  91:C:\Users\a5116938\Desktop\e2_studio_workspace\EEMBC_final\RX65N_Cloud_Kit\src/tensorflow/lite/kernels/internal/reference\pad.h ****           if (out_b < left_b_padding ||
 5393                             		.loc 6 91 35
 5394 0cfe 47 45                   		cmp	r4, r5
 5395 0d00 2A 05 38 16 FB          		ble	.L903
 5396 0d05 C7 3A 05                		mov.B	r10, 5[r3]
 5397                             	.LVL613:
 5398 0d08 38 10 FB                		bra	.L903
 5399                             	.LVL614:
 5400                             	.L278:
 5401 0d0b EF 71                   		mov.L	r7, r1
 5402 0d0d EF 53                   		mov.L	r5, r3
 5403 0d0f CF A2                   		mov.B	r10, r2
 5404 0d11 7F 88                   		sstr.b
 5405 0d13 38 05 FB                		bra	.L903
 5406                             	.LVL615:
 5407                             	.L451:
 5408                             	.LBE1915:
 5409                             	.LBE1917:
 5410                             	.LBE1918:
 5411                             	.LBE1924:
 5412                             	.LBE1937:
 5413                             	.LBE1947:
 5414                             	.LBE1961:
 5415                             	.LBE2143:
 5416                             	.LBB2144:
 5417                             	.LBB1803:
 5418                             	.LBB1634:
 5419                             	.LBB1623:
 5420                             	.LBB1609:
 5421                             	.LBB1602:
 5422                             	.LBB1600:
 5423                             	.LBB1597:
  91:C:\Users\a5116938\Desktop\e2_studio_workspace\EEMBC_final\RX65N_Cloud_Kit\src/tensorflow/lite/kernels/internal/reference\pad.h ****           if (out_b < left_b_padding ||
 5424                             		.loc 6 91 18
 5425 0d16 66 04                   		mov.L	#0, r4
 5426                             	.LVL616:
 5427                             		.balign 8,3,5
 5428                             	.L190:
 5429 0d18 FE 24 7A                		mov.L	r10, [r4,r7]
 5430                             	.LVL617:
  91:C:\Users\a5116938\Desktop\e2_studio_workspace\EEMBC_final\RX65N_Cloud_Kit\src/tensorflow/lite/kernels/internal/reference\pad.h ****           if (out_b < left_b_padding ||
 5431                             		.loc 6 91 9
 5432 0d1b 62 14                   		add	#1, r4
 5433                             	.LVL618:
  91:C:\Users\a5116938\Desktop\e2_studio_workspace\EEMBC_final\RX65N_Cloud_Kit\src/tensorflow/lite/kernels/internal/reference\pad.h ****           if (out_b < left_b_padding ||
 5434                             		.loc 6 91 35
 5435 0d1d 47 54                   		cmp	r5, r4
 5436 0d1f 21 F9                   		bne	.L190
 5437 0d21 38 15 F8                		bra	.L899
 5438                             	.LVL619:
 5439                             	.L495:
 5440                             	.LBE1597:
 5441                             	.LBE1600:
 5442                             	.LBE1602:
 5443                             	.LBE1609:
 5444                             	.LBE1623:
 5445                             	.LBE1634:
 5446                             	.LBE1803:
 5447                             	.LBE2144:
 5448                             	.LBB2145:
 210:../src/tensorflow/lite/micro/kernels/pad.cc ****               : *tflite::micro::GetTensorData<int32_t>(constant_values);
 5449                             		.loc 1 210 15
 5450 0d24 66 0A                   		mov.L	#0, r10
 5451 0d26 EF 00                   		.balign 8,3,3
 5452                             	.L394:
 5453                             	.LVL620:
 212:../src/tensorflow/lite/micro/kernels/pad.cc ****                          tflite::micro::GetTensorData<int32_t>(input),
 5454                             		.loc 1 212 7 is_stmt 1
 212:../src/tensorflow/lite/micro/kernels/pad.cc ****                          tflite::micro::GetTensorData<int32_t>(input),
 5455                             		.loc 1 212 69 is_stmt 0
 5456 0d28 72 0F 70 01             		add	#0x170, r0, r15
 5457 0d2c EF B1                   		mov.L	r11, r1
 5458 0d2e 05 00 00 00             		bsr	__ZN6tflite5micro14GetTensorShapeEPK16TfLiteEvalTensor
 5459                             	.LVL621:
 214:../src/tensorflow/lite/micro/kernels/pad.cc ****                          tflite::micro::GetTensorData<int32_t>(output));
 5460                             		.loc 1 214 67
 5461 0d32 72 0F 58 01             		add	#0x158, r0, r15
 5462 0d36 EF 71                   		mov.L	r7, r1
 5463                             	.LBB1362:
 5464                             	.LBB1363:
 5465                             		.loc 5 62 53
 5466 0d38 EC BD                   		mov.L	[r11], r13
 5467                             	.LVL622:
 5468                             	.LBE1363:
 5469                             	.LBE1362:
 214:../src/tensorflow/lite/micro/kernels/pad.cc ****                          tflite::micro::GetTensorData<int32_t>(output));
 5470                             		.loc 1 214 67
 5471 0d3a 05 00 00 00             		bsr	__ZN6tflite5micro14GetTensorShapeEPK16TfLiteEvalTensor
 5472                             	.LVL623:
 5473                             	.LBB1364:
 5474                             	.LBB1365:
  55:C:\Users\a5116938\Desktop\e2_studio_workspace\EEMBC_final\RX65N_Cloud_Kit\src/tensorflow/lite/micro/kernels\kernel_util.h **** }
 5475                             		.loc 5 55 28
 5476 0d3e 61 07                   		cmp	#0, r7
 5477 0d40 13                      		beq	.L395
 5478 0d41 EC 77                   		mov.L	[r7], r7
 5479                             	.LVL624:
 5480                             		.balign 8,3,2
 5481                             	.L395:
 5482                             	.LBE1365:
 5483                             	.LBE1364:
 5484                             	.LBE2145:
 5485                             	.LBE2227:
 5486                             	.LBE2290:
 103:C:\Users\a5116938\Desktop\e2_studio_workspace\EEMBC_final\RX65N_Cloud_Kit\src/tensorflow/lite/kernels/internal/reference\pad.h ****           }
 104:C:\Users\a5116938\Desktop\e2_studio_workspace\EEMBC_final\RX65N_Cloud_Kit\src/tensorflow/lite/kernels/internal/reference\pad.h ****         }
 105:C:\Users\a5116938\Desktop\e2_studio_workspace\EEMBC_final\RX65N_Cloud_Kit\src/tensorflow/lite/kernels/internal/reference\pad.h ****       }
 106:C:\Users\a5116938\Desktop\e2_studio_workspace\EEMBC_final\RX65N_Cloud_Kit\src/tensorflow/lite/kernels/internal/reference\pad.h ****     }
 107:C:\Users\a5116938\Desktop\e2_studio_workspace\EEMBC_final\RX65N_Cloud_Kit\src/tensorflow/lite/kernels/internal/reference\pad.h ****   }
 108:C:\Users\a5116938\Desktop\e2_studio_workspace\EEMBC_final\RX65N_Cloud_Kit\src/tensorflow/lite/kernels/internal/reference\pad.h **** }
 109:C:\Users\a5116938\Desktop\e2_studio_workspace\EEMBC_final\RX65N_Cloud_Kit\src/tensorflow/lite/kernels/internal/reference\pad.h **** 
 110:C:\Users\a5116938\Desktop\e2_studio_workspace\EEMBC_final\RX65N_Cloud_Kit\src/tensorflow/lite/kernels/internal/reference\pad.h **** template <typename T, typename P>
 111:C:\Users\a5116938\Desktop\e2_studio_workspace\EEMBC_final\RX65N_Cloud_Kit\src/tensorflow/lite/kernels/internal/reference\pad.h **** inline void Pad(const tflite::PadParams& op_params,
 112:C:\Users\a5116938\Desktop\e2_studio_workspace\EEMBC_final\RX65N_Cloud_Kit\src/tensorflow/lite/kernels/internal/reference\pad.h ****                 const RuntimeShape& input_shape, const T* input_data,
 113:C:\Users\a5116938\Desktop\e2_studio_workspace\EEMBC_final\RX65N_Cloud_Kit\src/tensorflow/lite/kernels/internal/reference\pad.h ****                 const P* pad_value_ptr, const RuntimeShape& output_shape,
 114:C:\Users\a5116938\Desktop\e2_studio_workspace\EEMBC_final\RX65N_Cloud_Kit\src/tensorflow/lite/kernels/internal/reference\pad.h ****                 T* output_data) {
 115:C:\Users\a5116938\Desktop\e2_studio_workspace\EEMBC_final\RX65N_Cloud_Kit\src/tensorflow/lite/kernels/internal/reference\pad.h ****   PadImpl(op_params, input_shape, input_data, pad_value_ptr, output_shape,
 116:C:\Users\a5116938\Desktop\e2_studio_workspace\EEMBC_final\RX65N_Cloud_Kit\src/tensorflow/lite/kernels/internal/reference\pad.h ****           output_data);
 117:C:\Users\a5116938\Desktop\e2_studio_workspace\EEMBC_final\RX65N_Cloud_Kit\src/tensorflow/lite/kernels/internal/reference\pad.h **** }
 118:C:\Users\a5116938\Desktop\e2_studio_workspace\EEMBC_final\RX65N_Cloud_Kit\src/tensorflow/lite/kernels/internal/reference\pad.h **** 
 119:C:\Users\a5116938\Desktop\e2_studio_workspace\EEMBC_final\RX65N_Cloud_Kit\src/tensorflow/lite/kernels/internal/reference\pad.h **** // The second (pad-value) input can be int32_t when, say, the first is uint8_t.
 120:C:\Users\a5116938\Desktop\e2_studio_workspace\EEMBC_final\RX65N_Cloud_Kit\src/tensorflow/lite/kernels/internal/reference\pad.h **** template <typename T>
 121:C:\Users\a5116938\Desktop\e2_studio_workspace\EEMBC_final\RX65N_Cloud_Kit\src/tensorflow/lite/kernels/internal/reference\pad.h **** inline void Pad(const tflite::PadParams& op_params,
 122:C:\Users\a5116938\Desktop\e2_studio_workspace\EEMBC_final\RX65N_Cloud_Kit\src/tensorflow/lite/kernels/internal/reference\pad.h ****                 const RuntimeShape& input_shape, const T* input_data,
 123:C:\Users\a5116938\Desktop\e2_studio_workspace\EEMBC_final\RX65N_Cloud_Kit\src/tensorflow/lite/kernels/internal/reference\pad.h ****                 const int32_t* pad_value_ptr, const RuntimeShape& output_shape,
 124:C:\Users\a5116938\Desktop\e2_studio_workspace\EEMBC_final\RX65N_Cloud_Kit\src/tensorflow/lite/kernels/internal/reference\pad.h ****                 T* output_data) {
 125:C:\Users\a5116938\Desktop\e2_studio_workspace\EEMBC_final\RX65N_Cloud_Kit\src/tensorflow/lite/kernels/internal/reference\pad.h ****   const T converted_pad_value = static_cast<T>(*pad_value_ptr);
 126:C:\Users\a5116938\Desktop\e2_studio_workspace\EEMBC_final\RX65N_Cloud_Kit\src/tensorflow/lite/kernels/internal/reference\pad.h ****   PadImpl(op_params, input_shape, input_data, &converted_pad_value,
 127:C:\Users\a5116938\Desktop\e2_studio_workspace\EEMBC_final\RX65N_Cloud_Kit\src/tensorflow/lite/kernels/internal/reference\pad.h ****           output_shape, output_data);
 128:C:\Users\a5116938\Desktop\e2_studio_workspace\EEMBC_final\RX65N_Cloud_Kit\src/tensorflow/lite/kernels/internal/reference\pad.h **** }
 129:C:\Users\a5116938\Desktop\e2_studio_workspace\EEMBC_final\RX65N_Cloud_Kit\src/tensorflow/lite/kernels/internal/reference\pad.h **** 
 130:C:\Users\a5116938\Desktop\e2_studio_workspace\EEMBC_final\RX65N_Cloud_Kit\src/tensorflow/lite/kernels/internal/reference\pad.h **** // This version avoids conflicting template matching.
 131:C:\Users\a5116938\Desktop\e2_studio_workspace\EEMBC_final\RX65N_Cloud_Kit\src/tensorflow/lite/kernels/internal/reference\pad.h **** template <>
 132:C:\Users\a5116938\Desktop\e2_studio_workspace\EEMBC_final\RX65N_Cloud_Kit\src/tensorflow/lite/kernels/internal/reference\pad.h **** inline void Pad(const tflite::PadParams& op_params,
 133:C:\Users\a5116938\Desktop\e2_studio_workspace\EEMBC_final\RX65N_Cloud_Kit\src/tensorflow/lite/kernels/internal/reference\pad.h ****                 const RuntimeShape& input_shape, const int32_t* input_data,
 134:C:\Users\a5116938\Desktop\e2_studio_workspace\EEMBC_final\RX65N_Cloud_Kit\src/tensorflow/lite/kernels/internal/reference\pad.h ****                 const int32_t* pad_value_ptr, const RuntimeShape& output_shape,
 135:C:\Users\a5116938\Desktop\e2_studio_workspace\EEMBC_final\RX65N_Cloud_Kit\src/tensorflow/lite/kernels/internal/reference\pad.h ****                 int32_t* output_data) {
 136:C:\Users\a5116938\Desktop\e2_studio_workspace\EEMBC_final\RX65N_Cloud_Kit\src/tensorflow/lite/kernels/internal/reference\pad.h ****   PadImpl(op_params, input_shape, input_data, pad_value_ptr, output_shape,
 5487                             		.loc 6 136 3 is_stmt 1
 262:C:\Users\a5116938\Desktop\e2_studio_workspace\EEMBC_final\RX65N_Cloud_Kit\src/tensorflow/lite/kernels/internal\types.h ****   }
 5488                             		.loc 4 262 5
 5489                             	.LBB2291:
 5490                             	.LBB2228:
 5491                             	.LBB2146:
 5492                             	.LBB1366:
 5493                             	.LBB1367:
 5494                             	.LBB1368:
 5495                             	.LBB1369:
 5496                             	.LBB1370:
 5497                             	.LBB1371:
 5498                             	.LBB1372:
 5499                             	.LBB1373:
 290:C:\Users\a5116938\Desktop\e2_studio_workspace\EEMBC_final\RX65N_Cloud_Kit\src/tensorflow/lite/kernels/internal\types.h ****     Resize(new_shape_size);
 5500                             		.loc 4 290 5 is_stmt 0
 5501 0d43 ED 03 5C                		mov.L	368[r0], r3
 5502                             	.LBE1373:
 287:C:\Users\a5116938\Desktop\e2_studio_workspace\EEMBC_final\RX65N_Cloud_Kit\src/tensorflow/lite/kernels/internal\types.h ****     // If the following check fails, it is likely because a 4D-only kernel is
 5503                             		.loc 4 287 16
 5504 0d46 3E 08 00                		mov.L	#0, 32[r0]
 5505                             	.LBB1385:
 290:C:\Users\a5116938\Desktop\e2_studio_workspace\EEMBC_final\RX65N_Cloud_Kit\src/tensorflow/lite/kernels/internal\types.h ****     Resize(new_shape_size);
 5506                             		.loc 4 290 5 is_stmt 1
 5507                             	.LVL625:
 5508                             	.LBE1385:
 5509                             	.LBE1372:
 5510                             	.LBE1371:
 5511                             	.LBE1370:
 5512                             	.LBE1369:
 5513                             	.LBE1368:
 5514                             	.LBE1367:
 5515                             	.LBE1366:
 5516                             	.LBE2146:
 5517                             	.LBE2228:
 5518                             	.LBE2291:
 194:C:\Users\a5116938\Desktop\e2_studio_workspace\EEMBC_final\RX65N_Cloud_Kit\src/tensorflow/lite/kernels/internal\types.h ****   inline int32_t Dims(int i) const {
 5519                             		.loc 4 194 44
 5520                             	.LBB2292:
 5521                             	.LBB2229:
 5522                             	.LBB2147:
 5523                             	.LBB1488:
 5524                             	.LBB1479:
 5525                             	.LBB1470:
 5526                             	.LBB1398:
 5527                             	.LBB1395:
 5528                             	.LBB1392:
 5529                             	.LBB1389:
 5530                             	.LBB1386:
 290:C:\Users\a5116938\Desktop\e2_studio_workspace\EEMBC_final\RX65N_Cloud_Kit\src/tensorflow/lite/kernels/internal\types.h ****     Resize(new_shape_size);
 5531                             		.loc 4 290 5 is_stmt 0
 5532 0d49 61 43                   		cmp	#4, r3
 5533 0d4b 2B 05 38 21 0C          		bgt	.L119
 291:C:\Users\a5116938\Desktop\e2_studio_workspace\EEMBC_final\RX65N_Cloud_Kit\src/tensorflow/lite/kernels/internal\types.h ****     const int size_increase = new_shape_size - shape.DimensionsCount();
 5534                             		.loc 4 291 5 is_stmt 1
 5535                             	.LVL626:
 5536                             	.LBB1374:
 5537                             	.LBB1375:
 220:C:\Users\a5116938\Desktop\e2_studio_workspace\EEMBC_final\RX65N_Cloud_Kit\src/tensorflow/lite/kernels/internal\types.h **** #ifdef TF_LITE_STATIC_MEMORY
 5538                             		.loc 4 220 5
 227:C:\Users\a5116938\Desktop\e2_studio_workspace\EEMBC_final\RX65N_Cloud_Kit\src/tensorflow/lite/kernels/internal\types.h ****     if (dimensions_count > kMaxSmallSize) {
 5539                             		.loc 4 227 5
 227:C:\Users\a5116938\Desktop\e2_studio_workspace\EEMBC_final\RX65N_Cloud_Kit\src/tensorflow/lite/kernels/internal\types.h ****     if (dimensions_count > kMaxSmallSize) {
 5540                             		.loc 4 227 11 is_stmt 0
 5541 0d50 3E 08 04                		mov.L	#4, 32[r0]
 228:C:\Users\a5116938\Desktop\e2_studio_workspace\EEMBC_final\RX65N_Cloud_Kit\src/tensorflow/lite/kernels/internal\types.h **** #ifdef TF_LITE_STATIC_MEMORY
 5542                             		.loc 4 228 5 is_stmt 1
 5543                             	.LVL627:
 5544                             	.LBE1375:
 5545                             	.LBE1374:
 292:C:\Users\a5116938\Desktop\e2_studio_workspace\EEMBC_final\RX65N_Cloud_Kit\src/tensorflow/lite/kernels/internal\types.h ****     for (int i = 0; i < size_increase; ++i) {
 5546                             		.loc 4 292 5
 5547                             	.LBE1386:
 5548                             	.LBE1389:
 5549                             	.LBE1392:
 5550                             	.LBE1395:
 5551                             	.LBE1398:
 5552                             	.LBE1470:
 5553                             	.LBE1479:
 5554                             	.LBE1488:
 5555                             	.LBE2147:
 5556                             	.LBE2229:
 5557                             	.LBE2292:
 194:C:\Users\a5116938\Desktop\e2_studio_workspace\EEMBC_final\RX65N_Cloud_Kit\src/tensorflow/lite/kernels/internal\types.h ****   inline int32_t Dims(int i) const {
 5558                             		.loc 4 194 44
 5559                             	.LBB2293:
 5560                             	.LBB2230:
 5561                             	.LBB2148:
 5562                             	.LBB1489:
 5563                             	.LBB1480:
 5564                             	.LBB1471:
 5565                             	.LBB1399:
 5566                             	.LBB1396:
 5567                             	.LBB1393:
 5568                             	.LBB1390:
 5569                             	.LBB1387:
 292:C:\Users\a5116938\Desktop\e2_studio_workspace\EEMBC_final\RX65N_Cloud_Kit\src/tensorflow/lite/kernels/internal\types.h ****     for (int i = 0; i < size_increase; ++i) {
 5570                             		.loc 4 292 70 is_stmt 0
 5571 0d53 66 41                   		mov.L	#4, r1
 5572 0d55 43 31                   		sub	r3, r1
 5573                             	.LVL628:
 293:C:\Users\a5116938\Desktop\e2_studio_workspace\EEMBC_final\RX65N_Cloud_Kit\src/tensorflow/lite/kernels/internal\types.h ****       SetDim(i, pad_value);
 5574                             		.loc 4 293 5 is_stmt 1
 5575                             	.LBB1376:
 293:C:\Users\a5116938\Desktop\e2_studio_workspace\EEMBC_final\RX65N_Cloud_Kit\src/tensorflow/lite/kernels/internal\types.h ****       SetDim(i, pad_value);
 5576                             		.loc 4 293 23 is_stmt 0
 5577 0d57 20 1E                   		beq	.L396
 5578                             	.LVL629:
 5579                             	.LBB1377:
 5580                             	.LBB1378:
 203:C:\Users\a5116938\Desktop\e2_studio_workspace\EEMBC_final\RX65N_Cloud_Kit\src/tensorflow/lite/kernels/internal\types.h ****       dims_pointer_[i] = val;
 5581                             		.loc 4 203 5 is_stmt 1
 206:C:\Users\a5116938\Desktop\e2_studio_workspace\EEMBC_final\RX65N_Cloud_Kit\src/tensorflow/lite/kernels/internal\types.h ****     }
 5582                             		.loc 4 206 7
 206:C:\Users\a5116938\Desktop\e2_studio_workspace\EEMBC_final\RX65N_Cloud_Kit\src/tensorflow/lite/kernels/internal\types.h ****     }
 5583                             		.loc 4 206 16 is_stmt 0
 5584 0d59 3E 09 01                		mov.L	#1, 36[r0]
 5585                             	.LVL630:
 5586                             	.LBE1378:
 5587                             	.LBE1377:
 293:C:\Users\a5116938\Desktop\e2_studio_workspace\EEMBC_final\RX65N_Cloud_Kit\src/tensorflow/lite/kernels/internal\types.h ****       SetDim(i, pad_value);
 5588                             		.loc 4 293 23
 5589 0d5c 61 11                   		cmp	#1, r1
 5590 0d5e 20 17                   		beq	.L396
 294:C:\Users\a5116938\Desktop\e2_studio_workspace\EEMBC_final\RX65N_Cloud_Kit\src/tensorflow/lite/kernels/internal\types.h ****     }
 5591                             		.loc 4 294 7 is_stmt 1
 5592                             	.LVL631:
 5593                             	.LBB1382:
 5594                             	.LBB1379:
 201:C:\Users\a5116938\Desktop\e2_studio_workspace\EEMBC_final\RX65N_Cloud_Kit\src/tensorflow/lite/kernels/internal\types.h ****     TFLITE_DCHECK_LT(i, size_);
 5595                             		.loc 4 201 5
 202:C:\Users\a5116938\Desktop\e2_studio_workspace\EEMBC_final\RX65N_Cloud_Kit\src/tensorflow/lite/kernels/internal\types.h ****     if (size_ > kMaxSmallSize) {
 5596                             		.loc 4 202 5
 203:C:\Users\a5116938\Desktop\e2_studio_workspace\EEMBC_final\RX65N_Cloud_Kit\src/tensorflow/lite/kernels/internal\types.h ****       dims_pointer_[i] = val;
 5597                             		.loc 4 203 5
 206:C:\Users\a5116938\Desktop\e2_studio_workspace\EEMBC_final\RX65N_Cloud_Kit\src/tensorflow/lite/kernels/internal\types.h ****     }
 5598                             		.loc 4 206 7
 206:C:\Users\a5116938\Desktop\e2_studio_workspace\EEMBC_final\RX65N_Cloud_Kit\src/tensorflow/lite/kernels/internal\types.h ****     }
 5599                             		.loc 4 206 16 is_stmt 0
 5600 0d60 3E 0A 01                		mov.L	#1, 40[r0]
 5601                             	.LVL632:
 5602                             	.LBE1379:
 5603                             	.LBE1382:
 293:C:\Users\a5116938\Desktop\e2_studio_workspace\EEMBC_final\RX65N_Cloud_Kit\src/tensorflow/lite/kernels/internal\types.h ****       SetDim(i, pad_value);
 5604                             		.loc 4 293 23
 5605 0d63 61 21                   		cmp	#2, r1
 5606 0d65 20 10                   		beq	.L396
 294:C:\Users\a5116938\Desktop\e2_studio_workspace\EEMBC_final\RX65N_Cloud_Kit\src/tensorflow/lite/kernels/internal\types.h ****     }
 5607                             		.loc 4 294 7 is_stmt 1
 5608                             	.LVL633:
 5609                             	.LBB1383:
 5610                             	.LBB1380:
 201:C:\Users\a5116938\Desktop\e2_studio_workspace\EEMBC_final\RX65N_Cloud_Kit\src/tensorflow/lite/kernels/internal\types.h ****     TFLITE_DCHECK_LT(i, size_);
 5611                             		.loc 4 201 5
 202:C:\Users\a5116938\Desktop\e2_studio_workspace\EEMBC_final\RX65N_Cloud_Kit\src/tensorflow/lite/kernels/internal\types.h ****     if (size_ > kMaxSmallSize) {
 5612                             		.loc 4 202 5
 203:C:\Users\a5116938\Desktop\e2_studio_workspace\EEMBC_final\RX65N_Cloud_Kit\src/tensorflow/lite/kernels/internal\types.h ****       dims_pointer_[i] = val;
 5613                             		.loc 4 203 5
 206:C:\Users\a5116938\Desktop\e2_studio_workspace\EEMBC_final\RX65N_Cloud_Kit\src/tensorflow/lite/kernels/internal\types.h ****     }
 5614                             		.loc 4 206 7
 206:C:\Users\a5116938\Desktop\e2_studio_workspace\EEMBC_final\RX65N_Cloud_Kit\src/tensorflow/lite/kernels/internal\types.h ****     }
 5615                             		.loc 4 206 16 is_stmt 0
 5616 0d67 3E 0B 01                		mov.L	#1, 44[r0]
 5617                             	.LVL634:
 5618                             	.LBE1380:
 5619                             	.LBE1383:
 293:C:\Users\a5116938\Desktop\e2_studio_workspace\EEMBC_final\RX65N_Cloud_Kit\src/tensorflow/lite/kernels/internal\types.h ****       SetDim(i, pad_value);
 5620                             		.loc 4 293 23
 5621 0d6a 61 31                   		cmp	#3, r1
 5622 0d6c 11                      		beq	.L396
 294:C:\Users\a5116938\Desktop\e2_studio_workspace\EEMBC_final\RX65N_Cloud_Kit\src/tensorflow/lite/kernels/internal\types.h ****     }
 5623                             		.loc 4 294 7 is_stmt 1
 5624                             	.LVL635:
 5625                             	.LBB1384:
 5626                             	.LBB1381:
 201:C:\Users\a5116938\Desktop\e2_studio_workspace\EEMBC_final\RX65N_Cloud_Kit\src/tensorflow/lite/kernels/internal\types.h ****     TFLITE_DCHECK_LT(i, size_);
 5627                             		.loc 4 201 5
 202:C:\Users\a5116938\Desktop\e2_studio_workspace\EEMBC_final\RX65N_Cloud_Kit\src/tensorflow/lite/kernels/internal\types.h ****     if (size_ > kMaxSmallSize) {
 5628                             		.loc 4 202 5
 203:C:\Users\a5116938\Desktop\e2_studio_workspace\EEMBC_final\RX65N_Cloud_Kit\src/tensorflow/lite/kernels/internal\types.h ****       dims_pointer_[i] = val;
 5629                             		.loc 4 203 5
 206:C:\Users\a5116938\Desktop\e2_studio_workspace\EEMBC_final\RX65N_Cloud_Kit\src/tensorflow/lite/kernels/internal\types.h ****     }
 5630                             		.loc 4 206 7
 206:C:\Users\a5116938\Desktop\e2_studio_workspace\EEMBC_final\RX65N_Cloud_Kit\src/tensorflow/lite/kernels/internal\types.h ****     }
 5631                             		.loc 4 206 16 is_stmt 0
 5632 0d6d 3E 0C 01                		mov.L	#1, 48[r0]
 5633                             	.LVL636:
 5634                             	.LBE1381:
 5635                             	.LBE1384:
 293:C:\Users\a5116938\Desktop\e2_studio_workspace\EEMBC_final\RX65N_Cloud_Kit\src/tensorflow/lite/kernels/internal\types.h ****       SetDim(i, pad_value);
 5636                             		.loc 4 293 23
 5637 0d70 61 41                   		cmp	#4, r1
 5638 0d72 3B FC 0B                		bne	.L119
 5639                             	.LVL637:
 5640                             		.balign 8,3,1
 5641                             	.L396:
 5642                             	.LBE1376:
 5643                             	.LBE1387:
 5644                             	.LBE1390:
 5645                             	.LBE1393:
 5646                             	.LBE1396:
 5647                             	.LBE1399:
 5648                             	.LBE1471:
 5649                             	.LBE1480:
 5650                             	.LBE1489:
 5651                             	.LBE2148:
 5652                             	.LBE2230:
 5653                             	.LBE2293:
 214:C:\Users\a5116938\Desktop\e2_studio_workspace\EEMBC_final\RX65N_Cloud_Kit\src/tensorflow/lite/kernels/internal\types.h ****   }
 5654                             		.loc 4 214 5 is_stmt 1
 194:C:\Users\a5116938\Desktop\e2_studio_workspace\EEMBC_final\RX65N_Cloud_Kit\src/tensorflow/lite/kernels/internal\types.h ****   inline int32_t Dims(int i) const {
 5655                             		.loc 4 194 44
 5656                             	.LBB2294:
 5657                             	.LBB2231:
 5658                             	.LBB2149:
 5659                             	.LBB1490:
 5660                             	.LBB1481:
 5661                             	.LBB1472:
 5662                             	.LBB1400:
 5663                             	.LBB1397:
 5664                             	.LBB1394:
 5665                             	.LBB1391:
 5666                             	.LBB1388:
 5667                             		.loc 4 296 28 is_stmt 0
 5668 0d75 6C 21                   		shll	#2, r1
 5669                             	.LVL638:
 5670                             		.loc 4 296 16
 5671 0d77 75 4F 24                		mov.L	#36, r15
 5672 0d7a 4B 0F                   		add	r0, r15
 5673 0d7c 4B F1                   		add	r15, r1
 5674 0d7e 72 02 74 01             		add	#0x174, r0, r2
 5675 0d82 6C 23                   		shll	#2, r3
 5676                             	.LVL639:
 5677 0d84 7F 8F                   		smovf
 5678                             	.LVL640:
 5679                             	.LBE1388:
 5680                             	.LBE1391:
 5681                             	.LBE1394:
 5682                             	.LBE1397:
 5683                             	.LBE1400:
 5684                             	.LBE1472:
 5685                             	.LBE1481:
 5686                             	.LBE1490:
 5687                             	.LBE2149:
 5688                             	.LBE2231:
 5689                             	.LBE2294:
 262:C:\Users\a5116938\Desktop\e2_studio_workspace\EEMBC_final\RX65N_Cloud_Kit\src/tensorflow/lite/kernels/internal\types.h ****   }
 5690                             		.loc 4 262 5 is_stmt 1
 5691                             	.LBB2295:
 5692                             	.LBB2232:
 5693                             	.LBB2150:
 5694                             	.LBB1491:
 5695                             	.LBB1482:
 5696                             	.LBB1473:
 5697                             	.LBB1401:
 5698                             	.LBB1402:
 5699                             	.LBB1403:
 5700                             	.LBB1404:
 5701                             	.LBB1405:
 290:C:\Users\a5116938\Desktop\e2_studio_workspace\EEMBC_final\RX65N_Cloud_Kit\src/tensorflow/lite/kernels/internal\types.h ****     Resize(new_shape_size);
 5702                             		.loc 4 290 5 is_stmt 0
 5703 0d86 ED 03 56                		mov.L	344[r0], r3
 5704                             	.LBE1405:
 287:C:\Users\a5116938\Desktop\e2_studio_workspace\EEMBC_final\RX65N_Cloud_Kit\src/tensorflow/lite/kernels/internal\types.h ****     // If the following check fails, it is likely because a 4D-only kernel is
 5705                             		.loc 4 287 16
 5706 0d89 3E 02 00                		mov.L	#0, 8[r0]
 5707                             	.LBB1419:
 290:C:\Users\a5116938\Desktop\e2_studio_workspace\EEMBC_final\RX65N_Cloud_Kit\src/tensorflow/lite/kernels/internal\types.h ****     Resize(new_shape_size);
 5708                             		.loc 4 290 5 is_stmt 1
 5709                             	.LVL641:
 5710                             	.LBE1419:
 5711                             	.LBE1404:
 5712                             	.LBE1403:
 5713                             	.LBE1402:
 5714                             	.LBE1401:
 5715                             	.LBE1473:
 5716                             	.LBE1482:
 5717                             	.LBE1491:
 5718                             	.LBE2150:
 5719                             	.LBE2232:
 5720                             	.LBE2295:
 194:C:\Users\a5116938\Desktop\e2_studio_workspace\EEMBC_final\RX65N_Cloud_Kit\src/tensorflow/lite/kernels/internal\types.h ****   inline int32_t Dims(int i) const {
 5721                             		.loc 4 194 44
 5722                             	.LBB2296:
 5723                             	.LBB2233:
 5724                             	.LBB2151:
 5725                             	.LBB1492:
 5726                             	.LBB1483:
 5727                             	.LBB1474:
 5728                             	.LBB1432:
 5729                             	.LBB1429:
 5730                             	.LBB1426:
 5731                             	.LBB1423:
 5732                             	.LBB1420:
 290:C:\Users\a5116938\Desktop\e2_studio_workspace\EEMBC_final\RX65N_Cloud_Kit\src/tensorflow/lite/kernels/internal\types.h ****     Resize(new_shape_size);
 5733                             		.loc 4 290 5 is_stmt 0
 5734 0d8c 61 43                   		cmp	#4, r3
 5735 0d8e 2B 05 38 DE 0B          		bgt	.L119
 291:C:\Users\a5116938\Desktop\e2_studio_workspace\EEMBC_final\RX65N_Cloud_Kit\src/tensorflow/lite/kernels/internal\types.h ****     const int size_increase = new_shape_size - shape.DimensionsCount();
 5736                             		.loc 4 291 5 is_stmt 1
 5737                             	.LVL642:
 5738                             	.LBB1406:
 5739                             	.LBB1407:
 220:C:\Users\a5116938\Desktop\e2_studio_workspace\EEMBC_final\RX65N_Cloud_Kit\src/tensorflow/lite/kernels/internal\types.h **** #ifdef TF_LITE_STATIC_MEMORY
 5740                             		.loc 4 220 5
 227:C:\Users\a5116938\Desktop\e2_studio_workspace\EEMBC_final\RX65N_Cloud_Kit\src/tensorflow/lite/kernels/internal\types.h ****     if (dimensions_count > kMaxSmallSize) {
 5741                             		.loc 4 227 5
 5742                             	.LBE1407:
 5743                             	.LBE1406:
 292:C:\Users\a5116938\Desktop\e2_studio_workspace\EEMBC_final\RX65N_Cloud_Kit\src/tensorflow/lite/kernels/internal\types.h ****     for (int i = 0; i < size_increase; ++i) {
 5744                             		.loc 4 292 70 is_stmt 0
 5745 0d93 66 41                   		mov.L	#4, r1
 5746 0d95 43 31                   		sub	r3, r1
 5747                             	.LBB1409:
 5748                             	.LBB1408:
 227:C:\Users\a5116938\Desktop\e2_studio_workspace\EEMBC_final\RX65N_Cloud_Kit\src/tensorflow/lite/kernels/internal\types.h ****     if (dimensions_count > kMaxSmallSize) {
 5749                             		.loc 4 227 11
 5750 0d97 3E 02 04                		mov.L	#4, 8[r0]
 228:C:\Users\a5116938\Desktop\e2_studio_workspace\EEMBC_final\RX65N_Cloud_Kit\src/tensorflow/lite/kernels/internal\types.h **** #ifdef TF_LITE_STATIC_MEMORY
 5751                             		.loc 4 228 5 is_stmt 1
 5752                             	.LVL643:
 5753                             	.LBE1408:
 5754                             	.LBE1409:
 292:C:\Users\a5116938\Desktop\e2_studio_workspace\EEMBC_final\RX65N_Cloud_Kit\src/tensorflow/lite/kernels/internal\types.h ****     for (int i = 0; i < size_increase; ++i) {
 5755                             		.loc 4 292 5
 5756                             	.LBE1420:
 5757                             	.LBE1423:
 5758                             	.LBE1426:
 5759                             	.LBE1429:
 5760                             	.LBE1432:
 5761                             	.LBE1474:
 5762                             	.LBE1483:
 5763                             	.LBE1492:
 5764                             	.LBE2151:
 5765                             	.LBE2233:
 5766                             	.LBE2296:
 194:C:\Users\a5116938\Desktop\e2_studio_workspace\EEMBC_final\RX65N_Cloud_Kit\src/tensorflow/lite/kernels/internal\types.h ****   inline int32_t Dims(int i) const {
 5767                             		.loc 4 194 44
 5768                             	.LBB2297:
 5769                             	.LBB2234:
 5770                             	.LBB2152:
 5771                             	.LBB1493:
 5772                             	.LBB1484:
 5773                             	.LBB1475:
 5774                             	.LBB1433:
 5775                             	.LBB1430:
 5776                             	.LBB1427:
 5777                             	.LBB1424:
 5778                             	.LBB1421:
 293:C:\Users\a5116938\Desktop\e2_studio_workspace\EEMBC_final\RX65N_Cloud_Kit\src/tensorflow/lite/kernels/internal\types.h ****       SetDim(i, pad_value);
 5779                             		.loc 4 293 5
 5780                             	.LBB1410:
 293:C:\Users\a5116938\Desktop\e2_studio_workspace\EEMBC_final\RX65N_Cloud_Kit\src/tensorflow/lite/kernels/internal\types.h ****       SetDim(i, pad_value);
 5781                             		.loc 4 293 23 is_stmt 0
 5782 0d9a 20 1E                   		beq	.L398
 5783                             	.LVL644:
 5784                             	.LBB1411:
 5785                             	.LBB1412:
 203:C:\Users\a5116938\Desktop\e2_studio_workspace\EEMBC_final\RX65N_Cloud_Kit\src/tensorflow/lite/kernels/internal\types.h ****       dims_pointer_[i] = val;
 5786                             		.loc 4 203 5 is_stmt 1
 206:C:\Users\a5116938\Desktop\e2_studio_workspace\EEMBC_final\RX65N_Cloud_Kit\src/tensorflow/lite/kernels/internal\types.h ****     }
 5787                             		.loc 4 206 7
 206:C:\Users\a5116938\Desktop\e2_studio_workspace\EEMBC_final\RX65N_Cloud_Kit\src/tensorflow/lite/kernels/internal\types.h ****     }
 5788                             		.loc 4 206 16 is_stmt 0
 5789 0d9c 3E 03 01                		mov.L	#1, 12[r0]
 5790                             	.LVL645:
 5791                             	.LBE1412:
 5792                             	.LBE1411:
 293:C:\Users\a5116938\Desktop\e2_studio_workspace\EEMBC_final\RX65N_Cloud_Kit\src/tensorflow/lite/kernels/internal\types.h ****       SetDim(i, pad_value);
 5793                             		.loc 4 293 23
 5794 0d9f 61 11                   		cmp	#1, r1
 5795 0da1 20 17                   		beq	.L398
 294:C:\Users\a5116938\Desktop\e2_studio_workspace\EEMBC_final\RX65N_Cloud_Kit\src/tensorflow/lite/kernels/internal\types.h ****     }
 5796                             		.loc 4 294 7 is_stmt 1
 5797                             	.LVL646:
 5798                             	.LBB1416:
 5799                             	.LBB1413:
 201:C:\Users\a5116938\Desktop\e2_studio_workspace\EEMBC_final\RX65N_Cloud_Kit\src/tensorflow/lite/kernels/internal\types.h ****     TFLITE_DCHECK_LT(i, size_);
 5800                             		.loc 4 201 5
 202:C:\Users\a5116938\Desktop\e2_studio_workspace\EEMBC_final\RX65N_Cloud_Kit\src/tensorflow/lite/kernels/internal\types.h ****     if (size_ > kMaxSmallSize) {
 5801                             		.loc 4 202 5
 203:C:\Users\a5116938\Desktop\e2_studio_workspace\EEMBC_final\RX65N_Cloud_Kit\src/tensorflow/lite/kernels/internal\types.h ****       dims_pointer_[i] = val;
 5802                             		.loc 4 203 5
 206:C:\Users\a5116938\Desktop\e2_studio_workspace\EEMBC_final\RX65N_Cloud_Kit\src/tensorflow/lite/kernels/internal\types.h ****     }
 5803                             		.loc 4 206 7
 206:C:\Users\a5116938\Desktop\e2_studio_workspace\EEMBC_final\RX65N_Cloud_Kit\src/tensorflow/lite/kernels/internal\types.h ****     }
 5804                             		.loc 4 206 16 is_stmt 0
 5805 0da3 3E 04 01                		mov.L	#1, 16[r0]
 5806                             	.LVL647:
 5807                             	.LBE1413:
 5808                             	.LBE1416:
 293:C:\Users\a5116938\Desktop\e2_studio_workspace\EEMBC_final\RX65N_Cloud_Kit\src/tensorflow/lite/kernels/internal\types.h ****       SetDim(i, pad_value);
 5809                             		.loc 4 293 23
 5810 0da6 61 21                   		cmp	#2, r1
 5811 0da8 20 10                   		beq	.L398
 294:C:\Users\a5116938\Desktop\e2_studio_workspace\EEMBC_final\RX65N_Cloud_Kit\src/tensorflow/lite/kernels/internal\types.h ****     }
 5812                             		.loc 4 294 7 is_stmt 1
 5813                             	.LVL648:
 5814                             	.LBB1417:
 5815                             	.LBB1414:
 201:C:\Users\a5116938\Desktop\e2_studio_workspace\EEMBC_final\RX65N_Cloud_Kit\src/tensorflow/lite/kernels/internal\types.h ****     TFLITE_DCHECK_LT(i, size_);
 5816                             		.loc 4 201 5
 202:C:\Users\a5116938\Desktop\e2_studio_workspace\EEMBC_final\RX65N_Cloud_Kit\src/tensorflow/lite/kernels/internal\types.h ****     if (size_ > kMaxSmallSize) {
 5817                             		.loc 4 202 5
 203:C:\Users\a5116938\Desktop\e2_studio_workspace\EEMBC_final\RX65N_Cloud_Kit\src/tensorflow/lite/kernels/internal\types.h ****       dims_pointer_[i] = val;
 5818                             		.loc 4 203 5
 206:C:\Users\a5116938\Desktop\e2_studio_workspace\EEMBC_final\RX65N_Cloud_Kit\src/tensorflow/lite/kernels/internal\types.h ****     }
 5819                             		.loc 4 206 7
 206:C:\Users\a5116938\Desktop\e2_studio_workspace\EEMBC_final\RX65N_Cloud_Kit\src/tensorflow/lite/kernels/internal\types.h ****     }
 5820                             		.loc 4 206 16 is_stmt 0
 5821 0daa 3E 05 01                		mov.L	#1, 20[r0]
 5822                             	.LVL649:
 5823                             	.LBE1414:
 5824                             	.LBE1417:
 293:C:\Users\a5116938\Desktop\e2_studio_workspace\EEMBC_final\RX65N_Cloud_Kit\src/tensorflow/lite/kernels/internal\types.h ****       SetDim(i, pad_value);
 5825                             		.loc 4 293 23
 5826 0dad 61 31                   		cmp	#3, r1
 5827 0daf 11                      		beq	.L398
 294:C:\Users\a5116938\Desktop\e2_studio_workspace\EEMBC_final\RX65N_Cloud_Kit\src/tensorflow/lite/kernels/internal\types.h ****     }
 5828                             		.loc 4 294 7 is_stmt 1
 5829                             	.LVL650:
 5830                             	.LBB1418:
 5831                             	.LBB1415:
 201:C:\Users\a5116938\Desktop\e2_studio_workspace\EEMBC_final\RX65N_Cloud_Kit\src/tensorflow/lite/kernels/internal\types.h ****     TFLITE_DCHECK_LT(i, size_);
 5832                             		.loc 4 201 5
 202:C:\Users\a5116938\Desktop\e2_studio_workspace\EEMBC_final\RX65N_Cloud_Kit\src/tensorflow/lite/kernels/internal\types.h ****     if (size_ > kMaxSmallSize) {
 5833                             		.loc 4 202 5
 203:C:\Users\a5116938\Desktop\e2_studio_workspace\EEMBC_final\RX65N_Cloud_Kit\src/tensorflow/lite/kernels/internal\types.h ****       dims_pointer_[i] = val;
 5834                             		.loc 4 203 5
 206:C:\Users\a5116938\Desktop\e2_studio_workspace\EEMBC_final\RX65N_Cloud_Kit\src/tensorflow/lite/kernels/internal\types.h ****     }
 5835                             		.loc 4 206 7
 206:C:\Users\a5116938\Desktop\e2_studio_workspace\EEMBC_final\RX65N_Cloud_Kit\src/tensorflow/lite/kernels/internal\types.h ****     }
 5836                             		.loc 4 206 16 is_stmt 0
 5837 0db0 3E 06 01                		mov.L	#1, 24[r0]
 5838                             	.LVL651:
 5839                             	.LBE1415:
 5840                             	.LBE1418:
 293:C:\Users\a5116938\Desktop\e2_studio_workspace\EEMBC_final\RX65N_Cloud_Kit\src/tensorflow/lite/kernels/internal\types.h ****       SetDim(i, pad_value);
 5841                             		.loc 4 293 23
 5842 0db3 61 41                   		cmp	#4, r1
 5843 0db5 3B B9 0B                		bne	.L119
 5844                             	.LVL652:
 5845                             		.balign 8,3,1
 5846                             	.L398:
 5847                             	.LBE1410:
 5848                             	.LBE1421:
 5849                             	.LBE1424:
 5850                             	.LBE1427:
 5851                             	.LBE1430:
 5852                             	.LBE1433:
 5853                             	.LBE1475:
 5854                             	.LBE1484:
 5855                             	.LBE1493:
 5856                             	.LBE2152:
 5857                             	.LBE2234:
 5858                             	.LBE2297:
 214:C:\Users\a5116938\Desktop\e2_studio_workspace\EEMBC_final\RX65N_Cloud_Kit\src/tensorflow/lite/kernels/internal\types.h ****   }
 5859                             		.loc 4 214 5 is_stmt 1
 194:C:\Users\a5116938\Desktop\e2_studio_workspace\EEMBC_final\RX65N_Cloud_Kit\src/tensorflow/lite/kernels/internal\types.h ****   inline int32_t Dims(int i) const {
 5860                             		.loc 4 194 44
 5861                             	.LBB2298:
 5862                             	.LBB2235:
 5863                             	.LBB2153:
 5864                             	.LBB1494:
 5865                             	.LBB1485:
 5866                             	.LBB1476:
 5867                             	.LBB1434:
 5868                             	.LBB1431:
 5869                             	.LBB1428:
 5870                             	.LBB1425:
 5871                             	.LBB1422:
 5872                             		.loc 4 296 28 is_stmt 0
 5873 0db8 6C 21                   		shll	#2, r1
 5874                             	.LVL653:
 5875                             		.loc 4 296 16
 5876 0dba 66 C2                   		mov.L	#12, r2
 5877 0dbc 4B 02                   		add	r0, r2
 5878 0dbe 4B 21                   		add	r2, r1
 5879 0dc0 72 02 5C 01             		add	#0x15c, r0, r2
 5880 0dc4 6C 23                   		shll	#2, r3
 5881                             	.LVL654:
 5882 0dc6 7F 8F                   		smovf
 5883                             	.LVL655:
 5884                             	.LBE1422:
 5885                             	.LBE1425:
 5886                             	.LBE1428:
 5887                             	.LBE1431:
 5888                             	.LBE1434:
  46:C:\Users\a5116938\Desktop\e2_studio_workspace\EEMBC_final\RX65N_Cloud_Kit\src/tensorflow/lite/kernels/internal/reference\pad.h ****   TFLITE_DCHECK_LE(op_params.right_padding_count, PadKernelMaxDimensionCount());
 5889                             		.loc 6 46 3
 5890 0dc8 CC 63                   		mov.B	[r6], r3
 5891 0dca 61 43                   		cmp	#4, r3
 5892 0dcc 2B 05 38 A0 0B          		bgt	.L119
  47:C:\Users\a5116938\Desktop\e2_studio_workspace\EEMBC_final\RX65N_Cloud_Kit\src/tensorflow/lite/kernels/internal/reference\pad.h **** 
 5893                             		.loc 6 47 3
 5894 0dd1 8D 65                   		mov.B	20[r6], r5
 5895 0dd3 61 45                   		cmp	#4, r5
 5896 0dd5 2B 05 38 97 0B          		bgt	.L119
 5897                             	.LVL656:
 5898                             	.LBB1435:
  53:C:\Users\a5116938\Desktop\e2_studio_workspace\EEMBC_final\RX65N_Cloud_Kit\src/tensorflow/lite/kernels/internal/reference\pad.h ****   }
 5899                             		.loc 6 53 5
 5900 0dda F9 06 AE 00             		mov.L	#0, 696[r0]
 5901                             	.LVL657:
 5902 0dde F9 06 AF 00             		mov.L	#0, 700[r0]
 5903                             	.LVL658:
 5904 0de2 F9 06 B0 00             		mov.L	#0, 704[r0]
 5905                             	.LVL659:
 5906 0de6 F9 06 B1 00             		mov.L	#0, 708[r0]
 5907                             	.LVL660:
 5908                             	.LBE1435:
 5909                             	.LBB1436:
  55:C:\Users\a5116938\Desktop\e2_studio_workspace\EEMBC_final\RX65N_Cloud_Kit\src/tensorflow/lite/kernels/internal/reference\pad.h ****     left_padding_copy[i + PadKernelMaxDimensionCount() -
 5910                             		.loc 6 55 21
 5911 0dea 61 03                   		cmp	#0, r3
 5912 0dec 2B 17                   		ble	.L403
 5913 0dee 66 41                   		mov.L	#4, r1
 5914 0df0 43 31                   		sub	r3, r1
 5915 0df2 71 62 04                		add	#4, r6, r2
 5916 0df5 6C 21                   		shll	#2, r1
 5917 0df7 6C 23                   		shll	#2, r3
 5918 0df9 FB 4A B8 02             		mov.L	#0x2b8, r4
 5919 0dfd 4B 04                   		add	r0, r4
 5920 0dff 4B 41                   		add	r4, r1
 5921 0e01 7F 8F                   		smovf
 5922                             		.balign 8,3,4
 5923                             	.L403:
 5924                             	.LVL661:
 5925                             	.LBE1436:
 5926                             	.LBB1437:
  61:C:\Users\a5116938\Desktop\e2_studio_workspace\EEMBC_final\RX65N_Cloud_Kit\src/tensorflow/lite/kernels/internal/reference\pad.h ****   }
 5927                             		.loc 6 61 5
 5928 0e03 F9 06 AA 00             		mov.L	#0, 680[r0]
 5929                             	.LVL662:
 5930 0e07 F9 06 AB 00             		mov.L	#0, 684[r0]
 5931                             	.LVL663:
 5932 0e0b F9 06 AC 00             		mov.L	#0, 688[r0]
 5933                             	.LVL664:
 5934 0e0f F9 06 AD 00             		mov.L	#0, 692[r0]
 5935                             	.LVL665:
 5936                             	.LBE1437:
 5937                             	.LBB1438:
  63:C:\Users\a5116938\Desktop\e2_studio_workspace\EEMBC_final\RX65N_Cloud_Kit\src/tensorflow/lite/kernels/internal/reference\pad.h ****     right_padding_copy[i + PadKernelMaxDimensionCount() -
 5938                             		.loc 6 63 21
 5939 0e13 61 05                   		cmp	#0, r5
 5940 0e15 2B 18                   		ble	.L404
 5941 0e17 66 41                   		mov.L	#4, r1
 5942 0e19 43 51                   		sub	r5, r1
 5943 0e1b 71 62 18                		add	#24, r6, r2
 5944 0e1e 6C 21                   		shll	#2, r1
 5945 0e20 FD C2 53                		shll	#2, r5, r3
 5946 0e23 FB 5A A8 02             		mov.L	#0x2a8, r5
 5947 0e27 4B 05                   		add	r0, r5
 5948 0e29 4B 51                   		add	r5, r1
 5949 0e2b 7F 8F                   		smovf
 5950                             		.balign 8,3,1
 5951                             	.L404:
 5952                             	.LVL666:
 5953                             	.LBE1438:
 5954                             	.LBB1439:
 5955                             	.LBB1440:
 196:C:\Users\a5116938\Desktop\e2_studio_workspace\EEMBC_final\RX65N_Cloud_Kit\src/tensorflow/lite/kernels/internal\types.h ****     TFLITE_DCHECK_LT(i, size_);
 5956                             		.loc 4 196 5 is_stmt 1
 197:C:\Users\a5116938\Desktop\e2_studio_workspace\EEMBC_final\RX65N_Cloud_Kit\src/tensorflow/lite/kernels/internal\types.h ****     return size_ > kMaxSmallSize ? dims_pointer_[i] : dims_[i];
 5957                             		.loc 4 197 5
 5958 0e2d E5 00 02 EB             		mov.L	8[r0], 940[r0]
 5959 0e31 ED 03 EB                		mov.L	940[r0], r3
 5960 0e34 61 03                   		cmp	#0, r3
 5961 0e36 2A 05 38 36 0B          		ble	.L119
 198:C:\Users\a5116938\Desktop\e2_studio_workspace\EEMBC_final\RX65N_Cloud_Kit\src/tensorflow/lite/kernels/internal\types.h ****   }
 5962                             		.loc 4 198 5
 5963 0e3b E5 00 03 ED             		mov.L	12[r0], 948[r0]
 198:C:\Users\a5116938\Desktop\e2_studio_workspace\EEMBC_final\RX65N_Cloud_Kit\src/tensorflow/lite/kernels/internal\types.h ****   }
 5964                             		.loc 4 198 34 is_stmt 0
 5965 0e3f 61 53                   		cmp	#5, r3
 5966 0e41 2A 05 38 E1 01          		ble	.L405
 5967 0e46 ED 0E ED                		mov.L	948[r0], r14
 5968 0e49 EC EC                   		mov.L	[r14], r12
 5969                             	.LVL667:
 5970                             	.LBE1440:
 5971                             	.LBE1439:
 5972                             	.LBB1441:
 5973                             	.LBB1442:
 196:C:\Users\a5116938\Desktop\e2_studio_workspace\EEMBC_final\RX65N_Cloud_Kit\src/tensorflow/lite/kernels/internal\types.h ****     TFLITE_DCHECK_LT(i, size_);
 5974                             		.loc 4 196 5 is_stmt 1
 197:C:\Users\a5116938\Desktop\e2_studio_workspace\EEMBC_final\RX65N_Cloud_Kit\src/tensorflow/lite/kernels/internal\types.h ****     return size_ > kMaxSmallSize ? dims_pointer_[i] : dims_[i];
 5975                             		.loc 4 197 5
 198:C:\Users\a5116938\Desktop\e2_studio_workspace\EEMBC_final\RX65N_Cloud_Kit\src/tensorflow/lite/kernels/internal\types.h ****   }
 5976                             		.loc 4 198 34 is_stmt 0
 5977 0e4b E5 E0 01 E3             		mov.L	4[r14], 908[r0]
 5978                             	.LVL668:
 5979                             	.LBE1442:
 5980                             	.LBE1441:
 5981                             	.LBB1444:
 5982                             	.LBB1445:
 196:C:\Users\a5116938\Desktop\e2_studio_workspace\EEMBC_final\RX65N_Cloud_Kit\src/tensorflow/lite/kernels/internal\types.h ****     TFLITE_DCHECK_LT(i, size_);
 5983                             		.loc 4 196 5 is_stmt 1
 197:C:\Users\a5116938\Desktop\e2_studio_workspace\EEMBC_final\RX65N_Cloud_Kit\src/tensorflow/lite/kernels/internal\types.h ****     return size_ > kMaxSmallSize ? dims_pointer_[i] : dims_[i];
 5984                             		.loc 4 197 5
 198:C:\Users\a5116938\Desktop\e2_studio_workspace\EEMBC_final\RX65N_Cloud_Kit\src/tensorflow/lite/kernels/internal\types.h ****   }
 5985                             		.loc 4 198 34 is_stmt 0
 5986 0e4f ED E8 02                		mov.L	8[r14], r8
 5987                             	.LVL669:
 5988                             	.LBE1445:
 5989                             	.LBE1444:
 5990                             	.LBB1447:
 5991                             	.LBB1448:
 196:C:\Users\a5116938\Desktop\e2_studio_workspace\EEMBC_final\RX65N_Cloud_Kit\src/tensorflow/lite/kernels/internal\types.h ****     TFLITE_DCHECK_LT(i, size_);
 5992                             		.loc 4 196 5 is_stmt 1
 197:C:\Users\a5116938\Desktop\e2_studio_workspace\EEMBC_final\RX65N_Cloud_Kit\src/tensorflow/lite/kernels/internal\types.h ****     return size_ > kMaxSmallSize ? dims_pointer_[i] : dims_[i];
 5993                             		.loc 4 197 5
 198:C:\Users\a5116938\Desktop\e2_studio_workspace\EEMBC_final\RX65N_Cloud_Kit\src/tensorflow/lite/kernels/internal\types.h ****   }
 5994                             		.loc 4 198 34 is_stmt 0
 5995 0e52 ED E5 03                		mov.L	12[r14], r5
 5996                             	.LVL670:
 5997                             	.LBE1448:
 5998                             	.LBE1447:
  74:C:\Users\a5116938\Desktop\e2_studio_workspace\EEMBC_final\RX65N_Cloud_Kit\src/tensorflow/lite/kernels/internal/reference\pad.h ****   const int left_h_padding = left_padding_copy[1];
 5999                             		.loc 6 74 13
 6000 0e55 E5 00 AE E6             		mov.L	696[r0], 920[r0]
 6001                             	.LVL671:
  75:C:\Users\a5116938\Desktop\e2_studio_workspace\EEMBC_final\RX65N_Cloud_Kit\src/tensorflow/lite/kernels/internal/reference\pad.h ****   const int left_w_padding = left_padding_copy[2];
 6002                             		.loc 6 75 13
 6003 0e59 E5 00 AF E5             		mov.L	700[r0], 916[r0]
 6004                             	.LVL672:
  76:C:\Users\a5116938\Desktop\e2_studio_workspace\EEMBC_final\RX65N_Cloud_Kit\src/tensorflow/lite/kernels/internal/reference\pad.h ****   const int left_d_padding = left_padding_copy[3];
 6005                             		.loc 6 76 13
 6006 0e5d E5 00 B0 E8             		mov.L	704[r0], 928[r0]
 6007                             	.LVL673:
  77:C:\Users\a5116938\Desktop\e2_studio_workspace\EEMBC_final\RX65N_Cloud_Kit\src/tensorflow/lite/kernels/internal/reference\pad.h **** 
 6008                             		.loc 6 77 13
 6009 0e61 E5 00 B1 EC             		mov.L	708[r0], 944[r0]
 6010                             	.LVL674:
  79:C:\Users\a5116938\Desktop\e2_studio_workspace\EEMBC_final\RX65N_Cloud_Kit\src/tensorflow/lite/kernels/internal/reference\pad.h ****   const int right_h_padding = right_padding_copy[1];
 6011                             		.loc 6 79 13
 6012 0e65 E5 00 AA E7             		mov.L	680[r0], 924[r0]
 6013                             	.LVL675:
  80:C:\Users\a5116938\Desktop\e2_studio_workspace\EEMBC_final\RX65N_Cloud_Kit\src/tensorflow/lite/kernels/internal/reference\pad.h ****   const int right_w_padding = right_padding_copy[2];
 6014                             		.loc 6 80 13
 6015 0e69 ED 09 AB                		mov.L	684[r0], r9
 6016                             	.LVL676:
  81:C:\Users\a5116938\Desktop\e2_studio_workspace\EEMBC_final\RX65N_Cloud_Kit\src/tensorflow/lite/kernels/internal/reference\pad.h ****   const int right_d_padding = right_padding_copy[3];
 6017                             		.loc 6 81 13
 6018 0e6c ED 04 AC                		mov.L	688[r0], r4
 6019                             	.LVL677:
  82:C:\Users\a5116938\Desktop\e2_studio_workspace\EEMBC_final\RX65N_Cloud_Kit\src/tensorflow/lite/kernels/internal/reference\pad.h **** 
 6020                             		.loc 6 82 13
 6021 0e6f ED 03 AD                		mov.L	692[r0], r3
 6022                             	.LVL678:
 6023 0e72 EF E1                   		mov.L	r14, r1
 6024                             	.LBB1450:
  88:C:\Users\a5116938\Desktop\e2_studio_workspace\EEMBC_final\RX65N_Cloud_Kit\src/tensorflow/lite/kernels/internal/reference\pad.h ****     for (int out_h = 0; out_h < output_height; ++out_h) {
 6025                             		.loc 6 88 29
 6026 0e74 61 0C                   		cmp	#0, r12
 6027 0e76 2A 05 38 99 08          		ble	.L408
 6028                             	.LVL679:
 6029                             		.balign 8,3,2
 6030                             	.L407:
 6031 0e7b ED 0E E3                		mov.L	908[r0], r14
 6032 0e7e 61 0E                   		cmp	#0, r14
 6033 0e80 2A 05 38 C1 00          		ble	.L411
 6034 0e85 FF 03 35                		sub	r3, r5, r3
 6035                             	.LVL680:
 6036 0e88 E7 03 E4                		mov.L	r3, 912[r0]
 6037 0e8b FD C2 52                		shll	#2, r5, r2
 6038 0e8e 66 01                   		mov.L	#0, r1
 6039                             	.LBB1451:
 6040                             	.LBB1452:
 6041                             	.LBB1453:
  95:C:\Users\a5116938\Desktop\e2_studio_workspace\EEMBC_final\RX65N_Cloud_Kit\src/tensorflow/lite/kernels/internal/reference\pad.h ****               out_w < left_w_padding ||
 6042                             		.loc 6 95 38
 6043 0e90 43 9E                   		sub	r9, r14
 6044 0e92 E7 0E E2                		mov.L	r14, 904[r0]
 6045 0e95 FC 17 53                		min	r5, r3
 6046 0e98 E7 03 EA                		mov.L	r3, 936[r0]
  97:C:\Users\a5116938\Desktop\e2_studio_workspace\EEMBC_final\RX65N_Cloud_Kit\src/tensorflow/lite/kernels/internal/reference\pad.h ****               out_d < left_d_padding ||
 6047                             		.loc 6 97 37
 6048 0e9b FF 04 48                		sub	r4, r8, r4
 6049                             	.LVL681:
 6050 0e9e E7 04 E9                		mov.L	r4, 932[r0]
 6051 0ea1 EF DF                   		mov.L	r13, r15
 6052                             	.LVL682:
 6053                             		.balign 8,3,2
 6054                             	.L431:
  93:C:\Users\a5116938\Desktop\e2_studio_workspace\EEMBC_final\RX65N_Cloud_Kit\src/tensorflow/lite/kernels/internal/reference\pad.h ****               out_h < left_h_padding ||
 6055                             		.loc 6 93 37
 6056 0ea3 ED 03 E7                		mov.L	924[r0], r3
 6057 0ea6 FF 09 3C                		sub	r3, r12, r9
 6058                             	.LBE1453:
 6059                             	.LBE1452:
  89:C:\Users\a5116938\Desktop\e2_studio_workspace\EEMBC_final\RX65N_Cloud_Kit\src/tensorflow/lite/kernels/internal/reference\pad.h ****       for (int out_w = 0; out_w < output_width; ++out_w) {
 6060                             		.loc 6 89 14
 6061 0ea9 66 06                   		mov.L	#0, r6
 6062                             	.LVL683:
 6063                             		.balign 8,3,1
 6064                             	.L430:
 6065                             	.LBB1456:
  90:C:\Users\a5116938\Desktop\e2_studio_workspace\EEMBC_final\RX65N_Cloud_Kit\src/tensorflow/lite/kernels/internal/reference\pad.h ****         for (int out_d = 0; out_d < output_depth; ++out_d) {
 6066                             		.loc 6 90 33
 6067 0eab 61 08                   		cmp	#0, r8
 6068 0ead 2A 05 38 81 00          		ble	.L412
  90:C:\Users\a5116938\Desktop\e2_studio_workspace\EEMBC_final\RX65N_Cloud_Kit\src/tensorflow/lite/kernels/internal/reference\pad.h ****         for (int out_d = 0; out_d < output_depth; ++out_d) {
 6069                             		.loc 6 90 16
 6070 0eb2 66 0B                   		mov.L	#0, r11
 6071                             	.LVL684:
 6072                             		.balign 8,3,1
 6073                             	.L429:
 6074                             	.LBB1454:
  91:C:\Users\a5116938\Desktop\e2_studio_workspace\EEMBC_final\RX65N_Cloud_Kit\src/tensorflow/lite/kernels/internal/reference\pad.h ****           if (out_b < left_b_padding ||
 6075                             		.loc 6 91 35
 6076 0eb4 61 05                   		cmp	#0, r5
 6077 0eb6 2B 74                   		ble	.L413
 6078 0eb8 ED 04 E6                		mov.L	920[r0], r4
 6079 0ebb 47 41                   		cmp	r4, r1
 6080 0ebd 28 05 38 53 01          		blt	.L486
 6081 0ec2 ED 0E E9                		mov.L	932[r0], r14
 6082 0ec5 47 EB                   		cmp	r14, r11
 6083 0ec7 29 05 38 F3 00          		bge	.L415
 6084 0ecc 47 91                   		cmp	r9, r1
 6085 0ece 29 05 38 DC 00          		bge	.L487
 6086 0ed3 ED 03 E2                		mov.L	904[r0], r3
 6087 0ed6 47 36                   		cmp	r3, r6
 6088 0ed8 29 05 38 C1 00          		bge	.L488
 6089 0edd ED 04 E4                		mov.L	912[r0], r4
 6090 0ee0 61 04                   		cmp	#0, r4
 6091 0ee2 2A 05 38 A7 00          		ble	.L489
  97:C:\Users\a5116938\Desktop\e2_studio_workspace\EEMBC_final\RX65N_Cloud_Kit\src/tensorflow/lite/kernels/internal/reference\pad.h ****               out_d < left_d_padding ||
 6092                             		.loc 6 97 37
 6093 0ee7 EF 7D                   		mov.L	r7, r13
  91:C:\Users\a5116938\Desktop\e2_studio_workspace\EEMBC_final\RX65N_Cloud_Kit\src/tensorflow/lite/kernels/internal/reference\pad.h ****           if (out_b < left_b_padding ||
 6094                             		.loc 6 91 18
 6095 0ee9 66 04                   		mov.L	#0, r4
 6096 0eeb 2E 20                   		bra	.L420
 6097                             	.LVL685:
 6098                             	.L934:
  95:C:\Users\a5116938\Desktop\e2_studio_workspace\EEMBC_final\RX65N_Cloud_Kit\src/tensorflow/lite/kernels/internal/reference\pad.h ****               out_w < left_w_padding ||
 6099                             		.loc 6 95 56
 6100 0eed ED 0E E8                		mov.L	928[r0], r14
 6101 0ef0 47 EB                   		cmp	r14, r11
 6102 0ef2 29 23                   		blt	.L492
  97:C:\Users\a5116938\Desktop\e2_studio_workspace\EEMBC_final\RX65N_Cloud_Kit\src/tensorflow/lite/kernels/internal/reference\pad.h ****               out_d < left_d_padding ||
 6103                             		.loc 6 97 55
 6104 0ef4 ED 0E EC                		mov.L	944[r0], r14
 6105 0ef7 47 E4                   		cmp	r14, r4
 6106 0ef9 29 1C                   		blt	.L492
 6107                             	.LVL686:
 102:C:\Users\a5116938\Desktop\e2_studio_workspace\EEMBC_final\RX65N_Cloud_Kit\src/tensorflow/lite/kernels/internal/reference\pad.h ****           }
 6108                             		.loc 6 102 13
 6109 0efb FD 2A FE                		mov.L	[r15+], r14
 6110                             	.LVL687:
 6111 0efe E3 DE                   		mov.L	r14, [r13]
 6112                             	.LVL688:
  91:C:\Users\a5116938\Desktop\e2_studio_workspace\EEMBC_final\RX65N_Cloud_Kit\src/tensorflow/lite/kernels/internal/reference\pad.h ****           if (out_b < left_b_padding ||
 6113                             		.loc 6 91 9
 6114 0f00 62 14                   		add	#1, r4
 6115                             	.LVL689:
 6116 0f02 EF 3D                   		mov.L	r3, r13
  91:C:\Users\a5116938\Desktop\e2_studio_workspace\EEMBC_final\RX65N_Cloud_Kit\src/tensorflow/lite/kernels/internal/reference\pad.h ****           if (out_b < left_b_padding ||
 6117                             		.loc 6 91 35
 6118 0f04 ED 0E EA                		mov.L	936[r0], r14
 6119 0f07 47 E4                   		cmp	r14, r4
 6120 0f09 28 1B                   		bge	.L933
 6121                             	.LVL690:
 6122                             		.balign 8,3,2
 6123                             	.L420:
 6124 0f0b 71 D3 04                		add	#4, r13, r3
  93:C:\Users\a5116938\Desktop\e2_studio_workspace\EEMBC_final\RX65N_Cloud_Kit\src/tensorflow/lite/kernels/internal/reference\pad.h ****               out_h < left_h_padding ||
 6125                             		.loc 6 93 55
 6126 0f0e ED 0E E5                		mov.L	916[r0], r14
 6127 0f11 47 E6                   		cmp	r14, r6
 6128 0f13 28 DA                   		bge	.L934
 6129                             		.balign 8,3,1
 6130                             	.L492:
 100:C:\Users\a5116938\Desktop\e2_studio_workspace\EEMBC_final\RX65N_Cloud_Kit\src/tensorflow/lite/kernels/internal/reference\pad.h ****           } else {
 6131                             		.loc 6 100 13
 6132 0f15 EF AE                   		mov.L	r10, r14
 6133 0f17 E3 DE                   		mov.L	r14, [r13]
 6134                             	.LVL691:
  91:C:\Users\a5116938\Desktop\e2_studio_workspace\EEMBC_final\RX65N_Cloud_Kit\src/tensorflow/lite/kernels/internal/reference\pad.h ****           if (out_b < left_b_padding ||
 6135                             		.loc 6 91 9
 6136 0f19 62 14                   		add	#1, r4
 6137                             	.LVL692:
 6138 0f1b EF 3D                   		mov.L	r3, r13
  91:C:\Users\a5116938\Desktop\e2_studio_workspace\EEMBC_final\RX65N_Cloud_Kit\src/tensorflow/lite/kernels/internal/reference\pad.h ****           if (out_b < left_b_padding ||
 6139                             		.loc 6 91 35
 6140 0f1d ED 0E EA                		mov.L	936[r0], r14
 6141 0f20 47 E4                   		cmp	r14, r4
 6142 0f22 29 E9                   		blt	.L420
 6143                             		.balign 8,3,1
 6144                             	.L933:
 6145 0f24 47 54                   		cmp	r5, r4
 6146 0f26 29 6A                   		blt	.L423
 6147                             	.LVL693:
 6148                             		.balign 8,3,1
 6149                             	.L908:
 6150 0f28 4B 27                   		add	r2, r7
 6151                             	.LVL694:
 6152                             		.balign 8,3,1
 6153                             	.L413:
 6154                             	.LBE1454:
  90:C:\Users\a5116938\Desktop\e2_studio_workspace\EEMBC_final\RX65N_Cloud_Kit\src/tensorflow/lite/kernels/internal/reference\pad.h ****         for (int out_d = 0; out_d < output_depth; ++out_d) {
 6155                             		.loc 6 90 7
 6156 0f2a 62 1B                   		add	#1, r11
 6157                             	.LVL695:
  90:C:\Users\a5116938\Desktop\e2_studio_workspace\EEMBC_final\RX65N_Cloud_Kit\src/tensorflow/lite/kernels/internal/reference\pad.h ****         for (int out_d = 0; out_d < output_depth; ++out_d) {
 6158                             		.loc 6 90 33
 6159 0f2c 47 8B                   		cmp	r8, r11
 6160 0f2e 21 86                   		bne	.L429
 6161                             	.LVL696:
 6162                             		.balign 8,3,1
 6163                             	.L412:
 6164                             	.LBE1456:
  89:C:\Users\a5116938\Desktop\e2_studio_workspace\EEMBC_final\RX65N_Cloud_Kit\src/tensorflow/lite/kernels/internal/reference\pad.h ****       for (int out_w = 0; out_w < output_width; ++out_w) {
 6165                             		.loc 6 89 5
 6166 0f30 62 16                   		add	#1, r6
 6167                             	.LVL697:
  89:C:\Users\a5116938\Desktop\e2_studio_workspace\EEMBC_final\RX65N_Cloud_Kit\src/tensorflow/lite/kernels/internal/reference\pad.h ****       for (int out_w = 0; out_w < output_width; ++out_w) {
 6168                             		.loc 6 89 31
 6169 0f32 ED 04 E3                		mov.L	908[r0], r4
 6170 0f35 47 46                   		cmp	r4, r6
 6171 0f37 3B 74 FF                		bne	.L430
 6172                             	.LBE1451:
  88:C:\Users\a5116938\Desktop\e2_studio_workspace\EEMBC_final\RX65N_Cloud_Kit\src/tensorflow/lite/kernels/internal/reference\pad.h ****     for (int out_h = 0; out_h < output_height; ++out_h) {
 6173                             		.loc 6 88 3
 6174 0f3a 62 11                   		add	#1, r1
 6175                             	.LVL698:
  88:C:\Users\a5116938\Desktop\e2_studio_workspace\EEMBC_final\RX65N_Cloud_Kit\src/tensorflow/lite/kernels/internal/reference\pad.h ****     for (int out_h = 0; out_h < output_height; ++out_h) {
 6176                             		.loc 6 88 29
 6177 0f3c 47 C1                   		cmp	r12, r1
 6178 0f3e 28 05 38 63 FF          		blt	.L431
 6179                             	.LVL699:
 6180                             		.balign 8,3,2
 6181                             	.L411:
 6182                             	.LBE1450:
 6183                             	.LBB1459:
 6184                             	.LBB1460:
 185:C:\Users\a5116938\Desktop\e2_studio_workspace\EEMBC_final\RX65N_Cloud_Kit\src/tensorflow/lite/kernels/internal\types.h **** #ifdef TF_LITE_STATIC_MEMORY
 6185                             		.loc 4 185 5 is_stmt 1
 6186 0f43 ED 05 EB                		mov.L	940[r0], r5
 6187                             	.LVL700:
 6188 0f46 61 55                   		cmp	#5, r5
 6189 0f48 2B 0A                   		ble	.L410
 189:C:\Users\a5116938\Desktop\e2_studio_workspace\EEMBC_final\RX65N_Cloud_Kit\src/tensorflow/lite/kernels/internal\types.h **** #endif  // TF_LITE_STATIC_MEMORY
 6190                             		.loc 4 189 7
 189:C:\Users\a5116938\Desktop\e2_studio_workspace\EEMBC_final\RX65N_Cloud_Kit\src/tensorflow/lite/kernels/internal\types.h **** #endif  // TF_LITE_STATIC_MEMORY
 6191                             		.loc 4 189 29 is_stmt 0
 6192 0f4a ED 0F ED                		mov.L	948[r0], r15
 6193 0f4d 61 0F                   		cmp	#0, r15
 6194 0f4f 3B C0 07                		bne	.L935
 6195                             	.LVL701:
 6196                             		.balign 8,3,1
 6197                             	.L410:
 6198                             	.LBE1460:
 6199                             	.LBE1459:
 6200                             	.LBB1462:
 6201                             	.LBB1463:
 185:C:\Users\a5116938\Desktop\e2_studio_workspace\EEMBC_final\RX65N_Cloud_Kit\src/tensorflow/lite/kernels/internal\types.h **** #ifdef TF_LITE_STATIC_MEMORY
 6202                             		.loc 4 185 5 is_stmt 1
 6203 0f52 AA 07                   		mov.L	32[r0], r7
 6204                             	.LVL702:
 6205 0f54 61 57                   		cmp	#5, r7
 6206 0f56 2B 0B                   		ble	.L433
 189:C:\Users\a5116938\Desktop\e2_studio_workspace\EEMBC_final\RX65N_Cloud_Kit\src/tensorflow/lite/kernels/internal\types.h **** #endif  // TF_LITE_STATIC_MEMORY
 6207                             		.loc 4 189 7
 189:C:\Users\a5116938\Desktop\e2_studio_workspace\EEMBC_final\RX65N_Cloud_Kit\src/tensorflow/lite/kernels/internal\types.h **** #endif  // TF_LITE_STATIC_MEMORY
 6208                             		.loc 4 189 16 is_stmt 0
 6209 0f58 AA 09                   		mov.L	36[r0], r1
 189:C:\Users\a5116938\Desktop\e2_studio_workspace\EEMBC_final\RX65N_Cloud_Kit\src/tensorflow/lite/kernels/internal\types.h **** #endif  // TF_LITE_STATIC_MEMORY
 6210                             		.loc 4 189 29
 6211 0f5a 61 01                   		cmp	#0, r1
 6212 0f5c 15                      		beq	.L433
 189:C:\Users\a5116938\Desktop\e2_studio_workspace\EEMBC_final\RX65N_Cloud_Kit\src/tensorflow/lite/kernels/internal\types.h **** #endif  // TF_LITE_STATIC_MEMORY
 6213                             		.loc 4 189 16
 6214 0f5d 05 00 00 00             		bsr	__ZdaPv
 6215                             	.LVL703:
 6216                             		.balign 8,3,2
 6217                             	.L433:
 6218                             	.LBE1463:
 6219                             	.LBE1462:
 6220                             	.LBE1476:
 6221                             	.LBE1485:
 6222                             	.LBE1494:
 6223                             	.LBB1495:
 6224                             	.LBB1496:
 185:C:\Users\a5116938\Desktop\e2_studio_workspace\EEMBC_final\RX65N_Cloud_Kit\src/tensorflow/lite/kernels/internal\types.h **** #ifdef TF_LITE_STATIC_MEMORY
 6225                             		.loc 4 185 5 is_stmt 1
 6226 0f61 ED 07 56                		mov.L	344[r0], r7
 6227 0f64 61 57                   		cmp	#5, r7
 6228 0f66 2B 0C                   		ble	.L434
 189:C:\Users\a5116938\Desktop\e2_studio_workspace\EEMBC_final\RX65N_Cloud_Kit\src/tensorflow/lite/kernels/internal\types.h **** #endif  // TF_LITE_STATIC_MEMORY
 6229                             		.loc 4 189 7
 189:C:\Users\a5116938\Desktop\e2_studio_workspace\EEMBC_final\RX65N_Cloud_Kit\src/tensorflow/lite/kernels/internal\types.h **** #endif  // TF_LITE_STATIC_MEMORY
 6230                             		.loc 4 189 16 is_stmt 0
 6231 0f68 ED 01 57                		mov.L	348[r0], r1
 189:C:\Users\a5116938\Desktop\e2_studio_workspace\EEMBC_final\RX65N_Cloud_Kit\src/tensorflow/lite/kernels/internal\types.h **** #endif  // TF_LITE_STATIC_MEMORY
 6232                             		.loc 4 189 29
 6233 0f6b 61 01                   		cmp	#0, r1
 6234 0f6d 15                      		beq	.L434
 189:C:\Users\a5116938\Desktop\e2_studio_workspace\EEMBC_final\RX65N_Cloud_Kit\src/tensorflow/lite/kernels/internal\types.h **** #endif  // TF_LITE_STATIC_MEMORY
 6235                             		.loc 4 189 16
 6236 0f6e 05 00 00 00             		bsr	__ZdaPv
 6237                             	.LVL704:
 6238                             		.balign 8,3,2
 6239                             	.L434:
 6240                             	.LBE1496:
 6241                             	.LBE1495:
 6242                             	.LBB1497:
 6243                             	.LBB1356:
 185:C:\Users\a5116938\Desktop\e2_studio_workspace\EEMBC_final\RX65N_Cloud_Kit\src/tensorflow/lite/kernels/internal\types.h **** #ifdef TF_LITE_STATIC_MEMORY
 6244                             		.loc 4 185 5 is_stmt 1
 6245 0f72 ED 07 5C                		mov.L	368[r0], r7
 6246 0f75 61 57                   		cmp	#5, r7
 6247 0f77 2A 05 38 61 F3          		ble	.L435
 189:C:\Users\a5116938\Desktop\e2_studio_workspace\EEMBC_final\RX65N_Cloud_Kit\src/tensorflow/lite/kernels/internal\types.h **** #endif  // TF_LITE_STATIC_MEMORY
 6248                             		.loc 4 189 7
 189:C:\Users\a5116938\Desktop\e2_studio_workspace\EEMBC_final\RX65N_Cloud_Kit\src/tensorflow/lite/kernels/internal\types.h **** #endif  // TF_LITE_STATIC_MEMORY
 6249                             		.loc 4 189 16 is_stmt 0
 6250 0f7c ED 01 5D                		mov.L	372[r0], r1
 189:C:\Users\a5116938\Desktop\e2_studio_workspace\EEMBC_final\RX65N_Cloud_Kit\src/tensorflow/lite/kernels/internal\types.h **** #endif  // TF_LITE_STATIC_MEMORY
 6251                             		.loc 4 189 29
 6252 0f7f 61 01                   		cmp	#0, r1
 6253 0f81 3A 59 F3                		beq	.L435
 189:C:\Users\a5116938\Desktop\e2_studio_workspace\EEMBC_final\RX65N_Cloud_Kit\src/tensorflow/lite/kernels/internal\types.h **** #endif  // TF_LITE_STATIC_MEMORY
 6254                             		.loc 4 189 16
 6255 0f84 05 00 00 00             		bsr	__ZdaPv
 6256                             	.LVL705:
 6257 0f88 38 52 F3                		bra	.L435
 6258                             	.LVL706:
 6259                             	.L489:
 6260                             	.LBE1356:
 6261                             	.LBE1497:
 6262                             	.LBB1498:
 6263                             	.LBB1486:
 6264                             	.LBB1477:
 6265                             	.LBB1464:
 6266                             	.LBB1458:
 6267                             	.LBB1457:
 6268                             	.LBB1455:
  97:C:\Users\a5116938\Desktop\e2_studio_workspace\EEMBC_final\RX65N_Cloud_Kit\src/tensorflow/lite/kernels/internal/reference\pad.h ****               out_d < left_d_padding ||
 6269                             		.loc 6 97 37
 6270 0f8b EF 73                   		mov.L	r7, r3
 6271 0f8d 66 04                   		mov.L	#0, r4
 6272                             	.LVL707:
 6273 0f8f 03                      		.balign 8,3,1
 6274                             	.L423:
  91:C:\Users\a5116938\Desktop\e2_studio_workspace\EEMBC_final\RX65N_Cloud_Kit\src/tensorflow/lite/kernels/internal/reference\pad.h ****           if (out_b < left_b_padding ||
 6275                             		.loc 6 91 9
 6276 0f90 62 14                   		add	#1, r4
 6277                             	.LVL708:
 6278 0f92 FD 22 3A                		mov.L	r10, [r3+]
 6279                             	.LVL709:
  91:C:\Users\a5116938\Desktop\e2_studio_workspace\EEMBC_final\RX65N_Cloud_Kit\src/tensorflow/lite/kernels/internal/reference\pad.h ****           if (out_b < left_b_padding ||
 6280                             		.loc 6 91 35
 6281 0f95 47 45                   		cmp	r4, r5
 6282 0f97 2A F9                   		bgt	.L423
 6283 0f99 2E 8F                   		bra	.L908
 6284                             	.LVL710:
 6285                             	.L488:
  91:C:\Users\a5116938\Desktop\e2_studio_workspace\EEMBC_final\RX65N_Cloud_Kit\src/tensorflow/lite/kernels/internal/reference\pad.h ****           if (out_b < left_b_padding ||
 6286                             		.loc 6 91 18
 6287 0f9b 66 04                   		mov.L	#0, r4
 6288                             	.LVL711:
 6289 0f9d FC 13 00                		.balign 8,3,5
 6290                             	.L417:
 6291 0fa0 FE 24 7A                		mov.L	r10, [r4,r7]
 6292                             	.LVL712:
  91:C:\Users\a5116938\Desktop\e2_studio_workspace\EEMBC_final\RX65N_Cloud_Kit\src/tensorflow/lite/kernels/internal/reference\pad.h ****           if (out_b < left_b_padding ||
 6293                             		.loc 6 91 9
 6294 0fa3 62 14                   		add	#1, r4
 6295                             	.LVL713:
  91:C:\Users\a5116938\Desktop\e2_studio_workspace\EEMBC_final\RX65N_Cloud_Kit\src/tensorflow/lite/kernels/internal/reference\pad.h ****           if (out_b < left_b_padding ||
 6296                             		.loc 6 91 35
 6297 0fa5 47 54                   		cmp	r5, r4
 6298 0fa7 21 F9                   		bne	.L417
 6299 0fa9 38 7F FF                		bra	.L908
 6300                             	.LVL714:
 6301                             	.L487:
  91:C:\Users\a5116938\Desktop\e2_studio_workspace\EEMBC_final\RX65N_Cloud_Kit\src/tensorflow/lite/kernels/internal/reference\pad.h ****           if (out_b < left_b_padding ||
 6302                             		.loc 6 91 18
 6303 0fac 66 04                   		mov.L	#0, r4
 6304                             	.LVL715:
 6305 0fae EF 00                   		.balign 8,3,5
 6306                             	.L416:
 6307 0fb0 FE 24 7A                		mov.L	r10, [r4,r7]
 6308                             	.LVL716:
  91:C:\Users\a5116938\Desktop\e2_studio_workspace\EEMBC_final\RX65N_Cloud_Kit\src/tensorflow/lite/kernels/internal/reference\pad.h ****           if (out_b < left_b_padding ||
 6309                             		.loc 6 91 9
 6310 0fb3 62 14                   		add	#1, r4
 6311                             	.LVL717:
  91:C:\Users\a5116938\Desktop\e2_studio_workspace\EEMBC_final\RX65N_Cloud_Kit\src/tensorflow/lite/kernels/internal/reference\pad.h ****           if (out_b < left_b_padding ||
 6312                             		.loc 6 91 35
 6313 0fb5 47 54                   		cmp	r5, r4
 6314 0fb7 21 F9                   		bne	.L416
 6315 0fb9 38 6F FF                		bra	.L908
 6316                             	.LVL718:
 6317                             	.L415:
 6318 0fbc ED 03 E2                		mov.L	904[r0], r3
  91:C:\Users\a5116938\Desktop\e2_studio_workspace\EEMBC_final\RX65N_Cloud_Kit\src/tensorflow/lite/kernels/internal/reference\pad.h ****           if (out_b < left_b_padding ||
 6319                             		.loc 6 91 18
 6320 0fbf 66 04                   		mov.L	#0, r4
 6321 0fc1 47 36                   		cmp	r3, r6
 6322 0fc3 28 28                   		bge	.L424
 6323 0fc5 47 91                   		cmp	r9, r1
 6324 0fc7 28 0E                   		bge	.L425
 6325                             	.LVL719:
 6326                             		.balign 8,3,5
 6327                             	.L426:
 6328 0fc9 FE 24 7A                		mov.L	r10, [r4,r7]
 6329                             	.LVL720:
  91:C:\Users\a5116938\Desktop\e2_studio_workspace\EEMBC_final\RX65N_Cloud_Kit\src/tensorflow/lite/kernels/internal/reference\pad.h ****           if (out_b < left_b_padding ||
 6330                             		.loc 6 91 9
 6331 0fcc 62 14                   		add	#1, r4
 6332                             	.LVL721:
  91:C:\Users\a5116938\Desktop\e2_studio_workspace\EEMBC_final\RX65N_Cloud_Kit\src/tensorflow/lite/kernels/internal/reference\pad.h ****           if (out_b < left_b_padding ||
 6333                             		.loc 6 91 35
 6334 0fce 47 54                   		cmp	r5, r4
 6335 0fd0 21 F9                   		bne	.L426
 6336 0fd2 38 56 FF                		bra	.L908
 6337                             	.LVL722:
 6338                             	.L425:
 6339 0fd5 FE 24 7A                		mov.L	r10, [r4,r7]
 6340                             	.LVL723:
  91:C:\Users\a5116938\Desktop\e2_studio_workspace\EEMBC_final\RX65N_Cloud_Kit\src/tensorflow/lite/kernels/internal/reference\pad.h ****           if (out_b < left_b_padding ||
 6341                             		.loc 6 91 9
 6342 0fd8 62 14                   		add	#1, r4
 6343                             	.LVL724:
  91:C:\Users\a5116938\Desktop\e2_studio_workspace\EEMBC_final\RX65N_Cloud_Kit\src/tensorflow/lite/kernels/internal/reference\pad.h ****           if (out_b < left_b_padding ||
 6344                             		.loc 6 91 35
 6345 0fda 47 54                   		cmp	r5, r4
 6346 0fdc 3A 4C FF                		beq	.L908
 6347                             	.LVL725:
 6348 0fdf FE 24 7A                		mov.L	r10, [r4,r7]
 6349                             	.LVL726:
  91:C:\Users\a5116938\Desktop\e2_studio_workspace\EEMBC_final\RX65N_Cloud_Kit\src/tensorflow/lite/kernels/internal/reference\pad.h ****           if (out_b < left_b_padding ||
 6350                             		.loc 6 91 9
 6351 0fe2 62 14                   		add	#1, r4
 6352                             	.LVL727:
  91:C:\Users\a5116938\Desktop\e2_studio_workspace\EEMBC_final\RX65N_Cloud_Kit\src/tensorflow/lite/kernels/internal/reference\pad.h ****           if (out_b < left_b_padding ||
 6353                             		.loc 6 91 35
 6354 0fe4 47 54                   		cmp	r5, r4
 6355 0fe6 21 EF                   		bne	.L425
 6356 0fe8 38 40 FF                		bra	.L908
 6357                             	.LVL728:
 6358                             	.L424:
 6359 0feb 47 91                   		cmp	r9, r1
 6360 0fed 28 0F                   		bge	.L427
 6361                             	.LVL729:
 6362 0fef 03                      		.balign 8,3,5
 6363                             	.L428:
 6364 0ff0 FE 24 7A                		mov.L	r10, [r4,r7]
 6365                             	.LVL730:
  91:C:\Users\a5116938\Desktop\e2_studio_workspace\EEMBC_final\RX65N_Cloud_Kit\src/tensorflow/lite/kernels/internal/reference\pad.h ****           if (out_b < left_b_padding ||
 6366                             		.loc 6 91 9
 6367 0ff3 62 14                   		add	#1, r4
 6368                             	.LVL731:
  91:C:\Users\a5116938\Desktop\e2_studio_workspace\EEMBC_final\RX65N_Cloud_Kit\src/tensorflow/lite/kernels/internal/reference\pad.h ****           if (out_b < left_b_padding ||
 6369                             		.loc 6 91 35
 6370 0ff5 47 54                   		cmp	r5, r4
 6371 0ff7 21 F9                   		bne	.L428
 6372 0ff9 38 2F FF                		bra	.L908
 6373                             	.LVL732:
 6374                             	.L427:
 6375 0ffc FE 24 7A                		mov.L	r10, [r4,r7]
 6376                             	.LVL733:
  91:C:\Users\a5116938\Desktop\e2_studio_workspace\EEMBC_final\RX65N_Cloud_Kit\src/tensorflow/lite/kernels/internal/reference\pad.h ****           if (out_b < left_b_padding ||
 6377                             		.loc 6 91 9
 6378 0fff 62 14                   		add	#1, r4
 6379                             	.LVL734:
  91:C:\Users\a5116938\Desktop\e2_studio_workspace\EEMBC_final\RX65N_Cloud_Kit\src/tensorflow/lite/kernels/internal/reference\pad.h ****           if (out_b < left_b_padding ||
 6380                             		.loc 6 91 35
 6381 1001 47 54                   		cmp	r5, r4
 6382 1003 3A 25 FF                		beq	.L908
 6383                             	.LVL735:
 6384 1006 FE 24 7A                		mov.L	r10, [r4,r7]
 6385                             	.LVL736:
  91:C:\Users\a5116938\Desktop\e2_studio_workspace\EEMBC_final\RX65N_Cloud_Kit\src/tensorflow/lite/kernels/internal/reference\pad.h ****           if (out_b < left_b_padding ||
 6386                             		.loc 6 91 9
 6387 1009 62 14                   		add	#1, r4
 6388                             	.LVL737:
  91:C:\Users\a5116938\Desktop\e2_studio_workspace\EEMBC_final\RX65N_Cloud_Kit\src/tensorflow/lite/kernels/internal/reference\pad.h ****           if (out_b < left_b_padding ||
 6389                             		.loc 6 91 35
 6390 100b 47 54                   		cmp	r5, r4
 6391 100d 21 EF                   		bne	.L427
 6392 100f 38 19 FF                		bra	.L908
 6393                             	.LVL738:
 6394                             	.L486:
  91:C:\Users\a5116938\Desktop\e2_studio_workspace\EEMBC_final\RX65N_Cloud_Kit\src/tensorflow/lite/kernels/internal/reference\pad.h ****           if (out_b < left_b_padding ||
 6395                             		.loc 6 91 18
 6396 1012 66 04                   		mov.L	#0, r4
 6397                             	.LVL739:
 6398 1014 76 10 01 00             		.balign 8,3,5
 6399                             	.L414:
 6400 1018 FE 24 7A                		mov.L	r10, [r4,r7]
 6401                             	.LVL740:
  91:C:\Users\a5116938\Desktop\e2_studio_workspace\EEMBC_final\RX65N_Cloud_Kit\src/tensorflow/lite/kernels/internal/reference\pad.h ****           if (out_b < left_b_padding ||
 6402                             		.loc 6 91 9
 6403 101b 62 14                   		add	#1, r4
 6404                             	.LVL741:
  91:C:\Users\a5116938\Desktop\e2_studio_workspace\EEMBC_final\RX65N_Cloud_Kit\src/tensorflow/lite/kernels/internal/reference\pad.h ****           if (out_b < left_b_padding ||
 6405                             		.loc 6 91 35
 6406 101d 47 54                   		cmp	r5, r4
 6407 101f 21 F9                   		bne	.L414
 6408 1021 38 07 FF                		bra	.L908
 6409                             	.LVL742:
 6410                             	.L405:
 6411                             	.LBE1455:
 6412                             	.LBE1457:
 6413                             	.LBE1458:
 6414                             	.LBE1464:
 6415                             	.LBB1465:
 6416                             	.LBB1443:
 196:C:\Users\a5116938\Desktop\e2_studio_workspace\EEMBC_final\RX65N_Cloud_Kit\src/tensorflow/lite/kernels/internal\types.h ****     TFLITE_DCHECK_LT(i, size_);
 6417                             		.loc 4 196 5 is_stmt 1
 197:C:\Users\a5116938\Desktop\e2_studio_workspace\EEMBC_final\RX65N_Cloud_Kit\src/tensorflow/lite/kernels/internal\types.h ****     return size_ > kMaxSmallSize ? dims_pointer_[i] : dims_[i];
 6418                             		.loc 4 197 5
 6419 1024 61 13                   		cmp	#1, r3
 6420 1026 3A 48 09                		beq	.L119
 198:C:\Users\a5116938\Desktop\e2_studio_workspace\EEMBC_final\RX65N_Cloud_Kit\src/tensorflow/lite/kernels/internal\types.h ****   }
 6421                             		.loc 4 198 34 is_stmt 0
 6422 1029 E5 00 04 E3             		mov.L	16[r0], 908[r0]
 6423                             	.LVL743:
 6424                             	.LBE1443:
 6425                             	.LBE1465:
 6426                             	.LBB1466:
 6427                             	.LBB1446:
 196:C:\Users\a5116938\Desktop\e2_studio_workspace\EEMBC_final\RX65N_Cloud_Kit\src/tensorflow/lite/kernels/internal\types.h ****     TFLITE_DCHECK_LT(i, size_);
 6428                             		.loc 4 196 5 is_stmt 1
 197:C:\Users\a5116938\Desktop\e2_studio_workspace\EEMBC_final\RX65N_Cloud_Kit\src/tensorflow/lite/kernels/internal\types.h ****     return size_ > kMaxSmallSize ? dims_pointer_[i] : dims_[i];
 6429                             		.loc 4 197 5
 6430 102d 61 23                   		cmp	#2, r3
 6431 102f 3A 3F 09                		beq	.L119
 198:C:\Users\a5116938\Desktop\e2_studio_workspace\EEMBC_final\RX65N_Cloud_Kit\src/tensorflow/lite/kernels/internal\types.h ****   }
 6432                             		.loc 4 198 34 is_stmt 0
 6433 1032 ED 08 05                		mov.L	20[r0], r8
 6434                             	.LVL744:
 6435                             	.LBE1446:
 6436                             	.LBE1466:
 6437                             	.LBB1467:
 6438                             	.LBB1449:
 196:C:\Users\a5116938\Desktop\e2_studio_workspace\EEMBC_final\RX65N_Cloud_Kit\src/tensorflow/lite/kernels/internal\types.h ****     TFLITE_DCHECK_LT(i, size_);
 6439                             		.loc 4 196 5 is_stmt 1
 197:C:\Users\a5116938\Desktop\e2_studio_workspace\EEMBC_final\RX65N_Cloud_Kit\src/tensorflow/lite/kernels/internal\types.h ****     return size_ > kMaxSmallSize ? dims_pointer_[i] : dims_[i];
 6440                             		.loc 4 197 5
 6441 1035 61 33                   		cmp	#3, r3
 6442 1037 3A 37 09                		beq	.L119
 198:C:\Users\a5116938\Desktop\e2_studio_workspace\EEMBC_final\RX65N_Cloud_Kit\src/tensorflow/lite/kernels/internal\types.h ****   }
 6443                             		.loc 4 198 34 is_stmt 0
 6444 103a A9 85                   		mov.L	24[r0], r5
 6445                             	.LVL745:
 6446                             	.LBE1449:
 6447                             	.LBE1467:
  74:C:\Users\a5116938\Desktop\e2_studio_workspace\EEMBC_final\RX65N_Cloud_Kit\src/tensorflow/lite/kernels/internal/reference\pad.h ****   const int left_h_padding = left_padding_copy[1];
 6448                             		.loc 6 74 13
 6449 103c E5 00 AE E6             		mov.L	696[r0], 920[r0]
 6450                             	.LVL746:
  75:C:\Users\a5116938\Desktop\e2_studio_workspace\EEMBC_final\RX65N_Cloud_Kit\src/tensorflow/lite/kernels/internal/reference\pad.h ****   const int left_w_padding = left_padding_copy[2];
 6451                             		.loc 6 75 13
 6452 1040 E5 00 AF E5             		mov.L	700[r0], 916[r0]
 6453                             	.LVL747:
  76:C:\Users\a5116938\Desktop\e2_studio_workspace\EEMBC_final\RX65N_Cloud_Kit\src/tensorflow/lite/kernels/internal/reference\pad.h ****   const int left_d_padding = left_padding_copy[3];
 6454                             		.loc 6 76 13
 6455 1044 E5 00 B0 E8             		mov.L	704[r0], 928[r0]
 6456                             	.LVL748:
  77:C:\Users\a5116938\Desktop\e2_studio_workspace\EEMBC_final\RX65N_Cloud_Kit\src/tensorflow/lite/kernels/internal/reference\pad.h **** 
 6457                             		.loc 6 77 13
 6458 1048 E5 00 B1 EC             		mov.L	708[r0], 944[r0]
 6459                             	.LVL749:
  79:C:\Users\a5116938\Desktop\e2_studio_workspace\EEMBC_final\RX65N_Cloud_Kit\src/tensorflow/lite/kernels/internal/reference\pad.h ****   const int right_h_padding = right_padding_copy[1];
 6460                             		.loc 6 79 13
 6461 104c E5 00 AA E7             		mov.L	680[r0], 924[r0]
 6462                             	.LVL750:
  80:C:\Users\a5116938\Desktop\e2_studio_workspace\EEMBC_final\RX65N_Cloud_Kit\src/tensorflow/lite/kernels/internal/reference\pad.h ****   const int right_w_padding = right_padding_copy[2];
 6463                             		.loc 6 80 13
 6464 1050 ED 09 AB                		mov.L	684[r0], r9
 6465                             	.LVL751:
  81:C:\Users\a5116938\Desktop\e2_studio_workspace\EEMBC_final\RX65N_Cloud_Kit\src/tensorflow/lite/kernels/internal/reference\pad.h ****   const int right_d_padding = right_padding_copy[3];
 6466                             		.loc 6 81 13
 6467 1053 ED 04 AC                		mov.L	688[r0], r4
 6468                             	.LVL752:
  82:C:\Users\a5116938\Desktop\e2_studio_workspace\EEMBC_final\RX65N_Cloud_Kit\src/tensorflow/lite/kernels/internal/reference\pad.h **** 
 6469                             		.loc 6 82 13
 6470 1056 ED 03 AD                		mov.L	692[r0], r3
 6471                             	.LVL753:
 6472                             	.LBB1468:
  88:C:\Users\a5116938\Desktop\e2_studio_workspace\EEMBC_final\RX65N_Cloud_Kit\src/tensorflow/lite/kernels/internal/reference\pad.h ****     for (int out_h = 0; out_h < output_height; ++out_h) {
 6473                             		.loc 6 88 29
 6474 1059 ED 0C ED                		mov.L	948[r0], r12
 6475 105c 61 0C                   		cmp	#0, r12
 6476 105e 2B 05 38 1B FE          		bgt	.L407
 6477 1063 38 EF FE                		bra	.L410
 6478                             	.LVL754:
 6479                             	.L918:
 6480                             	.LBE1468:
 6481                             	.LBE1477:
 6482                             	.LBE1486:
 6483                             	.LBE1498:
 6484                             	.LBE2153:
 6485                             	.LBB2154:
 195:../src/tensorflow/lite/micro/kernels/pad.cc ****             data->params, tflite::micro::GetTensorShape(input),
 6486                             		.loc 1 195 9 is_stmt 1
 196:../src/tensorflow/lite/micro/kernels/pad.cc ****             tflite::micro::GetTensorData<int8_t>(input), &pad_value,
 6487                             		.loc 1 196 56 is_stmt 0
 6488 1066 72 0F D0 01             		add	#0x1d0, r0, r15
 6489 106a EF B1                   		mov.L	r11, r1
 6490 106c 05 00 00 00             		bsr	__ZN6tflite5micro14GetTensorShapeEPK16TfLiteEvalTensor
 6491                             	.LVL755:
 198:../src/tensorflow/lite/micro/kernels/pad.cc ****             tflite::micro::GetTensorData<int8_t>(output));
 6492                             		.loc 1 198 42
 6493 1070 72 0F B8 01             		add	#0x1b8, r0, r15
 6494 1074 EF 71                   		mov.L	r7, r1
 6495                             	.LBB1182:
 6496                             	.LBB1183:
 6497                             		.loc 5 62 53
 6498 1076 E4 B0 EE                		mov.L	[r11], 952[r0]
 6499                             	.LVL756:
 6500                             	.LBE1183:
 6501                             	.LBE1182:
 198:../src/tensorflow/lite/micro/kernels/pad.cc ****             tflite::micro::GetTensorData<int8_t>(output));
 6502                             		.loc 1 198 42
 6503 1079 05 00 00 00             		bsr	__ZN6tflite5micro14GetTensorShapeEPK16TfLiteEvalTensor
 6504                             	.LVL757:
 6505                             	.LBB1184:
 6506                             	.LBB1185:
  55:C:\Users\a5116938\Desktop\e2_studio_workspace\EEMBC_final\RX65N_Cloud_Kit\src/tensorflow/lite/micro/kernels\kernel_util.h **** }
 6507                             		.loc 5 55 28
 6508 107d 61 07                   		cmp	#0, r7
 6509 107f 13                      		beq	.L306
 6510 1080 EC 77                   		mov.L	[r7], r7
 6511                             	.LVL758:
 6512                             		.balign 8,3,2
 6513                             	.L306:
 6514                             	.LBE1185:
 6515                             	.LBE1184:
 6516                             	.LBE2154:
 6517                             	.LBE2235:
 6518                             	.LBE2298:
 262:C:\Users\a5116938\Desktop\e2_studio_workspace\EEMBC_final\RX65N_Cloud_Kit\src/tensorflow/lite/kernels/internal\types.h ****   }
 6519                             		.loc 4 262 5 is_stmt 1
 6520                             	.LBB2299:
 6521                             	.LBB2236:
 6522                             	.LBB2155:
 6523                             	.LBB1186:
 6524                             	.LBB1187:
 6525                             	.LBB1188:
 6526                             	.LBB1189:
 6527                             	.LBB1190:
 6528                             	.LBB1191:
 6529                             	.LBB1192:
 6530                             	.LBB1193:
 6531                             	.LBB1194:
 290:C:\Users\a5116938\Desktop\e2_studio_workspace\EEMBC_final\RX65N_Cloud_Kit\src/tensorflow/lite/kernels/internal\types.h ****     Resize(new_shape_size);
 6532                             		.loc 4 290 5 is_stmt 0
 6533 1082 ED 03 74                		mov.L	464[r0], r3
 6534                             	.LBE1194:
 287:C:\Users\a5116938\Desktop\e2_studio_workspace\EEMBC_final\RX65N_Cloud_Kit\src/tensorflow/lite/kernels/internal\types.h ****     // If the following check fails, it is likely because a 4D-only kernel is
 6535                             		.loc 4 287 16
 6536 1085 F9 06 20 00             		mov.L	#0, 128[r0]
 6537                             	.LBB1206:
 290:C:\Users\a5116938\Desktop\e2_studio_workspace\EEMBC_final\RX65N_Cloud_Kit\src/tensorflow/lite/kernels/internal\types.h ****     Resize(new_shape_size);
 6538                             		.loc 4 290 5 is_stmt 1
 6539                             	.LVL759:
 6540                             	.LBE1206:
 6541                             	.LBE1193:
 6542                             	.LBE1192:
 6543                             	.LBE1191:
 6544                             	.LBE1190:
 6545                             	.LBE1189:
 6546                             	.LBE1188:
 6547                             	.LBE1187:
 6548                             	.LBE1186:
 6549                             	.LBE2155:
 6550                             	.LBE2236:
 6551                             	.LBE2299:
 194:C:\Users\a5116938\Desktop\e2_studio_workspace\EEMBC_final\RX65N_Cloud_Kit\src/tensorflow/lite/kernels/internal\types.h ****   inline int32_t Dims(int i) const {
 6552                             		.loc 4 194 44
 6553                             	.LBB2300:
 6554                             	.LBB2237:
 6555                             	.LBB2156:
 6556                             	.LBB1326:
 6557                             	.LBB1316:
 6558                             	.LBB1306:
 6559                             	.LBB1296:
 6560                             	.LBB1219:
 6561                             	.LBB1216:
 6562                             	.LBB1213:
 6563                             	.LBB1210:
 6564                             	.LBB1207:
 290:C:\Users\a5116938\Desktop\e2_studio_workspace\EEMBC_final\RX65N_Cloud_Kit\src/tensorflow/lite/kernels/internal\types.h ****     Resize(new_shape_size);
 6565                             		.loc 4 290 5 is_stmt 0
 6566 1089 61 43                   		cmp	#4, r3
 6567 108b 2B 05 38 E1 08          		bgt	.L119
 291:C:\Users\a5116938\Desktop\e2_studio_workspace\EEMBC_final\RX65N_Cloud_Kit\src/tensorflow/lite/kernels/internal\types.h ****     const int size_increase = new_shape_size - shape.DimensionsCount();
 6568                             		.loc 4 291 5 is_stmt 1
 6569                             	.LVL760:
 6570                             	.LBB1195:
 6571                             	.LBB1196:
 220:C:\Users\a5116938\Desktop\e2_studio_workspace\EEMBC_final\RX65N_Cloud_Kit\src/tensorflow/lite/kernels/internal\types.h **** #ifdef TF_LITE_STATIC_MEMORY
 6572                             		.loc 4 220 5
 227:C:\Users\a5116938\Desktop\e2_studio_workspace\EEMBC_final\RX65N_Cloud_Kit\src/tensorflow/lite/kernels/internal\types.h ****     if (dimensions_count > kMaxSmallSize) {
 6573                             		.loc 4 227 5
 227:C:\Users\a5116938\Desktop\e2_studio_workspace\EEMBC_final\RX65N_Cloud_Kit\src/tensorflow/lite/kernels/internal\types.h ****     if (dimensions_count > kMaxSmallSize) {
 6574                             		.loc 4 227 11 is_stmt 0
 6575 1090 F9 06 20 04             		mov.L	#4, 128[r0]
 228:C:\Users\a5116938\Desktop\e2_studio_workspace\EEMBC_final\RX65N_Cloud_Kit\src/tensorflow/lite/kernels/internal\types.h **** #ifdef TF_LITE_STATIC_MEMORY
 6576                             		.loc 4 228 5 is_stmt 1
 6577                             	.LVL761:
 6578                             	.LBE1196:
 6579                             	.LBE1195:
 292:C:\Users\a5116938\Desktop\e2_studio_workspace\EEMBC_final\RX65N_Cloud_Kit\src/tensorflow/lite/kernels/internal\types.h ****     for (int i = 0; i < size_increase; ++i) {
 6580                             		.loc 4 292 5
 6581                             	.LBE1207:
 6582                             	.LBE1210:
 6583                             	.LBE1213:
 6584                             	.LBE1216:
 6585                             	.LBE1219:
 6586                             	.LBE1296:
 6587                             	.LBE1306:
 6588                             	.LBE1316:
 6589                             	.LBE1326:
 6590                             	.LBE2156:
 6591                             	.LBE2237:
 6592                             	.LBE2300:
 194:C:\Users\a5116938\Desktop\e2_studio_workspace\EEMBC_final\RX65N_Cloud_Kit\src/tensorflow/lite/kernels/internal\types.h ****   inline int32_t Dims(int i) const {
 6593                             		.loc 4 194 44
 6594                             	.LBB2301:
 6595                             	.LBB2238:
 6596                             	.LBB2157:
 6597                             	.LBB1327:
 6598                             	.LBB1317:
 6599                             	.LBB1307:
 6600                             	.LBB1297:
 6601                             	.LBB1220:
 6602                             	.LBB1217:
 6603                             	.LBB1214:
 6604                             	.LBB1211:
 6605                             	.LBB1208:
 292:C:\Users\a5116938\Desktop\e2_studio_workspace\EEMBC_final\RX65N_Cloud_Kit\src/tensorflow/lite/kernels/internal\types.h ****     for (int i = 0; i < size_increase; ++i) {
 6606                             		.loc 4 292 70 is_stmt 0
 6607 1094 66 41                   		mov.L	#4, r1
 6608 1096 43 31                   		sub	r3, r1
 6609                             	.LVL762:
 293:C:\Users\a5116938\Desktop\e2_studio_workspace\EEMBC_final\RX65N_Cloud_Kit\src/tensorflow/lite/kernels/internal\types.h ****       SetDim(i, pad_value);
 6610                             		.loc 4 293 5 is_stmt 1
 6611                             	.LBB1197:
 293:C:\Users\a5116938\Desktop\e2_studio_workspace\EEMBC_final\RX65N_Cloud_Kit\src/tensorflow/lite/kernels/internal\types.h ****       SetDim(i, pad_value);
 6612                             		.loc 4 293 23 is_stmt 0
 6613 1098 20 22                   		beq	.L307
 6614                             	.LVL763:
 6615                             	.LBB1198:
 6616                             	.LBB1199:
 203:C:\Users\a5116938\Desktop\e2_studio_workspace\EEMBC_final\RX65N_Cloud_Kit\src/tensorflow/lite/kernels/internal\types.h ****       dims_pointer_[i] = val;
 6617                             		.loc 4 203 5 is_stmt 1
 206:C:\Users\a5116938\Desktop\e2_studio_workspace\EEMBC_final\RX65N_Cloud_Kit\src/tensorflow/lite/kernels/internal\types.h ****     }
 6618                             		.loc 4 206 7
 206:C:\Users\a5116938\Desktop\e2_studio_workspace\EEMBC_final\RX65N_Cloud_Kit\src/tensorflow/lite/kernels/internal\types.h ****     }
 6619                             		.loc 4 206 16 is_stmt 0
 6620 109a F9 06 21 01             		mov.L	#1, 132[r0]
 6621                             	.LVL764:
 6622                             	.LBE1199:
 6623                             	.LBE1198:
 293:C:\Users\a5116938\Desktop\e2_studio_workspace\EEMBC_final\RX65N_Cloud_Kit\src/tensorflow/lite/kernels/internal\types.h ****       SetDim(i, pad_value);
 6624                             		.loc 4 293 23
 6625 109e 61 11                   		cmp	#1, r1
 6626 10a0 20 1A                   		beq	.L307
 294:C:\Users\a5116938\Desktop\e2_studio_workspace\EEMBC_final\RX65N_Cloud_Kit\src/tensorflow/lite/kernels/internal\types.h ****     }
 6627                             		.loc 4 294 7 is_stmt 1
 6628                             	.LVL765:
 6629                             	.LBB1203:
 6630                             	.LBB1200:
 201:C:\Users\a5116938\Desktop\e2_studio_workspace\EEMBC_final\RX65N_Cloud_Kit\src/tensorflow/lite/kernels/internal\types.h ****     TFLITE_DCHECK_LT(i, size_);
 6631                             		.loc 4 201 5
 202:C:\Users\a5116938\Desktop\e2_studio_workspace\EEMBC_final\RX65N_Cloud_Kit\src/tensorflow/lite/kernels/internal\types.h ****     if (size_ > kMaxSmallSize) {
 6632                             		.loc 4 202 5
 203:C:\Users\a5116938\Desktop\e2_studio_workspace\EEMBC_final\RX65N_Cloud_Kit\src/tensorflow/lite/kernels/internal\types.h ****       dims_pointer_[i] = val;
 6633                             		.loc 4 203 5
 206:C:\Users\a5116938\Desktop\e2_studio_workspace\EEMBC_final\RX65N_Cloud_Kit\src/tensorflow/lite/kernels/internal\types.h ****     }
 6634                             		.loc 4 206 7
 206:C:\Users\a5116938\Desktop\e2_studio_workspace\EEMBC_final\RX65N_Cloud_Kit\src/tensorflow/lite/kernels/internal\types.h ****     }
 6635                             		.loc 4 206 16 is_stmt 0
 6636 10a2 F9 06 22 01             		mov.L	#1, 136[r0]
 6637                             	.LVL766:
 6638                             	.LBE1200:
 6639                             	.LBE1203:
 293:C:\Users\a5116938\Desktop\e2_studio_workspace\EEMBC_final\RX65N_Cloud_Kit\src/tensorflow/lite/kernels/internal\types.h ****       SetDim(i, pad_value);
 6640                             		.loc 4 293 23
 6641 10a6 61 21                   		cmp	#2, r1
 6642 10a8 20 12                   		beq	.L307
 294:C:\Users\a5116938\Desktop\e2_studio_workspace\EEMBC_final\RX65N_Cloud_Kit\src/tensorflow/lite/kernels/internal\types.h ****     }
 6643                             		.loc 4 294 7 is_stmt 1
 6644                             	.LVL767:
 6645                             	.LBB1204:
 6646                             	.LBB1201:
 201:C:\Users\a5116938\Desktop\e2_studio_workspace\EEMBC_final\RX65N_Cloud_Kit\src/tensorflow/lite/kernels/internal\types.h ****     TFLITE_DCHECK_LT(i, size_);
 6647                             		.loc 4 201 5
 202:C:\Users\a5116938\Desktop\e2_studio_workspace\EEMBC_final\RX65N_Cloud_Kit\src/tensorflow/lite/kernels/internal\types.h ****     if (size_ > kMaxSmallSize) {
 6648                             		.loc 4 202 5
 203:C:\Users\a5116938\Desktop\e2_studio_workspace\EEMBC_final\RX65N_Cloud_Kit\src/tensorflow/lite/kernels/internal\types.h ****       dims_pointer_[i] = val;
 6649                             		.loc 4 203 5
 206:C:\Users\a5116938\Desktop\e2_studio_workspace\EEMBC_final\RX65N_Cloud_Kit\src/tensorflow/lite/kernels/internal\types.h ****     }
 6650                             		.loc 4 206 7
 206:C:\Users\a5116938\Desktop\e2_studio_workspace\EEMBC_final\RX65N_Cloud_Kit\src/tensorflow/lite/kernels/internal\types.h ****     }
 6651                             		.loc 4 206 16 is_stmt 0
 6652 10aa F9 06 23 01             		mov.L	#1, 140[r0]
 6653                             	.LVL768:
 6654                             	.LBE1201:
 6655                             	.LBE1204:
 293:C:\Users\a5116938\Desktop\e2_studio_workspace\EEMBC_final\RX65N_Cloud_Kit\src/tensorflow/lite/kernels/internal\types.h ****       SetDim(i, pad_value);
 6656                             		.loc 4 293 23
 6657 10ae 61 31                   		cmp	#3, r1
 6658 10b0 12                      		beq	.L307
 294:C:\Users\a5116938\Desktop\e2_studio_workspace\EEMBC_final\RX65N_Cloud_Kit\src/tensorflow/lite/kernels/internal\types.h ****     }
 6659                             		.loc 4 294 7 is_stmt 1
 6660                             	.LVL769:
 6661                             	.LBB1205:
 6662                             	.LBB1202:
 201:C:\Users\a5116938\Desktop\e2_studio_workspace\EEMBC_final\RX65N_Cloud_Kit\src/tensorflow/lite/kernels/internal\types.h ****     TFLITE_DCHECK_LT(i, size_);
 6663                             		.loc 4 201 5
 202:C:\Users\a5116938\Desktop\e2_studio_workspace\EEMBC_final\RX65N_Cloud_Kit\src/tensorflow/lite/kernels/internal\types.h ****     if (size_ > kMaxSmallSize) {
 6664                             		.loc 4 202 5
 203:C:\Users\a5116938\Desktop\e2_studio_workspace\EEMBC_final\RX65N_Cloud_Kit\src/tensorflow/lite/kernels/internal\types.h ****       dims_pointer_[i] = val;
 6665                             		.loc 4 203 5
 206:C:\Users\a5116938\Desktop\e2_studio_workspace\EEMBC_final\RX65N_Cloud_Kit\src/tensorflow/lite/kernels/internal\types.h ****     }
 6666                             		.loc 4 206 7
 206:C:\Users\a5116938\Desktop\e2_studio_workspace\EEMBC_final\RX65N_Cloud_Kit\src/tensorflow/lite/kernels/internal\types.h ****     }
 6667                             		.loc 4 206 16 is_stmt 0
 6668 10b1 F9 06 24 01             		mov.L	#1, 144[r0]
 6669                             	.LVL770:
 6670                             	.LBE1202:
 6671                             	.LBE1205:
 293:C:\Users\a5116938\Desktop\e2_studio_workspace\EEMBC_final\RX65N_Cloud_Kit\src/tensorflow/lite/kernels/internal\types.h ****       SetDim(i, pad_value);
 6672                             		.loc 4 293 23
 6673 10b5 61 41                   		cmp	#4, r1
 6674 10b7 3B B7 08                		bne	.L119
 6675                             	.LVL771:
 6676                             		.balign 8,3,1
 6677                             	.L307:
 6678                             	.LBE1197:
 6679                             	.LBE1208:
 6680                             	.LBE1211:
 6681                             	.LBE1214:
 6682                             	.LBE1217:
 6683                             	.LBE1220:
 6684                             	.LBE1297:
 6685                             	.LBE1307:
 6686                             	.LBE1317:
 6687                             	.LBE1327:
 6688                             	.LBE2157:
 6689                             	.LBE2238:
 6690                             	.LBE2301:
 214:C:\Users\a5116938\Desktop\e2_studio_workspace\EEMBC_final\RX65N_Cloud_Kit\src/tensorflow/lite/kernels/internal\types.h ****   }
 6691                             		.loc 4 214 5 is_stmt 1
 194:C:\Users\a5116938\Desktop\e2_studio_workspace\EEMBC_final\RX65N_Cloud_Kit\src/tensorflow/lite/kernels/internal\types.h ****   inline int32_t Dims(int i) const {
 6692                             		.loc 4 194 44
 6693                             	.LBB2302:
 6694                             	.LBB2239:
 6695                             	.LBB2158:
 6696                             	.LBB1328:
 6697                             	.LBB1318:
 6698                             	.LBB1308:
 6699                             	.LBB1298:
 6700                             	.LBB1221:
 6701                             	.LBB1218:
 6702                             	.LBB1215:
 6703                             	.LBB1212:
 6704                             	.LBB1209:
 6705                             		.loc 4 296 28 is_stmt 0
 6706 10ba 6C 21                   		shll	#2, r1
 6707                             	.LVL772:
 6708                             		.loc 4 296 16
 6709 10bc 75 4F 84                		mov.L	#0x84, r15
 6710 10bf 4B 0F                   		add	r0, r15
 6711 10c1 4B F1                   		add	r15, r1
 6712 10c3 72 02 D4 01             		add	#0x1d4, r0, r2
 6713 10c7 6C 23                   		shll	#2, r3
 6714                             	.LVL773:
 6715 10c9 7F 8F                   		smovf
 6716                             	.LVL774:
 6717                             	.LBE1209:
 6718                             	.LBE1212:
 6719                             	.LBE1215:
 6720                             	.LBE1218:
 6721                             	.LBE1221:
 6722                             	.LBE1298:
 6723                             	.LBE1308:
 6724                             	.LBE1318:
 6725                             	.LBE1328:
 6726                             	.LBE2158:
 6727                             	.LBE2239:
 6728                             	.LBE2302:
 262:C:\Users\a5116938\Desktop\e2_studio_workspace\EEMBC_final\RX65N_Cloud_Kit\src/tensorflow/lite/kernels/internal\types.h ****   }
 6729                             		.loc 4 262 5 is_stmt 1
 6730                             	.LBB2303:
 6731                             	.LBB2240:
 6732                             	.LBB2159:
 6733                             	.LBB1329:
 6734                             	.LBB1319:
 6735                             	.LBB1309:
 6736                             	.LBB1299:
 6737                             	.LBB1222:
 6738                             	.LBB1223:
 6739                             	.LBB1224:
 6740                             	.LBB1225:
 6741                             	.LBB1226:
 290:C:\Users\a5116938\Desktop\e2_studio_workspace\EEMBC_final\RX65N_Cloud_Kit\src/tensorflow/lite/kernels/internal\types.h ****     Resize(new_shape_size);
 6742                             		.loc 4 290 5 is_stmt 0
 6743 10cb ED 03 6E                		mov.L	440[r0], r3
 6744                             	.LBE1226:
 287:C:\Users\a5116938\Desktop\e2_studio_workspace\EEMBC_final\RX65N_Cloud_Kit\src/tensorflow/lite/kernels/internal\types.h ****     // If the following check fails, it is likely because a 4D-only kernel is
 6745                             		.loc 4 287 16
 6746 10ce 3E 8A 00                		mov.L	#0, 104[r0]
 6747                             	.LBB1240:
 290:C:\Users\a5116938\Desktop\e2_studio_workspace\EEMBC_final\RX65N_Cloud_Kit\src/tensorflow/lite/kernels/internal\types.h ****     Resize(new_shape_size);
 6748                             		.loc 4 290 5 is_stmt 1
 6749                             	.LVL775:
 6750                             	.LBE1240:
 6751                             	.LBE1225:
 6752                             	.LBE1224:
 6753                             	.LBE1223:
 6754                             	.LBE1222:
 6755                             	.LBE1299:
 6756                             	.LBE1309:
 6757                             	.LBE1319:
 6758                             	.LBE1329:
 6759                             	.LBE2159:
 6760                             	.LBE2240:
 6761                             	.LBE2303:
 194:C:\Users\a5116938\Desktop\e2_studio_workspace\EEMBC_final\RX65N_Cloud_Kit\src/tensorflow/lite/kernels/internal\types.h ****   inline int32_t Dims(int i) const {
 6762                             		.loc 4 194 44
 6763                             	.LBB2304:
 6764                             	.LBB2241:
 6765                             	.LBB2160:
 6766                             	.LBB1330:
 6767                             	.LBB1320:
 6768                             	.LBB1310:
 6769                             	.LBB1300:
 6770                             	.LBB1253:
 6771                             	.LBB1250:
 6772                             	.LBB1247:
 6773                             	.LBB1244:
 6774                             	.LBB1241:
 290:C:\Users\a5116938\Desktop\e2_studio_workspace\EEMBC_final\RX65N_Cloud_Kit\src/tensorflow/lite/kernels/internal\types.h ****     Resize(new_shape_size);
 6775                             		.loc 4 290 5 is_stmt 0
 6776 10d1 61 43                   		cmp	#4, r3
 6777 10d3 2B 05 38 99 08          		bgt	.L119
 291:C:\Users\a5116938\Desktop\e2_studio_workspace\EEMBC_final\RX65N_Cloud_Kit\src/tensorflow/lite/kernels/internal\types.h ****     const int size_increase = new_shape_size - shape.DimensionsCount();
 6778                             		.loc 4 291 5 is_stmt 1
 6779                             	.LVL776:
 6780                             	.LBB1227:
 6781                             	.LBB1228:
 220:C:\Users\a5116938\Desktop\e2_studio_workspace\EEMBC_final\RX65N_Cloud_Kit\src/tensorflow/lite/kernels/internal\types.h **** #ifdef TF_LITE_STATIC_MEMORY
 6782                             		.loc 4 220 5
 227:C:\Users\a5116938\Desktop\e2_studio_workspace\EEMBC_final\RX65N_Cloud_Kit\src/tensorflow/lite/kernels/internal\types.h ****     if (dimensions_count > kMaxSmallSize) {
 6783                             		.loc 4 227 5
 6784                             	.LBE1228:
 6785                             	.LBE1227:
 292:C:\Users\a5116938\Desktop\e2_studio_workspace\EEMBC_final\RX65N_Cloud_Kit\src/tensorflow/lite/kernels/internal\types.h ****     for (int i = 0; i < size_increase; ++i) {
 6786                             		.loc 4 292 70 is_stmt 0
 6787 10d8 66 41                   		mov.L	#4, r1
 6788 10da 43 31                   		sub	r3, r1
 6789                             	.LBB1230:
 6790                             	.LBB1229:
 227:C:\Users\a5116938\Desktop\e2_studio_workspace\EEMBC_final\RX65N_Cloud_Kit\src/tensorflow/lite/kernels/internal\types.h ****     if (dimensions_count > kMaxSmallSize) {
 6791                             		.loc 4 227 11
 6792 10dc 3E 8A 04                		mov.L	#4, 104[r0]
 228:C:\Users\a5116938\Desktop\e2_studio_workspace\EEMBC_final\RX65N_Cloud_Kit\src/tensorflow/lite/kernels/internal\types.h **** #ifdef TF_LITE_STATIC_MEMORY
 6793                             		.loc 4 228 5 is_stmt 1
 6794                             	.LVL777:
 6795                             	.LBE1229:
 6796                             	.LBE1230:
 292:C:\Users\a5116938\Desktop\e2_studio_workspace\EEMBC_final\RX65N_Cloud_Kit\src/tensorflow/lite/kernels/internal\types.h ****     for (int i = 0; i < size_increase; ++i) {
 6797                             		.loc 4 292 5
 6798                             	.LBE1241:
 6799                             	.LBE1244:
 6800                             	.LBE1247:
 6801                             	.LBE1250:
 6802                             	.LBE1253:
 6803                             	.LBE1300:
 6804                             	.LBE1310:
 6805                             	.LBE1320:
 6806                             	.LBE1330:
 6807                             	.LBE2160:
 6808                             	.LBE2241:
 6809                             	.LBE2304:
 194:C:\Users\a5116938\Desktop\e2_studio_workspace\EEMBC_final\RX65N_Cloud_Kit\src/tensorflow/lite/kernels/internal\types.h ****   inline int32_t Dims(int i) const {
 6810                             		.loc 4 194 44
 6811                             	.LBB2305:
 6812                             	.LBB2242:
 6813                             	.LBB2161:
 6814                             	.LBB1331:
 6815                             	.LBB1321:
 6816                             	.LBB1311:
 6817                             	.LBB1301:
 6818                             	.LBB1254:
 6819                             	.LBB1251:
 6820                             	.LBB1248:
 6821                             	.LBB1245:
 6822                             	.LBB1242:
 293:C:\Users\a5116938\Desktop\e2_studio_workspace\EEMBC_final\RX65N_Cloud_Kit\src/tensorflow/lite/kernels/internal\types.h ****       SetDim(i, pad_value);
 6823                             		.loc 4 293 5
 6824                             	.LBB1231:
 293:C:\Users\a5116938\Desktop\e2_studio_workspace\EEMBC_final\RX65N_Cloud_Kit\src/tensorflow/lite/kernels/internal\types.h ****       SetDim(i, pad_value);
 6825                             		.loc 4 293 23 is_stmt 0
 6826 10df 20 1E                   		beq	.L309
 6827                             	.LVL778:
 6828                             	.LBB1232:
 6829                             	.LBB1233:
 203:C:\Users\a5116938\Desktop\e2_studio_workspace\EEMBC_final\RX65N_Cloud_Kit\src/tensorflow/lite/kernels/internal\types.h ****       dims_pointer_[i] = val;
 6830                             		.loc 4 203 5 is_stmt 1
 206:C:\Users\a5116938\Desktop\e2_studio_workspace\EEMBC_final\RX65N_Cloud_Kit\src/tensorflow/lite/kernels/internal\types.h ****     }
 6831                             		.loc 4 206 7
 206:C:\Users\a5116938\Desktop\e2_studio_workspace\EEMBC_final\RX65N_Cloud_Kit\src/tensorflow/lite/kernels/internal\types.h ****     }
 6832                             		.loc 4 206 16 is_stmt 0
 6833 10e1 3E 8B 01                		mov.L	#1, 108[r0]
 6834                             	.LVL779:
 6835                             	.LBE1233:
 6836                             	.LBE1232:
 293:C:\Users\a5116938\Desktop\e2_studio_workspace\EEMBC_final\RX65N_Cloud_Kit\src/tensorflow/lite/kernels/internal\types.h ****       SetDim(i, pad_value);
 6837                             		.loc 4 293 23
 6838 10e4 61 11                   		cmp	#1, r1
 6839 10e6 20 17                   		beq	.L309
 294:C:\Users\a5116938\Desktop\e2_studio_workspace\EEMBC_final\RX65N_Cloud_Kit\src/tensorflow/lite/kernels/internal\types.h ****     }
 6840                             		.loc 4 294 7 is_stmt 1
 6841                             	.LVL780:
 6842                             	.LBB1237:
 6843                             	.LBB1234:
 201:C:\Users\a5116938\Desktop\e2_studio_workspace\EEMBC_final\RX65N_Cloud_Kit\src/tensorflow/lite/kernels/internal\types.h ****     TFLITE_DCHECK_LT(i, size_);
 6844                             		.loc 4 201 5
 202:C:\Users\a5116938\Desktop\e2_studio_workspace\EEMBC_final\RX65N_Cloud_Kit\src/tensorflow/lite/kernels/internal\types.h ****     if (size_ > kMaxSmallSize) {
 6845                             		.loc 4 202 5
 203:C:\Users\a5116938\Desktop\e2_studio_workspace\EEMBC_final\RX65N_Cloud_Kit\src/tensorflow/lite/kernels/internal\types.h ****       dims_pointer_[i] = val;
 6846                             		.loc 4 203 5
 206:C:\Users\a5116938\Desktop\e2_studio_workspace\EEMBC_final\RX65N_Cloud_Kit\src/tensorflow/lite/kernels/internal\types.h ****     }
 6847                             		.loc 4 206 7
 206:C:\Users\a5116938\Desktop\e2_studio_workspace\EEMBC_final\RX65N_Cloud_Kit\src/tensorflow/lite/kernels/internal\types.h ****     }
 6848                             		.loc 4 206 16 is_stmt 0
 6849 10e8 3E 8C 01                		mov.L	#1, 112[r0]
 6850                             	.LVL781:
 6851                             	.LBE1234:
 6852                             	.LBE1237:
 293:C:\Users\a5116938\Desktop\e2_studio_workspace\EEMBC_final\RX65N_Cloud_Kit\src/tensorflow/lite/kernels/internal\types.h ****       SetDim(i, pad_value);
 6853                             		.loc 4 293 23
 6854 10eb 61 21                   		cmp	#2, r1
 6855 10ed 20 10                   		beq	.L309
 294:C:\Users\a5116938\Desktop\e2_studio_workspace\EEMBC_final\RX65N_Cloud_Kit\src/tensorflow/lite/kernels/internal\types.h ****     }
 6856                             		.loc 4 294 7 is_stmt 1
 6857                             	.LVL782:
 6858                             	.LBB1238:
 6859                             	.LBB1235:
 201:C:\Users\a5116938\Desktop\e2_studio_workspace\EEMBC_final\RX65N_Cloud_Kit\src/tensorflow/lite/kernels/internal\types.h ****     TFLITE_DCHECK_LT(i, size_);
 6860                             		.loc 4 201 5
 202:C:\Users\a5116938\Desktop\e2_studio_workspace\EEMBC_final\RX65N_Cloud_Kit\src/tensorflow/lite/kernels/internal\types.h ****     if (size_ > kMaxSmallSize) {
 6861                             		.loc 4 202 5
 203:C:\Users\a5116938\Desktop\e2_studio_workspace\EEMBC_final\RX65N_Cloud_Kit\src/tensorflow/lite/kernels/internal\types.h ****       dims_pointer_[i] = val;
 6862                             		.loc 4 203 5
 206:C:\Users\a5116938\Desktop\e2_studio_workspace\EEMBC_final\RX65N_Cloud_Kit\src/tensorflow/lite/kernels/internal\types.h ****     }
 6863                             		.loc 4 206 7
 206:C:\Users\a5116938\Desktop\e2_studio_workspace\EEMBC_final\RX65N_Cloud_Kit\src/tensorflow/lite/kernels/internal\types.h ****     }
 6864                             		.loc 4 206 16 is_stmt 0
 6865 10ef 3E 8D 01                		mov.L	#1, 116[r0]
 6866                             	.LVL783:
 6867                             	.LBE1235:
 6868                             	.LBE1238:
 293:C:\Users\a5116938\Desktop\e2_studio_workspace\EEMBC_final\RX65N_Cloud_Kit\src/tensorflow/lite/kernels/internal\types.h ****       SetDim(i, pad_value);
 6869                             		.loc 4 293 23
 6870 10f2 61 31                   		cmp	#3, r1
 6871 10f4 11                      		beq	.L309
 294:C:\Users\a5116938\Desktop\e2_studio_workspace\EEMBC_final\RX65N_Cloud_Kit\src/tensorflow/lite/kernels/internal\types.h ****     }
 6872                             		.loc 4 294 7 is_stmt 1
 6873                             	.LVL784:
 6874                             	.LBB1239:
 6875                             	.LBB1236:
 201:C:\Users\a5116938\Desktop\e2_studio_workspace\EEMBC_final\RX65N_Cloud_Kit\src/tensorflow/lite/kernels/internal\types.h ****     TFLITE_DCHECK_LT(i, size_);
 6876                             		.loc 4 201 5
 202:C:\Users\a5116938\Desktop\e2_studio_workspace\EEMBC_final\RX65N_Cloud_Kit\src/tensorflow/lite/kernels/internal\types.h ****     if (size_ > kMaxSmallSize) {
 6877                             		.loc 4 202 5
 203:C:\Users\a5116938\Desktop\e2_studio_workspace\EEMBC_final\RX65N_Cloud_Kit\src/tensorflow/lite/kernels/internal\types.h ****       dims_pointer_[i] = val;
 6878                             		.loc 4 203 5
 206:C:\Users\a5116938\Desktop\e2_studio_workspace\EEMBC_final\RX65N_Cloud_Kit\src/tensorflow/lite/kernels/internal\types.h ****     }
 6879                             		.loc 4 206 7
 206:C:\Users\a5116938\Desktop\e2_studio_workspace\EEMBC_final\RX65N_Cloud_Kit\src/tensorflow/lite/kernels/internal\types.h ****     }
 6880                             		.loc 4 206 16 is_stmt 0
 6881 10f5 3E 8E 01                		mov.L	#1, 120[r0]
 6882                             	.LVL785:
 6883                             	.LBE1236:
 6884                             	.LBE1239:
 293:C:\Users\a5116938\Desktop\e2_studio_workspace\EEMBC_final\RX65N_Cloud_Kit\src/tensorflow/lite/kernels/internal\types.h ****       SetDim(i, pad_value);
 6885                             		.loc 4 293 23
 6886 10f8 61 41                   		cmp	#4, r1
 6887 10fa 3B 74 08                		bne	.L119
 6888                             	.LVL786:
 6889                             		.balign 8,3,1
 6890                             	.L309:
 6891                             	.LBE1231:
 6892                             	.LBE1242:
 6893                             	.LBE1245:
 6894                             	.LBE1248:
 6895                             	.LBE1251:
 6896                             	.LBE1254:
 6897                             	.LBE1301:
 6898                             	.LBE1311:
 6899                             	.LBE1321:
 6900                             	.LBE1331:
 6901                             	.LBE2161:
 6902                             	.LBE2242:
 6903                             	.LBE2305:
 214:C:\Users\a5116938\Desktop\e2_studio_workspace\EEMBC_final\RX65N_Cloud_Kit\src/tensorflow/lite/kernels/internal\types.h ****   }
 6904                             		.loc 4 214 5 is_stmt 1
 194:C:\Users\a5116938\Desktop\e2_studio_workspace\EEMBC_final\RX65N_Cloud_Kit\src/tensorflow/lite/kernels/internal\types.h ****   inline int32_t Dims(int i) const {
 6905                             		.loc 4 194 44
 6906                             	.LBB2306:
 6907                             	.LBB2243:
 6908                             	.LBB2162:
 6909                             	.LBB1332:
 6910                             	.LBB1322:
 6911                             	.LBB1312:
 6912                             	.LBB1302:
 6913                             	.LBB1255:
 6914                             	.LBB1252:
 6915                             	.LBB1249:
 6916                             	.LBB1246:
 6917                             	.LBB1243:
 6918                             		.loc 4 296 28 is_stmt 0
 6919 10fd 6C 21                   		shll	#2, r1
 6920                             	.LVL787:
 6921                             		.loc 4 296 16
 6922 10ff 75 42 6C                		mov.L	#0x6c, r2
 6923 1102 4B 02                   		add	r0, r2
 6924 1104 4B 21                   		add	r2, r1
 6925 1106 72 02 BC 01             		add	#0x1bc, r0, r2
 6926 110a 6C 23                   		shll	#2, r3
 6927                             	.LVL788:
 6928 110c 7F 8F                   		smovf
 6929                             	.LVL789:
 6930                             	.LBE1243:
 6931                             	.LBE1246:
 6932                             	.LBE1249:
 6933                             	.LBE1252:
 6934                             	.LBE1255:
  46:C:\Users\a5116938\Desktop\e2_studio_workspace\EEMBC_final\RX65N_Cloud_Kit\src/tensorflow/lite/kernels/internal/reference\pad.h ****   TFLITE_DCHECK_LE(op_params.right_padding_count, PadKernelMaxDimensionCount());
 6935                             		.loc 6 46 3
 6936 110e CC 63                   		mov.B	[r6], r3
 6937 1110 61 43                   		cmp	#4, r3
 6938 1112 2B 05 38 5A 08          		bgt	.L119
  47:C:\Users\a5116938\Desktop\e2_studio_workspace\EEMBC_final\RX65N_Cloud_Kit\src/tensorflow/lite/kernels/internal/reference\pad.h **** 
 6939                             		.loc 6 47 3
 6940 1117 8D 65                   		mov.B	20[r6], r5
 6941 1119 61 45                   		cmp	#4, r5
 6942 111b 2B 05 38 51 08          		bgt	.L119
 6943                             	.LVL790:
 6944                             	.LBB1256:
  53:C:\Users\a5116938\Desktop\e2_studio_workspace\EEMBC_final\RX65N_Cloud_Kit\src/tensorflow/lite/kernels/internal/reference\pad.h ****   }
 6945                             		.loc 6 53 5
 6946 1120 F9 06 BE 00             		mov.L	#0, 760[r0]
 6947                             	.LVL791:
 6948 1124 F9 06 BF 00             		mov.L	#0, 764[r0]
 6949                             	.LVL792:
 6950 1128 F9 06 C0 00             		mov.L	#0, 768[r0]
 6951                             	.LVL793:
 6952 112c F9 06 C1 00             		mov.L	#0, 772[r0]
 6953                             	.LVL794:
 6954                             	.LBE1256:
 6955                             	.LBB1257:
  55:C:\Users\a5116938\Desktop\e2_studio_workspace\EEMBC_final\RX65N_Cloud_Kit\src/tensorflow/lite/kernels/internal/reference\pad.h ****     left_padding_copy[i + PadKernelMaxDimensionCount() -
 6956                             		.loc 6 55 21
 6957 1130 61 03                   		cmp	#0, r3
 6958 1132 2B 17                   		ble	.L314
 6959 1134 66 41                   		mov.L	#4, r1
 6960 1136 43 31                   		sub	r3, r1
 6961 1138 71 62 04                		add	#4, r6, r2
 6962 113b 6C 21                   		shll	#2, r1
 6963 113d 6C 23                   		shll	#2, r3
 6964 113f FB 9A F8 02             		mov.L	#0x2f8, r9
 6965 1143 4B 09                   		add	r0, r9
 6966 1145 4B 91                   		add	r9, r1
 6967 1147 7F 8F                   		smovf
 6968                             		.balign 8,3,4
 6969                             	.L314:
 6970                             	.LVL795:
 6971                             	.LBE1257:
 6972                             	.LBB1258:
  61:C:\Users\a5116938\Desktop\e2_studio_workspace\EEMBC_final\RX65N_Cloud_Kit\src/tensorflow/lite/kernels/internal/reference\pad.h ****   }
 6973                             		.loc 6 61 5
 6974 1149 F9 06 BA 00             		mov.L	#0, 744[r0]
 6975                             	.LVL796:
 6976 114d F9 06 BB 00             		mov.L	#0, 748[r0]
 6977                             	.LVL797:
 6978 1151 F9 06 BC 00             		mov.L	#0, 752[r0]
 6979                             	.LVL798:
 6980 1155 F9 06 BD 00             		mov.L	#0, 756[r0]
 6981                             	.LVL799:
 6982                             	.LBE1258:
 6983                             	.LBB1259:
  63:C:\Users\a5116938\Desktop\e2_studio_workspace\EEMBC_final\RX65N_Cloud_Kit\src/tensorflow/lite/kernels/internal/reference\pad.h ****     right_padding_copy[i + PadKernelMaxDimensionCount() -
 6984                             		.loc 6 63 21
 6985 1159 61 05                   		cmp	#0, r5
 6986 115b 2B 18                   		ble	.L315
 6987 115d 66 41                   		mov.L	#4, r1
 6988 115f 43 51                   		sub	r5, r1
 6989 1161 71 62 18                		add	#24, r6, r2
 6990 1164 6C 21                   		shll	#2, r1
 6991 1166 FD C2 53                		shll	#2, r5, r3
 6992 1169 FB EA E8 02             		mov.L	#0x2e8, r14
 6993 116d 4B 0E                   		add	r0, r14
 6994 116f 4B E1                   		add	r14, r1
 6995 1171 7F 8F                   		smovf
 6996                             		.balign 8,3,1
 6997                             	.L315:
 6998                             	.LVL800:
 6999                             	.LBE1259:
 7000                             	.LBB1260:
 7001                             	.LBB1261:
 196:C:\Users\a5116938\Desktop\e2_studio_workspace\EEMBC_final\RX65N_Cloud_Kit\src/tensorflow/lite/kernels/internal\types.h ****     TFLITE_DCHECK_LT(i, size_);
 7002                             		.loc 4 196 5 is_stmt 1
 197:C:\Users\a5116938\Desktop\e2_studio_workspace\EEMBC_final\RX65N_Cloud_Kit\src/tensorflow/lite/kernels/internal\types.h ****     return size_ > kMaxSmallSize ? dims_pointer_[i] : dims_[i];
 7003                             		.loc 4 197 5
 7004 1173 E5 00 1A EC             		mov.L	104[r0], 944[r0]
 7005 1177 ED 04 EC                		mov.L	944[r0], r4
 7006 117a 61 04                   		cmp	#0, r4
 7007 117c 2A 05 38 F0 07          		ble	.L119
 198:C:\Users\a5116938\Desktop\e2_studio_workspace\EEMBC_final\RX65N_Cloud_Kit\src/tensorflow/lite/kernels/internal\types.h ****   }
 7008                             		.loc 4 198 5
 7009 1181 E5 00 1B EF             		mov.L	108[r0], 956[r0]
 198:C:\Users\a5116938\Desktop\e2_studio_workspace\EEMBC_final\RX65N_Cloud_Kit\src/tensorflow/lite/kernels/internal\types.h ****   }
 7010                             		.loc 4 198 34 is_stmt 0
 7011 1185 61 54                   		cmp	#5, r4
 7012 1187 2B 05 38 13 06          		bgt	.L936
 7013                             	.LVL801:
 7014                             	.LBE1261:
 7015                             	.LBE1260:
 7016                             	.LBB1263:
 7017                             	.LBB1264:
 196:C:\Users\a5116938\Desktop\e2_studio_workspace\EEMBC_final\RX65N_Cloud_Kit\src/tensorflow/lite/kernels/internal\types.h ****     TFLITE_DCHECK_LT(i, size_);
 7018                             		.loc 4 196 5 is_stmt 1
 197:C:\Users\a5116938\Desktop\e2_studio_workspace\EEMBC_final\RX65N_Cloud_Kit\src/tensorflow/lite/kernels/internal\types.h ****     return size_ > kMaxSmallSize ? dims_pointer_[i] : dims_[i];
 7019                             		.loc 4 197 5
 7020 118c 61 14                   		cmp	#1, r4
 7021 118e 3A E0 07                		beq	.L119
 198:C:\Users\a5116938\Desktop\e2_studio_workspace\EEMBC_final\RX65N_Cloud_Kit\src/tensorflow/lite/kernels/internal\types.h ****   }
 7022                             		.loc 4 198 34 is_stmt 0
 7023 1191 E5 00 1C E2             		mov.L	112[r0], 904[r0]
 7024                             	.LVL802:
 7025                             	.LBE1264:
 7026                             	.LBE1263:
 7027                             	.LBB1266:
 7028                             	.LBB1267:
 196:C:\Users\a5116938\Desktop\e2_studio_workspace\EEMBC_final\RX65N_Cloud_Kit\src/tensorflow/lite/kernels/internal\types.h ****     TFLITE_DCHECK_LT(i, size_);
 7029                             		.loc 4 196 5 is_stmt 1
 197:C:\Users\a5116938\Desktop\e2_studio_workspace\EEMBC_final\RX65N_Cloud_Kit\src/tensorflow/lite/kernels/internal\types.h ****     return size_ > kMaxSmallSize ? dims_pointer_[i] : dims_[i];
 7030                             		.loc 4 197 5
 7031 1195 61 24                   		cmp	#2, r4
 7032 1197 3A D7 07                		beq	.L119
 198:C:\Users\a5116938\Desktop\e2_studio_workspace\EEMBC_final\RX65N_Cloud_Kit\src/tensorflow/lite/kernels/internal\types.h ****   }
 7033                             		.loc 4 198 34 is_stmt 0
 7034 119a ED 08 1D                		mov.L	116[r0], r8
 7035                             	.LVL803:
 7036                             	.LBE1267:
 7037                             	.LBE1266:
 7038                             	.LBB1269:
 7039                             	.LBB1270:
 196:C:\Users\a5116938\Desktop\e2_studio_workspace\EEMBC_final\RX65N_Cloud_Kit\src/tensorflow/lite/kernels/internal\types.h ****     TFLITE_DCHECK_LT(i, size_);
 7040                             		.loc 4 196 5 is_stmt 1
 197:C:\Users\a5116938\Desktop\e2_studio_workspace\EEMBC_final\RX65N_Cloud_Kit\src/tensorflow/lite/kernels/internal\types.h ****     return size_ > kMaxSmallSize ? dims_pointer_[i] : dims_[i];
 7041                             		.loc 4 197 5
 7042 119d 61 34                   		cmp	#3, r4
 7043 119f 3A CF 07                		beq	.L119
 198:C:\Users\a5116938\Desktop\e2_studio_workspace\EEMBC_final\RX65N_Cloud_Kit\src/tensorflow/lite/kernels/internal\types.h ****   }
 7044                             		.loc 4 198 34 is_stmt 0
 7045 11a2 AF 85                   		mov.L	120[r0], r5
 7046                             	.LVL804:
 7047                             	.LBE1270:
 7048                             	.LBE1269:
  74:C:\Users\a5116938\Desktop\e2_studio_workspace\EEMBC_final\RX65N_Cloud_Kit\src/tensorflow/lite/kernels/internal/reference\pad.h ****   const int left_h_padding = left_padding_copy[1];
 7049                             		.loc 6 74 13
 7050 11a4 E5 00 BE E8             		mov.L	760[r0], 928[r0]
 7051                             	.LVL805:
  75:C:\Users\a5116938\Desktop\e2_studio_workspace\EEMBC_final\RX65N_Cloud_Kit\src/tensorflow/lite/kernels/internal/reference\pad.h ****   const int left_w_padding = left_padding_copy[2];
 7052                             		.loc 6 75 13
 7053 11a8 E5 00 BF E7             		mov.L	764[r0], 924[r0]
 7054                             	.LVL806:
  76:C:\Users\a5116938\Desktop\e2_studio_workspace\EEMBC_final\RX65N_Cloud_Kit\src/tensorflow/lite/kernels/internal/reference\pad.h ****   const int left_d_padding = left_padding_copy[3];
 7055                             		.loc 6 76 13
 7056 11ac E5 00 C0 E6             		mov.L	768[r0], 920[r0]
 7057                             	.LVL807:
  77:C:\Users\a5116938\Desktop\e2_studio_workspace\EEMBC_final\RX65N_Cloud_Kit\src/tensorflow/lite/kernels/internal/reference\pad.h **** 
 7058                             		.loc 6 77 13
 7059 11b0 E5 00 C1 ED             		mov.L	772[r0], 948[r0]
 7060                             	.LVL808:
  79:C:\Users\a5116938\Desktop\e2_studio_workspace\EEMBC_final\RX65N_Cloud_Kit\src/tensorflow/lite/kernels/internal/reference\pad.h ****   const int right_h_padding = right_padding_copy[1];
 7061                             		.loc 6 79 13
 7062 11b4 E5 00 BA EB             		mov.L	744[r0], 940[r0]
 7063                             	.LVL809:
  80:C:\Users\a5116938\Desktop\e2_studio_workspace\EEMBC_final\RX65N_Cloud_Kit\src/tensorflow/lite/kernels/internal/reference\pad.h ****   const int right_w_padding = right_padding_copy[2];
 7064                             		.loc 6 80 13
 7065 11b8 E5 00 BB E5             		mov.L	748[r0], 916[r0]
 7066                             	.LVL810:
  81:C:\Users\a5116938\Desktop\e2_studio_workspace\EEMBC_final\RX65N_Cloud_Kit\src/tensorflow/lite/kernels/internal/reference\pad.h ****   const int right_d_padding = right_padding_copy[3];
 7067                             		.loc 6 81 13
 7068 11bc E5 00 BC E4             		mov.L	752[r0], 912[r0]
 7069                             	.LVL811:
  82:C:\Users\a5116938\Desktop\e2_studio_workspace\EEMBC_final\RX65N_Cloud_Kit\src/tensorflow/lite/kernels/internal/reference\pad.h **** 
 7070                             		.loc 6 82 13
 7071 11c0 ED 03 BD                		mov.L	756[r0], r3
 7072                             	.LVL812:
 7073                             	.LBB1272:
  88:C:\Users\a5116938\Desktop\e2_studio_workspace\EEMBC_final\RX65N_Cloud_Kit\src/tensorflow/lite/kernels/internal/reference\pad.h ****     for (int out_h = 0; out_h < output_height; ++out_h) {
 7074                             		.loc 6 88 29
 7075 11c3 E5 00 EF E9             		mov.L	956[r0], 932[r0]
 7076 11c7 ED 04 EF                		mov.L	956[r0], r4
 7077 11ca 61 04                   		cmp	#0, r4
 7078 11cc 2A 05 38 F6 00          		ble	.L321
 7079                             	.LVL813:
 7080                             		.balign 8,3,2
 7081                             	.L318:
 7082 11d1 ED 09 E2                		mov.L	904[r0], r9
 7083 11d4 61 09                   		cmp	#0, r9
 7084 11d6 2A 05 38 D8 00          		ble	.L322
 7085 11db 5B A4                   		movu.B	r10, r4
 7086 11dd FF 03 35                		sub	r3, r5, r3
 7087                             	.LVL814:
 7088 11e0 E7 03 E3                		mov.L	r3, 908[r0]
 7089 11e3 FD C8 43                		shll	#8, r4, r3
 7090 11e6 FD D0 42                		shll	#16, r4, r2
 7091 11e9 57 43                   		or	r4, r3
 7092 11eb 6D 84                   		shll	#24, r4
 7093 11ed 57 23                   		or	r2, r3
 7094 11ef 66 0C                   		mov.L	#0, r12
 7095 11f1 57 43                   		or	r4, r3
 7096 11f3 E7 03 EA                		mov.L	r3, 936[r0]
 7097                             	.LVL815:
 7098 11f6 EF 00                   		.balign 8,3,2
 7099                             	.L345:
 7100                             	.LBB1273:
 7101                             	.LBB1274:
 7102                             	.LBB1275:
  93:C:\Users\a5116938\Desktop\e2_studio_workspace\EEMBC_final\RX65N_Cloud_Kit\src/tensorflow/lite/kernels/internal/reference\pad.h ****               out_h < left_h_padding ||
 7103                             		.loc 6 93 37
 7104 11f8 ED 09 E9                		mov.L	932[r0], r9
 7105 11fb ED 0E EB                		mov.L	940[r0], r14
 7106 11fe 43 E9                   		sub	r14, r9
 7107                             	.LBE1275:
 7108                             	.LBE1274:
  89:C:\Users\a5116938\Desktop\e2_studio_workspace\EEMBC_final\RX65N_Cloud_Kit\src/tensorflow/lite/kernels/internal/reference\pad.h ****       for (int out_w = 0; out_w < output_width; ++out_w) {
 7109                             		.loc 6 89 14
 7110 1200 66 06                   		mov.L	#0, r6
 7111                             	.LVL816:
 7112                             		.balign 8,3,1
 7113                             	.L344:
 7114                             	.LBB1280:
  90:C:\Users\a5116938\Desktop\e2_studio_workspace\EEMBC_final\RX65N_Cloud_Kit\src/tensorflow/lite/kernels/internal/reference\pad.h ****         for (int out_d = 0; out_d < output_depth; ++out_d) {
 7115                             		.loc 6 90 33
 7116 1202 61 08                   		cmp	#0, r8
 7117 1204 2A 05 38 93 00          		ble	.L323
 7118                             	.LBB1276:
  95:C:\Users\a5116938\Desktop\e2_studio_workspace\EEMBC_final\RX65N_Cloud_Kit\src/tensorflow/lite/kernels/internal/reference\pad.h ****               out_w < left_w_padding ||
 7119                             		.loc 6 95 38
 7120 1209 ED 0D E2                		mov.L	904[r0], r13
 7121 120c ED 0F E5                		mov.L	916[r0], r15
 7122 120f 43 FD                   		sub	r15, r13
 7123                             	.LBE1276:
  90:C:\Users\a5116938\Desktop\e2_studio_workspace\EEMBC_final\RX65N_Cloud_Kit\src/tensorflow/lite/kernels/internal/reference\pad.h ****         for (int out_d = 0; out_d < output_depth; ++out_d) {
 7124                             		.loc 6 90 16
 7125 1211 66 0B                   		mov.L	#0, r11
 7126                             	.LVL817:
 7127                             		.balign 8,3,1
 7128                             	.L343:
 7129                             	.LBB1277:
  91:C:\Users\a5116938\Desktop\e2_studio_workspace\EEMBC_final\RX65N_Cloud_Kit\src/tensorflow/lite/kernels/internal/reference\pad.h ****           if (out_b < left_b_padding ||
 7130                             		.loc 6 91 35
 7131 1213 61 05                   		cmp	#0, r5
 7132 1215 2B 7D                   		ble	.L324
  97:C:\Users\a5116938\Desktop\e2_studio_workspace\EEMBC_final\RX65N_Cloud_Kit\src/tensorflow/lite/kernels/internal/reference\pad.h ****               out_d < left_d_padding ||
 7133                             		.loc 6 97 37
 7134 1217 ED 0E E4                		mov.L	912[r0], r14
 7135 121a FF 04 E8                		sub	r14, r8, r4
 7136 121d ED 0F E8                		mov.L	928[r0], r15
 7137 1220 47 CF                   		cmp	r12, r15
 7138 1222 2B 05 38 B1 06          		bgt	.L325
 7139 1227 47 B4                   		cmp	r11, r4
 7140 1229 2A 05 38 AA 06          		ble	.L325
 7141 122e 47 9C                   		cmp	r9, r12
 7142 1230 29 05 38 A3 06          		bge	.L325
 7143 1235 47 6D                   		cmp	r6, r13
 7144 1237 2A 05 38 9C 06          		ble	.L325
 7145 123c ED 04 E3                		mov.L	908[r0], r4
 7146 123f 61 04                   		cmp	#0, r4
 7147 1241 2A 05 38 E2 05          		ble	.L473
 7148 1246 EF 41                   		mov.L	r4, r1
 7149 1248 FC 17 51                		min	r5, r1
 7150 124b EF 73                   		mov.L	r7, r3
  91:C:\Users\a5116938\Desktop\e2_studio_workspace\EEMBC_final\RX65N_Cloud_Kit\src/tensorflow/lite/kernels/internal/reference\pad.h ****           if (out_b < left_b_padding ||
 7151                             		.loc 6 91 18
 7152 124d 66 04                   		mov.L	#0, r4
 7153 124f 2E 24                   		bra	.L331
 7154                             	.LVL818:
 7155                             	.L938:
  95:C:\Users\a5116938\Desktop\e2_studio_workspace\EEMBC_final\RX65N_Cloud_Kit\src/tensorflow/lite/kernels/internal/reference\pad.h ****               out_w < left_w_padding ||
 7156                             		.loc 6 95 56
 7157 1251 ED 0F E6                		mov.L	920[r0], r15
 7158 1254 47 BF                   		cmp	r11, r15
 7159 1256 2A 26                   		bgt	.L476
  97:C:\Users\a5116938\Desktop\e2_studio_workspace\EEMBC_final\RX65N_Cloud_Kit\src/tensorflow/lite/kernels/internal/reference\pad.h ****               out_d < left_d_padding ||
 7160                             		.loc 6 97 55
 7161 1258 ED 0E ED                		mov.L	948[r0], r14
 7162 125b 47 4E                   		cmp	r4, r14
 7163 125d 2A 1F                   		bgt	.L476
 102:C:\Users\a5116938\Desktop\e2_studio_workspace\EEMBC_final\RX65N_Cloud_Kit\src/tensorflow/lite/kernels/internal/reference\pad.h ****           }
 7164                             		.loc 6 102 13
 7165 125f ED 0E EE                		mov.L	952[r0], r14
 7166                             	.LVL819:
 7167 1262 FD 28 E2                		mov.B	[r14+], r2
 7168                             	.LVL820:
 7169 1265 E7 0E EE                		mov.L	r14, 952[r0]
 7170                             	.LVL821:
 7171 1268 71 3E FF                		add	#-1, r3, r14
 7172                             	.LVL822:
  91:C:\Users\a5116938\Desktop\e2_studio_workspace\EEMBC_final\RX65N_Cloud_Kit\src/tensorflow/lite/kernels/internal/reference\pad.h ****           if (out_b < left_b_padding ||
 7173                             		.loc 6 91 9
 7174 126b 62 14                   		add	#1, r4
 7175                             	.LVL823:
 7176 126d C3 E2                   		mov.B	r2, [r14]
 7177                             	.LVL824:
  91:C:\Users\a5116938\Desktop\e2_studio_workspace\EEMBC_final\RX65N_Cloud_Kit\src/tensorflow/lite/kernels/internal/reference\pad.h ****           if (out_b < left_b_padding ||
 7178                             		.loc 6 91 35
 7179 126f 47 14                   		cmp	r1, r4
 7180 1271 28 18                   		bge	.L937
 7181                             	.LVL825:
 7182                             		.balign 8,3,1
 7183                             	.L331:
 7184 1273 62 13                   		add	#1, r3
 7185                             	.LVL826:
  93:C:\Users\a5116938\Desktop\e2_studio_workspace\EEMBC_final\RX65N_Cloud_Kit\src/tensorflow/lite/kernels/internal/reference\pad.h ****               out_h < left_h_padding ||
 7186                             		.loc 6 93 55
 7187 1275 ED 0E E7                		mov.L	924[r0], r14
 7188 1278 47 6E                   		cmp	r6, r14
 7189 127a 2B D7                   		ble	.L938
 7190                             		.balign 8,3,1
 7191                             	.L476:
 100:C:\Users\a5116938\Desktop\e2_studio_workspace\EEMBC_final\RX65N_Cloud_Kit\src/tensorflow/lite/kernels/internal/reference\pad.h ****           } else {
 7192                             		.loc 6 100 13
 7193 127c CF A2                   		mov.B	r10, r2
 7194 127e 71 3E FF                		add	#-1, r3, r14
  91:C:\Users\a5116938\Desktop\e2_studio_workspace\EEMBC_final\RX65N_Cloud_Kit\src/tensorflow/lite/kernels/internal/reference\pad.h ****           if (out_b < left_b_padding ||
 7195                             		.loc 6 91 9
 7196 1281 62 14                   		add	#1, r4
 7197                             	.LVL827:
 7198 1283 C3 E2                   		mov.B	r2, [r14]
 7199                             	.LVL828:
  91:C:\Users\a5116938\Desktop\e2_studio_workspace\EEMBC_final\RX65N_Cloud_Kit\src/tensorflow/lite/kernels/internal/reference\pad.h ****           if (out_b < left_b_padding ||
 7200                             		.loc 6 91 35
 7201 1285 47 14                   		cmp	r1, r4
 7202 1287 29 EC                   		blt	.L331
 7203                             	.LVL829:
 7204                             		.balign 8,3,1
 7205                             	.L937:
 7206 1289 47 45                   		cmp	r4, r5
 7207 128b 2B 05 38 9C 05          		bgt	.L329
 7208                             	.LVL830:
 7209                             		.balign 8,3,1
 7210                             	.L905:
 7211 1290 4B 57                   		add	r5, r7
 7212                             		.balign 8,3,1
 7213                             	.L324:
 7214                             	.LBE1277:
  90:C:\Users\a5116938\Desktop\e2_studio_workspace\EEMBC_final\RX65N_Cloud_Kit\src/tensorflow/lite/kernels/internal/reference\pad.h ****         for (int out_d = 0; out_d < output_depth; ++out_d) {
 7215                             		.loc 6 90 7
 7216 1292 62 1B                   		add	#1, r11
 7217                             	.LVL831:
  90:C:\Users\a5116938\Desktop\e2_studio_workspace\EEMBC_final\RX65N_Cloud_Kit\src/tensorflow/lite/kernels/internal/reference\pad.h ****         for (int out_d = 0; out_d < output_depth; ++out_d) {
 7218                             		.loc 6 90 33
 7219 1294 47 B8                   		cmp	r11, r8
 7220 1296 3B 7D FF                		bne	.L343
 7221                             	.LVL832:
 7222                             		.balign 8,3,1
 7223                             	.L323:
 7224                             	.LBE1280:
  89:C:\Users\a5116938\Desktop\e2_studio_workspace\EEMBC_final\RX65N_Cloud_Kit\src/tensorflow/lite/kernels/internal/reference\pad.h ****       for (int out_w = 0; out_w < output_width; ++out_w) {
 7225                             		.loc 6 89 5
 7226 1299 62 16                   		add	#1, r6
 7227                             	.LVL833:
  89:C:\Users\a5116938\Desktop\e2_studio_workspace\EEMBC_final\RX65N_Cloud_Kit\src/tensorflow/lite/kernels/internal/reference\pad.h ****       for (int out_w = 0; out_w < output_width; ++out_w) {
 7228                             		.loc 6 89 31
 7229 129b ED 04 E2                		mov.L	904[r0], r4
 7230 129e 47 64                   		cmp	r6, r4
 7231 12a0 3B 62 FF                		bne	.L344
 7232                             	.LBE1273:
  88:C:\Users\a5116938\Desktop\e2_studio_workspace\EEMBC_final\RX65N_Cloud_Kit\src/tensorflow/lite/kernels/internal/reference\pad.h ****     for (int out_h = 0; out_h < output_height; ++out_h) {
 7233                             		.loc 6 88 3
 7234 12a3 62 1C                   		add	#1, r12
 7235                             	.LVL834:
  88:C:\Users\a5116938\Desktop\e2_studio_workspace\EEMBC_final\RX65N_Cloud_Kit\src/tensorflow/lite/kernels/internal/reference\pad.h ****     for (int out_h = 0; out_h < output_height; ++out_h) {
 7236                             		.loc 6 88 29
 7237 12a5 ED 09 E9                		mov.L	932[r0], r9
 7238 12a8 47 C9                   		cmp	r12, r9
 7239 12aa 2B 05 38 4C FF          		bgt	.L345
 7240                             	.LVL835:
 7241 12af 03                      		.balign 8,3,2
 7242                             	.L322:
 7243                             	.LBE1272:
 7244                             	.LBB1285:
 7245                             	.LBB1286:
 185:C:\Users\a5116938\Desktop\e2_studio_workspace\EEMBC_final\RX65N_Cloud_Kit\src/tensorflow/lite/kernels/internal\types.h **** #ifdef TF_LITE_STATIC_MEMORY
 7246                             		.loc 4 185 5 is_stmt 1
 7247 12b0 ED 0E EC                		mov.L	944[r0], r14
 7248 12b3 61 5E                   		cmp	#5, r14
 7249 12b5 2B 0F                   		ble	.L321
 189:C:\Users\a5116938\Desktop\e2_studio_workspace\EEMBC_final\RX65N_Cloud_Kit\src/tensorflow/lite/kernels/internal\types.h **** #endif  // TF_LITE_STATIC_MEMORY
 7250                             		.loc 4 189 7
 189:C:\Users\a5116938\Desktop\e2_studio_workspace\EEMBC_final\RX65N_Cloud_Kit\src/tensorflow/lite/kernels/internal\types.h **** #endif  // TF_LITE_STATIC_MEMORY
 7251                             		.loc 4 189 29 is_stmt 0
 7252 12b7 ED 0E EF                		mov.L	956[r0], r14
 7253 12ba 61 0E                   		cmp	#0, r14
 7254 12bc 10                      		beq	.L321
 7255 12bd EF E1                   		mov.L	r14, r1
 7256                             	.LVL836:
 7257 12bf 03                      		.balign 8,3,3
 7258                             	.L319:
 189:C:\Users\a5116938\Desktop\e2_studio_workspace\EEMBC_final\RX65N_Cloud_Kit\src/tensorflow/lite/kernels/internal\types.h **** #endif  // TF_LITE_STATIC_MEMORY
 7259                             		.loc 4 189 16
 7260 12c0 05 00 00 00             		bsr	__ZdaPv
 7261                             	.LVL837:
 7262                             		.balign 8,3,2
 7263                             	.L321:
 7264                             	.LBE1286:
 7265                             	.LBE1285:
 7266                             	.LBB1287:
 7267                             	.LBB1288:
 185:C:\Users\a5116938\Desktop\e2_studio_workspace\EEMBC_final\RX65N_Cloud_Kit\src/tensorflow/lite/kernels/internal\types.h **** #ifdef TF_LITE_STATIC_MEMORY
 7268                             		.loc 4 185 5 is_stmt 1
 7269 12c4 ED 07 20                		mov.L	128[r0], r7
 7270                             	.LVL838:
 7271 12c7 61 57                   		cmp	#5, r7
 7272 12c9 2B 0C                   		ble	.L347
 189:C:\Users\a5116938\Desktop\e2_studio_workspace\EEMBC_final\RX65N_Cloud_Kit\src/tensorflow/lite/kernels/internal\types.h **** #endif  // TF_LITE_STATIC_MEMORY
 7273                             		.loc 4 189 7
 189:C:\Users\a5116938\Desktop\e2_studio_workspace\EEMBC_final\RX65N_Cloud_Kit\src/tensorflow/lite/kernels/internal\types.h **** #endif  // TF_LITE_STATIC_MEMORY
 7274                             		.loc 4 189 16 is_stmt 0
 7275 12cb ED 01 21                		mov.L	132[r0], r1
 189:C:\Users\a5116938\Desktop\e2_studio_workspace\EEMBC_final\RX65N_Cloud_Kit\src/tensorflow/lite/kernels/internal\types.h **** #endif  // TF_LITE_STATIC_MEMORY
 7276                             		.loc 4 189 29
 7277 12ce 61 01                   		cmp	#0, r1
 7278 12d0 15                      		beq	.L347
 189:C:\Users\a5116938\Desktop\e2_studio_workspace\EEMBC_final\RX65N_Cloud_Kit\src/tensorflow/lite/kernels/internal\types.h **** #endif  // TF_LITE_STATIC_MEMORY
 7279                             		.loc 4 189 16
 7280 12d1 05 00 00 00             		bsr	__ZdaPv
 7281                             	.LVL839:
 7282                             		.balign 8,3,2
 7283                             	.L347:
 7284                             	.LBE1288:
 7285                             	.LBE1287:
 7286                             	.LBE1302:
 7287                             	.LBE1312:
 7288                             	.LBE1322:
 7289                             	.LBE1332:
 7290                             	.LBB1333:
 7291                             	.LBB1334:
 185:C:\Users\a5116938\Desktop\e2_studio_workspace\EEMBC_final\RX65N_Cloud_Kit\src/tensorflow/lite/kernels/internal\types.h **** #ifdef TF_LITE_STATIC_MEMORY
 7292                             		.loc 4 185 5 is_stmt 1
 7293 12d5 ED 07 6E                		mov.L	440[r0], r7
 7294 12d8 61 57                   		cmp	#5, r7
 7295 12da 2B 0E                   		ble	.L348
 189:C:\Users\a5116938\Desktop\e2_studio_workspace\EEMBC_final\RX65N_Cloud_Kit\src/tensorflow/lite/kernels/internal\types.h **** #endif  // TF_LITE_STATIC_MEMORY
 7296                             		.loc 4 189 7
 189:C:\Users\a5116938\Desktop\e2_studio_workspace\EEMBC_final\RX65N_Cloud_Kit\src/tensorflow/lite/kernels/internal\types.h **** #endif  // TF_LITE_STATIC_MEMORY
 7297                             		.loc 4 189 16 is_stmt 0
 7298 12dc ED 01 6F                		mov.L	444[r0], r1
 189:C:\Users\a5116938\Desktop\e2_studio_workspace\EEMBC_final\RX65N_Cloud_Kit\src/tensorflow/lite/kernels/internal\types.h **** #endif  // TF_LITE_STATIC_MEMORY
 7299                             		.loc 4 189 29
 7300 12df 61 01                   		cmp	#0, r1
 7301 12e1 17                      		beq	.L348
 189:C:\Users\a5116938\Desktop\e2_studio_workspace\EEMBC_final\RX65N_Cloud_Kit\src/tensorflow/lite/kernels/internal\types.h **** #endif  // TF_LITE_STATIC_MEMORY
 7302                             		.loc 4 189 16
 7303 12e2 05 00 00 00             		bsr	__ZdaPv
 7304                             	.LVL840:
 7305 12e6 EF 00                   		.balign 8,3,2
 7306                             	.L348:
 7307                             	.LBE1334:
 7308                             	.LBE1333:
 7309                             	.LBB1335:
 7310                             	.LBB1336:
 185:C:\Users\a5116938\Desktop\e2_studio_workspace\EEMBC_final\RX65N_Cloud_Kit\src/tensorflow/lite/kernels/internal\types.h **** #ifdef TF_LITE_STATIC_MEMORY
 7311                             		.loc 4 185 5 is_stmt 1
 7312 12e8 ED 07 74                		mov.L	464[r0], r7
 7313 12eb 61 57                   		cmp	#5, r7
 7314 12ed 2A 05 38 EB EF          		ble	.L435
 189:C:\Users\a5116938\Desktop\e2_studio_workspace\EEMBC_final\RX65N_Cloud_Kit\src/tensorflow/lite/kernels/internal\types.h **** #endif  // TF_LITE_STATIC_MEMORY
 7315                             		.loc 4 189 7
 189:C:\Users\a5116938\Desktop\e2_studio_workspace\EEMBC_final\RX65N_Cloud_Kit\src/tensorflow/lite/kernels/internal\types.h **** #endif  // TF_LITE_STATIC_MEMORY
 7316                             		.loc 4 189 16 is_stmt 0
 7317 12f2 ED 01 75                		mov.L	468[r0], r1
 189:C:\Users\a5116938\Desktop\e2_studio_workspace\EEMBC_final\RX65N_Cloud_Kit\src/tensorflow/lite/kernels/internal\types.h **** #endif  // TF_LITE_STATIC_MEMORY
 7318                             		.loc 4 189 29
 7319 12f5 61 01                   		cmp	#0, r1
 7320 12f7 3A E3 EF                		beq	.L435
 7321                             	.LBE1336:
 7322                             	.LBE1335:
 7323                             	.LBE2162:
 7324                             	.LBB2163:
 7325                             	.LBB1499:
 7326                             	.LBB1357:
 189:C:\Users\a5116938\Desktop\e2_studio_workspace\EEMBC_final\RX65N_Cloud_Kit\src/tensorflow/lite/kernels/internal\types.h **** #endif  // TF_LITE_STATIC_MEMORY
 7327                             		.loc 4 189 16
 7328 12fa 05 00 00 00             		bsr	__ZdaPv
 7329                             	.LVL841:
 7330 12fe 38 DC EF                		bra	.L435
 7331                             	.LVL842:
 7332                             	.L926:
 7333                             	.LBE1357:
 7334                             	.LBE1499:
 7335                             	.LBE2163:
 7336                             	.LBB2164:
 175:../src/tensorflow/lite/micro/kernels/pad.cc ****             data->params, tflite::micro::GetTensorShape(input),
 7337                             		.loc 1 175 9 is_stmt 1
 176:../src/tensorflow/lite/micro/kernels/pad.cc ****             tflite::micro::GetTensorData<uint8_t>(input), &pad_value,
 7338                             		.loc 1 176 56 is_stmt 0
 7339 1301 72 0F 30 02             		add	#0x230, r0, r15
 7340 1305 EF B1                   		mov.L	r11, r1
 7341 1307 05 00 00 00             		bsr	__ZN6tflite5micro14GetTensorShapeEPK16TfLiteEvalTensor
 7342                             	.LVL843:
 178:../src/tensorflow/lite/micro/kernels/pad.cc ****             tflite::micro::GetTensorData<uint8_t>(output));
 7343                             		.loc 1 178 42
 7344 130b 72 0F 18 02             		add	#0x218, r0, r15
 7345 130f EF 71                   		mov.L	r7, r1
 7346                             	.LBB1962:
 7347                             	.LBB1963:
 7348                             		.loc 5 62 53
 7349 1311 E4 B0 ED                		mov.L	[r11], 948[r0]
 7350                             	.LVL844:
 7351                             	.LBE1963:
 7352                             	.LBE1962:
 178:../src/tensorflow/lite/micro/kernels/pad.cc ****             tflite::micro::GetTensorData<uint8_t>(output));
 7353                             		.loc 1 178 42
 7354 1314 05 00 00 00             		bsr	__ZN6tflite5micro14GetTensorShapeEPK16TfLiteEvalTensor
 7355                             	.LVL845:
 7356                             	.LBB1964:
 7357                             	.LBB1965:
  55:C:\Users\a5116938\Desktop\e2_studio_workspace\EEMBC_final\RX65N_Cloud_Kit\src/tensorflow/lite/micro/kernels\kernel_util.h **** }
 7358                             		.loc 5 55 28
 7359 1318 61 07                   		cmp	#0, r7
 7360 131a 13                      		beq	.L215
 7361 131b EC 77                   		mov.L	[r7], r7
 7362                             	.LVL846:
 7363                             		.balign 8,3,2
 7364                             	.L215:
 7365                             	.LBE1965:
 7366                             	.LBE1964:
 7367                             	.LBE2164:
 7368                             	.LBE2243:
 7369                             	.LBE2306:
 262:C:\Users\a5116938\Desktop\e2_studio_workspace\EEMBC_final\RX65N_Cloud_Kit\src/tensorflow/lite/kernels/internal\types.h ****   }
 7370                             		.loc 4 262 5 is_stmt 1
 7371                             	.LBB2307:
 7372                             	.LBB2244:
 7373                             	.LBB2165:
 7374                             	.LBB1966:
 7375                             	.LBB1967:
 7376                             	.LBB1968:
 7377                             	.LBB1969:
 7378                             	.LBB1970:
 7379                             	.LBB1971:
 7380                             	.LBB1972:
 7381                             	.LBB1973:
 7382                             	.LBB1974:
 290:C:\Users\a5116938\Desktop\e2_studio_workspace\EEMBC_final\RX65N_Cloud_Kit\src/tensorflow/lite/kernels/internal\types.h ****     Resize(new_shape_size);
 7383                             		.loc 4 290 5 is_stmt 0
 7384 131d ED 03 8C                		mov.L	560[r0], r3
 7385                             	.LBE1974:
 287:C:\Users\a5116938\Desktop\e2_studio_workspace\EEMBC_final\RX65N_Cloud_Kit\src/tensorflow/lite/kernels/internal\types.h ****     // If the following check fails, it is likely because a 4D-only kernel is
 7386                             		.loc 4 287 16
 7387 1320 F9 06 38 00             		mov.L	#0, 224[r0]
 7388                             	.LBB1986:
 290:C:\Users\a5116938\Desktop\e2_studio_workspace\EEMBC_final\RX65N_Cloud_Kit\src/tensorflow/lite/kernels/internal\types.h ****     Resize(new_shape_size);
 7389                             		.loc 4 290 5 is_stmt 1
 7390                             	.LVL847:
 7391                             	.LBE1986:
 7392                             	.LBE1973:
 7393                             	.LBE1972:
 7394                             	.LBE1971:
 7395                             	.LBE1970:
 7396                             	.LBE1969:
 7397                             	.LBE1968:
 7398                             	.LBE1967:
 7399                             	.LBE1966:
 7400                             	.LBE2165:
 7401                             	.LBE2244:
 7402                             	.LBE2307:
 194:C:\Users\a5116938\Desktop\e2_studio_workspace\EEMBC_final\RX65N_Cloud_Kit\src/tensorflow/lite/kernels/internal\types.h ****   inline int32_t Dims(int i) const {
 7403                             		.loc 4 194 44
 7404                             	.LBB2308:
 7405                             	.LBB2245:
 7406                             	.LBB2166:
 7407                             	.LBB2106:
 7408                             	.LBB2096:
 7409                             	.LBB2086:
 7410                             	.LBB2076:
 7411                             	.LBB1999:
 7412                             	.LBB1996:
 7413                             	.LBB1993:
 7414                             	.LBB1990:
 7415                             	.LBB1987:
 290:C:\Users\a5116938\Desktop\e2_studio_workspace\EEMBC_final\RX65N_Cloud_Kit\src/tensorflow/lite/kernels/internal\types.h ****     Resize(new_shape_size);
 7416                             		.loc 4 290 5 is_stmt 0
 7417 1324 61 43                   		cmp	#4, r3
 7418 1326 2B 05 38 46 06          		bgt	.L119
 291:C:\Users\a5116938\Desktop\e2_studio_workspace\EEMBC_final\RX65N_Cloud_Kit\src/tensorflow/lite/kernels/internal\types.h ****     const int size_increase = new_shape_size - shape.DimensionsCount();
 7419                             		.loc 4 291 5 is_stmt 1
 7420                             	.LVL848:
 7421                             	.LBB1975:
 7422                             	.LBB1976:
 220:C:\Users\a5116938\Desktop\e2_studio_workspace\EEMBC_final\RX65N_Cloud_Kit\src/tensorflow/lite/kernels/internal\types.h **** #ifdef TF_LITE_STATIC_MEMORY
 7423                             		.loc 4 220 5
 227:C:\Users\a5116938\Desktop\e2_studio_workspace\EEMBC_final\RX65N_Cloud_Kit\src/tensorflow/lite/kernels/internal\types.h ****     if (dimensions_count > kMaxSmallSize) {
 7424                             		.loc 4 227 5
 227:C:\Users\a5116938\Desktop\e2_studio_workspace\EEMBC_final\RX65N_Cloud_Kit\src/tensorflow/lite/kernels/internal\types.h ****     if (dimensions_count > kMaxSmallSize) {
 7425                             		.loc 4 227 11 is_stmt 0
 7426 132b F9 06 38 04             		mov.L	#4, 224[r0]
 228:C:\Users\a5116938\Desktop\e2_studio_workspace\EEMBC_final\RX65N_Cloud_Kit\src/tensorflow/lite/kernels/internal\types.h **** #ifdef TF_LITE_STATIC_MEMORY
 7427                             		.loc 4 228 5 is_stmt 1
 7428                             	.LVL849:
 7429                             	.LBE1976:
 7430                             	.LBE1975:
 292:C:\Users\a5116938\Desktop\e2_studio_workspace\EEMBC_final\RX65N_Cloud_Kit\src/tensorflow/lite/kernels/internal\types.h ****     for (int i = 0; i < size_increase; ++i) {
 7431                             		.loc 4 292 5
 7432                             	.LBE1987:
 7433                             	.LBE1990:
 7434                             	.LBE1993:
 7435                             	.LBE1996:
 7436                             	.LBE1999:
 7437                             	.LBE2076:
 7438                             	.LBE2086:
 7439                             	.LBE2096:
 7440                             	.LBE2106:
 7441                             	.LBE2166:
 7442                             	.LBE2245:
 7443                             	.LBE2308:
 194:C:\Users\a5116938\Desktop\e2_studio_workspace\EEMBC_final\RX65N_Cloud_Kit\src/tensorflow/lite/kernels/internal\types.h ****   inline int32_t Dims(int i) const {
 7444                             		.loc 4 194 44
 7445                             	.LBB2309:
 7446                             	.LBB2246:
 7447                             	.LBB2167:
 7448                             	.LBB2107:
 7449                             	.LBB2097:
 7450                             	.LBB2087:
 7451                             	.LBB2077:
 7452                             	.LBB2000:
 7453                             	.LBB1997:
 7454                             	.LBB1994:
 7455                             	.LBB1991:
 7456                             	.LBB1988:
 292:C:\Users\a5116938\Desktop\e2_studio_workspace\EEMBC_final\RX65N_Cloud_Kit\src/tensorflow/lite/kernels/internal\types.h ****     for (int i = 0; i < size_increase; ++i) {
 7457                             		.loc 4 292 70 is_stmt 0
 7458 132f 66 41                   		mov.L	#4, r1
 7459 1331 43 31                   		sub	r3, r1
 7460                             	.LVL850:
 293:C:\Users\a5116938\Desktop\e2_studio_workspace\EEMBC_final\RX65N_Cloud_Kit\src/tensorflow/lite/kernels/internal\types.h ****       SetDim(i, pad_value);
 7461                             		.loc 4 293 5 is_stmt 1
 7462                             	.LBB1977:
 293:C:\Users\a5116938\Desktop\e2_studio_workspace\EEMBC_final\RX65N_Cloud_Kit\src/tensorflow/lite/kernels/internal\types.h ****       SetDim(i, pad_value);
 7463                             		.loc 4 293 23 is_stmt 0
 7464 1333 20 22                   		beq	.L216
 7465                             	.LVL851:
 7466                             	.LBB1978:
 7467                             	.LBB1979:
 203:C:\Users\a5116938\Desktop\e2_studio_workspace\EEMBC_final\RX65N_Cloud_Kit\src/tensorflow/lite/kernels/internal\types.h ****       dims_pointer_[i] = val;
 7468                             		.loc 4 203 5 is_stmt 1
 206:C:\Users\a5116938\Desktop\e2_studio_workspace\EEMBC_final\RX65N_Cloud_Kit\src/tensorflow/lite/kernels/internal\types.h ****     }
 7469                             		.loc 4 206 7
 206:C:\Users\a5116938\Desktop\e2_studio_workspace\EEMBC_final\RX65N_Cloud_Kit\src/tensorflow/lite/kernels/internal\types.h ****     }
 7470                             		.loc 4 206 16 is_stmt 0
 7471 1335 F9 06 39 01             		mov.L	#1, 228[r0]
 7472                             	.LVL852:
 7473                             	.LBE1979:
 7474                             	.LBE1978:
 293:C:\Users\a5116938\Desktop\e2_studio_workspace\EEMBC_final\RX65N_Cloud_Kit\src/tensorflow/lite/kernels/internal\types.h ****       SetDim(i, pad_value);
 7475                             		.loc 4 293 23
 7476 1339 61 11                   		cmp	#1, r1
 7477 133b 20 1A                   		beq	.L216
 294:C:\Users\a5116938\Desktop\e2_studio_workspace\EEMBC_final\RX65N_Cloud_Kit\src/tensorflow/lite/kernels/internal\types.h ****     }
 7478                             		.loc 4 294 7 is_stmt 1
 7479                             	.LVL853:
 7480                             	.LBB1983:
 7481                             	.LBB1980:
 201:C:\Users\a5116938\Desktop\e2_studio_workspace\EEMBC_final\RX65N_Cloud_Kit\src/tensorflow/lite/kernels/internal\types.h ****     TFLITE_DCHECK_LT(i, size_);
 7482                             		.loc 4 201 5
 202:C:\Users\a5116938\Desktop\e2_studio_workspace\EEMBC_final\RX65N_Cloud_Kit\src/tensorflow/lite/kernels/internal\types.h ****     if (size_ > kMaxSmallSize) {
 7483                             		.loc 4 202 5
 203:C:\Users\a5116938\Desktop\e2_studio_workspace\EEMBC_final\RX65N_Cloud_Kit\src/tensorflow/lite/kernels/internal\types.h ****       dims_pointer_[i] = val;
 7484                             		.loc 4 203 5
 206:C:\Users\a5116938\Desktop\e2_studio_workspace\EEMBC_final\RX65N_Cloud_Kit\src/tensorflow/lite/kernels/internal\types.h ****     }
 7485                             		.loc 4 206 7
 206:C:\Users\a5116938\Desktop\e2_studio_workspace\EEMBC_final\RX65N_Cloud_Kit\src/tensorflow/lite/kernels/internal\types.h ****     }
 7486                             		.loc 4 206 16 is_stmt 0
 7487 133d F9 06 3A 01             		mov.L	#1, 232[r0]
 7488                             	.LVL854:
 7489                             	.LBE1980:
 7490                             	.LBE1983:
 293:C:\Users\a5116938\Desktop\e2_studio_workspace\EEMBC_final\RX65N_Cloud_Kit\src/tensorflow/lite/kernels/internal\types.h ****       SetDim(i, pad_value);
 7491                             		.loc 4 293 23
 7492 1341 61 21                   		cmp	#2, r1
 7493 1343 20 12                   		beq	.L216
 294:C:\Users\a5116938\Desktop\e2_studio_workspace\EEMBC_final\RX65N_Cloud_Kit\src/tensorflow/lite/kernels/internal\types.h ****     }
 7494                             		.loc 4 294 7 is_stmt 1
 7495                             	.LVL855:
 7496                             	.LBB1984:
 7497                             	.LBB1981:
 201:C:\Users\a5116938\Desktop\e2_studio_workspace\EEMBC_final\RX65N_Cloud_Kit\src/tensorflow/lite/kernels/internal\types.h ****     TFLITE_DCHECK_LT(i, size_);
 7498                             		.loc 4 201 5
 202:C:\Users\a5116938\Desktop\e2_studio_workspace\EEMBC_final\RX65N_Cloud_Kit\src/tensorflow/lite/kernels/internal\types.h ****     if (size_ > kMaxSmallSize) {
 7499                             		.loc 4 202 5
 203:C:\Users\a5116938\Desktop\e2_studio_workspace\EEMBC_final\RX65N_Cloud_Kit\src/tensorflow/lite/kernels/internal\types.h ****       dims_pointer_[i] = val;
 7500                             		.loc 4 203 5
 206:C:\Users\a5116938\Desktop\e2_studio_workspace\EEMBC_final\RX65N_Cloud_Kit\src/tensorflow/lite/kernels/internal\types.h ****     }
 7501                             		.loc 4 206 7
 206:C:\Users\a5116938\Desktop\e2_studio_workspace\EEMBC_final\RX65N_Cloud_Kit\src/tensorflow/lite/kernels/internal\types.h ****     }
 7502                             		.loc 4 206 16 is_stmt 0
 7503 1345 F9 06 3B 01             		mov.L	#1, 236[r0]
 7504                             	.LVL856:
 7505                             	.LBE1981:
 7506                             	.LBE1984:
 293:C:\Users\a5116938\Desktop\e2_studio_workspace\EEMBC_final\RX65N_Cloud_Kit\src/tensorflow/lite/kernels/internal\types.h ****       SetDim(i, pad_value);
 7507                             		.loc 4 293 23
 7508 1349 61 31                   		cmp	#3, r1
 7509 134b 12                      		beq	.L216
 294:C:\Users\a5116938\Desktop\e2_studio_workspace\EEMBC_final\RX65N_Cloud_Kit\src/tensorflow/lite/kernels/internal\types.h ****     }
 7510                             		.loc 4 294 7 is_stmt 1
 7511                             	.LVL857:
 7512                             	.LBB1985:
 7513                             	.LBB1982:
 201:C:\Users\a5116938\Desktop\e2_studio_workspace\EEMBC_final\RX65N_Cloud_Kit\src/tensorflow/lite/kernels/internal\types.h ****     TFLITE_DCHECK_LT(i, size_);
 7514                             		.loc 4 201 5
 202:C:\Users\a5116938\Desktop\e2_studio_workspace\EEMBC_final\RX65N_Cloud_Kit\src/tensorflow/lite/kernels/internal\types.h ****     if (size_ > kMaxSmallSize) {
 7515                             		.loc 4 202 5
 203:C:\Users\a5116938\Desktop\e2_studio_workspace\EEMBC_final\RX65N_Cloud_Kit\src/tensorflow/lite/kernels/internal\types.h ****       dims_pointer_[i] = val;
 7516                             		.loc 4 203 5
 206:C:\Users\a5116938\Desktop\e2_studio_workspace\EEMBC_final\RX65N_Cloud_Kit\src/tensorflow/lite/kernels/internal\types.h ****     }
 7517                             		.loc 4 206 7
 206:C:\Users\a5116938\Desktop\e2_studio_workspace\EEMBC_final\RX65N_Cloud_Kit\src/tensorflow/lite/kernels/internal\types.h ****     }
 7518                             		.loc 4 206 16 is_stmt 0
 7519 134c F9 06 3C 01             		mov.L	#1, 240[r0]
 7520                             	.LVL858:
 7521                             	.LBE1982:
 7522                             	.LBE1985:
 293:C:\Users\a5116938\Desktop\e2_studio_workspace\EEMBC_final\RX65N_Cloud_Kit\src/tensorflow/lite/kernels/internal\types.h ****       SetDim(i, pad_value);
 7523                             		.loc 4 293 23
 7524 1350 61 41                   		cmp	#4, r1
 7525 1352 3B 1C 06                		bne	.L119
 7526                             	.LVL859:
 7527                             		.balign 8,3,1
 7528                             	.L216:
 7529                             	.LBE1977:
 7530                             	.LBE1988:
 7531                             	.LBE1991:
 7532                             	.LBE1994:
 7533                             	.LBE1997:
 7534                             	.LBE2000:
 7535                             	.LBE2077:
 7536                             	.LBE2087:
 7537                             	.LBE2097:
 7538                             	.LBE2107:
 7539                             	.LBE2167:
 7540                             	.LBE2246:
 7541                             	.LBE2309:
 214:C:\Users\a5116938\Desktop\e2_studio_workspace\EEMBC_final\RX65N_Cloud_Kit\src/tensorflow/lite/kernels/internal\types.h ****   }
 7542                             		.loc 4 214 5 is_stmt 1
 194:C:\Users\a5116938\Desktop\e2_studio_workspace\EEMBC_final\RX65N_Cloud_Kit\src/tensorflow/lite/kernels/internal\types.h ****   inline int32_t Dims(int i) const {
 7543                             		.loc 4 194 44
 7544                             	.LBB2310:
 7545                             	.LBB2247:
 7546                             	.LBB2168:
 7547                             	.LBB2108:
 7548                             	.LBB2098:
 7549                             	.LBB2088:
 7550                             	.LBB2078:
 7551                             	.LBB2001:
 7552                             	.LBB1998:
 7553                             	.LBB1995:
 7554                             	.LBB1992:
 7555                             	.LBB1989:
 7556                             		.loc 4 296 28 is_stmt 0
 7557 1355 6C 21                   		shll	#2, r1
 7558                             	.LVL860:
 7559                             		.loc 4 296 16
 7560 1357 75 45 E4                		mov.L	#0xe4, r5
 7561 135a 4B 05                   		add	r0, r5
 7562 135c 4B 51                   		add	r5, r1
 7563 135e 72 02 34 02             		add	#0x234, r0, r2
 7564 1362 6C 23                   		shll	#2, r3
 7565                             	.LVL861:
 7566 1364 7F 8F                   		smovf
 7567                             	.LVL862:
 7568                             	.LBE1989:
 7569                             	.LBE1992:
 7570                             	.LBE1995:
 7571                             	.LBE1998:
 7572                             	.LBE2001:
 7573                             	.LBE2078:
 7574                             	.LBE2088:
 7575                             	.LBE2098:
 7576                             	.LBE2108:
 7577                             	.LBE2168:
 7578                             	.LBE2247:
 7579                             	.LBE2310:
 262:C:\Users\a5116938\Desktop\e2_studio_workspace\EEMBC_final\RX65N_Cloud_Kit\src/tensorflow/lite/kernels/internal\types.h ****   }
 7580                             		.loc 4 262 5 is_stmt 1
 7581                             	.LBB2311:
 7582                             	.LBB2248:
 7583                             	.LBB2169:
 7584                             	.LBB2109:
 7585                             	.LBB2099:
 7586                             	.LBB2089:
 7587                             	.LBB2079:
 7588                             	.LBB2002:
 7589                             	.LBB2003:
 7590                             	.LBB2004:
 7591                             	.LBB2005:
 7592                             	.LBB2006:
 290:C:\Users\a5116938\Desktop\e2_studio_workspace\EEMBC_final\RX65N_Cloud_Kit\src/tensorflow/lite/kernels/internal\types.h ****     Resize(new_shape_size);
 7593                             		.loc 4 290 5 is_stmt 0
 7594 1366 ED 03 86                		mov.L	536[r0], r3
 7595                             	.LBE2006:
 287:C:\Users\a5116938\Desktop\e2_studio_workspace\EEMBC_final\RX65N_Cloud_Kit\src/tensorflow/lite/kernels/internal\types.h ****     // If the following check fails, it is likely because a 4D-only kernel is
 7596                             		.loc 4 287 16
 7597 1369 F9 06 32 00             		mov.L	#0, 200[r0]
 7598                             	.LBB2020:
 290:C:\Users\a5116938\Desktop\e2_studio_workspace\EEMBC_final\RX65N_Cloud_Kit\src/tensorflow/lite/kernels/internal\types.h ****     Resize(new_shape_size);
 7599                             		.loc 4 290 5 is_stmt 1
 7600                             	.LVL863:
 7601                             	.LBE2020:
 7602                             	.LBE2005:
 7603                             	.LBE2004:
 7604                             	.LBE2003:
 7605                             	.LBE2002:
 7606                             	.LBE2079:
 7607                             	.LBE2089:
 7608                             	.LBE2099:
 7609                             	.LBE2109:
 7610                             	.LBE2169:
 7611                             	.LBE2248:
 7612                             	.LBE2311:
 194:C:\Users\a5116938\Desktop\e2_studio_workspace\EEMBC_final\RX65N_Cloud_Kit\src/tensorflow/lite/kernels/internal\types.h ****   inline int32_t Dims(int i) const {
 7613                             		.loc 4 194 44
 7614                             	.LBB2312:
 7615                             	.LBB2249:
 7616                             	.LBB2170:
 7617                             	.LBB2110:
 7618                             	.LBB2100:
 7619                             	.LBB2090:
 7620                             	.LBB2080:
 7621                             	.LBB2033:
 7622                             	.LBB2030:
 7623                             	.LBB2027:
 7624                             	.LBB2024:
 7625                             	.LBB2021:
 290:C:\Users\a5116938\Desktop\e2_studio_workspace\EEMBC_final\RX65N_Cloud_Kit\src/tensorflow/lite/kernels/internal\types.h ****     Resize(new_shape_size);
 7626                             		.loc 4 290 5 is_stmt 0
 7627 136d 61 43                   		cmp	#4, r3
 7628 136f 2B 05 38 FD 05          		bgt	.L119
 291:C:\Users\a5116938\Desktop\e2_studio_workspace\EEMBC_final\RX65N_Cloud_Kit\src/tensorflow/lite/kernels/internal\types.h ****     const int size_increase = new_shape_size - shape.DimensionsCount();
 7629                             		.loc 4 291 5 is_stmt 1
 7630                             	.LVL864:
 7631                             	.LBB2007:
 7632                             	.LBB2008:
 220:C:\Users\a5116938\Desktop\e2_studio_workspace\EEMBC_final\RX65N_Cloud_Kit\src/tensorflow/lite/kernels/internal\types.h **** #ifdef TF_LITE_STATIC_MEMORY
 7633                             		.loc 4 220 5
 227:C:\Users\a5116938\Desktop\e2_studio_workspace\EEMBC_final\RX65N_Cloud_Kit\src/tensorflow/lite/kernels/internal\types.h ****     if (dimensions_count > kMaxSmallSize) {
 7634                             		.loc 4 227 5
 7635                             	.LBE2008:
 7636                             	.LBE2007:
 292:C:\Users\a5116938\Desktop\e2_studio_workspace\EEMBC_final\RX65N_Cloud_Kit\src/tensorflow/lite/kernels/internal\types.h ****     for (int i = 0; i < size_increase; ++i) {
 7637                             		.loc 4 292 70 is_stmt 0
 7638 1374 66 41                   		mov.L	#4, r1
 7639 1376 43 31                   		sub	r3, r1
 7640                             	.LBB2010:
 7641                             	.LBB2009:
 227:C:\Users\a5116938\Desktop\e2_studio_workspace\EEMBC_final\RX65N_Cloud_Kit\src/tensorflow/lite/kernels/internal\types.h ****     if (dimensions_count > kMaxSmallSize) {
 7642                             		.loc 4 227 11
 7643 1378 F9 06 32 04             		mov.L	#4, 200[r0]
 228:C:\Users\a5116938\Desktop\e2_studio_workspace\EEMBC_final\RX65N_Cloud_Kit\src/tensorflow/lite/kernels/internal\types.h **** #ifdef TF_LITE_STATIC_MEMORY
 7644                             		.loc 4 228 5 is_stmt 1
 7645                             	.LVL865:
 7646                             	.LBE2009:
 7647                             	.LBE2010:
 292:C:\Users\a5116938\Desktop\e2_studio_workspace\EEMBC_final\RX65N_Cloud_Kit\src/tensorflow/lite/kernels/internal\types.h ****     for (int i = 0; i < size_increase; ++i) {
 7648                             		.loc 4 292 5
 7649                             	.LBE2021:
 7650                             	.LBE2024:
 7651                             	.LBE2027:
 7652                             	.LBE2030:
 7653                             	.LBE2033:
 7654                             	.LBE2080:
 7655                             	.LBE2090:
 7656                             	.LBE2100:
 7657                             	.LBE2110:
 7658                             	.LBE2170:
 7659                             	.LBE2249:
 7660                             	.LBE2312:
 194:C:\Users\a5116938\Desktop\e2_studio_workspace\EEMBC_final\RX65N_Cloud_Kit\src/tensorflow/lite/kernels/internal\types.h ****   inline int32_t Dims(int i) const {
 7661                             		.loc 4 194 44
 7662                             	.LBB2313:
 7663                             	.LBB2250:
 7664                             	.LBB2171:
 7665                             	.LBB2111:
 7666                             	.LBB2101:
 7667                             	.LBB2091:
 7668                             	.LBB2081:
 7669                             	.LBB2034:
 7670                             	.LBB2031:
 7671                             	.LBB2028:
 7672                             	.LBB2025:
 7673                             	.LBB2022:
 293:C:\Users\a5116938\Desktop\e2_studio_workspace\EEMBC_final\RX65N_Cloud_Kit\src/tensorflow/lite/kernels/internal\types.h ****       SetDim(i, pad_value);
 7674                             		.loc 4 293 5
 7675                             	.LBB2011:
 293:C:\Users\a5116938\Desktop\e2_studio_workspace\EEMBC_final\RX65N_Cloud_Kit\src/tensorflow/lite/kernels/internal\types.h ****       SetDim(i, pad_value);
 7676                             		.loc 4 293 23 is_stmt 0
 7677 137c 20 22                   		beq	.L218
 7678                             	.LVL866:
 7679                             	.LBB2012:
 7680                             	.LBB2013:
 203:C:\Users\a5116938\Desktop\e2_studio_workspace\EEMBC_final\RX65N_Cloud_Kit\src/tensorflow/lite/kernels/internal\types.h ****       dims_pointer_[i] = val;
 7681                             		.loc 4 203 5 is_stmt 1
 206:C:\Users\a5116938\Desktop\e2_studio_workspace\EEMBC_final\RX65N_Cloud_Kit\src/tensorflow/lite/kernels/internal\types.h ****     }
 7682                             		.loc 4 206 7
 206:C:\Users\a5116938\Desktop\e2_studio_workspace\EEMBC_final\RX65N_Cloud_Kit\src/tensorflow/lite/kernels/internal\types.h ****     }
 7683                             		.loc 4 206 16 is_stmt 0
 7684 137e F9 06 33 01             		mov.L	#1, 204[r0]
 7685                             	.LVL867:
 7686                             	.LBE2013:
 7687                             	.LBE2012:
 293:C:\Users\a5116938\Desktop\e2_studio_workspace\EEMBC_final\RX65N_Cloud_Kit\src/tensorflow/lite/kernels/internal\types.h ****       SetDim(i, pad_value);
 7688                             		.loc 4 293 23
 7689 1382 61 11                   		cmp	#1, r1
 7690 1384 20 1A                   		beq	.L218
 294:C:\Users\a5116938\Desktop\e2_studio_workspace\EEMBC_final\RX65N_Cloud_Kit\src/tensorflow/lite/kernels/internal\types.h ****     }
 7691                             		.loc 4 294 7 is_stmt 1
 7692                             	.LVL868:
 7693                             	.LBB2017:
 7694                             	.LBB2014:
 201:C:\Users\a5116938\Desktop\e2_studio_workspace\EEMBC_final\RX65N_Cloud_Kit\src/tensorflow/lite/kernels/internal\types.h ****     TFLITE_DCHECK_LT(i, size_);
 7695                             		.loc 4 201 5
 202:C:\Users\a5116938\Desktop\e2_studio_workspace\EEMBC_final\RX65N_Cloud_Kit\src/tensorflow/lite/kernels/internal\types.h ****     if (size_ > kMaxSmallSize) {
 7696                             		.loc 4 202 5
 203:C:\Users\a5116938\Desktop\e2_studio_workspace\EEMBC_final\RX65N_Cloud_Kit\src/tensorflow/lite/kernels/internal\types.h ****       dims_pointer_[i] = val;
 7697                             		.loc 4 203 5
 206:C:\Users\a5116938\Desktop\e2_studio_workspace\EEMBC_final\RX65N_Cloud_Kit\src/tensorflow/lite/kernels/internal\types.h ****     }
 7698                             		.loc 4 206 7
 206:C:\Users\a5116938\Desktop\e2_studio_workspace\EEMBC_final\RX65N_Cloud_Kit\src/tensorflow/lite/kernels/internal\types.h ****     }
 7699                             		.loc 4 206 16 is_stmt 0
 7700 1386 F9 06 34 01             		mov.L	#1, 208[r0]
 7701                             	.LVL869:
 7702                             	.LBE2014:
 7703                             	.LBE2017:
 293:C:\Users\a5116938\Desktop\e2_studio_workspace\EEMBC_final\RX65N_Cloud_Kit\src/tensorflow/lite/kernels/internal\types.h ****       SetDim(i, pad_value);
 7704                             		.loc 4 293 23
 7705 138a 61 21                   		cmp	#2, r1
 7706 138c 20 12                   		beq	.L218
 294:C:\Users\a5116938\Desktop\e2_studio_workspace\EEMBC_final\RX65N_Cloud_Kit\src/tensorflow/lite/kernels/internal\types.h ****     }
 7707                             		.loc 4 294 7 is_stmt 1
 7708                             	.LVL870:
 7709                             	.LBB2018:
 7710                             	.LBB2015:
 201:C:\Users\a5116938\Desktop\e2_studio_workspace\EEMBC_final\RX65N_Cloud_Kit\src/tensorflow/lite/kernels/internal\types.h ****     TFLITE_DCHECK_LT(i, size_);
 7711                             		.loc 4 201 5
 202:C:\Users\a5116938\Desktop\e2_studio_workspace\EEMBC_final\RX65N_Cloud_Kit\src/tensorflow/lite/kernels/internal\types.h ****     if (size_ > kMaxSmallSize) {
 7712                             		.loc 4 202 5
 203:C:\Users\a5116938\Desktop\e2_studio_workspace\EEMBC_final\RX65N_Cloud_Kit\src/tensorflow/lite/kernels/internal\types.h ****       dims_pointer_[i] = val;
 7713                             		.loc 4 203 5
 206:C:\Users\a5116938\Desktop\e2_studio_workspace\EEMBC_final\RX65N_Cloud_Kit\src/tensorflow/lite/kernels/internal\types.h ****     }
 7714                             		.loc 4 206 7
 206:C:\Users\a5116938\Desktop\e2_studio_workspace\EEMBC_final\RX65N_Cloud_Kit\src/tensorflow/lite/kernels/internal\types.h ****     }
 7715                             		.loc 4 206 16 is_stmt 0
 7716 138e F9 06 35 01             		mov.L	#1, 212[r0]
 7717                             	.LVL871:
 7718                             	.LBE2015:
 7719                             	.LBE2018:
 293:C:\Users\a5116938\Desktop\e2_studio_workspace\EEMBC_final\RX65N_Cloud_Kit\src/tensorflow/lite/kernels/internal\types.h ****       SetDim(i, pad_value);
 7720                             		.loc 4 293 23
 7721 1392 61 31                   		cmp	#3, r1
 7722 1394 12                      		beq	.L218
 294:C:\Users\a5116938\Desktop\e2_studio_workspace\EEMBC_final\RX65N_Cloud_Kit\src/tensorflow/lite/kernels/internal\types.h ****     }
 7723                             		.loc 4 294 7 is_stmt 1
 7724                             	.LVL872:
 7725                             	.LBB2019:
 7726                             	.LBB2016:
 201:C:\Users\a5116938\Desktop\e2_studio_workspace\EEMBC_final\RX65N_Cloud_Kit\src/tensorflow/lite/kernels/internal\types.h ****     TFLITE_DCHECK_LT(i, size_);
 7727                             		.loc 4 201 5
 202:C:\Users\a5116938\Desktop\e2_studio_workspace\EEMBC_final\RX65N_Cloud_Kit\src/tensorflow/lite/kernels/internal\types.h ****     if (size_ > kMaxSmallSize) {
 7728                             		.loc 4 202 5
 203:C:\Users\a5116938\Desktop\e2_studio_workspace\EEMBC_final\RX65N_Cloud_Kit\src/tensorflow/lite/kernels/internal\types.h ****       dims_pointer_[i] = val;
 7729                             		.loc 4 203 5
 206:C:\Users\a5116938\Desktop\e2_studio_workspace\EEMBC_final\RX65N_Cloud_Kit\src/tensorflow/lite/kernels/internal\types.h ****     }
 7730                             		.loc 4 206 7
 206:C:\Users\a5116938\Desktop\e2_studio_workspace\EEMBC_final\RX65N_Cloud_Kit\src/tensorflow/lite/kernels/internal\types.h ****     }
 7731                             		.loc 4 206 16 is_stmt 0
 7732 1395 F9 06 36 01             		mov.L	#1, 216[r0]
 7733                             	.LVL873:
 7734                             	.LBE2016:
 7735                             	.LBE2019:
 293:C:\Users\a5116938\Desktop\e2_studio_workspace\EEMBC_final\RX65N_Cloud_Kit\src/tensorflow/lite/kernels/internal\types.h ****       SetDim(i, pad_value);
 7736                             		.loc 4 293 23
 7737 1399 61 41                   		cmp	#4, r1
 7738 139b 3B D3 05                		bne	.L119
 7739                             	.LVL874:
 7740                             		.balign 8,3,1
 7741                             	.L218:
 7742                             	.LBE2011:
 7743                             	.LBE2022:
 7744                             	.LBE2025:
 7745                             	.LBE2028:
 7746                             	.LBE2031:
 7747                             	.LBE2034:
 7748                             	.LBE2081:
 7749                             	.LBE2091:
 7750                             	.LBE2101:
 7751                             	.LBE2111:
 7752                             	.LBE2171:
 7753                             	.LBE2250:
 7754                             	.LBE2313:
 214:C:\Users\a5116938\Desktop\e2_studio_workspace\EEMBC_final\RX65N_Cloud_Kit\src/tensorflow/lite/kernels/internal\types.h ****   }
 7755                             		.loc 4 214 5 is_stmt 1
 194:C:\Users\a5116938\Desktop\e2_studio_workspace\EEMBC_final\RX65N_Cloud_Kit\src/tensorflow/lite/kernels/internal\types.h ****   inline int32_t Dims(int i) const {
 7756                             		.loc 4 194 44
 7757                             	.LBB2314:
 7758                             	.LBB2251:
 7759                             	.LBB2172:
 7760                             	.LBB2112:
 7761                             	.LBB2102:
 7762                             	.LBB2092:
 7763                             	.LBB2082:
 7764                             	.LBB2035:
 7765                             	.LBB2032:
 7766                             	.LBB2029:
 7767                             	.LBB2026:
 7768                             	.LBB2023:
 7769                             		.loc 4 296 28 is_stmt 0
 7770 139e 6C 21                   		shll	#2, r1
 7771                             	.LVL875:
 7772                             		.loc 4 296 16
 7773 13a0 75 49 CC                		mov.L	#0xcc, r9
 7774 13a3 4B 09                   		add	r0, r9
 7775 13a5 4B 91                   		add	r9, r1
 7776 13a7 72 02 1C 02             		add	#0x21c, r0, r2
 7777 13ab 6C 23                   		shll	#2, r3
 7778                             	.LVL876:
 7779 13ad 7F 8F                   		smovf
 7780                             	.LVL877:
 7781                             	.LBE2023:
 7782                             	.LBE2026:
 7783                             	.LBE2029:
 7784                             	.LBE2032:
 7785                             	.LBE2035:
  46:C:\Users\a5116938\Desktop\e2_studio_workspace\EEMBC_final\RX65N_Cloud_Kit\src/tensorflow/lite/kernels/internal/reference\pad.h ****   TFLITE_DCHECK_LE(op_params.right_padding_count, PadKernelMaxDimensionCount());
 7786                             		.loc 6 46 3
 7787 13af CC 63                   		mov.B	[r6], r3
 7788 13b1 61 43                   		cmp	#4, r3
 7789 13b3 2B 05 38 B9 05          		bgt	.L119
  47:C:\Users\a5116938\Desktop\e2_studio_workspace\EEMBC_final\RX65N_Cloud_Kit\src/tensorflow/lite/kernels/internal/reference\pad.h **** 
 7790                             		.loc 6 47 3
 7791 13b8 8D 65                   		mov.B	20[r6], r5
 7792 13ba 61 45                   		cmp	#4, r5
 7793 13bc 2B 05 38 B0 05          		bgt	.L119
 7794                             	.LVL878:
 7795                             	.LBB2036:
  53:C:\Users\a5116938\Desktop\e2_studio_workspace\EEMBC_final\RX65N_Cloud_Kit\src/tensorflow/lite/kernels/internal/reference\pad.h ****   }
 7796                             		.loc 6 53 5
 7797 13c1 F9 06 CE 00             		mov.L	#0, 824[r0]
 7798                             	.LVL879:
 7799 13c5 F9 06 CF 00             		mov.L	#0, 828[r0]
 7800                             	.LVL880:
 7801 13c9 F9 06 D0 00             		mov.L	#0, 832[r0]
 7802                             	.LVL881:
 7803 13cd F9 06 D1 00             		mov.L	#0, 836[r0]
 7804                             	.LVL882:
 7805                             	.LBE2036:
 7806                             	.LBB2037:
  55:C:\Users\a5116938\Desktop\e2_studio_workspace\EEMBC_final\RX65N_Cloud_Kit\src/tensorflow/lite/kernels/internal/reference\pad.h ****     left_padding_copy[i + PadKernelMaxDimensionCount() -
 7807                             		.loc 6 55 21
 7808 13d1 61 03                   		cmp	#0, r3
 7809 13d3 2B 17                   		ble	.L223
 7810 13d5 66 41                   		mov.L	#4, r1
 7811 13d7 43 31                   		sub	r3, r1
 7812 13d9 71 62 04                		add	#4, r6, r2
 7813 13dc 6C 21                   		shll	#2, r1
 7814 13de 6C 23                   		shll	#2, r3
 7815 13e0 FB FA 38 03             		mov.L	#0x338, r15
 7816 13e4 4B 0F                   		add	r0, r15
 7817 13e6 4B F1                   		add	r15, r1
 7818 13e8 7F 8F                   		smovf
 7819                             		.balign 8,3,4
 7820                             	.L223:
 7821                             	.LVL883:
 7822                             	.LBE2037:
 7823                             	.LBB2038:
  61:C:\Users\a5116938\Desktop\e2_studio_workspace\EEMBC_final\RX65N_Cloud_Kit\src/tensorflow/lite/kernels/internal/reference\pad.h ****   }
 7824                             		.loc 6 61 5
 7825 13ea F9 06 CA 00             		mov.L	#0, 808[r0]
 7826                             	.LVL884:
 7827 13ee F9 06 CB 00             		mov.L	#0, 812[r0]
 7828                             	.LVL885:
 7829 13f2 F9 06 CC 00             		mov.L	#0, 816[r0]
 7830                             	.LVL886:
 7831 13f6 F9 06 CD 00             		mov.L	#0, 820[r0]
 7832                             	.LVL887:
 7833                             	.LBE2038:
 7834                             	.LBB2039:
  63:C:\Users\a5116938\Desktop\e2_studio_workspace\EEMBC_final\RX65N_Cloud_Kit\src/tensorflow/lite/kernels/internal/reference\pad.h ****     right_padding_copy[i + PadKernelMaxDimensionCount() -
 7835                             		.loc 6 63 21
 7836 13fa 61 05                   		cmp	#0, r5
 7837 13fc 2B 18                   		ble	.L224
 7838 13fe 66 41                   		mov.L	#4, r1
 7839 1400 43 51                   		sub	r5, r1
 7840 1402 71 62 18                		add	#24, r6, r2
 7841 1405 6C 21                   		shll	#2, r1
 7842 1407 FD C2 53                		shll	#2, r5, r3
 7843 140a FB 4A 28 03             		mov.L	#0x328, r4
 7844 140e 4B 04                   		add	r0, r4
 7845 1410 4B 41                   		add	r4, r1
 7846 1412 7F 8F                   		smovf
 7847                             		.balign 8,3,1
 7848                             	.L224:
 7849                             	.LVL888:
 7850                             	.LBE2039:
 7851                             	.LBB2040:
 7852                             	.LBB2041:
 196:C:\Users\a5116938\Desktop\e2_studio_workspace\EEMBC_final\RX65N_Cloud_Kit\src/tensorflow/lite/kernels/internal\types.h ****     TFLITE_DCHECK_LT(i, size_);
 7853                             		.loc 4 196 5 is_stmt 1
 197:C:\Users\a5116938\Desktop\e2_studio_workspace\EEMBC_final\RX65N_Cloud_Kit\src/tensorflow/lite/kernels/internal\types.h ****     return size_ > kMaxSmallSize ? dims_pointer_[i] : dims_[i];
 7854                             		.loc 4 197 5
 7855 1414 E5 00 32 EC             		mov.L	200[r0], 944[r0]
 7856 1418 ED 0E EC                		mov.L	944[r0], r14
 7857 141b 61 0E                   		cmp	#0, r14
 7858 141d 2A 05 38 4F 05          		ble	.L119
 198:C:\Users\a5116938\Desktop\e2_studio_workspace\EEMBC_final\RX65N_Cloud_Kit\src/tensorflow/lite/kernels/internal\types.h ****   }
 7859                             		.loc 4 198 5
 7860 1422 E5 00 33 EF             		mov.L	204[r0], 956[r0]
 198:C:\Users\a5116938\Desktop\e2_studio_workspace\EEMBC_final\RX65N_Cloud_Kit\src/tensorflow/lite/kernels/internal\types.h ****   }
 7861                             		.loc 4 198 34 is_stmt 0
 7862 1426 61 5E                   		cmp	#5, r14
 7863 1428 2B 05 38 34 03          		bgt	.L939
 7864                             	.LVL889:
 7865                             	.LBE2041:
 7866                             	.LBE2040:
 7867                             	.LBB2043:
 7868                             	.LBB2044:
 196:C:\Users\a5116938\Desktop\e2_studio_workspace\EEMBC_final\RX65N_Cloud_Kit\src/tensorflow/lite/kernels/internal\types.h ****     TFLITE_DCHECK_LT(i, size_);
 7869                             		.loc 4 196 5 is_stmt 1
 197:C:\Users\a5116938\Desktop\e2_studio_workspace\EEMBC_final\RX65N_Cloud_Kit\src/tensorflow/lite/kernels/internal\types.h ****     return size_ > kMaxSmallSize ? dims_pointer_[i] : dims_[i];
 7870                             		.loc 4 197 5
 7871 142d 61 1E                   		cmp	#1, r14
 7872 142f 3A 3F 05                		beq	.L119
 198:C:\Users\a5116938\Desktop\e2_studio_workspace\EEMBC_final\RX65N_Cloud_Kit\src/tensorflow/lite/kernels/internal\types.h ****   }
 7873                             		.loc 4 198 34 is_stmt 0
 7874 1432 E5 00 34 E2             		mov.L	208[r0], 904[r0]
 7875                             	.LVL890:
 7876                             	.LBE2044:
 7877                             	.LBE2043:
 7878                             	.LBB2046:
 7879                             	.LBB2047:
 196:C:\Users\a5116938\Desktop\e2_studio_workspace\EEMBC_final\RX65N_Cloud_Kit\src/tensorflow/lite/kernels/internal\types.h ****     TFLITE_DCHECK_LT(i, size_);
 7880                             		.loc 4 196 5 is_stmt 1
 197:C:\Users\a5116938\Desktop\e2_studio_workspace\EEMBC_final\RX65N_Cloud_Kit\src/tensorflow/lite/kernels/internal\types.h ****     return size_ > kMaxSmallSize ? dims_pointer_[i] : dims_[i];
 7881                             		.loc 4 197 5
 7882 1436 61 2E                   		cmp	#2, r14
 7883 1438 3A 36 05                		beq	.L119
 198:C:\Users\a5116938\Desktop\e2_studio_workspace\EEMBC_final\RX65N_Cloud_Kit\src/tensorflow/lite/kernels/internal\types.h ****   }
 7884                             		.loc 4 198 34 is_stmt 0
 7885 143b ED 08 35                		mov.L	212[r0], r8
 7886                             	.LVL891:
 7887                             	.LBE2047:
 7888                             	.LBE2046:
 7889                             	.LBB2049:
 7890                             	.LBB2050:
 196:C:\Users\a5116938\Desktop\e2_studio_workspace\EEMBC_final\RX65N_Cloud_Kit\src/tensorflow/lite/kernels/internal\types.h ****     TFLITE_DCHECK_LT(i, size_);
 7891                             		.loc 4 196 5 is_stmt 1
 197:C:\Users\a5116938\Desktop\e2_studio_workspace\EEMBC_final\RX65N_Cloud_Kit\src/tensorflow/lite/kernels/internal\types.h ****     return size_ > kMaxSmallSize ? dims_pointer_[i] : dims_[i];
 7892                             		.loc 4 197 5
 7893 143e 61 3E                   		cmp	#3, r14
 7894 1440 3A 2E 05                		beq	.L119
 198:C:\Users\a5116938\Desktop\e2_studio_workspace\EEMBC_final\RX65N_Cloud_Kit\src/tensorflow/lite/kernels/internal\types.h ****   }
 7895                             		.loc 4 198 34 is_stmt 0
 7896 1443 ED 05 36                		mov.L	216[r0], r5
 7897                             	.LVL892:
 7898                             	.LBE2050:
 7899                             	.LBE2049:
  74:C:\Users\a5116938\Desktop\e2_studio_workspace\EEMBC_final\RX65N_Cloud_Kit\src/tensorflow/lite/kernels/internal/reference\pad.h ****   const int left_h_padding = left_padding_copy[1];
 7900                             		.loc 6 74 13
 7901 1446 E5 00 CE E8             		mov.L	824[r0], 928[r0]
 7902                             	.LVL893:
  75:C:\Users\a5116938\Desktop\e2_studio_workspace\EEMBC_final\RX65N_Cloud_Kit\src/tensorflow/lite/kernels/internal/reference\pad.h ****   const int left_w_padding = left_padding_copy[2];
 7903                             		.loc 6 75 13
 7904 144a E5 00 CF E7             		mov.L	828[r0], 924[r0]
 7905                             	.LVL894:
  76:C:\Users\a5116938\Desktop\e2_studio_workspace\EEMBC_final\RX65N_Cloud_Kit\src/tensorflow/lite/kernels/internal/reference\pad.h ****   const int left_d_padding = left_padding_copy[3];
 7906                             		.loc 6 76 13
 7907 144e E5 00 D0 E6             		mov.L	832[r0], 920[r0]
 7908                             	.LVL895:
  77:C:\Users\a5116938\Desktop\e2_studio_workspace\EEMBC_final\RX65N_Cloud_Kit\src/tensorflow/lite/kernels/internal/reference\pad.h **** 
 7909                             		.loc 6 77 13
 7910 1452 E5 00 D1 EE             		mov.L	836[r0], 952[r0]
 7911                             	.LVL896:
  79:C:\Users\a5116938\Desktop\e2_studio_workspace\EEMBC_final\RX65N_Cloud_Kit\src/tensorflow/lite/kernels/internal/reference\pad.h ****   const int right_h_padding = right_padding_copy[1];
 7912                             		.loc 6 79 13
 7913 1456 E5 00 CA EB             		mov.L	808[r0], 940[r0]
 7914                             	.LVL897:
  80:C:\Users\a5116938\Desktop\e2_studio_workspace\EEMBC_final\RX65N_Cloud_Kit\src/tensorflow/lite/kernels/internal/reference\pad.h ****   const int right_w_padding = right_padding_copy[2];
 7915                             		.loc 6 80 13
 7916 145a E5 00 CB E5             		mov.L	812[r0], 916[r0]
 7917                             	.LVL898:
  81:C:\Users\a5116938\Desktop\e2_studio_workspace\EEMBC_final\RX65N_Cloud_Kit\src/tensorflow/lite/kernels/internal/reference\pad.h ****   const int right_d_padding = right_padding_copy[3];
 7918                             		.loc 6 81 13
 7919 145e E5 00 CC E4             		mov.L	816[r0], 912[r0]
 7920                             	.LVL899:
  82:C:\Users\a5116938\Desktop\e2_studio_workspace\EEMBC_final\RX65N_Cloud_Kit\src/tensorflow/lite/kernels/internal/reference\pad.h **** 
 7921                             		.loc 6 82 13
 7922 1462 ED 03 CD                		mov.L	820[r0], r3
 7923                             	.LVL900:
 7924                             	.LBB2052:
  88:C:\Users\a5116938\Desktop\e2_studio_workspace\EEMBC_final\RX65N_Cloud_Kit\src/tensorflow/lite/kernels/internal/reference\pad.h ****     for (int out_h = 0; out_h < output_height; ++out_h) {
 7925                             		.loc 6 88 29
 7926 1465 E5 00 EF E9             		mov.L	956[r0], 932[r0]
 7927 1469 ED 09 EF                		mov.L	956[r0], r9
 7928 146c 61 09                   		cmp	#0, r9
 7929 146e 2A 05 38 90 01          		ble	.L230
 7930                             	.LVL901:
 7931                             		.balign 8,3,2
 7932                             	.L227:
 7933 1473 ED 0E E2                		mov.L	904[r0], r14
 7934 1476 61 0E                   		cmp	#0, r14
 7935 1478 2A 05 38 71 01          		ble	.L231
 7936 147d 5B A4                   		movu.B	r10, r4
 7937 147f FF 03 35                		sub	r3, r5, r3
 7938                             	.LVL902:
 7939 1482 E7 03 E3                		mov.L	r3, 908[r0]
 7940 1485 FD C8 43                		shll	#8, r4, r3
 7941 1488 FD D0 42                		shll	#16, r4, r2
 7942 148b 57 43                   		or	r4, r3
 7943 148d 6D 84                   		shll	#24, r4
 7944 148f 57 23                   		or	r2, r3
 7945 1491 66 0C                   		mov.L	#0, r12
 7946 1493 57 43                   		or	r4, r3
 7947 1495 E7 03 EA                		mov.L	r3, 936[r0]
 7948                             	.LVL903:
 7949                             		.balign 8,3,2
 7950                             	.L254:
 7951                             	.LBB2053:
 7952                             	.LBB2054:
 7953                             	.LBB2055:
  93:C:\Users\a5116938\Desktop\e2_studio_workspace\EEMBC_final\RX65N_Cloud_Kit\src/tensorflow/lite/kernels/internal/reference\pad.h ****               out_h < left_h_padding ||
 7954                             		.loc 6 93 37
 7955 1498 ED 09 E9                		mov.L	932[r0], r9
 7956 149b ED 0F EB                		mov.L	940[r0], r15
 7957 149e 43 F9                   		sub	r15, r9
 7958                             	.LBE2055:
 7959                             	.LBE2054:
  89:C:\Users\a5116938\Desktop\e2_studio_workspace\EEMBC_final\RX65N_Cloud_Kit\src/tensorflow/lite/kernels/internal/reference\pad.h ****       for (int out_w = 0; out_w < output_width; ++out_w) {
 7960                             		.loc 6 89 14
 7961 14a0 66 06                   		mov.L	#0, r6
 7962                             	.LVL904:
 7963                             		.balign 8,3,1
 7964                             	.L253:
 7965                             	.LBB2060:
  90:C:\Users\a5116938\Desktop\e2_studio_workspace\EEMBC_final\RX65N_Cloud_Kit\src/tensorflow/lite/kernels/internal/reference\pad.h ****         for (int out_d = 0; out_d < output_depth; ++out_d) {
 7966                             		.loc 6 90 33
 7967 14a2 61 08                   		cmp	#0, r8
 7968 14a4 2A 05 38 2F 01          		ble	.L232
 7969                             	.LBB2056:
  95:C:\Users\a5116938\Desktop\e2_studio_workspace\EEMBC_final\RX65N_Cloud_Kit\src/tensorflow/lite/kernels/internal/reference\pad.h ****               out_w < left_w_padding ||
 7970                             		.loc 6 95 38
 7971 14a9 ED 0D E2                		mov.L	904[r0], r13
 7972 14ac ED 04 E5                		mov.L	916[r0], r4
 7973 14af 43 4D                   		sub	r4, r13
 7974                             	.LBE2056:
  90:C:\Users\a5116938\Desktop\e2_studio_workspace\EEMBC_final\RX65N_Cloud_Kit\src/tensorflow/lite/kernels/internal/reference\pad.h ****         for (int out_d = 0; out_d < output_depth; ++out_d) {
 7975                             		.loc 6 90 16
 7976 14b1 66 0B                   		mov.L	#0, r11
 7977                             	.LVL905:
 7978                             		.balign 8,3,1
 7979                             	.L252:
 7980                             	.LBB2057:
  91:C:\Users\a5116938\Desktop\e2_studio_workspace\EEMBC_final\RX65N_Cloud_Kit\src/tensorflow/lite/kernels/internal/reference\pad.h ****           if (out_b < left_b_padding ||
 7981                             		.loc 6 91 35
 7982 14b3 61 05                   		cmp	#0, r5
 7983 14b5 2A 05 38 17 01          		ble	.L233
  97:C:\Users\a5116938\Desktop\e2_studio_workspace\EEMBC_final\RX65N_Cloud_Kit\src/tensorflow/lite/kernels/internal/reference\pad.h ****               out_d < left_d_padding ||
 7984                             		.loc 6 97 37
 7985 14ba ED 0E E4                		mov.L	912[r0], r14
 7986 14bd FF 04 E8                		sub	r14, r8, r4
 7987 14c0 ED 0F E8                		mov.L	928[r0], r15
 7988 14c3 47 CF                   		cmp	r12, r15
 7989 14c5 2B 05 38 3C 03          		bgt	.L234
 7990 14ca 47 4B                   		cmp	r4, r11
 7991 14cc 29 05 38 35 03          		bge	.L234
 7992 14d1 47 C9                   		cmp	r12, r9
 7993 14d3 2A 05 38 2E 03          		ble	.L234
 7994 14d8 47 6D                   		cmp	r6, r13
 7995 14da 2A 05 38 27 03          		ble	.L234
 7996 14df ED 04 E3                		mov.L	908[r0], r4
 7997 14e2 61 04                   		cmp	#0, r4
 7998 14e4 2A 05 38 38 03          		ble	.L461
 7999 14e9 EF 41                   		mov.L	r4, r1
 8000 14eb FC 17 51                		min	r5, r1
 8001 14ee EF 73                   		mov.L	r7, r3
  91:C:\Users\a5116938\Desktop\e2_studio_workspace\EEMBC_final\RX65N_Cloud_Kit\src/tensorflow/lite/kernels/internal/reference\pad.h ****           if (out_b < left_b_padding ||
 8002                             		.loc 6 91 18
 8003 14f0 66 04                   		mov.L	#0, r4
 8004 14f2 2E 24                   		bra	.L240
 8005                             	.LVL906:
 8006                             	.L941:
  95:C:\Users\a5116938\Desktop\e2_studio_workspace\EEMBC_final\RX65N_Cloud_Kit\src/tensorflow/lite/kernels/internal/reference\pad.h ****               out_w < left_w_padding ||
 8007                             		.loc 6 95 56
 8008 14f4 ED 0F E6                		mov.L	920[r0], r15
 8009 14f7 47 FB                   		cmp	r15, r11
 8010 14f9 29 27                   		blt	.L464
  97:C:\Users\a5116938\Desktop\e2_studio_workspace\EEMBC_final\RX65N_Cloud_Kit\src/tensorflow/lite/kernels/internal/reference\pad.h ****               out_d < left_d_padding ||
 8011                             		.loc 6 97 55
 8012 14fb ED 0E EE                		mov.L	952[r0], r14
 8013 14fe 47 4E                   		cmp	r4, r14
 8014 1500 2A 20                   		bgt	.L464
 102:C:\Users\a5116938\Desktop\e2_studio_workspace\EEMBC_final\RX65N_Cloud_Kit\src/tensorflow/lite/kernels/internal/reference\pad.h ****           }
 8015                             		.loc 6 102 13
 8016 1502 ED 0E ED                		mov.L	948[r0], r14
 8017                             	.LVL907:
 8018 1505 FD 28 E2                		mov.B	[r14+], r2
 8019                             	.LVL908:
 8020 1508 E7 0E ED                		mov.L	r14, 948[r0]
 8021                             	.LVL909:
 8022 150b 71 3E FF                		add	#-1, r3, r14
 8023                             	.LVL910:
  91:C:\Users\a5116938\Desktop\e2_studio_workspace\EEMBC_final\RX65N_Cloud_Kit\src/tensorflow/lite/kernels/internal/reference\pad.h ****           if (out_b < left_b_padding ||
 8024                             		.loc 6 91 9
 8025 150e 62 14                   		add	#1, r4
 8026                             	.LVL911:
 8027 1510 C3 E2                   		mov.B	r2, [r14]
 8028                             	.LVL912:
  91:C:\Users\a5116938\Desktop\e2_studio_workspace\EEMBC_final\RX65N_Cloud_Kit\src/tensorflow/lite/kernels/internal/reference\pad.h ****           if (out_b < left_b_padding ||
 8029                             		.loc 6 91 35
 8030 1512 47 14                   		cmp	r1, r4
 8031 1514 28 19                   		bge	.L940
 8032                             	.LVL913:
 8033                             		.balign 8,3,1
 8034                             	.L240:
 8035 1516 62 13                   		add	#1, r3
 8036                             	.LVL914:
  93:C:\Users\a5116938\Desktop\e2_studio_workspace\EEMBC_final\RX65N_Cloud_Kit\src/tensorflow/lite/kernels/internal/reference\pad.h ****               out_h < left_h_padding ||
 8037                             		.loc 6 93 55
 8038 1518 ED 0E E7                		mov.L	924[r0], r14
 8039 151b 47 6E                   		cmp	r6, r14
 8040 151d 2B D7                   		ble	.L941
 8041 151f 03                      		.balign 8,3,1
 8042                             	.L464:
 100:C:\Users\a5116938\Desktop\e2_studio_workspace\EEMBC_final\RX65N_Cloud_Kit\src/tensorflow/lite/kernels/internal/reference\pad.h ****           } else {
 8043                             		.loc 6 100 13
 8044 1520 CF A2                   		mov.B	r10, r2
 8045 1522 71 3E FF                		add	#-1, r3, r14
  91:C:\Users\a5116938\Desktop\e2_studio_workspace\EEMBC_final\RX65N_Cloud_Kit\src/tensorflow/lite/kernels/internal/reference\pad.h ****           if (out_b < left_b_padding ||
 8046                             		.loc 6 91 9
 8047 1525 62 14                   		add	#1, r4
 8048                             	.LVL915:
 8049 1527 C3 E2                   		mov.B	r2, [r14]
 8050                             	.LVL916:
  91:C:\Users\a5116938\Desktop\e2_studio_workspace\EEMBC_final\RX65N_Cloud_Kit\src/tensorflow/lite/kernels/internal/reference\pad.h ****           if (out_b < left_b_padding ||
 8051                             		.loc 6 91 35
 8052 1529 47 14                   		cmp	r1, r4
 8053 152b 29 EB                   		blt	.L240
 8054                             	.LVL917:
 8055                             		.balign 8,3,1
 8056                             	.L940:
 8057 152d 47 54                   		cmp	r5, r4
 8058 152f 29 05 38 9B 00          		bge	.L901
 8059                             	.LVL918:
 8060                             		.balign 8,3,2
 8061                             	.L238:
 8062 1534 71 5E FF                		add	#-1, r5, r14
 8063 1537 FF 01 45                		sub	r4, r5, r1
 8064 153a FC 07 32                		neg	r3, r2
 8065 153d 43 4E                   		sub	r4, r14
 8066 153f 47 45                   		cmp	r4, r5
 8067 1541 2A 04                   		bgt 1f
 8068 1543 66 11                   		mov #1, r1
 8069                             	1:
 8070 1545 64 32                   		and #3, r2
 8071 1547 61 5E                   		cmp	#5, r14
 8072 1549 25 50                   		bleu	.L242
 8073 154b 47 45                   		cmp	r4, r5
 8074 154d 2B 4C                   		ble	.L242
 8075 154f EF 3E                   		mov.L	r3, r14
 8076 1551 61 02                   		cmp	#0, r2
 8077 1553 3A 16 04                		beq	.L465
 8078                             	.LVL919:
  91:C:\Users\a5116938\Desktop\e2_studio_workspace\EEMBC_final\RX65N_Cloud_Kit\src/tensorflow/lite/kernels/internal/reference\pad.h ****           if (out_b < left_b_padding ||
 8079                             		.loc 6 91 9
 8080 1556 71 4F 01                		add	#1, r4, r15
 8081 1559 FD 20 EA                		mov.B	r10, [r14+]
 8082                             	.LVL920:
 8083 155c 61 12                   		cmp	#1, r2
 8084 155e 20 17                   		beq	.L243
 8085                             	.LVL921:
 8086 1560 71 3E 02                		add	#2, r3, r14
 8087                             	.LVL922:
 8088 1563 C7 3A 01                		mov.B	r10, 1[r3]
 8089                             	.LVL923:
 8090 1566 71 4F 02                		add	#2, r4, r15
 8091                             	.LVL924:
 8092 1569 61 22                   		cmp	#2, r2
 8093 156b 12                      		beq	.L243
 8094                             	.LVL925:
 8095 156c 71 3E 03                		add	#3, r3, r14
 8096                             	.LVL926:
 8097 156f C7 3A 02                		mov.B	r10, 2[r3]
 8098                             	.LVL927:
 8099 1572 71 4F 03                		add	#3, r4, r15
 8100                             	.LVL928:
 8101                             		.balign 8,3,1
 8102                             	.L243:
 8103 1575 43 21                   		sub	r2, r1
 8104 1577 4B 23                   		add	r2, r3
 8105 1579 FB 46 FC                		mov.L	#-4, r4
 8106 157c 53 14                   		and	r1, r4
 8107 157e 4B 34                   		add	r3, r4
 8108                             		.balign 8,3,2
 8109                             	.L246:
 8110                             	.LVL929:
 8111 1580 ED 02 EA                		mov.L	936[r0], r2
 8112 1583 FD 22 32                		mov.L	r2, [r3+]
 8113 1586 47 34                   		cmp	r3, r4
 8114 1588 21 F8                   		bne	.L246
 8115 158a FB 26 FC                		mov.L	#-4, r2
 8116 158d 53 12                   		and	r1, r2
 8117 158f FF 24 F2                		add	r15, r2, r4
 8118 1592 FF 23 2E                		add	r2, r14, r3
 8119 1595 47 12                   		cmp	r1, r2
 8120 1597 20 35                   		beq	.L901
 8121                             	.LVL930:
 8122                             		.balign 8,3,1
 8123                             	.L242:
 8124 1599 C3 3A                   		mov.B	r10, [r3]
 8125                             	.LVL931:
 8126 159b 71 42 01                		add	#1, r4, r2
 8127                             	.LVL932:
  91:C:\Users\a5116938\Desktop\e2_studio_workspace\EEMBC_final\RX65N_Cloud_Kit\src/tensorflow/lite/kernels/internal/reference\pad.h ****           if (out_b < left_b_padding ||
 8128                             		.loc 6 91 35
 8129 159e 47 52                   		cmp	r5, r2
 8130 15a0 28 2C                   		bge	.L901
  91:C:\Users\a5116938\Desktop\e2_studio_workspace\EEMBC_final\RX65N_Cloud_Kit\src/tensorflow/lite/kernels/internal/reference\pad.h ****           if (out_b < left_b_padding ||
 8131                             		.loc 6 91 9
 8132 15a2 71 42 02                		add	#2, r4, r2
 8133                             	.LVL933:
 8134 15a5 C7 3A 01                		mov.B	r10, 1[r3]
 8135                             	.LVL934:
  91:C:\Users\a5116938\Desktop\e2_studio_workspace\EEMBC_final\RX65N_Cloud_Kit\src/tensorflow/lite/kernels/internal/reference\pad.h ****           if (out_b < left_b_padding ||
 8136                             		.loc 6 91 35
 8137 15a8 47 52                   		cmp	r5, r2
 8138 15aa 28 22                   		bge	.L901
  91:C:\Users\a5116938\Desktop\e2_studio_workspace\EEMBC_final\RX65N_Cloud_Kit\src/tensorflow/lite/kernels/internal/reference\pad.h ****           if (out_b < left_b_padding ||
 8139                             		.loc 6 91 9
 8140 15ac 71 42 03                		add	#3, r4, r2
 8141                             	.LVL935:
 8142 15af C7 3A 02                		mov.B	r10, 2[r3]
 8143                             	.LVL936:
  91:C:\Users\a5116938\Desktop\e2_studio_workspace\EEMBC_final\RX65N_Cloud_Kit\src/tensorflow/lite/kernels/internal/reference\pad.h ****           if (out_b < left_b_padding ||
 8144                             		.loc 6 91 35
 8145 15b2 47 25                   		cmp	r2, r5
 8146 15b4 2B 18                   		ble	.L901
  91:C:\Users\a5116938\Desktop\e2_studio_workspace\EEMBC_final\RX65N_Cloud_Kit\src/tensorflow/lite/kernels/internal/reference\pad.h ****           if (out_b < left_b_padding ||
 8147                             		.loc 6 91 9
 8148 15b6 71 42 04                		add	#4, r4, r2
 8149                             	.LVL937:
 8150 15b9 C7 3A 03                		mov.B	r10, 3[r3]
 8151                             	.LVL938:
  91:C:\Users\a5116938\Desktop\e2_studio_workspace\EEMBC_final\RX65N_Cloud_Kit\src/tensorflow/lite/kernels/internal/reference\pad.h ****           if (out_b < left_b_padding ||
 8152                             		.loc 6 91 35
 8153 15bc 47 52                   		cmp	r5, r2
 8154 15be 28 0E                   		bge	.L901
  91:C:\Users\a5116938\Desktop\e2_studio_workspace\EEMBC_final\RX65N_Cloud_Kit\src/tensorflow/lite/kernels/internal/reference\pad.h ****           if (out_b < left_b_padding ||
 8155                             		.loc 6 91 9
 8156 15c0 62 54                   		add	#5, r4
 8157 15c2 C7 3A 04                		mov.B	r10, 4[r3]
 8158                             	.LVL939:
  91:C:\Users\a5116938\Desktop\e2_studio_workspace\EEMBC_final\RX65N_Cloud_Kit\src/tensorflow/lite/kernels/internal/reference\pad.h ****           if (out_b < left_b_padding ||
 8159                             		.loc 6 91 35
 8160 15c5 47 45                   		cmp	r4, r5
 8161 15c7 2B 05                   		ble	.L901
 8162 15c9 C7 3A 05                		mov.B	r10, 5[r3]
 8163                             	.LVL940:
 8164                             		.balign 8,3,1
 8165                             	.L901:
 8166 15cc 4B 57                   		add	r5, r7
 8167                             		.balign 8,3,1
 8168                             	.L233:
 8169                             	.LBE2057:
  90:C:\Users\a5116938\Desktop\e2_studio_workspace\EEMBC_final\RX65N_Cloud_Kit\src/tensorflow/lite/kernels/internal/reference\pad.h ****         for (int out_d = 0; out_d < output_depth; ++out_d) {
 8170                             		.loc 6 90 7
 8171 15ce 62 1B                   		add	#1, r11
 8172                             	.LVL941:
  90:C:\Users\a5116938\Desktop\e2_studio_workspace\EEMBC_final\RX65N_Cloud_Kit\src/tensorflow/lite/kernels/internal/reference\pad.h ****         for (int out_d = 0; out_d < output_depth; ++out_d) {
 8173                             		.loc 6 90 33
 8174 15d0 47 8B                   		cmp	r8, r11
 8175 15d2 3B E1 FE                		bne	.L252
 8176                             	.LVL942:
 8177                             		.balign 8,3,1
 8178                             	.L232:
 8179                             	.LBE2060:
  89:C:\Users\a5116938\Desktop\e2_studio_workspace\EEMBC_final\RX65N_Cloud_Kit\src/tensorflow/lite/kernels/internal/reference\pad.h ****       for (int out_w = 0; out_w < output_width; ++out_w) {
 8180                             		.loc 6 89 5
 8181 15d5 62 16                   		add	#1, r6
 8182                             	.LVL943:
  89:C:\Users\a5116938\Desktop\e2_studio_workspace\EEMBC_final\RX65N_Cloud_Kit\src/tensorflow/lite/kernels/internal/reference\pad.h ****       for (int out_w = 0; out_w < output_width; ++out_w) {
 8183                             		.loc 6 89 31
 8184 15d7 ED 04 E2                		mov.L	904[r0], r4
 8185 15da 47 46                   		cmp	r4, r6
 8186 15dc 3B C6 FE                		bne	.L253
 8187                             	.LBE2053:
  88:C:\Users\a5116938\Desktop\e2_studio_workspace\EEMBC_final\RX65N_Cloud_Kit\src/tensorflow/lite/kernels/internal/reference\pad.h ****     for (int out_h = 0; out_h < output_height; ++out_h) {
 8188                             		.loc 6 88 3
 8189 15df 62 1C                   		add	#1, r12
 8190                             	.LVL944:
  88:C:\Users\a5116938\Desktop\e2_studio_workspace\EEMBC_final\RX65N_Cloud_Kit\src/tensorflow/lite/kernels/internal/reference\pad.h ****     for (int out_h = 0; out_h < output_height; ++out_h) {
 8191                             		.loc 6 88 29
 8192 15e1 ED 09 E9                		mov.L	932[r0], r9
 8193 15e4 47 9C                   		cmp	r9, r12
 8194 15e6 28 05 38 B0 FE          		blt	.L254
 8195                             	.LVL945:
 8196                             		.balign 8,3,2
 8197                             	.L231:
 8198                             	.LBE2052:
 8199                             	.LBB2065:
 8200                             	.LBB2066:
 185:C:\Users\a5116938\Desktop\e2_studio_workspace\EEMBC_final\RX65N_Cloud_Kit\src/tensorflow/lite/kernels/internal\types.h **** #ifdef TF_LITE_STATIC_MEMORY
 8201                             		.loc 4 185 5 is_stmt 1
 8202 15eb ED 0E EC                		mov.L	944[r0], r14
 8203 15ee 61 5E                   		cmp	#5, r14
 8204 15f0 2B 10                   		ble	.L230
 189:C:\Users\a5116938\Desktop\e2_studio_workspace\EEMBC_final\RX65N_Cloud_Kit\src/tensorflow/lite/kernels/internal\types.h **** #endif  // TF_LITE_STATIC_MEMORY
 8205                             		.loc 4 189 7
 189:C:\Users\a5116938\Desktop\e2_studio_workspace\EEMBC_final\RX65N_Cloud_Kit\src/tensorflow/lite/kernels/internal\types.h **** #endif  // TF_LITE_STATIC_MEMORY
 8206                             		.loc 4 189 29 is_stmt 0
 8207 15f2 ED 0F EF                		mov.L	956[r0], r15
 8208 15f5 61 0F                   		cmp	#0, r15
 8209 15f7 11                      		beq	.L230
 8210 15f8 EF F1                   		mov.L	r15, r1
 8211                             	.LVL946:
 8212                             		.balign 8,3,3
 8213                             	.L228:
 189:C:\Users\a5116938\Desktop\e2_studio_workspace\EEMBC_final\RX65N_Cloud_Kit\src/tensorflow/lite/kernels/internal\types.h **** #endif  // TF_LITE_STATIC_MEMORY
 8214                             		.loc 4 189 16
 8215 15fa 05 00 00 00             		bsr	__ZdaPv
 8216                             	.LVL947:
 8217 15fe EF 00                   		.balign 8,3,2
 8218                             	.L230:
 8219                             	.LBE2066:
 8220                             	.LBE2065:
 8221                             	.LBB2067:
 8222                             	.LBB2068:
 185:C:\Users\a5116938\Desktop\e2_studio_workspace\EEMBC_final\RX65N_Cloud_Kit\src/tensorflow/lite/kernels/internal\types.h **** #ifdef TF_LITE_STATIC_MEMORY
 8223                             		.loc 4 185 5 is_stmt 1
 8224 1600 ED 07 38                		mov.L	224[r0], r7
 8225                             	.LVL948:
 8226 1603 61 57                   		cmp	#5, r7
 8227 1605 2B 0C                   		ble	.L256
 189:C:\Users\a5116938\Desktop\e2_studio_workspace\EEMBC_final\RX65N_Cloud_Kit\src/tensorflow/lite/kernels/internal\types.h **** #endif  // TF_LITE_STATIC_MEMORY
 8228                             		.loc 4 189 7
 189:C:\Users\a5116938\Desktop\e2_studio_workspace\EEMBC_final\RX65N_Cloud_Kit\src/tensorflow/lite/kernels/internal\types.h **** #endif  // TF_LITE_STATIC_MEMORY
 8229                             		.loc 4 189 16 is_stmt 0
 8230 1607 ED 01 39                		mov.L	228[r0], r1
 189:C:\Users\a5116938\Desktop\e2_studio_workspace\EEMBC_final\RX65N_Cloud_Kit\src/tensorflow/lite/kernels/internal\types.h **** #endif  // TF_LITE_STATIC_MEMORY
 8231                             		.loc 4 189 29
 8232 160a 61 01                   		cmp	#0, r1
 8233 160c 15                      		beq	.L256
 189:C:\Users\a5116938\Desktop\e2_studio_workspace\EEMBC_final\RX65N_Cloud_Kit\src/tensorflow/lite/kernels/internal\types.h **** #endif  // TF_LITE_STATIC_MEMORY
 8234                             		.loc 4 189 16
 8235 160d 05 00 00 00             		bsr	__ZdaPv
 8236                             	.LVL949:
 8237                             		.balign 8,3,2
 8238                             	.L256:
 8239                             	.LBE2068:
 8240                             	.LBE2067:
 8241                             	.LBE2082:
 8242                             	.LBE2092:
 8243                             	.LBE2102:
 8244                             	.LBE2112:
 8245                             	.LBB2113:
 8246                             	.LBB2114:
 185:C:\Users\a5116938\Desktop\e2_studio_workspace\EEMBC_final\RX65N_Cloud_Kit\src/tensorflow/lite/kernels/internal\types.h **** #ifdef TF_LITE_STATIC_MEMORY
 8247                             		.loc 4 185 5 is_stmt 1
 8248 1611 ED 07 86                		mov.L	536[r0], r7
 8249 1614 61 57                   		cmp	#5, r7
 8250 1616 2B 0C                   		ble	.L257
 189:C:\Users\a5116938\Desktop\e2_studio_workspace\EEMBC_final\RX65N_Cloud_Kit\src/tensorflow/lite/kernels/internal\types.h **** #endif  // TF_LITE_STATIC_MEMORY
 8251                             		.loc 4 189 7
 189:C:\Users\a5116938\Desktop\e2_studio_workspace\EEMBC_final\RX65N_Cloud_Kit\src/tensorflow/lite/kernels/internal\types.h **** #endif  // TF_LITE_STATIC_MEMORY
 8252                             		.loc 4 189 16 is_stmt 0
 8253 1618 ED 01 87                		mov.L	540[r0], r1
 189:C:\Users\a5116938\Desktop\e2_studio_workspace\EEMBC_final\RX65N_Cloud_Kit\src/tensorflow/lite/kernels/internal\types.h **** #endif  // TF_LITE_STATIC_MEMORY
 8254                             		.loc 4 189 29
 8255 161b 61 01                   		cmp	#0, r1
 8256 161d 15                      		beq	.L257
 189:C:\Users\a5116938\Desktop\e2_studio_workspace\EEMBC_final\RX65N_Cloud_Kit\src/tensorflow/lite/kernels/internal\types.h **** #endif  // TF_LITE_STATIC_MEMORY
 8257                             		.loc 4 189 16
 8258 161e 05 00 00 00             		bsr	__ZdaPv
 8259                             	.LVL950:
 8260                             		.balign 8,3,2
 8261                             	.L257:
 8262                             	.LBE2114:
 8263                             	.LBE2113:
 8264                             	.LBB2115:
 8265                             	.LBB2116:
 185:C:\Users\a5116938\Desktop\e2_studio_workspace\EEMBC_final\RX65N_Cloud_Kit\src/tensorflow/lite/kernels/internal\types.h **** #ifdef TF_LITE_STATIC_MEMORY
 8266                             		.loc 4 185 5 is_stmt 1
 8267 1622 ED 07 8C                		mov.L	560[r0], r7
 8268 1625 61 57                   		cmp	#5, r7
 8269 1627 2A 05 38 B1 EC          		ble	.L435
 189:C:\Users\a5116938\Desktop\e2_studio_workspace\EEMBC_final\RX65N_Cloud_Kit\src/tensorflow/lite/kernels/internal\types.h **** #endif  // TF_LITE_STATIC_MEMORY
 8270                             		.loc 4 189 7
 189:C:\Users\a5116938\Desktop\e2_studio_workspace\EEMBC_final\RX65N_Cloud_Kit\src/tensorflow/lite/kernels/internal\types.h **** #endif  // TF_LITE_STATIC_MEMORY
 8271                             		.loc 4 189 16 is_stmt 0
 8272 162c ED 01 8D                		mov.L	564[r0], r1
 189:C:\Users\a5116938\Desktop\e2_studio_workspace\EEMBC_final\RX65N_Cloud_Kit\src/tensorflow/lite/kernels/internal\types.h **** #endif  // TF_LITE_STATIC_MEMORY
 8273                             		.loc 4 189 29
 8274 162f 61 01                   		cmp	#0, r1
 8275 1631 3A A9 EC                		beq	.L435
 8276                             	.LBE2116:
 8277                             	.LBE2115:
 8278                             	.LBE2172:
 8279                             	.LBB2173:
 8280                             	.LBB1500:
 8281                             	.LBB1358:
 189:C:\Users\a5116938\Desktop\e2_studio_workspace\EEMBC_final\RX65N_Cloud_Kit\src/tensorflow/lite/kernels/internal\types.h **** #endif  // TF_LITE_STATIC_MEMORY
 8282                             		.loc 4 189 16
 8283 1634 05 00 00 00             		bsr	__ZdaPv
 8284                             	.LVL951:
 8285 1638 38 A2 EC                		bra	.L435
 8286                             	.LVL952:
 8287                             	.L269:
 8288                             	.LBE1358:
 8289                             	.LBE1500:
 8290                             	.LBE2173:
 8291                             	.LBB2174:
 8292                             	.LBB2117:
 8293                             	.LBB1948:
 8294                             	.LBB1938:
 8295                             	.LBB1925:
 8296                             	.LBB1902:
 196:C:\Users\a5116938\Desktop\e2_studio_workspace\EEMBC_final\RX65N_Cloud_Kit\src/tensorflow/lite/kernels/internal\types.h ****     TFLITE_DCHECK_LT(i, size_);
 8297                             		.loc 4 196 5 is_stmt 1
 197:C:\Users\a5116938\Desktop\e2_studio_workspace\EEMBC_final\RX65N_Cloud_Kit\src/tensorflow/lite/kernels/internal\types.h ****     return size_ > kMaxSmallSize ? dims_pointer_[i] : dims_[i];
 8298                             		.loc 4 197 5
 8299 163b 61 14                   		cmp	#1, r4
 8300 163d 3A 31 03                		beq	.L119
 198:C:\Users\a5116938\Desktop\e2_studio_workspace\EEMBC_final\RX65N_Cloud_Kit\src/tensorflow/lite/kernels/internal\types.h ****   }
 8301                             		.loc 4 198 34 is_stmt 0
 8302 1640 E5 00 28 E2             		mov.L	160[r0], 904[r0]
 8303                             	.LVL953:
 8304                             	.LBE1902:
 8305                             	.LBE1925:
 8306                             	.LBB1926:
 8307                             	.LBB1905:
 196:C:\Users\a5116938\Desktop\e2_studio_workspace\EEMBC_final\RX65N_Cloud_Kit\src/tensorflow/lite/kernels/internal\types.h ****     TFLITE_DCHECK_LT(i, size_);
 8308                             		.loc 4 196 5 is_stmt 1
 197:C:\Users\a5116938\Desktop\e2_studio_workspace\EEMBC_final\RX65N_Cloud_Kit\src/tensorflow/lite/kernels/internal\types.h ****     return size_ > kMaxSmallSize ? dims_pointer_[i] : dims_[i];
 8309                             		.loc 4 197 5
 8310 1644 61 24                   		cmp	#2, r4
 8311 1646 3A 28 03                		beq	.L119
 198:C:\Users\a5116938\Desktop\e2_studio_workspace\EEMBC_final\RX65N_Cloud_Kit\src/tensorflow/lite/kernels/internal\types.h ****   }
 8312                             		.loc 4 198 34 is_stmt 0
 8313 1649 ED 08 29                		mov.L	164[r0], r8
 8314                             	.LVL954:
 8315                             	.LBE1905:
 8316                             	.LBE1926:
 8317                             	.LBB1927:
 8318                             	.LBB1908:
 196:C:\Users\a5116938\Desktop\e2_studio_workspace\EEMBC_final\RX65N_Cloud_Kit\src/tensorflow/lite/kernels/internal\types.h ****     TFLITE_DCHECK_LT(i, size_);
 8319                             		.loc 4 196 5 is_stmt 1
 197:C:\Users\a5116938\Desktop\e2_studio_workspace\EEMBC_final\RX65N_Cloud_Kit\src/tensorflow/lite/kernels/internal\types.h ****     return size_ > kMaxSmallSize ? dims_pointer_[i] : dims_[i];
 8320                             		.loc 4 197 5
 8321 164c 61 34                   		cmp	#3, r4
 8322 164e 3A 20 03                		beq	.L119
 198:C:\Users\a5116938\Desktop\e2_studio_workspace\EEMBC_final\RX65N_Cloud_Kit\src/tensorflow/lite/kernels/internal\types.h ****   }
 8323                             		.loc 4 198 34 is_stmt 0
 8324 1651 ED 05 2A                		mov.L	168[r0], r5
 8325                             	.LVL955:
 8326                             	.LBE1908:
 8327                             	.LBE1927:
  74:C:\Users\a5116938\Desktop\e2_studio_workspace\EEMBC_final\RX65N_Cloud_Kit\src/tensorflow/lite/kernels/internal/reference\pad.h ****   const int left_h_padding = left_padding_copy[1];
 8328                             		.loc 6 74 13
 8329 1654 E5 00 C6 E9             		mov.L	792[r0], 932[r0]
 8330                             	.LVL956:
  75:C:\Users\a5116938\Desktop\e2_studio_workspace\EEMBC_final\RX65N_Cloud_Kit\src/tensorflow/lite/kernels/internal/reference\pad.h ****   const int left_w_padding = left_padding_copy[2];
 8331                             		.loc 6 75 13
 8332 1658 E5 00 C7 E8             		mov.L	796[r0], 928[r0]
 8333                             	.LVL957:
  76:C:\Users\a5116938\Desktop\e2_studio_workspace\EEMBC_final\RX65N_Cloud_Kit\src/tensorflow/lite/kernels/internal/reference\pad.h ****   const int left_d_padding = left_padding_copy[3];
 8334                             		.loc 6 76 13
 8335 165c E5 00 C8 E7             		mov.L	800[r0], 924[r0]
 8336                             	.LVL958:
  77:C:\Users\a5116938\Desktop\e2_studio_workspace\EEMBC_final\RX65N_Cloud_Kit\src/tensorflow/lite/kernels/internal/reference\pad.h **** 
 8337                             		.loc 6 77 13
 8338 1660 E5 00 C9 EE             		mov.L	804[r0], 952[r0]
 8339                             	.LVL959:
  79:C:\Users\a5116938\Desktop\e2_studio_workspace\EEMBC_final\RX65N_Cloud_Kit\src/tensorflow/lite/kernels/internal/reference\pad.h ****   const int right_h_padding = right_padding_copy[1];
 8340                             		.loc 6 79 13
 8341 1664 E5 00 C2 EB             		mov.L	776[r0], 940[r0]
 8342                             	.LVL960:
  80:C:\Users\a5116938\Desktop\e2_studio_workspace\EEMBC_final\RX65N_Cloud_Kit\src/tensorflow/lite/kernels/internal/reference\pad.h ****   const int right_w_padding = right_padding_copy[2];
 8343                             		.loc 6 80 13
 8344 1668 E5 00 C3 E6             		mov.L	780[r0], 920[r0]
 8345                             	.LVL961:
  81:C:\Users\a5116938\Desktop\e2_studio_workspace\EEMBC_final\RX65N_Cloud_Kit\src/tensorflow/lite/kernels/internal/reference\pad.h ****   const int right_d_padding = right_padding_copy[3];
 8346                             		.loc 6 81 13
 8347 166c E5 00 C4 E5             		mov.L	784[r0], 916[r0]
 8348                             	.LVL962:
  82:C:\Users\a5116938\Desktop\e2_studio_workspace\EEMBC_final\RX65N_Cloud_Kit\src/tensorflow/lite/kernels/internal/reference\pad.h **** 
 8349                             		.loc 6 82 13
 8350 1670 ED 03 C5                		mov.L	788[r0], r3
 8351                             	.LVL963:
 8352                             	.LBB1928:
  88:C:\Users\a5116938\Desktop\e2_studio_workspace\EEMBC_final\RX65N_Cloud_Kit\src/tensorflow/lite/kernels/internal/reference\pad.h ****     for (int out_h = 0; out_h < output_height; ++out_h) {
 8353                             		.loc 6 88 29
 8354 1673 E5 00 EF E4             		mov.L	956[r0], 912[r0]
 8355 1677 ED 04 EF                		mov.L	956[r0], r4
 8356 167a 61 04                   		cmp	#0, r4
 8357 167c 2B 05 38 DA F0          		bgt	.L271
 8358 1681 38 C7 F1                		bra	.L274
 8359                             	.LVL964:
 8360                             	.L360:
 8361                             	.LBE1928:
 8362                             	.LBE1938:
 8363                             	.LBE1948:
 8364                             	.LBE2117:
 8365                             	.LBE2174:
 8366                             	.LBB2175:
 8367                             	.LBB1337:
 8368                             	.LBB1168:
 8369                             	.LBB1158:
 8370                             	.LBB1145:
 8371                             	.LBB1122:
 196:C:\Users\a5116938\Desktop\e2_studio_workspace\EEMBC_final\RX65N_Cloud_Kit\src/tensorflow/lite/kernels/internal\types.h ****     TFLITE_DCHECK_LT(i, size_);
 8372                             		.loc 4 196 5 is_stmt 1
 197:C:\Users\a5116938\Desktop\e2_studio_workspace\EEMBC_final\RX65N_Cloud_Kit\src/tensorflow/lite/kernels/internal\types.h ****     return size_ > kMaxSmallSize ? dims_pointer_[i] : dims_[i];
 8373                             		.loc 4 197 5
 8374 1684 61 14                   		cmp	#1, r4
 8375 1686 3A E8 02                		beq	.L119
 198:C:\Users\a5116938\Desktop\e2_studio_workspace\EEMBC_final\RX65N_Cloud_Kit\src/tensorflow/lite/kernels/internal\types.h ****   }
 8376                             		.loc 4 198 34 is_stmt 0
 8377 1689 E5 00 10 E2             		mov.L	64[r0], 904[r0]
 8378                             	.LVL965:
 8379                             	.LBE1122:
 8380                             	.LBE1145:
 8381                             	.LBB1146:
 8382                             	.LBB1125:
 196:C:\Users\a5116938\Desktop\e2_studio_workspace\EEMBC_final\RX65N_Cloud_Kit\src/tensorflow/lite/kernels/internal\types.h ****     TFLITE_DCHECK_LT(i, size_);
 8383                             		.loc 4 196 5 is_stmt 1
 197:C:\Users\a5116938\Desktop\e2_studio_workspace\EEMBC_final\RX65N_Cloud_Kit\src/tensorflow/lite/kernels/internal\types.h ****     return size_ > kMaxSmallSize ? dims_pointer_[i] : dims_[i];
 8384                             		.loc 4 197 5
 8385 168d 61 24                   		cmp	#2, r4
 8386 168f 3A DF 02                		beq	.L119
 198:C:\Users\a5116938\Desktop\e2_studio_workspace\EEMBC_final\RX65N_Cloud_Kit\src/tensorflow/lite/kernels/internal\types.h ****   }
 8387                             		.loc 4 198 34 is_stmt 0
 8388 1692 ED 08 11                		mov.L	68[r0], r8
 8389                             	.LVL966:
 8390                             	.LBE1125:
 8391                             	.LBE1146:
 8392                             	.LBB1147:
 8393                             	.LBB1128:
 196:C:\Users\a5116938\Desktop\e2_studio_workspace\EEMBC_final\RX65N_Cloud_Kit\src/tensorflow/lite/kernels/internal\types.h ****     TFLITE_DCHECK_LT(i, size_);
 8394                             		.loc 4 196 5 is_stmt 1
 197:C:\Users\a5116938\Desktop\e2_studio_workspace\EEMBC_final\RX65N_Cloud_Kit\src/tensorflow/lite/kernels/internal\types.h ****     return size_ > kMaxSmallSize ? dims_pointer_[i] : dims_[i];
 8395                             		.loc 4 197 5
 8396 1695 61 34                   		cmp	#3, r4
 8397 1697 3A D7 02                		beq	.L119
 198:C:\Users\a5116938\Desktop\e2_studio_workspace\EEMBC_final\RX65N_Cloud_Kit\src/tensorflow/lite/kernels/internal\types.h ****   }
 8398                             		.loc 4 198 34 is_stmt 0
 8399 169a AC 85                   		mov.L	72[r0], r5
 8400                             	.LVL967:
 8401                             	.LBE1128:
 8402                             	.LBE1147:
  74:C:\Users\a5116938\Desktop\e2_studio_workspace\EEMBC_final\RX65N_Cloud_Kit\src/tensorflow/lite/kernels/internal/reference\pad.h ****   const int left_h_padding = left_padding_copy[1];
 8403                             		.loc 6 74 13
 8404 169c E5 00 B6 E7             		mov.L	728[r0], 924[r0]
 8405                             	.LVL968:
  75:C:\Users\a5116938\Desktop\e2_studio_workspace\EEMBC_final\RX65N_Cloud_Kit\src/tensorflow/lite/kernels/internal/reference\pad.h ****   const int left_w_padding = left_padding_copy[2];
 8406                             		.loc 6 75 13
 8407 16a0 E5 00 B7 E6             		mov.L	732[r0], 920[r0]
 8408                             	.LVL969:
  76:C:\Users\a5116938\Desktop\e2_studio_workspace\EEMBC_final\RX65N_Cloud_Kit\src/tensorflow/lite/kernels/internal/reference\pad.h ****   const int left_d_padding = left_padding_copy[3];
 8409                             		.loc 6 76 13
 8410 16a4 E5 00 B8 E8             		mov.L	736[r0], 928[r0]
 8411                             	.LVL970:
  77:C:\Users\a5116938\Desktop\e2_studio_workspace\EEMBC_final\RX65N_Cloud_Kit\src/tensorflow/lite/kernels/internal/reference\pad.h **** 
 8412                             		.loc 6 77 13
 8413 16a8 E5 00 B9 EE             		mov.L	740[r0], 952[r0]
 8414                             	.LVL971:
  79:C:\Users\a5116938\Desktop\e2_studio_workspace\EEMBC_final\RX65N_Cloud_Kit\src/tensorflow/lite/kernels/internal/reference\pad.h ****   const int right_h_padding = right_padding_copy[1];
 8415                             		.loc 6 79 13
 8416 16ac E5 00 B2 EB             		mov.L	712[r0], 940[r0]
 8417                             	.LVL972:
  80:C:\Users\a5116938\Desktop\e2_studio_workspace\EEMBC_final\RX65N_Cloud_Kit\src/tensorflow/lite/kernels/internal/reference\pad.h ****   const int right_w_padding = right_padding_copy[2];
 8418                             		.loc 6 80 13
 8419 16b0 E5 00 B3 E5             		mov.L	716[r0], 916[r0]
 8420                             	.LVL973:
  81:C:\Users\a5116938\Desktop\e2_studio_workspace\EEMBC_final\RX65N_Cloud_Kit\src/tensorflow/lite/kernels/internal/reference\pad.h ****   const int right_d_padding = right_padding_copy[3];
 8421                             		.loc 6 81 13
 8422 16b4 E5 00 B4 E9             		mov.L	720[r0], 932[r0]
 8423                             	.LVL974:
  82:C:\Users\a5116938\Desktop\e2_studio_workspace\EEMBC_final\RX65N_Cloud_Kit\src/tensorflow/lite/kernels/internal/reference\pad.h **** 
 8424                             		.loc 6 82 13
 8425 16b8 ED 03 B5                		mov.L	724[r0], r3
 8426                             	.LVL975:
 8427                             	.LBB1148:
  88:C:\Users\a5116938\Desktop\e2_studio_workspace\EEMBC_final\RX65N_Cloud_Kit\src/tensorflow/lite/kernels/internal/reference\pad.h ****     for (int out_h = 0; out_h < output_height; ++out_h) {
 8428                             		.loc 6 88 29
 8429 16bb E5 00 EF E4             		mov.L	956[r0], 912[r0]
 8430 16bf ED 04 EF                		mov.L	956[r0], r4
 8431 16c2 61 04                   		cmp	#0, r4
 8432 16c4 2B 05 38 F2 EA          		bgt	.L362
 8433 16c9 38 DF EB                		bra	.L365
 8434                             	.LVL976:
 8435                             	.L181:
 8436                             	.LBE1148:
 8437                             	.LBE1158:
 8438                             	.LBE1168:
 8439                             	.LBE1337:
 8440                             	.LBE2175:
 8441                             	.LBB2176:
 8442                             	.LBB1804:
 8443                             	.LBB1635:
 8444                             	.LBB1624:
 8445                             	.LBB1610:
 8446                             	.LBB1584:
 196:C:\Users\a5116938\Desktop\e2_studio_workspace\EEMBC_final\RX65N_Cloud_Kit\src/tensorflow/lite/kernels/internal\types.h ****     TFLITE_DCHECK_LT(i, size_);
 8447                             		.loc 4 196 5 is_stmt 1
 197:C:\Users\a5116938\Desktop\e2_studio_workspace\EEMBC_final\RX65N_Cloud_Kit\src/tensorflow/lite/kernels/internal\types.h ****     return size_ > kMaxSmallSize ? dims_pointer_[i] : dims_[i];
 8448                             		.loc 4 197 5
 8449 16cc 61 1E                   		cmp	#1, r14
 8450 16ce 3A A0 02                		beq	.L119
 198:C:\Users\a5116938\Desktop\e2_studio_workspace\EEMBC_final\RX65N_Cloud_Kit\src/tensorflow/lite/kernels/internal\types.h ****   }
 8451                             		.loc 4 198 34 is_stmt 0
 8452 16d1 E5 00 40 E3             		mov.L	256[r0], 908[r0]
 8453                             	.LVL977:
 8454                             	.LBE1584:
 8455                             	.LBE1610:
 8456                             	.LBB1611:
 8457                             	.LBB1587:
 196:C:\Users\a5116938\Desktop\e2_studio_workspace\EEMBC_final\RX65N_Cloud_Kit\src/tensorflow/lite/kernels/internal\types.h ****     TFLITE_DCHECK_LT(i, size_);
 8458                             		.loc 4 196 5 is_stmt 1
 197:C:\Users\a5116938\Desktop\e2_studio_workspace\EEMBC_final\RX65N_Cloud_Kit\src/tensorflow/lite/kernels/internal\types.h ****     return size_ > kMaxSmallSize ? dims_pointer_[i] : dims_[i];
 8459                             		.loc 4 197 5
 8460 16d5 61 2E                   		cmp	#2, r14
 8461 16d7 3A 97 02                		beq	.L119
 198:C:\Users\a5116938\Desktop\e2_studio_workspace\EEMBC_final\RX65N_Cloud_Kit\src/tensorflow/lite/kernels/internal\types.h ****   }
 8462                             		.loc 4 198 34 is_stmt 0
 8463 16da ED 0E 41                		mov.L	260[r0], r14
 8464                             	.LVL978:
 8465                             	.LBE1587:
 8466                             	.LBE1611:
 8467                             	.LBB1612:
 8468                             	.LBB1590:
 196:C:\Users\a5116938\Desktop\e2_studio_workspace\EEMBC_final\RX65N_Cloud_Kit\src/tensorflow/lite/kernels/internal\types.h ****     TFLITE_DCHECK_LT(i, size_);
 8469                             		.loc 4 196 5 is_stmt 1
 197:C:\Users\a5116938\Desktop\e2_studio_workspace\EEMBC_final\RX65N_Cloud_Kit\src/tensorflow/lite/kernels/internal\types.h ****     return size_ > kMaxSmallSize ? dims_pointer_[i] : dims_[i];
 8470                             		.loc 4 197 5
 8471 16dd 61 35                   		cmp	#3, r5
 8472 16df 3A 8F 02                		beq	.L119
 198:C:\Users\a5116938\Desktop\e2_studio_workspace\EEMBC_final\RX65N_Cloud_Kit\src/tensorflow/lite/kernels/internal\types.h ****   }
 8473                             		.loc 4 198 34 is_stmt 0
 8474 16e2 ED 05 42                		mov.L	264[r0], r5
 8475                             	.LVL979:
 8476                             	.LBE1590:
 8477                             	.LBE1612:
  74:C:\Users\a5116938\Desktop\e2_studio_workspace\EEMBC_final\RX65N_Cloud_Kit\src/tensorflow/lite/kernels/internal/reference\pad.h ****   const int left_h_padding = left_padding_copy[1];
 8478                             		.loc 6 74 13
 8479 16e5 E5 00 D6 E5             		mov.L	856[r0], 916[r0]
 8480                             	.LVL980:
  75:C:\Users\a5116938\Desktop\e2_studio_workspace\EEMBC_final\RX65N_Cloud_Kit\src/tensorflow/lite/kernels/internal/reference\pad.h ****   const int left_w_padding = left_padding_copy[2];
 8481                             		.loc 6 75 13
 8482 16e9 E5 00 D7 E7             		mov.L	860[r0], 924[r0]
 8483                             	.LVL981:
  76:C:\Users\a5116938\Desktop\e2_studio_workspace\EEMBC_final\RX65N_Cloud_Kit\src/tensorflow/lite/kernels/internal/reference\pad.h ****   const int left_d_padding = left_padding_copy[3];
 8484                             		.loc 6 76 13
 8485 16ed E5 00 D8 E6             		mov.L	864[r0], 920[r0]
 8486                             	.LVL982:
  77:C:\Users\a5116938\Desktop\e2_studio_workspace\EEMBC_final\RX65N_Cloud_Kit\src/tensorflow/lite/kernels/internal/reference\pad.h **** 
 8487                             		.loc 6 77 13
 8488 16f1 E5 00 D9 EC             		mov.L	868[r0], 944[r0]
 8489                             	.LVL983:
  79:C:\Users\a5116938\Desktop\e2_studio_workspace\EEMBC_final\RX65N_Cloud_Kit\src/tensorflow/lite/kernels/internal/reference\pad.h ****   const int right_h_padding = right_padding_copy[1];
 8490                             		.loc 6 79 13
 8491 16f5 E5 00 D2 EA             		mov.L	840[r0], 936[r0]
 8492                             	.LVL984:
  80:C:\Users\a5116938\Desktop\e2_studio_workspace\EEMBC_final\RX65N_Cloud_Kit\src/tensorflow/lite/kernels/internal/reference\pad.h ****   const int right_w_padding = right_padding_copy[2];
 8493                             		.loc 6 80 13
 8494 16f9 ED 0D D3                		mov.L	844[r0], r13
 8495                             	.LVL985:
  81:C:\Users\a5116938\Desktop\e2_studio_workspace\EEMBC_final\RX65N_Cloud_Kit\src/tensorflow/lite/kernels/internal/reference\pad.h ****   const int right_d_padding = right_padding_copy[3];
 8496                             		.loc 6 81 13
 8497 16fc ED 04 D4                		mov.L	848[r0], r4
 8498                             	.LVL986:
  82:C:\Users\a5116938\Desktop\e2_studio_workspace\EEMBC_final\RX65N_Cloud_Kit\src/tensorflow/lite/kernels/internal/reference\pad.h **** 
 8499                             		.loc 6 82 13
 8500 16ff ED 03 D5                		mov.L	852[r0], r3
 8501                             	.LVL987:
 8502                             	.LBB1613:
  88:C:\Users\a5116938\Desktop\e2_studio_workspace\EEMBC_final\RX65N_Cloud_Kit\src/tensorflow/lite/kernels/internal/reference\pad.h ****     for (int out_h = 0; out_h < output_height; ++out_h) {
 8503                             		.loc 6 88 29
 8504 1702 ED 0F ED                		mov.L	948[r0], r15
 8505 1705 61 0F                   		cmp	#0, r15
 8506 1707 2B 05 38 63 ED          		bgt	.L183
 8507 170c 38 56 EE                		bra	.L186
 8508                             	.LVL988:
 8509                             	.L935:
 8510 170f EF F1                   		mov.L	r15, r1
 8511                             	.LVL989:
 8512                             		.balign 8,3,3
 8513                             	.L408:
 8514                             	.LBE1613:
 8515                             	.LBE1624:
 8516                             	.LBE1635:
 8517                             	.LBE1804:
 8518                             	.LBE2176:
 8519                             	.LBB2177:
 8520                             	.LBB1501:
 8521                             	.LBB1487:
 8522                             	.LBB1478:
 8523                             	.LBB1469:
 8524                             	.LBB1461:
 189:C:\Users\a5116938\Desktop\e2_studio_workspace\EEMBC_final\RX65N_Cloud_Kit\src/tensorflow/lite/kernels/internal\types.h **** #endif  // TF_LITE_STATIC_MEMORY
 8525                             		.loc 4 189 16
 8526 1711 05 00 00 00             		bsr	__ZdaPv
 8527                             	.LVL990:
 8528 1715 38 3D F8                		bra	.L410
 8529                             	.LVL991:
 8530                             	.L125:
 8531                             	.LBE1461:
 8532                             	.LBE1469:
 8533                             	.LBE1478:
 8534                             	.LBE1487:
 8535                             	.LBE1501:
 8536                             	.LBE2177:
 167:../src/tensorflow/lite/micro/kernels/pad.cc ****       uint8_t pad_value;
 8537                             		.loc 1 167 5 is_stmt 1
 167:../src/tensorflow/lite/micro/kernels/pad.cc ****       uint8_t pad_value;
 8538                             		.loc 1 167 24
 8539                             	.LBB2178:
 168:../src/tensorflow/lite/micro/kernels/pad.cc ****       if (constant_values == nullptr) {
 8540                             		.loc 1 168 7
 169:../src/tensorflow/lite/micro/kernels/pad.cc ****         pad_value = static_cast<uint8_t>(data->output_zero_point);
 8541                             		.loc 1 169 7
 8542 1718 61 0C                   		cmp	#0, r12
 8543 171a 3A CC EE                		beq	.L437
 172:../src/tensorflow/lite/micro/kernels/pad.cc ****       }
 8544                             		.loc 1 172 9
 172:../src/tensorflow/lite/micro/kernels/pad.cc ****       }
 8545                             		.loc 1 172 21 is_stmt 0
 8546 171d EC CA                   		mov.L	[r12], r10
 8547 171f CC AA                   		mov.B	[r10], r10
 8548                             	.LVL992:
 8549 1721 38 C8 EE                		bra	.L213
 8550                             	.LVL993:
 8551                             	.L930:
 8552                             	.LBE2178:
 8553                             	.LBB2179:
 8554                             	.LBB1805:
 8555                             	.LBB1788:
 8556                             	.LBB1778:
 8557                             	.LBB1768:
 8558                             	.LBB1754:
 8559                             	.LBB1728:
 198:C:\Users\a5116938\Desktop\e2_studio_workspace\EEMBC_final\RX65N_Cloud_Kit\src/tensorflow/lite/kernels/internal\types.h ****   }
 8560                             		.loc 4 198 34
 8561 1724 ED 02 ED                		mov.L	948[r0], r2
 8562 1727 E4 20 E6                		mov.L	[r2], 920[r0]
 8563                             	.LVL994:
 8564                             	.LBE1728:
 8565                             	.LBE1754:
 8566                             	.LBB1755:
 8567                             	.LBB1731:
 196:C:\Users\a5116938\Desktop\e2_studio_workspace\EEMBC_final\RX65N_Cloud_Kit\src/tensorflow/lite/kernels/internal\types.h ****     TFLITE_DCHECK_LT(i, size_);
 8568                             		.loc 4 196 5 is_stmt 1
 197:C:\Users\a5116938\Desktop\e2_studio_workspace\EEMBC_final\RX65N_Cloud_Kit\src/tensorflow/lite/kernels/internal\types.h ****     return size_ > kMaxSmallSize ? dims_pointer_[i] : dims_[i];
 8569                             		.loc 4 197 5
 198:C:\Users\a5116938\Desktop\e2_studio_workspace\EEMBC_final\RX65N_Cloud_Kit\src/tensorflow/lite/kernels/internal\types.h ****   }
 8570                             		.loc 4 198 34 is_stmt 0
 8571 172a ED 2F 01                		mov.L	4[r2], r15
 8572                             	.LVL995:
 8573                             	.LBE1731:
 8574                             	.LBE1755:
 8575                             	.LBB1756:
 8576                             	.LBB1734:
 196:C:\Users\a5116938\Desktop\e2_studio_workspace\EEMBC_final\RX65N_Cloud_Kit\src/tensorflow/lite/kernels/internal\types.h ****     TFLITE_DCHECK_LT(i, size_);
 8577                             		.loc 4 196 5 is_stmt 1
 197:C:\Users\a5116938\Desktop\e2_studio_workspace\EEMBC_final\RX65N_Cloud_Kit\src/tensorflow/lite/kernels/internal\types.h ****     return size_ > kMaxSmallSize ? dims_pointer_[i] : dims_[i];
 8578                             		.loc 4 197 5
 198:C:\Users\a5116938\Desktop\e2_studio_workspace\EEMBC_final\RX65N_Cloud_Kit\src/tensorflow/lite/kernels/internal\types.h ****   }
 8579                             		.loc 4 198 34 is_stmt 0
 8580 172d ED 2E 02                		mov.L	8[r2], r14
 8581                             	.LVL996:
 8582                             	.LBE1734:
 8583                             	.LBE1756:
 8584                             	.LBB1757:
 8585                             	.LBB1737:
 196:C:\Users\a5116938\Desktop\e2_studio_workspace\EEMBC_final\RX65N_Cloud_Kit\src/tensorflow/lite/kernels/internal\types.h ****     TFLITE_DCHECK_LT(i, size_);
 8586                             		.loc 4 196 5 is_stmt 1
 197:C:\Users\a5116938\Desktop\e2_studio_workspace\EEMBC_final\RX65N_Cloud_Kit\src/tensorflow/lite/kernels/internal\types.h ****     return size_ > kMaxSmallSize ? dims_pointer_[i] : dims_[i];
 8587                             		.loc 4 197 5
 198:C:\Users\a5116938\Desktop\e2_studio_workspace\EEMBC_final\RX65N_Cloud_Kit\src/tensorflow/lite/kernels/internal\types.h ****   }
 8588                             		.loc 4 198 34 is_stmt 0
 8589 1730 A8 AD                   		mov.L	12[r2], r5
 8590                             	.LVL997:
 8591                             	.LBE1737:
 8592                             	.LBE1757:
  74:C:\Users\a5116938\Desktop\e2_studio_workspace\EEMBC_final\RX65N_Cloud_Kit\src/tensorflow/lite/kernels/internal/reference\pad.h ****   const int left_h_padding = left_padding_copy[1];
 8593                             		.loc 6 74 13
 8594 1732 E5 00 DE E5             		mov.L	888[r0], 916[r0]
 8595                             	.LVL998:
  75:C:\Users\a5116938\Desktop\e2_studio_workspace\EEMBC_final\RX65N_Cloud_Kit\src/tensorflow/lite/kernels/internal/reference\pad.h ****   const int left_w_padding = left_padding_copy[2];
 8596                             		.loc 6 75 13
 8597 1736 E5 00 DF E4             		mov.L	892[r0], 912[r0]
 8598                             	.LVL999:
  76:C:\Users\a5116938\Desktop\e2_studio_workspace\EEMBC_final\RX65N_Cloud_Kit\src/tensorflow/lite/kernels/internal/reference\pad.h ****   const int left_d_padding = left_padding_copy[3];
 8599                             		.loc 6 76 13
 8600 173a E5 00 E0 E3             		mov.L	896[r0], 908[r0]
 8601                             	.LVL1000:
  77:C:\Users\a5116938\Desktop\e2_studio_workspace\EEMBC_final\RX65N_Cloud_Kit\src/tensorflow/lite/kernels/internal/reference\pad.h **** 
 8602                             		.loc 6 77 13
 8603 173e E5 00 E1 EC             		mov.L	900[r0], 944[r0]
 8604                             	.LVL1001:
  79:C:\Users\a5116938\Desktop\e2_studio_workspace\EEMBC_final\RX65N_Cloud_Kit\src/tensorflow/lite/kernels/internal/reference\pad.h ****   const int right_h_padding = right_padding_copy[1];
 8605                             		.loc 6 79 13
 8606 1742 E5 00 DA EA             		mov.L	872[r0], 936[r0]
 8607                             	.LVL1002:
  80:C:\Users\a5116938\Desktop\e2_studio_workspace\EEMBC_final\RX65N_Cloud_Kit\src/tensorflow/lite/kernels/internal/reference\pad.h ****   const int right_w_padding = right_padding_copy[2];
 8608                             		.loc 6 80 13
 8609 1746 ED 0D DB                		mov.L	876[r0], r13
 8610                             	.LVL1003:
  81:C:\Users\a5116938\Desktop\e2_studio_workspace\EEMBC_final\RX65N_Cloud_Kit\src/tensorflow/lite/kernels/internal/reference\pad.h ****   const int right_d_padding = right_padding_copy[3];
 8611                             		.loc 6 81 13
 8612 1749 ED 04 DC                		mov.L	880[r0], r4
 8613                             	.LVL1004:
  82:C:\Users\a5116938\Desktop\e2_studio_workspace\EEMBC_final\RX65N_Cloud_Kit\src/tensorflow/lite/kernels/internal/reference\pad.h **** 
 8614                             		.loc 6 82 13
 8615 174c ED 03 DD                		mov.L	884[r0], r3
 8616                             	.LVL1005:
 8617                             	.LBB1758:
  88:C:\Users\a5116938\Desktop\e2_studio_workspace\EEMBC_final\RX65N_Cloud_Kit\src/tensorflow/lite/kernels/internal/reference\pad.h ****     for (int out_h = 0; out_h < output_height; ++out_h) {
 8618                             		.loc 6 88 29
 8619 174f ED 09 E6                		mov.L	920[r0], r9
 8620 1752 EF 21                   		mov.L	r2, r1
 8621 1754 61 09                   		cmp	#0, r9
 8622 1756 2B 05 38 9E F2          		bgt	.L141
 8623 175b 38 85 F3                		bra	.L142
 8624                             	.LVL1006:
 8625                             	.L939:
 8626                             	.LBE1758:
 8627                             	.LBE1768:
 8628                             	.LBE1778:
 8629                             	.LBE1788:
 8630                             	.LBE1805:
 8631                             	.LBE2179:
 8632                             	.LBB2180:
 8633                             	.LBB2118:
 8634                             	.LBB2103:
 8635                             	.LBB2093:
 8636                             	.LBB2083:
 8637                             	.LBB2069:
 8638                             	.LBB2042:
 198:C:\Users\a5116938\Desktop\e2_studio_workspace\EEMBC_final\RX65N_Cloud_Kit\src/tensorflow/lite/kernels/internal\types.h ****   }
 8639                             		.loc 4 198 34
 8640 175e ED 09 EF                		mov.L	956[r0], r9
 8641 1761 E4 90 E9                		mov.L	[r9], 932[r0]
 8642                             	.LVL1007:
 8643                             	.LBE2042:
 8644                             	.LBE2069:
 8645                             	.LBB2070:
 8646                             	.LBB2045:
 196:C:\Users\a5116938\Desktop\e2_studio_workspace\EEMBC_final\RX65N_Cloud_Kit\src/tensorflow/lite/kernels/internal\types.h ****     TFLITE_DCHECK_LT(i, size_);
 8647                             		.loc 4 196 5 is_stmt 1
 197:C:\Users\a5116938\Desktop\e2_studio_workspace\EEMBC_final\RX65N_Cloud_Kit\src/tensorflow/lite/kernels/internal\types.h ****     return size_ > kMaxSmallSize ? dims_pointer_[i] : dims_[i];
 8648                             		.loc 4 197 5
 198:C:\Users\a5116938\Desktop\e2_studio_workspace\EEMBC_final\RX65N_Cloud_Kit\src/tensorflow/lite/kernels/internal\types.h ****   }
 8649                             		.loc 4 198 34 is_stmt 0
 8650 1764 E5 90 01 E2             		mov.L	4[r9], 904[r0]
 8651                             	.LVL1008:
 8652                             	.LBE2045:
 8653                             	.LBE2070:
 8654                             	.LBB2071:
 8655                             	.LBB2048:
 196:C:\Users\a5116938\Desktop\e2_studio_workspace\EEMBC_final\RX65N_Cloud_Kit\src/tensorflow/lite/kernels/internal\types.h ****     TFLITE_DCHECK_LT(i, size_);
 8656                             		.loc 4 196 5 is_stmt 1
 197:C:\Users\a5116938\Desktop\e2_studio_workspace\EEMBC_final\RX65N_Cloud_Kit\src/tensorflow/lite/kernels/internal\types.h ****     return size_ > kMaxSmallSize ? dims_pointer_[i] : dims_[i];
 8657                             		.loc 4 197 5
 198:C:\Users\a5116938\Desktop\e2_studio_workspace\EEMBC_final\RX65N_Cloud_Kit\src/tensorflow/lite/kernels/internal\types.h ****   }
 8658                             		.loc 4 198 34 is_stmt 0
 8659 1768 ED 98 02                		mov.L	8[r9], r8
 8660                             	.LVL1009:
 8661                             	.LBE2048:
 8662                             	.LBE2071:
 8663                             	.LBB2072:
 8664                             	.LBB2051:
 196:C:\Users\a5116938\Desktop\e2_studio_workspace\EEMBC_final\RX65N_Cloud_Kit\src/tensorflow/lite/kernels/internal\types.h ****     TFLITE_DCHECK_LT(i, size_);
 8665                             		.loc 4 196 5 is_stmt 1
 197:C:\Users\a5116938\Desktop\e2_studio_workspace\EEMBC_final\RX65N_Cloud_Kit\src/tensorflow/lite/kernels/internal\types.h ****     return size_ > kMaxSmallSize ? dims_pointer_[i] : dims_[i];
 8666                             		.loc 4 197 5
 198:C:\Users\a5116938\Desktop\e2_studio_workspace\EEMBC_final\RX65N_Cloud_Kit\src/tensorflow/lite/kernels/internal\types.h ****   }
 8667                             		.loc 4 198 34 is_stmt 0
 8668 176b ED 95 03                		mov.L	12[r9], r5
 8669                             	.LVL1010:
 8670                             	.LBE2051:
 8671                             	.LBE2072:
  74:C:\Users\a5116938\Desktop\e2_studio_workspace\EEMBC_final\RX65N_Cloud_Kit\src/tensorflow/lite/kernels/internal/reference\pad.h ****   const int left_h_padding = left_padding_copy[1];
 8672                             		.loc 6 74 13
 8673 176e E5 00 CE E8             		mov.L	824[r0], 928[r0]
 8674                             	.LVL1011:
  75:C:\Users\a5116938\Desktop\e2_studio_workspace\EEMBC_final\RX65N_Cloud_Kit\src/tensorflow/lite/kernels/internal/reference\pad.h ****   const int left_w_padding = left_padding_copy[2];
 8675                             		.loc 6 75 13
 8676 1772 E5 00 CF E7             		mov.L	828[r0], 924[r0]
 8677                             	.LVL1012:
  76:C:\Users\a5116938\Desktop\e2_studio_workspace\EEMBC_final\RX65N_Cloud_Kit\src/tensorflow/lite/kernels/internal/reference\pad.h ****   const int left_d_padding = left_padding_copy[3];
 8678                             		.loc 6 76 13
 8679 1776 E5 00 D0 E6             		mov.L	832[r0], 920[r0]
 8680                             	.LVL1013:
  77:C:\Users\a5116938\Desktop\e2_studio_workspace\EEMBC_final\RX65N_Cloud_Kit\src/tensorflow/lite/kernels/internal/reference\pad.h **** 
 8681                             		.loc 6 77 13
 8682 177a E5 00 D1 EE             		mov.L	836[r0], 952[r0]
 8683                             	.LVL1014:
  79:C:\Users\a5116938\Desktop\e2_studio_workspace\EEMBC_final\RX65N_Cloud_Kit\src/tensorflow/lite/kernels/internal/reference\pad.h ****   const int right_h_padding = right_padding_copy[1];
 8684                             		.loc 6 79 13
 8685 177e E5 00 CA EB             		mov.L	808[r0], 940[r0]
 8686                             	.LVL1015:
  80:C:\Users\a5116938\Desktop\e2_studio_workspace\EEMBC_final\RX65N_Cloud_Kit\src/tensorflow/lite/kernels/internal/reference\pad.h ****   const int right_w_padding = right_padding_copy[2];
 8687                             		.loc 6 80 13
 8688 1782 E5 00 CB E5             		mov.L	812[r0], 916[r0]
 8689                             	.LVL1016:
  81:C:\Users\a5116938\Desktop\e2_studio_workspace\EEMBC_final\RX65N_Cloud_Kit\src/tensorflow/lite/kernels/internal/reference\pad.h ****   const int right_d_padding = right_padding_copy[3];
 8690                             		.loc 6 81 13
 8691 1786 E5 00 CC E4             		mov.L	816[r0], 912[r0]
 8692                             	.LVL1017:
  82:C:\Users\a5116938\Desktop\e2_studio_workspace\EEMBC_final\RX65N_Cloud_Kit\src/tensorflow/lite/kernels/internal/reference\pad.h **** 
 8693                             		.loc 6 82 13
 8694 178a ED 03 CD                		mov.L	820[r0], r3
 8695                             	.LVL1018:
 8696                             	.LBB2073:
  88:C:\Users\a5116938\Desktop\e2_studio_workspace\EEMBC_final\RX65N_Cloud_Kit\src/tensorflow/lite/kernels/internal/reference\pad.h ****     for (int out_h = 0; out_h < output_height; ++out_h) {
 8697                             		.loc 6 88 29
 8698 178d ED 0E E9                		mov.L	932[r0], r14
 8699 1790 EF 91                   		mov.L	r9, r1
 8700 1792 61 0E                   		cmp	#0, r14
 8701 1794 2B 05 38 DD FC          		bgt	.L227
 8702 1799 38 61 FE                		bra	.L228
 8703                             	.LVL1019:
 8704                             	.L936:
 8705                             	.LBE2073:
 8706                             	.LBE2083:
 8707                             	.LBE2093:
 8708                             	.LBE2103:
 8709                             	.LBE2118:
 8710                             	.LBE2180:
 8711                             	.LBB2181:
 8712                             	.LBB1338:
 8713                             	.LBB1323:
 8714                             	.LBB1313:
 8715                             	.LBB1303:
 8716                             	.LBB1289:
 8717                             	.LBB1262:
 198:C:\Users\a5116938\Desktop\e2_studio_workspace\EEMBC_final\RX65N_Cloud_Kit\src/tensorflow/lite/kernels/internal\types.h ****   }
 8718                             		.loc 4 198 34
 8719 179c ED 04 EF                		mov.L	956[r0], r4
 8720 179f E4 40 E9                		mov.L	[r4], 932[r0]
 8721                             	.LVL1020:
 8722                             	.LBE1262:
 8723                             	.LBE1289:
 8724                             	.LBB1290:
 8725                             	.LBB1265:
 196:C:\Users\a5116938\Desktop\e2_studio_workspace\EEMBC_final\RX65N_Cloud_Kit\src/tensorflow/lite/kernels/internal\types.h ****     TFLITE_DCHECK_LT(i, size_);
 8726                             		.loc 4 196 5 is_stmt 1
 197:C:\Users\a5116938\Desktop\e2_studio_workspace\EEMBC_final\RX65N_Cloud_Kit\src/tensorflow/lite/kernels/internal\types.h ****     return size_ > kMaxSmallSize ? dims_pointer_[i] : dims_[i];
 8727                             		.loc 4 197 5
 198:C:\Users\a5116938\Desktop\e2_studio_workspace\EEMBC_final\RX65N_Cloud_Kit\src/tensorflow/lite/kernels/internal\types.h ****   }
 8728                             		.loc 4 198 34 is_stmt 0
 8729 17a2 E5 40 01 E2             		mov.L	4[r4], 904[r0]
 8730                             	.LVL1021:
 8731                             	.LBE1265:
 8732                             	.LBE1290:
 8733                             	.LBB1291:
 8734                             	.LBB1268:
 196:C:\Users\a5116938\Desktop\e2_studio_workspace\EEMBC_final\RX65N_Cloud_Kit\src/tensorflow/lite/kernels/internal\types.h ****     TFLITE_DCHECK_LT(i, size_);
 8735                             		.loc 4 196 5 is_stmt 1
 197:C:\Users\a5116938\Desktop\e2_studio_workspace\EEMBC_final\RX65N_Cloud_Kit\src/tensorflow/lite/kernels/internal\types.h ****     return size_ > kMaxSmallSize ? dims_pointer_[i] : dims_[i];
 8736                             		.loc 4 197 5
 198:C:\Users\a5116938\Desktop\e2_studio_workspace\EEMBC_final\RX65N_Cloud_Kit\src/tensorflow/lite/kernels/internal\types.h ****   }
 8737                             		.loc 4 198 34 is_stmt 0
 8738 17a6 ED 48 02                		mov.L	8[r4], r8
 8739                             	.LVL1022:
 8740                             	.LBE1268:
 8741                             	.LBE1291:
 8742                             	.LBB1292:
 8743                             	.LBB1271:
 196:C:\Users\a5116938\Desktop\e2_studio_workspace\EEMBC_final\RX65N_Cloud_Kit\src/tensorflow/lite/kernels/internal\types.h ****     TFLITE_DCHECK_LT(i, size_);
 8744                             		.loc 4 196 5 is_stmt 1
 197:C:\Users\a5116938\Desktop\e2_studio_workspace\EEMBC_final\RX65N_Cloud_Kit\src/tensorflow/lite/kernels/internal\types.h ****     return size_ > kMaxSmallSize ? dims_pointer_[i] : dims_[i];
 8745                             		.loc 4 197 5
 198:C:\Users\a5116938\Desktop\e2_studio_workspace\EEMBC_final\RX65N_Cloud_Kit\src/tensorflow/lite/kernels/internal\types.h ****   }
 8746                             		.loc 4 198 34 is_stmt 0
 8747 17a9 A8 CD                   		mov.L	12[r4], r5
 8748                             	.LVL1023:
 8749                             	.LBE1271:
 8750                             	.LBE1292:
  74:C:\Users\a5116938\Desktop\e2_studio_workspace\EEMBC_final\RX65N_Cloud_Kit\src/tensorflow/lite/kernels/internal/reference\pad.h ****   const int left_h_padding = left_padding_copy[1];
 8751                             		.loc 6 74 13
 8752 17ab E5 00 BE E8             		mov.L	760[r0], 928[r0]
 8753                             	.LVL1024:
  75:C:\Users\a5116938\Desktop\e2_studio_workspace\EEMBC_final\RX65N_Cloud_Kit\src/tensorflow/lite/kernels/internal/reference\pad.h ****   const int left_w_padding = left_padding_copy[2];
 8754                             		.loc 6 75 13
 8755 17af E5 00 BF E7             		mov.L	764[r0], 924[r0]
 8756                             	.LVL1025:
  76:C:\Users\a5116938\Desktop\e2_studio_workspace\EEMBC_final\RX65N_Cloud_Kit\src/tensorflow/lite/kernels/internal/reference\pad.h ****   const int left_d_padding = left_padding_copy[3];
 8757                             		.loc 6 76 13
 8758 17b3 E5 00 C0 E6             		mov.L	768[r0], 920[r0]
 8759                             	.LVL1026:
  77:C:\Users\a5116938\Desktop\e2_studio_workspace\EEMBC_final\RX65N_Cloud_Kit\src/tensorflow/lite/kernels/internal/reference\pad.h **** 
 8760                             		.loc 6 77 13
 8761 17b7 E5 00 C1 ED             		mov.L	772[r0], 948[r0]
 8762                             	.LVL1027:
  79:C:\Users\a5116938\Desktop\e2_studio_workspace\EEMBC_final\RX65N_Cloud_Kit\src/tensorflow/lite/kernels/internal/reference\pad.h ****   const int right_h_padding = right_padding_copy[1];
 8763                             		.loc 6 79 13
 8764 17bb E5 00 BA EB             		mov.L	744[r0], 940[r0]
 8765                             	.LVL1028:
  80:C:\Users\a5116938\Desktop\e2_studio_workspace\EEMBC_final\RX65N_Cloud_Kit\src/tensorflow/lite/kernels/internal/reference\pad.h ****   const int right_w_padding = right_padding_copy[2];
 8766                             		.loc 6 80 13
 8767 17bf E5 00 BB E5             		mov.L	748[r0], 916[r0]
 8768                             	.LVL1029:
  81:C:\Users\a5116938\Desktop\e2_studio_workspace\EEMBC_final\RX65N_Cloud_Kit\src/tensorflow/lite/kernels/internal/reference\pad.h ****   const int right_d_padding = right_padding_copy[3];
 8769                             		.loc 6 81 13
 8770 17c3 E5 00 BC E4             		mov.L	752[r0], 912[r0]
 8771                             	.LVL1030:
  82:C:\Users\a5116938\Desktop\e2_studio_workspace\EEMBC_final\RX65N_Cloud_Kit\src/tensorflow/lite/kernels/internal/reference\pad.h **** 
 8772                             		.loc 6 82 13
 8773 17c7 ED 03 BD                		mov.L	756[r0], r3
 8774                             	.LVL1031:
 8775                             	.LBB1293:
  88:C:\Users\a5116938\Desktop\e2_studio_workspace\EEMBC_final\RX65N_Cloud_Kit\src/tensorflow/lite/kernels/internal/reference\pad.h ****     for (int out_h = 0; out_h < output_height; ++out_h) {
 8776                             		.loc 6 88 29
 8777 17ca ED 09 E9                		mov.L	932[r0], r9
 8778 17cd EF 41                   		mov.L	r4, r1
 8779 17cf 61 09                   		cmp	#0, r9
 8780 17d1 2B 05 38 FE F9          		bgt	.L318
 8781 17d6 38 EA FA                		bra	.L319
 8782                             	.LVL1032:
 8783                             	.L925:
 8784 17d9 EF E1                   		mov.L	r14, r1
 8785                             	.LVL1033:
 8786                             		.balign 8,3,3
 8787                             	.L184:
 8788                             	.LBE1293:
 8789                             	.LBE1303:
 8790                             	.LBE1313:
 8791                             	.LBE1323:
 8792                             	.LBE1338:
 8793                             	.LBE2181:
 8794                             	.LBB2182:
 8795                             	.LBB1806:
 8796                             	.LBB1636:
 8797                             	.LBB1625:
 8798                             	.LBB1614:
 8799                             	.LBB1605:
 189:C:\Users\a5116938\Desktop\e2_studio_workspace\EEMBC_final\RX65N_Cloud_Kit\src/tensorflow/lite/kernels/internal\types.h **** #endif  // TF_LITE_STATIC_MEMORY
 8800                             		.loc 4 189 16
 8801 17db 05 00 00 00             		bsr	__ZdaPv
 8802                             	.LVL1034:
 8803 17df 38 83 ED                		bra	.L186
 8804                             	.LVL1035:
 8805                             	.L929:
 8806 17e2 EF E1                   		mov.L	r14, r1
 8807                             	.LVL1036:
 8808                             		.balign 8,3,3
 8809                             	.L272:
 8810                             	.LBE1605:
 8811                             	.LBE1614:
 8812                             	.LBE1625:
 8813                             	.LBE1636:
 8814                             	.LBE1806:
 8815                             	.LBE2182:
 8816                             	.LBB2183:
 8817                             	.LBB2119:
 8818                             	.LBB1949:
 8819                             	.LBB1939:
 8820                             	.LBB1929:
 8821                             	.LBB1921:
 8822 17e4 05 00 00 00             		bsr	__ZdaPv
 8823                             	.LVL1037:
 8824 17e8 38 60 F0                		bra	.L274
 8825                             	.LVL1038:
 8826                             	.L921:
 8827 17eb EF E1                   		mov.L	r14, r1
 8828                             	.LVL1039:
 8829 17ed FC 13 00                		.balign 8,3,3
 8830                             	.L363:
 8831                             	.LBE1921:
 8832                             	.LBE1929:
 8833                             	.LBE1939:
 8834                             	.LBE1949:
 8835                             	.LBE2119:
 8836                             	.LBE2183:
 8837                             	.LBB2184:
 8838                             	.LBB1339:
 8839                             	.LBB1169:
 8840                             	.LBB1159:
 8841                             	.LBB1149:
 8842                             	.LBB1141:
 8843 17f0 05 00 00 00             		bsr	__ZdaPv
 8844                             	.LVL1040:
 8845 17f4 38 B4 EA                		bra	.L365
 8846                             	.LVL1041:
 8847                             	.L121:
 8848                             	.LBE1141:
 8849                             	.LBE1149:
 8850                             	.LBE1159:
 8851                             	.LBE1169:
 8852                             	.LBE1339:
 8853                             	.LBE2184:
 207:../src/tensorflow/lite/micro/kernels/pad.cc ****       int32_t pad_value =
 8854                             		.loc 1 207 5 is_stmt 1
 207:../src/tensorflow/lite/micro/kernels/pad.cc ****       int32_t pad_value =
 8855                             		.loc 1 207 24
 8856                             	.LBB2185:
 208:../src/tensorflow/lite/micro/kernels/pad.cc ****           constant_values == nullptr
 8857                             		.loc 1 208 7
 210:../src/tensorflow/lite/micro/kernels/pad.cc ****               : *tflite::micro::GetTensorData<int32_t>(constant_values);
 8858                             		.loc 1 210 15 is_stmt 0
 8859 17f7 61 0C                   		cmp	#0, r12
 8860 17f9 3A 2B F5                		beq	.L495
 8861 17fc EC CA                   		mov.L	[r12], r10
 8862 17fe EC AA                   		mov.L	[r10], r10
 8863 1800 38 28 F5                		bra	.L394
 8864                             	.LVL1042:
 8865                             	.L234:
 8866 1803 EF 71                   		mov.L	r7, r1
 8867 1805 EF 53                   		mov.L	r5, r3
 8868 1807 CF A2                   		mov.B	r10, r2
 8869 1809 7F 88                   		sstr.b
 8870 180b 38 C1 FD                		bra	.L901
 8871                             	.LVL1043:
 8872                             	.L444:
 8873                             	.LBE2185:
 8874                             	.LBB2186:
 8875                             	.LBB1807:
 8876                             	.LBB1789:
 8877                             	.LBB1779:
 8878                             	.LBB1769:
 8879                             	.LBB1759:
 8880                             	.LBB1748:
 8881                             	.LBB1746:
 8882                             	.LBB1743:
  97:C:\Users\a5116938\Desktop\e2_studio_workspace\EEMBC_final\RX65N_Cloud_Kit\src/tensorflow/lite/kernels/internal/reference\pad.h ****               out_d < left_d_padding ||
 8883                             		.loc 6 97 37
 8884 180e EF 73                   		mov.L	r7, r3
 8885 1810 66 04                   		mov.L	#0, r4
 8886                             	.LVL1044:
 8887                             		.balign 8,3,1
 8888                             	.L157:
  91:C:\Users\a5116938\Desktop\e2_studio_workspace\EEMBC_final\RX65N_Cloud_Kit\src/tensorflow/lite/kernels/internal/reference\pad.h ****           if (out_b < left_b_padding ||
 8889                             		.loc 6 91 9
 8890 1812 62 14                   		add	#1, r4
 8891                             	.LVL1045:
 8892 1814 FD 22 3A                		mov.L	r10, [r3+]
 8893                             	.LVL1046:
  91:C:\Users\a5116938\Desktop\e2_studio_workspace\EEMBC_final\RX65N_Cloud_Kit\src/tensorflow/lite/kernels/internal/reference\pad.h ****           if (out_b < left_b_padding ||
 8894                             		.loc 6 91 35
 8895 1817 47 45                   		cmp	r4, r5
 8896 1819 2A F9                   		bgt	.L157
 8897 181b 38 99 F2                		bra	.L898
 8898                             	.LVL1047:
 8899                             	.L461:
 8900                             	.LBE1743:
 8901                             	.LBE1746:
 8902                             	.LBE1748:
 8903                             	.LBE1759:
 8904                             	.LBE1769:
 8905                             	.LBE1779:
 8906                             	.LBE1789:
 8907                             	.LBE1807:
 8908                             	.LBE2186:
 8909                             	.LBB2187:
 8910                             	.LBB2120:
 8911                             	.LBB2104:
 8912                             	.LBB2094:
 8913                             	.LBB2084:
 8914                             	.LBB2074:
 8915                             	.LBB2063:
 8916                             	.LBB2061:
 8917                             	.LBB2058:
  97:C:\Users\a5116938\Desktop\e2_studio_workspace\EEMBC_final\RX65N_Cloud_Kit\src/tensorflow/lite/kernels/internal/reference\pad.h ****               out_d < left_d_padding ||
 8918                             		.loc 6 97 37
 8919 181e EF 73                   		mov.L	r7, r3
 8920 1820 66 04                   		mov.L	#0, r4
 8921 1822 38 12 FD                		bra	.L238
 8922                             	.LVL1048:
 8923                             	.L473:
 8924                             	.LBE2058:
 8925                             	.LBE2061:
 8926                             	.LBE2063:
 8927                             	.LBE2074:
 8928                             	.LBE2084:
 8929                             	.LBE2094:
 8930                             	.LBE2104:
 8931                             	.LBE2120:
 8932                             	.LBE2187:
 8933                             	.LBB2188:
 8934                             	.LBB1340:
 8935                             	.LBB1324:
 8936                             	.LBB1314:
 8937                             	.LBB1304:
 8938                             	.LBB1294:
 8939                             	.LBB1283:
 8940                             	.LBB1281:
 8941                             	.LBB1278:
 8942 1825 EF 73                   		mov.L	r7, r3
 8943 1827 66 04                   		mov.L	#0, r4
 8944                             	.LVL1049:
 8945                             		.balign 8,3,2
 8946                             	.L329:
 8947 1829 71 5E FF                		add	#-1, r5, r14
 8948 182c FF 01 45                		sub	r4, r5, r1
 8949 182f FC 07 32                		neg	r3, r2
 8950 1832 43 4E                   		sub	r4, r14
 8951 1834 47 45                   		cmp	r4, r5
 8952 1836 2A 04                   		bgt 1f
 8953 1838 66 11                   		mov #1, r1
 8954                             	1:
 8955 183a 64 32                   		and #3, r2
 8956 183c 61 5E                   		cmp	#5, r14
 8957 183e 25 52                   		bleu	.L333
 8958 1840 47 45                   		cmp	r4, r5
 8959 1842 2B 4E                   		ble	.L333
 8960 1844 EF 3E                   		mov.L	r3, r14
 8961 1846 61 02                   		cmp	#0, r2
 8962 1848 3A 1C 01                		beq	.L477
 8963                             	.LVL1050:
  91:C:\Users\a5116938\Desktop\e2_studio_workspace\EEMBC_final\RX65N_Cloud_Kit\src/tensorflow/lite/kernels/internal/reference\pad.h ****           if (out_b < left_b_padding ||
 8964                             		.loc 6 91 9
 8965 184b 71 4F 01                		add	#1, r4, r15
 8966 184e FD 20 EA                		mov.B	r10, [r14+]
 8967                             	.LVL1051:
 8968 1851 61 12                   		cmp	#1, r2
 8969 1853 20 17                   		beq	.L334
 8970                             	.LVL1052:
 8971 1855 71 3E 02                		add	#2, r3, r14
 8972                             	.LVL1053:
 8973 1858 C7 3A 01                		mov.B	r10, 1[r3]
 8974                             	.LVL1054:
 8975 185b 71 4F 02                		add	#2, r4, r15
 8976                             	.LVL1055:
 8977 185e 61 22                   		cmp	#2, r2
 8978 1860 12                      		beq	.L334
 8979                             	.LVL1056:
 8980 1861 71 3E 03                		add	#3, r3, r14
 8981                             	.LVL1057:
 8982 1864 C7 3A 02                		mov.B	r10, 2[r3]
 8983                             	.LVL1058:
 8984 1867 71 4F 03                		add	#3, r4, r15
 8985                             	.LVL1059:
 8986                             		.balign 8,3,1
 8987                             	.L334:
 8988 186a 43 21                   		sub	r2, r1
 8989 186c 4B 23                   		add	r2, r3
 8990 186e FB 46 FC                		mov.L	#-4, r4
 8991 1871 53 14                   		and	r1, r4
 8992 1873 4B 34                   		add	r3, r4
 8993                             		.balign 8,3,2
 8994                             	.L337:
 8995                             	.LVL1060:
 8996 1875 ED 02 EA                		mov.L	936[r0], r2
 8997 1878 FD 22 32                		mov.L	r2, [r3+]
 8998 187b 47 43                   		cmp	r4, r3
 8999 187d 21 F8                   		bne	.L337
 9000 187f FB 26 FC                		mov.L	#-4, r2
 9001 1882 53 12                   		and	r1, r2
 9002 1884 FF 24 F2                		add	r15, r2, r4
 9003 1887 FF 23 2E                		add	r2, r14, r3
 9004 188a 47 12                   		cmp	r1, r2
 9005 188c 3A 04 FA                		beq	.L905
 9006                             	.LVL1061:
 9007 188f 03                      		.balign 8,3,1
 9008                             	.L333:
 9009 1890 C3 3A                   		mov.B	r10, [r3]
 9010                             	.LVL1062:
 9011 1892 71 42 01                		add	#1, r4, r2
 9012                             	.LVL1063:
  91:C:\Users\a5116938\Desktop\e2_studio_workspace\EEMBC_final\RX65N_Cloud_Kit\src/tensorflow/lite/kernels/internal/reference\pad.h ****           if (out_b < left_b_padding ||
 9013                             		.loc 6 91 35
 9014 1895 47 25                   		cmp	r2, r5
 9015 1897 2A 05 38 F7 F9          		ble	.L905
  91:C:\Users\a5116938\Desktop\e2_studio_workspace\EEMBC_final\RX65N_Cloud_Kit\src/tensorflow/lite/kernels/internal/reference\pad.h ****           if (out_b < left_b_padding ||
 9016                             		.loc 6 91 9
 9017 189c 71 42 02                		add	#2, r4, r2
 9018                             	.LVL1064:
 9019 189f C7 3A 01                		mov.B	r10, 1[r3]
 9020                             	.LVL1065:
  91:C:\Users\a5116938\Desktop\e2_studio_workspace\EEMBC_final\RX65N_Cloud_Kit\src/tensorflow/lite/kernels/internal/reference\pad.h ****           if (out_b < left_b_padding ||
 9021                             		.loc 6 91 35
 9022 18a2 47 25                   		cmp	r2, r5
 9023 18a4 2A 05 38 EA F9          		ble	.L905
  91:C:\Users\a5116938\Desktop\e2_studio_workspace\EEMBC_final\RX65N_Cloud_Kit\src/tensorflow/lite/kernels/internal/reference\pad.h ****           if (out_b < left_b_padding ||
 9024                             		.loc 6 91 9
 9025 18a9 71 42 03                		add	#3, r4, r2
 9026                             	.LVL1066:
 9027 18ac C7 3A 02                		mov.B	r10, 2[r3]
 9028                             	.LVL1067:
  91:C:\Users\a5116938\Desktop\e2_studio_workspace\EEMBC_final\RX65N_Cloud_Kit\src/tensorflow/lite/kernels/internal/reference\pad.h ****           if (out_b < left_b_padding ||
 9029                             		.loc 6 91 35
 9030 18af 47 25                   		cmp	r2, r5
 9031 18b1 2A 05 38 DD F9          		ble	.L905
  91:C:\Users\a5116938\Desktop\e2_studio_workspace\EEMBC_final\RX65N_Cloud_Kit\src/tensorflow/lite/kernels/internal/reference\pad.h ****           if (out_b < left_b_padding ||
 9032                             		.loc 6 91 9
 9033 18b6 71 42 04                		add	#4, r4, r2
 9034                             	.LVL1068:
 9035 18b9 C7 3A 03                		mov.B	r10, 3[r3]
 9036                             	.LVL1069:
  91:C:\Users\a5116938\Desktop\e2_studio_workspace\EEMBC_final\RX65N_Cloud_Kit\src/tensorflow/lite/kernels/internal/reference\pad.h ****           if (out_b < left_b_padding ||
 9037                             		.loc 6 91 35
 9038 18bc 47 25                   		cmp	r2, r5
 9039 18be 2A 05 38 D0 F9          		ble	.L905
  91:C:\Users\a5116938\Desktop\e2_studio_workspace\EEMBC_final\RX65N_Cloud_Kit\src/tensorflow/lite/kernels/internal/reference\pad.h ****           if (out_b < left_b_padding ||
 9040                             		.loc 6 91 9
 9041 18c3 62 54                   		add	#5, r4
 9042 18c5 C7 3A 04                		mov.B	r10, 4[r3]
 9043                             	.LVL1070:
  91:C:\Users\a5116938\Desktop\e2_studio_workspace\EEMBC_final\RX65N_Cloud_Kit\src/tensorflow/lite/kernels/internal/reference\pad.h ****           if (out_b < left_b_padding ||
 9044                             		.loc 6 91 35
 9045 18c8 47 45                   		cmp	r4, r5
 9046 18ca 2A 05 38 C4 F9          		ble	.L905
 9047 18cf C7 3A 05                		mov.B	r10, 5[r3]
 9048                             	.LVL1071:
 9049 18d2 38 BE F9                		bra	.L905
 9050                             	.LVL1072:
 9051                             	.L325:
 9052 18d5 EF 71                   		mov.L	r7, r1
 9053 18d7 EF 53                   		mov.L	r5, r3
 9054 18d9 CF A2                   		mov.B	r10, r2
 9055 18db 7F 88                   		sstr.b
 9056 18dd 38 B3 F9                		bra	.L905
 9057                             	.LVL1073:
 9058                             	.L443:
 9059                             	.LBE1278:
 9060                             	.LBE1281:
 9061                             	.LBE1283:
 9062                             	.LBE1294:
 9063                             	.LBE1304:
 9064                             	.LBE1314:
 9065                             	.LBE1324:
 9066                             	.LBE1340:
 9067                             	.LBE2188:
 9068                             	.LBB2189:
 9069                             	.LBB1808:
 9070                             	.LBB1790:
 9071                             	.LBB1780:
 9072                             	.LBB1770:
 9073                             	.LBB1760:
 9074                             	.LBB1749:
 9075                             	.LBB1747:
 9076                             	.LBB1744:
  91:C:\Users\a5116938\Desktop\e2_studio_workspace\EEMBC_final\RX65N_Cloud_Kit\src/tensorflow/lite/kernels/internal/reference\pad.h ****           if (out_b < left_b_padding ||
 9077                             		.loc 6 91 18
 9078 18e0 66 04                   		mov.L	#0, r4
 9079                             	.LVL1074:
 9080                             		.balign 8,3,5
 9081                             	.L151:
 9082 18e2 FE 24 7A                		mov.L	r10, [r4,r7]
 9083                             	.LVL1075:
  91:C:\Users\a5116938\Desktop\e2_studio_workspace\EEMBC_final\RX65N_Cloud_Kit\src/tensorflow/lite/kernels/internal/reference\pad.h ****           if (out_b < left_b_padding ||
 9084                             		.loc 6 91 9
 9085 18e5 62 14                   		add	#1, r4
 9086                             	.LVL1076:
  91:C:\Users\a5116938\Desktop\e2_studio_workspace\EEMBC_final\RX65N_Cloud_Kit\src/tensorflow/lite/kernels/internal/reference\pad.h ****           if (out_b < left_b_padding ||
 9087                             		.loc 6 91 35
 9088 18e7 47 45                   		cmp	r4, r5
 9089 18e9 21 F9                   		bne	.L151
 9090 18eb 38 C9 F1                		bra	.L898
 9091                             	.LVL1077:
 9092                             	.L442:
  91:C:\Users\a5116938\Desktop\e2_studio_workspace\EEMBC_final\RX65N_Cloud_Kit\src/tensorflow/lite/kernels/internal/reference\pad.h ****           if (out_b < left_b_padding ||
 9093                             		.loc 6 91 18
 9094 18ee 66 04                   		mov.L	#0, r4
 9095                             	.LVL1078:
 9096                             		.balign 8,3,5
 9097                             	.L150:
 9098 18f0 FE 24 7A                		mov.L	r10, [r4,r7]
 9099                             	.LVL1079:
  91:C:\Users\a5116938\Desktop\e2_studio_workspace\EEMBC_final\RX65N_Cloud_Kit\src/tensorflow/lite/kernels/internal/reference\pad.h ****           if (out_b < left_b_padding ||
 9100                             		.loc 6 91 9
 9101 18f3 62 14                   		add	#1, r4
 9102                             	.LVL1080:
  91:C:\Users\a5116938\Desktop\e2_studio_workspace\EEMBC_final\RX65N_Cloud_Kit\src/tensorflow/lite/kernels/internal/reference\pad.h ****           if (out_b < left_b_padding ||
 9103                             		.loc 6 91 35
 9104 18f5 47 45                   		cmp	r4, r5
 9105 18f7 21 F9                   		bne	.L150
 9106 18f9 38 BB F1                		bra	.L898
 9107                             	.LVL1081:
 9108                             	.L149:
  91:C:\Users\a5116938\Desktop\e2_studio_workspace\EEMBC_final\RX65N_Cloud_Kit\src/tensorflow/lite/kernels/internal/reference\pad.h ****           if (out_b < left_b_padding ||
 9109                             		.loc 6 91 18
 9110 18fc 66 04                   		mov.L	#0, r4
 9111 18fe 47 1D                   		cmp	r1, r13
 9112 1900 2B 2A                   		ble	.L158
 9113 1902 47 B9                   		cmp	r11, r9
 9114 1904 2B 10                   		ble	.L159
 9115                             	.LVL1082:
 9116 1906 EF 00                   		.balign 8,3,5
 9117                             	.L160:
 9118 1908 FE 24 7A                		mov.L	r10, [r4,r7]
 9119                             	.LVL1083:
  91:C:\Users\a5116938\Desktop\e2_studio_workspace\EEMBC_final\RX65N_Cloud_Kit\src/tensorflow/lite/kernels/internal/reference\pad.h ****           if (out_b < left_b_padding ||
 9120                             		.loc 6 91 9
 9121 190b 62 14                   		add	#1, r4
 9122                             	.LVL1084:
  91:C:\Users\a5116938\Desktop\e2_studio_workspace\EEMBC_final\RX65N_Cloud_Kit\src/tensorflow/lite/kernels/internal/reference\pad.h ****           if (out_b < left_b_padding ||
 9123                             		.loc 6 91 35
 9124 190d 47 45                   		cmp	r4, r5
 9125 190f 21 F9                   		bne	.L160
 9126 1911 38 A3 F1                		bra	.L898
 9127                             	.LVL1085:
 9128                             	.L159:
 9129 1914 FE 24 7A                		mov.L	r10, [r4,r7]
 9130                             	.LVL1086:
  91:C:\Users\a5116938\Desktop\e2_studio_workspace\EEMBC_final\RX65N_Cloud_Kit\src/tensorflow/lite/kernels/internal/reference\pad.h ****           if (out_b < left_b_padding ||
 9131                             		.loc 6 91 9
 9132 1917 62 14                   		add	#1, r4
 9133                             	.LVL1087:
  91:C:\Users\a5116938\Desktop\e2_studio_workspace\EEMBC_final\RX65N_Cloud_Kit\src/tensorflow/lite/kernels/internal/reference\pad.h ****           if (out_b < left_b_padding ||
 9134                             		.loc 6 91 35
 9135 1919 47 45                   		cmp	r4, r5
 9136 191b 3A 99 F1                		beq	.L898
 9137                             	.LVL1088:
 9138 191e FE 24 7A                		mov.L	r10, [r4,r7]
 9139                             	.LVL1089:
  91:C:\Users\a5116938\Desktop\e2_studio_workspace\EEMBC_final\RX65N_Cloud_Kit\src/tensorflow/lite/kernels/internal/reference\pad.h ****           if (out_b < left_b_padding ||
 9140                             		.loc 6 91 9
 9141 1921 62 14                   		add	#1, r4
 9142                             	.LVL1090:
  91:C:\Users\a5116938\Desktop\e2_studio_workspace\EEMBC_final\RX65N_Cloud_Kit\src/tensorflow/lite/kernels/internal/reference\pad.h ****           if (out_b < left_b_padding ||
 9143                             		.loc 6 91 35
 9144 1923 47 45                   		cmp	r4, r5
 9145 1925 21 EF                   		bne	.L159
 9146 1927 38 8D F1                		bra	.L898
 9147                             	.LVL1091:
 9148                             	.L158:
 9149 192a 47 B9                   		cmp	r11, r9
 9150 192c 2B 10                   		ble	.L161
 9151                             	.LVL1092:
 9152 192e EF 00                   		.balign 8,3,5
 9153                             	.L162:
 9154 1930 FE 24 7A                		mov.L	r10, [r4,r7]
 9155                             	.LVL1093:
  91:C:\Users\a5116938\Desktop\e2_studio_workspace\EEMBC_final\RX65N_Cloud_Kit\src/tensorflow/lite/kernels/internal/reference\pad.h ****           if (out_b < left_b_padding ||
 9156                             		.loc 6 91 9
 9157 1933 62 14                   		add	#1, r4
 9158                             	.LVL1094:
  91:C:\Users\a5116938\Desktop\e2_studio_workspace\EEMBC_final\RX65N_Cloud_Kit\src/tensorflow/lite/kernels/internal/reference\pad.h ****           if (out_b < left_b_padding ||
 9159                             		.loc 6 91 35
 9160 1935 47 54                   		cmp	r5, r4
 9161 1937 21 F9                   		bne	.L162
 9162 1939 38 7B F1                		bra	.L898
 9163                             	.LVL1095:
 9164                             	.L161:
 9165 193c FE 24 7A                		mov.L	r10, [r4,r7]
 9166                             	.LVL1096:
  91:C:\Users\a5116938\Desktop\e2_studio_workspace\EEMBC_final\RX65N_Cloud_Kit\src/tensorflow/lite/kernels/internal/reference\pad.h ****           if (out_b < left_b_padding ||
 9167                             		.loc 6 91 9
 9168 193f 62 14                   		add	#1, r4
 9169                             	.LVL1097:
  91:C:\Users\a5116938\Desktop\e2_studio_workspace\EEMBC_final\RX65N_Cloud_Kit\src/tensorflow/lite/kernels/internal/reference\pad.h ****           if (out_b < left_b_padding ||
 9170                             		.loc 6 91 35
 9171 1941 47 45                   		cmp	r4, r5
 9172 1943 3A 71 F1                		beq	.L898
 9173                             	.LVL1098:
 9174 1946 FE 24 7A                		mov.L	r10, [r4,r7]
 9175                             	.LVL1099:
  91:C:\Users\a5116938\Desktop\e2_studio_workspace\EEMBC_final\RX65N_Cloud_Kit\src/tensorflow/lite/kernels/internal/reference\pad.h ****           if (out_b < left_b_padding ||
 9176                             		.loc 6 91 9
 9177 1949 62 14                   		add	#1, r4
 9178                             	.LVL1100:
  91:C:\Users\a5116938\Desktop\e2_studio_workspace\EEMBC_final\RX65N_Cloud_Kit\src/tensorflow/lite/kernels/internal/reference\pad.h ****           if (out_b < left_b_padding ||
 9179                             		.loc 6 91 35
 9180 194b 47 45                   		cmp	r4, r5
 9181 194d 21 EF                   		bne	.L161
 9182 194f 38 65 F1                		bra	.L898
 9183                             	.LVL1101:
 9184                             	.L441:
  91:C:\Users\a5116938\Desktop\e2_studio_workspace\EEMBC_final\RX65N_Cloud_Kit\src/tensorflow/lite/kernels/internal/reference\pad.h ****           if (out_b < left_b_padding ||
 9185                             		.loc 6 91 18
 9186 1952 66 04                   		mov.L	#0, r4
 9187                             	.LVL1102:
 9188 1954 76 10 01 00             		.balign 8,3,5
 9189                             	.L148:
 9190 1958 FE 24 7A                		mov.L	r10, [r4,r7]
 9191                             	.LVL1103:
  91:C:\Users\a5116938\Desktop\e2_studio_workspace\EEMBC_final\RX65N_Cloud_Kit\src/tensorflow/lite/kernels/internal/reference\pad.h ****           if (out_b < left_b_padding ||
 9192                             		.loc 6 91 9
 9193 195b 62 14                   		add	#1, r4
 9194                             	.LVL1104:
  91:C:\Users\a5116938\Desktop\e2_studio_workspace\EEMBC_final\RX65N_Cloud_Kit\src/tensorflow/lite/kernels/internal/reference\pad.h ****           if (out_b < left_b_padding ||
 9195                             		.loc 6 91 35
 9196 195d 47 54                   		cmp	r5, r4
 9197 195f 21 F9                   		bne	.L148
 9198 1961 38 53 F1                		bra	.L898
 9199                             	.LVL1105:
 9200                             	.L477:
 9201                             	.LBE1744:
 9202                             	.LBE1747:
 9203                             	.LBE1749:
 9204                             	.LBE1760:
 9205                             	.LBE1770:
 9206                             	.LBE1780:
 9207                             	.LBE1790:
 9208                             	.LBE1808:
 9209                             	.LBE2189:
 9210                             	.LBB2190:
 9211                             	.LBB1341:
 9212                             	.LBB1325:
 9213                             	.LBB1315:
 9214                             	.LBB1305:
 9215                             	.LBB1295:
 9216                             	.LBB1284:
 9217                             	.LBB1282:
 9218                             	.LBB1279:
  97:C:\Users\a5116938\Desktop\e2_studio_workspace\EEMBC_final\RX65N_Cloud_Kit\src/tensorflow/lite/kernels/internal/reference\pad.h ****               out_d < left_d_padding ||
 9219                             		.loc 6 97 37
 9220 1964 EF 4F                   		mov.L	r4, r15
 9221 1966 38 04 FF                		bra	.L334
 9222                             	.LVL1106:
 9223                             	.L465:
 9224                             	.LBE1279:
 9225                             	.LBE1282:
 9226                             	.LBE1284:
 9227                             	.LBE1295:
 9228                             	.LBE1305:
 9229                             	.LBE1315:
 9230                             	.LBE1325:
 9231                             	.LBE1341:
 9232                             	.LBE2190:
 9233                             	.LBB2191:
 9234                             	.LBB2121:
 9235                             	.LBB2105:
 9236                             	.LBB2095:
 9237                             	.LBB2085:
 9238                             	.LBB2075:
 9239                             	.LBB2064:
 9240                             	.LBB2062:
 9241                             	.LBB2059:
 9242 1969 EF 4F                   		mov.L	r4, r15
 9243 196b 38 0A FC                		bra	.L243
 9244                             	.LVL1107:
 9245                             	.L119:
 9246                             	.LBE2059:
 9247                             	.LBE2062:
 9248                             	.LBE2064:
 9249                             	.LBE2075:
 9250                             	.LBE2085:
 9251                             	.LBE2095:
 9252                             	.LBE2105:
 9253                             	.LBE2121:
 9254                             	.LBE2191:
 9255                             	.LBE2251:
 9256                             	.LBE2314:
 136:../src/tensorflow/lite/micro/kernels/pad.cc ****   const OpData* data = static_cast<const OpData*>(node->user_data);
 9257                             		.loc 1 136 3 discriminator 1
 9258 196e 05 00 00 00             		bsr	_abort
 9259                             	.LVL1108:
 9260                             	.LFE2854:
 9262 1972 74 10 01 00 00 00       		.section	.text._ZN6tflite3ops5micro12Register_PADEv,"ax",@progbits
 9263                             		.global	__ZN6tflite3ops5micro12Register_PADEv
 9265                             	__ZN6tflite3ops5micro12Register_PADEv:
 9266                             	.LFB2855:
 226:../src/tensorflow/lite/micro/kernels/pad.cc **** 
 227:../src/tensorflow/lite/micro/kernels/pad.cc **** }  // namespace pad
 228:../src/tensorflow/lite/micro/kernels/pad.cc **** 
 229:../src/tensorflow/lite/micro/kernels/pad.cc **** TfLiteRegistration Register_PAD() {
 9267                             		.loc 1 229 35 is_stmt 1
 230:../src/tensorflow/lite/micro/kernels/pad.cc ****   return {/*init=*/pad::Init,
 9268                             		.loc 1 230 3
 231:../src/tensorflow/lite/micro/kernels/pad.cc ****           /*free=*/nullptr,
 232:../src/tensorflow/lite/micro/kernels/pad.cc ****           /*prepare=*/pad::Prepare,
 233:../src/tensorflow/lite/micro/kernels/pad.cc ****           /*invoke=*/pad::Eval,
 234:../src/tensorflow/lite/micro/kernels/pad.cc ****           /*profiling_string=*/nullptr,
 235:../src/tensorflow/lite/micro/kernels/pad.cc ****           /*builtin_code=*/0,
 236:../src/tensorflow/lite/micro/kernels/pad.cc ****           /*custom_name=*/nullptr,
 237:../src/tensorflow/lite/micro/kernels/pad.cc ****           /*version=*/0};
 9269                             		.loc 1 237 24 is_stmt 0
 9270 0000 FB 22 00 00 00 00       		mov.L	#.LANCHOR0, r2
 9271 0006 EF F1                   		mov.L	r15, r1
 9272 0008 75 43 20                		mov.L	#32, r3
 9273 000b 7F 8F                   		smovf
 238:../src/tensorflow/lite/micro/kernels/pad.cc **** }
 9274                             		.loc 1 238 1
 9275 000d EF F1                   		mov.L	r15, r1
 9276 000f 02                      		rts
 9277                             	.LFE2855:
 9279                             		.section	.text._ZN6tflite3ops5micro14Register_PADV2Ev,"ax",@progbits
 9280                             		.global	__ZN6tflite3ops5micro14Register_PADV2Ev
 9282                             	__ZN6tflite3ops5micro14Register_PADV2Ev:
 9283                             	.LFB3772:
 9284 0000 FB 22 00 00 00 00       		mov.L	#.LANCHOR0, r2
 9285 0006 EF F1                   		mov.L	r15, r1
 9286 0008 75 43 20                		mov.L	#32, r3
 9287 000b 7F 8F                   		smovf
 9288 000d EF F1                   		mov.L	r15, r1
 9289 000f 02                      		rts
 9290                             	.LFE3772:
 9292                             		.section C,"a",@progbits
 9293                             		.p2align 2
 9294                             		.balign 4
 9295                             		.set	.LANCHOR0,. + 0
 9296                             	.LC0:
 9297 0000 00 00 00 00             		.long	__ZN6tflite3ops5micro3pad4InitEP13TfLiteContextPKcm
 9298 0004 00 00 00 00             		.long	0
 9299 0008 00 00 00 00             		.long	__ZN6tflite3ops5micro3pad7PrepareEP13TfLiteContextP10TfLiteNode
 9300 000c 00 00 00 00             		.long	__ZN6tflite3ops5micro3pad4EvalEP13TfLiteContextP10TfLiteNode
 9301 0010 00 00 00 00             		.long	0
 9302 0014 00 00 00 00             		.long	0
 9303 0018 00 00 00 00             		.long	0
 9304 001c 00 00 00 00             		.long	0
 9305                             		.section	.rodata._ZN6tflite3ops5micro3pad4EvalEP13TfLiteContextP10TfLiteNode.str1.1,"aMS",@progbit
 9306                             	.LC28:
 9307 0000 54 79 70 65 20 25 73 20 		.string	"Type %s not currently supported by Pad."
 9307      6E 6F 74 20 63 75 72 72 
 9307      65 6E 74 6C 79 20 73 75 
 9307      70 70 6F 72 74 65 64 20 
 9307      62 79 20 50 61 64 2E 00 
 9308                             		.section	.rodata._ZN6tflite3ops5micro3pad7PrepareEP13TfLiteContextP10TfLiteNode.str1.1,"aMS",@prog
 9309                             	.LC1:
 9310 0000 4E 75 6D 49 6E 70 75 74 		.string	"NumInputs(node) == 2 || NumInputs(node) == 3"
 9310      73 28 6E 6F 64 65 29 20 
 9310      3D 3D 20 32 20 7C 7C 20 
 9310      4E 75 6D 49 6E 70 75 74 
 9310      73 28 6E 6F 64 65 29 20 
 9311                             	.LC2:
 9312 002d 2E 2E 2F 73 72 63 2F 74 		.string	"../src/tensorflow/lite/micro/kernels/pad.cc"
 9312      65 6E 73 6F 72 66 6C 6F 
 9312      77 2F 6C 69 74 65 2F 6D 
 9312      69 63 72 6F 2F 6B 65 72 
 9312      6E 65 6C 73 2F 70 61 64 
 9313                             	.LC3:
 9314 0059 25 73 3A 25 64 20 25 73 		.string	"%s:%d %s was not true."
 9314      20 77 61 73 20 6E 6F 74 
 9314      20 74 72 75 65 2E 00 
 9315                             	.LC4:
 9316 0070 31 00                   		.string	"1"
 9317                             	.LC5:
 9318 0072 4E 75 6D 4F 75 74 70 75 		.string	"NumOutputs(node)"
 9318      74 73 28 6E 6F 64 65 29 
 9318      00 
 9319                             	.LC6:
 9320 0083 25 73 3A 25 64 20 25 73 		.string	"%s:%d %s != %s (%d != %d)"
 9320      20 21 3D 20 25 73 20 28 
 9320      25 64 20 21 3D 20 25 64 
 9320      29 00 
 9321                             	.LC7:
 9322 009d 69 6E 70 75 74 20 21 3D 		.string	"input != nullptr"
 9322      20 6E 75 6C 6C 70 74 72 
 9322      00 
 9323                             	.LC8:
 9324 00ae 70 61 64 64 69 6E 67 73 		.string	"paddings != nullptr"
 9324      20 21 3D 20 6E 75 6C 6C 
 9324      70 74 72 00 
 9325                             	.LC9:
 9326 00c2 6F 75 74 70 75 74 20 21 		.string	"output != nullptr"
 9326      3D 20 6E 75 6C 6C 70 74 
 9326      72 00 
 9327                             	.LC10:
 9328 00d4 6F 75 74 70 75 74 2D 3E 		.string	"output->type"
 9328      74 79 70 65 00 
 9329                             	.LC11:
 9330 00e1 69 6E 70 75 74 2D 3E 74 		.string	"input->type"
 9330      79 70 65 00 
 9331                             	.LC12:
 9332 00ed 4E 75 6D 44 69 6D 65 6E 		.string	"NumDimensions(input) <= reference_ops::PadKernelMaxDimensionCount()"
 9332      73 69 6F 6E 73 28 69 6E 
 9332      70 75 74 29 20 3C 3D 20 
 9332      72 65 66 65 72 65 6E 63 
 9332      65 5F 6F 70 73 3A 3A 50 
 9333                             	.LC13:
 9334 0131 63 6F 6E 73 74 61 6E 74 		.string	"constant_values->type"
 9334      5F 76 61 6C 75 65 73 2D 
 9334      3E 74 79 70 65 00 
 9335                             	.LC14:
 9336 0147 4E 75 6D 45 6C 65 6D 65 		.string	"NumElements(constant_values)"
 9336      6E 74 73 28 63 6F 6E 73 
 9336      74 61 6E 74 5F 76 61 6C 
 9336      75 65 73 29 00 
 9337                             	.LC15:
 9338 0164 6F 75 74 70 75 74 2D 3E 		.string	"output->dims->size * 2"
 9338      64 69 6D 73 2D 3E 73 69 
 9338      7A 65 20 2A 20 32 00 
 9339                             	.LC16:
 9340 017b 47 65 74 54 65 6E 73 6F 		.string	"GetTensorShape(paddings).FlatSize()"
 9340      72 53 68 61 70 65 28 70 
 9340      61 64 64 69 6E 67 73 29 
 9340      2E 46 6C 61 74 53 69 7A 
 9340      65 28 29 00 
 9341                             	.LC17:
 9342 019f 49 73 43 6F 6E 73 74 61 		.string	"IsConstantTensor(paddings)"
 9342      6E 74 54 65 6E 73 6F 72 
 9342      28 70 61 64 64 69 6E 67 
 9342      73 29 00 
 9343                             	.LC18:
 9344 01ba 65 78 70 65 63 74 65 64 		.string	"expected_dim"
 9344      5F 64 69 6D 00 
 9345                             	.LC19:
 9346 01c7 6F 75 74 70 75 74 5F 64 		.string	"output_dim"
 9346      69 6D 00 
 9347                             	.LC20:
 9348 01d2 6F 75 74 70 75 74 2D 3E 		.string	"output->params.zero_point >= std::numeric_limits<uint8_t>::min()"
 9348      70 61 72 61 6D 73 2E 7A 
 9348      65 72 6F 5F 70 6F 69 6E 
 9348      74 20 3E 3D 20 73 74 64 
 9348      3A 3A 6E 75 6D 65 72 69 
 9349                             	.LC21:
 9350 0213 6F 75 74 70 75 74 2D 3E 		.string	"output->params.zero_point <= std::numeric_limits<uint8_t>::max()"
 9350      70 61 72 61 6D 73 2E 7A 
 9350      65 72 6F 5F 70 6F 69 6E 
 9350      74 20 3C 3D 20 73 74 64 
 9350      3A 3A 6E 75 6D 65 72 69 
 9351                             	.LC22:
 9352 0254 6F 75 74 70 75 74 2D 3E 		.string	"output->params.zero_point >= std::numeric_limits<int8_t>::min()"
 9352      70 61 72 61 6D 73 2E 7A 
 9352      65 72 6F 5F 70 6F 69 6E 
 9352      74 20 3E 3D 20 73 74 64 
 9352      3A 3A 6E 75 6D 65 72 69 
 9353                             	.LC23:
 9354 0294 6F 75 74 70 75 74 2D 3E 		.string	"output->params.zero_point <= std::numeric_limits<int8_t>::max()"
 9354      70 61 72 61 6D 73 2E 7A 
 9354      65 72 6F 5F 70 6F 69 6E 
 9354      74 20 3C 3D 20 73 74 64 
 9354      3A 3A 6E 75 6D 65 72 69 
 9355                             	.LC24:
 9356 02d4 63 6F 6E 73 74 61 6E 74 		.string	"constant_values->params.zero_point"
 9356      5F 76 61 6C 75 65 73 2D 
 9356      3E 70 61 72 61 6D 73 2E 
 9356      7A 65 72 6F 5F 70 6F 69 
 9356      6E 74 00 
 9357                             	.LC25:
 9358 02f7 6F 75 74 70 75 74 2D 3E 		.string	"output->params.zero_point"
 9358      70 61 72 61 6D 73 2E 7A 
 9358      65 72 6F 5F 70 6F 69 6E 
 9358      74 00 
 9359                             	.LC26:
 9360 0311 73 74 61 74 69 63 5F 63 		.string	"static_cast<double>(constant_values->params.scale)"
 9360      61 73 74 3C 64 6F 75 62 
 9360      6C 65 3E 28 63 6F 6E 73 
 9360      74 61 6E 74 5F 76 61 6C 
 9360      75 65 73 2D 3E 70 61 72 
 9361                             	.LC27:
 9362 0344 73 74 61 74 69 63 5F 63 		.string	"static_cast<double>(output->params.scale)"
 9362      61 73 74 3C 64 6F 75 62 
 9362      6C 65 3E 28 6F 75 74 70 
 9362      75 74 2D 3E 70 61 72 61 
 9362      6D 73 2E 73 63 61 6C 65 
 9469                             	.Letext0:
 9470                             		.file 7 "c:\\gcc for renesas rx 8.3.0.202004-gnurx-elf\\rx-elf\\rx-elf\\rx-elf\\include\\c++\\8.3.
 9471                             		.file 8 "c:\\gcc for renesas rx 8.3.0.202004-gnurx-elf\\rx-elf\\rx-elf\\rx-elf\\include\\c++\\8.3.
 9472                             		.file 9 "c:\\gcc for renesas rx 8.3.0.202004-gnurx-elf\\rx-elf\\rx-elf\\rx-elf\\include\\c++\\8.3.
 9473                             		.file 10 "c:\\gcc for renesas rx 8.3.0.202004-gnurx-elf\\rx-elf\\rx-elf\\rx-elf\\include\\c++\\8.3
 9474                             		.file 11 "c:\\gcc for renesas rx 8.3.0.202004-gnurx-elf\\rx-elf\\rx-elf\\rx-elf\\include\\c++\\8.3
 9475                             		.file 12 "c:\\gcc for renesas rx 8.3.0.202004-gnurx-elf\\rx-elf\\rx-elf\\rx-elf\\include\\c++\\8.3
 9476                             		.file 13 "c:\\gcc for renesas rx 8.3.0.202004-gnurx-elf\\rx-elf\\rx-elf\\rx-elf\\include\\c++\\8.3
 9477                             		.file 14 "c:\\gcc for renesas rx 8.3.0.202004-gnurx-elf\\rx-elf\\rx-elf\\rx-elf\\include\\c++\\8.3
 9478                             		.file 15 "c:\\gcc for renesas rx 8.3.0.202004-gnurx-elf\\rx-elf\\rx-elf\\rx-elf\\include\\c++\\8.3
 9479                             		.file 16 "c:\\gcc for renesas rx 8.3.0.202004-gnurx-elf\\rx-elf\\rx-elf\\rx-elf\\include\\c++\\8.3
 9480                             		.file 17 "c:\\gcc for renesas rx 8.3.0.202004-gnurx-elf\\rx-elf\\rx-elf\\rx-elf\\include\\c++\\8.3
 9481                             		.file 18 "c:\\gcc for renesas rx 8.3.0.202004-gnurx-elf\\rx-elf\\rx-elf\\rx-elf\\include\\c++\\8.3
 9482                             		.file 19 "c:\\gcc for renesas rx 8.3.0.202004-gnurx-elf\\rx-elf\\rx-elf\\rx-elf\\include\\c++\\8.3
 9483                             		.file 20 "c:\\gcc for renesas rx 8.3.0.202004-gnurx-elf\\rx-elf\\rx-elf\\rx-elf\\include\\c++\\8.3
 9484                             		.file 21 "c:\\gcc for renesas rx 8.3.0.202004-gnurx-elf\\rx-elf\\rx-elf\\rx-elf\\include\\c++\\8.3
 9485                             		.file 22 "c:\\gcc for renesas rx 8.3.0.202004-gnurx-elf\\rx-elf\\rx-elf\\rx-elf\\include\\c++\\8.3
 9486                             		.file 23 "c:\\gcc for renesas rx 8.3.0.202004-gnurx-elf\\rx-elf\\rx-elf\\rx-elf\\include\\c++\\8.3
 9487                             		.file 24 "c:\\gcc for renesas rx 8.3.0.202004-gnurx-elf\\rx-elf\\rx-elf\\rx-elf\\include\\c++\\8.3
 9488                             		.file 25 "c:\\gcc for renesas rx 8.3.0.202004-gnurx-elf\\rx-elf\\rx-elf\\rx-elf\\include\\c++\\8.3
 9489                             		.file 26 "c:\\gcc for renesas rx 8.3.0.202004-gnurx-elf\\rx-elf\\rx-elf\\rx-elf\\include\\c++\\8.3
 9490                             		.file 27 "c:\\gcc for renesas rx 8.3.0.202004-gnurx-elf\\rx-elf\\rx-elf\\rx-elf\\include\\c++\\8.3
 9491                             		.file 28 "c:\\gcc for renesas rx 8.3.0.202004-gnurx-elf\\rx-elf\\rx-elf\\lib\\gcc\\rx-elf\\8.3.0.2
 9492                             		.file 29 "c:\\gcc for renesas rx 8.3.0.202004-gnurx-elf\\rx-elf\\rx-elf\\rx-elf\\include\\machine\
 9493                             		.file 30 "c:\\gcc for renesas rx 8.3.0.202004-gnurx-elf\\rx-elf\\rx-elf\\rx-elf\\include\\sys\\loc
 9494                             		.file 31 "c:\\gcc for renesas rx 8.3.0.202004-gnurx-elf\\rx-elf\\rx-elf\\rx-elf\\include\\sys\\_ty
 9495                             		.file 32 "c:\\gcc for renesas rx 8.3.0.202004-gnurx-elf\\rx-elf\\rx-elf\\rx-elf\\include\\sys\\ree
 9496                             		.file 33 "c:\\gcc for renesas rx 8.3.0.202004-gnurx-elf\\rx-elf\\rx-elf\\rx-elf\\include\\stdlib.h
 9497                             		.file 34 "c:\\gcc for renesas rx 8.3.0.202004-gnurx-elf\\rx-elf\\rx-elf\\rx-elf\\include\\sys\\_st
 9498                             		.file 35 "c:\\gcc for renesas rx 8.3.0.202004-gnurx-elf\\rx-elf\\rx-elf\\rx-elf\\include\\stdint.h
 9499                             		.file 36 "c:\\gcc for renesas rx 8.3.0.202004-gnurx-elf\\rx-elf\\rx-elf\\rx-elf\\include\\string.h
 9500                             		.file 37 "c:\\gcc for renesas rx 8.3.0.202004-gnurx-elf\\rx-elf\\rx-elf\\lib\\gcc\\rx-elf\\8.3.0.2
 9501                             		.file 38 "c:\\gcc for renesas rx 8.3.0.202004-gnurx-elf\\rx-elf\\rx-elf\\rx-elf\\include\\stdio.h"
 9502                             		.file 39 "C:\\Users\\a5116938\\Desktop\\e2_studio_workspace\\EEMBC_final\\RX65N_Cloud_Kit\\src/ten
 9503                             		.file 40 "c:\\gcc for renesas rx 8.3.0.202004-gnurx-elf\\rx-elf\\rx-elf\\rx-elf\\include\\math.h"
 9504                             		.file 41 "c:\\gcc for renesas rx 8.3.0.202004-gnurx-elf\\rx-elf\\rx-elf\\rx-elf\\include\\wchar.h"
 9505                             		.file 42 "c:\\gcc for renesas rx 8.3.0.202004-gnurx-elf\\rx-elf\\rx-elf\\rx-elf\\include\\locale.h
 9506                             		.file 43 "c:\\gcc for renesas rx 8.3.0.202004-gnurx-elf\\rx-elf\\rx-elf\\rx-elf\\include\\ctype.h"
 9507                             		.file 44 "c:\\gcc for renesas rx 8.3.0.202004-gnurx-elf\\rx-elf\\rx-elf\\rx-elf\\include\\sys\\err
 9508                             		.file 45 "c:\\gcc for renesas rx 8.3.0.202004-gnurx-elf\\rx-elf\\rx-elf\\rx-elf\\include\\wctype.h
 9509                             		.file 46 "<built-in>"
