   1                             		.file	"quantization_util.cc"
   2                             		.section P,"ax"
   3                             	.Ltext0:
   4                             		.global	___fixsfdi
   5                             		.section	.text._ZN6tflite18QuantizeMultiplierEdPlPi,"ax",@progbits
   6                             		.global	__ZN6tflite18QuantizeMultiplierEdPlPi
   8                             	__ZN6tflite18QuantizeMultiplierEdPlPi:
   9                             	.LFB1174:
  10                             		.file 1 "../src/tensorflow/lite/kernels/internal/quantization_util.cc"
   1:../src/tensorflow/lite/kernels/internal/quantization_util.cc **** /* Copyright 2017 The TensorFlow Authors. All Rights Reserved.
   2:../src/tensorflow/lite/kernels/internal/quantization_util.cc **** 
   3:../src/tensorflow/lite/kernels/internal/quantization_util.cc **** Licensed under the Apache License, Version 2.0 (the "License");
   4:../src/tensorflow/lite/kernels/internal/quantization_util.cc **** you may not use this file except in compliance with the License.
   5:../src/tensorflow/lite/kernels/internal/quantization_util.cc **** You may obtain a copy of the License at
   6:../src/tensorflow/lite/kernels/internal/quantization_util.cc **** 
   7:../src/tensorflow/lite/kernels/internal/quantization_util.cc ****     http://www.apache.org/licenses/LICENSE-2.0
   8:../src/tensorflow/lite/kernels/internal/quantization_util.cc **** 
   9:../src/tensorflow/lite/kernels/internal/quantization_util.cc **** Unless required by applicable law or agreed to in writing, software
  10:../src/tensorflow/lite/kernels/internal/quantization_util.cc **** distributed under the License is distributed on an "AS IS" BASIS,
  11:../src/tensorflow/lite/kernels/internal/quantization_util.cc **** WITHOUT WARRANTIES OR CONDITIONS OF ANY KIND, either express or implied.
  12:../src/tensorflow/lite/kernels/internal/quantization_util.cc **** See the License for the specific language governing permissions and
  13:../src/tensorflow/lite/kernels/internal/quantization_util.cc **** limitations under the License.
  14:../src/tensorflow/lite/kernels/internal/quantization_util.cc **** ==============================================================================*/
  15:../src/tensorflow/lite/kernels/internal/quantization_util.cc **** 
  16:../src/tensorflow/lite/kernels/internal/quantization_util.cc **** #include "tensorflow/lite/kernels/internal/quantization_util.h"
  17:../src/tensorflow/lite/kernels/internal/quantization_util.cc **** 
  18:../src/tensorflow/lite/kernels/internal/quantization_util.cc **** #include <algorithm>
  19:../src/tensorflow/lite/kernels/internal/quantization_util.cc **** #include <cmath>
  20:../src/tensorflow/lite/kernels/internal/quantization_util.cc **** #include <limits>
  21:../src/tensorflow/lite/kernels/internal/quantization_util.cc **** 
  22:../src/tensorflow/lite/kernels/internal/quantization_util.cc **** #include "tensorflow/lite/kernels/internal/compatibility.h"
  23:../src/tensorflow/lite/kernels/internal/quantization_util.cc **** #include "tensorflow/lite/kernels/internal/cppmath.h"
  24:../src/tensorflow/lite/kernels/internal/quantization_util.cc **** 
  25:../src/tensorflow/lite/kernels/internal/quantization_util.cc **** namespace tflite {
  26:../src/tensorflow/lite/kernels/internal/quantization_util.cc **** 
  27:../src/tensorflow/lite/kernels/internal/quantization_util.cc **** namespace {
  28:../src/tensorflow/lite/kernels/internal/quantization_util.cc **** // These constants are used to manipulate the binary representation of doubles.
  29:../src/tensorflow/lite/kernels/internal/quantization_util.cc **** // Double-precision binary64 floating point format is:
  30:../src/tensorflow/lite/kernels/internal/quantization_util.cc **** // Bit |  63  |  62-52   |   51-0   |
  31:../src/tensorflow/lite/kernels/internal/quantization_util.cc **** //     | Sign | Exponent | Fraction |
  32:../src/tensorflow/lite/kernels/internal/quantization_util.cc **** // To avoid 64-bit integers as much as possible, I break this into high and
  33:../src/tensorflow/lite/kernels/internal/quantization_util.cc **** // low 32-bit chunks. High is:
  34:../src/tensorflow/lite/kernels/internal/quantization_util.cc **** // Bit |  31  |  30-20   |      19-0     |
  35:../src/tensorflow/lite/kernels/internal/quantization_util.cc **** //     | Sign | Exponent | High Fraction |
  36:../src/tensorflow/lite/kernels/internal/quantization_util.cc **** // Low is:
  37:../src/tensorflow/lite/kernels/internal/quantization_util.cc **** // Bit |     31-0     |
  38:../src/tensorflow/lite/kernels/internal/quantization_util.cc **** //     | Low Fraction |
  39:../src/tensorflow/lite/kernels/internal/quantization_util.cc **** // We then access the components through logical bit-wise operations to
  40:../src/tensorflow/lite/kernels/internal/quantization_util.cc **** // extract the parts needed, with the positions and masks derived from the
  41:../src/tensorflow/lite/kernels/internal/quantization_util.cc **** // layout shown above.
  42:../src/tensorflow/lite/kernels/internal/quantization_util.cc **** constexpr uint64_t kSignMask = 0x8000000000000000LL;
  43:../src/tensorflow/lite/kernels/internal/quantization_util.cc **** constexpr uint64_t kExponentMask = 0x7ff0000000000000LL;
  44:../src/tensorflow/lite/kernels/internal/quantization_util.cc **** constexpr int32_t kExponentShift = 52;
  45:../src/tensorflow/lite/kernels/internal/quantization_util.cc **** constexpr int32_t kExponentBias = 1023;
  46:../src/tensorflow/lite/kernels/internal/quantization_util.cc **** constexpr uint32_t kExponentIsBadNum = 0x7ff;
  47:../src/tensorflow/lite/kernels/internal/quantization_util.cc **** constexpr uint64_t kFractionMask = 0x000fffffffc00000LL;
  48:../src/tensorflow/lite/kernels/internal/quantization_util.cc **** constexpr uint32_t kFractionShift = 22;
  49:../src/tensorflow/lite/kernels/internal/quantization_util.cc **** constexpr uint32_t kFractionRoundingMask = 0x003fffff;
  50:../src/tensorflow/lite/kernels/internal/quantization_util.cc **** constexpr uint32_t kFractionRoundingThreshold = 0x00200000;
  51:../src/tensorflow/lite/kernels/internal/quantization_util.cc **** }  // namespace
  52:../src/tensorflow/lite/kernels/internal/quantization_util.cc **** 
  53:../src/tensorflow/lite/kernels/internal/quantization_util.cc **** void QuantizeMultiplier(double double_multiplier, int32_t* quantized_multiplier,
  54:../src/tensorflow/lite/kernels/internal/quantization_util.cc ****                         int* shift) {
  11                             		.loc 1 54 37
  12                             	.LVL0:
  55:../src/tensorflow/lite/kernels/internal/quantization_util.cc ****   if (double_multiplier == 0.) {
  13                             		.loc 1 55 3
  14 0000 FD 72 11 00 00 00 00    		fcmp	#0x0, r1
  15 0007 18                      		bne	.L2
  56:../src/tensorflow/lite/kernels/internal/quantization_util.cc ****     *quantized_multiplier = 0;
  16                             		.loc 1 56 5
  17                             		.loc 1 56 27 is_stmt 0
  18 0008 F8 26 00                		mov.L	#0, [r2]
  57:../src/tensorflow/lite/kernels/internal/quantization_util.cc ****     *shift = 0;
  19                             		.loc 1 57 5 is_stmt 1
  20                             		.loc 1 57 12 is_stmt 0
  21 000b F8 36 00                		mov.L	#0, [r3]
  58:../src/tensorflow/lite/kernels/internal/quantization_util.cc ****     return;
  22                             		.loc 1 58 5 is_stmt 1
  23                             	.LVL1:
  24 000e 02                      		rts
  25                             	.L2:
  54:../src/tensorflow/lite/kernels/internal/quantization_util.cc ****   if (double_multiplier == 0.) {
  26                             		.loc 1 54 37 is_stmt 0
  27 000f 6E 7A                   		pushm	r7-r10
  28                             	.LCFI0:
  29 0011 EF 37                   		mov.L	r3, r7
  30 0013 EF 2A                   		mov.L	r2, r10
  31                             	.LVL2:
  32                             	.LBB51:
  33                             	.LBB52:
  59:../src/tensorflow/lite/kernels/internal/quantization_util.cc ****   }
  60:../src/tensorflow/lite/kernels/internal/quantization_util.cc **** #ifdef TFLITE_EMULATE_FLOAT
  61:../src/tensorflow/lite/kernels/internal/quantization_util.cc ****   // If we're trying to avoid the use of floating-point instructions (for
  62:../src/tensorflow/lite/kernels/internal/quantization_util.cc ****   // example on microcontrollers) then use an alternative implementation
  63:../src/tensorflow/lite/kernels/internal/quantization_util.cc ****   // that only requires integer and bitwise operations. To enable this, you
  64:../src/tensorflow/lite/kernels/internal/quantization_util.cc ****   // need to set the define during the build process for your platform.
  65:../src/tensorflow/lite/kernels/internal/quantization_util.cc ****   int64_t q_fixed = IntegerFrExp(double_multiplier, shift);
  66:../src/tensorflow/lite/kernels/internal/quantization_util.cc **** #else   // TFLITE_EMULATE_FLOAT
  67:../src/tensorflow/lite/kernels/internal/quantization_util.cc ****   const double q = std::frexp(double_multiplier, shift);
  34                             		.loc 1 67 3 is_stmt 1
  35                             		.loc 1 67 30 is_stmt 0
  36 0015 EF 32                   		mov.L	r3, r2
  37                             	.LVL3:
  38 0017 05 00 00 00             		bsr	_frexp
  39                             	.LVL4:
  68:../src/tensorflow/lite/kernels/internal/quantization_util.cc ****   auto q_fixed = static_cast<int64_t>(TfLiteRound(q * (1ll << 31)));
  40                             		.loc 1 68 3 is_stmt 1
  41                             	.LBB53:
  42                             	.LBB54:
  43                             		.file 2 "C:\\Users\\a5116938\\Desktop\\e2_studio_workspace\\EEMBC_final\\RX65N_Cloud_Kit\\src/tens
   1:C:\Users\a5116938\Desktop\e2_studio_workspace\EEMBC_final\RX65N_Cloud_Kit\src/tensorflow/lite/kernels/internal\cppmath.h **** /* Copyright 2020 The TensorFlow Authors. All Rights Reserved.
   2:C:\Users\a5116938\Desktop\e2_studio_workspace\EEMBC_final\RX65N_Cloud_Kit\src/tensorflow/lite/kernels/internal\cppmath.h **** 
   3:C:\Users\a5116938\Desktop\e2_studio_workspace\EEMBC_final\RX65N_Cloud_Kit\src/tensorflow/lite/kernels/internal\cppmath.h **** Licensed under the Apache License, Version 2.0 (the "License");
   4:C:\Users\a5116938\Desktop\e2_studio_workspace\EEMBC_final\RX65N_Cloud_Kit\src/tensorflow/lite/kernels/internal\cppmath.h **** you may not use this file except in compliance with the License.
   5:C:\Users\a5116938\Desktop\e2_studio_workspace\EEMBC_final\RX65N_Cloud_Kit\src/tensorflow/lite/kernels/internal\cppmath.h **** You may obtain a copy of the License at
   6:C:\Users\a5116938\Desktop\e2_studio_workspace\EEMBC_final\RX65N_Cloud_Kit\src/tensorflow/lite/kernels/internal\cppmath.h **** 
   7:C:\Users\a5116938\Desktop\e2_studio_workspace\EEMBC_final\RX65N_Cloud_Kit\src/tensorflow/lite/kernels/internal\cppmath.h ****     http://www.apache.org/licenses/LICENSE-2.0
   8:C:\Users\a5116938\Desktop\e2_studio_workspace\EEMBC_final\RX65N_Cloud_Kit\src/tensorflow/lite/kernels/internal\cppmath.h **** 
   9:C:\Users\a5116938\Desktop\e2_studio_workspace\EEMBC_final\RX65N_Cloud_Kit\src/tensorflow/lite/kernels/internal\cppmath.h **** Unless required by applicable law or agreed to in writing, software
  10:C:\Users\a5116938\Desktop\e2_studio_workspace\EEMBC_final\RX65N_Cloud_Kit\src/tensorflow/lite/kernels/internal\cppmath.h **** distributed under the License is distributed on an "AS IS" BASIS,
  11:C:\Users\a5116938\Desktop\e2_studio_workspace\EEMBC_final\RX65N_Cloud_Kit\src/tensorflow/lite/kernels/internal\cppmath.h **** WITHOUT WARRANTIES OR CONDITIONS OF ANY KIND, either express or implied.
  12:C:\Users\a5116938\Desktop\e2_studio_workspace\EEMBC_final\RX65N_Cloud_Kit\src/tensorflow/lite/kernels/internal\cppmath.h **** See the License for the specific language governing permissions and
  13:C:\Users\a5116938\Desktop\e2_studio_workspace\EEMBC_final\RX65N_Cloud_Kit\src/tensorflow/lite/kernels/internal\cppmath.h **** limitations under the License.
  14:C:\Users\a5116938\Desktop\e2_studio_workspace\EEMBC_final\RX65N_Cloud_Kit\src/tensorflow/lite/kernels/internal\cppmath.h **** ==============================================================================*/
  15:C:\Users\a5116938\Desktop\e2_studio_workspace\EEMBC_final\RX65N_Cloud_Kit\src/tensorflow/lite/kernels/internal\cppmath.h **** #ifndef TENSORFLOW_LITE_KERNELS_INTERNAL_CPPMATH_H_
  16:C:\Users\a5116938\Desktop\e2_studio_workspace\EEMBC_final\RX65N_Cloud_Kit\src/tensorflow/lite/kernels/internal\cppmath.h **** #define TENSORFLOW_LITE_KERNELS_INTERNAL_CPPMATH_H_
  17:C:\Users\a5116938\Desktop\e2_studio_workspace\EEMBC_final\RX65N_Cloud_Kit\src/tensorflow/lite/kernels/internal\cppmath.h **** 
  18:C:\Users\a5116938\Desktop\e2_studio_workspace\EEMBC_final\RX65N_Cloud_Kit\src/tensorflow/lite/kernels/internal\cppmath.h **** #include <cmath>
  19:C:\Users\a5116938\Desktop\e2_studio_workspace\EEMBC_final\RX65N_Cloud_Kit\src/tensorflow/lite/kernels/internal\cppmath.h **** 
  20:C:\Users\a5116938\Desktop\e2_studio_workspace\EEMBC_final\RX65N_Cloud_Kit\src/tensorflow/lite/kernels/internal\cppmath.h **** namespace tflite {
  21:C:\Users\a5116938\Desktop\e2_studio_workspace\EEMBC_final\RX65N_Cloud_Kit\src/tensorflow/lite/kernels/internal\cppmath.h **** 
  22:C:\Users\a5116938\Desktop\e2_studio_workspace\EEMBC_final\RX65N_Cloud_Kit\src/tensorflow/lite/kernels/internal\cppmath.h **** #if defined(TF_LITE_USE_GLOBAL_CMATH_FUNCTIONS) ||                           \
  23:C:\Users\a5116938\Desktop\e2_studio_workspace\EEMBC_final\RX65N_Cloud_Kit\src/tensorflow/lite/kernels/internal\cppmath.h ****     (defined(__ANDROID__) && !defined(__NDK_MAJOR__)) || defined(ARDUINO) || \
  24:C:\Users\a5116938\Desktop\e2_studio_workspace\EEMBC_final\RX65N_Cloud_Kit\src/tensorflow/lite/kernels/internal\cppmath.h ****     defined(__ZEPHYR__)
  25:C:\Users\a5116938\Desktop\e2_studio_workspace\EEMBC_final\RX65N_Cloud_Kit\src/tensorflow/lite/kernels/internal\cppmath.h **** #define TF_LITE_GLOBAL_STD_PREFIX
  26:C:\Users\a5116938\Desktop\e2_studio_workspace\EEMBC_final\RX65N_Cloud_Kit\src/tensorflow/lite/kernels/internal\cppmath.h **** #else
  27:C:\Users\a5116938\Desktop\e2_studio_workspace\EEMBC_final\RX65N_Cloud_Kit\src/tensorflow/lite/kernels/internal\cppmath.h **** #define TF_LITE_GLOBAL_STD_PREFIX std
  28:C:\Users\a5116938\Desktop\e2_studio_workspace\EEMBC_final\RX65N_Cloud_Kit\src/tensorflow/lite/kernels/internal\cppmath.h **** #endif
  29:C:\Users\a5116938\Desktop\e2_studio_workspace\EEMBC_final\RX65N_Cloud_Kit\src/tensorflow/lite/kernels/internal\cppmath.h **** 
  30:C:\Users\a5116938\Desktop\e2_studio_workspace\EEMBC_final\RX65N_Cloud_Kit\src/tensorflow/lite/kernels/internal\cppmath.h **** #define DECLARE_STD_GLOBAL_SWITCH1(tf_name, std_name) \
  31:C:\Users\a5116938\Desktop\e2_studio_workspace\EEMBC_final\RX65N_Cloud_Kit\src/tensorflow/lite/kernels/internal\cppmath.h ****   template <class T>                                  \
  32:C:\Users\a5116938\Desktop\e2_studio_workspace\EEMBC_final\RX65N_Cloud_Kit\src/tensorflow/lite/kernels/internal\cppmath.h ****   inline T tf_name(const T x) {                       \
  33:C:\Users\a5116938\Desktop\e2_studio_workspace\EEMBC_final\RX65N_Cloud_Kit\src/tensorflow/lite/kernels/internal\cppmath.h ****     return TF_LITE_GLOBAL_STD_PREFIX::std_name(x);    \
  34:C:\Users\a5116938\Desktop\e2_studio_workspace\EEMBC_final\RX65N_Cloud_Kit\src/tensorflow/lite/kernels/internal\cppmath.h ****   }
  35:C:\Users\a5116938\Desktop\e2_studio_workspace\EEMBC_final\RX65N_Cloud_Kit\src/tensorflow/lite/kernels/internal\cppmath.h **** 
  36:C:\Users\a5116938\Desktop\e2_studio_workspace\EEMBC_final\RX65N_Cloud_Kit\src/tensorflow/lite/kernels/internal\cppmath.h **** DECLARE_STD_GLOBAL_SWITCH1(TfLiteRound, round);
  44                             		.loc 2 36 1 is_stmt 0
  45 001b FD 72 31 00 00 00 4F    		fmul	#0x4f000000, r1
  46                             	.LVL5:
  47 0022 05 00 00 00             		bsr	_round
  48                             	.LVL6:
  49                             	.LBE54:
  50                             	.LBE53:
  51                             		.loc 1 68 18
  52 0026 05 00 00 00             		bsr	___fixsfdi
  53                             	.LVL7:
  54 002a EF 15                   		mov.L	r1, r5
  55                             	.LVL8:
  69:../src/tensorflow/lite/kernels/internal/quantization_util.cc **** #endif  // TFLITE_EMULATE_FLOAT
  70:../src/tensorflow/lite/kernels/internal/quantization_util.cc ****   TFLITE_CHECK(q_fixed <= (1ll << 31));
  56                             		.loc 1 70 3 is_stmt 1
  57 002c 61 02                   		cmp	#0, r2
  58 002e 2A 35                   		bgt	.L9
  59 0030 20 2B                   		beq	.L14
  60                             		.balign 8,3,1
  61                             	.L4:
  71:../src/tensorflow/lite/kernels/internal/quantization_util.cc ****   if (q_fixed == (1ll << 31)) {
  62                             		.loc 1 71 3
  63 0032 EC 74                   		mov.L	[r7], r4
  64 0034 74 01 00 00 00 80       		cmp	#-2147483648, r1
  65 003a 20 11                   		beq	.L15
  66                             	.LVL9:
  67                             		.balign 8,3,2
  68                             	.L6:
  72:../src/tensorflow/lite/kernels/internal/quantization_util.cc ****     q_fixed /= 2;
  73:../src/tensorflow/lite/kernels/internal/quantization_util.cc ****     ++*shift;
  74:../src/tensorflow/lite/kernels/internal/quantization_util.cc ****   }
  75:../src/tensorflow/lite/kernels/internal/quantization_util.cc ****   TFLITE_CHECK_LE(q_fixed, std::numeric_limits<int32_t>::max());
  76:../src/tensorflow/lite/kernels/internal/quantization_util.cc ****   // A shift amount smaller than -31 would cause all bits to be shifted out
  77:../src/tensorflow/lite/kernels/internal/quantization_util.cc ****   // and thus all results would be zero. We implement that instead with
  78:../src/tensorflow/lite/kernels/internal/quantization_util.cc ****   // q_fixed==0, so as to avoid hitting issues with right-shift
  79:../src/tensorflow/lite/kernels/internal/quantization_util.cc ****   // operations with shift amounts greater than 31. Note that this happens
  80:../src/tensorflow/lite/kernels/internal/quantization_util.cc ****   // roughly when abs(double_multiplier) < 2^-31 and the present handling means
  81:../src/tensorflow/lite/kernels/internal/quantization_util.cc ****   // that we're effectively flushing tiny double_multiplier's to zero.
  82:../src/tensorflow/lite/kernels/internal/quantization_util.cc ****   // We could conceivably handle values in the range (roughly) [32, 63]
  83:../src/tensorflow/lite/kernels/internal/quantization_util.cc ****   // as 'denormals' i.e. (shift==0, q_fixed < 2^30). In that point of view
  84:../src/tensorflow/lite/kernels/internal/quantization_util.cc ****   // the present handling is just doing 'flush denormals to zero'. We could
  85:../src/tensorflow/lite/kernels/internal/quantization_util.cc ****   // reconsider and actually generate nonzero denormals if a need arises.
  86:../src/tensorflow/lite/kernels/internal/quantization_util.cc ****   if (*shift < -31) {
  69                             		.loc 1 86 3
  70 003c 75 04 E1                		cmp	#-31, r4
  71 003f 28 07                   		bge	.L8
  87:../src/tensorflow/lite/kernels/internal/quantization_util.cc ****     *shift = 0;
  72                             		.loc 1 87 5
  73                             		.loc 1 87 12 is_stmt 0
  74 0041 66 05                   		mov.L	#0, r5
  75 0043 F8 76 00                		mov.L	#0, [r7]
  88:../src/tensorflow/lite/kernels/internal/quantization_util.cc ****     q_fixed = 0;
  76                             		.loc 1 88 5 is_stmt 1
  77                             	.LVL10:
  78                             		.balign 8,3,1
  79                             	.L8:
  89:../src/tensorflow/lite/kernels/internal/quantization_util.cc ****   }
  90:../src/tensorflow/lite/kernels/internal/quantization_util.cc ****   *quantized_multiplier = static_cast<int32_t>(q_fixed);
  80                             		.loc 1 90 3
  81                             		.loc 1 90 25 is_stmt 0
  82 0046 E3 A5                   		mov.L	r5, [r10]
  83                             	.LBE52:
  84                             	.LBE51:
  91:../src/tensorflow/lite/kernels/internal/quantization_util.cc **** }
  85                             		.loc 1 91 1
  86 0048 3F 7A 04                		rtsd	#16, r7-r10
  87                             	.LVL11:
  88                             	.L15:
  89                             	.LBB56:
  90                             	.LBB55:
  71:../src/tensorflow/lite/kernels/internal/quantization_util.cc ****     q_fixed /= 2;
  91                             		.loc 1 71 3
  92 004b 61 02                   		cmp	#0, r2
  93 004d 21 EF                   		bne	.L6
  72:../src/tensorflow/lite/kernels/internal/quantization_util.cc ****     ++*shift;
  94                             		.loc 1 72 5 is_stmt 1
  95                             	.LVL12:
  73:../src/tensorflow/lite/kernels/internal/quantization_util.cc ****   }
  96                             		.loc 1 73 5
  97 004f 62 14                   		add	#1, r4
  72:../src/tensorflow/lite/kernels/internal/quantization_util.cc ****     ++*shift;
  98                             		.loc 1 72 13 is_stmt 0
  99 0051 FB 52 00 00 00 40       		mov.L	#0x40000000, r5
  73:../src/tensorflow/lite/kernels/internal/quantization_util.cc ****   }
 100                             		.loc 1 73 5
 101 0057 E3 74                   		mov.L	r4, [r7]
  75:../src/tensorflow/lite/kernels/internal/quantization_util.cc ****   // A shift amount smaller than -31 would cause all bits to be shifted out
 102                             		.loc 1 75 3 is_stmt 1
 103 0059 2E E3                   		bra	.L6
 104                             	.LVL13:
 105                             	.L14:
  70:../src/tensorflow/lite/kernels/internal/quantization_util.cc ****   if (q_fixed == (1ll << 31)) {
 106                             		.loc 1 70 3 is_stmt 0
 107 005b 74 01 00 00 00 80       		cmp	#-2147483648, r1
 108 0061 25 D1                   		bleu	.L4
 109                             		.balign 8,3,3
 110                             	.L9:
 111 0063 05 00 00 00             		bsr	_abort
 112                             	.LVL14:
 113                             	.LBE55:
 114                             	.LBE56:
 115                             	.LFE1174:
 117 0067 03                      		.section	.text._ZN6tflite32QuantizeMultiplierGreaterThanOneEdPlPi,"ax",@progbits
 118                             		.global	__ZN6tflite32QuantizeMultiplierGreaterThanOneEdPlPi
 120                             	__ZN6tflite32QuantizeMultiplierGreaterThanOneEdPlPi:
 121                             	.LFB1175:
  92:../src/tensorflow/lite/kernels/internal/quantization_util.cc **** 
  93:../src/tensorflow/lite/kernels/internal/quantization_util.cc **** void QuantizeMultiplierGreaterThanOne(double double_multiplier,
  94:../src/tensorflow/lite/kernels/internal/quantization_util.cc ****                                       int32_t* quantized_multiplier,
  95:../src/tensorflow/lite/kernels/internal/quantization_util.cc ****                                       int* left_shift) {
 122                             		.loc 1 95 56 is_stmt 1
 123                             	.LVL15:
 124 0000 7E A7                   		push.l	r7
 125                             	.LCFI1:
 126 0002 60 40                   		sub	#4, r0
 127                             	.LCFI2:
  96:../src/tensorflow/lite/kernels/internal/quantization_util.cc ****   TFLITE_CHECK_GT(double_multiplier, 1.);
 128                             		.loc 1 96 3
 129 0004 FB 42 00 00 80 3F       		mov.L	#0x3f800000, r4
 130 000a FC 87 14                		fcmp	r1, r4
 131 000d 26 4E                   		bpz	.L20
 132 000f EF 27                   		mov.L	r2, r7
  97:../src/tensorflow/lite/kernels/internal/quantization_util.cc ****   QuantizeMultiplier(double_multiplier, quantized_multiplier, left_shift);
 133                             		.loc 1 97 3
 134                             	.LVL16:
 135                             	.LBB65:
 136                             	.LBB66:
  55:../src/tensorflow/lite/kernels/internal/quantization_util.cc ****     *quantized_multiplier = 0;
 137                             		.loc 1 55 3
 138 0011 FD 72 11 00 00 00 00    		fcmp	#0x0, r1
 139 0018 21 0B                   		bne	.L18
  56:../src/tensorflow/lite/kernels/internal/quantization_util.cc ****     *shift = 0;
 140                             		.loc 1 56 5
  56:../src/tensorflow/lite/kernels/internal/quantization_util.cc ****     *shift = 0;
 141                             		.loc 1 56 27 is_stmt 0
 142 001a F8 26 00                		mov.L	#0, [r2]
  57:../src/tensorflow/lite/kernels/internal/quantization_util.cc ****     return;
 143                             		.loc 1 57 5 is_stmt 1
  57:../src/tensorflow/lite/kernels/internal/quantization_util.cc ****     return;
 144                             		.loc 1 57 12 is_stmt 0
 145 001d F8 36 00                		mov.L	#0, [r3]
  58:../src/tensorflow/lite/kernels/internal/quantization_util.cc ****   }
 146                             		.loc 1 58 5 is_stmt 1
 147                             	.LVL17:
 148                             	.LBE66:
 149                             	.LBE65:
  98:../src/tensorflow/lite/kernels/internal/quantization_util.cc ****   TFLITE_CHECK_GE(*left_shift, 0);
 150                             		.loc 1 98 3
 151                             		.balign 8,3,2
 152                             	.L16:
  99:../src/tensorflow/lite/kernels/internal/quantization_util.cc **** }
 153                             		.loc 1 99 1 is_stmt 0
 154 0020 3F 77 02                		rtsd	#8, r7-r7
 155                             	.LVL18:
 156                             	.L18:
 157                             	.LBB78:
 158                             	.LBB75:
 159                             	.LBB67:
 160                             	.LBB68:
  67:../src/tensorflow/lite/kernels/internal/quantization_util.cc ****   auto q_fixed = static_cast<int64_t>(TfLiteRound(q * (1ll << 31)));
 161                             		.loc 1 67 3 is_stmt 1
  67:../src/tensorflow/lite/kernels/internal/quantization_util.cc ****   auto q_fixed = static_cast<int64_t>(TfLiteRound(q * (1ll << 31)));
 162                             		.loc 1 67 30 is_stmt 0
 163 0023 EF 32                   		mov.L	r3, r2
 164                             	.LVL19:
 165 0025 E3 03                   		mov.L	r3, [r0]
 166 0027 05 00 00 00             		bsr	_frexp
 167                             	.LVL20:
  68:../src/tensorflow/lite/kernels/internal/quantization_util.cc **** #endif  // TFLITE_EMULATE_FLOAT
 168                             		.loc 1 68 3 is_stmt 1
 169                             	.LBB69:
 170                             	.LBB70:
 171                             		.loc 2 36 1 is_stmt 0
 172 002b FD 72 31 00 00 00 4F    		fmul	#0x4f000000, r1
 173                             	.LVL21:
 174 0032 05 00 00 00             		bsr	_round
 175                             	.LVL22:
 176                             	.LBE70:
 177                             	.LBE69:
  68:../src/tensorflow/lite/kernels/internal/quantization_util.cc **** #endif  // TFLITE_EMULATE_FLOAT
 178                             		.loc 1 68 18
 179 0036 05 00 00 00             		bsr	___fixsfdi
 180                             	.LVL23:
 181 003a EF 14                   		mov.L	r1, r4
 182                             	.LVL24:
  70:../src/tensorflow/lite/kernels/internal/quantization_util.cc ****   if (q_fixed == (1ll << 31)) {
 183                             		.loc 1 70 3 is_stmt 1
 184 003c EC 03                   		mov.L	[r0], r3
 185 003e 61 02                   		cmp	#0, r2
 186 0040 2A 1B                   		bgt	.L20
 187 0042 20 36                   		beq	.L27
 188                             		.balign 8,3,1
 189                             	.L24:
  71:../src/tensorflow/lite/kernels/internal/quantization_util.cc ****     q_fixed /= 2;
 190                             		.loc 1 71 3
 191 0044 EC 35                   		mov.L	[r3], r5
 192 0046 74 01 00 00 00 80       		cmp	#-2147483648, r1
 193 004c 20 1C                   		beq	.L28
 194                             	.LVL25:
 195 004e EF 00                   		.balign 8,3,2
 196                             	.L22:
  86:../src/tensorflow/lite/kernels/internal/quantization_util.cc ****     *shift = 0;
 197                             		.loc 1 86 3
 198 0050 75 05 E1                		cmp	#-31, r5
 199 0053 29 0C                   		blt	.L23
  90:../src/tensorflow/lite/kernels/internal/quantization_util.cc **** }
 200                             		.loc 1 90 3
  90:../src/tensorflow/lite/kernels/internal/quantization_util.cc **** }
 201                             		.loc 1 90 25 is_stmt 0
 202 0055 E3 74                   		mov.L	r4, [r7]
 203                             	.LVL26:
 204                             	.LBE68:
 205                             	.LBE67:
 206                             	.LBE75:
 207                             	.LBE78:
  98:../src/tensorflow/lite/kernels/internal/quantization_util.cc **** }
 208                             		.loc 1 98 3 is_stmt 1
 209 0057 61 05                   		cmp	#0, r5
 210 0059 28 C7                   		bge	.L16
 211                             	.LVL27:
 212                             		.balign 8,3,3
 213                             	.L20:
  96:../src/tensorflow/lite/kernels/internal/quantization_util.cc ****   QuantizeMultiplier(double_multiplier, quantized_multiplier, left_shift);
 214                             		.loc 1 96 3 is_stmt 0 discriminator 1
 215 005b 05 00 00 00             		bsr	_abort
 216                             	.LVL28:
 217                             	.L23:
 218                             	.LBB79:
 219                             	.LBB76:
 220                             	.LBB73:
 221                             	.LBB71:
  87:../src/tensorflow/lite/kernels/internal/quantization_util.cc ****     q_fixed = 0;
 222                             		.loc 1 87 5 is_stmt 1
  87:../src/tensorflow/lite/kernels/internal/quantization_util.cc ****     q_fixed = 0;
 223                             		.loc 1 87 12 is_stmt 0
 224 005f F8 36 00                		mov.L	#0, [r3]
  88:../src/tensorflow/lite/kernels/internal/quantization_util.cc ****   }
 225                             		.loc 1 88 5 is_stmt 1
  90:../src/tensorflow/lite/kernels/internal/quantization_util.cc **** }
 226                             		.loc 1 90 3
  90:../src/tensorflow/lite/kernels/internal/quantization_util.cc **** }
 227                             		.loc 1 90 25 is_stmt 0
 228 0062 F8 76 00                		mov.L	#0, [r7]
 229                             	.LVL29:
 230                             	.LBE71:
 231                             	.LBE73:
 232                             	.LBE76:
 233                             	.LBE79:
  98:../src/tensorflow/lite/kernels/internal/quantization_util.cc **** }
 234                             		.loc 1 98 3 is_stmt 1
 235                             		.loc 1 99 1 is_stmt 0
 236 0065 3F 77 02                		rtsd	#8, r7-r7
 237                             	.LVL30:
 238                             	.L28:
 239                             	.LBB80:
 240                             	.LBB77:
 241                             	.LBB74:
 242                             	.LBB72:
  71:../src/tensorflow/lite/kernels/internal/quantization_util.cc ****     q_fixed /= 2;
 243                             		.loc 1 71 3
 244 0068 61 02                   		cmp	#0, r2
 245 006a 21 E6                   		bne	.L22
  72:../src/tensorflow/lite/kernels/internal/quantization_util.cc ****     ++*shift;
 246                             		.loc 1 72 5 is_stmt 1
 247                             	.LVL31:
  73:../src/tensorflow/lite/kernels/internal/quantization_util.cc ****   }
 248                             		.loc 1 73 5
 249 006c 62 15                   		add	#1, r5
  72:../src/tensorflow/lite/kernels/internal/quantization_util.cc ****     ++*shift;
 250                             		.loc 1 72 13 is_stmt 0
 251 006e FB 42 00 00 00 40       		mov.L	#0x40000000, r4
  73:../src/tensorflow/lite/kernels/internal/quantization_util.cc ****   }
 252                             		.loc 1 73 5
 253 0074 E3 35                   		mov.L	r5, [r3]
  75:../src/tensorflow/lite/kernels/internal/quantization_util.cc ****   // A shift amount smaller than -31 would cause all bits to be shifted out
 254                             		.loc 1 75 3 is_stmt 1
 255 0076 2E DA                   		bra	.L22
 256                             	.LVL32:
 257                             	.L27:
  70:../src/tensorflow/lite/kernels/internal/quantization_util.cc ****   if (q_fixed == (1ll << 31)) {
 258                             		.loc 1 70 3 is_stmt 0
 259 0078 74 01 00 00 00 80       		cmp	#-2147483648, r1
 260 007e 25 C6                   		bleu	.L24
 261                             	.LBE72:
 262                             	.LBE74:
 263                             	.LBE77:
 264                             	.LBE80:
  96:../src/tensorflow/lite/kernels/internal/quantization_util.cc ****   QuantizeMultiplier(double_multiplier, quantized_multiplier, left_shift);
 265                             		.loc 1 96 3
 266 0080 05 00 00 00             		bsr	_abort
 267                             	.LVL33:
 268                             	.LFE1175:
 270 0084 76 10 01 00             		.section	.text._ZN6tflite35QuantizeMultiplierSmallerThanOneExpEdPlPi,"ax",@progbits
 271                             		.global	__ZN6tflite35QuantizeMultiplierSmallerThanOneExpEdPlPi
 273                             	__ZN6tflite35QuantizeMultiplierSmallerThanOneExpEdPlPi:
 274                             	.LFB1176:
 100:../src/tensorflow/lite/kernels/internal/quantization_util.cc **** 
 101:../src/tensorflow/lite/kernels/internal/quantization_util.cc **** void QuantizeMultiplierSmallerThanOneExp(double double_multiplier,
 102:../src/tensorflow/lite/kernels/internal/quantization_util.cc ****                                          int32_t* quantized_multiplier,
 103:../src/tensorflow/lite/kernels/internal/quantization_util.cc ****                                          int* left_shift) {
 275                             		.loc 1 103 59 is_stmt 1
 276                             	.LVL34:
 277 0000 6E 7A                   		pushm	r7-r10
 278                             	.LCFI3:
 279 0002 60 40                   		sub	#4, r0
 280                             	.LCFI4:
 104:../src/tensorflow/lite/kernels/internal/quantization_util.cc ****   TFLITE_CHECK_LT(double_multiplier, 1.);
 281                             		.loc 1 104 3
 282 0004 FD 72 11 00 00 80 3F    		fcmp	#0x3f800000, r1
 283 000b 26 67                   		bpz	.L31
 105:../src/tensorflow/lite/kernels/internal/quantization_util.cc ****   TFLITE_CHECK_GT(double_multiplier, 0.);
 284                             		.loc 1 105 3
 285 000d 66 04                   		mov.L	#0x0, r4
 286 000f FC 87 14                		fcmp	r1, r4
 287 0012 26 60                   		bpz	.L31
 288 0014 EF 2A                   		mov.L	r2, r10
 289 0016 EF 37                   		mov.L	r3, r7
 106:../src/tensorflow/lite/kernels/internal/quantization_util.cc ****   int shift;
 290                             		.loc 1 106 3
 107:../src/tensorflow/lite/kernels/internal/quantization_util.cc ****   QuantizeMultiplier(double_multiplier, quantized_multiplier, &shift);
 291                             		.loc 1 107 3
 292                             	.LVL35:
 293                             	.LBB89:
 294                             	.LBB90:
  55:../src/tensorflow/lite/kernels/internal/quantization_util.cc ****     *quantized_multiplier = 0;
 295                             		.loc 1 55 3
 296                             	.LBB91:
 297                             	.LBB92:
  67:../src/tensorflow/lite/kernels/internal/quantization_util.cc ****   auto q_fixed = static_cast<int64_t>(TfLiteRound(q * (1ll << 31)));
 298                             		.loc 1 67 3
  67:../src/tensorflow/lite/kernels/internal/quantization_util.cc ****   auto q_fixed = static_cast<int64_t>(TfLiteRound(q * (1ll << 31)));
 299                             		.loc 1 67 30 is_stmt 0
 300 0018 EF 02                   		mov.L	r0, r2
 301                             	.LVL36:
 302 001a 05 00 00 00             		bsr	_frexp
 303                             	.LVL37:
  68:../src/tensorflow/lite/kernels/internal/quantization_util.cc **** #endif  // TFLITE_EMULATE_FLOAT
 304                             		.loc 1 68 3 is_stmt 1
 305                             	.LBB93:
 306                             	.LBB94:
 307                             		.loc 2 36 1 is_stmt 0
 308 001e FD 72 31 00 00 00 4F    		fmul	#0x4f000000, r1
 309                             	.LVL38:
 310 0025 05 00 00 00             		bsr	_round
 311                             	.LVL39:
 312                             	.LBE94:
 313                             	.LBE93:
  68:../src/tensorflow/lite/kernels/internal/quantization_util.cc **** #endif  // TFLITE_EMULATE_FLOAT
 314                             		.loc 1 68 18
 315 0029 05 00 00 00             		bsr	___fixsfdi
 316                             	.LVL40:
 317 002d EF 14                   		mov.L	r1, r4
 318                             	.LVL41:
  70:../src/tensorflow/lite/kernels/internal/quantization_util.cc ****   if (q_fixed == (1ll << 31)) {
 319                             		.loc 1 70 3 is_stmt 1
 320 002f 61 02                   		cmp	#0, r2
 321 0031 2A 41                   		bgt	.L31
 322 0033 20 37                   		beq	.L40
 323                             		.balign 8,3,1
 324                             	.L38:
  71:../src/tensorflow/lite/kernels/internal/quantization_util.cc ****     q_fixed /= 2;
 325                             		.loc 1 71 3
 326 0035 EC 05                   		mov.L	[r0], r5
 327 0037 74 01 00 00 00 80       		cmp	#-2147483648, r1
 328 003d 20 1D                   		beq	.L41
 329                             	.LVL42:
 330 003f 03                      		.balign 8,3,2
 331                             	.L34:
  86:../src/tensorflow/lite/kernels/internal/quantization_util.cc ****     *shift = 0;
 332                             		.loc 1 86 3
 333 0040 75 05 E1                		cmp	#-31, r5
 334 0043 29 0D                   		blt	.L35
  90:../src/tensorflow/lite/kernels/internal/quantization_util.cc **** }
 335                             		.loc 1 90 3
  90:../src/tensorflow/lite/kernels/internal/quantization_util.cc **** }
 336                             		.loc 1 90 25 is_stmt 0
 337 0045 E3 A4                   		mov.L	r4, [r10]
 338                             	.LVL43:
 339                             	.LBE92:
 340                             	.LBE91:
 341                             	.LBE90:
 342                             	.LBE89:
 108:../src/tensorflow/lite/kernels/internal/quantization_util.cc ****   TFLITE_CHECK_LE(shift, 0);
 343                             		.loc 1 108 3 is_stmt 1
 344 0047 61 05                   		cmp	#0, r5
 345 0049 2A 29                   		bgt	.L31
 109:../src/tensorflow/lite/kernels/internal/quantization_util.cc ****   *left_shift = shift;
 346                             		.loc 1 109 3
 347                             		.loc 1 109 15 is_stmt 0
 348 004b E3 75                   		mov.L	r5, [r7]
 110:../src/tensorflow/lite/kernels/internal/quantization_util.cc **** }
 349                             		.loc 1 110 1
 350 004d 3F 7A 05                		rtsd	#20, r7-r10
 351                             	.LVL44:
 352                             	.L35:
 353                             	.LBB101:
 354                             	.LBB99:
 355                             	.LBB97:
 356                             	.LBB95:
  87:../src/tensorflow/lite/kernels/internal/quantization_util.cc ****     q_fixed = 0;
 357                             		.loc 1 87 5 is_stmt 1
  88:../src/tensorflow/lite/kernels/internal/quantization_util.cc ****   }
 358                             		.loc 1 88 5
  90:../src/tensorflow/lite/kernels/internal/quantization_util.cc **** }
 359                             		.loc 1 90 3
  90:../src/tensorflow/lite/kernels/internal/quantization_util.cc **** }
 360                             		.loc 1 90 25 is_stmt 0
 361 0050 66 05                   		mov.L	#0, r5
 362 0052 F8 A6 00                		mov.L	#0, [r10]
 363                             	.LVL45:
 364                             	.LBE95:
 365                             	.LBE97:
 366                             	.LBE99:
 367                             	.LBE101:
 108:../src/tensorflow/lite/kernels/internal/quantization_util.cc ****   *left_shift = shift;
 368                             		.loc 1 108 3 is_stmt 1
 109:../src/tensorflow/lite/kernels/internal/quantization_util.cc **** }
 369                             		.loc 1 109 3
 109:../src/tensorflow/lite/kernels/internal/quantization_util.cc **** }
 370                             		.loc 1 109 15 is_stmt 0
 371 0055 E3 75                   		mov.L	r5, [r7]
 372                             		.loc 1 110 1
 373 0057 3F 7A 05                		rtsd	#20, r7-r10
 374                             	.LVL46:
 375                             	.L41:
 376                             	.LBB102:
 377                             	.LBB100:
 378                             	.LBB98:
 379                             	.LBB96:
  71:../src/tensorflow/lite/kernels/internal/quantization_util.cc ****     q_fixed /= 2;
 380                             		.loc 1 71 3
 381 005a 61 02                   		cmp	#0, r2
 382 005c 21 E4                   		bne	.L34
  72:../src/tensorflow/lite/kernels/internal/quantization_util.cc ****     ++*shift;
 383                             		.loc 1 72 5 is_stmt 1
 384                             	.LVL47:
  73:../src/tensorflow/lite/kernels/internal/quantization_util.cc ****   }
 385                             		.loc 1 73 5
 386 005e 62 15                   		add	#1, r5
  72:../src/tensorflow/lite/kernels/internal/quantization_util.cc ****     ++*shift;
 387                             		.loc 1 72 13 is_stmt 0
 388 0060 FB 42 00 00 00 40       		mov.L	#0x40000000, r4
  73:../src/tensorflow/lite/kernels/internal/quantization_util.cc ****   }
 389                             		.loc 1 73 5
 390 0066 E3 05                   		mov.L	r5, [r0]
  75:../src/tensorflow/lite/kernels/internal/quantization_util.cc ****   // A shift amount smaller than -31 would cause all bits to be shifted out
 391                             		.loc 1 75 3 is_stmt 1
 392 0068 2E D8                   		bra	.L34
 393                             	.LVL48:
 394                             	.L40:
  70:../src/tensorflow/lite/kernels/internal/quantization_util.cc ****   if (q_fixed == (1ll << 31)) {
 395                             		.loc 1 70 3 is_stmt 0
 396 006a 74 01 00 00 00 80       		cmp	#-2147483648, r1
 397 0070 25 C5                   		bleu	.L38
 398                             	.LVL49:
 399                             		.balign 8,3,3
 400                             	.L31:
 401                             	.LBE96:
 402                             	.LBE98:
 403                             	.LBE100:
 404                             	.LBE102:
 104:../src/tensorflow/lite/kernels/internal/quantization_util.cc ****   TFLITE_CHECK_GT(double_multiplier, 0.);
 405                             		.loc 1 104 3 discriminator 1
 406 0072 05 00 00 00             		bsr	_abort
 407                             	.LVL50:
 408                             	.LFE1176:
 410 0076 EF 00                   		.section	.text.unlikely._ZN6tflite12IntegerFrExpEdPi,"ax",@progbits
 411                             		.global	__ZN6tflite12IntegerFrExpEdPi
 413                             	__ZN6tflite12IntegerFrExpEdPi:
 414                             	.LFB1177:
 111:../src/tensorflow/lite/kernels/internal/quantization_util.cc **** 
 112:../src/tensorflow/lite/kernels/internal/quantization_util.cc **** int64_t IntegerFrExp(double input, int* shift) {
 415                             		.loc 1 112 48 is_stmt 1
 416                             	.LVL51:
 113:../src/tensorflow/lite/kernels/internal/quantization_util.cc ****   // Make sure our assumptions about the double layout hold.
 114:../src/tensorflow/lite/kernels/internal/quantization_util.cc ****   TFLITE_CHECK_EQ(8, sizeof(double));
 417                             		.loc 1 114 3
 418 0000 05 00 00 00             		bsr	_abort
 419                             	.LVL52:
 420                             	.LFE1177:
 422                             		.section	.text._ZN6tflite26DoubleFromFractionAndShiftExi,"ax",@progbits
 423                             		.global	__ZN6tflite26DoubleFromFractionAndShiftExi
 425                             	__ZN6tflite26DoubleFromFractionAndShiftExi:
 426                             	.LFB1178:
 115:../src/tensorflow/lite/kernels/internal/quantization_util.cc **** 
 116:../src/tensorflow/lite/kernels/internal/quantization_util.cc ****   // We want to access the bits of the input double value directly, which is
 117:../src/tensorflow/lite/kernels/internal/quantization_util.cc ****   // tricky to do safely, so use a union to handle the casting.
 118:../src/tensorflow/lite/kernels/internal/quantization_util.cc ****   union {
 119:../src/tensorflow/lite/kernels/internal/quantization_util.cc ****     double double_value;
 120:../src/tensorflow/lite/kernels/internal/quantization_util.cc ****     uint64_t double_as_uint;
 121:../src/tensorflow/lite/kernels/internal/quantization_util.cc ****   } cast_union;
 122:../src/tensorflow/lite/kernels/internal/quantization_util.cc ****   cast_union.double_value = input;
 123:../src/tensorflow/lite/kernels/internal/quantization_util.cc ****   const uint64_t u = cast_union.double_as_uint;
 124:../src/tensorflow/lite/kernels/internal/quantization_util.cc **** 
 125:../src/tensorflow/lite/kernels/internal/quantization_util.cc ****   // If the bitfield is all zeros apart from the sign bit, this is a normalized
 126:../src/tensorflow/lite/kernels/internal/quantization_util.cc ****   // zero value, so return standard values for this special case.
 127:../src/tensorflow/lite/kernels/internal/quantization_util.cc ****   if ((u & ~kSignMask) == 0) {
 128:../src/tensorflow/lite/kernels/internal/quantization_util.cc ****     *shift = 0;
 129:../src/tensorflow/lite/kernels/internal/quantization_util.cc ****     return 0;
 130:../src/tensorflow/lite/kernels/internal/quantization_util.cc ****   }
 131:../src/tensorflow/lite/kernels/internal/quantization_util.cc **** 
 132:../src/tensorflow/lite/kernels/internal/quantization_util.cc ****   // Deal with NaNs and Infs, which are always indicated with a fixed pattern in
 133:../src/tensorflow/lite/kernels/internal/quantization_util.cc ****   // the exponent, and distinguished by whether the fractions are zero or
 134:../src/tensorflow/lite/kernels/internal/quantization_util.cc ****   // non-zero.
 135:../src/tensorflow/lite/kernels/internal/quantization_util.cc ****   const uint32_t exponent_part = ((u & kExponentMask) >> kExponentShift);
 136:../src/tensorflow/lite/kernels/internal/quantization_util.cc ****   if (exponent_part == kExponentIsBadNum) {
 137:../src/tensorflow/lite/kernels/internal/quantization_util.cc ****     *shift = std::numeric_limits<int>::max();
 138:../src/tensorflow/lite/kernels/internal/quantization_util.cc ****     if (u & kFractionMask) {
 139:../src/tensorflow/lite/kernels/internal/quantization_util.cc ****       // NaN, so just return zero (with the exponent set to INT_MAX).
 140:../src/tensorflow/lite/kernels/internal/quantization_util.cc ****       return 0;
 141:../src/tensorflow/lite/kernels/internal/quantization_util.cc ****     } else {
 142:../src/tensorflow/lite/kernels/internal/quantization_util.cc ****       // Infinity, so return +/- INT_MAX.
 143:../src/tensorflow/lite/kernels/internal/quantization_util.cc ****       if (u & kSignMask) {
 144:../src/tensorflow/lite/kernels/internal/quantization_util.cc ****         return std::numeric_limits<int64_t>::min();
 145:../src/tensorflow/lite/kernels/internal/quantization_util.cc ****       } else {
 146:../src/tensorflow/lite/kernels/internal/quantization_util.cc ****         return std::numeric_limits<int64_t>::max();
 147:../src/tensorflow/lite/kernels/internal/quantization_util.cc ****       }
 148:../src/tensorflow/lite/kernels/internal/quantization_util.cc ****     }
 149:../src/tensorflow/lite/kernels/internal/quantization_util.cc ****   }
 150:../src/tensorflow/lite/kernels/internal/quantization_util.cc **** 
 151:../src/tensorflow/lite/kernels/internal/quantization_util.cc ****   // The shift is fairly easy to extract from the high bits of the double value,
 152:../src/tensorflow/lite/kernels/internal/quantization_util.cc ****   // just by masking it out and applying a bias. The std::frexp() implementation
 153:../src/tensorflow/lite/kernels/internal/quantization_util.cc ****   // always returns values between 0.5 and 1.0 though, whereas the exponent
 154:../src/tensorflow/lite/kernels/internal/quantization_util.cc ****   // assumes 1.0 to 2.0 is the standard range, so I add on one to match that
 155:../src/tensorflow/lite/kernels/internal/quantization_util.cc ****   // interface.
 156:../src/tensorflow/lite/kernels/internal/quantization_util.cc ****   *shift = (exponent_part - kExponentBias) + 1;
 157:../src/tensorflow/lite/kernels/internal/quantization_util.cc **** 
 158:../src/tensorflow/lite/kernels/internal/quantization_util.cc ****   // There's an implicit high bit in the double format definition, so make sure
 159:../src/tensorflow/lite/kernels/internal/quantization_util.cc ****   // we include that at the top, and then reconstruct the rest of the fractional
 160:../src/tensorflow/lite/kernels/internal/quantization_util.cc ****   // value from the remaining fragments.
 161:../src/tensorflow/lite/kernels/internal/quantization_util.cc ****   int64_t fraction = 0x40000000 + ((u & kFractionMask) >> kFractionShift);
 162:../src/tensorflow/lite/kernels/internal/quantization_util.cc **** 
 163:../src/tensorflow/lite/kernels/internal/quantization_util.cc ****   // We're cutting off some bits at the bottom, so to exactly match the standard
 164:../src/tensorflow/lite/kernels/internal/quantization_util.cc ****   // frexp implementation here we'll apply rounding by adding one to the least
 165:../src/tensorflow/lite/kernels/internal/quantization_util.cc ****   // significant bit of the result if the discarded portion is over half of the
 166:../src/tensorflow/lite/kernels/internal/quantization_util.cc ****   // maximum.
 167:../src/tensorflow/lite/kernels/internal/quantization_util.cc ****   if ((u & kFractionRoundingMask) > kFractionRoundingThreshold) {
 168:../src/tensorflow/lite/kernels/internal/quantization_util.cc ****     fraction += 1;
 169:../src/tensorflow/lite/kernels/internal/quantization_util.cc ****   }
 170:../src/tensorflow/lite/kernels/internal/quantization_util.cc ****   // Negate the fraction if the sign bit was set.
 171:../src/tensorflow/lite/kernels/internal/quantization_util.cc ****   if (u & kSignMask) {
 172:../src/tensorflow/lite/kernels/internal/quantization_util.cc ****     fraction *= -1;
 173:../src/tensorflow/lite/kernels/internal/quantization_util.cc ****   }
 174:../src/tensorflow/lite/kernels/internal/quantization_util.cc **** 
 175:../src/tensorflow/lite/kernels/internal/quantization_util.cc ****   return fraction;
 176:../src/tensorflow/lite/kernels/internal/quantization_util.cc **** }
 177:../src/tensorflow/lite/kernels/internal/quantization_util.cc **** 
 178:../src/tensorflow/lite/kernels/internal/quantization_util.cc **** double DoubleFromFractionAndShift(int64_t fraction, int shift) {
 427                             		.loc 1 178 64
 428                             	.LVL53:
 179:../src/tensorflow/lite/kernels/internal/quantization_util.cc ****   union {
 429                             		.loc 1 179 3
 180:../src/tensorflow/lite/kernels/internal/quantization_util.cc ****     double double_value;
 181:../src/tensorflow/lite/kernels/internal/quantization_util.cc ****     uint64_t double_as_uint;
 182:../src/tensorflow/lite/kernels/internal/quantization_util.cc ****   } result;
 183:../src/tensorflow/lite/kernels/internal/quantization_util.cc **** 
 184:../src/tensorflow/lite/kernels/internal/quantization_util.cc ****   // Detect NaNs and infinities.
 185:../src/tensorflow/lite/kernels/internal/quantization_util.cc ****   if (shift == std::numeric_limits<int>::max()) {
 430                             		.loc 1 185 3
 186:../src/tensorflow/lite/kernels/internal/quantization_util.cc ****     if (fraction == 0) {
 431                             		.loc 1 186 5 is_stmt 0
 432 0000 FF 55 21                		or	r2, r1, r5
 185:../src/tensorflow/lite/kernels/internal/quantization_util.cc ****     if (fraction == 0) {
 433                             		.loc 1 185 3
 434 0003 74 03 FF FF FF 7F       		cmp	#0x7fffffff, r3
 435 0009 20 6C                   		beq	.L81
 187:../src/tensorflow/lite/kernels/internal/quantization_util.cc ****       return std::numeric_limits<double>::quiet_NaN();
 188:../src/tensorflow/lite/kernels/internal/quantization_util.cc ****     } else if (fraction > 0) {
 189:../src/tensorflow/lite/kernels/internal/quantization_util.cc ****       return std::numeric_limits<double>::infinity();
 190:../src/tensorflow/lite/kernels/internal/quantization_util.cc ****     } else {
 191:../src/tensorflow/lite/kernels/internal/quantization_util.cc ****       return -std::numeric_limits<double>::infinity();
 192:../src/tensorflow/lite/kernels/internal/quantization_util.cc ****     }
 193:../src/tensorflow/lite/kernels/internal/quantization_util.cc ****   }
 194:../src/tensorflow/lite/kernels/internal/quantization_util.cc **** 
 195:../src/tensorflow/lite/kernels/internal/quantization_util.cc ****   // Return a normalized zero for a zero fraction.
 196:../src/tensorflow/lite/kernels/internal/quantization_util.cc ****   if (fraction == 0) {
 436                             		.loc 1 196 3 is_stmt 1
 437 000b 61 05                   		cmp	#0, r5
 438 000d 20 3F                   		beq	.L66
 178:../src/tensorflow/lite/kernels/internal/quantization_util.cc ****   union {
 439                             		.loc 1 178 64 is_stmt 0
 440 000f 6E 7A                   		pushm	r7-r10
 441                             	.LCFI5:
 442                             	.LVL54:
 443                             	.LBB105:
 444                             	.LBB106:
 197:../src/tensorflow/lite/kernels/internal/quantization_util.cc ****     result.double_as_uint = 0;
 198:../src/tensorflow/lite/kernels/internal/quantization_util.cc ****     return result.double_value;
 199:../src/tensorflow/lite/kernels/internal/quantization_util.cc ****   }
 200:../src/tensorflow/lite/kernels/internal/quantization_util.cc **** 
 201:../src/tensorflow/lite/kernels/internal/quantization_util.cc ****   bool is_negative = (fraction < 0);
 445                             		.loc 1 201 3 is_stmt 1
 202:../src/tensorflow/lite/kernels/internal/quantization_util.cc ****   int64_t encoded_fraction = is_negative ? -fraction : fraction;
 446                             		.loc 1 202 3
 447 0011 61 02                   		cmp	#0, r2
 448 0013 28 0E                   		bge	.L49
 449 0015 66 05                   		mov.L	#0, r5
 450 0017 FF 07 15                		sub	r1, r5, r7
 451 001a FC 03 25                		sbb	r2, r5
 452 001d EF 52                   		mov.L	r5, r2
 453                             	.LVL55:
 454 001f EF 71                   		mov.L	r7, r1
 455                             	.LVL56:
 456                             		.balign 8,3,1
 457                             	.L49:
 203:../src/tensorflow/lite/kernels/internal/quantization_util.cc ****   int64_t encoded_shift = (shift - 1);
 458                             		.loc 1 203 3
 204:../src/tensorflow/lite/kernels/internal/quantization_util.cc ****   while (encoded_fraction < 0x40000000) {
 459                             		.loc 1 204 3
 460                             		.loc 1 204 27 is_stmt 0
 461 0021 61 02                   		cmp	#0, r2
 462 0023 2A 36                   		bgt	.L73
 463 0025 20 79                   		beq	.L82
 464 0027 03                      		.balign 8,3,2
 465                             	.L74:
 466                             	.LVL57:
 205:../src/tensorflow/lite/kernels/internal/quantization_util.cc ****     encoded_fraction *= 2;
 467                             		.loc 1 205 5 is_stmt 1
 468                             		.loc 1 205 22 is_stmt 0
 469 0028 FF 2A 11                		add	r1, r1, r10
 470 002b FC 0B 22                		adc	r2, r2
 471                             	.LVL58:
 472 002e EF A1                   		mov.L	r10, r1
 473                             	.LVL59:
 206:../src/tensorflow/lite/kernels/internal/quantization_util.cc ****     encoded_shift -= 1;
 474                             		.loc 1 206 5 is_stmt 1
 204:../src/tensorflow/lite/kernels/internal/quantization_util.cc ****   while (encoded_fraction < 0x40000000) {
 475                             		.loc 1 204 3
 204:../src/tensorflow/lite/kernels/internal/quantization_util.cc ****   while (encoded_fraction < 0x40000000) {
 476                             		.loc 1 204 27 is_stmt 0
 477 0030 61 02                   		cmp	#0, r2
 478 0032 2A 0E                   		bgt	.L53
 479 0034 21 F4                   		bne	.L74
 480 0036 74 0A FF FF FF 3F       		cmp	#0x3fffffff, r10
 481 003c 25 EC                   		bleu	.L74
 482                             	.LVL60:
 483 003e EF 00                   		.balign 8,3,5
 484                             	.L53:
 207:../src/tensorflow/lite/kernels/internal/quantization_util.cc ****   }
 208:../src/tensorflow/lite/kernels/internal/quantization_util.cc ****   while (encoded_fraction > 0x80000000) {
 209:../src/tensorflow/lite/kernels/internal/quantization_util.cc ****     encoded_fraction /= 2;
 210:../src/tensorflow/lite/kernels/internal/quantization_util.cc ****     encoded_shift += 1;
 211:../src/tensorflow/lite/kernels/internal/quantization_util.cc ****   }
 212:../src/tensorflow/lite/kernels/internal/quantization_util.cc ****   encoded_fraction -= 0x40000000;
 485                             		.loc 1 212 3 is_stmt 1
 486                             		.loc 1 212 20 is_stmt 0
 487 0040 70 15 00 00 00 C0       		add	#-1073741824, r1, r5
 213:../src/tensorflow/lite/kernels/internal/quantization_util.cc ****   if (encoded_shift < -1022) {
 488                             		.loc 1 213 3 is_stmt 1
 214:../src/tensorflow/lite/kernels/internal/quantization_util.cc ****     encoded_shift = -1023;
 215:../src/tensorflow/lite/kernels/internal/quantization_util.cc ****   } else if (encoded_shift > 1022) {
 216:../src/tensorflow/lite/kernels/internal/quantization_util.cc ****     encoded_shift = 1023;
 217:../src/tensorflow/lite/kernels/internal/quantization_util.cc ****   }
 218:../src/tensorflow/lite/kernels/internal/quantization_util.cc ****   encoded_shift += kExponentBias;
 489                             		.loc 1 218 3
 219:../src/tensorflow/lite/kernels/internal/quantization_util.cc ****   uint64_t encoded_sign = is_negative ? kSignMask : 0;
 490                             		.loc 1 219 3
 491                             	.LVL61:
 220:../src/tensorflow/lite/kernels/internal/quantization_util.cc ****   result.double_as_uint = encoded_sign | (encoded_shift << kExponentShift) |
 492                             		.loc 1 220 3
 221:../src/tensorflow/lite/kernels/internal/quantization_util.cc ****                           (encoded_fraction << kFractionShift);
 222:../src/tensorflow/lite/kernels/internal/quantization_util.cc ****   return result.double_value;
 493                             		.loc 1 222 3
 494 0046 FD D6 51                		shll	#22, r5, r1
 495                             	.LVL62:
 496                             	.LBE106:
 497                             	.LBE105:
 223:../src/tensorflow/lite/kernels/internal/quantization_util.cc **** }
 498                             		.loc 1 223 1 is_stmt 0
 499 0049 3F 7A 04                		rtsd	#16, r7-r10
 500                             	.LVL63:
 501                             	.L66:
 502                             	.LCFI6:
 198:../src/tensorflow/lite/kernels/internal/quantization_util.cc ****   }
 503                             		.loc 1 198 19
 504 004c 66 01                   		mov.L	#0x0, r1
 505                             	.LVL64:
 506                             		.loc 1 223 1
 507 004e 02                      		rts
 508                             	.LVL65:
 509                             	.L83:
 510                             	.LCFI7:
 511                             	.LBB109:
 512                             	.LBB107:
 208:../src/tensorflow/lite/kernels/internal/quantization_util.cc ****     encoded_fraction /= 2;
 513                             		.loc 1 208 27
 514 004f 21 F1                   		bne	.L53
 515                             		.balign 8,3,5
 516                             	.L79:
 517 0051 74 01 00 00 00 80       		cmp	#-2147483648, r1
 518 0057 25 E9                   		bleu	.L53
 519                             		.balign 8,3,2
 520                             	.L73:
 521                             	.LVL66:
 209:../src/tensorflow/lite/kernels/internal/quantization_util.cc ****     encoded_shift += 1;
 522                             		.loc 1 209 5 is_stmt 1
 209:../src/tensorflow/lite/kernels/internal/quantization_util.cc ****     encoded_shift += 1;
 523                             		.loc 1 209 22 is_stmt 0
 524 0059 FD DF 25                		shll	#31, r2, r5
 525 005c 68 11                   		shlr	#1, r1
 526                             	.LVL67:
 527 005e 6A 12                   		shar	#1, r2
 528                             	.LVL68:
 210:../src/tensorflow/lite/kernels/internal/quantization_util.cc ****   }
 529                             		.loc 1 210 5 is_stmt 1
 208:../src/tensorflow/lite/kernels/internal/quantization_util.cc ****     encoded_fraction /= 2;
 530                             		.loc 1 208 3
 209:../src/tensorflow/lite/kernels/internal/quantization_util.cc ****     encoded_shift += 1;
 531                             		.loc 1 209 22 is_stmt 0
 532 0060 57 51                   		or	r5, r1
 533                             	.LVL69:
 208:../src/tensorflow/lite/kernels/internal/quantization_util.cc ****     encoded_fraction /= 2;
 534                             		.loc 1 208 27
 535 0062 61 02                   		cmp	#0, r2
 536 0064 2B EB                   		ble	.L83
 209:../src/tensorflow/lite/kernels/internal/quantization_util.cc ****     encoded_shift += 1;
 537                             		.loc 1 209 5 is_stmt 1
 209:../src/tensorflow/lite/kernels/internal/quantization_util.cc ****     encoded_shift += 1;
 538                             		.loc 1 209 22 is_stmt 0
 539 0066 FD DF 25                		shll	#31, r2, r5
 540 0069 68 11                   		shlr	#1, r1
 541                             	.LVL70:
 542 006b 6A 12                   		shar	#1, r2
 543                             	.LVL71:
 210:../src/tensorflow/lite/kernels/internal/quantization_util.cc ****   }
 544                             		.loc 1 210 5 is_stmt 1
 208:../src/tensorflow/lite/kernels/internal/quantization_util.cc ****     encoded_fraction /= 2;
 545                             		.loc 1 208 3
 209:../src/tensorflow/lite/kernels/internal/quantization_util.cc ****     encoded_shift += 1;
 546                             		.loc 1 209 22 is_stmt 0
 547 006d 57 51                   		or	r5, r1
 548                             	.LVL72:
 208:../src/tensorflow/lite/kernels/internal/quantization_util.cc ****     encoded_fraction /= 2;
 549                             		.loc 1 208 27
 550 006f 61 02                   		cmp	#0, r2
 551 0071 2A E8                   		bgt	.L73
 552 0073 2E DC                   		bra	.L83
 553                             	.LVL73:
 554                             	.L81:
 555                             	.LCFI8:
 556                             	.LBE107:
 557                             	.LBE109:
 186:../src/tensorflow/lite/kernels/internal/quantization_util.cc ****       return std::numeric_limits<double>::quiet_NaN();
 558                             		.loc 1 186 5 is_stmt 1
 559 0075 61 05                   		cmp	#0, r5
 560 0077 20 10                   		beq	.L64
 188:../src/tensorflow/lite/kernels/internal/quantization_util.cc ****       return std::numeric_limits<double>::infinity();
 561                             		.loc 1 188 12
 562 0079 61 02                   		cmp	#0, r2
 563 007b 2B 13                   		ble	.L84
 564 007d FC 13 00                		.balign 8,3,5
 565                             	.L65:
 189:../src/tensorflow/lite/kernels/internal/quantization_util.cc ****     } else {
 566                             		.loc 1 189 52 is_stmt 0
 567 0080 FB 12 00 00 80 7F       		mov.L	#0x7f800000, r1
 568                             	.LVL74:
 569 0086 02                      		rts
 570                             	.LVL75:
 571                             	.L64:
 187:../src/tensorflow/lite/kernels/internal/quantization_util.cc ****     } else if (fraction > 0) {
 572                             		.loc 1 187 53
 573 0087 FB 12 00 00 C0 7F       		mov.L	#0x7fc00000, r1
 574                             	.LVL76:
 575 008d 02                      		rts
 576                             	.LVL77:
 577                             	.L84:
 188:../src/tensorflow/lite/kernels/internal/quantization_util.cc ****       return std::numeric_limits<double>::infinity();
 578                             		.loc 1 188 12
 579 008e 1A                      		bne	.L68
 580 008f 61 01                   		cmp	#0, r1
 581 0091 21 EF                   		bne	.L65
 582 0093 77 10 01 00 00          		.balign 8,3,5
 583                             	.L68:
 191:../src/tensorflow/lite/kernels/internal/quantization_util.cc ****     }
 584                             		.loc 1 191 53
 585 0098 FB 1E 00 00 80          		mov.L	#0xff800000, r1
 586                             	.LVL78:
 587 009d 02                      		rts
 588                             	.LVL79:
 589                             	.L82:
 590                             	.LCFI9:
 591                             	.LBB110:
 592                             	.LBB108:
 204:../src/tensorflow/lite/kernels/internal/quantization_util.cc ****     encoded_fraction *= 2;
 593                             		.loc 1 204 27
 594 009e 74 01 FF FF FF 3F       		cmp	#0x3fffffff, r1
 595 00a4 25 84                   		bleu	.L74
 596 00a6 2E AB                   		bra	.L79
 597                             	.LBE108:
 598                             	.LBE110:
 599                             	.LFE1178:
 601                             		.section	.text.unlikely._ZN6tflite21IntegerDoubleMultiplyEdd,"ax",@progbits
 602                             		.global	__ZN6tflite21IntegerDoubleMultiplyEdd
 604                             	__ZN6tflite21IntegerDoubleMultiplyEdd:
 605                             	.LFB1179:
 224:../src/tensorflow/lite/kernels/internal/quantization_util.cc **** 
 225:../src/tensorflow/lite/kernels/internal/quantization_util.cc **** double IntegerDoubleMultiply(double a, double b) {
 606                             		.loc 1 225 50 is_stmt 1
 607                             	.LVL80:
 226:../src/tensorflow/lite/kernels/internal/quantization_util.cc ****   int a_shift;
 608                             		.loc 1 226 3
 227:../src/tensorflow/lite/kernels/internal/quantization_util.cc ****   const int64_t a_fraction = IntegerFrExp(a, &a_shift);
 609                             		.loc 1 227 3
 610                             	.LBB111:
 611                             	.LBB112:
 114:../src/tensorflow/lite/kernels/internal/quantization_util.cc **** 
 612                             		.loc 1 114 3
 613 0000 05 00 00 00             		bsr	_abort
 614                             	.LVL81:
 615                             	.LBE112:
 616                             	.LBE111:
 617                             	.LFE1179:
 619                             		.section	.text.unlikely._ZN6tflite20IntegerDoubleCompareEdd,"ax",@progbits
 620                             		.global	__ZN6tflite20IntegerDoubleCompareEdd
 622                             	__ZN6tflite20IntegerDoubleCompareEdd:
 623                             	.LFB1180:
 228:../src/tensorflow/lite/kernels/internal/quantization_util.cc ****   int b_shift;
 229:../src/tensorflow/lite/kernels/internal/quantization_util.cc ****   const int64_t b_fraction = IntegerFrExp(b, &b_shift);
 230:../src/tensorflow/lite/kernels/internal/quantization_util.cc ****   // Detect NaNs and infinities.
 231:../src/tensorflow/lite/kernels/internal/quantization_util.cc ****   if (a_shift == std::numeric_limits<int>::max() ||
 232:../src/tensorflow/lite/kernels/internal/quantization_util.cc ****       (b_shift == std::numeric_limits<int>::max())) {
 233:../src/tensorflow/lite/kernels/internal/quantization_util.cc ****     return std::numeric_limits<double>::quiet_NaN();
 234:../src/tensorflow/lite/kernels/internal/quantization_util.cc ****   }
 235:../src/tensorflow/lite/kernels/internal/quantization_util.cc ****   const int result_shift = a_shift + b_shift + 1;
 236:../src/tensorflow/lite/kernels/internal/quantization_util.cc ****   const int64_t result_fraction = (a_fraction * b_fraction) >> 32;
 237:../src/tensorflow/lite/kernels/internal/quantization_util.cc ****   return DoubleFromFractionAndShift(result_fraction, result_shift);
 238:../src/tensorflow/lite/kernels/internal/quantization_util.cc **** }
 239:../src/tensorflow/lite/kernels/internal/quantization_util.cc **** 
 240:../src/tensorflow/lite/kernels/internal/quantization_util.cc **** int IntegerDoubleCompare(double a, double b) {
 624                             		.loc 1 240 46
 625                             	.LVL82:
 241:../src/tensorflow/lite/kernels/internal/quantization_util.cc ****   int a_shift;
 626                             		.loc 1 241 3
 242:../src/tensorflow/lite/kernels/internal/quantization_util.cc ****   const int64_t a_fraction = IntegerFrExp(a, &a_shift);
 627                             		.loc 1 242 3
 628                             	.LBB113:
 629                             	.LBB114:
 114:../src/tensorflow/lite/kernels/internal/quantization_util.cc **** 
 630                             		.loc 1 114 3
 631 0000 05 00 00 00             		bsr	_abort
 632                             	.LVL83:
 633                             	.LBE114:
 634                             	.LBE113:
 635                             	.LFE1180:
 637                             		.section	.text._ZN6tflite24PreprocessSoftmaxScalingEddiPlPi,"ax",@progbits
 638                             		.global	__ZN6tflite24PreprocessSoftmaxScalingEddiPlPi
 640                             	__ZN6tflite24PreprocessSoftmaxScalingEddiPlPi:
 641                             	.LFB1181:
 243:../src/tensorflow/lite/kernels/internal/quantization_util.cc ****   int b_shift;
 244:../src/tensorflow/lite/kernels/internal/quantization_util.cc ****   const int64_t b_fraction = IntegerFrExp(b, &b_shift);
 245:../src/tensorflow/lite/kernels/internal/quantization_util.cc **** 
 246:../src/tensorflow/lite/kernels/internal/quantization_util.cc ****   // Detect NaNs and infinities.
 247:../src/tensorflow/lite/kernels/internal/quantization_util.cc ****   if (a_shift == std::numeric_limits<int>::max() ||
 248:../src/tensorflow/lite/kernels/internal/quantization_util.cc ****       (b_shift == std::numeric_limits<int>::max())) {
 249:../src/tensorflow/lite/kernels/internal/quantization_util.cc ****     return 1;
 250:../src/tensorflow/lite/kernels/internal/quantization_util.cc ****   }
 251:../src/tensorflow/lite/kernels/internal/quantization_util.cc **** 
 252:../src/tensorflow/lite/kernels/internal/quantization_util.cc ****   if ((a_fraction == 0) && (b_fraction < 0)) {
 253:../src/tensorflow/lite/kernels/internal/quantization_util.cc ****     return 1;
 254:../src/tensorflow/lite/kernels/internal/quantization_util.cc ****   } else if ((a_fraction < 0) && (b_fraction == 0)) {
 255:../src/tensorflow/lite/kernels/internal/quantization_util.cc ****     return -1;
 256:../src/tensorflow/lite/kernels/internal/quantization_util.cc ****   } else if (a_shift < b_shift) {
 257:../src/tensorflow/lite/kernels/internal/quantization_util.cc ****     return -1;
 258:../src/tensorflow/lite/kernels/internal/quantization_util.cc ****   } else if (a_shift > b_shift) {
 259:../src/tensorflow/lite/kernels/internal/quantization_util.cc ****     return 1;
 260:../src/tensorflow/lite/kernels/internal/quantization_util.cc ****   } else if (a_fraction < b_fraction) {
 261:../src/tensorflow/lite/kernels/internal/quantization_util.cc ****     return -1;
 262:../src/tensorflow/lite/kernels/internal/quantization_util.cc ****   } else if (a_fraction > b_fraction) {
 263:../src/tensorflow/lite/kernels/internal/quantization_util.cc ****     return 1;
 264:../src/tensorflow/lite/kernels/internal/quantization_util.cc ****   } else {
 265:../src/tensorflow/lite/kernels/internal/quantization_util.cc ****     return 0;
 266:../src/tensorflow/lite/kernels/internal/quantization_util.cc ****   }
 267:../src/tensorflow/lite/kernels/internal/quantization_util.cc **** }
 268:../src/tensorflow/lite/kernels/internal/quantization_util.cc **** 
 269:../src/tensorflow/lite/kernels/internal/quantization_util.cc **** void PreprocessSoftmaxScaling(double beta, double input_scale,
 270:../src/tensorflow/lite/kernels/internal/quantization_util.cc ****                               int input_integer_bits,
 271:../src/tensorflow/lite/kernels/internal/quantization_util.cc ****                               int32_t* quantized_multiplier, int* left_shift) {
 642                             		.loc 1 271 79
 643                             	.LVL84:
 644 0000 7E A7                   		push.l	r7
 645                             	.LCFI10:
 646 0002 60 80                   		sub	#8, r0
 647                             	.LCFI11:
 272:../src/tensorflow/lite/kernels/internal/quantization_util.cc ****   // If the overall multiplier (input and beta) is large, then exp() of an
 273:../src/tensorflow/lite/kernels/internal/quantization_util.cc ****   // input difference of 1 scaled by this will be large.  In other words, we
 274:../src/tensorflow/lite/kernels/internal/quantization_util.cc ****   // can cap the multiplier and know that, when it is used, the output will be
 275:../src/tensorflow/lite/kernels/internal/quantization_util.cc ****   // (round to) zero wherever the input is not at the maximum value.
 276:../src/tensorflow/lite/kernels/internal/quantization_util.cc **** 
 277:../src/tensorflow/lite/kernels/internal/quantization_util.cc ****   // If the overall scale is less than one, and input_integer_bits=0, then the
 278:../src/tensorflow/lite/kernels/internal/quantization_util.cc ****   // result is double equivalent of Q0.31 (actually with more precision). Thus
 279:../src/tensorflow/lite/kernels/internal/quantization_util.cc ****   // this generates a Q(input_integer_bits).(31-input_integer_bits)
 280:../src/tensorflow/lite/kernels/internal/quantization_util.cc ****   // representation.
 281:../src/tensorflow/lite/kernels/internal/quantization_util.cc **** #ifdef TFLITE_EMULATE_FLOAT
 282:../src/tensorflow/lite/kernels/internal/quantization_util.cc ****   const double input_beta = IntegerDoubleMultiply(beta, input_scale);
 283:../src/tensorflow/lite/kernels/internal/quantization_util.cc ****   int shift;
 284:../src/tensorflow/lite/kernels/internal/quantization_util.cc ****   int64_t fraction = IntegerFrExp(input_beta, &shift);
 285:../src/tensorflow/lite/kernels/internal/quantization_util.cc ****   shift += (31 - input_integer_bits);
 286:../src/tensorflow/lite/kernels/internal/quantization_util.cc ****   double input_beta_real_multiplier =
 287:../src/tensorflow/lite/kernels/internal/quantization_util.cc ****       DoubleFromFractionAndShift(fraction, shift);
 288:../src/tensorflow/lite/kernels/internal/quantization_util.cc ****   if (IntegerDoubleCompare(input_beta_real_multiplier, (1ll << 31) - 1.0) > 0) {
 289:../src/tensorflow/lite/kernels/internal/quantization_util.cc ****     input_beta_real_multiplier = (1ll << 31) - 1.0;
 290:../src/tensorflow/lite/kernels/internal/quantization_util.cc ****   }
 291:../src/tensorflow/lite/kernels/internal/quantization_util.cc **** #else   // TFLITE_EMULATE_FLOAT
 292:../src/tensorflow/lite/kernels/internal/quantization_util.cc ****   const double input_beta_real_multiplier = std::min(
 648                             		.loc 1 292 3
 293:../src/tensorflow/lite/kernels/internal/quantization_util.cc ****       beta * input_scale * (1 << (31 - input_integer_bits)), (1ll << 31) - 1.0);
 649                             		.loc 1 293 12 is_stmt 0
 650 0004 FC 8F 21                		fmul	r2, r1
 651                             	.LVL85:
 652                             		.loc 1 293 31
 653 0007 FB 52 00 00 00 80       		mov.L	#-2147483648, r5
 654 000d FD 60 35                		shlr	r3, r5
 655                             	.LBB125:
 656                             	.LBB126:
 657                             		.file 3 "c:\\gcc for renesas rx 8.3.0.202004-gnurx-elf\\rx-elf\\rx-elf\\rx-elf\\include\\c++\\8.3.
   1:c:\gcc for renesas rx 8.3.0.202004-gnurx-elf\rx-elf\rx-elf\rx-elf\include\c++\8.3.0.202004-gnurx\bits\stl_algobase.h **** // Core algorithmic facilities -*- C++ -*-
   2:c:\gcc for renesas rx 8.3.0.202004-gnurx-elf\rx-elf\rx-elf\rx-elf\include\c++\8.3.0.202004-gnurx\bits\stl_algobase.h **** 
   3:c:\gcc for renesas rx 8.3.0.202004-gnurx-elf\rx-elf\rx-elf\rx-elf\include\c++\8.3.0.202004-gnurx\bits\stl_algobase.h **** // Copyright (C) 2001-2018 Free Software Foundation, Inc.
   4:c:\gcc for renesas rx 8.3.0.202004-gnurx-elf\rx-elf\rx-elf\rx-elf\include\c++\8.3.0.202004-gnurx\bits\stl_algobase.h **** //
   5:c:\gcc for renesas rx 8.3.0.202004-gnurx-elf\rx-elf\rx-elf\rx-elf\include\c++\8.3.0.202004-gnurx\bits\stl_algobase.h **** // This file is part of the GNU ISO C++ Library.  This library is free
   6:c:\gcc for renesas rx 8.3.0.202004-gnurx-elf\rx-elf\rx-elf\rx-elf\include\c++\8.3.0.202004-gnurx\bits\stl_algobase.h **** // software; you can redistribute it and/or modify it under the
   7:c:\gcc for renesas rx 8.3.0.202004-gnurx-elf\rx-elf\rx-elf\rx-elf\include\c++\8.3.0.202004-gnurx\bits\stl_algobase.h **** // terms of the GNU General Public License as published by the
   8:c:\gcc for renesas rx 8.3.0.202004-gnurx-elf\rx-elf\rx-elf\rx-elf\include\c++\8.3.0.202004-gnurx\bits\stl_algobase.h **** // Free Software Foundation; either version 3, or (at your option)
   9:c:\gcc for renesas rx 8.3.0.202004-gnurx-elf\rx-elf\rx-elf\rx-elf\include\c++\8.3.0.202004-gnurx\bits\stl_algobase.h **** // any later version.
  10:c:\gcc for renesas rx 8.3.0.202004-gnurx-elf\rx-elf\rx-elf\rx-elf\include\c++\8.3.0.202004-gnurx\bits\stl_algobase.h **** 
  11:c:\gcc for renesas rx 8.3.0.202004-gnurx-elf\rx-elf\rx-elf\rx-elf\include\c++\8.3.0.202004-gnurx\bits\stl_algobase.h **** // This library is distributed in the hope that it will be useful,
  12:c:\gcc for renesas rx 8.3.0.202004-gnurx-elf\rx-elf\rx-elf\rx-elf\include\c++\8.3.0.202004-gnurx\bits\stl_algobase.h **** // but WITHOUT ANY WARRANTY; without even the implied warranty of
  13:c:\gcc for renesas rx 8.3.0.202004-gnurx-elf\rx-elf\rx-elf\rx-elf\include\c++\8.3.0.202004-gnurx\bits\stl_algobase.h **** // MERCHANTABILITY or FITNESS FOR A PARTICULAR PURPOSE.  See the
  14:c:\gcc for renesas rx 8.3.0.202004-gnurx-elf\rx-elf\rx-elf\rx-elf\include\c++\8.3.0.202004-gnurx\bits\stl_algobase.h **** // GNU General Public License for more details.
  15:c:\gcc for renesas rx 8.3.0.202004-gnurx-elf\rx-elf\rx-elf\rx-elf\include\c++\8.3.0.202004-gnurx\bits\stl_algobase.h **** 
  16:c:\gcc for renesas rx 8.3.0.202004-gnurx-elf\rx-elf\rx-elf\rx-elf\include\c++\8.3.0.202004-gnurx\bits\stl_algobase.h **** // Under Section 7 of GPL version 3, you are granted additional
  17:c:\gcc for renesas rx 8.3.0.202004-gnurx-elf\rx-elf\rx-elf\rx-elf\include\c++\8.3.0.202004-gnurx\bits\stl_algobase.h **** // permissions described in the GCC Runtime Library Exception, version
  18:c:\gcc for renesas rx 8.3.0.202004-gnurx-elf\rx-elf\rx-elf\rx-elf\include\c++\8.3.0.202004-gnurx\bits\stl_algobase.h **** // 3.1, as published by the Free Software Foundation.
  19:c:\gcc for renesas rx 8.3.0.202004-gnurx-elf\rx-elf\rx-elf\rx-elf\include\c++\8.3.0.202004-gnurx\bits\stl_algobase.h **** 
  20:c:\gcc for renesas rx 8.3.0.202004-gnurx-elf\rx-elf\rx-elf\rx-elf\include\c++\8.3.0.202004-gnurx\bits\stl_algobase.h **** // You should have received a copy of the GNU General Public License and
  21:c:\gcc for renesas rx 8.3.0.202004-gnurx-elf\rx-elf\rx-elf\rx-elf\include\c++\8.3.0.202004-gnurx\bits\stl_algobase.h **** // a copy of the GCC Runtime Library Exception along with this program;
  22:c:\gcc for renesas rx 8.3.0.202004-gnurx-elf\rx-elf\rx-elf\rx-elf\include\c++\8.3.0.202004-gnurx\bits\stl_algobase.h **** // see the files COPYING3 and COPYING.RUNTIME respectively.  If not, see
  23:c:\gcc for renesas rx 8.3.0.202004-gnurx-elf\rx-elf\rx-elf\rx-elf\include\c++\8.3.0.202004-gnurx\bits\stl_algobase.h **** // <http://www.gnu.org/licenses/>.
  24:c:\gcc for renesas rx 8.3.0.202004-gnurx-elf\rx-elf\rx-elf\rx-elf\include\c++\8.3.0.202004-gnurx\bits\stl_algobase.h **** 
  25:c:\gcc for renesas rx 8.3.0.202004-gnurx-elf\rx-elf\rx-elf\rx-elf\include\c++\8.3.0.202004-gnurx\bits\stl_algobase.h **** /*
  26:c:\gcc for renesas rx 8.3.0.202004-gnurx-elf\rx-elf\rx-elf\rx-elf\include\c++\8.3.0.202004-gnurx\bits\stl_algobase.h ****  *
  27:c:\gcc for renesas rx 8.3.0.202004-gnurx-elf\rx-elf\rx-elf\rx-elf\include\c++\8.3.0.202004-gnurx\bits\stl_algobase.h ****  * Copyright (c) 1994
  28:c:\gcc for renesas rx 8.3.0.202004-gnurx-elf\rx-elf\rx-elf\rx-elf\include\c++\8.3.0.202004-gnurx\bits\stl_algobase.h ****  * Hewlett-Packard Company
  29:c:\gcc for renesas rx 8.3.0.202004-gnurx-elf\rx-elf\rx-elf\rx-elf\include\c++\8.3.0.202004-gnurx\bits\stl_algobase.h ****  *
  30:c:\gcc for renesas rx 8.3.0.202004-gnurx-elf\rx-elf\rx-elf\rx-elf\include\c++\8.3.0.202004-gnurx\bits\stl_algobase.h ****  * Permission to use, copy, modify, distribute and sell this software
  31:c:\gcc for renesas rx 8.3.0.202004-gnurx-elf\rx-elf\rx-elf\rx-elf\include\c++\8.3.0.202004-gnurx\bits\stl_algobase.h ****  * and its documentation for any purpose is hereby granted without fee,
  32:c:\gcc for renesas rx 8.3.0.202004-gnurx-elf\rx-elf\rx-elf\rx-elf\include\c++\8.3.0.202004-gnurx\bits\stl_algobase.h ****  * provided that the above copyright notice appear in all copies and
  33:c:\gcc for renesas rx 8.3.0.202004-gnurx-elf\rx-elf\rx-elf\rx-elf\include\c++\8.3.0.202004-gnurx\bits\stl_algobase.h ****  * that both that copyright notice and this permission notice appear
  34:c:\gcc for renesas rx 8.3.0.202004-gnurx-elf\rx-elf\rx-elf\rx-elf\include\c++\8.3.0.202004-gnurx\bits\stl_algobase.h ****  * in supporting documentation.  Hewlett-Packard Company makes no
  35:c:\gcc for renesas rx 8.3.0.202004-gnurx-elf\rx-elf\rx-elf\rx-elf\include\c++\8.3.0.202004-gnurx\bits\stl_algobase.h ****  * representations about the suitability of this software for any
  36:c:\gcc for renesas rx 8.3.0.202004-gnurx-elf\rx-elf\rx-elf\rx-elf\include\c++\8.3.0.202004-gnurx\bits\stl_algobase.h ****  * purpose.  It is provided "as is" without express or implied warranty.
  37:c:\gcc for renesas rx 8.3.0.202004-gnurx-elf\rx-elf\rx-elf\rx-elf\include\c++\8.3.0.202004-gnurx\bits\stl_algobase.h ****  *
  38:c:\gcc for renesas rx 8.3.0.202004-gnurx-elf\rx-elf\rx-elf\rx-elf\include\c++\8.3.0.202004-gnurx\bits\stl_algobase.h ****  *
  39:c:\gcc for renesas rx 8.3.0.202004-gnurx-elf\rx-elf\rx-elf\rx-elf\include\c++\8.3.0.202004-gnurx\bits\stl_algobase.h ****  * Copyright (c) 1996-1998
  40:c:\gcc for renesas rx 8.3.0.202004-gnurx-elf\rx-elf\rx-elf\rx-elf\include\c++\8.3.0.202004-gnurx\bits\stl_algobase.h ****  * Silicon Graphics Computer Systems, Inc.
  41:c:\gcc for renesas rx 8.3.0.202004-gnurx-elf\rx-elf\rx-elf\rx-elf\include\c++\8.3.0.202004-gnurx\bits\stl_algobase.h ****  *
  42:c:\gcc for renesas rx 8.3.0.202004-gnurx-elf\rx-elf\rx-elf\rx-elf\include\c++\8.3.0.202004-gnurx\bits\stl_algobase.h ****  * Permission to use, copy, modify, distribute and sell this software
  43:c:\gcc for renesas rx 8.3.0.202004-gnurx-elf\rx-elf\rx-elf\rx-elf\include\c++\8.3.0.202004-gnurx\bits\stl_algobase.h ****  * and its documentation for any purpose is hereby granted without fee,
  44:c:\gcc for renesas rx 8.3.0.202004-gnurx-elf\rx-elf\rx-elf\rx-elf\include\c++\8.3.0.202004-gnurx\bits\stl_algobase.h ****  * provided that the above copyright notice appear in all copies and
  45:c:\gcc for renesas rx 8.3.0.202004-gnurx-elf\rx-elf\rx-elf\rx-elf\include\c++\8.3.0.202004-gnurx\bits\stl_algobase.h ****  * that both that copyright notice and this permission notice appear
  46:c:\gcc for renesas rx 8.3.0.202004-gnurx-elf\rx-elf\rx-elf\rx-elf\include\c++\8.3.0.202004-gnurx\bits\stl_algobase.h ****  * in supporting documentation.  Silicon Graphics makes no
  47:c:\gcc for renesas rx 8.3.0.202004-gnurx-elf\rx-elf\rx-elf\rx-elf\include\c++\8.3.0.202004-gnurx\bits\stl_algobase.h ****  * representations about the suitability of this software for any
  48:c:\gcc for renesas rx 8.3.0.202004-gnurx-elf\rx-elf\rx-elf\rx-elf\include\c++\8.3.0.202004-gnurx\bits\stl_algobase.h ****  * purpose.  It is provided "as is" without express or implied warranty.
  49:c:\gcc for renesas rx 8.3.0.202004-gnurx-elf\rx-elf\rx-elf\rx-elf\include\c++\8.3.0.202004-gnurx\bits\stl_algobase.h ****  */
  50:c:\gcc for renesas rx 8.3.0.202004-gnurx-elf\rx-elf\rx-elf\rx-elf\include\c++\8.3.0.202004-gnurx\bits\stl_algobase.h **** 
  51:c:\gcc for renesas rx 8.3.0.202004-gnurx-elf\rx-elf\rx-elf\rx-elf\include\c++\8.3.0.202004-gnurx\bits\stl_algobase.h **** /** @file bits/stl_algobase.h
  52:c:\gcc for renesas rx 8.3.0.202004-gnurx-elf\rx-elf\rx-elf\rx-elf\include\c++\8.3.0.202004-gnurx\bits\stl_algobase.h ****  *  This is an internal header file, included by other library headers.
  53:c:\gcc for renesas rx 8.3.0.202004-gnurx-elf\rx-elf\rx-elf\rx-elf\include\c++\8.3.0.202004-gnurx\bits\stl_algobase.h ****  *  Do not attempt to use it directly. @headername{algorithm}
  54:c:\gcc for renesas rx 8.3.0.202004-gnurx-elf\rx-elf\rx-elf\rx-elf\include\c++\8.3.0.202004-gnurx\bits\stl_algobase.h ****  */
  55:c:\gcc for renesas rx 8.3.0.202004-gnurx-elf\rx-elf\rx-elf\rx-elf\include\c++\8.3.0.202004-gnurx\bits\stl_algobase.h **** 
  56:c:\gcc for renesas rx 8.3.0.202004-gnurx-elf\rx-elf\rx-elf\rx-elf\include\c++\8.3.0.202004-gnurx\bits\stl_algobase.h **** #ifndef _STL_ALGOBASE_H
  57:c:\gcc for renesas rx 8.3.0.202004-gnurx-elf\rx-elf\rx-elf\rx-elf\include\c++\8.3.0.202004-gnurx\bits\stl_algobase.h **** #define _STL_ALGOBASE_H 1
  58:c:\gcc for renesas rx 8.3.0.202004-gnurx-elf\rx-elf\rx-elf\rx-elf\include\c++\8.3.0.202004-gnurx\bits\stl_algobase.h **** 
  59:c:\gcc for renesas rx 8.3.0.202004-gnurx-elf\rx-elf\rx-elf\rx-elf\include\c++\8.3.0.202004-gnurx\bits\stl_algobase.h **** #include <bits/c++config.h>
  60:c:\gcc for renesas rx 8.3.0.202004-gnurx-elf\rx-elf\rx-elf\rx-elf\include\c++\8.3.0.202004-gnurx\bits\stl_algobase.h **** #include <bits/functexcept.h>
  61:c:\gcc for renesas rx 8.3.0.202004-gnurx-elf\rx-elf\rx-elf\rx-elf\include\c++\8.3.0.202004-gnurx\bits\stl_algobase.h **** #include <bits/cpp_type_traits.h>
  62:c:\gcc for renesas rx 8.3.0.202004-gnurx-elf\rx-elf\rx-elf\rx-elf\include\c++\8.3.0.202004-gnurx\bits\stl_algobase.h **** #include <ext/type_traits.h>
  63:c:\gcc for renesas rx 8.3.0.202004-gnurx-elf\rx-elf\rx-elf\rx-elf\include\c++\8.3.0.202004-gnurx\bits\stl_algobase.h **** #include <ext/numeric_traits.h>
  64:c:\gcc for renesas rx 8.3.0.202004-gnurx-elf\rx-elf\rx-elf\rx-elf\include\c++\8.3.0.202004-gnurx\bits\stl_algobase.h **** #include <bits/stl_pair.h>
  65:c:\gcc for renesas rx 8.3.0.202004-gnurx-elf\rx-elf\rx-elf\rx-elf\include\c++\8.3.0.202004-gnurx\bits\stl_algobase.h **** #include <bits/stl_iterator_base_types.h>
  66:c:\gcc for renesas rx 8.3.0.202004-gnurx-elf\rx-elf\rx-elf\rx-elf\include\c++\8.3.0.202004-gnurx\bits\stl_algobase.h **** #include <bits/stl_iterator_base_funcs.h>
  67:c:\gcc for renesas rx 8.3.0.202004-gnurx-elf\rx-elf\rx-elf\rx-elf\include\c++\8.3.0.202004-gnurx\bits\stl_algobase.h **** #include <bits/stl_iterator.h>
  68:c:\gcc for renesas rx 8.3.0.202004-gnurx-elf\rx-elf\rx-elf\rx-elf\include\c++\8.3.0.202004-gnurx\bits\stl_algobase.h **** #include <bits/concept_check.h>
  69:c:\gcc for renesas rx 8.3.0.202004-gnurx-elf\rx-elf\rx-elf\rx-elf\include\c++\8.3.0.202004-gnurx\bits\stl_algobase.h **** #include <debug/debug.h>
  70:c:\gcc for renesas rx 8.3.0.202004-gnurx-elf\rx-elf\rx-elf\rx-elf\include\c++\8.3.0.202004-gnurx\bits\stl_algobase.h **** #include <bits/move.h> // For std::swap
  71:c:\gcc for renesas rx 8.3.0.202004-gnurx-elf\rx-elf\rx-elf\rx-elf\include\c++\8.3.0.202004-gnurx\bits\stl_algobase.h **** #include <bits/predefined_ops.h>
  72:c:\gcc for renesas rx 8.3.0.202004-gnurx-elf\rx-elf\rx-elf\rx-elf\include\c++\8.3.0.202004-gnurx\bits\stl_algobase.h **** 
  73:c:\gcc for renesas rx 8.3.0.202004-gnurx-elf\rx-elf\rx-elf\rx-elf\include\c++\8.3.0.202004-gnurx\bits\stl_algobase.h **** namespace std _GLIBCXX_VISIBILITY(default)
  74:c:\gcc for renesas rx 8.3.0.202004-gnurx-elf\rx-elf\rx-elf\rx-elf\include\c++\8.3.0.202004-gnurx\bits\stl_algobase.h **** {
  75:c:\gcc for renesas rx 8.3.0.202004-gnurx-elf\rx-elf\rx-elf\rx-elf\include\c++\8.3.0.202004-gnurx\bits\stl_algobase.h **** _GLIBCXX_BEGIN_NAMESPACE_VERSION
  76:c:\gcc for renesas rx 8.3.0.202004-gnurx-elf\rx-elf\rx-elf\rx-elf\include\c++\8.3.0.202004-gnurx\bits\stl_algobase.h **** 
  77:c:\gcc for renesas rx 8.3.0.202004-gnurx-elf\rx-elf\rx-elf\rx-elf\include\c++\8.3.0.202004-gnurx\bits\stl_algobase.h **** #if __cplusplus < 201103L
  78:c:\gcc for renesas rx 8.3.0.202004-gnurx-elf\rx-elf\rx-elf\rx-elf\include\c++\8.3.0.202004-gnurx\bits\stl_algobase.h ****   // See http://gcc.gnu.org/ml/libstdc++/2004-08/msg00167.html: in a
  79:c:\gcc for renesas rx 8.3.0.202004-gnurx-elf\rx-elf\rx-elf\rx-elf\include\c++\8.3.0.202004-gnurx\bits\stl_algobase.h ****   // nutshell, we are partially implementing the resolution of DR 187,
  80:c:\gcc for renesas rx 8.3.0.202004-gnurx-elf\rx-elf\rx-elf\rx-elf\include\c++\8.3.0.202004-gnurx\bits\stl_algobase.h ****   // when it's safe, i.e., the value_types are equal.
  81:c:\gcc for renesas rx 8.3.0.202004-gnurx-elf\rx-elf\rx-elf\rx-elf\include\c++\8.3.0.202004-gnurx\bits\stl_algobase.h ****   template<bool _BoolType>
  82:c:\gcc for renesas rx 8.3.0.202004-gnurx-elf\rx-elf\rx-elf\rx-elf\include\c++\8.3.0.202004-gnurx\bits\stl_algobase.h ****     struct __iter_swap
  83:c:\gcc for renesas rx 8.3.0.202004-gnurx-elf\rx-elf\rx-elf\rx-elf\include\c++\8.3.0.202004-gnurx\bits\stl_algobase.h ****     {
  84:c:\gcc for renesas rx 8.3.0.202004-gnurx-elf\rx-elf\rx-elf\rx-elf\include\c++\8.3.0.202004-gnurx\bits\stl_algobase.h ****       template<typename _ForwardIterator1, typename _ForwardIterator2>
  85:c:\gcc for renesas rx 8.3.0.202004-gnurx-elf\rx-elf\rx-elf\rx-elf\include\c++\8.3.0.202004-gnurx\bits\stl_algobase.h **** 	static void
  86:c:\gcc for renesas rx 8.3.0.202004-gnurx-elf\rx-elf\rx-elf\rx-elf\include\c++\8.3.0.202004-gnurx\bits\stl_algobase.h **** 	iter_swap(_ForwardIterator1 __a, _ForwardIterator2 __b)
  87:c:\gcc for renesas rx 8.3.0.202004-gnurx-elf\rx-elf\rx-elf\rx-elf\include\c++\8.3.0.202004-gnurx\bits\stl_algobase.h **** 	{
  88:c:\gcc for renesas rx 8.3.0.202004-gnurx-elf\rx-elf\rx-elf\rx-elf\include\c++\8.3.0.202004-gnurx\bits\stl_algobase.h **** 	  typedef typename iterator_traits<_ForwardIterator1>::value_type
  89:c:\gcc for renesas rx 8.3.0.202004-gnurx-elf\rx-elf\rx-elf\rx-elf\include\c++\8.3.0.202004-gnurx\bits\stl_algobase.h **** 	    _ValueType1;
  90:c:\gcc for renesas rx 8.3.0.202004-gnurx-elf\rx-elf\rx-elf\rx-elf\include\c++\8.3.0.202004-gnurx\bits\stl_algobase.h **** 	  _ValueType1 __tmp = *__a;
  91:c:\gcc for renesas rx 8.3.0.202004-gnurx-elf\rx-elf\rx-elf\rx-elf\include\c++\8.3.0.202004-gnurx\bits\stl_algobase.h **** 	  *__a = *__b;
  92:c:\gcc for renesas rx 8.3.0.202004-gnurx-elf\rx-elf\rx-elf\rx-elf\include\c++\8.3.0.202004-gnurx\bits\stl_algobase.h **** 	  *__b = __tmp;
  93:c:\gcc for renesas rx 8.3.0.202004-gnurx-elf\rx-elf\rx-elf\rx-elf\include\c++\8.3.0.202004-gnurx\bits\stl_algobase.h **** 	}
  94:c:\gcc for renesas rx 8.3.0.202004-gnurx-elf\rx-elf\rx-elf\rx-elf\include\c++\8.3.0.202004-gnurx\bits\stl_algobase.h ****     };
  95:c:\gcc for renesas rx 8.3.0.202004-gnurx-elf\rx-elf\rx-elf\rx-elf\include\c++\8.3.0.202004-gnurx\bits\stl_algobase.h **** 
  96:c:\gcc for renesas rx 8.3.0.202004-gnurx-elf\rx-elf\rx-elf\rx-elf\include\c++\8.3.0.202004-gnurx\bits\stl_algobase.h ****   template<>
  97:c:\gcc for renesas rx 8.3.0.202004-gnurx-elf\rx-elf\rx-elf\rx-elf\include\c++\8.3.0.202004-gnurx\bits\stl_algobase.h ****     struct __iter_swap<true>
  98:c:\gcc for renesas rx 8.3.0.202004-gnurx-elf\rx-elf\rx-elf\rx-elf\include\c++\8.3.0.202004-gnurx\bits\stl_algobase.h ****     {
  99:c:\gcc for renesas rx 8.3.0.202004-gnurx-elf\rx-elf\rx-elf\rx-elf\include\c++\8.3.0.202004-gnurx\bits\stl_algobase.h ****       template<typename _ForwardIterator1, typename _ForwardIterator2>
 100:c:\gcc for renesas rx 8.3.0.202004-gnurx-elf\rx-elf\rx-elf\rx-elf\include\c++\8.3.0.202004-gnurx\bits\stl_algobase.h **** 	static void
 101:c:\gcc for renesas rx 8.3.0.202004-gnurx-elf\rx-elf\rx-elf\rx-elf\include\c++\8.3.0.202004-gnurx\bits\stl_algobase.h **** 	iter_swap(_ForwardIterator1 __a, _ForwardIterator2 __b)
 102:c:\gcc for renesas rx 8.3.0.202004-gnurx-elf\rx-elf\rx-elf\rx-elf\include\c++\8.3.0.202004-gnurx\bits\stl_algobase.h **** 	{
 103:c:\gcc for renesas rx 8.3.0.202004-gnurx-elf\rx-elf\rx-elf\rx-elf\include\c++\8.3.0.202004-gnurx\bits\stl_algobase.h **** 	  swap(*__a, *__b);
 104:c:\gcc for renesas rx 8.3.0.202004-gnurx-elf\rx-elf\rx-elf\rx-elf\include\c++\8.3.0.202004-gnurx\bits\stl_algobase.h **** 	}
 105:c:\gcc for renesas rx 8.3.0.202004-gnurx-elf\rx-elf\rx-elf\rx-elf\include\c++\8.3.0.202004-gnurx\bits\stl_algobase.h ****     };
 106:c:\gcc for renesas rx 8.3.0.202004-gnurx-elf\rx-elf\rx-elf\rx-elf\include\c++\8.3.0.202004-gnurx\bits\stl_algobase.h **** #endif
 107:c:\gcc for renesas rx 8.3.0.202004-gnurx-elf\rx-elf\rx-elf\rx-elf\include\c++\8.3.0.202004-gnurx\bits\stl_algobase.h **** 
 108:c:\gcc for renesas rx 8.3.0.202004-gnurx-elf\rx-elf\rx-elf\rx-elf\include\c++\8.3.0.202004-gnurx\bits\stl_algobase.h ****   /**
 109:c:\gcc for renesas rx 8.3.0.202004-gnurx-elf\rx-elf\rx-elf\rx-elf\include\c++\8.3.0.202004-gnurx\bits\stl_algobase.h ****    *  @brief Swaps the contents of two iterators.
 110:c:\gcc for renesas rx 8.3.0.202004-gnurx-elf\rx-elf\rx-elf\rx-elf\include\c++\8.3.0.202004-gnurx\bits\stl_algobase.h ****    *  @ingroup mutating_algorithms
 111:c:\gcc for renesas rx 8.3.0.202004-gnurx-elf\rx-elf\rx-elf\rx-elf\include\c++\8.3.0.202004-gnurx\bits\stl_algobase.h ****    *  @param  __a  An iterator.
 112:c:\gcc for renesas rx 8.3.0.202004-gnurx-elf\rx-elf\rx-elf\rx-elf\include\c++\8.3.0.202004-gnurx\bits\stl_algobase.h ****    *  @param  __b  Another iterator.
 113:c:\gcc for renesas rx 8.3.0.202004-gnurx-elf\rx-elf\rx-elf\rx-elf\include\c++\8.3.0.202004-gnurx\bits\stl_algobase.h ****    *  @return   Nothing.
 114:c:\gcc for renesas rx 8.3.0.202004-gnurx-elf\rx-elf\rx-elf\rx-elf\include\c++\8.3.0.202004-gnurx\bits\stl_algobase.h ****    *
 115:c:\gcc for renesas rx 8.3.0.202004-gnurx-elf\rx-elf\rx-elf\rx-elf\include\c++\8.3.0.202004-gnurx\bits\stl_algobase.h ****    *  This function swaps the values pointed to by two iterators, not the
 116:c:\gcc for renesas rx 8.3.0.202004-gnurx-elf\rx-elf\rx-elf\rx-elf\include\c++\8.3.0.202004-gnurx\bits\stl_algobase.h ****    *  iterators themselves.
 117:c:\gcc for renesas rx 8.3.0.202004-gnurx-elf\rx-elf\rx-elf\rx-elf\include\c++\8.3.0.202004-gnurx\bits\stl_algobase.h ****   */
 118:c:\gcc for renesas rx 8.3.0.202004-gnurx-elf\rx-elf\rx-elf\rx-elf\include\c++\8.3.0.202004-gnurx\bits\stl_algobase.h ****   template<typename _ForwardIterator1, typename _ForwardIterator2>
 119:c:\gcc for renesas rx 8.3.0.202004-gnurx-elf\rx-elf\rx-elf\rx-elf\include\c++\8.3.0.202004-gnurx\bits\stl_algobase.h ****     inline void
 120:c:\gcc for renesas rx 8.3.0.202004-gnurx-elf\rx-elf\rx-elf\rx-elf\include\c++\8.3.0.202004-gnurx\bits\stl_algobase.h ****     iter_swap(_ForwardIterator1 __a, _ForwardIterator2 __b)
 121:c:\gcc for renesas rx 8.3.0.202004-gnurx-elf\rx-elf\rx-elf\rx-elf\include\c++\8.3.0.202004-gnurx\bits\stl_algobase.h ****     {
 122:c:\gcc for renesas rx 8.3.0.202004-gnurx-elf\rx-elf\rx-elf\rx-elf\include\c++\8.3.0.202004-gnurx\bits\stl_algobase.h ****       // concept requirements
 123:c:\gcc for renesas rx 8.3.0.202004-gnurx-elf\rx-elf\rx-elf\rx-elf\include\c++\8.3.0.202004-gnurx\bits\stl_algobase.h ****       __glibcxx_function_requires(_Mutable_ForwardIteratorConcept<
 124:c:\gcc for renesas rx 8.3.0.202004-gnurx-elf\rx-elf\rx-elf\rx-elf\include\c++\8.3.0.202004-gnurx\bits\stl_algobase.h **** 				  _ForwardIterator1>)
 125:c:\gcc for renesas rx 8.3.0.202004-gnurx-elf\rx-elf\rx-elf\rx-elf\include\c++\8.3.0.202004-gnurx\bits\stl_algobase.h ****       __glibcxx_function_requires(_Mutable_ForwardIteratorConcept<
 126:c:\gcc for renesas rx 8.3.0.202004-gnurx-elf\rx-elf\rx-elf\rx-elf\include\c++\8.3.0.202004-gnurx\bits\stl_algobase.h **** 				  _ForwardIterator2>)
 127:c:\gcc for renesas rx 8.3.0.202004-gnurx-elf\rx-elf\rx-elf\rx-elf\include\c++\8.3.0.202004-gnurx\bits\stl_algobase.h **** 
 128:c:\gcc for renesas rx 8.3.0.202004-gnurx-elf\rx-elf\rx-elf\rx-elf\include\c++\8.3.0.202004-gnurx\bits\stl_algobase.h **** #if __cplusplus < 201103L
 129:c:\gcc for renesas rx 8.3.0.202004-gnurx-elf\rx-elf\rx-elf\rx-elf\include\c++\8.3.0.202004-gnurx\bits\stl_algobase.h ****       typedef typename iterator_traits<_ForwardIterator1>::value_type
 130:c:\gcc for renesas rx 8.3.0.202004-gnurx-elf\rx-elf\rx-elf\rx-elf\include\c++\8.3.0.202004-gnurx\bits\stl_algobase.h **** 	_ValueType1;
 131:c:\gcc for renesas rx 8.3.0.202004-gnurx-elf\rx-elf\rx-elf\rx-elf\include\c++\8.3.0.202004-gnurx\bits\stl_algobase.h ****       typedef typename iterator_traits<_ForwardIterator2>::value_type
 132:c:\gcc for renesas rx 8.3.0.202004-gnurx-elf\rx-elf\rx-elf\rx-elf\include\c++\8.3.0.202004-gnurx\bits\stl_algobase.h **** 	_ValueType2;
 133:c:\gcc for renesas rx 8.3.0.202004-gnurx-elf\rx-elf\rx-elf\rx-elf\include\c++\8.3.0.202004-gnurx\bits\stl_algobase.h **** 
 134:c:\gcc for renesas rx 8.3.0.202004-gnurx-elf\rx-elf\rx-elf\rx-elf\include\c++\8.3.0.202004-gnurx\bits\stl_algobase.h ****       __glibcxx_function_requires(_ConvertibleConcept<_ValueType1,
 135:c:\gcc for renesas rx 8.3.0.202004-gnurx-elf\rx-elf\rx-elf\rx-elf\include\c++\8.3.0.202004-gnurx\bits\stl_algobase.h **** 				  _ValueType2>)
 136:c:\gcc for renesas rx 8.3.0.202004-gnurx-elf\rx-elf\rx-elf\rx-elf\include\c++\8.3.0.202004-gnurx\bits\stl_algobase.h ****       __glibcxx_function_requires(_ConvertibleConcept<_ValueType2,
 137:c:\gcc for renesas rx 8.3.0.202004-gnurx-elf\rx-elf\rx-elf\rx-elf\include\c++\8.3.0.202004-gnurx\bits\stl_algobase.h **** 				  _ValueType1>)
 138:c:\gcc for renesas rx 8.3.0.202004-gnurx-elf\rx-elf\rx-elf\rx-elf\include\c++\8.3.0.202004-gnurx\bits\stl_algobase.h **** 
 139:c:\gcc for renesas rx 8.3.0.202004-gnurx-elf\rx-elf\rx-elf\rx-elf\include\c++\8.3.0.202004-gnurx\bits\stl_algobase.h ****       typedef typename iterator_traits<_ForwardIterator1>::reference
 140:c:\gcc for renesas rx 8.3.0.202004-gnurx-elf\rx-elf\rx-elf\rx-elf\include\c++\8.3.0.202004-gnurx\bits\stl_algobase.h **** 	_ReferenceType1;
 141:c:\gcc for renesas rx 8.3.0.202004-gnurx-elf\rx-elf\rx-elf\rx-elf\include\c++\8.3.0.202004-gnurx\bits\stl_algobase.h ****       typedef typename iterator_traits<_ForwardIterator2>::reference
 142:c:\gcc for renesas rx 8.3.0.202004-gnurx-elf\rx-elf\rx-elf\rx-elf\include\c++\8.3.0.202004-gnurx\bits\stl_algobase.h **** 	_ReferenceType2;
 143:c:\gcc for renesas rx 8.3.0.202004-gnurx-elf\rx-elf\rx-elf\rx-elf\include\c++\8.3.0.202004-gnurx\bits\stl_algobase.h ****       std::__iter_swap<__are_same<_ValueType1, _ValueType2>::__value
 144:c:\gcc for renesas rx 8.3.0.202004-gnurx-elf\rx-elf\rx-elf\rx-elf\include\c++\8.3.0.202004-gnurx\bits\stl_algobase.h **** 	&& __are_same<_ValueType1&, _ReferenceType1>::__value
 145:c:\gcc for renesas rx 8.3.0.202004-gnurx-elf\rx-elf\rx-elf\rx-elf\include\c++\8.3.0.202004-gnurx\bits\stl_algobase.h **** 	&& __are_same<_ValueType2&, _ReferenceType2>::__value>::
 146:c:\gcc for renesas rx 8.3.0.202004-gnurx-elf\rx-elf\rx-elf\rx-elf\include\c++\8.3.0.202004-gnurx\bits\stl_algobase.h **** 	iter_swap(__a, __b);
 147:c:\gcc for renesas rx 8.3.0.202004-gnurx-elf\rx-elf\rx-elf\rx-elf\include\c++\8.3.0.202004-gnurx\bits\stl_algobase.h **** #else
 148:c:\gcc for renesas rx 8.3.0.202004-gnurx-elf\rx-elf\rx-elf\rx-elf\include\c++\8.3.0.202004-gnurx\bits\stl_algobase.h ****       swap(*__a, *__b);
 149:c:\gcc for renesas rx 8.3.0.202004-gnurx-elf\rx-elf\rx-elf\rx-elf\include\c++\8.3.0.202004-gnurx\bits\stl_algobase.h **** #endif
 150:c:\gcc for renesas rx 8.3.0.202004-gnurx-elf\rx-elf\rx-elf\rx-elf\include\c++\8.3.0.202004-gnurx\bits\stl_algobase.h ****     }
 151:c:\gcc for renesas rx 8.3.0.202004-gnurx-elf\rx-elf\rx-elf\rx-elf\include\c++\8.3.0.202004-gnurx\bits\stl_algobase.h **** 
 152:c:\gcc for renesas rx 8.3.0.202004-gnurx-elf\rx-elf\rx-elf\rx-elf\include\c++\8.3.0.202004-gnurx\bits\stl_algobase.h ****   /**
 153:c:\gcc for renesas rx 8.3.0.202004-gnurx-elf\rx-elf\rx-elf\rx-elf\include\c++\8.3.0.202004-gnurx\bits\stl_algobase.h ****    *  @brief Swap the elements of two sequences.
 154:c:\gcc for renesas rx 8.3.0.202004-gnurx-elf\rx-elf\rx-elf\rx-elf\include\c++\8.3.0.202004-gnurx\bits\stl_algobase.h ****    *  @ingroup mutating_algorithms
 155:c:\gcc for renesas rx 8.3.0.202004-gnurx-elf\rx-elf\rx-elf\rx-elf\include\c++\8.3.0.202004-gnurx\bits\stl_algobase.h ****    *  @param  __first1  A forward iterator.
 156:c:\gcc for renesas rx 8.3.0.202004-gnurx-elf\rx-elf\rx-elf\rx-elf\include\c++\8.3.0.202004-gnurx\bits\stl_algobase.h ****    *  @param  __last1   A forward iterator.
 157:c:\gcc for renesas rx 8.3.0.202004-gnurx-elf\rx-elf\rx-elf\rx-elf\include\c++\8.3.0.202004-gnurx\bits\stl_algobase.h ****    *  @param  __first2  A forward iterator.
 158:c:\gcc for renesas rx 8.3.0.202004-gnurx-elf\rx-elf\rx-elf\rx-elf\include\c++\8.3.0.202004-gnurx\bits\stl_algobase.h ****    *  @return   An iterator equal to @p first2+(last1-first1).
 159:c:\gcc for renesas rx 8.3.0.202004-gnurx-elf\rx-elf\rx-elf\rx-elf\include\c++\8.3.0.202004-gnurx\bits\stl_algobase.h ****    *
 160:c:\gcc for renesas rx 8.3.0.202004-gnurx-elf\rx-elf\rx-elf\rx-elf\include\c++\8.3.0.202004-gnurx\bits\stl_algobase.h ****    *  Swaps each element in the range @p [first1,last1) with the
 161:c:\gcc for renesas rx 8.3.0.202004-gnurx-elf\rx-elf\rx-elf\rx-elf\include\c++\8.3.0.202004-gnurx\bits\stl_algobase.h ****    *  corresponding element in the range @p [first2,(last1-first1)).
 162:c:\gcc for renesas rx 8.3.0.202004-gnurx-elf\rx-elf\rx-elf\rx-elf\include\c++\8.3.0.202004-gnurx\bits\stl_algobase.h ****    *  The ranges must not overlap.
 163:c:\gcc for renesas rx 8.3.0.202004-gnurx-elf\rx-elf\rx-elf\rx-elf\include\c++\8.3.0.202004-gnurx\bits\stl_algobase.h ****   */
 164:c:\gcc for renesas rx 8.3.0.202004-gnurx-elf\rx-elf\rx-elf\rx-elf\include\c++\8.3.0.202004-gnurx\bits\stl_algobase.h ****   template<typename _ForwardIterator1, typename _ForwardIterator2>
 165:c:\gcc for renesas rx 8.3.0.202004-gnurx-elf\rx-elf\rx-elf\rx-elf\include\c++\8.3.0.202004-gnurx\bits\stl_algobase.h ****     _ForwardIterator2
 166:c:\gcc for renesas rx 8.3.0.202004-gnurx-elf\rx-elf\rx-elf\rx-elf\include\c++\8.3.0.202004-gnurx\bits\stl_algobase.h ****     swap_ranges(_ForwardIterator1 __first1, _ForwardIterator1 __last1,
 167:c:\gcc for renesas rx 8.3.0.202004-gnurx-elf\rx-elf\rx-elf\rx-elf\include\c++\8.3.0.202004-gnurx\bits\stl_algobase.h **** 		_ForwardIterator2 __first2)
 168:c:\gcc for renesas rx 8.3.0.202004-gnurx-elf\rx-elf\rx-elf\rx-elf\include\c++\8.3.0.202004-gnurx\bits\stl_algobase.h ****     {
 169:c:\gcc for renesas rx 8.3.0.202004-gnurx-elf\rx-elf\rx-elf\rx-elf\include\c++\8.3.0.202004-gnurx\bits\stl_algobase.h ****       // concept requirements
 170:c:\gcc for renesas rx 8.3.0.202004-gnurx-elf\rx-elf\rx-elf\rx-elf\include\c++\8.3.0.202004-gnurx\bits\stl_algobase.h ****       __glibcxx_function_requires(_Mutable_ForwardIteratorConcept<
 171:c:\gcc for renesas rx 8.3.0.202004-gnurx-elf\rx-elf\rx-elf\rx-elf\include\c++\8.3.0.202004-gnurx\bits\stl_algobase.h **** 				  _ForwardIterator1>)
 172:c:\gcc for renesas rx 8.3.0.202004-gnurx-elf\rx-elf\rx-elf\rx-elf\include\c++\8.3.0.202004-gnurx\bits\stl_algobase.h ****       __glibcxx_function_requires(_Mutable_ForwardIteratorConcept<
 173:c:\gcc for renesas rx 8.3.0.202004-gnurx-elf\rx-elf\rx-elf\rx-elf\include\c++\8.3.0.202004-gnurx\bits\stl_algobase.h **** 				  _ForwardIterator2>)
 174:c:\gcc for renesas rx 8.3.0.202004-gnurx-elf\rx-elf\rx-elf\rx-elf\include\c++\8.3.0.202004-gnurx\bits\stl_algobase.h ****       __glibcxx_requires_valid_range(__first1, __last1);
 175:c:\gcc for renesas rx 8.3.0.202004-gnurx-elf\rx-elf\rx-elf\rx-elf\include\c++\8.3.0.202004-gnurx\bits\stl_algobase.h **** 
 176:c:\gcc for renesas rx 8.3.0.202004-gnurx-elf\rx-elf\rx-elf\rx-elf\include\c++\8.3.0.202004-gnurx\bits\stl_algobase.h ****       for (; __first1 != __last1; ++__first1, (void)++__first2)
 177:c:\gcc for renesas rx 8.3.0.202004-gnurx-elf\rx-elf\rx-elf\rx-elf\include\c++\8.3.0.202004-gnurx\bits\stl_algobase.h **** 	std::iter_swap(__first1, __first2);
 178:c:\gcc for renesas rx 8.3.0.202004-gnurx-elf\rx-elf\rx-elf\rx-elf\include\c++\8.3.0.202004-gnurx\bits\stl_algobase.h ****       return __first2;
 179:c:\gcc for renesas rx 8.3.0.202004-gnurx-elf\rx-elf\rx-elf\rx-elf\include\c++\8.3.0.202004-gnurx\bits\stl_algobase.h ****     }
 180:c:\gcc for renesas rx 8.3.0.202004-gnurx-elf\rx-elf\rx-elf\rx-elf\include\c++\8.3.0.202004-gnurx\bits\stl_algobase.h **** 
 181:c:\gcc for renesas rx 8.3.0.202004-gnurx-elf\rx-elf\rx-elf\rx-elf\include\c++\8.3.0.202004-gnurx\bits\stl_algobase.h ****   /**
 182:c:\gcc for renesas rx 8.3.0.202004-gnurx-elf\rx-elf\rx-elf\rx-elf\include\c++\8.3.0.202004-gnurx\bits\stl_algobase.h ****    *  @brief This does what you think it does.
 183:c:\gcc for renesas rx 8.3.0.202004-gnurx-elf\rx-elf\rx-elf\rx-elf\include\c++\8.3.0.202004-gnurx\bits\stl_algobase.h ****    *  @ingroup sorting_algorithms
 184:c:\gcc for renesas rx 8.3.0.202004-gnurx-elf\rx-elf\rx-elf\rx-elf\include\c++\8.3.0.202004-gnurx\bits\stl_algobase.h ****    *  @param  __a  A thing of arbitrary type.
 185:c:\gcc for renesas rx 8.3.0.202004-gnurx-elf\rx-elf\rx-elf\rx-elf\include\c++\8.3.0.202004-gnurx\bits\stl_algobase.h ****    *  @param  __b  Another thing of arbitrary type.
 186:c:\gcc for renesas rx 8.3.0.202004-gnurx-elf\rx-elf\rx-elf\rx-elf\include\c++\8.3.0.202004-gnurx\bits\stl_algobase.h ****    *  @return   The lesser of the parameters.
 187:c:\gcc for renesas rx 8.3.0.202004-gnurx-elf\rx-elf\rx-elf\rx-elf\include\c++\8.3.0.202004-gnurx\bits\stl_algobase.h ****    *
 188:c:\gcc for renesas rx 8.3.0.202004-gnurx-elf\rx-elf\rx-elf\rx-elf\include\c++\8.3.0.202004-gnurx\bits\stl_algobase.h ****    *  This is the simple classic generic implementation.  It will work on
 189:c:\gcc for renesas rx 8.3.0.202004-gnurx-elf\rx-elf\rx-elf\rx-elf\include\c++\8.3.0.202004-gnurx\bits\stl_algobase.h ****    *  temporary expressions, since they are only evaluated once, unlike a
 190:c:\gcc for renesas rx 8.3.0.202004-gnurx-elf\rx-elf\rx-elf\rx-elf\include\c++\8.3.0.202004-gnurx\bits\stl_algobase.h ****    *  preprocessor macro.
 191:c:\gcc for renesas rx 8.3.0.202004-gnurx-elf\rx-elf\rx-elf\rx-elf\include\c++\8.3.0.202004-gnurx\bits\stl_algobase.h ****   */
 192:c:\gcc for renesas rx 8.3.0.202004-gnurx-elf\rx-elf\rx-elf\rx-elf\include\c++\8.3.0.202004-gnurx\bits\stl_algobase.h ****   template<typename _Tp>
 193:c:\gcc for renesas rx 8.3.0.202004-gnurx-elf\rx-elf\rx-elf\rx-elf\include\c++\8.3.0.202004-gnurx\bits\stl_algobase.h ****     _GLIBCXX14_CONSTEXPR
 194:c:\gcc for renesas rx 8.3.0.202004-gnurx-elf\rx-elf\rx-elf\rx-elf\include\c++\8.3.0.202004-gnurx\bits\stl_algobase.h ****     inline const _Tp&
 195:c:\gcc for renesas rx 8.3.0.202004-gnurx-elf\rx-elf\rx-elf\rx-elf\include\c++\8.3.0.202004-gnurx\bits\stl_algobase.h ****     min(const _Tp& __a, const _Tp& __b)
 196:c:\gcc for renesas rx 8.3.0.202004-gnurx-elf\rx-elf\rx-elf\rx-elf\include\c++\8.3.0.202004-gnurx\bits\stl_algobase.h ****     {
 197:c:\gcc for renesas rx 8.3.0.202004-gnurx-elf\rx-elf\rx-elf\rx-elf\include\c++\8.3.0.202004-gnurx\bits\stl_algobase.h ****       // concept requirements
 198:c:\gcc for renesas rx 8.3.0.202004-gnurx-elf\rx-elf\rx-elf\rx-elf\include\c++\8.3.0.202004-gnurx\bits\stl_algobase.h ****       __glibcxx_function_requires(_LessThanComparableConcept<_Tp>)
 199:c:\gcc for renesas rx 8.3.0.202004-gnurx-elf\rx-elf\rx-elf\rx-elf\include\c++\8.3.0.202004-gnurx\bits\stl_algobase.h ****       //return __b < __a ? __b : __a;
 200:c:\gcc for renesas rx 8.3.0.202004-gnurx-elf\rx-elf\rx-elf\rx-elf\include\c++\8.3.0.202004-gnurx\bits\stl_algobase.h ****       if (__b < __a)
 658                             		.loc 3 200 7
 659 0010 FB 32 00 00 00 4F       		mov.L	#0x4f000000, r3
 660                             	.LVL86:
 661                             	.LBE126:
 662                             	.LBE125:
 663                             		.loc 1 293 26
 664 0016 FC 47 55                		itof	r5, r5
 271:../src/tensorflow/lite/kernels/internal/quantization_util.cc ****   // If the overall multiplier (input and beta) is large, then exp() of an
 665                             		.loc 1 271 79
 666 0019 A9 07                   		mov.L	16[r0], r7
 667                             		.loc 1 293 26
 668 001b FC 8F 51                		fmul	r5, r1
 669                             	.LVL87:
 670                             	.LBB129:
 671                             	.LBB127:
 672                             		.loc 3 200 7
 673 001e FC 87 13                		fcmp	r1, r3
 674 0021 27 1F                   		bn	.L95
 675                             	.LVL88:
 676                             	.LBE127:
 677                             	.LBE129:
 294:../src/tensorflow/lite/kernels/internal/quantization_util.cc **** #endif  // TFLITE_EMULATE_FLOAT
 295:../src/tensorflow/lite/kernels/internal/quantization_util.cc **** 
 296:../src/tensorflow/lite/kernels/internal/quantization_util.cc ****   QuantizeMultiplierGreaterThanOne(input_beta_real_multiplier,
 678                             		.loc 1 296 3 is_stmt 1
 679                             	.LBB130:
 680                             	.LBB131:
  96:../src/tensorflow/lite/kernels/internal/quantization_util.cc ****   QuantizeMultiplier(double_multiplier, quantized_multiplier, left_shift);
 681                             		.loc 1 96 3
 682 0023 FB 52 00 00 80 3F       		mov.L	#0x3f800000, r5
 683 0029 FC 87 15                		fcmp	r1, r5
 684 002c 26 4C                   		bpz	.L91
  97:../src/tensorflow/lite/kernels/internal/quantization_util.cc ****   TFLITE_CHECK_GE(*left_shift, 0);
 685                             		.loc 1 97 3
 686                             	.LVL89:
 687                             	.LBB132:
 688                             	.LBB133:
  55:../src/tensorflow/lite/kernels/internal/quantization_util.cc ****     *quantized_multiplier = 0;
 689                             		.loc 1 55 3
 690 002e FD 72 11 00 00 00 00    		fcmp	#0x0, r1
 691 0035 21 0D                   		bne	.L88
  56:../src/tensorflow/lite/kernels/internal/quantization_util.cc ****     *shift = 0;
 692                             		.loc 1 56 5
  56:../src/tensorflow/lite/kernels/internal/quantization_util.cc ****     *shift = 0;
 693                             		.loc 1 56 27 is_stmt 0
 694 0037 F8 46 00                		mov.L	#0, [r4]
  57:../src/tensorflow/lite/kernels/internal/quantization_util.cc ****     return;
 695                             		.loc 1 57 5 is_stmt 1
  57:../src/tensorflow/lite/kernels/internal/quantization_util.cc ****     return;
 696                             		.loc 1 57 12 is_stmt 0
 697 003a F8 76 00                		mov.L	#0, [r7]
  58:../src/tensorflow/lite/kernels/internal/quantization_util.cc ****   }
 698                             		.loc 1 58 5 is_stmt 1
 699                             	.LVL90:
 700                             	.LBE133:
 701                             	.LBE132:
  98:../src/tensorflow/lite/kernels/internal/quantization_util.cc **** }
 702                             		.loc 1 98 3
 703                             		.balign 8,3,2
 704                             	.L87:
 705                             	.LBE131:
 706                             	.LBE130:
 297:../src/tensorflow/lite/kernels/internal/quantization_util.cc ****                                    quantized_multiplier, left_shift);
 298:../src/tensorflow/lite/kernels/internal/quantization_util.cc **** }
 707                             		.loc 1 298 1 is_stmt 0
 708 003d 3F 77 03                		rtsd	#12, r7-r7
 709                             	.LVL91:
 710                             	.L95:
 711                             	.LBB150:
 712                             	.LBB128:
 201:c:\gcc for renesas rx 8.3.0.202004-gnurx-elf\rx-elf\rx-elf\rx-elf\include\c++\8.3.0.202004-gnurx\bits\stl_algobase.h **** 	return __b;
 713                             		.loc 3 201 9
 714 0040 EF 31                   		mov.L	r3, r1
 715                             	.LVL92:
 716                             		.balign 8,3,1
 717                             	.L88:
 718                             	.LBE128:
 719                             	.LBE150:
 720                             	.LBB151:
 721                             	.LBB148:
 722                             	.LBB145:
 723                             	.LBB142:
 724                             	.LBB134:
 725                             	.LBB135:
  67:../src/tensorflow/lite/kernels/internal/quantization_util.cc ****   auto q_fixed = static_cast<int64_t>(TfLiteRound(q * (1ll << 31)));
 726                             		.loc 1 67 3 is_stmt 1
  67:../src/tensorflow/lite/kernels/internal/quantization_util.cc ****   auto q_fixed = static_cast<int64_t>(TfLiteRound(q * (1ll << 31)));
 727                             		.loc 1 67 30 is_stmt 0
 728 0042 EF 72                   		mov.L	r7, r2
 729                             	.LVL93:
 730 0044 E3 04                   		mov.L	r4, [r0]
 731 0046 05 00 00 00             		bsr	_frexp
 732                             	.LVL94:
  68:../src/tensorflow/lite/kernels/internal/quantization_util.cc **** #endif  // TFLITE_EMULATE_FLOAT
 733                             		.loc 1 68 3 is_stmt 1
 734                             	.LBB136:
 735                             	.LBB137:
 736                             		.loc 2 36 1 is_stmt 0
 737 004a FD 72 31 00 00 00 4F    		fmul	#0x4f000000, r1
 738                             	.LVL95:
 739 0051 05 00 00 00             		bsr	_round
 740                             	.LVL96:
 741                             	.LBE137:
 742                             	.LBE136:
  68:../src/tensorflow/lite/kernels/internal/quantization_util.cc **** #endif  // TFLITE_EMULATE_FLOAT
 743                             		.loc 1 68 18
 744 0055 05 00 00 00             		bsr	___fixsfdi
 745                             	.LVL97:
 746 0059 EF 13                   		mov.L	r1, r3
 747                             	.LVL98:
  70:../src/tensorflow/lite/kernels/internal/quantization_util.cc ****   if (q_fixed == (1ll << 31)) {
 748                             		.loc 1 70 3 is_stmt 1
 749 005b EC 04                   		mov.L	[r0], r4
 750 005d 61 02                   		cmp	#0, r2
 751 005f 2A 19                   		bgt	.L91
 752 0061 20 34                   		beq	.L99
 753                             		.balign 8,3,1
 754                             	.L96:
  71:../src/tensorflow/lite/kernels/internal/quantization_util.cc ****     q_fixed /= 2;
 755                             		.loc 1 71 3
 756 0063 EC 75                   		mov.L	[r7], r5
 757 0065 74 01 00 00 00 80       		cmp	#-2147483648, r1
 758 006b 20 1A                   		beq	.L100
 759                             	.LVL99:
 760                             		.balign 8,3,2
 761                             	.L93:
  86:../src/tensorflow/lite/kernels/internal/quantization_util.cc ****     *shift = 0;
 762                             		.loc 1 86 3
 763 006d 75 05 E1                		cmp	#-31, r5
 764 0070 29 0C                   		blt	.L94
  90:../src/tensorflow/lite/kernels/internal/quantization_util.cc **** }
 765                             		.loc 1 90 3
  90:../src/tensorflow/lite/kernels/internal/quantization_util.cc **** }
 766                             		.loc 1 90 25 is_stmt 0
 767 0072 E3 43                   		mov.L	r3, [r4]
 768                             	.LVL100:
 769                             	.LBE135:
 770                             	.LBE134:
 771                             	.LBE142:
 772                             	.LBE145:
  98:../src/tensorflow/lite/kernels/internal/quantization_util.cc **** }
 773                             		.loc 1 98 3 is_stmt 1
 774 0074 61 05                   		cmp	#0, r5
 775 0076 28 C7                   		bge	.L87
 776                             	.LVL101:
 777                             		.balign 8,3,3
 778                             	.L91:
  96:../src/tensorflow/lite/kernels/internal/quantization_util.cc ****   QuantizeMultiplier(double_multiplier, quantized_multiplier, left_shift);
 779                             		.loc 1 96 3 is_stmt 0
 780 0078 05 00 00 00             		bsr	_abort
 781                             	.LVL102:
 782                             	.L94:
 783                             	.LBB146:
 784                             	.LBB143:
 785                             	.LBB140:
 786                             	.LBB138:
  87:../src/tensorflow/lite/kernels/internal/quantization_util.cc ****     q_fixed = 0;
 787                             		.loc 1 87 5 is_stmt 1
  87:../src/tensorflow/lite/kernels/internal/quantization_util.cc ****     q_fixed = 0;
 788                             		.loc 1 87 12 is_stmt 0
 789 007c F8 76 00                		mov.L	#0, [r7]
  88:../src/tensorflow/lite/kernels/internal/quantization_util.cc ****   }
 790                             		.loc 1 88 5 is_stmt 1
  90:../src/tensorflow/lite/kernels/internal/quantization_util.cc **** }
 791                             		.loc 1 90 3
  90:../src/tensorflow/lite/kernels/internal/quantization_util.cc **** }
 792                             		.loc 1 90 25 is_stmt 0
 793 007f F8 46 00                		mov.L	#0, [r4]
 794                             	.LVL103:
 795                             	.LBE138:
 796                             	.LBE140:
 797                             	.LBE143:
 798                             	.LBE146:
  98:../src/tensorflow/lite/kernels/internal/quantization_util.cc **** }
 799                             		.loc 1 98 3 is_stmt 1
 800                             	.LBE148:
 801                             	.LBE151:
 802                             		.loc 1 298 1 is_stmt 0
 803 0082 3F 77 03                		rtsd	#12, r7-r7
 804                             	.LVL104:
 805                             	.L100:
 806                             	.LBB152:
 807                             	.LBB149:
 808                             	.LBB147:
 809                             	.LBB144:
 810                             	.LBB141:
 811                             	.LBB139:
  71:../src/tensorflow/lite/kernels/internal/quantization_util.cc ****     q_fixed /= 2;
 812                             		.loc 1 71 3
 813 0085 61 02                   		cmp	#0, r2
 814 0087 21 E6                   		bne	.L93
  72:../src/tensorflow/lite/kernels/internal/quantization_util.cc ****     ++*shift;
 815                             		.loc 1 72 5 is_stmt 1
 816                             	.LVL105:
  73:../src/tensorflow/lite/kernels/internal/quantization_util.cc ****   }
 817                             		.loc 1 73 5
 818 0089 62 15                   		add	#1, r5
  72:../src/tensorflow/lite/kernels/internal/quantization_util.cc ****     ++*shift;
 819                             		.loc 1 72 13 is_stmt 0
 820 008b FB 32 00 00 00 40       		mov.L	#0x40000000, r3
  73:../src/tensorflow/lite/kernels/internal/quantization_util.cc ****   }
 821                             		.loc 1 73 5
 822 0091 E3 75                   		mov.L	r5, [r7]
  75:../src/tensorflow/lite/kernels/internal/quantization_util.cc ****   // A shift amount smaller than -31 would cause all bits to be shifted out
 823                             		.loc 1 75 3 is_stmt 1
 824 0093 2E DA                   		bra	.L93
 825                             	.LVL106:
 826                             	.L99:
  70:../src/tensorflow/lite/kernels/internal/quantization_util.cc ****   if (q_fixed == (1ll << 31)) {
 827                             		.loc 1 70 3 is_stmt 0
 828 0095 74 01 00 00 00 80       		cmp	#-2147483648, r1
 829 009b 25 C8                   		bleu	.L96
 830                             	.LBE139:
 831                             	.LBE141:
 832                             	.LBE144:
 833                             	.LBE147:
  96:../src/tensorflow/lite/kernels/internal/quantization_util.cc ****   QuantizeMultiplier(double_multiplier, quantized_multiplier, left_shift);
 834                             		.loc 1 96 3
 835 009d 05 00 00 00             		bsr	_abort
 836                             	.LVL107:
 837                             	.LBE149:
 838                             	.LBE152:
 839                             	.LFE1181:
 841 00a1 FD 70 40 00 00 00 80    		.section	.text._ZN6tflite30PreprocessLogSoftmaxScalingExpEddiPlPiS0_S1_,"ax",@progbits
 842                             		.global	__ZN6tflite30PreprocessLogSoftmaxScalingExpEddiPlPiS0_S1_
 844                             	__ZN6tflite30PreprocessLogSoftmaxScalingExpEddiPlPiS0_S1_:
 845                             	.LFB1183:
 299:../src/tensorflow/lite/kernels/internal/quantization_util.cc **** 
 300:../src/tensorflow/lite/kernels/internal/quantization_util.cc **** void PreprocessLogSoftmaxScalingExp(double beta, double input_scale,
 301:../src/tensorflow/lite/kernels/internal/quantization_util.cc ****                                     int input_integer_bits,
 302:../src/tensorflow/lite/kernels/internal/quantization_util.cc ****                                     int32_t* quantized_multiplier,
 303:../src/tensorflow/lite/kernels/internal/quantization_util.cc ****                                     int* left_shift,
 304:../src/tensorflow/lite/kernels/internal/quantization_util.cc ****                                     int32_t* reverse_scaling_divisor,
 305:../src/tensorflow/lite/kernels/internal/quantization_util.cc ****                                     int* reverse_scaling_left_shift) {
 846                             		.loc 1 305 70 is_stmt 1
 847                             	.LVL108:
 848 0000 6E 6A                   		pushm	r6-r10
 849                             	.LCFI12:
 850 0002 71 00 EC                		add	#-20, r0
 851                             	.LCFI13:
 306:../src/tensorflow/lite/kernels/internal/quantization_util.cc ****   PreprocessSoftmaxScaling(beta, input_scale, input_integer_bits,
 852                             		.loc 1 306 3
 853                             	.LVL109:
 854                             	.LBB173:
 855                             	.LBB174:
 293:../src/tensorflow/lite/kernels/internal/quantization_util.cc **** #endif  // TFLITE_EMULATE_FLOAT
 856                             		.loc 1 293 12 is_stmt 0
 857 0005 FC 8F 21                		fmul	r2, r1
 858                             	.LVL110:
 293:../src/tensorflow/lite/kernels/internal/quantization_util.cc **** #endif  // TFLITE_EMULATE_FLOAT
 859                             		.loc 1 293 31
 860 0008 FB 52 00 00 00 80       		mov.L	#-2147483648, r5
 861 000e FD 60 35                		shlr	r3, r5
 862                             	.LBE174:
 863                             	.LBE173:
 305:../src/tensorflow/lite/kernels/internal/quantization_util.cc ****   PreprocessSoftmaxScaling(beta, input_scale, input_integer_bits,
 864                             		.loc 1 305 70
 865 0011 75 47 2C                		mov.L	#44, r7
 866 0014 4B 07                   		add	r0, r7
 867                             	.LBB214:
 868                             	.LBB207:
 869                             	.LBB175:
 870                             	.LBB176:
 200:c:\gcc for renesas rx 8.3.0.202004-gnurx-elf\rx-elf\rx-elf\rx-elf\include\c++\8.3.0.202004-gnurx\bits\stl_algobase.h **** 	return __b;
 871                             		.loc 3 200 7
 872 0016 FB 32 00 00 00 4F       		mov.L	#0x4f000000, r3
 873                             	.LVL111:
 874                             	.LBE176:
 875                             	.LBE175:
 293:../src/tensorflow/lite/kernels/internal/quantization_util.cc **** #endif  // TFLITE_EMULATE_FLOAT
 876                             		.loc 1 293 26
 877 001c FC 47 55                		itof	r5, r5
 878                             	.LVL112:
 879                             	.LBE207:
 880                             	.LBE214:
 305:../src/tensorflow/lite/kernels/internal/quantization_util.cc ****   PreprocessSoftmaxScaling(beta, input_scale, input_integer_bits,
 881                             		.loc 1 305 70
 882 001f EC 76                   		mov.L	[r7], r6
 883                             	.LVL113:
 884                             	.LBB215:
 885                             	.LBB208:
 292:../src/tensorflow/lite/kernels/internal/quantization_util.cc ****       beta * input_scale * (1 << (31 - input_integer_bits)), (1ll << 31) - 1.0);
 886                             		.loc 1 292 3 is_stmt 1
 293:../src/tensorflow/lite/kernels/internal/quantization_util.cc **** #endif  // TFLITE_EMULATE_FLOAT
 887                             		.loc 1 293 26 is_stmt 0
 888 0021 FC 8F 51                		fmul	r5, r1
 889                             	.LVL114:
 890                             	.LBE208:
 891                             	.LBE215:
 305:../src/tensorflow/lite/kernels/internal/quantization_util.cc ****   PreprocessSoftmaxScaling(beta, input_scale, input_integer_bits,
 892                             		.loc 1 305 70
 893 0024 ED 7A 01                		mov.L	4[r7], r10
 894 0027 A8 F7                   		mov.L	8[r7], r7
 895                             	.LBB216:
 896                             	.LBB209:
 897                             	.LBB179:
 898                             	.LBB177:
 200:c:\gcc for renesas rx 8.3.0.202004-gnurx-elf\rx-elf\rx-elf\rx-elf\include\c++\8.3.0.202004-gnurx\bits\stl_algobase.h **** 	return __b;
 899                             		.loc 3 200 7
 900 0029 FC 87 13                		fcmp	r1, r3
 901 002c 26 05 38 89 00          		bn	.L116
 902                             	.LVL115:
 903                             	.LBE177:
 904                             	.LBE179:
 296:../src/tensorflow/lite/kernels/internal/quantization_util.cc ****                                    quantized_multiplier, left_shift);
 905                             		.loc 1 296 3 is_stmt 1
 906                             	.LBB180:
 907                             	.LBB181:
  96:../src/tensorflow/lite/kernels/internal/quantization_util.cc ****   QuantizeMultiplier(double_multiplier, quantized_multiplier, left_shift);
 908                             		.loc 1 96 3
 909 0031 FB 52 00 00 80 3F       		mov.L	#0x3f800000, r5
 910 0037 FC 87 15                		fcmp	r1, r5
 911 003a 27 05 38 D4 00          		bpz	.L105
  97:../src/tensorflow/lite/kernels/internal/quantization_util.cc ****   TFLITE_CHECK_GE(*left_shift, 0);
 912                             		.loc 1 97 3
 913                             	.LVL116:
 914                             	.LBB182:
 915                             	.LBB183:
  55:../src/tensorflow/lite/kernels/internal/quantization_util.cc ****     *quantized_multiplier = 0;
 916                             		.loc 1 55 3
 917 003f FD 72 11 00 00 00 00    		fcmp	#0x0, r1
 918 0046 21 73                   		bne	.L102
  56:../src/tensorflow/lite/kernels/internal/quantization_util.cc ****     *shift = 0;
 919                             		.loc 1 56 5
  57:../src/tensorflow/lite/kernels/internal/quantization_util.cc ****     return;
 920                             		.loc 1 57 12 is_stmt 0
 921 0048 66 05                   		mov.L	#0x0, r5
  56:../src/tensorflow/lite/kernels/internal/quantization_util.cc ****     *shift = 0;
 922                             		.loc 1 56 27
 923 004a F8 46 00                		mov.L	#0, [r4]
  57:../src/tensorflow/lite/kernels/internal/quantization_util.cc ****     return;
 924                             		.loc 1 57 5 is_stmt 1
  57:../src/tensorflow/lite/kernels/internal/quantization_util.cc ****     return;
 925                             		.loc 1 57 12 is_stmt 0
 926 004d FB 12 00 00 00 CF       		mov.L	#0xcf000000, r1
 927                             	.LVL117:
 928 0053 F8 66 00                		mov.L	#0, [r6]
  58:../src/tensorflow/lite/kernels/internal/quantization_util.cc ****   }
 929                             		.loc 1 58 5 is_stmt 1
 930                             	.LVL118:
 931                             	.LBE183:
 932                             	.LBE182:
  98:../src/tensorflow/lite/kernels/internal/quantization_util.cc **** }
 933                             		.loc 1 98 3
 934                             	.LBE181:
 935                             	.LBE180:
 936                             	.LBE209:
 937                             	.LBE216:
 307:../src/tensorflow/lite/kernels/internal/quantization_util.cc ****                            quantized_multiplier, left_shift);
 308:../src/tensorflow/lite/kernels/internal/quantization_util.cc **** 
 309:../src/tensorflow/lite/kernels/internal/quantization_util.cc ****   // Also calculate what amounts to the inverse scaling factor for the input.
 310:../src/tensorflow/lite/kernels/internal/quantization_util.cc ****   const double real_reverse_scaling_divisor =
 938                             		.loc 1 310 3
 939                             		.loc 1 310 16 is_stmt 0
 940 0056 FC 93 51                		fdiv	r5, r1
 941                             	.LVL119:
 311:../src/tensorflow/lite/kernels/internal/quantization_util.cc ****       (1 << (31 - *left_shift)) / static_cast<double>(*quantized_multiplier);
 312:../src/tensorflow/lite/kernels/internal/quantization_util.cc ****   tflite::QuantizeMultiplierSmallerThanOneExp(real_reverse_scaling_divisor,
 942                             		.loc 1 312 3 is_stmt 1
 943                             	.LBB217:
 944                             	.LBB218:
 104:../src/tensorflow/lite/kernels/internal/quantization_util.cc ****   TFLITE_CHECK_GT(double_multiplier, 0.);
 945                             		.loc 1 104 3
 946 0059 FD 72 11 00 00 80 3F    		fcmp	#0x3f800000, r1
 947 0060 27 05 38 AE 00          		bpz	.L105
 948                             	.LVL120:
 949 0065 FC 13 00                		.balign 8,3,5
 950                             	.L128:
 105:../src/tensorflow/lite/kernels/internal/quantization_util.cc ****   int shift;
 951                             		.loc 1 105 3
 952 0068 66 05                   		mov.L	#0x0, r5
 953 006a FC 87 15                		fcmp	r1, r5
 954 006d 27 05 38 A1 00          		bpz	.L105
 106:../src/tensorflow/lite/kernels/internal/quantization_util.cc ****   QuantizeMultiplier(double_multiplier, quantized_multiplier, &shift);
 955                             		.loc 1 106 3
 107:../src/tensorflow/lite/kernels/internal/quantization_util.cc ****   TFLITE_CHECK_LE(shift, 0);
 956                             		.loc 1 107 3
 957                             	.LVL121:
 958                             	.LBB219:
 959                             	.LBB220:
  55:../src/tensorflow/lite/kernels/internal/quantization_util.cc ****     *quantized_multiplier = 0;
 960                             		.loc 1 55 3
 961                             	.LBB221:
 962                             	.LBB222:
  67:../src/tensorflow/lite/kernels/internal/quantization_util.cc ****   auto q_fixed = static_cast<int64_t>(TfLiteRound(q * (1ll << 31)));
 963                             		.loc 1 67 3
  67:../src/tensorflow/lite/kernels/internal/quantization_util.cc ****   auto q_fixed = static_cast<int64_t>(TfLiteRound(q * (1ll << 31)));
 964                             		.loc 1 67 30 is_stmt 0
 965 0072 EF 02                   		mov.L	r0, r2
 966 0074 05 00 00 00             		bsr	_frexp
 967                             	.LVL122:
  68:../src/tensorflow/lite/kernels/internal/quantization_util.cc **** #endif  // TFLITE_EMULATE_FLOAT
 968                             		.loc 1 68 3 is_stmt 1
 969                             	.LBB223:
 970                             	.LBB224:
 971                             		.loc 2 36 1 is_stmt 0
 972 0078 FD 72 31 00 00 00 4F    		fmul	#0x4f000000, r1
 973                             	.LVL123:
 974 007f 05 00 00 00             		bsr	_round
 975                             	.LVL124:
 976                             	.LBE224:
 977                             	.LBE223:
  68:../src/tensorflow/lite/kernels/internal/quantization_util.cc **** #endif  // TFLITE_EMULATE_FLOAT
 978                             		.loc 1 68 18
 979 0083 05 00 00 00             		bsr	___fixsfdi
 980                             	.LVL125:
 981 0087 EF 14                   		mov.L	r1, r4
 982                             	.LVL126:
  70:../src/tensorflow/lite/kernels/internal/quantization_util.cc ****   if (q_fixed == (1ll << 31)) {
 983                             		.loc 1 70 3 is_stmt 1
 984 0089 61 02                   		cmp	#0, r2
 985 008b 2B 05 38 83 00          		bgt	.L105
 986 0090 3A BD 00                		beq	.L124
 987                             		.balign 8,3,1
 988                             	.L120:
  71:../src/tensorflow/lite/kernels/internal/quantization_util.cc ****     q_fixed /= 2;
 989                             		.loc 1 71 3
 990 0093 EC 05                   		mov.L	[r0], r5
 991 0095 74 01 00 00 00 80       		cmp	#-2147483648, r1
 992 009b 20 79                   		beq	.L125
 993                             	.LVL127:
 994                             		.balign 8,3,2
 995                             	.L113:
  86:../src/tensorflow/lite/kernels/internal/quantization_util.cc ****     *shift = 0;
 996                             		.loc 1 86 3
 997 009d 75 05 E1                		cmp	#-31, r5
 998 00a0 29 0D                   		blt	.L114
  90:../src/tensorflow/lite/kernels/internal/quantization_util.cc **** }
 999                             		.loc 1 90 3
  90:../src/tensorflow/lite/kernels/internal/quantization_util.cc **** }
 1000                             		.loc 1 90 25 is_stmt 0
 1001 00a2 E3 A4                   		mov.L	r4, [r10]
 1002                             	.LVL128:
 1003                             	.LBE222:
 1004                             	.LBE221:
 1005                             	.LBE220:
 1006                             	.LBE219:
 108:../src/tensorflow/lite/kernels/internal/quantization_util.cc ****   *left_shift = shift;
 1007                             		.loc 1 108 3 is_stmt 1
 1008 00a4 61 05                   		cmp	#0, r5
 1009 00a6 2A 6A                   		bgt	.L105
 109:../src/tensorflow/lite/kernels/internal/quantization_util.cc **** }
 1010                             		.loc 1 109 3
 109:../src/tensorflow/lite/kernels/internal/quantization_util.cc **** }
 1011                             		.loc 1 109 15 is_stmt 0
 1012 00a8 E3 75                   		mov.L	r5, [r7]
 1013                             	.LVL129:
 1014                             	.LBE218:
 1015                             	.LBE217:
 313:../src/tensorflow/lite/kernels/internal/quantization_util.cc ****                                               reverse_scaling_divisor,
 314:../src/tensorflow/lite/kernels/internal/quantization_util.cc ****                                               reverse_scaling_left_shift);
 315:../src/tensorflow/lite/kernels/internal/quantization_util.cc **** }
 1016                             		.loc 1 315 1
 1017 00aa 3F 6A 0A                		rtsd	#40, r6-r10
 1018                             	.LVL130:
 1019                             	.L114:
 1020                             	.LBB241:
 1021                             	.LBB237:
 1022                             	.LBB234:
 1023                             	.LBB231:
 1024                             	.LBB228:
 1025                             	.LBB225:
  87:../src/tensorflow/lite/kernels/internal/quantization_util.cc ****     q_fixed = 0;
 1026                             		.loc 1 87 5 is_stmt 1
  88:../src/tensorflow/lite/kernels/internal/quantization_util.cc ****   }
 1027                             		.loc 1 88 5
  90:../src/tensorflow/lite/kernels/internal/quantization_util.cc **** }
 1028                             		.loc 1 90 3
  90:../src/tensorflow/lite/kernels/internal/quantization_util.cc **** }
 1029                             		.loc 1 90 25 is_stmt 0
 1030 00ad 66 05                   		mov.L	#0, r5
 1031 00af F8 A6 00                		mov.L	#0, [r10]
 1032                             	.LVL131:
 1033                             	.LBE225:
 1034                             	.LBE228:
 1035                             	.LBE231:
 1036                             	.LBE234:
 108:../src/tensorflow/lite/kernels/internal/quantization_util.cc ****   *left_shift = shift;
 1037                             		.loc 1 108 3 is_stmt 1
 109:../src/tensorflow/lite/kernels/internal/quantization_util.cc **** }
 1038                             		.loc 1 109 3
 109:../src/tensorflow/lite/kernels/internal/quantization_util.cc **** }
 1039                             		.loc 1 109 15 is_stmt 0
 1040 00b2 E3 75                   		mov.L	r5, [r7]
 1041                             	.LVL132:
 1042                             	.LBE237:
 1043                             	.LBE241:
 1044                             		.loc 1 315 1
 1045 00b4 3F 6A 0A                		rtsd	#40, r6-r10
 1046                             	.LVL133:
 1047                             	.L116:
 1048                             	.LBB242:
 1049                             	.LBB210:
 1050                             	.LBB202:
 1051                             	.LBB178:
 1052                             		.loc 3 201 9
 1053 00b7 EF 31                   		mov.L	r3, r1
 1054                             	.LVL134:
 1055                             		.balign 8,3,1
 1056                             	.L102:
 1057                             	.LBE178:
 1058                             	.LBE202:
 1059                             	.LBB203:
 1060                             	.LBB198:
 1061                             	.LBB195:
 1062                             	.LBB192:
 1063                             	.LBB184:
 1064                             	.LBB185:
  67:../src/tensorflow/lite/kernels/internal/quantization_util.cc ****   auto q_fixed = static_cast<int64_t>(TfLiteRound(q * (1ll << 31)));
 1065                             		.loc 1 67 3 is_stmt 1
  67:../src/tensorflow/lite/kernels/internal/quantization_util.cc ****   auto q_fixed = static_cast<int64_t>(TfLiteRound(q * (1ll << 31)));
 1066                             		.loc 1 67 30 is_stmt 0
 1067 00b9 EF 62                   		mov.L	r6, r2
 1068                             	.LVL135:
 1069 00bb A0 0C                   		mov.L	r4, 4[r0]
 1070 00bd 05 00 00 00             		bsr	_frexp
 1071                             	.LVL136:
  68:../src/tensorflow/lite/kernels/internal/quantization_util.cc **** #endif  // TFLITE_EMULATE_FLOAT
 1072                             		.loc 1 68 3 is_stmt 1
 1073                             	.LBB186:
 1074                             	.LBB187:
 1075                             		.loc 2 36 1 is_stmt 0
 1076 00c1 FD 72 31 00 00 00 4F    		fmul	#0x4f000000, r1
 1077                             	.LVL137:
 1078 00c8 05 00 00 00             		bsr	_round
 1079                             	.LVL138:
 1080                             	.LBE187:
 1081                             	.LBE186:
  68:../src/tensorflow/lite/kernels/internal/quantization_util.cc **** #endif  // TFLITE_EMULATE_FLOAT
 1082                             		.loc 1 68 18
 1083 00cc 05 00 00 00             		bsr	___fixsfdi
 1084                             	.LVL139:
 1085 00d0 EF 15                   		mov.L	r1, r5
 1086                             	.LVL140:
  70:../src/tensorflow/lite/kernels/internal/quantization_util.cc ****   if (q_fixed == (1ll << 31)) {
 1087                             		.loc 1 70 3 is_stmt 1
 1088 00d2 A8 0C                   		mov.L	4[r0], r4
 1089 00d4 61 02                   		cmp	#0, r2
 1090 00d6 2A 3A                   		bgt	.L105
 1091 00d8 20 69                   		beq	.L126
 1092                             		.balign 8,3,1
 1093                             	.L117:
  71:../src/tensorflow/lite/kernels/internal/quantization_util.cc ****     q_fixed /= 2;
 1094                             		.loc 1 71 3
 1095 00da EC 63                   		mov.L	[r6], r3
 1096 00dc 74 01 00 00 00 80       		cmp	#-2147483648, r1
 1097 00e2 20 4F                   		beq	.L127
 1098                             	.LVL141:
 1099                             		.balign 8,3,2
 1100                             	.L107:
  86:../src/tensorflow/lite/kernels/internal/quantization_util.cc ****     *shift = 0;
 1101                             		.loc 1 86 3
 1102 00e4 75 03 E1                		cmp	#-31, r3
 1103 00e7 29 3E                   		blt	.L108
  90:../src/tensorflow/lite/kernels/internal/quantization_util.cc **** }
 1104                             		.loc 1 90 3
  90:../src/tensorflow/lite/kernels/internal/quantization_util.cc **** }
 1105                             		.loc 1 90 25 is_stmt 0
 1106 00e9 E3 45                   		mov.L	r5, [r4]
 1107                             	.LVL142:
 1108                             	.LBE185:
 1109                             	.LBE184:
 1110                             	.LBE192:
 1111                             	.LBE195:
  98:../src/tensorflow/lite/kernels/internal/quantization_util.cc **** }
 1112                             		.loc 1 98 3 is_stmt 1
 1113 00eb 61 03                   		cmp	#0, r3
 1114 00ed 29 23                   		blt	.L105
 1115 00ef 03                      		.balign 8,3,2
 1116                             	.L109:
 1117 00f0 FC 47 55                		itof	r5, r5
 1118 00f3 FB 12 00 00 00 80       		mov.L	#-2147483648, r1
 1119 00f9 FD 60 31                		shlr	r3, r1
 1120 00fc FC 47 11                		itof	r1, r1
 1121                             	.LVL143:
 1122                             	.LBE198:
 1123                             	.LBE203:
 1124                             	.LBE210:
 1125                             	.LBE242:
 310:../src/tensorflow/lite/kernels/internal/quantization_util.cc ****       (1 << (31 - *left_shift)) / static_cast<double>(*quantized_multiplier);
 1126                             		.loc 1 310 3
 310:../src/tensorflow/lite/kernels/internal/quantization_util.cc ****       (1 << (31 - *left_shift)) / static_cast<double>(*quantized_multiplier);
 1127                             		.loc 1 310 16 is_stmt 0
 1128 00ff FC 93 51                		fdiv	r5, r1
 1129                             	.LVL144:
 312:../src/tensorflow/lite/kernels/internal/quantization_util.cc ****                                               reverse_scaling_divisor,
 1130                             		.loc 1 312 3 is_stmt 1
 1131                             	.LBB243:
 1132                             	.LBB238:
 104:../src/tensorflow/lite/kernels/internal/quantization_util.cc ****   TFLITE_CHECK_GT(double_multiplier, 0.);
 1133                             		.loc 1 104 3
 1134 0102 FD 72 11 00 00 80 3F    		fcmp	#0x3f800000, r1
 1135 0109 26 05 38 5D FF          		bn	.L128
 1136                             	.LVL145:
 1137 010e EF 00                   		.balign 8,3,3
 1138                             	.L105:
 1139                             	.LBE238:
 1140                             	.LBE243:
 1141                             	.LBB244:
 1142                             	.LBB211:
 1143                             	.LBB204:
 1144                             	.LBB199:
  96:../src/tensorflow/lite/kernels/internal/quantization_util.cc ****   QuantizeMultiplier(double_multiplier, quantized_multiplier, left_shift);
 1145                             		.loc 1 96 3 is_stmt 0
 1146 0110 05 00 00 00             		bsr	_abort
 1147                             	.LVL146:
 1148                             	.L125:
 1149                             	.LBE199:
 1150                             	.LBE204:
 1151                             	.LBE211:
 1152                             	.LBE244:
 1153                             	.LBB245:
 1154                             	.LBB239:
 1155                             	.LBB235:
 1156                             	.LBB232:
 1157                             	.LBB229:
 1158                             	.LBB226:
  71:../src/tensorflow/lite/kernels/internal/quantization_util.cc ****     q_fixed /= 2;
 1159                             		.loc 1 71 3
 1160 0114 61 02                   		cmp	#0, r2
 1161 0116 21 87                   		bne	.L113
  72:../src/tensorflow/lite/kernels/internal/quantization_util.cc ****     ++*shift;
 1162                             		.loc 1 72 5 is_stmt 1
 1163                             	.LVL147:
  73:../src/tensorflow/lite/kernels/internal/quantization_util.cc ****   }
 1164                             		.loc 1 73 5
 1165 0118 62 15                   		add	#1, r5
  72:../src/tensorflow/lite/kernels/internal/quantization_util.cc ****     ++*shift;
 1166                             		.loc 1 72 13 is_stmt 0
 1167 011a FB 42 00 00 00 40       		mov.L	#0x40000000, r4
  73:../src/tensorflow/lite/kernels/internal/quantization_util.cc ****   }
 1168                             		.loc 1 73 5
 1169 0120 E3 05                   		mov.L	r5, [r0]
  75:../src/tensorflow/lite/kernels/internal/quantization_util.cc ****   // A shift amount smaller than -31 would cause all bits to be shifted out
 1170                             		.loc 1 75 3 is_stmt 1
 1171 0122 38 7B FF                		bra	.L113
 1172                             	.LVL148:
 1173                             	.L108:
 1174                             	.LBE226:
 1175                             	.LBE229:
 1176                             	.LBE232:
 1177                             	.LBE235:
 1178                             	.LBE239:
 1179                             	.LBE245:
 1180                             	.LBB246:
 1181                             	.LBB212:
 1182                             	.LBB205:
 1183                             	.LBB200:
 1184                             	.LBB196:
 1185                             	.LBB193:
 1186                             	.LBB190:
 1187                             	.LBB188:
  87:../src/tensorflow/lite/kernels/internal/quantization_util.cc ****     q_fixed = 0;
 1188                             		.loc 1 87 5
  90:../src/tensorflow/lite/kernels/internal/quantization_util.cc **** }
 1189                             		.loc 1 90 25 is_stmt 0
 1190 0125 66 05                   		mov.L	#0, r5
  87:../src/tensorflow/lite/kernels/internal/quantization_util.cc ****     q_fixed = 0;
 1191                             		.loc 1 87 12
 1192 0127 F8 66 00                		mov.L	#0, [r6]
  88:../src/tensorflow/lite/kernels/internal/quantization_util.cc ****   }
 1193                             		.loc 1 88 5 is_stmt 1
  90:../src/tensorflow/lite/kernels/internal/quantization_util.cc **** }
 1194                             		.loc 1 90 3
  90:../src/tensorflow/lite/kernels/internal/quantization_util.cc **** }
 1195                             		.loc 1 90 25 is_stmt 0
 1196 012a 66 03                   		mov.L	#0, r3
 1197 012c F8 46 00                		mov.L	#0, [r4]
 1198                             	.LVL149:
 1199                             	.LBE188:
 1200                             	.LBE190:
 1201                             	.LBE193:
 1202                             	.LBE196:
  98:../src/tensorflow/lite/kernels/internal/quantization_util.cc **** }
 1203                             		.loc 1 98 3 is_stmt 1
 1204 012f 2E C1                   		bra	.L109
 1205                             	.LVL150:
 1206                             	.L127:
 1207                             	.LBB197:
 1208                             	.LBB194:
 1209                             	.LBB191:
 1210                             	.LBB189:
  71:../src/tensorflow/lite/kernels/internal/quantization_util.cc ****     q_fixed /= 2;
 1211                             		.loc 1 71 3 is_stmt 0
 1212 0131 61 02                   		cmp	#0, r2
 1213 0133 21 B1                   		bne	.L107
  72:../src/tensorflow/lite/kernels/internal/quantization_util.cc ****     ++*shift;
 1214                             		.loc 1 72 5 is_stmt 1
 1215                             	.LVL151:
  73:../src/tensorflow/lite/kernels/internal/quantization_util.cc ****   }
 1216                             		.loc 1 73 5
 1217 0135 62 13                   		add	#1, r3
  72:../src/tensorflow/lite/kernels/internal/quantization_util.cc ****     ++*shift;
 1218                             		.loc 1 72 13 is_stmt 0
 1219 0137 FB 52 00 00 00 40       		mov.L	#0x40000000, r5
  73:../src/tensorflow/lite/kernels/internal/quantization_util.cc ****   }
 1220                             		.loc 1 73 5
 1221 013d E3 63                   		mov.L	r3, [r6]
  75:../src/tensorflow/lite/kernels/internal/quantization_util.cc ****   // A shift amount smaller than -31 would cause all bits to be shifted out
 1222                             		.loc 1 75 3 is_stmt 1
 1223 013f 2E A5                   		bra	.L107
 1224                             	.LVL152:
 1225                             	.L126:
  70:../src/tensorflow/lite/kernels/internal/quantization_util.cc ****   if (q_fixed == (1ll << 31)) {
 1226                             		.loc 1 70 3 is_stmt 0
 1227 0141 74 01 00 00 00 80       		cmp	#-2147483648, r1
 1228 0147 25 93                   		bleu	.L117
 1229                             	.LBE189:
 1230                             	.LBE191:
 1231                             	.LBE194:
 1232                             	.LBE197:
  96:../src/tensorflow/lite/kernels/internal/quantization_util.cc ****   QuantizeMultiplier(double_multiplier, quantized_multiplier, left_shift);
 1233                             		.loc 1 96 3
 1234 0149 05 00 00 00             		bsr	_abort
 1235                             	.LVL153:
 1236                             	.L124:
 1237                             	.LBE200:
 1238                             	.LBE205:
 1239                             	.LBE212:
 1240                             	.LBE246:
 1241                             	.LBB247:
 1242                             	.LBB240:
 1243                             	.LBB236:
 1244                             	.LBB233:
 1245                             	.LBB230:
 1246                             	.LBB227:
  70:../src/tensorflow/lite/kernels/internal/quantization_util.cc ****   if (q_fixed == (1ll << 31)) {
 1247                             		.loc 1 70 3
 1248 014d 74 01 00 00 00 80       		cmp	#-2147483648, r1
 1249 0153 24 05 38 3E FF          		bleu	.L120
 1250                             	.LBE227:
 1251                             	.LBE230:
 1252                             	.LBE233:
 1253                             	.LBE236:
 1254                             	.LBE240:
 1255                             	.LBE247:
 1256                             	.LBB248:
 1257                             	.LBB213:
 1258                             	.LBB206:
 1259                             	.LBB201:
  96:../src/tensorflow/lite/kernels/internal/quantization_util.cc ****   QuantizeMultiplier(double_multiplier, quantized_multiplier, left_shift);
 1260                             		.loc 1 96 3
 1261 0158 05 00 00 00             		bsr	_abort
 1262                             	.LVL154:
 1263                             	.LBE201:
 1264                             	.LBE206:
 1265                             	.LBE213:
 1266                             	.LBE248:
 1267                             	.LFE1183:
 1269                             		.global	___floatdisf
 1270 015c 76 10 01 00             		.section	.text._ZN6tflite20CalculateInputRadiusEiii,"ax",@progbits
 1271                             		.global	__ZN6tflite20CalculateInputRadiusEiii
 1273                             	__ZN6tflite20CalculateInputRadiusEiii:
 1274                             	.LFB1184:
 316:../src/tensorflow/lite/kernels/internal/quantization_util.cc **** 
 317:../src/tensorflow/lite/kernels/internal/quantization_util.cc **** int CalculateInputRadius(int input_integer_bits, int input_left_shift,
 318:../src/tensorflow/lite/kernels/internal/quantization_util.cc ****                          int total_signed_bits) {
 1275                             		.loc 1 318 49 is_stmt 1
 1276                             	.LVL155:
 1277 0000 6E 7A                   		pushm	r7-r10
 1278                             	.LCFI14:
 319:../src/tensorflow/lite/kernels/internal/quantization_util.cc **** #ifdef TFLITE_EMULATE_FLOAT
 320:../src/tensorflow/lite/kernels/internal/quantization_util.cc ****   int64_t result = (1 << input_integer_bits) - 1;
 321:../src/tensorflow/lite/kernels/internal/quantization_util.cc ****   result <<= (total_signed_bits - input_integer_bits);
 322:../src/tensorflow/lite/kernels/internal/quantization_util.cc ****   result >>= input_left_shift;
 323:../src/tensorflow/lite/kernels/internal/quantization_util.cc ****   return result;
 324:../src/tensorflow/lite/kernels/internal/quantization_util.cc **** #else   // TFLITE_EMULATE_FLOAT
 325:../src/tensorflow/lite/kernels/internal/quantization_util.cc ****   const double max_input_rescaled =
 1279                             		.loc 1 325 3
 326:../src/tensorflow/lite/kernels/internal/quantization_util.cc ****       1.0 * ((1 << input_integer_bits) - 1) *
 1280                             		.loc 1 326 17 is_stmt 0
 1281 0002 66 15                   		mov.L	#1, r5
 1282 0004 EF 57                   		mov.L	r5, r7
 1283 0006 FD 62 17                		shll	r1, r7
 327:../src/tensorflow/lite/kernels/internal/quantization_util.cc ****       (1ll << (total_signed_bits - input_integer_bits)) /
 1284                             		.loc 1 327 34
 1285 0009 43 13                   		sub	r1, r3
 1286                             	.LVL156:
 326:../src/tensorflow/lite/kernels/internal/quantization_util.cc ****       1.0 * ((1 << input_integer_bits) - 1) *
 1287                             		.loc 1 326 40
 1288 000b 60 17                   		sub	#1, r7
 1289                             		.loc 1 327 12
 1290 000d 71 34 E0                		add	#-32, r3, r4
 318:../src/tensorflow/lite/kernels/internal/quantization_util.cc **** #ifdef TFLITE_EMULATE_FLOAT
 1291                             		.loc 1 318 49
 1292 0010 EF 2A                   		mov.L	r2, r10
 1293                             	.LVL157:
 328:../src/tensorflow/lite/kernels/internal/quantization_util.cc ****       (1ll << input_left_shift);
 329:../src/tensorflow/lite/kernels/internal/quantization_util.cc ****   // Tighten bound using floor.  Suppose that we could use the exact value.
 330:../src/tensorflow/lite/kernels/internal/quantization_util.cc ****   // After scaling the difference, the result would be at the maximum.  Thus we
 331:../src/tensorflow/lite/kernels/internal/quantization_util.cc ****   // must ensure that our value has lower magnitude.
 332:../src/tensorflow/lite/kernels/internal/quantization_util.cc ****   return static_cast<int>(std::floor(max_input_rescaled));
 1294                             		.loc 1 332 3 is_stmt 1
 326:../src/tensorflow/lite/kernels/internal/quantization_util.cc ****       (1ll << (total_signed_bits - input_integer_bits)) /
 1295                             		.loc 1 326 45 is_stmt 0
 1296 0012 FC 47 77                		itof	r7, r7
 1297                             	.LVL158:
 327:../src/tensorflow/lite/kernels/internal/quantization_util.cc ****       (1ll << input_left_shift);
 1298                             		.loc 1 327 12
 1299 0015 61 04                   		cmp	#0, r4
 1300 0017 29 31                   		blt	.L130
 1301 0019 EF 52                   		mov.L	r5, r2
 1302                             	.LVL159:
 1303 001b FD 62 42                		shll	r4, r2
 1304 001e 66 01                   		mov.L	#0, r1
 1305                             	.LVL160:
 326:../src/tensorflow/lite/kernels/internal/quantization_util.cc ****       (1ll << (total_signed_bits - input_integer_bits)) /
 1306                             		.loc 1 326 45
 1307 0020 05 00 00 00             		bsr	___floatdisf
 1308                             	.LVL161:
 328:../src/tensorflow/lite/kernels/internal/quantization_util.cc ****       (1ll << input_left_shift);
 1309                             		.loc 1 328 12
 1310 0024 71 A5 E0                		add	#-32, r10, r5
 326:../src/tensorflow/lite/kernels/internal/quantization_util.cc ****       (1ll << (total_signed_bits - input_integer_bits)) /
 1311                             		.loc 1 326 45
 1312 0027 FC 8F 17                		fmul	r1, r7
 328:../src/tensorflow/lite/kernels/internal/quantization_util.cc ****       (1ll << input_left_shift);
 1313                             		.loc 1 328 12
 1314 002a 61 05                   		cmp	#0, r5
 1315 002c 29 31                   		blt	.L132
 1316                             		.balign 8,3,1
 1317                             	.L135:
 1318 002e 66 12                   		mov.L	#1, r2
 1319 0030 FD 62 52                		shll	r5, r2
 1320 0033 66 01                   		mov.L	#0, r1
 327:../src/tensorflow/lite/kernels/internal/quantization_util.cc ****       (1ll << input_left_shift);
 1321                             		.loc 1 327 57
 1322 0035 05 00 00 00             		bsr	___floatdisf
 1323                             	.LVL162:
 1324                             		.loc 1 332 37
 1325 0039 FC 93 17                		fdiv	r1, r7
 1326 003c EF 71                   		mov.L	r7, r1
 1327 003e 05 00 00 00             		bsr	_floor
 1328                             	.LVL163:
 333:../src/tensorflow/lite/kernels/internal/quantization_util.cc **** #endif  // TFLITE_EMULATE_FLOAT
 334:../src/tensorflow/lite/kernels/internal/quantization_util.cc **** }
 1329                             		.loc 1 334 1
 1330 0042 FC 97 11                		ftoi	r1, r1
 1331 0045 3F 7A 04                		rtsd	#16, r7-r10
 1332                             	.LVL164:
 1333                             	.L130:
 327:../src/tensorflow/lite/kernels/internal/quantization_util.cc ****       (1ll << input_left_shift);
 1334                             		.loc 1 327 12
 1335 0048 66 02                   		mov.L	#0, r2
 1336                             	.LVL165:
 1337 004a EF 51                   		mov.L	r5, r1
 1338                             	.LVL166:
 1339 004c FD 62 31                		shll	r3, r1
 326:../src/tensorflow/lite/kernels/internal/quantization_util.cc ****       (1ll << (total_signed_bits - input_integer_bits)) /
 1340                             		.loc 1 326 45
 1341 004f 05 00 00 00             		bsr	___floatdisf
 1342                             	.LVL167:
 328:../src/tensorflow/lite/kernels/internal/quantization_util.cc ****   // Tighten bound using floor.  Suppose that we could use the exact value.
 1343                             		.loc 1 328 12
 1344 0053 71 A5 E0                		add	#-32, r10, r5
 326:../src/tensorflow/lite/kernels/internal/quantization_util.cc ****       (1ll << (total_signed_bits - input_integer_bits)) /
 1345                             		.loc 1 326 45
 1346 0056 FC 8F 17                		fmul	r1, r7
 328:../src/tensorflow/lite/kernels/internal/quantization_util.cc ****   // Tighten bound using floor.  Suppose that we could use the exact value.
 1347                             		.loc 1 328 12
 1348 0059 61 05                   		cmp	#0, r5
 1349 005b 28 D3                   		bge	.L135
 1350                             		.balign 8,3,1
 1351                             	.L132:
 1352 005d 66 02                   		mov.L	#0, r2
 1353 005f 66 11                   		mov.L	#1, r1
 1354 0061 FD 62 A1                		shll	r10, r1
 327:../src/tensorflow/lite/kernels/internal/quantization_util.cc ****       (1ll << input_left_shift);
 1355                             		.loc 1 327 57
 1356 0064 05 00 00 00             		bsr	___floatdisf
 1357                             	.LVL168:
 332:../src/tensorflow/lite/kernels/internal/quantization_util.cc **** #endif  // TFLITE_EMULATE_FLOAT
 1358                             		.loc 1 332 37
 1359 0068 FC 93 17                		fdiv	r1, r7
 1360 006b EF 71                   		mov.L	r7, r1
 1361 006d 05 00 00 00             		bsr	_floor
 1362                             	.LVL169:
 1363                             		.loc 1 334 1
 1364 0071 FC 97 11                		ftoi	r1, r1
 1365 0074 3F 7A 04                		rtsd	#16, r7-r10
 1366                             	.LFE1184:
 1368 0077 03                      		.section	.text._ZN6tflite22NudgeQuantizationRangeEffiiPfS0_S0_,"ax",@progbits
 1369                             		.global	__ZN6tflite22NudgeQuantizationRangeEffiiPfS0_S0_
 1371                             	__ZN6tflite22NudgeQuantizationRangeEffiiPfS0_S0_:
 1372                             	.LFB1185:
 335:../src/tensorflow/lite/kernels/internal/quantization_util.cc **** 
 336:../src/tensorflow/lite/kernels/internal/quantization_util.cc **** void NudgeQuantizationRange(const float min, const float max,
 337:../src/tensorflow/lite/kernels/internal/quantization_util.cc ****                             const int quant_min, const int quant_max,
 338:../src/tensorflow/lite/kernels/internal/quantization_util.cc ****                             float* nudged_min, float* nudged_max,
 339:../src/tensorflow/lite/kernels/internal/quantization_util.cc ****                             float* nudged_scale) {
 1373                             		.loc 1 339 50 is_stmt 1
 1374                             	.LVL170:
 1375 0000 6E 6C                   		pushm	r6-r12
 1376                             	.LCFI15:
 1377 0002 60 C0                   		sub	#12, r0
 1378                             	.LCFI16:
 340:../src/tensorflow/lite/kernels/internal/quantization_util.cc ****   // This code originates from tensorflow/core/kernels/fake_quant_ops_functor.h.
 341:../src/tensorflow/lite/kernels/internal/quantization_util.cc ****   const float quant_min_float = static_cast<float>(quant_min);
 1379                             		.loc 1 341 3
 1380                             		.loc 1 341 15 is_stmt 0
 1381 0004 FC 47 3A                		itof	r3, r10
 1382                             	.LVL171:
 342:../src/tensorflow/lite/kernels/internal/quantization_util.cc ****   const float quant_max_float = static_cast<float>(quant_max);
 1383                             		.loc 1 342 3 is_stmt 1
 339:../src/tensorflow/lite/kernels/internal/quantization_util.cc ****   // This code originates from tensorflow/core/kernels/fake_quant_ops_functor.h.
 1384                             		.loc 1 339 50 is_stmt 0
 1385 0007 75 47 2C                		mov.L	#44, r7
 1386 000a 4B 07                   		add	r0, r7
 1387                             		.loc 1 342 15
 1388 000c FC 47 46                		itof	r4, r6
 1389                             	.LVL172:
 343:../src/tensorflow/lite/kernels/internal/quantization_util.cc ****   *nudged_scale = (max - min) / (quant_max_float - quant_min_float);
 1390                             		.loc 1 343 3 is_stmt 1
 1391                             		.loc 1 343 24 is_stmt 0
 1392 000f FF 89 12                		fsub	r1, r2, r9
 339:../src/tensorflow/lite/kernels/internal/quantization_util.cc ****   // This code originates from tensorflow/core/kernels/fake_quant_ops_functor.h.
 1393                             		.loc 1 339 50
 1394 0012 ED 7B 02                		mov.L	8[r7], r11
 1395 0015 EC 7C                   		mov.L	[r7], r12
 1396 0017 A8 7F                   		mov.L	4[r7], r7
 1397                             		.loc 1 343 50
 1398 0019 FF 85 A6                		fsub	r10, r6, r5
 1399                             		.loc 1 343 31
 1400 001c FC 93 59                		fdiv	r5, r9
 344:../src/tensorflow/lite/kernels/internal/quantization_util.cc ****   const float zero_point_from_min = quant_min_float - min / *nudged_scale;
 1401                             		.loc 1 344 59
 1402 001f FC 93 91                		fdiv	r9, r1
 1403                             	.LVL173:
 343:../src/tensorflow/lite/kernels/internal/quantization_util.cc ****   *nudged_scale = (max - min) / (quant_max_float - quant_min_float);
 1404                             		.loc 1 343 17
 1405 0022 E3 B9                   		mov.L	r9, [r11]
 1406                             		.loc 1 344 3 is_stmt 1
 1407                             		.loc 1 344 15 is_stmt 0
 1408 0024 FF 81 1A                		fsub	r1, r10, r1
 1409                             	.LVL174:
 345:../src/tensorflow/lite/kernels/internal/quantization_util.cc ****   uint16_t nudged_zero_point;
 1410                             		.loc 1 345 3 is_stmt 1
 346:../src/tensorflow/lite/kernels/internal/quantization_util.cc ****   if (zero_point_from_min < quant_min_float) {
 1411                             		.loc 1 346 3
 1412 0027 FC 87 A1                		fcmp	r10, r1
 1413 002a 27 09                   		bn	.L139
 347:../src/tensorflow/lite/kernels/internal/quantization_util.cc ****     nudged_zero_point = static_cast<uint16_t>(quant_min);
 348:../src/tensorflow/lite/kernels/internal/quantization_util.cc ****   } else if (zero_point_from_min > quant_max_float) {
 1414                             		.loc 1 348 10
 1415 002c FC 87 16                		fcmp	r1, r6
 1416 002f 26 1E                   		bpz	.L145
 349:../src/tensorflow/lite/kernels/internal/quantization_util.cc ****     nudged_zero_point = static_cast<uint16_t>(quant_max);
 1417                             		.loc 1 349 5
 1418                             		.loc 1 349 23 is_stmt 0
 1419 0031 DF 43                   		mov.W	r4, r3
 1420                             	.LVL175:
 1421                             		.balign 8,3,1
 1422                             	.L139:
 350:../src/tensorflow/lite/kernels/internal/quantization_util.cc ****   } else {
 351:../src/tensorflow/lite/kernels/internal/quantization_util.cc ****     nudged_zero_point = static_cast<uint16_t>(TfLiteRound(zero_point_from_min));
 352:../src/tensorflow/lite/kernels/internal/quantization_util.cc ****   }
 353:../src/tensorflow/lite/kernels/internal/quantization_util.cc ****   *nudged_min = (quant_min_float - nudged_zero_point) * (*nudged_scale);
 1423                             		.loc 1 353 3 is_stmt 1
 1424                             		.loc 1 353 34 is_stmt 0
 1425 0033 5F 31                   		movu.W	r3, r1
 1426                             	.LVL176:
 1427 0035 FC 47 11                		itof	r1, r1
 1428 0038 FC 83 1A                		fsub	r1, r10
 1429                             	.LVL177:
 1430                             		.loc 1 353 55
 1431 003b FC 8F 9A                		fmul	r9, r10
 1432                             		.loc 1 353 15
 1433 003e E3 CA                   		mov.L	r10, [r12]
 354:../src/tensorflow/lite/kernels/internal/quantization_util.cc ****   *nudged_max = (quant_max_float - nudged_zero_point) * (*nudged_scale);
 1434                             		.loc 1 354 3 is_stmt 1
 1435                             		.loc 1 354 34 is_stmt 0
 1436 0040 FF 81 16                		fsub	r1, r6, r1
 1437                             		.loc 1 354 55
 1438 0043 EC B6                   		mov.L	[r11], r6
 1439                             	.LVL178:
 1440 0045 FC 8F 61                		fmul	r6, r1
 1441                             		.loc 1 354 15
 1442 0048 E3 71                   		mov.L	r1, [r7]
 355:../src/tensorflow/lite/kernels/internal/quantization_util.cc **** }
 1443                             		.loc 1 355 1
 1444 004a 3F 6C 0A                		rtsd	#40, r6-r12
 1445                             	.LVL179:
 1446                             	.L145:
 351:../src/tensorflow/lite/kernels/internal/quantization_util.cc ****   }
 1447                             		.loc 1 351 5 is_stmt 1
 1448                             	.LBB249:
 1449                             	.LBB250:
 1450                             	.LBB251:
 1451                             		.file 4 "c:\\gcc for renesas rx 8.3.0.202004-gnurx-elf\\rx-elf\\rx-elf\\rx-elf\\include\\c++\\8.3.
   1:c:\gcc for renesas rx 8.3.0.202004-gnurx-elf\rx-elf\rx-elf\rx-elf\include\c++\8.3.0.202004-gnurx\cmath **** // -*- C++ -*- C forwarding header.
   2:c:\gcc for renesas rx 8.3.0.202004-gnurx-elf\rx-elf\rx-elf\rx-elf\include\c++\8.3.0.202004-gnurx\cmath **** 
   3:c:\gcc for renesas rx 8.3.0.202004-gnurx-elf\rx-elf\rx-elf\rx-elf\include\c++\8.3.0.202004-gnurx\cmath **** // Copyright (C) 1997-2018 Free Software Foundation, Inc.
   4:c:\gcc for renesas rx 8.3.0.202004-gnurx-elf\rx-elf\rx-elf\rx-elf\include\c++\8.3.0.202004-gnurx\cmath **** //
   5:c:\gcc for renesas rx 8.3.0.202004-gnurx-elf\rx-elf\rx-elf\rx-elf\include\c++\8.3.0.202004-gnurx\cmath **** // This file is part of the GNU ISO C++ Library.  This library is free
   6:c:\gcc for renesas rx 8.3.0.202004-gnurx-elf\rx-elf\rx-elf\rx-elf\include\c++\8.3.0.202004-gnurx\cmath **** // software; you can redistribute it and/or modify it under the
   7:c:\gcc for renesas rx 8.3.0.202004-gnurx-elf\rx-elf\rx-elf\rx-elf\include\c++\8.3.0.202004-gnurx\cmath **** // terms of the GNU General Public License as published by the
   8:c:\gcc for renesas rx 8.3.0.202004-gnurx-elf\rx-elf\rx-elf\rx-elf\include\c++\8.3.0.202004-gnurx\cmath **** // Free Software Foundation; either version 3, or (at your option)
   9:c:\gcc for renesas rx 8.3.0.202004-gnurx-elf\rx-elf\rx-elf\rx-elf\include\c++\8.3.0.202004-gnurx\cmath **** // any later version.
  10:c:\gcc for renesas rx 8.3.0.202004-gnurx-elf\rx-elf\rx-elf\rx-elf\include\c++\8.3.0.202004-gnurx\cmath **** 
  11:c:\gcc for renesas rx 8.3.0.202004-gnurx-elf\rx-elf\rx-elf\rx-elf\include\c++\8.3.0.202004-gnurx\cmath **** // This library is distributed in the hope that it will be useful,
  12:c:\gcc for renesas rx 8.3.0.202004-gnurx-elf\rx-elf\rx-elf\rx-elf\include\c++\8.3.0.202004-gnurx\cmath **** // but WITHOUT ANY WARRANTY; without even the implied warranty of
  13:c:\gcc for renesas rx 8.3.0.202004-gnurx-elf\rx-elf\rx-elf\rx-elf\include\c++\8.3.0.202004-gnurx\cmath **** // MERCHANTABILITY or FITNESS FOR A PARTICULAR PURPOSE.  See the
  14:c:\gcc for renesas rx 8.3.0.202004-gnurx-elf\rx-elf\rx-elf\rx-elf\include\c++\8.3.0.202004-gnurx\cmath **** // GNU General Public License for more details.
  15:c:\gcc for renesas rx 8.3.0.202004-gnurx-elf\rx-elf\rx-elf\rx-elf\include\c++\8.3.0.202004-gnurx\cmath **** 
  16:c:\gcc for renesas rx 8.3.0.202004-gnurx-elf\rx-elf\rx-elf\rx-elf\include\c++\8.3.0.202004-gnurx\cmath **** // Under Section 7 of GPL version 3, you are granted additional
  17:c:\gcc for renesas rx 8.3.0.202004-gnurx-elf\rx-elf\rx-elf\rx-elf\include\c++\8.3.0.202004-gnurx\cmath **** // permissions described in the GCC Runtime Library Exception, version
  18:c:\gcc for renesas rx 8.3.0.202004-gnurx-elf\rx-elf\rx-elf\rx-elf\include\c++\8.3.0.202004-gnurx\cmath **** // 3.1, as published by the Free Software Foundation.
  19:c:\gcc for renesas rx 8.3.0.202004-gnurx-elf\rx-elf\rx-elf\rx-elf\include\c++\8.3.0.202004-gnurx\cmath **** 
  20:c:\gcc for renesas rx 8.3.0.202004-gnurx-elf\rx-elf\rx-elf\rx-elf\include\c++\8.3.0.202004-gnurx\cmath **** // You should have received a copy of the GNU General Public License and
  21:c:\gcc for renesas rx 8.3.0.202004-gnurx-elf\rx-elf\rx-elf\rx-elf\include\c++\8.3.0.202004-gnurx\cmath **** // a copy of the GCC Runtime Library Exception along with this program;
  22:c:\gcc for renesas rx 8.3.0.202004-gnurx-elf\rx-elf\rx-elf\rx-elf\include\c++\8.3.0.202004-gnurx\cmath **** // see the files COPYING3 and COPYING.RUNTIME respectively.  If not, see
  23:c:\gcc for renesas rx 8.3.0.202004-gnurx-elf\rx-elf\rx-elf\rx-elf\include\c++\8.3.0.202004-gnurx\cmath **** // <http://www.gnu.org/licenses/>.
  24:c:\gcc for renesas rx 8.3.0.202004-gnurx-elf\rx-elf\rx-elf\rx-elf\include\c++\8.3.0.202004-gnurx\cmath **** 
  25:c:\gcc for renesas rx 8.3.0.202004-gnurx-elf\rx-elf\rx-elf\rx-elf\include\c++\8.3.0.202004-gnurx\cmath **** /** @file include/cmath
  26:c:\gcc for renesas rx 8.3.0.202004-gnurx-elf\rx-elf\rx-elf\rx-elf\include\c++\8.3.0.202004-gnurx\cmath ****  *  This is a Standard C++ Library file.  You should @c \#include this file
  27:c:\gcc for renesas rx 8.3.0.202004-gnurx-elf\rx-elf\rx-elf\rx-elf\include\c++\8.3.0.202004-gnurx\cmath ****  *  in your programs, rather than any of the @a *.h implementation files.
  28:c:\gcc for renesas rx 8.3.0.202004-gnurx-elf\rx-elf\rx-elf\rx-elf\include\c++\8.3.0.202004-gnurx\cmath ****  *
  29:c:\gcc for renesas rx 8.3.0.202004-gnurx-elf\rx-elf\rx-elf\rx-elf\include\c++\8.3.0.202004-gnurx\cmath ****  *  This is the C++ version of the Standard C Library header @c math.h,
  30:c:\gcc for renesas rx 8.3.0.202004-gnurx-elf\rx-elf\rx-elf\rx-elf\include\c++\8.3.0.202004-gnurx\cmath ****  *  and its contents are (mostly) the same as that header, but are all
  31:c:\gcc for renesas rx 8.3.0.202004-gnurx-elf\rx-elf\rx-elf\rx-elf\include\c++\8.3.0.202004-gnurx\cmath ****  *  contained in the namespace @c std (except for names which are defined
  32:c:\gcc for renesas rx 8.3.0.202004-gnurx-elf\rx-elf\rx-elf\rx-elf\include\c++\8.3.0.202004-gnurx\cmath ****  *  as macros in C).
  33:c:\gcc for renesas rx 8.3.0.202004-gnurx-elf\rx-elf\rx-elf\rx-elf\include\c++\8.3.0.202004-gnurx\cmath ****  */
  34:c:\gcc for renesas rx 8.3.0.202004-gnurx-elf\rx-elf\rx-elf\rx-elf\include\c++\8.3.0.202004-gnurx\cmath **** 
  35:c:\gcc for renesas rx 8.3.0.202004-gnurx-elf\rx-elf\rx-elf\rx-elf\include\c++\8.3.0.202004-gnurx\cmath **** //
  36:c:\gcc for renesas rx 8.3.0.202004-gnurx-elf\rx-elf\rx-elf\rx-elf\include\c++\8.3.0.202004-gnurx\cmath **** // ISO C++ 14882: 26.5  C library
  37:c:\gcc for renesas rx 8.3.0.202004-gnurx-elf\rx-elf\rx-elf\rx-elf\include\c++\8.3.0.202004-gnurx\cmath **** //
  38:c:\gcc for renesas rx 8.3.0.202004-gnurx-elf\rx-elf\rx-elf\rx-elf\include\c++\8.3.0.202004-gnurx\cmath **** 
  39:c:\gcc for renesas rx 8.3.0.202004-gnurx-elf\rx-elf\rx-elf\rx-elf\include\c++\8.3.0.202004-gnurx\cmath **** #pragma GCC system_header
  40:c:\gcc for renesas rx 8.3.0.202004-gnurx-elf\rx-elf\rx-elf\rx-elf\include\c++\8.3.0.202004-gnurx\cmath **** 
  41:c:\gcc for renesas rx 8.3.0.202004-gnurx-elf\rx-elf\rx-elf\rx-elf\include\c++\8.3.0.202004-gnurx\cmath **** #include <bits/c++config.h>
  42:c:\gcc for renesas rx 8.3.0.202004-gnurx-elf\rx-elf\rx-elf\rx-elf\include\c++\8.3.0.202004-gnurx\cmath **** #include <bits/cpp_type_traits.h>
  43:c:\gcc for renesas rx 8.3.0.202004-gnurx-elf\rx-elf\rx-elf\rx-elf\include\c++\8.3.0.202004-gnurx\cmath **** #include <ext/type_traits.h>
  44:c:\gcc for renesas rx 8.3.0.202004-gnurx-elf\rx-elf\rx-elf\rx-elf\include\c++\8.3.0.202004-gnurx\cmath **** #define _GLIBCXX_INCLUDE_NEXT_C_HEADERS
  45:c:\gcc for renesas rx 8.3.0.202004-gnurx-elf\rx-elf\rx-elf\rx-elf\include\c++\8.3.0.202004-gnurx\cmath **** #include_next <math.h>
  46:c:\gcc for renesas rx 8.3.0.202004-gnurx-elf\rx-elf\rx-elf\rx-elf\include\c++\8.3.0.202004-gnurx\cmath **** #undef _GLIBCXX_INCLUDE_NEXT_C_HEADERS
  47:c:\gcc for renesas rx 8.3.0.202004-gnurx-elf\rx-elf\rx-elf\rx-elf\include\c++\8.3.0.202004-gnurx\cmath **** #include <bits/std_abs.h>
  48:c:\gcc for renesas rx 8.3.0.202004-gnurx-elf\rx-elf\rx-elf\rx-elf\include\c++\8.3.0.202004-gnurx\cmath **** 
  49:c:\gcc for renesas rx 8.3.0.202004-gnurx-elf\rx-elf\rx-elf\rx-elf\include\c++\8.3.0.202004-gnurx\cmath **** #ifndef _GLIBCXX_CMATH
  50:c:\gcc for renesas rx 8.3.0.202004-gnurx-elf\rx-elf\rx-elf\rx-elf\include\c++\8.3.0.202004-gnurx\cmath **** #define _GLIBCXX_CMATH 1
  51:c:\gcc for renesas rx 8.3.0.202004-gnurx-elf\rx-elf\rx-elf\rx-elf\include\c++\8.3.0.202004-gnurx\cmath **** 
  52:c:\gcc for renesas rx 8.3.0.202004-gnurx-elf\rx-elf\rx-elf\rx-elf\include\c++\8.3.0.202004-gnurx\cmath **** // Get rid of those macros defined in <math.h> in lieu of real functions.
  53:c:\gcc for renesas rx 8.3.0.202004-gnurx-elf\rx-elf\rx-elf\rx-elf\include\c++\8.3.0.202004-gnurx\cmath **** #undef div
  54:c:\gcc for renesas rx 8.3.0.202004-gnurx-elf\rx-elf\rx-elf\rx-elf\include\c++\8.3.0.202004-gnurx\cmath **** #undef acos
  55:c:\gcc for renesas rx 8.3.0.202004-gnurx-elf\rx-elf\rx-elf\rx-elf\include\c++\8.3.0.202004-gnurx\cmath **** #undef asin
  56:c:\gcc for renesas rx 8.3.0.202004-gnurx-elf\rx-elf\rx-elf\rx-elf\include\c++\8.3.0.202004-gnurx\cmath **** #undef atan
  57:c:\gcc for renesas rx 8.3.0.202004-gnurx-elf\rx-elf\rx-elf\rx-elf\include\c++\8.3.0.202004-gnurx\cmath **** #undef atan2
  58:c:\gcc for renesas rx 8.3.0.202004-gnurx-elf\rx-elf\rx-elf\rx-elf\include\c++\8.3.0.202004-gnurx\cmath **** #undef ceil
  59:c:\gcc for renesas rx 8.3.0.202004-gnurx-elf\rx-elf\rx-elf\rx-elf\include\c++\8.3.0.202004-gnurx\cmath **** #undef cos
  60:c:\gcc for renesas rx 8.3.0.202004-gnurx-elf\rx-elf\rx-elf\rx-elf\include\c++\8.3.0.202004-gnurx\cmath **** #undef cosh
  61:c:\gcc for renesas rx 8.3.0.202004-gnurx-elf\rx-elf\rx-elf\rx-elf\include\c++\8.3.0.202004-gnurx\cmath **** #undef exp
  62:c:\gcc for renesas rx 8.3.0.202004-gnurx-elf\rx-elf\rx-elf\rx-elf\include\c++\8.3.0.202004-gnurx\cmath **** #undef fabs
  63:c:\gcc for renesas rx 8.3.0.202004-gnurx-elf\rx-elf\rx-elf\rx-elf\include\c++\8.3.0.202004-gnurx\cmath **** #undef floor
  64:c:\gcc for renesas rx 8.3.0.202004-gnurx-elf\rx-elf\rx-elf\rx-elf\include\c++\8.3.0.202004-gnurx\cmath **** #undef fmod
  65:c:\gcc for renesas rx 8.3.0.202004-gnurx-elf\rx-elf\rx-elf\rx-elf\include\c++\8.3.0.202004-gnurx\cmath **** #undef frexp
  66:c:\gcc for renesas rx 8.3.0.202004-gnurx-elf\rx-elf\rx-elf\rx-elf\include\c++\8.3.0.202004-gnurx\cmath **** #undef ldexp
  67:c:\gcc for renesas rx 8.3.0.202004-gnurx-elf\rx-elf\rx-elf\rx-elf\include\c++\8.3.0.202004-gnurx\cmath **** #undef log
  68:c:\gcc for renesas rx 8.3.0.202004-gnurx-elf\rx-elf\rx-elf\rx-elf\include\c++\8.3.0.202004-gnurx\cmath **** #undef log10
  69:c:\gcc for renesas rx 8.3.0.202004-gnurx-elf\rx-elf\rx-elf\rx-elf\include\c++\8.3.0.202004-gnurx\cmath **** #undef modf
  70:c:\gcc for renesas rx 8.3.0.202004-gnurx-elf\rx-elf\rx-elf\rx-elf\include\c++\8.3.0.202004-gnurx\cmath **** #undef pow
  71:c:\gcc for renesas rx 8.3.0.202004-gnurx-elf\rx-elf\rx-elf\rx-elf\include\c++\8.3.0.202004-gnurx\cmath **** #undef sin
  72:c:\gcc for renesas rx 8.3.0.202004-gnurx-elf\rx-elf\rx-elf\rx-elf\include\c++\8.3.0.202004-gnurx\cmath **** #undef sinh
  73:c:\gcc for renesas rx 8.3.0.202004-gnurx-elf\rx-elf\rx-elf\rx-elf\include\c++\8.3.0.202004-gnurx\cmath **** #undef sqrt
  74:c:\gcc for renesas rx 8.3.0.202004-gnurx-elf\rx-elf\rx-elf\rx-elf\include\c++\8.3.0.202004-gnurx\cmath **** #undef tan
  75:c:\gcc for renesas rx 8.3.0.202004-gnurx-elf\rx-elf\rx-elf\rx-elf\include\c++\8.3.0.202004-gnurx\cmath **** #undef tanh
  76:c:\gcc for renesas rx 8.3.0.202004-gnurx-elf\rx-elf\rx-elf\rx-elf\include\c++\8.3.0.202004-gnurx\cmath **** 
  77:c:\gcc for renesas rx 8.3.0.202004-gnurx-elf\rx-elf\rx-elf\rx-elf\include\c++\8.3.0.202004-gnurx\cmath **** extern "C++"
  78:c:\gcc for renesas rx 8.3.0.202004-gnurx-elf\rx-elf\rx-elf\rx-elf\include\c++\8.3.0.202004-gnurx\cmath **** {
  79:c:\gcc for renesas rx 8.3.0.202004-gnurx-elf\rx-elf\rx-elf\rx-elf\include\c++\8.3.0.202004-gnurx\cmath **** namespace std _GLIBCXX_VISIBILITY(default)
  80:c:\gcc for renesas rx 8.3.0.202004-gnurx-elf\rx-elf\rx-elf\rx-elf\include\c++\8.3.0.202004-gnurx\cmath **** {
  81:c:\gcc for renesas rx 8.3.0.202004-gnurx-elf\rx-elf\rx-elf\rx-elf\include\c++\8.3.0.202004-gnurx\cmath **** _GLIBCXX_BEGIN_NAMESPACE_VERSION
  82:c:\gcc for renesas rx 8.3.0.202004-gnurx-elf\rx-elf\rx-elf\rx-elf\include\c++\8.3.0.202004-gnurx\cmath **** 
  83:c:\gcc for renesas rx 8.3.0.202004-gnurx-elf\rx-elf\rx-elf\rx-elf\include\c++\8.3.0.202004-gnurx\cmath ****   using ::acos;
  84:c:\gcc for renesas rx 8.3.0.202004-gnurx-elf\rx-elf\rx-elf\rx-elf\include\c++\8.3.0.202004-gnurx\cmath **** 
  85:c:\gcc for renesas rx 8.3.0.202004-gnurx-elf\rx-elf\rx-elf\rx-elf\include\c++\8.3.0.202004-gnurx\cmath **** #ifndef __CORRECT_ISO_CPP_MATH_H_PROTO
  86:c:\gcc for renesas rx 8.3.0.202004-gnurx-elf\rx-elf\rx-elf\rx-elf\include\c++\8.3.0.202004-gnurx\cmath ****   inline _GLIBCXX_CONSTEXPR float
  87:c:\gcc for renesas rx 8.3.0.202004-gnurx-elf\rx-elf\rx-elf\rx-elf\include\c++\8.3.0.202004-gnurx\cmath ****   acos(float __x)
  88:c:\gcc for renesas rx 8.3.0.202004-gnurx-elf\rx-elf\rx-elf\rx-elf\include\c++\8.3.0.202004-gnurx\cmath ****   { return __builtin_acosf(__x); }
  89:c:\gcc for renesas rx 8.3.0.202004-gnurx-elf\rx-elf\rx-elf\rx-elf\include\c++\8.3.0.202004-gnurx\cmath **** 
  90:c:\gcc for renesas rx 8.3.0.202004-gnurx-elf\rx-elf\rx-elf\rx-elf\include\c++\8.3.0.202004-gnurx\cmath ****   inline _GLIBCXX_CONSTEXPR long double
  91:c:\gcc for renesas rx 8.3.0.202004-gnurx-elf\rx-elf\rx-elf\rx-elf\include\c++\8.3.0.202004-gnurx\cmath ****   acos(long double __x)
  92:c:\gcc for renesas rx 8.3.0.202004-gnurx-elf\rx-elf\rx-elf\rx-elf\include\c++\8.3.0.202004-gnurx\cmath ****   { return __builtin_acosl(__x); }
  93:c:\gcc for renesas rx 8.3.0.202004-gnurx-elf\rx-elf\rx-elf\rx-elf\include\c++\8.3.0.202004-gnurx\cmath **** #endif
  94:c:\gcc for renesas rx 8.3.0.202004-gnurx-elf\rx-elf\rx-elf\rx-elf\include\c++\8.3.0.202004-gnurx\cmath **** 
  95:c:\gcc for renesas rx 8.3.0.202004-gnurx-elf\rx-elf\rx-elf\rx-elf\include\c++\8.3.0.202004-gnurx\cmath ****   template<typename _Tp>
  96:c:\gcc for renesas rx 8.3.0.202004-gnurx-elf\rx-elf\rx-elf\rx-elf\include\c++\8.3.0.202004-gnurx\cmath ****     inline _GLIBCXX_CONSTEXPR
  97:c:\gcc for renesas rx 8.3.0.202004-gnurx-elf\rx-elf\rx-elf\rx-elf\include\c++\8.3.0.202004-gnurx\cmath ****     typename __gnu_cxx::__enable_if<__is_integer<_Tp>::__value, 
  98:c:\gcc for renesas rx 8.3.0.202004-gnurx-elf\rx-elf\rx-elf\rx-elf\include\c++\8.3.0.202004-gnurx\cmath ****                                     double>::__type
  99:c:\gcc for renesas rx 8.3.0.202004-gnurx-elf\rx-elf\rx-elf\rx-elf\include\c++\8.3.0.202004-gnurx\cmath ****     acos(_Tp __x)
 100:c:\gcc for renesas rx 8.3.0.202004-gnurx-elf\rx-elf\rx-elf\rx-elf\include\c++\8.3.0.202004-gnurx\cmath ****     { return __builtin_acos(__x); }
 101:c:\gcc for renesas rx 8.3.0.202004-gnurx-elf\rx-elf\rx-elf\rx-elf\include\c++\8.3.0.202004-gnurx\cmath **** 
 102:c:\gcc for renesas rx 8.3.0.202004-gnurx-elf\rx-elf\rx-elf\rx-elf\include\c++\8.3.0.202004-gnurx\cmath ****   using ::asin;
 103:c:\gcc for renesas rx 8.3.0.202004-gnurx-elf\rx-elf\rx-elf\rx-elf\include\c++\8.3.0.202004-gnurx\cmath **** 
 104:c:\gcc for renesas rx 8.3.0.202004-gnurx-elf\rx-elf\rx-elf\rx-elf\include\c++\8.3.0.202004-gnurx\cmath **** #ifndef __CORRECT_ISO_CPP_MATH_H_PROTO
 105:c:\gcc for renesas rx 8.3.0.202004-gnurx-elf\rx-elf\rx-elf\rx-elf\include\c++\8.3.0.202004-gnurx\cmath ****   inline _GLIBCXX_CONSTEXPR float
 106:c:\gcc for renesas rx 8.3.0.202004-gnurx-elf\rx-elf\rx-elf\rx-elf\include\c++\8.3.0.202004-gnurx\cmath ****   asin(float __x)
 107:c:\gcc for renesas rx 8.3.0.202004-gnurx-elf\rx-elf\rx-elf\rx-elf\include\c++\8.3.0.202004-gnurx\cmath ****   { return __builtin_asinf(__x); }
 108:c:\gcc for renesas rx 8.3.0.202004-gnurx-elf\rx-elf\rx-elf\rx-elf\include\c++\8.3.0.202004-gnurx\cmath **** 
 109:c:\gcc for renesas rx 8.3.0.202004-gnurx-elf\rx-elf\rx-elf\rx-elf\include\c++\8.3.0.202004-gnurx\cmath ****   inline _GLIBCXX_CONSTEXPR long double
 110:c:\gcc for renesas rx 8.3.0.202004-gnurx-elf\rx-elf\rx-elf\rx-elf\include\c++\8.3.0.202004-gnurx\cmath ****   asin(long double __x)
 111:c:\gcc for renesas rx 8.3.0.202004-gnurx-elf\rx-elf\rx-elf\rx-elf\include\c++\8.3.0.202004-gnurx\cmath ****   { return __builtin_asinl(__x); }
 112:c:\gcc for renesas rx 8.3.0.202004-gnurx-elf\rx-elf\rx-elf\rx-elf\include\c++\8.3.0.202004-gnurx\cmath **** #endif
 113:c:\gcc for renesas rx 8.3.0.202004-gnurx-elf\rx-elf\rx-elf\rx-elf\include\c++\8.3.0.202004-gnurx\cmath **** 
 114:c:\gcc for renesas rx 8.3.0.202004-gnurx-elf\rx-elf\rx-elf\rx-elf\include\c++\8.3.0.202004-gnurx\cmath ****   template<typename _Tp>
 115:c:\gcc for renesas rx 8.3.0.202004-gnurx-elf\rx-elf\rx-elf\rx-elf\include\c++\8.3.0.202004-gnurx\cmath ****     inline _GLIBCXX_CONSTEXPR
 116:c:\gcc for renesas rx 8.3.0.202004-gnurx-elf\rx-elf\rx-elf\rx-elf\include\c++\8.3.0.202004-gnurx\cmath ****     typename __gnu_cxx::__enable_if<__is_integer<_Tp>::__value,
 117:c:\gcc for renesas rx 8.3.0.202004-gnurx-elf\rx-elf\rx-elf\rx-elf\include\c++\8.3.0.202004-gnurx\cmath ****                                     double>::__type
 118:c:\gcc for renesas rx 8.3.0.202004-gnurx-elf\rx-elf\rx-elf\rx-elf\include\c++\8.3.0.202004-gnurx\cmath ****     asin(_Tp __x)
 119:c:\gcc for renesas rx 8.3.0.202004-gnurx-elf\rx-elf\rx-elf\rx-elf\include\c++\8.3.0.202004-gnurx\cmath ****     { return __builtin_asin(__x); }
 120:c:\gcc for renesas rx 8.3.0.202004-gnurx-elf\rx-elf\rx-elf\rx-elf\include\c++\8.3.0.202004-gnurx\cmath **** 
 121:c:\gcc for renesas rx 8.3.0.202004-gnurx-elf\rx-elf\rx-elf\rx-elf\include\c++\8.3.0.202004-gnurx\cmath ****   using ::atan;
 122:c:\gcc for renesas rx 8.3.0.202004-gnurx-elf\rx-elf\rx-elf\rx-elf\include\c++\8.3.0.202004-gnurx\cmath **** 
 123:c:\gcc for renesas rx 8.3.0.202004-gnurx-elf\rx-elf\rx-elf\rx-elf\include\c++\8.3.0.202004-gnurx\cmath **** #ifndef __CORRECT_ISO_CPP_MATH_H_PROTO
 124:c:\gcc for renesas rx 8.3.0.202004-gnurx-elf\rx-elf\rx-elf\rx-elf\include\c++\8.3.0.202004-gnurx\cmath ****   inline _GLIBCXX_CONSTEXPR float
 125:c:\gcc for renesas rx 8.3.0.202004-gnurx-elf\rx-elf\rx-elf\rx-elf\include\c++\8.3.0.202004-gnurx\cmath ****   atan(float __x)
 126:c:\gcc for renesas rx 8.3.0.202004-gnurx-elf\rx-elf\rx-elf\rx-elf\include\c++\8.3.0.202004-gnurx\cmath ****   { return __builtin_atanf(__x); }
 127:c:\gcc for renesas rx 8.3.0.202004-gnurx-elf\rx-elf\rx-elf\rx-elf\include\c++\8.3.0.202004-gnurx\cmath **** 
 128:c:\gcc for renesas rx 8.3.0.202004-gnurx-elf\rx-elf\rx-elf\rx-elf\include\c++\8.3.0.202004-gnurx\cmath ****   inline _GLIBCXX_CONSTEXPR long double
 129:c:\gcc for renesas rx 8.3.0.202004-gnurx-elf\rx-elf\rx-elf\rx-elf\include\c++\8.3.0.202004-gnurx\cmath ****   atan(long double __x)
 130:c:\gcc for renesas rx 8.3.0.202004-gnurx-elf\rx-elf\rx-elf\rx-elf\include\c++\8.3.0.202004-gnurx\cmath ****   { return __builtin_atanl(__x); }
 131:c:\gcc for renesas rx 8.3.0.202004-gnurx-elf\rx-elf\rx-elf\rx-elf\include\c++\8.3.0.202004-gnurx\cmath **** #endif
 132:c:\gcc for renesas rx 8.3.0.202004-gnurx-elf\rx-elf\rx-elf\rx-elf\include\c++\8.3.0.202004-gnurx\cmath **** 
 133:c:\gcc for renesas rx 8.3.0.202004-gnurx-elf\rx-elf\rx-elf\rx-elf\include\c++\8.3.0.202004-gnurx\cmath ****   template<typename _Tp>
 134:c:\gcc for renesas rx 8.3.0.202004-gnurx-elf\rx-elf\rx-elf\rx-elf\include\c++\8.3.0.202004-gnurx\cmath ****     inline _GLIBCXX_CONSTEXPR
 135:c:\gcc for renesas rx 8.3.0.202004-gnurx-elf\rx-elf\rx-elf\rx-elf\include\c++\8.3.0.202004-gnurx\cmath ****     typename __gnu_cxx::__enable_if<__is_integer<_Tp>::__value,
 136:c:\gcc for renesas rx 8.3.0.202004-gnurx-elf\rx-elf\rx-elf\rx-elf\include\c++\8.3.0.202004-gnurx\cmath ****                                     double>::__type
 137:c:\gcc for renesas rx 8.3.0.202004-gnurx-elf\rx-elf\rx-elf\rx-elf\include\c++\8.3.0.202004-gnurx\cmath ****     atan(_Tp __x)
 138:c:\gcc for renesas rx 8.3.0.202004-gnurx-elf\rx-elf\rx-elf\rx-elf\include\c++\8.3.0.202004-gnurx\cmath ****     { return __builtin_atan(__x); }
 139:c:\gcc for renesas rx 8.3.0.202004-gnurx-elf\rx-elf\rx-elf\rx-elf\include\c++\8.3.0.202004-gnurx\cmath **** 
 140:c:\gcc for renesas rx 8.3.0.202004-gnurx-elf\rx-elf\rx-elf\rx-elf\include\c++\8.3.0.202004-gnurx\cmath ****   using ::atan2;
 141:c:\gcc for renesas rx 8.3.0.202004-gnurx-elf\rx-elf\rx-elf\rx-elf\include\c++\8.3.0.202004-gnurx\cmath **** 
 142:c:\gcc for renesas rx 8.3.0.202004-gnurx-elf\rx-elf\rx-elf\rx-elf\include\c++\8.3.0.202004-gnurx\cmath **** #ifndef __CORRECT_ISO_CPP_MATH_H_PROTO
 143:c:\gcc for renesas rx 8.3.0.202004-gnurx-elf\rx-elf\rx-elf\rx-elf\include\c++\8.3.0.202004-gnurx\cmath ****   inline _GLIBCXX_CONSTEXPR float
 144:c:\gcc for renesas rx 8.3.0.202004-gnurx-elf\rx-elf\rx-elf\rx-elf\include\c++\8.3.0.202004-gnurx\cmath ****   atan2(float __y, float __x)
 145:c:\gcc for renesas rx 8.3.0.202004-gnurx-elf\rx-elf\rx-elf\rx-elf\include\c++\8.3.0.202004-gnurx\cmath ****   { return __builtin_atan2f(__y, __x); }
 146:c:\gcc for renesas rx 8.3.0.202004-gnurx-elf\rx-elf\rx-elf\rx-elf\include\c++\8.3.0.202004-gnurx\cmath **** 
 147:c:\gcc for renesas rx 8.3.0.202004-gnurx-elf\rx-elf\rx-elf\rx-elf\include\c++\8.3.0.202004-gnurx\cmath ****   inline _GLIBCXX_CONSTEXPR long double
 148:c:\gcc for renesas rx 8.3.0.202004-gnurx-elf\rx-elf\rx-elf\rx-elf\include\c++\8.3.0.202004-gnurx\cmath ****   atan2(long double __y, long double __x)
 149:c:\gcc for renesas rx 8.3.0.202004-gnurx-elf\rx-elf\rx-elf\rx-elf\include\c++\8.3.0.202004-gnurx\cmath ****   { return __builtin_atan2l(__y, __x); }
 150:c:\gcc for renesas rx 8.3.0.202004-gnurx-elf\rx-elf\rx-elf\rx-elf\include\c++\8.3.0.202004-gnurx\cmath **** #endif
 151:c:\gcc for renesas rx 8.3.0.202004-gnurx-elf\rx-elf\rx-elf\rx-elf\include\c++\8.3.0.202004-gnurx\cmath **** 
 152:c:\gcc for renesas rx 8.3.0.202004-gnurx-elf\rx-elf\rx-elf\rx-elf\include\c++\8.3.0.202004-gnurx\cmath ****   template<typename _Tp, typename _Up>
 153:c:\gcc for renesas rx 8.3.0.202004-gnurx-elf\rx-elf\rx-elf\rx-elf\include\c++\8.3.0.202004-gnurx\cmath ****     inline _GLIBCXX_CONSTEXPR
 154:c:\gcc for renesas rx 8.3.0.202004-gnurx-elf\rx-elf\rx-elf\rx-elf\include\c++\8.3.0.202004-gnurx\cmath ****     typename __gnu_cxx::__promote_2<_Tp, _Up>::__type
 155:c:\gcc for renesas rx 8.3.0.202004-gnurx-elf\rx-elf\rx-elf\rx-elf\include\c++\8.3.0.202004-gnurx\cmath ****     atan2(_Tp __y, _Up __x)
 156:c:\gcc for renesas rx 8.3.0.202004-gnurx-elf\rx-elf\rx-elf\rx-elf\include\c++\8.3.0.202004-gnurx\cmath ****     {
 157:c:\gcc for renesas rx 8.3.0.202004-gnurx-elf\rx-elf\rx-elf\rx-elf\include\c++\8.3.0.202004-gnurx\cmath ****       typedef typename __gnu_cxx::__promote_2<_Tp, _Up>::__type __type;
 158:c:\gcc for renesas rx 8.3.0.202004-gnurx-elf\rx-elf\rx-elf\rx-elf\include\c++\8.3.0.202004-gnurx\cmath ****       return atan2(__type(__y), __type(__x));
 159:c:\gcc for renesas rx 8.3.0.202004-gnurx-elf\rx-elf\rx-elf\rx-elf\include\c++\8.3.0.202004-gnurx\cmath ****     }
 160:c:\gcc for renesas rx 8.3.0.202004-gnurx-elf\rx-elf\rx-elf\rx-elf\include\c++\8.3.0.202004-gnurx\cmath **** 
 161:c:\gcc for renesas rx 8.3.0.202004-gnurx-elf\rx-elf\rx-elf\rx-elf\include\c++\8.3.0.202004-gnurx\cmath ****   using ::ceil;
 162:c:\gcc for renesas rx 8.3.0.202004-gnurx-elf\rx-elf\rx-elf\rx-elf\include\c++\8.3.0.202004-gnurx\cmath **** 
 163:c:\gcc for renesas rx 8.3.0.202004-gnurx-elf\rx-elf\rx-elf\rx-elf\include\c++\8.3.0.202004-gnurx\cmath **** #ifndef __CORRECT_ISO_CPP_MATH_H_PROTO
 164:c:\gcc for renesas rx 8.3.0.202004-gnurx-elf\rx-elf\rx-elf\rx-elf\include\c++\8.3.0.202004-gnurx\cmath ****   inline _GLIBCXX_CONSTEXPR float
 165:c:\gcc for renesas rx 8.3.0.202004-gnurx-elf\rx-elf\rx-elf\rx-elf\include\c++\8.3.0.202004-gnurx\cmath ****   ceil(float __x)
 166:c:\gcc for renesas rx 8.3.0.202004-gnurx-elf\rx-elf\rx-elf\rx-elf\include\c++\8.3.0.202004-gnurx\cmath ****   { return __builtin_ceilf(__x); }
 167:c:\gcc for renesas rx 8.3.0.202004-gnurx-elf\rx-elf\rx-elf\rx-elf\include\c++\8.3.0.202004-gnurx\cmath **** 
 168:c:\gcc for renesas rx 8.3.0.202004-gnurx-elf\rx-elf\rx-elf\rx-elf\include\c++\8.3.0.202004-gnurx\cmath ****   inline _GLIBCXX_CONSTEXPR long double
 169:c:\gcc for renesas rx 8.3.0.202004-gnurx-elf\rx-elf\rx-elf\rx-elf\include\c++\8.3.0.202004-gnurx\cmath ****   ceil(long double __x)
 170:c:\gcc for renesas rx 8.3.0.202004-gnurx-elf\rx-elf\rx-elf\rx-elf\include\c++\8.3.0.202004-gnurx\cmath ****   { return __builtin_ceill(__x); }
 171:c:\gcc for renesas rx 8.3.0.202004-gnurx-elf\rx-elf\rx-elf\rx-elf\include\c++\8.3.0.202004-gnurx\cmath **** #endif
 172:c:\gcc for renesas rx 8.3.0.202004-gnurx-elf\rx-elf\rx-elf\rx-elf\include\c++\8.3.0.202004-gnurx\cmath **** 
 173:c:\gcc for renesas rx 8.3.0.202004-gnurx-elf\rx-elf\rx-elf\rx-elf\include\c++\8.3.0.202004-gnurx\cmath ****   template<typename _Tp>
 174:c:\gcc for renesas rx 8.3.0.202004-gnurx-elf\rx-elf\rx-elf\rx-elf\include\c++\8.3.0.202004-gnurx\cmath ****     inline _GLIBCXX_CONSTEXPR
 175:c:\gcc for renesas rx 8.3.0.202004-gnurx-elf\rx-elf\rx-elf\rx-elf\include\c++\8.3.0.202004-gnurx\cmath ****     typename __gnu_cxx::__enable_if<__is_integer<_Tp>::__value, 
 176:c:\gcc for renesas rx 8.3.0.202004-gnurx-elf\rx-elf\rx-elf\rx-elf\include\c++\8.3.0.202004-gnurx\cmath ****                                     double>::__type
 177:c:\gcc for renesas rx 8.3.0.202004-gnurx-elf\rx-elf\rx-elf\rx-elf\include\c++\8.3.0.202004-gnurx\cmath ****     ceil(_Tp __x)
 178:c:\gcc for renesas rx 8.3.0.202004-gnurx-elf\rx-elf\rx-elf\rx-elf\include\c++\8.3.0.202004-gnurx\cmath ****     { return __builtin_ceil(__x); }
 179:c:\gcc for renesas rx 8.3.0.202004-gnurx-elf\rx-elf\rx-elf\rx-elf\include\c++\8.3.0.202004-gnurx\cmath **** 
 180:c:\gcc for renesas rx 8.3.0.202004-gnurx-elf\rx-elf\rx-elf\rx-elf\include\c++\8.3.0.202004-gnurx\cmath ****   using ::cos;
 181:c:\gcc for renesas rx 8.3.0.202004-gnurx-elf\rx-elf\rx-elf\rx-elf\include\c++\8.3.0.202004-gnurx\cmath **** 
 182:c:\gcc for renesas rx 8.3.0.202004-gnurx-elf\rx-elf\rx-elf\rx-elf\include\c++\8.3.0.202004-gnurx\cmath **** #ifndef __CORRECT_ISO_CPP_MATH_H_PROTO
 183:c:\gcc for renesas rx 8.3.0.202004-gnurx-elf\rx-elf\rx-elf\rx-elf\include\c++\8.3.0.202004-gnurx\cmath ****   inline _GLIBCXX_CONSTEXPR float
 184:c:\gcc for renesas rx 8.3.0.202004-gnurx-elf\rx-elf\rx-elf\rx-elf\include\c++\8.3.0.202004-gnurx\cmath ****   cos(float __x)
 185:c:\gcc for renesas rx 8.3.0.202004-gnurx-elf\rx-elf\rx-elf\rx-elf\include\c++\8.3.0.202004-gnurx\cmath ****   { return __builtin_cosf(__x); }
 186:c:\gcc for renesas rx 8.3.0.202004-gnurx-elf\rx-elf\rx-elf\rx-elf\include\c++\8.3.0.202004-gnurx\cmath **** 
 187:c:\gcc for renesas rx 8.3.0.202004-gnurx-elf\rx-elf\rx-elf\rx-elf\include\c++\8.3.0.202004-gnurx\cmath ****   inline _GLIBCXX_CONSTEXPR long double
 188:c:\gcc for renesas rx 8.3.0.202004-gnurx-elf\rx-elf\rx-elf\rx-elf\include\c++\8.3.0.202004-gnurx\cmath ****   cos(long double __x)
 189:c:\gcc for renesas rx 8.3.0.202004-gnurx-elf\rx-elf\rx-elf\rx-elf\include\c++\8.3.0.202004-gnurx\cmath ****   { return __builtin_cosl(__x); }
 190:c:\gcc for renesas rx 8.3.0.202004-gnurx-elf\rx-elf\rx-elf\rx-elf\include\c++\8.3.0.202004-gnurx\cmath **** #endif
 191:c:\gcc for renesas rx 8.3.0.202004-gnurx-elf\rx-elf\rx-elf\rx-elf\include\c++\8.3.0.202004-gnurx\cmath **** 
 192:c:\gcc for renesas rx 8.3.0.202004-gnurx-elf\rx-elf\rx-elf\rx-elf\include\c++\8.3.0.202004-gnurx\cmath ****   template<typename _Tp>
 193:c:\gcc for renesas rx 8.3.0.202004-gnurx-elf\rx-elf\rx-elf\rx-elf\include\c++\8.3.0.202004-gnurx\cmath ****     inline _GLIBCXX_CONSTEXPR
 194:c:\gcc for renesas rx 8.3.0.202004-gnurx-elf\rx-elf\rx-elf\rx-elf\include\c++\8.3.0.202004-gnurx\cmath ****     typename __gnu_cxx::__enable_if<__is_integer<_Tp>::__value,
 195:c:\gcc for renesas rx 8.3.0.202004-gnurx-elf\rx-elf\rx-elf\rx-elf\include\c++\8.3.0.202004-gnurx\cmath ****                                     double>::__type
 196:c:\gcc for renesas rx 8.3.0.202004-gnurx-elf\rx-elf\rx-elf\rx-elf\include\c++\8.3.0.202004-gnurx\cmath ****     cos(_Tp __x)
 197:c:\gcc for renesas rx 8.3.0.202004-gnurx-elf\rx-elf\rx-elf\rx-elf\include\c++\8.3.0.202004-gnurx\cmath ****     { return __builtin_cos(__x); }
 198:c:\gcc for renesas rx 8.3.0.202004-gnurx-elf\rx-elf\rx-elf\rx-elf\include\c++\8.3.0.202004-gnurx\cmath **** 
 199:c:\gcc for renesas rx 8.3.0.202004-gnurx-elf\rx-elf\rx-elf\rx-elf\include\c++\8.3.0.202004-gnurx\cmath ****   using ::cosh;
 200:c:\gcc for renesas rx 8.3.0.202004-gnurx-elf\rx-elf\rx-elf\rx-elf\include\c++\8.3.0.202004-gnurx\cmath **** 
 201:c:\gcc for renesas rx 8.3.0.202004-gnurx-elf\rx-elf\rx-elf\rx-elf\include\c++\8.3.0.202004-gnurx\cmath **** #ifndef __CORRECT_ISO_CPP_MATH_H_PROTO
 202:c:\gcc for renesas rx 8.3.0.202004-gnurx-elf\rx-elf\rx-elf\rx-elf\include\c++\8.3.0.202004-gnurx\cmath ****   inline _GLIBCXX_CONSTEXPR float
 203:c:\gcc for renesas rx 8.3.0.202004-gnurx-elf\rx-elf\rx-elf\rx-elf\include\c++\8.3.0.202004-gnurx\cmath ****   cosh(float __x)
 204:c:\gcc for renesas rx 8.3.0.202004-gnurx-elf\rx-elf\rx-elf\rx-elf\include\c++\8.3.0.202004-gnurx\cmath ****   { return __builtin_coshf(__x); }
 205:c:\gcc for renesas rx 8.3.0.202004-gnurx-elf\rx-elf\rx-elf\rx-elf\include\c++\8.3.0.202004-gnurx\cmath **** 
 206:c:\gcc for renesas rx 8.3.0.202004-gnurx-elf\rx-elf\rx-elf\rx-elf\include\c++\8.3.0.202004-gnurx\cmath ****   inline _GLIBCXX_CONSTEXPR long double
 207:c:\gcc for renesas rx 8.3.0.202004-gnurx-elf\rx-elf\rx-elf\rx-elf\include\c++\8.3.0.202004-gnurx\cmath ****   cosh(long double __x)
 208:c:\gcc for renesas rx 8.3.0.202004-gnurx-elf\rx-elf\rx-elf\rx-elf\include\c++\8.3.0.202004-gnurx\cmath ****   { return __builtin_coshl(__x); }
 209:c:\gcc for renesas rx 8.3.0.202004-gnurx-elf\rx-elf\rx-elf\rx-elf\include\c++\8.3.0.202004-gnurx\cmath **** #endif
 210:c:\gcc for renesas rx 8.3.0.202004-gnurx-elf\rx-elf\rx-elf\rx-elf\include\c++\8.3.0.202004-gnurx\cmath **** 
 211:c:\gcc for renesas rx 8.3.0.202004-gnurx-elf\rx-elf\rx-elf\rx-elf\include\c++\8.3.0.202004-gnurx\cmath ****   template<typename _Tp>
 212:c:\gcc for renesas rx 8.3.0.202004-gnurx-elf\rx-elf\rx-elf\rx-elf\include\c++\8.3.0.202004-gnurx\cmath ****     inline _GLIBCXX_CONSTEXPR
 213:c:\gcc for renesas rx 8.3.0.202004-gnurx-elf\rx-elf\rx-elf\rx-elf\include\c++\8.3.0.202004-gnurx\cmath ****     typename __gnu_cxx::__enable_if<__is_integer<_Tp>::__value,
 214:c:\gcc for renesas rx 8.3.0.202004-gnurx-elf\rx-elf\rx-elf\rx-elf\include\c++\8.3.0.202004-gnurx\cmath ****                                     double>::__type
 215:c:\gcc for renesas rx 8.3.0.202004-gnurx-elf\rx-elf\rx-elf\rx-elf\include\c++\8.3.0.202004-gnurx\cmath ****     cosh(_Tp __x)
 216:c:\gcc for renesas rx 8.3.0.202004-gnurx-elf\rx-elf\rx-elf\rx-elf\include\c++\8.3.0.202004-gnurx\cmath ****     { return __builtin_cosh(__x); }
 217:c:\gcc for renesas rx 8.3.0.202004-gnurx-elf\rx-elf\rx-elf\rx-elf\include\c++\8.3.0.202004-gnurx\cmath **** 
 218:c:\gcc for renesas rx 8.3.0.202004-gnurx-elf\rx-elf\rx-elf\rx-elf\include\c++\8.3.0.202004-gnurx\cmath ****   using ::exp;
 219:c:\gcc for renesas rx 8.3.0.202004-gnurx-elf\rx-elf\rx-elf\rx-elf\include\c++\8.3.0.202004-gnurx\cmath **** 
 220:c:\gcc for renesas rx 8.3.0.202004-gnurx-elf\rx-elf\rx-elf\rx-elf\include\c++\8.3.0.202004-gnurx\cmath **** #ifndef __CORRECT_ISO_CPP_MATH_H_PROTO
 221:c:\gcc for renesas rx 8.3.0.202004-gnurx-elf\rx-elf\rx-elf\rx-elf\include\c++\8.3.0.202004-gnurx\cmath ****   inline _GLIBCXX_CONSTEXPR float
 222:c:\gcc for renesas rx 8.3.0.202004-gnurx-elf\rx-elf\rx-elf\rx-elf\include\c++\8.3.0.202004-gnurx\cmath ****   exp(float __x)
 223:c:\gcc for renesas rx 8.3.0.202004-gnurx-elf\rx-elf\rx-elf\rx-elf\include\c++\8.3.0.202004-gnurx\cmath ****   { return __builtin_expf(__x); }
 224:c:\gcc for renesas rx 8.3.0.202004-gnurx-elf\rx-elf\rx-elf\rx-elf\include\c++\8.3.0.202004-gnurx\cmath **** 
 225:c:\gcc for renesas rx 8.3.0.202004-gnurx-elf\rx-elf\rx-elf\rx-elf\include\c++\8.3.0.202004-gnurx\cmath ****   inline _GLIBCXX_CONSTEXPR long double
 226:c:\gcc for renesas rx 8.3.0.202004-gnurx-elf\rx-elf\rx-elf\rx-elf\include\c++\8.3.0.202004-gnurx\cmath ****   exp(long double __x)
 227:c:\gcc for renesas rx 8.3.0.202004-gnurx-elf\rx-elf\rx-elf\rx-elf\include\c++\8.3.0.202004-gnurx\cmath ****   { return __builtin_expl(__x); }
 228:c:\gcc for renesas rx 8.3.0.202004-gnurx-elf\rx-elf\rx-elf\rx-elf\include\c++\8.3.0.202004-gnurx\cmath **** #endif
 229:c:\gcc for renesas rx 8.3.0.202004-gnurx-elf\rx-elf\rx-elf\rx-elf\include\c++\8.3.0.202004-gnurx\cmath **** 
 230:c:\gcc for renesas rx 8.3.0.202004-gnurx-elf\rx-elf\rx-elf\rx-elf\include\c++\8.3.0.202004-gnurx\cmath ****   template<typename _Tp>
 231:c:\gcc for renesas rx 8.3.0.202004-gnurx-elf\rx-elf\rx-elf\rx-elf\include\c++\8.3.0.202004-gnurx\cmath ****     inline _GLIBCXX_CONSTEXPR
 232:c:\gcc for renesas rx 8.3.0.202004-gnurx-elf\rx-elf\rx-elf\rx-elf\include\c++\8.3.0.202004-gnurx\cmath ****     typename __gnu_cxx::__enable_if<__is_integer<_Tp>::__value,
 233:c:\gcc for renesas rx 8.3.0.202004-gnurx-elf\rx-elf\rx-elf\rx-elf\include\c++\8.3.0.202004-gnurx\cmath ****                                     double>::__type
 234:c:\gcc for renesas rx 8.3.0.202004-gnurx-elf\rx-elf\rx-elf\rx-elf\include\c++\8.3.0.202004-gnurx\cmath ****     exp(_Tp __x)
 235:c:\gcc for renesas rx 8.3.0.202004-gnurx-elf\rx-elf\rx-elf\rx-elf\include\c++\8.3.0.202004-gnurx\cmath ****     { return __builtin_exp(__x); }
 236:c:\gcc for renesas rx 8.3.0.202004-gnurx-elf\rx-elf\rx-elf\rx-elf\include\c++\8.3.0.202004-gnurx\cmath **** 
 237:c:\gcc for renesas rx 8.3.0.202004-gnurx-elf\rx-elf\rx-elf\rx-elf\include\c++\8.3.0.202004-gnurx\cmath ****   using ::fabs;
 238:c:\gcc for renesas rx 8.3.0.202004-gnurx-elf\rx-elf\rx-elf\rx-elf\include\c++\8.3.0.202004-gnurx\cmath **** 
 239:c:\gcc for renesas rx 8.3.0.202004-gnurx-elf\rx-elf\rx-elf\rx-elf\include\c++\8.3.0.202004-gnurx\cmath **** #ifndef __CORRECT_ISO_CPP_MATH_H_PROTO
 240:c:\gcc for renesas rx 8.3.0.202004-gnurx-elf\rx-elf\rx-elf\rx-elf\include\c++\8.3.0.202004-gnurx\cmath ****   inline _GLIBCXX_CONSTEXPR float
 241:c:\gcc for renesas rx 8.3.0.202004-gnurx-elf\rx-elf\rx-elf\rx-elf\include\c++\8.3.0.202004-gnurx\cmath ****   fabs(float __x)
 242:c:\gcc for renesas rx 8.3.0.202004-gnurx-elf\rx-elf\rx-elf\rx-elf\include\c++\8.3.0.202004-gnurx\cmath ****   { return __builtin_fabsf(__x); }
 243:c:\gcc for renesas rx 8.3.0.202004-gnurx-elf\rx-elf\rx-elf\rx-elf\include\c++\8.3.0.202004-gnurx\cmath **** 
 244:c:\gcc for renesas rx 8.3.0.202004-gnurx-elf\rx-elf\rx-elf\rx-elf\include\c++\8.3.0.202004-gnurx\cmath ****   inline _GLIBCXX_CONSTEXPR long double
 245:c:\gcc for renesas rx 8.3.0.202004-gnurx-elf\rx-elf\rx-elf\rx-elf\include\c++\8.3.0.202004-gnurx\cmath ****   fabs(long double __x)
 246:c:\gcc for renesas rx 8.3.0.202004-gnurx-elf\rx-elf\rx-elf\rx-elf\include\c++\8.3.0.202004-gnurx\cmath ****   { return __builtin_fabsl(__x); }
 247:c:\gcc for renesas rx 8.3.0.202004-gnurx-elf\rx-elf\rx-elf\rx-elf\include\c++\8.3.0.202004-gnurx\cmath **** #endif
 248:c:\gcc for renesas rx 8.3.0.202004-gnurx-elf\rx-elf\rx-elf\rx-elf\include\c++\8.3.0.202004-gnurx\cmath **** 
 249:c:\gcc for renesas rx 8.3.0.202004-gnurx-elf\rx-elf\rx-elf\rx-elf\include\c++\8.3.0.202004-gnurx\cmath ****   template<typename _Tp>
 250:c:\gcc for renesas rx 8.3.0.202004-gnurx-elf\rx-elf\rx-elf\rx-elf\include\c++\8.3.0.202004-gnurx\cmath ****     inline _GLIBCXX_CONSTEXPR
 251:c:\gcc for renesas rx 8.3.0.202004-gnurx-elf\rx-elf\rx-elf\rx-elf\include\c++\8.3.0.202004-gnurx\cmath ****     typename __gnu_cxx::__enable_if<__is_integer<_Tp>::__value,
 252:c:\gcc for renesas rx 8.3.0.202004-gnurx-elf\rx-elf\rx-elf\rx-elf\include\c++\8.3.0.202004-gnurx\cmath ****                                     double>::__type
 253:c:\gcc for renesas rx 8.3.0.202004-gnurx-elf\rx-elf\rx-elf\rx-elf\include\c++\8.3.0.202004-gnurx\cmath ****     fabs(_Tp __x)
 254:c:\gcc for renesas rx 8.3.0.202004-gnurx-elf\rx-elf\rx-elf\rx-elf\include\c++\8.3.0.202004-gnurx\cmath ****     { return __builtin_fabs(__x); }
 255:c:\gcc for renesas rx 8.3.0.202004-gnurx-elf\rx-elf\rx-elf\rx-elf\include\c++\8.3.0.202004-gnurx\cmath **** 
 256:c:\gcc for renesas rx 8.3.0.202004-gnurx-elf\rx-elf\rx-elf\rx-elf\include\c++\8.3.0.202004-gnurx\cmath ****   using ::floor;
 257:c:\gcc for renesas rx 8.3.0.202004-gnurx-elf\rx-elf\rx-elf\rx-elf\include\c++\8.3.0.202004-gnurx\cmath **** 
 258:c:\gcc for renesas rx 8.3.0.202004-gnurx-elf\rx-elf\rx-elf\rx-elf\include\c++\8.3.0.202004-gnurx\cmath **** #ifndef __CORRECT_ISO_CPP_MATH_H_PROTO
 259:c:\gcc for renesas rx 8.3.0.202004-gnurx-elf\rx-elf\rx-elf\rx-elf\include\c++\8.3.0.202004-gnurx\cmath ****   inline _GLIBCXX_CONSTEXPR float
 260:c:\gcc for renesas rx 8.3.0.202004-gnurx-elf\rx-elf\rx-elf\rx-elf\include\c++\8.3.0.202004-gnurx\cmath ****   floor(float __x)
 261:c:\gcc for renesas rx 8.3.0.202004-gnurx-elf\rx-elf\rx-elf\rx-elf\include\c++\8.3.0.202004-gnurx\cmath ****   { return __builtin_floorf(__x); }
 262:c:\gcc for renesas rx 8.3.0.202004-gnurx-elf\rx-elf\rx-elf\rx-elf\include\c++\8.3.0.202004-gnurx\cmath **** 
 263:c:\gcc for renesas rx 8.3.0.202004-gnurx-elf\rx-elf\rx-elf\rx-elf\include\c++\8.3.0.202004-gnurx\cmath ****   inline _GLIBCXX_CONSTEXPR long double
 264:c:\gcc for renesas rx 8.3.0.202004-gnurx-elf\rx-elf\rx-elf\rx-elf\include\c++\8.3.0.202004-gnurx\cmath ****   floor(long double __x)
 265:c:\gcc for renesas rx 8.3.0.202004-gnurx-elf\rx-elf\rx-elf\rx-elf\include\c++\8.3.0.202004-gnurx\cmath ****   { return __builtin_floorl(__x); }
 266:c:\gcc for renesas rx 8.3.0.202004-gnurx-elf\rx-elf\rx-elf\rx-elf\include\c++\8.3.0.202004-gnurx\cmath **** #endif
 267:c:\gcc for renesas rx 8.3.0.202004-gnurx-elf\rx-elf\rx-elf\rx-elf\include\c++\8.3.0.202004-gnurx\cmath **** 
 268:c:\gcc for renesas rx 8.3.0.202004-gnurx-elf\rx-elf\rx-elf\rx-elf\include\c++\8.3.0.202004-gnurx\cmath ****   template<typename _Tp>
 269:c:\gcc for renesas rx 8.3.0.202004-gnurx-elf\rx-elf\rx-elf\rx-elf\include\c++\8.3.0.202004-gnurx\cmath ****     inline _GLIBCXX_CONSTEXPR
 270:c:\gcc for renesas rx 8.3.0.202004-gnurx-elf\rx-elf\rx-elf\rx-elf\include\c++\8.3.0.202004-gnurx\cmath ****     typename __gnu_cxx::__enable_if<__is_integer<_Tp>::__value,
 271:c:\gcc for renesas rx 8.3.0.202004-gnurx-elf\rx-elf\rx-elf\rx-elf\include\c++\8.3.0.202004-gnurx\cmath ****                                     double>::__type
 272:c:\gcc for renesas rx 8.3.0.202004-gnurx-elf\rx-elf\rx-elf\rx-elf\include\c++\8.3.0.202004-gnurx\cmath ****     floor(_Tp __x)
 273:c:\gcc for renesas rx 8.3.0.202004-gnurx-elf\rx-elf\rx-elf\rx-elf\include\c++\8.3.0.202004-gnurx\cmath ****     { return __builtin_floor(__x); }
 274:c:\gcc for renesas rx 8.3.0.202004-gnurx-elf\rx-elf\rx-elf\rx-elf\include\c++\8.3.0.202004-gnurx\cmath **** 
 275:c:\gcc for renesas rx 8.3.0.202004-gnurx-elf\rx-elf\rx-elf\rx-elf\include\c++\8.3.0.202004-gnurx\cmath ****   using ::fmod;
 276:c:\gcc for renesas rx 8.3.0.202004-gnurx-elf\rx-elf\rx-elf\rx-elf\include\c++\8.3.0.202004-gnurx\cmath **** 
 277:c:\gcc for renesas rx 8.3.0.202004-gnurx-elf\rx-elf\rx-elf\rx-elf\include\c++\8.3.0.202004-gnurx\cmath **** #ifndef __CORRECT_ISO_CPP_MATH_H_PROTO
 278:c:\gcc for renesas rx 8.3.0.202004-gnurx-elf\rx-elf\rx-elf\rx-elf\include\c++\8.3.0.202004-gnurx\cmath ****   inline _GLIBCXX_CONSTEXPR float
 279:c:\gcc for renesas rx 8.3.0.202004-gnurx-elf\rx-elf\rx-elf\rx-elf\include\c++\8.3.0.202004-gnurx\cmath ****   fmod(float __x, float __y)
 280:c:\gcc for renesas rx 8.3.0.202004-gnurx-elf\rx-elf\rx-elf\rx-elf\include\c++\8.3.0.202004-gnurx\cmath ****   { return __builtin_fmodf(__x, __y); }
 281:c:\gcc for renesas rx 8.3.0.202004-gnurx-elf\rx-elf\rx-elf\rx-elf\include\c++\8.3.0.202004-gnurx\cmath **** 
 282:c:\gcc for renesas rx 8.3.0.202004-gnurx-elf\rx-elf\rx-elf\rx-elf\include\c++\8.3.0.202004-gnurx\cmath ****   inline _GLIBCXX_CONSTEXPR long double
 283:c:\gcc for renesas rx 8.3.0.202004-gnurx-elf\rx-elf\rx-elf\rx-elf\include\c++\8.3.0.202004-gnurx\cmath ****   fmod(long double __x, long double __y)
 284:c:\gcc for renesas rx 8.3.0.202004-gnurx-elf\rx-elf\rx-elf\rx-elf\include\c++\8.3.0.202004-gnurx\cmath ****   { return __builtin_fmodl(__x, __y); }
 285:c:\gcc for renesas rx 8.3.0.202004-gnurx-elf\rx-elf\rx-elf\rx-elf\include\c++\8.3.0.202004-gnurx\cmath **** #endif
 286:c:\gcc for renesas rx 8.3.0.202004-gnurx-elf\rx-elf\rx-elf\rx-elf\include\c++\8.3.0.202004-gnurx\cmath **** 
 287:c:\gcc for renesas rx 8.3.0.202004-gnurx-elf\rx-elf\rx-elf\rx-elf\include\c++\8.3.0.202004-gnurx\cmath ****   template<typename _Tp, typename _Up>
 288:c:\gcc for renesas rx 8.3.0.202004-gnurx-elf\rx-elf\rx-elf\rx-elf\include\c++\8.3.0.202004-gnurx\cmath ****     inline _GLIBCXX_CONSTEXPR
 289:c:\gcc for renesas rx 8.3.0.202004-gnurx-elf\rx-elf\rx-elf\rx-elf\include\c++\8.3.0.202004-gnurx\cmath ****     typename __gnu_cxx::__promote_2<_Tp, _Up>::__type
 290:c:\gcc for renesas rx 8.3.0.202004-gnurx-elf\rx-elf\rx-elf\rx-elf\include\c++\8.3.0.202004-gnurx\cmath ****     fmod(_Tp __x, _Up __y)
 291:c:\gcc for renesas rx 8.3.0.202004-gnurx-elf\rx-elf\rx-elf\rx-elf\include\c++\8.3.0.202004-gnurx\cmath ****     {
 292:c:\gcc for renesas rx 8.3.0.202004-gnurx-elf\rx-elf\rx-elf\rx-elf\include\c++\8.3.0.202004-gnurx\cmath ****       typedef typename __gnu_cxx::__promote_2<_Tp, _Up>::__type __type;
 293:c:\gcc for renesas rx 8.3.0.202004-gnurx-elf\rx-elf\rx-elf\rx-elf\include\c++\8.3.0.202004-gnurx\cmath ****       return fmod(__type(__x), __type(__y));
 294:c:\gcc for renesas rx 8.3.0.202004-gnurx-elf\rx-elf\rx-elf\rx-elf\include\c++\8.3.0.202004-gnurx\cmath ****     }
 295:c:\gcc for renesas rx 8.3.0.202004-gnurx-elf\rx-elf\rx-elf\rx-elf\include\c++\8.3.0.202004-gnurx\cmath **** 
 296:c:\gcc for renesas rx 8.3.0.202004-gnurx-elf\rx-elf\rx-elf\rx-elf\include\c++\8.3.0.202004-gnurx\cmath ****   using ::frexp;
 297:c:\gcc for renesas rx 8.3.0.202004-gnurx-elf\rx-elf\rx-elf\rx-elf\include\c++\8.3.0.202004-gnurx\cmath **** 
 298:c:\gcc for renesas rx 8.3.0.202004-gnurx-elf\rx-elf\rx-elf\rx-elf\include\c++\8.3.0.202004-gnurx\cmath **** #ifndef __CORRECT_ISO_CPP_MATH_H_PROTO
 299:c:\gcc for renesas rx 8.3.0.202004-gnurx-elf\rx-elf\rx-elf\rx-elf\include\c++\8.3.0.202004-gnurx\cmath ****   inline float
 300:c:\gcc for renesas rx 8.3.0.202004-gnurx-elf\rx-elf\rx-elf\rx-elf\include\c++\8.3.0.202004-gnurx\cmath ****   frexp(float __x, int* __exp)
 301:c:\gcc for renesas rx 8.3.0.202004-gnurx-elf\rx-elf\rx-elf\rx-elf\include\c++\8.3.0.202004-gnurx\cmath ****   { return __builtin_frexpf(__x, __exp); }
 302:c:\gcc for renesas rx 8.3.0.202004-gnurx-elf\rx-elf\rx-elf\rx-elf\include\c++\8.3.0.202004-gnurx\cmath **** 
 303:c:\gcc for renesas rx 8.3.0.202004-gnurx-elf\rx-elf\rx-elf\rx-elf\include\c++\8.3.0.202004-gnurx\cmath ****   inline long double
 304:c:\gcc for renesas rx 8.3.0.202004-gnurx-elf\rx-elf\rx-elf\rx-elf\include\c++\8.3.0.202004-gnurx\cmath ****   frexp(long double __x, int* __exp)
 305:c:\gcc for renesas rx 8.3.0.202004-gnurx-elf\rx-elf\rx-elf\rx-elf\include\c++\8.3.0.202004-gnurx\cmath ****   { return __builtin_frexpl(__x, __exp); }
 306:c:\gcc for renesas rx 8.3.0.202004-gnurx-elf\rx-elf\rx-elf\rx-elf\include\c++\8.3.0.202004-gnurx\cmath **** #endif
 307:c:\gcc for renesas rx 8.3.0.202004-gnurx-elf\rx-elf\rx-elf\rx-elf\include\c++\8.3.0.202004-gnurx\cmath **** 
 308:c:\gcc for renesas rx 8.3.0.202004-gnurx-elf\rx-elf\rx-elf\rx-elf\include\c++\8.3.0.202004-gnurx\cmath ****   template<typename _Tp>
 309:c:\gcc for renesas rx 8.3.0.202004-gnurx-elf\rx-elf\rx-elf\rx-elf\include\c++\8.3.0.202004-gnurx\cmath ****     inline _GLIBCXX_CONSTEXPR
 310:c:\gcc for renesas rx 8.3.0.202004-gnurx-elf\rx-elf\rx-elf\rx-elf\include\c++\8.3.0.202004-gnurx\cmath ****     typename __gnu_cxx::__enable_if<__is_integer<_Tp>::__value, 
 311:c:\gcc for renesas rx 8.3.0.202004-gnurx-elf\rx-elf\rx-elf\rx-elf\include\c++\8.3.0.202004-gnurx\cmath ****                                     double>::__type
 312:c:\gcc for renesas rx 8.3.0.202004-gnurx-elf\rx-elf\rx-elf\rx-elf\include\c++\8.3.0.202004-gnurx\cmath ****     frexp(_Tp __x, int* __exp)
 313:c:\gcc for renesas rx 8.3.0.202004-gnurx-elf\rx-elf\rx-elf\rx-elf\include\c++\8.3.0.202004-gnurx\cmath ****     { return __builtin_frexp(__x, __exp); }
 314:c:\gcc for renesas rx 8.3.0.202004-gnurx-elf\rx-elf\rx-elf\rx-elf\include\c++\8.3.0.202004-gnurx\cmath **** 
 315:c:\gcc for renesas rx 8.3.0.202004-gnurx-elf\rx-elf\rx-elf\rx-elf\include\c++\8.3.0.202004-gnurx\cmath ****   using ::ldexp;
 316:c:\gcc for renesas rx 8.3.0.202004-gnurx-elf\rx-elf\rx-elf\rx-elf\include\c++\8.3.0.202004-gnurx\cmath **** 
 317:c:\gcc for renesas rx 8.3.0.202004-gnurx-elf\rx-elf\rx-elf\rx-elf\include\c++\8.3.0.202004-gnurx\cmath **** #ifndef __CORRECT_ISO_CPP_MATH_H_PROTO
 318:c:\gcc for renesas rx 8.3.0.202004-gnurx-elf\rx-elf\rx-elf\rx-elf\include\c++\8.3.0.202004-gnurx\cmath ****   inline _GLIBCXX_CONSTEXPR float
 319:c:\gcc for renesas rx 8.3.0.202004-gnurx-elf\rx-elf\rx-elf\rx-elf\include\c++\8.3.0.202004-gnurx\cmath ****   ldexp(float __x, int __exp)
 320:c:\gcc for renesas rx 8.3.0.202004-gnurx-elf\rx-elf\rx-elf\rx-elf\include\c++\8.3.0.202004-gnurx\cmath ****   { return __builtin_ldexpf(__x, __exp); }
 321:c:\gcc for renesas rx 8.3.0.202004-gnurx-elf\rx-elf\rx-elf\rx-elf\include\c++\8.3.0.202004-gnurx\cmath **** 
 322:c:\gcc for renesas rx 8.3.0.202004-gnurx-elf\rx-elf\rx-elf\rx-elf\include\c++\8.3.0.202004-gnurx\cmath ****   inline _GLIBCXX_CONSTEXPR long double
 323:c:\gcc for renesas rx 8.3.0.202004-gnurx-elf\rx-elf\rx-elf\rx-elf\include\c++\8.3.0.202004-gnurx\cmath ****   ldexp(long double __x, int __exp)
 324:c:\gcc for renesas rx 8.3.0.202004-gnurx-elf\rx-elf\rx-elf\rx-elf\include\c++\8.3.0.202004-gnurx\cmath ****   { return __builtin_ldexpl(__x, __exp); }
 325:c:\gcc for renesas rx 8.3.0.202004-gnurx-elf\rx-elf\rx-elf\rx-elf\include\c++\8.3.0.202004-gnurx\cmath **** #endif
 326:c:\gcc for renesas rx 8.3.0.202004-gnurx-elf\rx-elf\rx-elf\rx-elf\include\c++\8.3.0.202004-gnurx\cmath **** 
 327:c:\gcc for renesas rx 8.3.0.202004-gnurx-elf\rx-elf\rx-elf\rx-elf\include\c++\8.3.0.202004-gnurx\cmath ****   template<typename _Tp>
 328:c:\gcc for renesas rx 8.3.0.202004-gnurx-elf\rx-elf\rx-elf\rx-elf\include\c++\8.3.0.202004-gnurx\cmath ****     inline _GLIBCXX_CONSTEXPR
 329:c:\gcc for renesas rx 8.3.0.202004-gnurx-elf\rx-elf\rx-elf\rx-elf\include\c++\8.3.0.202004-gnurx\cmath ****     typename __gnu_cxx::__enable_if<__is_integer<_Tp>::__value, 
 330:c:\gcc for renesas rx 8.3.0.202004-gnurx-elf\rx-elf\rx-elf\rx-elf\include\c++\8.3.0.202004-gnurx\cmath ****                                     double>::__type
 331:c:\gcc for renesas rx 8.3.0.202004-gnurx-elf\rx-elf\rx-elf\rx-elf\include\c++\8.3.0.202004-gnurx\cmath ****     ldexp(_Tp __x, int __exp)
 332:c:\gcc for renesas rx 8.3.0.202004-gnurx-elf\rx-elf\rx-elf\rx-elf\include\c++\8.3.0.202004-gnurx\cmath ****     { return __builtin_ldexp(__x, __exp); }
 333:c:\gcc for renesas rx 8.3.0.202004-gnurx-elf\rx-elf\rx-elf\rx-elf\include\c++\8.3.0.202004-gnurx\cmath **** 
 334:c:\gcc for renesas rx 8.3.0.202004-gnurx-elf\rx-elf\rx-elf\rx-elf\include\c++\8.3.0.202004-gnurx\cmath ****   using ::log;
 335:c:\gcc for renesas rx 8.3.0.202004-gnurx-elf\rx-elf\rx-elf\rx-elf\include\c++\8.3.0.202004-gnurx\cmath **** 
 336:c:\gcc for renesas rx 8.3.0.202004-gnurx-elf\rx-elf\rx-elf\rx-elf\include\c++\8.3.0.202004-gnurx\cmath **** #ifndef __CORRECT_ISO_CPP_MATH_H_PROTO
 337:c:\gcc for renesas rx 8.3.0.202004-gnurx-elf\rx-elf\rx-elf\rx-elf\include\c++\8.3.0.202004-gnurx\cmath ****   inline _GLIBCXX_CONSTEXPR float
 338:c:\gcc for renesas rx 8.3.0.202004-gnurx-elf\rx-elf\rx-elf\rx-elf\include\c++\8.3.0.202004-gnurx\cmath ****   log(float __x)
 339:c:\gcc for renesas rx 8.3.0.202004-gnurx-elf\rx-elf\rx-elf\rx-elf\include\c++\8.3.0.202004-gnurx\cmath ****   { return __builtin_logf(__x); }
 340:c:\gcc for renesas rx 8.3.0.202004-gnurx-elf\rx-elf\rx-elf\rx-elf\include\c++\8.3.0.202004-gnurx\cmath **** 
 341:c:\gcc for renesas rx 8.3.0.202004-gnurx-elf\rx-elf\rx-elf\rx-elf\include\c++\8.3.0.202004-gnurx\cmath ****   inline _GLIBCXX_CONSTEXPR long double
 342:c:\gcc for renesas rx 8.3.0.202004-gnurx-elf\rx-elf\rx-elf\rx-elf\include\c++\8.3.0.202004-gnurx\cmath ****   log(long double __x)
 343:c:\gcc for renesas rx 8.3.0.202004-gnurx-elf\rx-elf\rx-elf\rx-elf\include\c++\8.3.0.202004-gnurx\cmath ****   { return __builtin_logl(__x); }
 344:c:\gcc for renesas rx 8.3.0.202004-gnurx-elf\rx-elf\rx-elf\rx-elf\include\c++\8.3.0.202004-gnurx\cmath **** #endif
 345:c:\gcc for renesas rx 8.3.0.202004-gnurx-elf\rx-elf\rx-elf\rx-elf\include\c++\8.3.0.202004-gnurx\cmath **** 
 346:c:\gcc for renesas rx 8.3.0.202004-gnurx-elf\rx-elf\rx-elf\rx-elf\include\c++\8.3.0.202004-gnurx\cmath ****   template<typename _Tp>
 347:c:\gcc for renesas rx 8.3.0.202004-gnurx-elf\rx-elf\rx-elf\rx-elf\include\c++\8.3.0.202004-gnurx\cmath ****     inline _GLIBCXX_CONSTEXPR
 348:c:\gcc for renesas rx 8.3.0.202004-gnurx-elf\rx-elf\rx-elf\rx-elf\include\c++\8.3.0.202004-gnurx\cmath ****     typename __gnu_cxx::__enable_if<__is_integer<_Tp>::__value, 
 349:c:\gcc for renesas rx 8.3.0.202004-gnurx-elf\rx-elf\rx-elf\rx-elf\include\c++\8.3.0.202004-gnurx\cmath ****                                     double>::__type
 350:c:\gcc for renesas rx 8.3.0.202004-gnurx-elf\rx-elf\rx-elf\rx-elf\include\c++\8.3.0.202004-gnurx\cmath ****     log(_Tp __x)
 351:c:\gcc for renesas rx 8.3.0.202004-gnurx-elf\rx-elf\rx-elf\rx-elf\include\c++\8.3.0.202004-gnurx\cmath ****     { return __builtin_log(__x); }
 352:c:\gcc for renesas rx 8.3.0.202004-gnurx-elf\rx-elf\rx-elf\rx-elf\include\c++\8.3.0.202004-gnurx\cmath **** 
 353:c:\gcc for renesas rx 8.3.0.202004-gnurx-elf\rx-elf\rx-elf\rx-elf\include\c++\8.3.0.202004-gnurx\cmath ****   using ::log10;
 354:c:\gcc for renesas rx 8.3.0.202004-gnurx-elf\rx-elf\rx-elf\rx-elf\include\c++\8.3.0.202004-gnurx\cmath **** 
 355:c:\gcc for renesas rx 8.3.0.202004-gnurx-elf\rx-elf\rx-elf\rx-elf\include\c++\8.3.0.202004-gnurx\cmath **** #ifndef __CORRECT_ISO_CPP_MATH_H_PROTO
 356:c:\gcc for renesas rx 8.3.0.202004-gnurx-elf\rx-elf\rx-elf\rx-elf\include\c++\8.3.0.202004-gnurx\cmath ****   inline _GLIBCXX_CONSTEXPR float
 357:c:\gcc for renesas rx 8.3.0.202004-gnurx-elf\rx-elf\rx-elf\rx-elf\include\c++\8.3.0.202004-gnurx\cmath ****   log10(float __x)
 358:c:\gcc for renesas rx 8.3.0.202004-gnurx-elf\rx-elf\rx-elf\rx-elf\include\c++\8.3.0.202004-gnurx\cmath ****   { return __builtin_log10f(__x); }
 359:c:\gcc for renesas rx 8.3.0.202004-gnurx-elf\rx-elf\rx-elf\rx-elf\include\c++\8.3.0.202004-gnurx\cmath **** 
 360:c:\gcc for renesas rx 8.3.0.202004-gnurx-elf\rx-elf\rx-elf\rx-elf\include\c++\8.3.0.202004-gnurx\cmath ****   inline _GLIBCXX_CONSTEXPR long double
 361:c:\gcc for renesas rx 8.3.0.202004-gnurx-elf\rx-elf\rx-elf\rx-elf\include\c++\8.3.0.202004-gnurx\cmath ****   log10(long double __x)
 362:c:\gcc for renesas rx 8.3.0.202004-gnurx-elf\rx-elf\rx-elf\rx-elf\include\c++\8.3.0.202004-gnurx\cmath ****   { return __builtin_log10l(__x); }
 363:c:\gcc for renesas rx 8.3.0.202004-gnurx-elf\rx-elf\rx-elf\rx-elf\include\c++\8.3.0.202004-gnurx\cmath **** #endif
 364:c:\gcc for renesas rx 8.3.0.202004-gnurx-elf\rx-elf\rx-elf\rx-elf\include\c++\8.3.0.202004-gnurx\cmath **** 
 365:c:\gcc for renesas rx 8.3.0.202004-gnurx-elf\rx-elf\rx-elf\rx-elf\include\c++\8.3.0.202004-gnurx\cmath ****   template<typename _Tp>
 366:c:\gcc for renesas rx 8.3.0.202004-gnurx-elf\rx-elf\rx-elf\rx-elf\include\c++\8.3.0.202004-gnurx\cmath ****     inline _GLIBCXX_CONSTEXPR
 367:c:\gcc for renesas rx 8.3.0.202004-gnurx-elf\rx-elf\rx-elf\rx-elf\include\c++\8.3.0.202004-gnurx\cmath ****     typename __gnu_cxx::__enable_if<__is_integer<_Tp>::__value,
 368:c:\gcc for renesas rx 8.3.0.202004-gnurx-elf\rx-elf\rx-elf\rx-elf\include\c++\8.3.0.202004-gnurx\cmath ****                                     double>::__type
 369:c:\gcc for renesas rx 8.3.0.202004-gnurx-elf\rx-elf\rx-elf\rx-elf\include\c++\8.3.0.202004-gnurx\cmath ****     log10(_Tp __x)
 370:c:\gcc for renesas rx 8.3.0.202004-gnurx-elf\rx-elf\rx-elf\rx-elf\include\c++\8.3.0.202004-gnurx\cmath ****     { return __builtin_log10(__x); }
 371:c:\gcc for renesas rx 8.3.0.202004-gnurx-elf\rx-elf\rx-elf\rx-elf\include\c++\8.3.0.202004-gnurx\cmath **** 
 372:c:\gcc for renesas rx 8.3.0.202004-gnurx-elf\rx-elf\rx-elf\rx-elf\include\c++\8.3.0.202004-gnurx\cmath ****   using ::modf;
 373:c:\gcc for renesas rx 8.3.0.202004-gnurx-elf\rx-elf\rx-elf\rx-elf\include\c++\8.3.0.202004-gnurx\cmath **** 
 374:c:\gcc for renesas rx 8.3.0.202004-gnurx-elf\rx-elf\rx-elf\rx-elf\include\c++\8.3.0.202004-gnurx\cmath **** #ifndef __CORRECT_ISO_CPP_MATH_H_PROTO
 375:c:\gcc for renesas rx 8.3.0.202004-gnurx-elf\rx-elf\rx-elf\rx-elf\include\c++\8.3.0.202004-gnurx\cmath ****   inline float
 376:c:\gcc for renesas rx 8.3.0.202004-gnurx-elf\rx-elf\rx-elf\rx-elf\include\c++\8.3.0.202004-gnurx\cmath ****   modf(float __x, float* __iptr)
 377:c:\gcc for renesas rx 8.3.0.202004-gnurx-elf\rx-elf\rx-elf\rx-elf\include\c++\8.3.0.202004-gnurx\cmath ****   { return __builtin_modff(__x, __iptr); }
 378:c:\gcc for renesas rx 8.3.0.202004-gnurx-elf\rx-elf\rx-elf\rx-elf\include\c++\8.3.0.202004-gnurx\cmath **** 
 379:c:\gcc for renesas rx 8.3.0.202004-gnurx-elf\rx-elf\rx-elf\rx-elf\include\c++\8.3.0.202004-gnurx\cmath ****   inline long double
 380:c:\gcc for renesas rx 8.3.0.202004-gnurx-elf\rx-elf\rx-elf\rx-elf\include\c++\8.3.0.202004-gnurx\cmath ****   modf(long double __x, long double* __iptr)
 381:c:\gcc for renesas rx 8.3.0.202004-gnurx-elf\rx-elf\rx-elf\rx-elf\include\c++\8.3.0.202004-gnurx\cmath ****   { return __builtin_modfl(__x, __iptr); }
 382:c:\gcc for renesas rx 8.3.0.202004-gnurx-elf\rx-elf\rx-elf\rx-elf\include\c++\8.3.0.202004-gnurx\cmath **** #endif
 383:c:\gcc for renesas rx 8.3.0.202004-gnurx-elf\rx-elf\rx-elf\rx-elf\include\c++\8.3.0.202004-gnurx\cmath **** 
 384:c:\gcc for renesas rx 8.3.0.202004-gnurx-elf\rx-elf\rx-elf\rx-elf\include\c++\8.3.0.202004-gnurx\cmath ****   using ::pow;
 385:c:\gcc for renesas rx 8.3.0.202004-gnurx-elf\rx-elf\rx-elf\rx-elf\include\c++\8.3.0.202004-gnurx\cmath **** 
 386:c:\gcc for renesas rx 8.3.0.202004-gnurx-elf\rx-elf\rx-elf\rx-elf\include\c++\8.3.0.202004-gnurx\cmath **** #ifndef __CORRECT_ISO_CPP_MATH_H_PROTO
 387:c:\gcc for renesas rx 8.3.0.202004-gnurx-elf\rx-elf\rx-elf\rx-elf\include\c++\8.3.0.202004-gnurx\cmath ****   inline _GLIBCXX_CONSTEXPR float
 388:c:\gcc for renesas rx 8.3.0.202004-gnurx-elf\rx-elf\rx-elf\rx-elf\include\c++\8.3.0.202004-gnurx\cmath ****   pow(float __x, float __y)
 389:c:\gcc for renesas rx 8.3.0.202004-gnurx-elf\rx-elf\rx-elf\rx-elf\include\c++\8.3.0.202004-gnurx\cmath ****   { return __builtin_powf(__x, __y); }
 390:c:\gcc for renesas rx 8.3.0.202004-gnurx-elf\rx-elf\rx-elf\rx-elf\include\c++\8.3.0.202004-gnurx\cmath **** 
 391:c:\gcc for renesas rx 8.3.0.202004-gnurx-elf\rx-elf\rx-elf\rx-elf\include\c++\8.3.0.202004-gnurx\cmath ****   inline _GLIBCXX_CONSTEXPR long double
 392:c:\gcc for renesas rx 8.3.0.202004-gnurx-elf\rx-elf\rx-elf\rx-elf\include\c++\8.3.0.202004-gnurx\cmath ****   pow(long double __x, long double __y)
 393:c:\gcc for renesas rx 8.3.0.202004-gnurx-elf\rx-elf\rx-elf\rx-elf\include\c++\8.3.0.202004-gnurx\cmath ****   { return __builtin_powl(__x, __y); }
 394:c:\gcc for renesas rx 8.3.0.202004-gnurx-elf\rx-elf\rx-elf\rx-elf\include\c++\8.3.0.202004-gnurx\cmath **** 
 395:c:\gcc for renesas rx 8.3.0.202004-gnurx-elf\rx-elf\rx-elf\rx-elf\include\c++\8.3.0.202004-gnurx\cmath **** #if __cplusplus < 201103L
 396:c:\gcc for renesas rx 8.3.0.202004-gnurx-elf\rx-elf\rx-elf\rx-elf\include\c++\8.3.0.202004-gnurx\cmath ****   // _GLIBCXX_RESOLVE_LIB_DEFECTS
 397:c:\gcc for renesas rx 8.3.0.202004-gnurx-elf\rx-elf\rx-elf\rx-elf\include\c++\8.3.0.202004-gnurx\cmath ****   // DR 550. What should the return type of pow(float,int) be?
 398:c:\gcc for renesas rx 8.3.0.202004-gnurx-elf\rx-elf\rx-elf\rx-elf\include\c++\8.3.0.202004-gnurx\cmath ****   inline double
 399:c:\gcc for renesas rx 8.3.0.202004-gnurx-elf\rx-elf\rx-elf\rx-elf\include\c++\8.3.0.202004-gnurx\cmath ****   pow(double __x, int __i)
 400:c:\gcc for renesas rx 8.3.0.202004-gnurx-elf\rx-elf\rx-elf\rx-elf\include\c++\8.3.0.202004-gnurx\cmath ****   { return __builtin_powi(__x, __i); }
 401:c:\gcc for renesas rx 8.3.0.202004-gnurx-elf\rx-elf\rx-elf\rx-elf\include\c++\8.3.0.202004-gnurx\cmath **** 
 402:c:\gcc for renesas rx 8.3.0.202004-gnurx-elf\rx-elf\rx-elf\rx-elf\include\c++\8.3.0.202004-gnurx\cmath ****   inline float
 403:c:\gcc for renesas rx 8.3.0.202004-gnurx-elf\rx-elf\rx-elf\rx-elf\include\c++\8.3.0.202004-gnurx\cmath ****   pow(float __x, int __n)
 404:c:\gcc for renesas rx 8.3.0.202004-gnurx-elf\rx-elf\rx-elf\rx-elf\include\c++\8.3.0.202004-gnurx\cmath ****   { return __builtin_powif(__x, __n); }
 405:c:\gcc for renesas rx 8.3.0.202004-gnurx-elf\rx-elf\rx-elf\rx-elf\include\c++\8.3.0.202004-gnurx\cmath **** 
 406:c:\gcc for renesas rx 8.3.0.202004-gnurx-elf\rx-elf\rx-elf\rx-elf\include\c++\8.3.0.202004-gnurx\cmath ****   inline long double
 407:c:\gcc for renesas rx 8.3.0.202004-gnurx-elf\rx-elf\rx-elf\rx-elf\include\c++\8.3.0.202004-gnurx\cmath ****   pow(long double __x, int __n)
 408:c:\gcc for renesas rx 8.3.0.202004-gnurx-elf\rx-elf\rx-elf\rx-elf\include\c++\8.3.0.202004-gnurx\cmath ****   { return __builtin_powil(__x, __n); }
 409:c:\gcc for renesas rx 8.3.0.202004-gnurx-elf\rx-elf\rx-elf\rx-elf\include\c++\8.3.0.202004-gnurx\cmath **** #endif
 410:c:\gcc for renesas rx 8.3.0.202004-gnurx-elf\rx-elf\rx-elf\rx-elf\include\c++\8.3.0.202004-gnurx\cmath **** #endif
 411:c:\gcc for renesas rx 8.3.0.202004-gnurx-elf\rx-elf\rx-elf\rx-elf\include\c++\8.3.0.202004-gnurx\cmath **** 
 412:c:\gcc for renesas rx 8.3.0.202004-gnurx-elf\rx-elf\rx-elf\rx-elf\include\c++\8.3.0.202004-gnurx\cmath ****   template<typename _Tp, typename _Up>
 413:c:\gcc for renesas rx 8.3.0.202004-gnurx-elf\rx-elf\rx-elf\rx-elf\include\c++\8.3.0.202004-gnurx\cmath ****     inline _GLIBCXX_CONSTEXPR
 414:c:\gcc for renesas rx 8.3.0.202004-gnurx-elf\rx-elf\rx-elf\rx-elf\include\c++\8.3.0.202004-gnurx\cmath ****     typename __gnu_cxx::__promote_2<_Tp, _Up>::__type
 415:c:\gcc for renesas rx 8.3.0.202004-gnurx-elf\rx-elf\rx-elf\rx-elf\include\c++\8.3.0.202004-gnurx\cmath ****     pow(_Tp __x, _Up __y)
 416:c:\gcc for renesas rx 8.3.0.202004-gnurx-elf\rx-elf\rx-elf\rx-elf\include\c++\8.3.0.202004-gnurx\cmath ****     {
 417:c:\gcc for renesas rx 8.3.0.202004-gnurx-elf\rx-elf\rx-elf\rx-elf\include\c++\8.3.0.202004-gnurx\cmath ****       typedef typename __gnu_cxx::__promote_2<_Tp, _Up>::__type __type;
 418:c:\gcc for renesas rx 8.3.0.202004-gnurx-elf\rx-elf\rx-elf\rx-elf\include\c++\8.3.0.202004-gnurx\cmath ****       return pow(__type(__x), __type(__y));
 419:c:\gcc for renesas rx 8.3.0.202004-gnurx-elf\rx-elf\rx-elf\rx-elf\include\c++\8.3.0.202004-gnurx\cmath ****     }
 420:c:\gcc for renesas rx 8.3.0.202004-gnurx-elf\rx-elf\rx-elf\rx-elf\include\c++\8.3.0.202004-gnurx\cmath **** 
 421:c:\gcc for renesas rx 8.3.0.202004-gnurx-elf\rx-elf\rx-elf\rx-elf\include\c++\8.3.0.202004-gnurx\cmath ****   using ::sin;
 422:c:\gcc for renesas rx 8.3.0.202004-gnurx-elf\rx-elf\rx-elf\rx-elf\include\c++\8.3.0.202004-gnurx\cmath **** 
 423:c:\gcc for renesas rx 8.3.0.202004-gnurx-elf\rx-elf\rx-elf\rx-elf\include\c++\8.3.0.202004-gnurx\cmath **** #ifndef __CORRECT_ISO_CPP_MATH_H_PROTO
 424:c:\gcc for renesas rx 8.3.0.202004-gnurx-elf\rx-elf\rx-elf\rx-elf\include\c++\8.3.0.202004-gnurx\cmath ****   inline _GLIBCXX_CONSTEXPR float
 425:c:\gcc for renesas rx 8.3.0.202004-gnurx-elf\rx-elf\rx-elf\rx-elf\include\c++\8.3.0.202004-gnurx\cmath ****   sin(float __x)
 426:c:\gcc for renesas rx 8.3.0.202004-gnurx-elf\rx-elf\rx-elf\rx-elf\include\c++\8.3.0.202004-gnurx\cmath ****   { return __builtin_sinf(__x); }
 427:c:\gcc for renesas rx 8.3.0.202004-gnurx-elf\rx-elf\rx-elf\rx-elf\include\c++\8.3.0.202004-gnurx\cmath **** 
 428:c:\gcc for renesas rx 8.3.0.202004-gnurx-elf\rx-elf\rx-elf\rx-elf\include\c++\8.3.0.202004-gnurx\cmath ****   inline _GLIBCXX_CONSTEXPR long double
 429:c:\gcc for renesas rx 8.3.0.202004-gnurx-elf\rx-elf\rx-elf\rx-elf\include\c++\8.3.0.202004-gnurx\cmath ****   sin(long double __x)
 430:c:\gcc for renesas rx 8.3.0.202004-gnurx-elf\rx-elf\rx-elf\rx-elf\include\c++\8.3.0.202004-gnurx\cmath ****   { return __builtin_sinl(__x); }
 431:c:\gcc for renesas rx 8.3.0.202004-gnurx-elf\rx-elf\rx-elf\rx-elf\include\c++\8.3.0.202004-gnurx\cmath **** #endif
 432:c:\gcc for renesas rx 8.3.0.202004-gnurx-elf\rx-elf\rx-elf\rx-elf\include\c++\8.3.0.202004-gnurx\cmath **** 
 433:c:\gcc for renesas rx 8.3.0.202004-gnurx-elf\rx-elf\rx-elf\rx-elf\include\c++\8.3.0.202004-gnurx\cmath ****   template<typename _Tp>
 434:c:\gcc for renesas rx 8.3.0.202004-gnurx-elf\rx-elf\rx-elf\rx-elf\include\c++\8.3.0.202004-gnurx\cmath ****     inline _GLIBCXX_CONSTEXPR
 435:c:\gcc for renesas rx 8.3.0.202004-gnurx-elf\rx-elf\rx-elf\rx-elf\include\c++\8.3.0.202004-gnurx\cmath ****     typename __gnu_cxx::__enable_if<__is_integer<_Tp>::__value, 
 436:c:\gcc for renesas rx 8.3.0.202004-gnurx-elf\rx-elf\rx-elf\rx-elf\include\c++\8.3.0.202004-gnurx\cmath ****                                     double>::__type
 437:c:\gcc for renesas rx 8.3.0.202004-gnurx-elf\rx-elf\rx-elf\rx-elf\include\c++\8.3.0.202004-gnurx\cmath ****     sin(_Tp __x)
 438:c:\gcc for renesas rx 8.3.0.202004-gnurx-elf\rx-elf\rx-elf\rx-elf\include\c++\8.3.0.202004-gnurx\cmath ****     { return __builtin_sin(__x); }
 439:c:\gcc for renesas rx 8.3.0.202004-gnurx-elf\rx-elf\rx-elf\rx-elf\include\c++\8.3.0.202004-gnurx\cmath **** 
 440:c:\gcc for renesas rx 8.3.0.202004-gnurx-elf\rx-elf\rx-elf\rx-elf\include\c++\8.3.0.202004-gnurx\cmath ****   using ::sinh;
 441:c:\gcc for renesas rx 8.3.0.202004-gnurx-elf\rx-elf\rx-elf\rx-elf\include\c++\8.3.0.202004-gnurx\cmath **** 
 442:c:\gcc for renesas rx 8.3.0.202004-gnurx-elf\rx-elf\rx-elf\rx-elf\include\c++\8.3.0.202004-gnurx\cmath **** #ifndef __CORRECT_ISO_CPP_MATH_H_PROTO
 443:c:\gcc for renesas rx 8.3.0.202004-gnurx-elf\rx-elf\rx-elf\rx-elf\include\c++\8.3.0.202004-gnurx\cmath ****   inline _GLIBCXX_CONSTEXPR float
 444:c:\gcc for renesas rx 8.3.0.202004-gnurx-elf\rx-elf\rx-elf\rx-elf\include\c++\8.3.0.202004-gnurx\cmath ****   sinh(float __x)
 445:c:\gcc for renesas rx 8.3.0.202004-gnurx-elf\rx-elf\rx-elf\rx-elf\include\c++\8.3.0.202004-gnurx\cmath ****   { return __builtin_sinhf(__x); }
 446:c:\gcc for renesas rx 8.3.0.202004-gnurx-elf\rx-elf\rx-elf\rx-elf\include\c++\8.3.0.202004-gnurx\cmath **** 
 447:c:\gcc for renesas rx 8.3.0.202004-gnurx-elf\rx-elf\rx-elf\rx-elf\include\c++\8.3.0.202004-gnurx\cmath ****   inline _GLIBCXX_CONSTEXPR long double
 448:c:\gcc for renesas rx 8.3.0.202004-gnurx-elf\rx-elf\rx-elf\rx-elf\include\c++\8.3.0.202004-gnurx\cmath ****   sinh(long double __x)
 449:c:\gcc for renesas rx 8.3.0.202004-gnurx-elf\rx-elf\rx-elf\rx-elf\include\c++\8.3.0.202004-gnurx\cmath ****   { return __builtin_sinhl(__x); }
 450:c:\gcc for renesas rx 8.3.0.202004-gnurx-elf\rx-elf\rx-elf\rx-elf\include\c++\8.3.0.202004-gnurx\cmath **** #endif
 451:c:\gcc for renesas rx 8.3.0.202004-gnurx-elf\rx-elf\rx-elf\rx-elf\include\c++\8.3.0.202004-gnurx\cmath **** 
 452:c:\gcc for renesas rx 8.3.0.202004-gnurx-elf\rx-elf\rx-elf\rx-elf\include\c++\8.3.0.202004-gnurx\cmath ****   template<typename _Tp>
 453:c:\gcc for renesas rx 8.3.0.202004-gnurx-elf\rx-elf\rx-elf\rx-elf\include\c++\8.3.0.202004-gnurx\cmath ****     inline _GLIBCXX_CONSTEXPR
 454:c:\gcc for renesas rx 8.3.0.202004-gnurx-elf\rx-elf\rx-elf\rx-elf\include\c++\8.3.0.202004-gnurx\cmath ****     typename __gnu_cxx::__enable_if<__is_integer<_Tp>::__value, 
 455:c:\gcc for renesas rx 8.3.0.202004-gnurx-elf\rx-elf\rx-elf\rx-elf\include\c++\8.3.0.202004-gnurx\cmath ****                                     double>::__type
 456:c:\gcc for renesas rx 8.3.0.202004-gnurx-elf\rx-elf\rx-elf\rx-elf\include\c++\8.3.0.202004-gnurx\cmath ****     sinh(_Tp __x)
 457:c:\gcc for renesas rx 8.3.0.202004-gnurx-elf\rx-elf\rx-elf\rx-elf\include\c++\8.3.0.202004-gnurx\cmath ****     { return __builtin_sinh(__x); }
 458:c:\gcc for renesas rx 8.3.0.202004-gnurx-elf\rx-elf\rx-elf\rx-elf\include\c++\8.3.0.202004-gnurx\cmath **** 
 459:c:\gcc for renesas rx 8.3.0.202004-gnurx-elf\rx-elf\rx-elf\rx-elf\include\c++\8.3.0.202004-gnurx\cmath ****   using ::sqrt;
 460:c:\gcc for renesas rx 8.3.0.202004-gnurx-elf\rx-elf\rx-elf\rx-elf\include\c++\8.3.0.202004-gnurx\cmath **** 
 461:c:\gcc for renesas rx 8.3.0.202004-gnurx-elf\rx-elf\rx-elf\rx-elf\include\c++\8.3.0.202004-gnurx\cmath **** #ifndef __CORRECT_ISO_CPP_MATH_H_PROTO
 462:c:\gcc for renesas rx 8.3.0.202004-gnurx-elf\rx-elf\rx-elf\rx-elf\include\c++\8.3.0.202004-gnurx\cmath ****   inline _GLIBCXX_CONSTEXPR float
 463:c:\gcc for renesas rx 8.3.0.202004-gnurx-elf\rx-elf\rx-elf\rx-elf\include\c++\8.3.0.202004-gnurx\cmath ****   sqrt(float __x)
 464:c:\gcc for renesas rx 8.3.0.202004-gnurx-elf\rx-elf\rx-elf\rx-elf\include\c++\8.3.0.202004-gnurx\cmath ****   { return __builtin_sqrtf(__x); }
 465:c:\gcc for renesas rx 8.3.0.202004-gnurx-elf\rx-elf\rx-elf\rx-elf\include\c++\8.3.0.202004-gnurx\cmath **** 
 466:c:\gcc for renesas rx 8.3.0.202004-gnurx-elf\rx-elf\rx-elf\rx-elf\include\c++\8.3.0.202004-gnurx\cmath ****   inline _GLIBCXX_CONSTEXPR long double
 467:c:\gcc for renesas rx 8.3.0.202004-gnurx-elf\rx-elf\rx-elf\rx-elf\include\c++\8.3.0.202004-gnurx\cmath ****   sqrt(long double __x)
 468:c:\gcc for renesas rx 8.3.0.202004-gnurx-elf\rx-elf\rx-elf\rx-elf\include\c++\8.3.0.202004-gnurx\cmath ****   { return __builtin_sqrtl(__x); }
 469:c:\gcc for renesas rx 8.3.0.202004-gnurx-elf\rx-elf\rx-elf\rx-elf\include\c++\8.3.0.202004-gnurx\cmath **** #endif
 470:c:\gcc for renesas rx 8.3.0.202004-gnurx-elf\rx-elf\rx-elf\rx-elf\include\c++\8.3.0.202004-gnurx\cmath **** 
 471:c:\gcc for renesas rx 8.3.0.202004-gnurx-elf\rx-elf\rx-elf\rx-elf\include\c++\8.3.0.202004-gnurx\cmath ****   template<typename _Tp>
 472:c:\gcc for renesas rx 8.3.0.202004-gnurx-elf\rx-elf\rx-elf\rx-elf\include\c++\8.3.0.202004-gnurx\cmath ****     inline _GLIBCXX_CONSTEXPR
 473:c:\gcc for renesas rx 8.3.0.202004-gnurx-elf\rx-elf\rx-elf\rx-elf\include\c++\8.3.0.202004-gnurx\cmath ****     typename __gnu_cxx::__enable_if<__is_integer<_Tp>::__value, 
 474:c:\gcc for renesas rx 8.3.0.202004-gnurx-elf\rx-elf\rx-elf\rx-elf\include\c++\8.3.0.202004-gnurx\cmath ****                                     double>::__type
 475:c:\gcc for renesas rx 8.3.0.202004-gnurx-elf\rx-elf\rx-elf\rx-elf\include\c++\8.3.0.202004-gnurx\cmath ****     sqrt(_Tp __x)
 476:c:\gcc for renesas rx 8.3.0.202004-gnurx-elf\rx-elf\rx-elf\rx-elf\include\c++\8.3.0.202004-gnurx\cmath ****     { return __builtin_sqrt(__x); }
 477:c:\gcc for renesas rx 8.3.0.202004-gnurx-elf\rx-elf\rx-elf\rx-elf\include\c++\8.3.0.202004-gnurx\cmath **** 
 478:c:\gcc for renesas rx 8.3.0.202004-gnurx-elf\rx-elf\rx-elf\rx-elf\include\c++\8.3.0.202004-gnurx\cmath ****   using ::tan;
 479:c:\gcc for renesas rx 8.3.0.202004-gnurx-elf\rx-elf\rx-elf\rx-elf\include\c++\8.3.0.202004-gnurx\cmath **** 
 480:c:\gcc for renesas rx 8.3.0.202004-gnurx-elf\rx-elf\rx-elf\rx-elf\include\c++\8.3.0.202004-gnurx\cmath **** #ifndef __CORRECT_ISO_CPP_MATH_H_PROTO
 481:c:\gcc for renesas rx 8.3.0.202004-gnurx-elf\rx-elf\rx-elf\rx-elf\include\c++\8.3.0.202004-gnurx\cmath ****   inline _GLIBCXX_CONSTEXPR float
 482:c:\gcc for renesas rx 8.3.0.202004-gnurx-elf\rx-elf\rx-elf\rx-elf\include\c++\8.3.0.202004-gnurx\cmath ****   tan(float __x)
 483:c:\gcc for renesas rx 8.3.0.202004-gnurx-elf\rx-elf\rx-elf\rx-elf\include\c++\8.3.0.202004-gnurx\cmath ****   { return __builtin_tanf(__x); }
 484:c:\gcc for renesas rx 8.3.0.202004-gnurx-elf\rx-elf\rx-elf\rx-elf\include\c++\8.3.0.202004-gnurx\cmath **** 
 485:c:\gcc for renesas rx 8.3.0.202004-gnurx-elf\rx-elf\rx-elf\rx-elf\include\c++\8.3.0.202004-gnurx\cmath ****   inline _GLIBCXX_CONSTEXPR long double
 486:c:\gcc for renesas rx 8.3.0.202004-gnurx-elf\rx-elf\rx-elf\rx-elf\include\c++\8.3.0.202004-gnurx\cmath ****   tan(long double __x)
 487:c:\gcc for renesas rx 8.3.0.202004-gnurx-elf\rx-elf\rx-elf\rx-elf\include\c++\8.3.0.202004-gnurx\cmath ****   { return __builtin_tanl(__x); }
 488:c:\gcc for renesas rx 8.3.0.202004-gnurx-elf\rx-elf\rx-elf\rx-elf\include\c++\8.3.0.202004-gnurx\cmath **** #endif
 489:c:\gcc for renesas rx 8.3.0.202004-gnurx-elf\rx-elf\rx-elf\rx-elf\include\c++\8.3.0.202004-gnurx\cmath **** 
 490:c:\gcc for renesas rx 8.3.0.202004-gnurx-elf\rx-elf\rx-elf\rx-elf\include\c++\8.3.0.202004-gnurx\cmath ****   template<typename _Tp>
 491:c:\gcc for renesas rx 8.3.0.202004-gnurx-elf\rx-elf\rx-elf\rx-elf\include\c++\8.3.0.202004-gnurx\cmath ****     inline _GLIBCXX_CONSTEXPR
 492:c:\gcc for renesas rx 8.3.0.202004-gnurx-elf\rx-elf\rx-elf\rx-elf\include\c++\8.3.0.202004-gnurx\cmath ****     typename __gnu_cxx::__enable_if<__is_integer<_Tp>::__value, 
 493:c:\gcc for renesas rx 8.3.0.202004-gnurx-elf\rx-elf\rx-elf\rx-elf\include\c++\8.3.0.202004-gnurx\cmath ****                                     double>::__type
 494:c:\gcc for renesas rx 8.3.0.202004-gnurx-elf\rx-elf\rx-elf\rx-elf\include\c++\8.3.0.202004-gnurx\cmath ****     tan(_Tp __x)
 495:c:\gcc for renesas rx 8.3.0.202004-gnurx-elf\rx-elf\rx-elf\rx-elf\include\c++\8.3.0.202004-gnurx\cmath ****     { return __builtin_tan(__x); }
 496:c:\gcc for renesas rx 8.3.0.202004-gnurx-elf\rx-elf\rx-elf\rx-elf\include\c++\8.3.0.202004-gnurx\cmath **** 
 497:c:\gcc for renesas rx 8.3.0.202004-gnurx-elf\rx-elf\rx-elf\rx-elf\include\c++\8.3.0.202004-gnurx\cmath ****   using ::tanh;
 498:c:\gcc for renesas rx 8.3.0.202004-gnurx-elf\rx-elf\rx-elf\rx-elf\include\c++\8.3.0.202004-gnurx\cmath **** 
 499:c:\gcc for renesas rx 8.3.0.202004-gnurx-elf\rx-elf\rx-elf\rx-elf\include\c++\8.3.0.202004-gnurx\cmath **** #ifndef __CORRECT_ISO_CPP_MATH_H_PROTO
 500:c:\gcc for renesas rx 8.3.0.202004-gnurx-elf\rx-elf\rx-elf\rx-elf\include\c++\8.3.0.202004-gnurx\cmath ****   inline _GLIBCXX_CONSTEXPR float
 501:c:\gcc for renesas rx 8.3.0.202004-gnurx-elf\rx-elf\rx-elf\rx-elf\include\c++\8.3.0.202004-gnurx\cmath ****   tanh(float __x)
 502:c:\gcc for renesas rx 8.3.0.202004-gnurx-elf\rx-elf\rx-elf\rx-elf\include\c++\8.3.0.202004-gnurx\cmath ****   { return __builtin_tanhf(__x); }
 503:c:\gcc for renesas rx 8.3.0.202004-gnurx-elf\rx-elf\rx-elf\rx-elf\include\c++\8.3.0.202004-gnurx\cmath **** 
 504:c:\gcc for renesas rx 8.3.0.202004-gnurx-elf\rx-elf\rx-elf\rx-elf\include\c++\8.3.0.202004-gnurx\cmath ****   inline _GLIBCXX_CONSTEXPR long double
 505:c:\gcc for renesas rx 8.3.0.202004-gnurx-elf\rx-elf\rx-elf\rx-elf\include\c++\8.3.0.202004-gnurx\cmath ****   tanh(long double __x)
 506:c:\gcc for renesas rx 8.3.0.202004-gnurx-elf\rx-elf\rx-elf\rx-elf\include\c++\8.3.0.202004-gnurx\cmath ****   { return __builtin_tanhl(__x); }
 507:c:\gcc for renesas rx 8.3.0.202004-gnurx-elf\rx-elf\rx-elf\rx-elf\include\c++\8.3.0.202004-gnurx\cmath **** #endif
 508:c:\gcc for renesas rx 8.3.0.202004-gnurx-elf\rx-elf\rx-elf\rx-elf\include\c++\8.3.0.202004-gnurx\cmath **** 
 509:c:\gcc for renesas rx 8.3.0.202004-gnurx-elf\rx-elf\rx-elf\rx-elf\include\c++\8.3.0.202004-gnurx\cmath ****   template<typename _Tp>
 510:c:\gcc for renesas rx 8.3.0.202004-gnurx-elf\rx-elf\rx-elf\rx-elf\include\c++\8.3.0.202004-gnurx\cmath ****     inline _GLIBCXX_CONSTEXPR
 511:c:\gcc for renesas rx 8.3.0.202004-gnurx-elf\rx-elf\rx-elf\rx-elf\include\c++\8.3.0.202004-gnurx\cmath ****     typename __gnu_cxx::__enable_if<__is_integer<_Tp>::__value, 
 512:c:\gcc for renesas rx 8.3.0.202004-gnurx-elf\rx-elf\rx-elf\rx-elf\include\c++\8.3.0.202004-gnurx\cmath ****                                     double>::__type
 513:c:\gcc for renesas rx 8.3.0.202004-gnurx-elf\rx-elf\rx-elf\rx-elf\include\c++\8.3.0.202004-gnurx\cmath ****     tanh(_Tp __x)
 514:c:\gcc for renesas rx 8.3.0.202004-gnurx-elf\rx-elf\rx-elf\rx-elf\include\c++\8.3.0.202004-gnurx\cmath ****     { return __builtin_tanh(__x); }
 515:c:\gcc for renesas rx 8.3.0.202004-gnurx-elf\rx-elf\rx-elf\rx-elf\include\c++\8.3.0.202004-gnurx\cmath **** 
 516:c:\gcc for renesas rx 8.3.0.202004-gnurx-elf\rx-elf\rx-elf\rx-elf\include\c++\8.3.0.202004-gnurx\cmath **** #if _GLIBCXX_USE_C99_MATH
 517:c:\gcc for renesas rx 8.3.0.202004-gnurx-elf\rx-elf\rx-elf\rx-elf\include\c++\8.3.0.202004-gnurx\cmath **** #if !_GLIBCXX_USE_C99_FP_MACROS_DYNAMIC
 518:c:\gcc for renesas rx 8.3.0.202004-gnurx-elf\rx-elf\rx-elf\rx-elf\include\c++\8.3.0.202004-gnurx\cmath **** 
 519:c:\gcc for renesas rx 8.3.0.202004-gnurx-elf\rx-elf\rx-elf\rx-elf\include\c++\8.3.0.202004-gnurx\cmath **** // These are possible macros imported from C99-land.
 520:c:\gcc for renesas rx 8.3.0.202004-gnurx-elf\rx-elf\rx-elf\rx-elf\include\c++\8.3.0.202004-gnurx\cmath **** #undef fpclassify
 521:c:\gcc for renesas rx 8.3.0.202004-gnurx-elf\rx-elf\rx-elf\rx-elf\include\c++\8.3.0.202004-gnurx\cmath **** #undef isfinite
 522:c:\gcc for renesas rx 8.3.0.202004-gnurx-elf\rx-elf\rx-elf\rx-elf\include\c++\8.3.0.202004-gnurx\cmath **** #undef isinf
 523:c:\gcc for renesas rx 8.3.0.202004-gnurx-elf\rx-elf\rx-elf\rx-elf\include\c++\8.3.0.202004-gnurx\cmath **** #undef isnan
 524:c:\gcc for renesas rx 8.3.0.202004-gnurx-elf\rx-elf\rx-elf\rx-elf\include\c++\8.3.0.202004-gnurx\cmath **** #undef isnormal
 525:c:\gcc for renesas rx 8.3.0.202004-gnurx-elf\rx-elf\rx-elf\rx-elf\include\c++\8.3.0.202004-gnurx\cmath **** #undef signbit
 526:c:\gcc for renesas rx 8.3.0.202004-gnurx-elf\rx-elf\rx-elf\rx-elf\include\c++\8.3.0.202004-gnurx\cmath **** #undef isgreater
 527:c:\gcc for renesas rx 8.3.0.202004-gnurx-elf\rx-elf\rx-elf\rx-elf\include\c++\8.3.0.202004-gnurx\cmath **** #undef isgreaterequal
 528:c:\gcc for renesas rx 8.3.0.202004-gnurx-elf\rx-elf\rx-elf\rx-elf\include\c++\8.3.0.202004-gnurx\cmath **** #undef isless
 529:c:\gcc for renesas rx 8.3.0.202004-gnurx-elf\rx-elf\rx-elf\rx-elf\include\c++\8.3.0.202004-gnurx\cmath **** #undef islessequal
 530:c:\gcc for renesas rx 8.3.0.202004-gnurx-elf\rx-elf\rx-elf\rx-elf\include\c++\8.3.0.202004-gnurx\cmath **** #undef islessgreater
 531:c:\gcc for renesas rx 8.3.0.202004-gnurx-elf\rx-elf\rx-elf\rx-elf\include\c++\8.3.0.202004-gnurx\cmath **** #undef isunordered
 532:c:\gcc for renesas rx 8.3.0.202004-gnurx-elf\rx-elf\rx-elf\rx-elf\include\c++\8.3.0.202004-gnurx\cmath **** 
 533:c:\gcc for renesas rx 8.3.0.202004-gnurx-elf\rx-elf\rx-elf\rx-elf\include\c++\8.3.0.202004-gnurx\cmath **** #if __cplusplus >= 201103L
 534:c:\gcc for renesas rx 8.3.0.202004-gnurx-elf\rx-elf\rx-elf\rx-elf\include\c++\8.3.0.202004-gnurx\cmath **** 
 535:c:\gcc for renesas rx 8.3.0.202004-gnurx-elf\rx-elf\rx-elf\rx-elf\include\c++\8.3.0.202004-gnurx\cmath **** #ifndef __CORRECT_ISO_CPP11_MATH_H_PROTO_FP
 536:c:\gcc for renesas rx 8.3.0.202004-gnurx-elf\rx-elf\rx-elf\rx-elf\include\c++\8.3.0.202004-gnurx\cmath ****   constexpr int
 537:c:\gcc for renesas rx 8.3.0.202004-gnurx-elf\rx-elf\rx-elf\rx-elf\include\c++\8.3.0.202004-gnurx\cmath ****   fpclassify(float __x)
 538:c:\gcc for renesas rx 8.3.0.202004-gnurx-elf\rx-elf\rx-elf\rx-elf\include\c++\8.3.0.202004-gnurx\cmath ****   { return __builtin_fpclassify(FP_NAN, FP_INFINITE, FP_NORMAL,
 539:c:\gcc for renesas rx 8.3.0.202004-gnurx-elf\rx-elf\rx-elf\rx-elf\include\c++\8.3.0.202004-gnurx\cmath **** 				FP_SUBNORMAL, FP_ZERO, __x); }
 540:c:\gcc for renesas rx 8.3.0.202004-gnurx-elf\rx-elf\rx-elf\rx-elf\include\c++\8.3.0.202004-gnurx\cmath **** 
 541:c:\gcc for renesas rx 8.3.0.202004-gnurx-elf\rx-elf\rx-elf\rx-elf\include\c++\8.3.0.202004-gnurx\cmath ****   constexpr int
 542:c:\gcc for renesas rx 8.3.0.202004-gnurx-elf\rx-elf\rx-elf\rx-elf\include\c++\8.3.0.202004-gnurx\cmath ****   fpclassify(double __x)
 543:c:\gcc for renesas rx 8.3.0.202004-gnurx-elf\rx-elf\rx-elf\rx-elf\include\c++\8.3.0.202004-gnurx\cmath ****   { return __builtin_fpclassify(FP_NAN, FP_INFINITE, FP_NORMAL,
 544:c:\gcc for renesas rx 8.3.0.202004-gnurx-elf\rx-elf\rx-elf\rx-elf\include\c++\8.3.0.202004-gnurx\cmath **** 				FP_SUBNORMAL, FP_ZERO, __x); }
 545:c:\gcc for renesas rx 8.3.0.202004-gnurx-elf\rx-elf\rx-elf\rx-elf\include\c++\8.3.0.202004-gnurx\cmath **** 
 546:c:\gcc for renesas rx 8.3.0.202004-gnurx-elf\rx-elf\rx-elf\rx-elf\include\c++\8.3.0.202004-gnurx\cmath ****   constexpr int
 547:c:\gcc for renesas rx 8.3.0.202004-gnurx-elf\rx-elf\rx-elf\rx-elf\include\c++\8.3.0.202004-gnurx\cmath ****   fpclassify(long double __x)
 548:c:\gcc for renesas rx 8.3.0.202004-gnurx-elf\rx-elf\rx-elf\rx-elf\include\c++\8.3.0.202004-gnurx\cmath ****   { return __builtin_fpclassify(FP_NAN, FP_INFINITE, FP_NORMAL,
 549:c:\gcc for renesas rx 8.3.0.202004-gnurx-elf\rx-elf\rx-elf\rx-elf\include\c++\8.3.0.202004-gnurx\cmath **** 				FP_SUBNORMAL, FP_ZERO, __x); }
 550:c:\gcc for renesas rx 8.3.0.202004-gnurx-elf\rx-elf\rx-elf\rx-elf\include\c++\8.3.0.202004-gnurx\cmath **** #endif
 551:c:\gcc for renesas rx 8.3.0.202004-gnurx-elf\rx-elf\rx-elf\rx-elf\include\c++\8.3.0.202004-gnurx\cmath **** 
 552:c:\gcc for renesas rx 8.3.0.202004-gnurx-elf\rx-elf\rx-elf\rx-elf\include\c++\8.3.0.202004-gnurx\cmath **** #ifndef __CORRECT_ISO_CPP11_MATH_H_PROTO_INT
 553:c:\gcc for renesas rx 8.3.0.202004-gnurx-elf\rx-elf\rx-elf\rx-elf\include\c++\8.3.0.202004-gnurx\cmath ****   template<typename _Tp>
 554:c:\gcc for renesas rx 8.3.0.202004-gnurx-elf\rx-elf\rx-elf\rx-elf\include\c++\8.3.0.202004-gnurx\cmath ****     constexpr typename __gnu_cxx::__enable_if<__is_integer<_Tp>::__value,
 555:c:\gcc for renesas rx 8.3.0.202004-gnurx-elf\rx-elf\rx-elf\rx-elf\include\c++\8.3.0.202004-gnurx\cmath ****                                               int>::__type
 556:c:\gcc for renesas rx 8.3.0.202004-gnurx-elf\rx-elf\rx-elf\rx-elf\include\c++\8.3.0.202004-gnurx\cmath ****     fpclassify(_Tp __x)
 557:c:\gcc for renesas rx 8.3.0.202004-gnurx-elf\rx-elf\rx-elf\rx-elf\include\c++\8.3.0.202004-gnurx\cmath ****     { return __x != 0 ? FP_NORMAL : FP_ZERO; }
 558:c:\gcc for renesas rx 8.3.0.202004-gnurx-elf\rx-elf\rx-elf\rx-elf\include\c++\8.3.0.202004-gnurx\cmath **** #endif
 559:c:\gcc for renesas rx 8.3.0.202004-gnurx-elf\rx-elf\rx-elf\rx-elf\include\c++\8.3.0.202004-gnurx\cmath **** 
 560:c:\gcc for renesas rx 8.3.0.202004-gnurx-elf\rx-elf\rx-elf\rx-elf\include\c++\8.3.0.202004-gnurx\cmath **** #ifndef __CORRECT_ISO_CPP11_MATH_H_PROTO_FP
 561:c:\gcc for renesas rx 8.3.0.202004-gnurx-elf\rx-elf\rx-elf\rx-elf\include\c++\8.3.0.202004-gnurx\cmath ****   constexpr bool
 562:c:\gcc for renesas rx 8.3.0.202004-gnurx-elf\rx-elf\rx-elf\rx-elf\include\c++\8.3.0.202004-gnurx\cmath ****   isfinite(float __x)
 563:c:\gcc for renesas rx 8.3.0.202004-gnurx-elf\rx-elf\rx-elf\rx-elf\include\c++\8.3.0.202004-gnurx\cmath ****   { return __builtin_isfinite(__x); }
 564:c:\gcc for renesas rx 8.3.0.202004-gnurx-elf\rx-elf\rx-elf\rx-elf\include\c++\8.3.0.202004-gnurx\cmath **** 
 565:c:\gcc for renesas rx 8.3.0.202004-gnurx-elf\rx-elf\rx-elf\rx-elf\include\c++\8.3.0.202004-gnurx\cmath ****   constexpr bool
 566:c:\gcc for renesas rx 8.3.0.202004-gnurx-elf\rx-elf\rx-elf\rx-elf\include\c++\8.3.0.202004-gnurx\cmath ****   isfinite(double __x)
 567:c:\gcc for renesas rx 8.3.0.202004-gnurx-elf\rx-elf\rx-elf\rx-elf\include\c++\8.3.0.202004-gnurx\cmath ****   { return __builtin_isfinite(__x); }
 568:c:\gcc for renesas rx 8.3.0.202004-gnurx-elf\rx-elf\rx-elf\rx-elf\include\c++\8.3.0.202004-gnurx\cmath **** 
 569:c:\gcc for renesas rx 8.3.0.202004-gnurx-elf\rx-elf\rx-elf\rx-elf\include\c++\8.3.0.202004-gnurx\cmath ****   constexpr bool
 570:c:\gcc for renesas rx 8.3.0.202004-gnurx-elf\rx-elf\rx-elf\rx-elf\include\c++\8.3.0.202004-gnurx\cmath ****   isfinite(long double __x)
 571:c:\gcc for renesas rx 8.3.0.202004-gnurx-elf\rx-elf\rx-elf\rx-elf\include\c++\8.3.0.202004-gnurx\cmath ****   { return __builtin_isfinite(__x); }
 572:c:\gcc for renesas rx 8.3.0.202004-gnurx-elf\rx-elf\rx-elf\rx-elf\include\c++\8.3.0.202004-gnurx\cmath **** #endif
 573:c:\gcc for renesas rx 8.3.0.202004-gnurx-elf\rx-elf\rx-elf\rx-elf\include\c++\8.3.0.202004-gnurx\cmath **** 
 574:c:\gcc for renesas rx 8.3.0.202004-gnurx-elf\rx-elf\rx-elf\rx-elf\include\c++\8.3.0.202004-gnurx\cmath **** #ifndef __CORRECT_ISO_CPP11_MATH_H_PROTO_INT
 575:c:\gcc for renesas rx 8.3.0.202004-gnurx-elf\rx-elf\rx-elf\rx-elf\include\c++\8.3.0.202004-gnurx\cmath ****   template<typename _Tp>
 576:c:\gcc for renesas rx 8.3.0.202004-gnurx-elf\rx-elf\rx-elf\rx-elf\include\c++\8.3.0.202004-gnurx\cmath ****     constexpr typename __gnu_cxx::__enable_if<__is_integer<_Tp>::__value,
 577:c:\gcc for renesas rx 8.3.0.202004-gnurx-elf\rx-elf\rx-elf\rx-elf\include\c++\8.3.0.202004-gnurx\cmath ****                                               bool>::__type
 578:c:\gcc for renesas rx 8.3.0.202004-gnurx-elf\rx-elf\rx-elf\rx-elf\include\c++\8.3.0.202004-gnurx\cmath ****     isfinite(_Tp __x)
 579:c:\gcc for renesas rx 8.3.0.202004-gnurx-elf\rx-elf\rx-elf\rx-elf\include\c++\8.3.0.202004-gnurx\cmath ****     { return true; }
 580:c:\gcc for renesas rx 8.3.0.202004-gnurx-elf\rx-elf\rx-elf\rx-elf\include\c++\8.3.0.202004-gnurx\cmath **** #endif
 581:c:\gcc for renesas rx 8.3.0.202004-gnurx-elf\rx-elf\rx-elf\rx-elf\include\c++\8.3.0.202004-gnurx\cmath **** 
 582:c:\gcc for renesas rx 8.3.0.202004-gnurx-elf\rx-elf\rx-elf\rx-elf\include\c++\8.3.0.202004-gnurx\cmath **** #ifndef __CORRECT_ISO_CPP11_MATH_H_PROTO_FP
 583:c:\gcc for renesas rx 8.3.0.202004-gnurx-elf\rx-elf\rx-elf\rx-elf\include\c++\8.3.0.202004-gnurx\cmath ****   constexpr bool
 584:c:\gcc for renesas rx 8.3.0.202004-gnurx-elf\rx-elf\rx-elf\rx-elf\include\c++\8.3.0.202004-gnurx\cmath ****   isinf(float __x)
 585:c:\gcc for renesas rx 8.3.0.202004-gnurx-elf\rx-elf\rx-elf\rx-elf\include\c++\8.3.0.202004-gnurx\cmath ****   { return __builtin_isinf(__x); }
 586:c:\gcc for renesas rx 8.3.0.202004-gnurx-elf\rx-elf\rx-elf\rx-elf\include\c++\8.3.0.202004-gnurx\cmath **** 
 587:c:\gcc for renesas rx 8.3.0.202004-gnurx-elf\rx-elf\rx-elf\rx-elf\include\c++\8.3.0.202004-gnurx\cmath **** #if _GLIBCXX_HAVE_OBSOLETE_ISINF \
 588:c:\gcc for renesas rx 8.3.0.202004-gnurx-elf\rx-elf\rx-elf\rx-elf\include\c++\8.3.0.202004-gnurx\cmath ****   && !_GLIBCXX_NO_OBSOLETE_ISINF_ISNAN_DYNAMIC
 589:c:\gcc for renesas rx 8.3.0.202004-gnurx-elf\rx-elf\rx-elf\rx-elf\include\c++\8.3.0.202004-gnurx\cmath ****   using ::isinf;
 590:c:\gcc for renesas rx 8.3.0.202004-gnurx-elf\rx-elf\rx-elf\rx-elf\include\c++\8.3.0.202004-gnurx\cmath **** #else
 591:c:\gcc for renesas rx 8.3.0.202004-gnurx-elf\rx-elf\rx-elf\rx-elf\include\c++\8.3.0.202004-gnurx\cmath ****   constexpr bool
 592:c:\gcc for renesas rx 8.3.0.202004-gnurx-elf\rx-elf\rx-elf\rx-elf\include\c++\8.3.0.202004-gnurx\cmath ****   isinf(double __x)
 593:c:\gcc for renesas rx 8.3.0.202004-gnurx-elf\rx-elf\rx-elf\rx-elf\include\c++\8.3.0.202004-gnurx\cmath ****   { return __builtin_isinf(__x); }
 594:c:\gcc for renesas rx 8.3.0.202004-gnurx-elf\rx-elf\rx-elf\rx-elf\include\c++\8.3.0.202004-gnurx\cmath **** #endif
 595:c:\gcc for renesas rx 8.3.0.202004-gnurx-elf\rx-elf\rx-elf\rx-elf\include\c++\8.3.0.202004-gnurx\cmath **** 
 596:c:\gcc for renesas rx 8.3.0.202004-gnurx-elf\rx-elf\rx-elf\rx-elf\include\c++\8.3.0.202004-gnurx\cmath ****   constexpr bool
 597:c:\gcc for renesas rx 8.3.0.202004-gnurx-elf\rx-elf\rx-elf\rx-elf\include\c++\8.3.0.202004-gnurx\cmath ****   isinf(long double __x)
 598:c:\gcc for renesas rx 8.3.0.202004-gnurx-elf\rx-elf\rx-elf\rx-elf\include\c++\8.3.0.202004-gnurx\cmath ****   { return __builtin_isinf(__x); }
 599:c:\gcc for renesas rx 8.3.0.202004-gnurx-elf\rx-elf\rx-elf\rx-elf\include\c++\8.3.0.202004-gnurx\cmath **** #endif
 600:c:\gcc for renesas rx 8.3.0.202004-gnurx-elf\rx-elf\rx-elf\rx-elf\include\c++\8.3.0.202004-gnurx\cmath **** 
 601:c:\gcc for renesas rx 8.3.0.202004-gnurx-elf\rx-elf\rx-elf\rx-elf\include\c++\8.3.0.202004-gnurx\cmath **** #ifndef __CORRECT_ISO_CPP11_MATH_H_PROTO_INT
 602:c:\gcc for renesas rx 8.3.0.202004-gnurx-elf\rx-elf\rx-elf\rx-elf\include\c++\8.3.0.202004-gnurx\cmath ****   template<typename _Tp>
 603:c:\gcc for renesas rx 8.3.0.202004-gnurx-elf\rx-elf\rx-elf\rx-elf\include\c++\8.3.0.202004-gnurx\cmath ****     constexpr typename __gnu_cxx::__enable_if<__is_integer<_Tp>::__value,
 604:c:\gcc for renesas rx 8.3.0.202004-gnurx-elf\rx-elf\rx-elf\rx-elf\include\c++\8.3.0.202004-gnurx\cmath ****                                               bool>::__type
 605:c:\gcc for renesas rx 8.3.0.202004-gnurx-elf\rx-elf\rx-elf\rx-elf\include\c++\8.3.0.202004-gnurx\cmath ****     isinf(_Tp __x)
 606:c:\gcc for renesas rx 8.3.0.202004-gnurx-elf\rx-elf\rx-elf\rx-elf\include\c++\8.3.0.202004-gnurx\cmath ****     { return false; }
 607:c:\gcc for renesas rx 8.3.0.202004-gnurx-elf\rx-elf\rx-elf\rx-elf\include\c++\8.3.0.202004-gnurx\cmath **** #endif
 608:c:\gcc for renesas rx 8.3.0.202004-gnurx-elf\rx-elf\rx-elf\rx-elf\include\c++\8.3.0.202004-gnurx\cmath **** 
 609:c:\gcc for renesas rx 8.3.0.202004-gnurx-elf\rx-elf\rx-elf\rx-elf\include\c++\8.3.0.202004-gnurx\cmath **** #ifndef __CORRECT_ISO_CPP11_MATH_H_PROTO_FP
 610:c:\gcc for renesas rx 8.3.0.202004-gnurx-elf\rx-elf\rx-elf\rx-elf\include\c++\8.3.0.202004-gnurx\cmath ****   constexpr bool
 611:c:\gcc for renesas rx 8.3.0.202004-gnurx-elf\rx-elf\rx-elf\rx-elf\include\c++\8.3.0.202004-gnurx\cmath ****   isnan(float __x)
 612:c:\gcc for renesas rx 8.3.0.202004-gnurx-elf\rx-elf\rx-elf\rx-elf\include\c++\8.3.0.202004-gnurx\cmath ****   { return __builtin_isnan(__x); }
 613:c:\gcc for renesas rx 8.3.0.202004-gnurx-elf\rx-elf\rx-elf\rx-elf\include\c++\8.3.0.202004-gnurx\cmath **** 
 614:c:\gcc for renesas rx 8.3.0.202004-gnurx-elf\rx-elf\rx-elf\rx-elf\include\c++\8.3.0.202004-gnurx\cmath **** #if _GLIBCXX_HAVE_OBSOLETE_ISNAN \
 615:c:\gcc for renesas rx 8.3.0.202004-gnurx-elf\rx-elf\rx-elf\rx-elf\include\c++\8.3.0.202004-gnurx\cmath ****   && !_GLIBCXX_NO_OBSOLETE_ISINF_ISNAN_DYNAMIC
 616:c:\gcc for renesas rx 8.3.0.202004-gnurx-elf\rx-elf\rx-elf\rx-elf\include\c++\8.3.0.202004-gnurx\cmath ****   using ::isnan;
 617:c:\gcc for renesas rx 8.3.0.202004-gnurx-elf\rx-elf\rx-elf\rx-elf\include\c++\8.3.0.202004-gnurx\cmath **** #else
 618:c:\gcc for renesas rx 8.3.0.202004-gnurx-elf\rx-elf\rx-elf\rx-elf\include\c++\8.3.0.202004-gnurx\cmath ****   constexpr bool
 619:c:\gcc for renesas rx 8.3.0.202004-gnurx-elf\rx-elf\rx-elf\rx-elf\include\c++\8.3.0.202004-gnurx\cmath ****   isnan(double __x)
 620:c:\gcc for renesas rx 8.3.0.202004-gnurx-elf\rx-elf\rx-elf\rx-elf\include\c++\8.3.0.202004-gnurx\cmath ****   { return __builtin_isnan(__x); }
 621:c:\gcc for renesas rx 8.3.0.202004-gnurx-elf\rx-elf\rx-elf\rx-elf\include\c++\8.3.0.202004-gnurx\cmath **** #endif
 622:c:\gcc for renesas rx 8.3.0.202004-gnurx-elf\rx-elf\rx-elf\rx-elf\include\c++\8.3.0.202004-gnurx\cmath **** 
 623:c:\gcc for renesas rx 8.3.0.202004-gnurx-elf\rx-elf\rx-elf\rx-elf\include\c++\8.3.0.202004-gnurx\cmath ****   constexpr bool
 624:c:\gcc for renesas rx 8.3.0.202004-gnurx-elf\rx-elf\rx-elf\rx-elf\include\c++\8.3.0.202004-gnurx\cmath ****   isnan(long double __x)
 625:c:\gcc for renesas rx 8.3.0.202004-gnurx-elf\rx-elf\rx-elf\rx-elf\include\c++\8.3.0.202004-gnurx\cmath ****   { return __builtin_isnan(__x); }
 626:c:\gcc for renesas rx 8.3.0.202004-gnurx-elf\rx-elf\rx-elf\rx-elf\include\c++\8.3.0.202004-gnurx\cmath **** #endif
 627:c:\gcc for renesas rx 8.3.0.202004-gnurx-elf\rx-elf\rx-elf\rx-elf\include\c++\8.3.0.202004-gnurx\cmath **** 
 628:c:\gcc for renesas rx 8.3.0.202004-gnurx-elf\rx-elf\rx-elf\rx-elf\include\c++\8.3.0.202004-gnurx\cmath **** #ifndef __CORRECT_ISO_CPP11_MATH_H_PROTO_INT
 629:c:\gcc for renesas rx 8.3.0.202004-gnurx-elf\rx-elf\rx-elf\rx-elf\include\c++\8.3.0.202004-gnurx\cmath ****   template<typename _Tp>
 630:c:\gcc for renesas rx 8.3.0.202004-gnurx-elf\rx-elf\rx-elf\rx-elf\include\c++\8.3.0.202004-gnurx\cmath ****     constexpr typename __gnu_cxx::__enable_if<__is_integer<_Tp>::__value,
 631:c:\gcc for renesas rx 8.3.0.202004-gnurx-elf\rx-elf\rx-elf\rx-elf\include\c++\8.3.0.202004-gnurx\cmath ****                                               bool>::__type
 632:c:\gcc for renesas rx 8.3.0.202004-gnurx-elf\rx-elf\rx-elf\rx-elf\include\c++\8.3.0.202004-gnurx\cmath ****     isnan(_Tp __x)
 633:c:\gcc for renesas rx 8.3.0.202004-gnurx-elf\rx-elf\rx-elf\rx-elf\include\c++\8.3.0.202004-gnurx\cmath ****     { return false; }
 634:c:\gcc for renesas rx 8.3.0.202004-gnurx-elf\rx-elf\rx-elf\rx-elf\include\c++\8.3.0.202004-gnurx\cmath **** #endif
 635:c:\gcc for renesas rx 8.3.0.202004-gnurx-elf\rx-elf\rx-elf\rx-elf\include\c++\8.3.0.202004-gnurx\cmath **** 
 636:c:\gcc for renesas rx 8.3.0.202004-gnurx-elf\rx-elf\rx-elf\rx-elf\include\c++\8.3.0.202004-gnurx\cmath **** #ifndef __CORRECT_ISO_CPP11_MATH_H_PROTO_FP
 637:c:\gcc for renesas rx 8.3.0.202004-gnurx-elf\rx-elf\rx-elf\rx-elf\include\c++\8.3.0.202004-gnurx\cmath ****   constexpr bool
 638:c:\gcc for renesas rx 8.3.0.202004-gnurx-elf\rx-elf\rx-elf\rx-elf\include\c++\8.3.0.202004-gnurx\cmath ****   isnormal(float __x)
 639:c:\gcc for renesas rx 8.3.0.202004-gnurx-elf\rx-elf\rx-elf\rx-elf\include\c++\8.3.0.202004-gnurx\cmath ****   { return __builtin_isnormal(__x); }
 640:c:\gcc for renesas rx 8.3.0.202004-gnurx-elf\rx-elf\rx-elf\rx-elf\include\c++\8.3.0.202004-gnurx\cmath **** 
 641:c:\gcc for renesas rx 8.3.0.202004-gnurx-elf\rx-elf\rx-elf\rx-elf\include\c++\8.3.0.202004-gnurx\cmath ****   constexpr bool
 642:c:\gcc for renesas rx 8.3.0.202004-gnurx-elf\rx-elf\rx-elf\rx-elf\include\c++\8.3.0.202004-gnurx\cmath ****   isnormal(double __x)
 643:c:\gcc for renesas rx 8.3.0.202004-gnurx-elf\rx-elf\rx-elf\rx-elf\include\c++\8.3.0.202004-gnurx\cmath ****   { return __builtin_isnormal(__x); }
 644:c:\gcc for renesas rx 8.3.0.202004-gnurx-elf\rx-elf\rx-elf\rx-elf\include\c++\8.3.0.202004-gnurx\cmath **** 
 645:c:\gcc for renesas rx 8.3.0.202004-gnurx-elf\rx-elf\rx-elf\rx-elf\include\c++\8.3.0.202004-gnurx\cmath ****   constexpr bool
 646:c:\gcc for renesas rx 8.3.0.202004-gnurx-elf\rx-elf\rx-elf\rx-elf\include\c++\8.3.0.202004-gnurx\cmath ****   isnormal(long double __x)
 647:c:\gcc for renesas rx 8.3.0.202004-gnurx-elf\rx-elf\rx-elf\rx-elf\include\c++\8.3.0.202004-gnurx\cmath ****   { return __builtin_isnormal(__x); }
 648:c:\gcc for renesas rx 8.3.0.202004-gnurx-elf\rx-elf\rx-elf\rx-elf\include\c++\8.3.0.202004-gnurx\cmath **** #endif
 649:c:\gcc for renesas rx 8.3.0.202004-gnurx-elf\rx-elf\rx-elf\rx-elf\include\c++\8.3.0.202004-gnurx\cmath **** 
 650:c:\gcc for renesas rx 8.3.0.202004-gnurx-elf\rx-elf\rx-elf\rx-elf\include\c++\8.3.0.202004-gnurx\cmath **** #ifndef __CORRECT_ISO_CPP11_MATH_H_PROTO_INT
 651:c:\gcc for renesas rx 8.3.0.202004-gnurx-elf\rx-elf\rx-elf\rx-elf\include\c++\8.3.0.202004-gnurx\cmath ****   template<typename _Tp>
 652:c:\gcc for renesas rx 8.3.0.202004-gnurx-elf\rx-elf\rx-elf\rx-elf\include\c++\8.3.0.202004-gnurx\cmath ****     constexpr typename __gnu_cxx::__enable_if<__is_integer<_Tp>::__value,
 653:c:\gcc for renesas rx 8.3.0.202004-gnurx-elf\rx-elf\rx-elf\rx-elf\include\c++\8.3.0.202004-gnurx\cmath ****                                               bool>::__type
 654:c:\gcc for renesas rx 8.3.0.202004-gnurx-elf\rx-elf\rx-elf\rx-elf\include\c++\8.3.0.202004-gnurx\cmath ****     isnormal(_Tp __x)
 655:c:\gcc for renesas rx 8.3.0.202004-gnurx-elf\rx-elf\rx-elf\rx-elf\include\c++\8.3.0.202004-gnurx\cmath ****     { return __x != 0 ? true : false; }
 656:c:\gcc for renesas rx 8.3.0.202004-gnurx-elf\rx-elf\rx-elf\rx-elf\include\c++\8.3.0.202004-gnurx\cmath **** #endif
 657:c:\gcc for renesas rx 8.3.0.202004-gnurx-elf\rx-elf\rx-elf\rx-elf\include\c++\8.3.0.202004-gnurx\cmath **** 
 658:c:\gcc for renesas rx 8.3.0.202004-gnurx-elf\rx-elf\rx-elf\rx-elf\include\c++\8.3.0.202004-gnurx\cmath **** #ifndef __CORRECT_ISO_CPP11_MATH_H_PROTO_FP
 659:c:\gcc for renesas rx 8.3.0.202004-gnurx-elf\rx-elf\rx-elf\rx-elf\include\c++\8.3.0.202004-gnurx\cmath ****   // Note: middle-end/36757 is fixed, __builtin_signbit is type-generic.
 660:c:\gcc for renesas rx 8.3.0.202004-gnurx-elf\rx-elf\rx-elf\rx-elf\include\c++\8.3.0.202004-gnurx\cmath ****   constexpr bool
 661:c:\gcc for renesas rx 8.3.0.202004-gnurx-elf\rx-elf\rx-elf\rx-elf\include\c++\8.3.0.202004-gnurx\cmath ****   signbit(float __x)
 662:c:\gcc for renesas rx 8.3.0.202004-gnurx-elf\rx-elf\rx-elf\rx-elf\include\c++\8.3.0.202004-gnurx\cmath ****   { return __builtin_signbit(__x); }
 663:c:\gcc for renesas rx 8.3.0.202004-gnurx-elf\rx-elf\rx-elf\rx-elf\include\c++\8.3.0.202004-gnurx\cmath **** 
 664:c:\gcc for renesas rx 8.3.0.202004-gnurx-elf\rx-elf\rx-elf\rx-elf\include\c++\8.3.0.202004-gnurx\cmath ****   constexpr bool
 665:c:\gcc for renesas rx 8.3.0.202004-gnurx-elf\rx-elf\rx-elf\rx-elf\include\c++\8.3.0.202004-gnurx\cmath ****   signbit(double __x)
 666:c:\gcc for renesas rx 8.3.0.202004-gnurx-elf\rx-elf\rx-elf\rx-elf\include\c++\8.3.0.202004-gnurx\cmath ****   { return __builtin_signbit(__x); }
 667:c:\gcc for renesas rx 8.3.0.202004-gnurx-elf\rx-elf\rx-elf\rx-elf\include\c++\8.3.0.202004-gnurx\cmath **** 
 668:c:\gcc for renesas rx 8.3.0.202004-gnurx-elf\rx-elf\rx-elf\rx-elf\include\c++\8.3.0.202004-gnurx\cmath ****   constexpr bool
 669:c:\gcc for renesas rx 8.3.0.202004-gnurx-elf\rx-elf\rx-elf\rx-elf\include\c++\8.3.0.202004-gnurx\cmath ****   signbit(long double __x)
 670:c:\gcc for renesas rx 8.3.0.202004-gnurx-elf\rx-elf\rx-elf\rx-elf\include\c++\8.3.0.202004-gnurx\cmath ****   { return __builtin_signbit(__x); }
 671:c:\gcc for renesas rx 8.3.0.202004-gnurx-elf\rx-elf\rx-elf\rx-elf\include\c++\8.3.0.202004-gnurx\cmath **** #endif
 672:c:\gcc for renesas rx 8.3.0.202004-gnurx-elf\rx-elf\rx-elf\rx-elf\include\c++\8.3.0.202004-gnurx\cmath **** 
 673:c:\gcc for renesas rx 8.3.0.202004-gnurx-elf\rx-elf\rx-elf\rx-elf\include\c++\8.3.0.202004-gnurx\cmath **** #ifndef __CORRECT_ISO_CPP11_MATH_H_PROTO_INT
 674:c:\gcc for renesas rx 8.3.0.202004-gnurx-elf\rx-elf\rx-elf\rx-elf\include\c++\8.3.0.202004-gnurx\cmath ****   template<typename _Tp>
 675:c:\gcc for renesas rx 8.3.0.202004-gnurx-elf\rx-elf\rx-elf\rx-elf\include\c++\8.3.0.202004-gnurx\cmath ****     constexpr typename __gnu_cxx::__enable_if<__is_integer<_Tp>::__value,
 676:c:\gcc for renesas rx 8.3.0.202004-gnurx-elf\rx-elf\rx-elf\rx-elf\include\c++\8.3.0.202004-gnurx\cmath ****                                               bool>::__type
 677:c:\gcc for renesas rx 8.3.0.202004-gnurx-elf\rx-elf\rx-elf\rx-elf\include\c++\8.3.0.202004-gnurx\cmath ****     signbit(_Tp __x)
 678:c:\gcc for renesas rx 8.3.0.202004-gnurx-elf\rx-elf\rx-elf\rx-elf\include\c++\8.3.0.202004-gnurx\cmath ****     { return __x < 0 ? true : false; }
 679:c:\gcc for renesas rx 8.3.0.202004-gnurx-elf\rx-elf\rx-elf\rx-elf\include\c++\8.3.0.202004-gnurx\cmath **** #endif
 680:c:\gcc for renesas rx 8.3.0.202004-gnurx-elf\rx-elf\rx-elf\rx-elf\include\c++\8.3.0.202004-gnurx\cmath **** 
 681:c:\gcc for renesas rx 8.3.0.202004-gnurx-elf\rx-elf\rx-elf\rx-elf\include\c++\8.3.0.202004-gnurx\cmath **** #ifndef __CORRECT_ISO_CPP11_MATH_H_PROTO_FP
 682:c:\gcc for renesas rx 8.3.0.202004-gnurx-elf\rx-elf\rx-elf\rx-elf\include\c++\8.3.0.202004-gnurx\cmath ****   constexpr bool
 683:c:\gcc for renesas rx 8.3.0.202004-gnurx-elf\rx-elf\rx-elf\rx-elf\include\c++\8.3.0.202004-gnurx\cmath ****   isgreater(float __x, float __y)
 684:c:\gcc for renesas rx 8.3.0.202004-gnurx-elf\rx-elf\rx-elf\rx-elf\include\c++\8.3.0.202004-gnurx\cmath ****   { return __builtin_isgreater(__x, __y); }
 685:c:\gcc for renesas rx 8.3.0.202004-gnurx-elf\rx-elf\rx-elf\rx-elf\include\c++\8.3.0.202004-gnurx\cmath **** 
 686:c:\gcc for renesas rx 8.3.0.202004-gnurx-elf\rx-elf\rx-elf\rx-elf\include\c++\8.3.0.202004-gnurx\cmath ****   constexpr bool
 687:c:\gcc for renesas rx 8.3.0.202004-gnurx-elf\rx-elf\rx-elf\rx-elf\include\c++\8.3.0.202004-gnurx\cmath ****   isgreater(double __x, double __y)
 688:c:\gcc for renesas rx 8.3.0.202004-gnurx-elf\rx-elf\rx-elf\rx-elf\include\c++\8.3.0.202004-gnurx\cmath ****   { return __builtin_isgreater(__x, __y); }
 689:c:\gcc for renesas rx 8.3.0.202004-gnurx-elf\rx-elf\rx-elf\rx-elf\include\c++\8.3.0.202004-gnurx\cmath **** 
 690:c:\gcc for renesas rx 8.3.0.202004-gnurx-elf\rx-elf\rx-elf\rx-elf\include\c++\8.3.0.202004-gnurx\cmath ****   constexpr bool
 691:c:\gcc for renesas rx 8.3.0.202004-gnurx-elf\rx-elf\rx-elf\rx-elf\include\c++\8.3.0.202004-gnurx\cmath ****   isgreater(long double __x, long double __y)
 692:c:\gcc for renesas rx 8.3.0.202004-gnurx-elf\rx-elf\rx-elf\rx-elf\include\c++\8.3.0.202004-gnurx\cmath ****   { return __builtin_isgreater(__x, __y); }
 693:c:\gcc for renesas rx 8.3.0.202004-gnurx-elf\rx-elf\rx-elf\rx-elf\include\c++\8.3.0.202004-gnurx\cmath **** #endif
 694:c:\gcc for renesas rx 8.3.0.202004-gnurx-elf\rx-elf\rx-elf\rx-elf\include\c++\8.3.0.202004-gnurx\cmath **** 
 695:c:\gcc for renesas rx 8.3.0.202004-gnurx-elf\rx-elf\rx-elf\rx-elf\include\c++\8.3.0.202004-gnurx\cmath **** #ifndef __CORRECT_ISO_CPP11_MATH_H_PROTO_INT
 696:c:\gcc for renesas rx 8.3.0.202004-gnurx-elf\rx-elf\rx-elf\rx-elf\include\c++\8.3.0.202004-gnurx\cmath ****   template<typename _Tp, typename _Up>
 697:c:\gcc for renesas rx 8.3.0.202004-gnurx-elf\rx-elf\rx-elf\rx-elf\include\c++\8.3.0.202004-gnurx\cmath ****     constexpr typename
 698:c:\gcc for renesas rx 8.3.0.202004-gnurx-elf\rx-elf\rx-elf\rx-elf\include\c++\8.3.0.202004-gnurx\cmath ****     __gnu_cxx::__enable_if<(__is_arithmetic<_Tp>::__value
 699:c:\gcc for renesas rx 8.3.0.202004-gnurx-elf\rx-elf\rx-elf\rx-elf\include\c++\8.3.0.202004-gnurx\cmath **** 			    && __is_arithmetic<_Up>::__value), bool>::__type
 700:c:\gcc for renesas rx 8.3.0.202004-gnurx-elf\rx-elf\rx-elf\rx-elf\include\c++\8.3.0.202004-gnurx\cmath ****     isgreater(_Tp __x, _Up __y)
 701:c:\gcc for renesas rx 8.3.0.202004-gnurx-elf\rx-elf\rx-elf\rx-elf\include\c++\8.3.0.202004-gnurx\cmath ****     {
 702:c:\gcc for renesas rx 8.3.0.202004-gnurx-elf\rx-elf\rx-elf\rx-elf\include\c++\8.3.0.202004-gnurx\cmath ****       typedef typename __gnu_cxx::__promote_2<_Tp, _Up>::__type __type;
 703:c:\gcc for renesas rx 8.3.0.202004-gnurx-elf\rx-elf\rx-elf\rx-elf\include\c++\8.3.0.202004-gnurx\cmath ****       return __builtin_isgreater(__type(__x), __type(__y));
 704:c:\gcc for renesas rx 8.3.0.202004-gnurx-elf\rx-elf\rx-elf\rx-elf\include\c++\8.3.0.202004-gnurx\cmath ****     }
 705:c:\gcc for renesas rx 8.3.0.202004-gnurx-elf\rx-elf\rx-elf\rx-elf\include\c++\8.3.0.202004-gnurx\cmath **** #endif
 706:c:\gcc for renesas rx 8.3.0.202004-gnurx-elf\rx-elf\rx-elf\rx-elf\include\c++\8.3.0.202004-gnurx\cmath **** 
 707:c:\gcc for renesas rx 8.3.0.202004-gnurx-elf\rx-elf\rx-elf\rx-elf\include\c++\8.3.0.202004-gnurx\cmath **** #ifndef __CORRECT_ISO_CPP11_MATH_H_PROTO_FP
 708:c:\gcc for renesas rx 8.3.0.202004-gnurx-elf\rx-elf\rx-elf\rx-elf\include\c++\8.3.0.202004-gnurx\cmath ****   constexpr bool
 709:c:\gcc for renesas rx 8.3.0.202004-gnurx-elf\rx-elf\rx-elf\rx-elf\include\c++\8.3.0.202004-gnurx\cmath ****   isgreaterequal(float __x, float __y)
 710:c:\gcc for renesas rx 8.3.0.202004-gnurx-elf\rx-elf\rx-elf\rx-elf\include\c++\8.3.0.202004-gnurx\cmath ****   { return __builtin_isgreaterequal(__x, __y); }
 711:c:\gcc for renesas rx 8.3.0.202004-gnurx-elf\rx-elf\rx-elf\rx-elf\include\c++\8.3.0.202004-gnurx\cmath **** 
 712:c:\gcc for renesas rx 8.3.0.202004-gnurx-elf\rx-elf\rx-elf\rx-elf\include\c++\8.3.0.202004-gnurx\cmath ****   constexpr bool
 713:c:\gcc for renesas rx 8.3.0.202004-gnurx-elf\rx-elf\rx-elf\rx-elf\include\c++\8.3.0.202004-gnurx\cmath ****   isgreaterequal(double __x, double __y)
 714:c:\gcc for renesas rx 8.3.0.202004-gnurx-elf\rx-elf\rx-elf\rx-elf\include\c++\8.3.0.202004-gnurx\cmath ****   { return __builtin_isgreaterequal(__x, __y); }
 715:c:\gcc for renesas rx 8.3.0.202004-gnurx-elf\rx-elf\rx-elf\rx-elf\include\c++\8.3.0.202004-gnurx\cmath **** 
 716:c:\gcc for renesas rx 8.3.0.202004-gnurx-elf\rx-elf\rx-elf\rx-elf\include\c++\8.3.0.202004-gnurx\cmath ****   constexpr bool
 717:c:\gcc for renesas rx 8.3.0.202004-gnurx-elf\rx-elf\rx-elf\rx-elf\include\c++\8.3.0.202004-gnurx\cmath ****   isgreaterequal(long double __x, long double __y)
 718:c:\gcc for renesas rx 8.3.0.202004-gnurx-elf\rx-elf\rx-elf\rx-elf\include\c++\8.3.0.202004-gnurx\cmath ****   { return __builtin_isgreaterequal(__x, __y); }
 719:c:\gcc for renesas rx 8.3.0.202004-gnurx-elf\rx-elf\rx-elf\rx-elf\include\c++\8.3.0.202004-gnurx\cmath **** #endif
 720:c:\gcc for renesas rx 8.3.0.202004-gnurx-elf\rx-elf\rx-elf\rx-elf\include\c++\8.3.0.202004-gnurx\cmath **** 
 721:c:\gcc for renesas rx 8.3.0.202004-gnurx-elf\rx-elf\rx-elf\rx-elf\include\c++\8.3.0.202004-gnurx\cmath **** #ifndef __CORRECT_ISO_CPP11_MATH_H_PROTO_INT
 722:c:\gcc for renesas rx 8.3.0.202004-gnurx-elf\rx-elf\rx-elf\rx-elf\include\c++\8.3.0.202004-gnurx\cmath ****   template<typename _Tp, typename _Up>
 723:c:\gcc for renesas rx 8.3.0.202004-gnurx-elf\rx-elf\rx-elf\rx-elf\include\c++\8.3.0.202004-gnurx\cmath ****     constexpr typename
 724:c:\gcc for renesas rx 8.3.0.202004-gnurx-elf\rx-elf\rx-elf\rx-elf\include\c++\8.3.0.202004-gnurx\cmath ****     __gnu_cxx::__enable_if<(__is_arithmetic<_Tp>::__value
 725:c:\gcc for renesas rx 8.3.0.202004-gnurx-elf\rx-elf\rx-elf\rx-elf\include\c++\8.3.0.202004-gnurx\cmath **** 			    && __is_arithmetic<_Up>::__value), bool>::__type
 726:c:\gcc for renesas rx 8.3.0.202004-gnurx-elf\rx-elf\rx-elf\rx-elf\include\c++\8.3.0.202004-gnurx\cmath ****     isgreaterequal(_Tp __x, _Up __y)
 727:c:\gcc for renesas rx 8.3.0.202004-gnurx-elf\rx-elf\rx-elf\rx-elf\include\c++\8.3.0.202004-gnurx\cmath ****     {
 728:c:\gcc for renesas rx 8.3.0.202004-gnurx-elf\rx-elf\rx-elf\rx-elf\include\c++\8.3.0.202004-gnurx\cmath ****       typedef typename __gnu_cxx::__promote_2<_Tp, _Up>::__type __type;
 729:c:\gcc for renesas rx 8.3.0.202004-gnurx-elf\rx-elf\rx-elf\rx-elf\include\c++\8.3.0.202004-gnurx\cmath ****       return __builtin_isgreaterequal(__type(__x), __type(__y));
 730:c:\gcc for renesas rx 8.3.0.202004-gnurx-elf\rx-elf\rx-elf\rx-elf\include\c++\8.3.0.202004-gnurx\cmath ****     }
 731:c:\gcc for renesas rx 8.3.0.202004-gnurx-elf\rx-elf\rx-elf\rx-elf\include\c++\8.3.0.202004-gnurx\cmath **** #endif
 732:c:\gcc for renesas rx 8.3.0.202004-gnurx-elf\rx-elf\rx-elf\rx-elf\include\c++\8.3.0.202004-gnurx\cmath **** 
 733:c:\gcc for renesas rx 8.3.0.202004-gnurx-elf\rx-elf\rx-elf\rx-elf\include\c++\8.3.0.202004-gnurx\cmath **** #ifndef __CORRECT_ISO_CPP11_MATH_H_PROTO_FP
 734:c:\gcc for renesas rx 8.3.0.202004-gnurx-elf\rx-elf\rx-elf\rx-elf\include\c++\8.3.0.202004-gnurx\cmath ****   constexpr bool
 735:c:\gcc for renesas rx 8.3.0.202004-gnurx-elf\rx-elf\rx-elf\rx-elf\include\c++\8.3.0.202004-gnurx\cmath ****   isless(float __x, float __y)
 736:c:\gcc for renesas rx 8.3.0.202004-gnurx-elf\rx-elf\rx-elf\rx-elf\include\c++\8.3.0.202004-gnurx\cmath ****   { return __builtin_isless(__x, __y); }
 737:c:\gcc for renesas rx 8.3.0.202004-gnurx-elf\rx-elf\rx-elf\rx-elf\include\c++\8.3.0.202004-gnurx\cmath **** 
 738:c:\gcc for renesas rx 8.3.0.202004-gnurx-elf\rx-elf\rx-elf\rx-elf\include\c++\8.3.0.202004-gnurx\cmath ****   constexpr bool
 739:c:\gcc for renesas rx 8.3.0.202004-gnurx-elf\rx-elf\rx-elf\rx-elf\include\c++\8.3.0.202004-gnurx\cmath ****   isless(double __x, double __y)
 740:c:\gcc for renesas rx 8.3.0.202004-gnurx-elf\rx-elf\rx-elf\rx-elf\include\c++\8.3.0.202004-gnurx\cmath ****   { return __builtin_isless(__x, __y); }
 741:c:\gcc for renesas rx 8.3.0.202004-gnurx-elf\rx-elf\rx-elf\rx-elf\include\c++\8.3.0.202004-gnurx\cmath **** 
 742:c:\gcc for renesas rx 8.3.0.202004-gnurx-elf\rx-elf\rx-elf\rx-elf\include\c++\8.3.0.202004-gnurx\cmath ****   constexpr bool
 743:c:\gcc for renesas rx 8.3.0.202004-gnurx-elf\rx-elf\rx-elf\rx-elf\include\c++\8.3.0.202004-gnurx\cmath ****   isless(long double __x, long double __y)
 744:c:\gcc for renesas rx 8.3.0.202004-gnurx-elf\rx-elf\rx-elf\rx-elf\include\c++\8.3.0.202004-gnurx\cmath ****   { return __builtin_isless(__x, __y); }
 745:c:\gcc for renesas rx 8.3.0.202004-gnurx-elf\rx-elf\rx-elf\rx-elf\include\c++\8.3.0.202004-gnurx\cmath **** #endif
 746:c:\gcc for renesas rx 8.3.0.202004-gnurx-elf\rx-elf\rx-elf\rx-elf\include\c++\8.3.0.202004-gnurx\cmath **** 
 747:c:\gcc for renesas rx 8.3.0.202004-gnurx-elf\rx-elf\rx-elf\rx-elf\include\c++\8.3.0.202004-gnurx\cmath **** #ifndef __CORRECT_ISO_CPP11_MATH_H_PROTO_INT
 748:c:\gcc for renesas rx 8.3.0.202004-gnurx-elf\rx-elf\rx-elf\rx-elf\include\c++\8.3.0.202004-gnurx\cmath ****   template<typename _Tp, typename _Up>
 749:c:\gcc for renesas rx 8.3.0.202004-gnurx-elf\rx-elf\rx-elf\rx-elf\include\c++\8.3.0.202004-gnurx\cmath ****     constexpr typename
 750:c:\gcc for renesas rx 8.3.0.202004-gnurx-elf\rx-elf\rx-elf\rx-elf\include\c++\8.3.0.202004-gnurx\cmath ****     __gnu_cxx::__enable_if<(__is_arithmetic<_Tp>::__value
 751:c:\gcc for renesas rx 8.3.0.202004-gnurx-elf\rx-elf\rx-elf\rx-elf\include\c++\8.3.0.202004-gnurx\cmath **** 			    && __is_arithmetic<_Up>::__value), bool>::__type
 752:c:\gcc for renesas rx 8.3.0.202004-gnurx-elf\rx-elf\rx-elf\rx-elf\include\c++\8.3.0.202004-gnurx\cmath ****     isless(_Tp __x, _Up __y)
 753:c:\gcc for renesas rx 8.3.0.202004-gnurx-elf\rx-elf\rx-elf\rx-elf\include\c++\8.3.0.202004-gnurx\cmath ****     {
 754:c:\gcc for renesas rx 8.3.0.202004-gnurx-elf\rx-elf\rx-elf\rx-elf\include\c++\8.3.0.202004-gnurx\cmath ****       typedef typename __gnu_cxx::__promote_2<_Tp, _Up>::__type __type;
 755:c:\gcc for renesas rx 8.3.0.202004-gnurx-elf\rx-elf\rx-elf\rx-elf\include\c++\8.3.0.202004-gnurx\cmath ****       return __builtin_isless(__type(__x), __type(__y));
 756:c:\gcc for renesas rx 8.3.0.202004-gnurx-elf\rx-elf\rx-elf\rx-elf\include\c++\8.3.0.202004-gnurx\cmath ****     }
 757:c:\gcc for renesas rx 8.3.0.202004-gnurx-elf\rx-elf\rx-elf\rx-elf\include\c++\8.3.0.202004-gnurx\cmath **** #endif
 758:c:\gcc for renesas rx 8.3.0.202004-gnurx-elf\rx-elf\rx-elf\rx-elf\include\c++\8.3.0.202004-gnurx\cmath **** 
 759:c:\gcc for renesas rx 8.3.0.202004-gnurx-elf\rx-elf\rx-elf\rx-elf\include\c++\8.3.0.202004-gnurx\cmath **** #ifndef __CORRECT_ISO_CPP11_MATH_H_PROTO_FP
 760:c:\gcc for renesas rx 8.3.0.202004-gnurx-elf\rx-elf\rx-elf\rx-elf\include\c++\8.3.0.202004-gnurx\cmath ****   constexpr bool
 761:c:\gcc for renesas rx 8.3.0.202004-gnurx-elf\rx-elf\rx-elf\rx-elf\include\c++\8.3.0.202004-gnurx\cmath ****   islessequal(float __x, float __y)
 762:c:\gcc for renesas rx 8.3.0.202004-gnurx-elf\rx-elf\rx-elf\rx-elf\include\c++\8.3.0.202004-gnurx\cmath ****   { return __builtin_islessequal(__x, __y); }
 763:c:\gcc for renesas rx 8.3.0.202004-gnurx-elf\rx-elf\rx-elf\rx-elf\include\c++\8.3.0.202004-gnurx\cmath **** 
 764:c:\gcc for renesas rx 8.3.0.202004-gnurx-elf\rx-elf\rx-elf\rx-elf\include\c++\8.3.0.202004-gnurx\cmath ****   constexpr bool
 765:c:\gcc for renesas rx 8.3.0.202004-gnurx-elf\rx-elf\rx-elf\rx-elf\include\c++\8.3.0.202004-gnurx\cmath ****   islessequal(double __x, double __y)
 766:c:\gcc for renesas rx 8.3.0.202004-gnurx-elf\rx-elf\rx-elf\rx-elf\include\c++\8.3.0.202004-gnurx\cmath ****   { return __builtin_islessequal(__x, __y); }
 767:c:\gcc for renesas rx 8.3.0.202004-gnurx-elf\rx-elf\rx-elf\rx-elf\include\c++\8.3.0.202004-gnurx\cmath **** 
 768:c:\gcc for renesas rx 8.3.0.202004-gnurx-elf\rx-elf\rx-elf\rx-elf\include\c++\8.3.0.202004-gnurx\cmath ****   constexpr bool
 769:c:\gcc for renesas rx 8.3.0.202004-gnurx-elf\rx-elf\rx-elf\rx-elf\include\c++\8.3.0.202004-gnurx\cmath ****   islessequal(long double __x, long double __y)
 770:c:\gcc for renesas rx 8.3.0.202004-gnurx-elf\rx-elf\rx-elf\rx-elf\include\c++\8.3.0.202004-gnurx\cmath ****   { return __builtin_islessequal(__x, __y); }
 771:c:\gcc for renesas rx 8.3.0.202004-gnurx-elf\rx-elf\rx-elf\rx-elf\include\c++\8.3.0.202004-gnurx\cmath **** #endif
 772:c:\gcc for renesas rx 8.3.0.202004-gnurx-elf\rx-elf\rx-elf\rx-elf\include\c++\8.3.0.202004-gnurx\cmath **** 
 773:c:\gcc for renesas rx 8.3.0.202004-gnurx-elf\rx-elf\rx-elf\rx-elf\include\c++\8.3.0.202004-gnurx\cmath **** #ifndef __CORRECT_ISO_CPP11_MATH_H_PROTO_INT
 774:c:\gcc for renesas rx 8.3.0.202004-gnurx-elf\rx-elf\rx-elf\rx-elf\include\c++\8.3.0.202004-gnurx\cmath ****   template<typename _Tp, typename _Up>
 775:c:\gcc for renesas rx 8.3.0.202004-gnurx-elf\rx-elf\rx-elf\rx-elf\include\c++\8.3.0.202004-gnurx\cmath ****     constexpr typename
 776:c:\gcc for renesas rx 8.3.0.202004-gnurx-elf\rx-elf\rx-elf\rx-elf\include\c++\8.3.0.202004-gnurx\cmath ****     __gnu_cxx::__enable_if<(__is_arithmetic<_Tp>::__value
 777:c:\gcc for renesas rx 8.3.0.202004-gnurx-elf\rx-elf\rx-elf\rx-elf\include\c++\8.3.0.202004-gnurx\cmath **** 			    && __is_arithmetic<_Up>::__value), bool>::__type
 778:c:\gcc for renesas rx 8.3.0.202004-gnurx-elf\rx-elf\rx-elf\rx-elf\include\c++\8.3.0.202004-gnurx\cmath ****     islessequal(_Tp __x, _Up __y)
 779:c:\gcc for renesas rx 8.3.0.202004-gnurx-elf\rx-elf\rx-elf\rx-elf\include\c++\8.3.0.202004-gnurx\cmath ****     {
 780:c:\gcc for renesas rx 8.3.0.202004-gnurx-elf\rx-elf\rx-elf\rx-elf\include\c++\8.3.0.202004-gnurx\cmath ****       typedef typename __gnu_cxx::__promote_2<_Tp, _Up>::__type __type;
 781:c:\gcc for renesas rx 8.3.0.202004-gnurx-elf\rx-elf\rx-elf\rx-elf\include\c++\8.3.0.202004-gnurx\cmath ****       return __builtin_islessequal(__type(__x), __type(__y));
 782:c:\gcc for renesas rx 8.3.0.202004-gnurx-elf\rx-elf\rx-elf\rx-elf\include\c++\8.3.0.202004-gnurx\cmath ****     }
 783:c:\gcc for renesas rx 8.3.0.202004-gnurx-elf\rx-elf\rx-elf\rx-elf\include\c++\8.3.0.202004-gnurx\cmath **** #endif
 784:c:\gcc for renesas rx 8.3.0.202004-gnurx-elf\rx-elf\rx-elf\rx-elf\include\c++\8.3.0.202004-gnurx\cmath **** 
 785:c:\gcc for renesas rx 8.3.0.202004-gnurx-elf\rx-elf\rx-elf\rx-elf\include\c++\8.3.0.202004-gnurx\cmath **** #ifndef __CORRECT_ISO_CPP11_MATH_H_PROTO_FP
 786:c:\gcc for renesas rx 8.3.0.202004-gnurx-elf\rx-elf\rx-elf\rx-elf\include\c++\8.3.0.202004-gnurx\cmath ****   constexpr bool
 787:c:\gcc for renesas rx 8.3.0.202004-gnurx-elf\rx-elf\rx-elf\rx-elf\include\c++\8.3.0.202004-gnurx\cmath ****   islessgreater(float __x, float __y)
 788:c:\gcc for renesas rx 8.3.0.202004-gnurx-elf\rx-elf\rx-elf\rx-elf\include\c++\8.3.0.202004-gnurx\cmath ****   { return __builtin_islessgreater(__x, __y); }
 789:c:\gcc for renesas rx 8.3.0.202004-gnurx-elf\rx-elf\rx-elf\rx-elf\include\c++\8.3.0.202004-gnurx\cmath **** 
 790:c:\gcc for renesas rx 8.3.0.202004-gnurx-elf\rx-elf\rx-elf\rx-elf\include\c++\8.3.0.202004-gnurx\cmath ****   constexpr bool
 791:c:\gcc for renesas rx 8.3.0.202004-gnurx-elf\rx-elf\rx-elf\rx-elf\include\c++\8.3.0.202004-gnurx\cmath ****   islessgreater(double __x, double __y)
 792:c:\gcc for renesas rx 8.3.0.202004-gnurx-elf\rx-elf\rx-elf\rx-elf\include\c++\8.3.0.202004-gnurx\cmath ****   { return __builtin_islessgreater(__x, __y); }
 793:c:\gcc for renesas rx 8.3.0.202004-gnurx-elf\rx-elf\rx-elf\rx-elf\include\c++\8.3.0.202004-gnurx\cmath **** 
 794:c:\gcc for renesas rx 8.3.0.202004-gnurx-elf\rx-elf\rx-elf\rx-elf\include\c++\8.3.0.202004-gnurx\cmath ****   constexpr bool
 795:c:\gcc for renesas rx 8.3.0.202004-gnurx-elf\rx-elf\rx-elf\rx-elf\include\c++\8.3.0.202004-gnurx\cmath ****   islessgreater(long double __x, long double __y)
 796:c:\gcc for renesas rx 8.3.0.202004-gnurx-elf\rx-elf\rx-elf\rx-elf\include\c++\8.3.0.202004-gnurx\cmath ****   { return __builtin_islessgreater(__x, __y); }
 797:c:\gcc for renesas rx 8.3.0.202004-gnurx-elf\rx-elf\rx-elf\rx-elf\include\c++\8.3.0.202004-gnurx\cmath **** #endif
 798:c:\gcc for renesas rx 8.3.0.202004-gnurx-elf\rx-elf\rx-elf\rx-elf\include\c++\8.3.0.202004-gnurx\cmath **** 
 799:c:\gcc for renesas rx 8.3.0.202004-gnurx-elf\rx-elf\rx-elf\rx-elf\include\c++\8.3.0.202004-gnurx\cmath **** #ifndef __CORRECT_ISO_CPP11_MATH_H_PROTO_INT
 800:c:\gcc for renesas rx 8.3.0.202004-gnurx-elf\rx-elf\rx-elf\rx-elf\include\c++\8.3.0.202004-gnurx\cmath ****   template<typename _Tp, typename _Up>
 801:c:\gcc for renesas rx 8.3.0.202004-gnurx-elf\rx-elf\rx-elf\rx-elf\include\c++\8.3.0.202004-gnurx\cmath ****     constexpr typename
 802:c:\gcc for renesas rx 8.3.0.202004-gnurx-elf\rx-elf\rx-elf\rx-elf\include\c++\8.3.0.202004-gnurx\cmath ****     __gnu_cxx::__enable_if<(__is_arithmetic<_Tp>::__value
 803:c:\gcc for renesas rx 8.3.0.202004-gnurx-elf\rx-elf\rx-elf\rx-elf\include\c++\8.3.0.202004-gnurx\cmath **** 			    && __is_arithmetic<_Up>::__value), bool>::__type
 804:c:\gcc for renesas rx 8.3.0.202004-gnurx-elf\rx-elf\rx-elf\rx-elf\include\c++\8.3.0.202004-gnurx\cmath ****     islessgreater(_Tp __x, _Up __y)
 805:c:\gcc for renesas rx 8.3.0.202004-gnurx-elf\rx-elf\rx-elf\rx-elf\include\c++\8.3.0.202004-gnurx\cmath ****     {
 806:c:\gcc for renesas rx 8.3.0.202004-gnurx-elf\rx-elf\rx-elf\rx-elf\include\c++\8.3.0.202004-gnurx\cmath ****       typedef typename __gnu_cxx::__promote_2<_Tp, _Up>::__type __type;
 807:c:\gcc for renesas rx 8.3.0.202004-gnurx-elf\rx-elf\rx-elf\rx-elf\include\c++\8.3.0.202004-gnurx\cmath ****       return __builtin_islessgreater(__type(__x), __type(__y));
 808:c:\gcc for renesas rx 8.3.0.202004-gnurx-elf\rx-elf\rx-elf\rx-elf\include\c++\8.3.0.202004-gnurx\cmath ****     }
 809:c:\gcc for renesas rx 8.3.0.202004-gnurx-elf\rx-elf\rx-elf\rx-elf\include\c++\8.3.0.202004-gnurx\cmath **** #endif
 810:c:\gcc for renesas rx 8.3.0.202004-gnurx-elf\rx-elf\rx-elf\rx-elf\include\c++\8.3.0.202004-gnurx\cmath **** 
 811:c:\gcc for renesas rx 8.3.0.202004-gnurx-elf\rx-elf\rx-elf\rx-elf\include\c++\8.3.0.202004-gnurx\cmath **** #ifndef __CORRECT_ISO_CPP11_MATH_H_PROTO_FP
 812:c:\gcc for renesas rx 8.3.0.202004-gnurx-elf\rx-elf\rx-elf\rx-elf\include\c++\8.3.0.202004-gnurx\cmath ****   constexpr bool
 813:c:\gcc for renesas rx 8.3.0.202004-gnurx-elf\rx-elf\rx-elf\rx-elf\include\c++\8.3.0.202004-gnurx\cmath ****   isunordered(float __x, float __y)
 814:c:\gcc for renesas rx 8.3.0.202004-gnurx-elf\rx-elf\rx-elf\rx-elf\include\c++\8.3.0.202004-gnurx\cmath ****   { return __builtin_isunordered(__x, __y); }
 815:c:\gcc for renesas rx 8.3.0.202004-gnurx-elf\rx-elf\rx-elf\rx-elf\include\c++\8.3.0.202004-gnurx\cmath **** 
 816:c:\gcc for renesas rx 8.3.0.202004-gnurx-elf\rx-elf\rx-elf\rx-elf\include\c++\8.3.0.202004-gnurx\cmath ****   constexpr bool
 817:c:\gcc for renesas rx 8.3.0.202004-gnurx-elf\rx-elf\rx-elf\rx-elf\include\c++\8.3.0.202004-gnurx\cmath ****   isunordered(double __x, double __y)
 818:c:\gcc for renesas rx 8.3.0.202004-gnurx-elf\rx-elf\rx-elf\rx-elf\include\c++\8.3.0.202004-gnurx\cmath ****   { return __builtin_isunordered(__x, __y); }
 819:c:\gcc for renesas rx 8.3.0.202004-gnurx-elf\rx-elf\rx-elf\rx-elf\include\c++\8.3.0.202004-gnurx\cmath **** 
 820:c:\gcc for renesas rx 8.3.0.202004-gnurx-elf\rx-elf\rx-elf\rx-elf\include\c++\8.3.0.202004-gnurx\cmath ****   constexpr bool
 821:c:\gcc for renesas rx 8.3.0.202004-gnurx-elf\rx-elf\rx-elf\rx-elf\include\c++\8.3.0.202004-gnurx\cmath ****   isunordered(long double __x, long double __y)
 822:c:\gcc for renesas rx 8.3.0.202004-gnurx-elf\rx-elf\rx-elf\rx-elf\include\c++\8.3.0.202004-gnurx\cmath ****   { return __builtin_isunordered(__x, __y); }
 823:c:\gcc for renesas rx 8.3.0.202004-gnurx-elf\rx-elf\rx-elf\rx-elf\include\c++\8.3.0.202004-gnurx\cmath **** #endif
 824:c:\gcc for renesas rx 8.3.0.202004-gnurx-elf\rx-elf\rx-elf\rx-elf\include\c++\8.3.0.202004-gnurx\cmath **** 
 825:c:\gcc for renesas rx 8.3.0.202004-gnurx-elf\rx-elf\rx-elf\rx-elf\include\c++\8.3.0.202004-gnurx\cmath **** #ifndef __CORRECT_ISO_CPP11_MATH_H_PROTO_INT
 826:c:\gcc for renesas rx 8.3.0.202004-gnurx-elf\rx-elf\rx-elf\rx-elf\include\c++\8.3.0.202004-gnurx\cmath ****   template<typename _Tp, typename _Up>
 827:c:\gcc for renesas rx 8.3.0.202004-gnurx-elf\rx-elf\rx-elf\rx-elf\include\c++\8.3.0.202004-gnurx\cmath ****     constexpr typename
 828:c:\gcc for renesas rx 8.3.0.202004-gnurx-elf\rx-elf\rx-elf\rx-elf\include\c++\8.3.0.202004-gnurx\cmath ****     __gnu_cxx::__enable_if<(__is_arithmetic<_Tp>::__value
 829:c:\gcc for renesas rx 8.3.0.202004-gnurx-elf\rx-elf\rx-elf\rx-elf\include\c++\8.3.0.202004-gnurx\cmath **** 			    && __is_arithmetic<_Up>::__value), bool>::__type
 830:c:\gcc for renesas rx 8.3.0.202004-gnurx-elf\rx-elf\rx-elf\rx-elf\include\c++\8.3.0.202004-gnurx\cmath ****     isunordered(_Tp __x, _Up __y)
 831:c:\gcc for renesas rx 8.3.0.202004-gnurx-elf\rx-elf\rx-elf\rx-elf\include\c++\8.3.0.202004-gnurx\cmath ****     {
 832:c:\gcc for renesas rx 8.3.0.202004-gnurx-elf\rx-elf\rx-elf\rx-elf\include\c++\8.3.0.202004-gnurx\cmath ****       typedef typename __gnu_cxx::__promote_2<_Tp, _Up>::__type __type;
 833:c:\gcc for renesas rx 8.3.0.202004-gnurx-elf\rx-elf\rx-elf\rx-elf\include\c++\8.3.0.202004-gnurx\cmath ****       return __builtin_isunordered(__type(__x), __type(__y));
 834:c:\gcc for renesas rx 8.3.0.202004-gnurx-elf\rx-elf\rx-elf\rx-elf\include\c++\8.3.0.202004-gnurx\cmath ****     }
 835:c:\gcc for renesas rx 8.3.0.202004-gnurx-elf\rx-elf\rx-elf\rx-elf\include\c++\8.3.0.202004-gnurx\cmath **** #endif
 836:c:\gcc for renesas rx 8.3.0.202004-gnurx-elf\rx-elf\rx-elf\rx-elf\include\c++\8.3.0.202004-gnurx\cmath **** 
 837:c:\gcc for renesas rx 8.3.0.202004-gnurx-elf\rx-elf\rx-elf\rx-elf\include\c++\8.3.0.202004-gnurx\cmath **** #else
 838:c:\gcc for renesas rx 8.3.0.202004-gnurx-elf\rx-elf\rx-elf\rx-elf\include\c++\8.3.0.202004-gnurx\cmath **** 
 839:c:\gcc for renesas rx 8.3.0.202004-gnurx-elf\rx-elf\rx-elf\rx-elf\include\c++\8.3.0.202004-gnurx\cmath ****   template<typename _Tp>
 840:c:\gcc for renesas rx 8.3.0.202004-gnurx-elf\rx-elf\rx-elf\rx-elf\include\c++\8.3.0.202004-gnurx\cmath ****     inline typename __gnu_cxx::__enable_if<__is_arithmetic<_Tp>::__value,
 841:c:\gcc for renesas rx 8.3.0.202004-gnurx-elf\rx-elf\rx-elf\rx-elf\include\c++\8.3.0.202004-gnurx\cmath **** 					   int>::__type
 842:c:\gcc for renesas rx 8.3.0.202004-gnurx-elf\rx-elf\rx-elf\rx-elf\include\c++\8.3.0.202004-gnurx\cmath ****     fpclassify(_Tp __f)
 843:c:\gcc for renesas rx 8.3.0.202004-gnurx-elf\rx-elf\rx-elf\rx-elf\include\c++\8.3.0.202004-gnurx\cmath ****     {
 844:c:\gcc for renesas rx 8.3.0.202004-gnurx-elf\rx-elf\rx-elf\rx-elf\include\c++\8.3.0.202004-gnurx\cmath ****       typedef typename __gnu_cxx::__promote<_Tp>::__type __type;
 845:c:\gcc for renesas rx 8.3.0.202004-gnurx-elf\rx-elf\rx-elf\rx-elf\include\c++\8.3.0.202004-gnurx\cmath ****       return __builtin_fpclassify(FP_NAN, FP_INFINITE, FP_NORMAL,
 846:c:\gcc for renesas rx 8.3.0.202004-gnurx-elf\rx-elf\rx-elf\rx-elf\include\c++\8.3.0.202004-gnurx\cmath **** 				  FP_SUBNORMAL, FP_ZERO, __type(__f));
 847:c:\gcc for renesas rx 8.3.0.202004-gnurx-elf\rx-elf\rx-elf\rx-elf\include\c++\8.3.0.202004-gnurx\cmath ****     }
 848:c:\gcc for renesas rx 8.3.0.202004-gnurx-elf\rx-elf\rx-elf\rx-elf\include\c++\8.3.0.202004-gnurx\cmath **** 
 849:c:\gcc for renesas rx 8.3.0.202004-gnurx-elf\rx-elf\rx-elf\rx-elf\include\c++\8.3.0.202004-gnurx\cmath ****   template<typename _Tp>
 850:c:\gcc for renesas rx 8.3.0.202004-gnurx-elf\rx-elf\rx-elf\rx-elf\include\c++\8.3.0.202004-gnurx\cmath ****     inline typename __gnu_cxx::__enable_if<__is_arithmetic<_Tp>::__value,
 851:c:\gcc for renesas rx 8.3.0.202004-gnurx-elf\rx-elf\rx-elf\rx-elf\include\c++\8.3.0.202004-gnurx\cmath **** 					   int>::__type
 852:c:\gcc for renesas rx 8.3.0.202004-gnurx-elf\rx-elf\rx-elf\rx-elf\include\c++\8.3.0.202004-gnurx\cmath ****     isfinite(_Tp __f)
 853:c:\gcc for renesas rx 8.3.0.202004-gnurx-elf\rx-elf\rx-elf\rx-elf\include\c++\8.3.0.202004-gnurx\cmath ****     {
 854:c:\gcc for renesas rx 8.3.0.202004-gnurx-elf\rx-elf\rx-elf\rx-elf\include\c++\8.3.0.202004-gnurx\cmath ****       typedef typename __gnu_cxx::__promote<_Tp>::__type __type;
 855:c:\gcc for renesas rx 8.3.0.202004-gnurx-elf\rx-elf\rx-elf\rx-elf\include\c++\8.3.0.202004-gnurx\cmath ****       return __builtin_isfinite(__type(__f));
 856:c:\gcc for renesas rx 8.3.0.202004-gnurx-elf\rx-elf\rx-elf\rx-elf\include\c++\8.3.0.202004-gnurx\cmath ****     }
 857:c:\gcc for renesas rx 8.3.0.202004-gnurx-elf\rx-elf\rx-elf\rx-elf\include\c++\8.3.0.202004-gnurx\cmath **** 
 858:c:\gcc for renesas rx 8.3.0.202004-gnurx-elf\rx-elf\rx-elf\rx-elf\include\c++\8.3.0.202004-gnurx\cmath ****   template<typename _Tp>
 859:c:\gcc for renesas rx 8.3.0.202004-gnurx-elf\rx-elf\rx-elf\rx-elf\include\c++\8.3.0.202004-gnurx\cmath ****     inline typename __gnu_cxx::__enable_if<__is_arithmetic<_Tp>::__value,
 860:c:\gcc for renesas rx 8.3.0.202004-gnurx-elf\rx-elf\rx-elf\rx-elf\include\c++\8.3.0.202004-gnurx\cmath **** 					   int>::__type
 861:c:\gcc for renesas rx 8.3.0.202004-gnurx-elf\rx-elf\rx-elf\rx-elf\include\c++\8.3.0.202004-gnurx\cmath ****     isinf(_Tp __f)
 862:c:\gcc for renesas rx 8.3.0.202004-gnurx-elf\rx-elf\rx-elf\rx-elf\include\c++\8.3.0.202004-gnurx\cmath ****     {
 863:c:\gcc for renesas rx 8.3.0.202004-gnurx-elf\rx-elf\rx-elf\rx-elf\include\c++\8.3.0.202004-gnurx\cmath ****       typedef typename __gnu_cxx::__promote<_Tp>::__type __type;
 864:c:\gcc for renesas rx 8.3.0.202004-gnurx-elf\rx-elf\rx-elf\rx-elf\include\c++\8.3.0.202004-gnurx\cmath ****       return __builtin_isinf(__type(__f));
 865:c:\gcc for renesas rx 8.3.0.202004-gnurx-elf\rx-elf\rx-elf\rx-elf\include\c++\8.3.0.202004-gnurx\cmath ****     }
 866:c:\gcc for renesas rx 8.3.0.202004-gnurx-elf\rx-elf\rx-elf\rx-elf\include\c++\8.3.0.202004-gnurx\cmath **** 
 867:c:\gcc for renesas rx 8.3.0.202004-gnurx-elf\rx-elf\rx-elf\rx-elf\include\c++\8.3.0.202004-gnurx\cmath ****   template<typename _Tp>
 868:c:\gcc for renesas rx 8.3.0.202004-gnurx-elf\rx-elf\rx-elf\rx-elf\include\c++\8.3.0.202004-gnurx\cmath ****     inline typename __gnu_cxx::__enable_if<__is_arithmetic<_Tp>::__value,
 869:c:\gcc for renesas rx 8.3.0.202004-gnurx-elf\rx-elf\rx-elf\rx-elf\include\c++\8.3.0.202004-gnurx\cmath **** 					   int>::__type
 870:c:\gcc for renesas rx 8.3.0.202004-gnurx-elf\rx-elf\rx-elf\rx-elf\include\c++\8.3.0.202004-gnurx\cmath ****     isnan(_Tp __f)
 871:c:\gcc for renesas rx 8.3.0.202004-gnurx-elf\rx-elf\rx-elf\rx-elf\include\c++\8.3.0.202004-gnurx\cmath ****     {
 872:c:\gcc for renesas rx 8.3.0.202004-gnurx-elf\rx-elf\rx-elf\rx-elf\include\c++\8.3.0.202004-gnurx\cmath ****       typedef typename __gnu_cxx::__promote<_Tp>::__type __type;
 873:c:\gcc for renesas rx 8.3.0.202004-gnurx-elf\rx-elf\rx-elf\rx-elf\include\c++\8.3.0.202004-gnurx\cmath ****       return __builtin_isnan(__type(__f));
 874:c:\gcc for renesas rx 8.3.0.202004-gnurx-elf\rx-elf\rx-elf\rx-elf\include\c++\8.3.0.202004-gnurx\cmath ****     }
 875:c:\gcc for renesas rx 8.3.0.202004-gnurx-elf\rx-elf\rx-elf\rx-elf\include\c++\8.3.0.202004-gnurx\cmath **** 
 876:c:\gcc for renesas rx 8.3.0.202004-gnurx-elf\rx-elf\rx-elf\rx-elf\include\c++\8.3.0.202004-gnurx\cmath ****   template<typename _Tp>
 877:c:\gcc for renesas rx 8.3.0.202004-gnurx-elf\rx-elf\rx-elf\rx-elf\include\c++\8.3.0.202004-gnurx\cmath ****     inline typename __gnu_cxx::__enable_if<__is_arithmetic<_Tp>::__value,
 878:c:\gcc for renesas rx 8.3.0.202004-gnurx-elf\rx-elf\rx-elf\rx-elf\include\c++\8.3.0.202004-gnurx\cmath **** 					   int>::__type
 879:c:\gcc for renesas rx 8.3.0.202004-gnurx-elf\rx-elf\rx-elf\rx-elf\include\c++\8.3.0.202004-gnurx\cmath ****     isnormal(_Tp __f)
 880:c:\gcc for renesas rx 8.3.0.202004-gnurx-elf\rx-elf\rx-elf\rx-elf\include\c++\8.3.0.202004-gnurx\cmath ****     {
 881:c:\gcc for renesas rx 8.3.0.202004-gnurx-elf\rx-elf\rx-elf\rx-elf\include\c++\8.3.0.202004-gnurx\cmath ****       typedef typename __gnu_cxx::__promote<_Tp>::__type __type;
 882:c:\gcc for renesas rx 8.3.0.202004-gnurx-elf\rx-elf\rx-elf\rx-elf\include\c++\8.3.0.202004-gnurx\cmath ****       return __builtin_isnormal(__type(__f));
 883:c:\gcc for renesas rx 8.3.0.202004-gnurx-elf\rx-elf\rx-elf\rx-elf\include\c++\8.3.0.202004-gnurx\cmath ****     }
 884:c:\gcc for renesas rx 8.3.0.202004-gnurx-elf\rx-elf\rx-elf\rx-elf\include\c++\8.3.0.202004-gnurx\cmath **** 
 885:c:\gcc for renesas rx 8.3.0.202004-gnurx-elf\rx-elf\rx-elf\rx-elf\include\c++\8.3.0.202004-gnurx\cmath ****   template<typename _Tp>
 886:c:\gcc for renesas rx 8.3.0.202004-gnurx-elf\rx-elf\rx-elf\rx-elf\include\c++\8.3.0.202004-gnurx\cmath ****     inline typename __gnu_cxx::__enable_if<__is_arithmetic<_Tp>::__value,
 887:c:\gcc for renesas rx 8.3.0.202004-gnurx-elf\rx-elf\rx-elf\rx-elf\include\c++\8.3.0.202004-gnurx\cmath **** 					   int>::__type
 888:c:\gcc for renesas rx 8.3.0.202004-gnurx-elf\rx-elf\rx-elf\rx-elf\include\c++\8.3.0.202004-gnurx\cmath ****     signbit(_Tp __f)
 889:c:\gcc for renesas rx 8.3.0.202004-gnurx-elf\rx-elf\rx-elf\rx-elf\include\c++\8.3.0.202004-gnurx\cmath ****     {
 890:c:\gcc for renesas rx 8.3.0.202004-gnurx-elf\rx-elf\rx-elf\rx-elf\include\c++\8.3.0.202004-gnurx\cmath ****       typedef typename __gnu_cxx::__promote<_Tp>::__type __type;
 891:c:\gcc for renesas rx 8.3.0.202004-gnurx-elf\rx-elf\rx-elf\rx-elf\include\c++\8.3.0.202004-gnurx\cmath ****       return __builtin_signbit(__type(__f));
 892:c:\gcc for renesas rx 8.3.0.202004-gnurx-elf\rx-elf\rx-elf\rx-elf\include\c++\8.3.0.202004-gnurx\cmath ****     }
 893:c:\gcc for renesas rx 8.3.0.202004-gnurx-elf\rx-elf\rx-elf\rx-elf\include\c++\8.3.0.202004-gnurx\cmath **** 
 894:c:\gcc for renesas rx 8.3.0.202004-gnurx-elf\rx-elf\rx-elf\rx-elf\include\c++\8.3.0.202004-gnurx\cmath ****   template<typename _Tp>
 895:c:\gcc for renesas rx 8.3.0.202004-gnurx-elf\rx-elf\rx-elf\rx-elf\include\c++\8.3.0.202004-gnurx\cmath ****     inline typename __gnu_cxx::__enable_if<__is_arithmetic<_Tp>::__value,
 896:c:\gcc for renesas rx 8.3.0.202004-gnurx-elf\rx-elf\rx-elf\rx-elf\include\c++\8.3.0.202004-gnurx\cmath **** 					   int>::__type
 897:c:\gcc for renesas rx 8.3.0.202004-gnurx-elf\rx-elf\rx-elf\rx-elf\include\c++\8.3.0.202004-gnurx\cmath ****     isgreater(_Tp __f1, _Tp __f2)
 898:c:\gcc for renesas rx 8.3.0.202004-gnurx-elf\rx-elf\rx-elf\rx-elf\include\c++\8.3.0.202004-gnurx\cmath ****     {
 899:c:\gcc for renesas rx 8.3.0.202004-gnurx-elf\rx-elf\rx-elf\rx-elf\include\c++\8.3.0.202004-gnurx\cmath ****       typedef typename __gnu_cxx::__promote<_Tp>::__type __type;
 900:c:\gcc for renesas rx 8.3.0.202004-gnurx-elf\rx-elf\rx-elf\rx-elf\include\c++\8.3.0.202004-gnurx\cmath ****       return __builtin_isgreater(__type(__f1), __type(__f2));
 901:c:\gcc for renesas rx 8.3.0.202004-gnurx-elf\rx-elf\rx-elf\rx-elf\include\c++\8.3.0.202004-gnurx\cmath ****     }
 902:c:\gcc for renesas rx 8.3.0.202004-gnurx-elf\rx-elf\rx-elf\rx-elf\include\c++\8.3.0.202004-gnurx\cmath **** 
 903:c:\gcc for renesas rx 8.3.0.202004-gnurx-elf\rx-elf\rx-elf\rx-elf\include\c++\8.3.0.202004-gnurx\cmath ****   template<typename _Tp>
 904:c:\gcc for renesas rx 8.3.0.202004-gnurx-elf\rx-elf\rx-elf\rx-elf\include\c++\8.3.0.202004-gnurx\cmath ****     inline typename __gnu_cxx::__enable_if<__is_arithmetic<_Tp>::__value,
 905:c:\gcc for renesas rx 8.3.0.202004-gnurx-elf\rx-elf\rx-elf\rx-elf\include\c++\8.3.0.202004-gnurx\cmath **** 					   int>::__type
 906:c:\gcc for renesas rx 8.3.0.202004-gnurx-elf\rx-elf\rx-elf\rx-elf\include\c++\8.3.0.202004-gnurx\cmath ****     isgreaterequal(_Tp __f1, _Tp __f2)
 907:c:\gcc for renesas rx 8.3.0.202004-gnurx-elf\rx-elf\rx-elf\rx-elf\include\c++\8.3.0.202004-gnurx\cmath ****     {
 908:c:\gcc for renesas rx 8.3.0.202004-gnurx-elf\rx-elf\rx-elf\rx-elf\include\c++\8.3.0.202004-gnurx\cmath ****       typedef typename __gnu_cxx::__promote<_Tp>::__type __type;
 909:c:\gcc for renesas rx 8.3.0.202004-gnurx-elf\rx-elf\rx-elf\rx-elf\include\c++\8.3.0.202004-gnurx\cmath ****       return __builtin_isgreaterequal(__type(__f1), __type(__f2));
 910:c:\gcc for renesas rx 8.3.0.202004-gnurx-elf\rx-elf\rx-elf\rx-elf\include\c++\8.3.0.202004-gnurx\cmath ****     }
 911:c:\gcc for renesas rx 8.3.0.202004-gnurx-elf\rx-elf\rx-elf\rx-elf\include\c++\8.3.0.202004-gnurx\cmath **** 
 912:c:\gcc for renesas rx 8.3.0.202004-gnurx-elf\rx-elf\rx-elf\rx-elf\include\c++\8.3.0.202004-gnurx\cmath ****   template<typename _Tp>
 913:c:\gcc for renesas rx 8.3.0.202004-gnurx-elf\rx-elf\rx-elf\rx-elf\include\c++\8.3.0.202004-gnurx\cmath ****     inline typename __gnu_cxx::__enable_if<__is_arithmetic<_Tp>::__value,
 914:c:\gcc for renesas rx 8.3.0.202004-gnurx-elf\rx-elf\rx-elf\rx-elf\include\c++\8.3.0.202004-gnurx\cmath **** 					   int>::__type
 915:c:\gcc for renesas rx 8.3.0.202004-gnurx-elf\rx-elf\rx-elf\rx-elf\include\c++\8.3.0.202004-gnurx\cmath ****     isless(_Tp __f1, _Tp __f2)
 916:c:\gcc for renesas rx 8.3.0.202004-gnurx-elf\rx-elf\rx-elf\rx-elf\include\c++\8.3.0.202004-gnurx\cmath ****     {
 917:c:\gcc for renesas rx 8.3.0.202004-gnurx-elf\rx-elf\rx-elf\rx-elf\include\c++\8.3.0.202004-gnurx\cmath ****       typedef typename __gnu_cxx::__promote<_Tp>::__type __type;
 918:c:\gcc for renesas rx 8.3.0.202004-gnurx-elf\rx-elf\rx-elf\rx-elf\include\c++\8.3.0.202004-gnurx\cmath ****       return __builtin_isless(__type(__f1), __type(__f2));
 919:c:\gcc for renesas rx 8.3.0.202004-gnurx-elf\rx-elf\rx-elf\rx-elf\include\c++\8.3.0.202004-gnurx\cmath ****     }
 920:c:\gcc for renesas rx 8.3.0.202004-gnurx-elf\rx-elf\rx-elf\rx-elf\include\c++\8.3.0.202004-gnurx\cmath **** 
 921:c:\gcc for renesas rx 8.3.0.202004-gnurx-elf\rx-elf\rx-elf\rx-elf\include\c++\8.3.0.202004-gnurx\cmath ****   template<typename _Tp>
 922:c:\gcc for renesas rx 8.3.0.202004-gnurx-elf\rx-elf\rx-elf\rx-elf\include\c++\8.3.0.202004-gnurx\cmath ****     inline typename __gnu_cxx::__enable_if<__is_arithmetic<_Tp>::__value,
 923:c:\gcc for renesas rx 8.3.0.202004-gnurx-elf\rx-elf\rx-elf\rx-elf\include\c++\8.3.0.202004-gnurx\cmath **** 					   int>::__type
 924:c:\gcc for renesas rx 8.3.0.202004-gnurx-elf\rx-elf\rx-elf\rx-elf\include\c++\8.3.0.202004-gnurx\cmath ****     islessequal(_Tp __f1, _Tp __f2)
 925:c:\gcc for renesas rx 8.3.0.202004-gnurx-elf\rx-elf\rx-elf\rx-elf\include\c++\8.3.0.202004-gnurx\cmath ****     {
 926:c:\gcc for renesas rx 8.3.0.202004-gnurx-elf\rx-elf\rx-elf\rx-elf\include\c++\8.3.0.202004-gnurx\cmath ****       typedef typename __gnu_cxx::__promote<_Tp>::__type __type;
 927:c:\gcc for renesas rx 8.3.0.202004-gnurx-elf\rx-elf\rx-elf\rx-elf\include\c++\8.3.0.202004-gnurx\cmath ****       return __builtin_islessequal(__type(__f1), __type(__f2));
 928:c:\gcc for renesas rx 8.3.0.202004-gnurx-elf\rx-elf\rx-elf\rx-elf\include\c++\8.3.0.202004-gnurx\cmath ****     }
 929:c:\gcc for renesas rx 8.3.0.202004-gnurx-elf\rx-elf\rx-elf\rx-elf\include\c++\8.3.0.202004-gnurx\cmath **** 
 930:c:\gcc for renesas rx 8.3.0.202004-gnurx-elf\rx-elf\rx-elf\rx-elf\include\c++\8.3.0.202004-gnurx\cmath ****   template<typename _Tp>
 931:c:\gcc for renesas rx 8.3.0.202004-gnurx-elf\rx-elf\rx-elf\rx-elf\include\c++\8.3.0.202004-gnurx\cmath ****     inline typename __gnu_cxx::__enable_if<__is_arithmetic<_Tp>::__value,
 932:c:\gcc for renesas rx 8.3.0.202004-gnurx-elf\rx-elf\rx-elf\rx-elf\include\c++\8.3.0.202004-gnurx\cmath **** 					   int>::__type
 933:c:\gcc for renesas rx 8.3.0.202004-gnurx-elf\rx-elf\rx-elf\rx-elf\include\c++\8.3.0.202004-gnurx\cmath ****     islessgreater(_Tp __f1, _Tp __f2)
 934:c:\gcc for renesas rx 8.3.0.202004-gnurx-elf\rx-elf\rx-elf\rx-elf\include\c++\8.3.0.202004-gnurx\cmath ****     {
 935:c:\gcc for renesas rx 8.3.0.202004-gnurx-elf\rx-elf\rx-elf\rx-elf\include\c++\8.3.0.202004-gnurx\cmath ****       typedef typename __gnu_cxx::__promote<_Tp>::__type __type;
 936:c:\gcc for renesas rx 8.3.0.202004-gnurx-elf\rx-elf\rx-elf\rx-elf\include\c++\8.3.0.202004-gnurx\cmath ****       return __builtin_islessgreater(__type(__f1), __type(__f2));
 937:c:\gcc for renesas rx 8.3.0.202004-gnurx-elf\rx-elf\rx-elf\rx-elf\include\c++\8.3.0.202004-gnurx\cmath ****     }
 938:c:\gcc for renesas rx 8.3.0.202004-gnurx-elf\rx-elf\rx-elf\rx-elf\include\c++\8.3.0.202004-gnurx\cmath **** 
 939:c:\gcc for renesas rx 8.3.0.202004-gnurx-elf\rx-elf\rx-elf\rx-elf\include\c++\8.3.0.202004-gnurx\cmath ****   template<typename _Tp>
 940:c:\gcc for renesas rx 8.3.0.202004-gnurx-elf\rx-elf\rx-elf\rx-elf\include\c++\8.3.0.202004-gnurx\cmath ****     inline typename __gnu_cxx::__enable_if<__is_arithmetic<_Tp>::__value,
 941:c:\gcc for renesas rx 8.3.0.202004-gnurx-elf\rx-elf\rx-elf\rx-elf\include\c++\8.3.0.202004-gnurx\cmath **** 					   int>::__type
 942:c:\gcc for renesas rx 8.3.0.202004-gnurx-elf\rx-elf\rx-elf\rx-elf\include\c++\8.3.0.202004-gnurx\cmath ****     isunordered(_Tp __f1, _Tp __f2)
 943:c:\gcc for renesas rx 8.3.0.202004-gnurx-elf\rx-elf\rx-elf\rx-elf\include\c++\8.3.0.202004-gnurx\cmath ****     {
 944:c:\gcc for renesas rx 8.3.0.202004-gnurx-elf\rx-elf\rx-elf\rx-elf\include\c++\8.3.0.202004-gnurx\cmath ****       typedef typename __gnu_cxx::__promote<_Tp>::__type __type;
 945:c:\gcc for renesas rx 8.3.0.202004-gnurx-elf\rx-elf\rx-elf\rx-elf\include\c++\8.3.0.202004-gnurx\cmath ****       return __builtin_isunordered(__type(__f1), __type(__f2));
 946:c:\gcc for renesas rx 8.3.0.202004-gnurx-elf\rx-elf\rx-elf\rx-elf\include\c++\8.3.0.202004-gnurx\cmath ****     }
 947:c:\gcc for renesas rx 8.3.0.202004-gnurx-elf\rx-elf\rx-elf\rx-elf\include\c++\8.3.0.202004-gnurx\cmath **** 
 948:c:\gcc for renesas rx 8.3.0.202004-gnurx-elf\rx-elf\rx-elf\rx-elf\include\c++\8.3.0.202004-gnurx\cmath **** #endif // C++11
 949:c:\gcc for renesas rx 8.3.0.202004-gnurx-elf\rx-elf\rx-elf\rx-elf\include\c++\8.3.0.202004-gnurx\cmath **** #endif /* _GLIBCXX_USE_C99_FP_MACROS_DYNAMIC */
 950:c:\gcc for renesas rx 8.3.0.202004-gnurx-elf\rx-elf\rx-elf\rx-elf\include\c++\8.3.0.202004-gnurx\cmath **** #endif /* _GLIBCXX_USE_C99_MATH */
 951:c:\gcc for renesas rx 8.3.0.202004-gnurx-elf\rx-elf\rx-elf\rx-elf\include\c++\8.3.0.202004-gnurx\cmath **** 
 952:c:\gcc for renesas rx 8.3.0.202004-gnurx-elf\rx-elf\rx-elf\rx-elf\include\c++\8.3.0.202004-gnurx\cmath **** #if __cplusplus >= 201103L
 953:c:\gcc for renesas rx 8.3.0.202004-gnurx-elf\rx-elf\rx-elf\rx-elf\include\c++\8.3.0.202004-gnurx\cmath **** 
 954:c:\gcc for renesas rx 8.3.0.202004-gnurx-elf\rx-elf\rx-elf\rx-elf\include\c++\8.3.0.202004-gnurx\cmath **** #ifdef _GLIBCXX_USE_C99_MATH_TR1
 955:c:\gcc for renesas rx 8.3.0.202004-gnurx-elf\rx-elf\rx-elf\rx-elf\include\c++\8.3.0.202004-gnurx\cmath **** 
 956:c:\gcc for renesas rx 8.3.0.202004-gnurx-elf\rx-elf\rx-elf\rx-elf\include\c++\8.3.0.202004-gnurx\cmath **** #undef acosh
 957:c:\gcc for renesas rx 8.3.0.202004-gnurx-elf\rx-elf\rx-elf\rx-elf\include\c++\8.3.0.202004-gnurx\cmath **** #undef acoshf
 958:c:\gcc for renesas rx 8.3.0.202004-gnurx-elf\rx-elf\rx-elf\rx-elf\include\c++\8.3.0.202004-gnurx\cmath **** #undef acoshl
 959:c:\gcc for renesas rx 8.3.0.202004-gnurx-elf\rx-elf\rx-elf\rx-elf\include\c++\8.3.0.202004-gnurx\cmath **** #undef asinh
 960:c:\gcc for renesas rx 8.3.0.202004-gnurx-elf\rx-elf\rx-elf\rx-elf\include\c++\8.3.0.202004-gnurx\cmath **** #undef asinhf
 961:c:\gcc for renesas rx 8.3.0.202004-gnurx-elf\rx-elf\rx-elf\rx-elf\include\c++\8.3.0.202004-gnurx\cmath **** #undef asinhl
 962:c:\gcc for renesas rx 8.3.0.202004-gnurx-elf\rx-elf\rx-elf\rx-elf\include\c++\8.3.0.202004-gnurx\cmath **** #undef atanh
 963:c:\gcc for renesas rx 8.3.0.202004-gnurx-elf\rx-elf\rx-elf\rx-elf\include\c++\8.3.0.202004-gnurx\cmath **** #undef atanhf
 964:c:\gcc for renesas rx 8.3.0.202004-gnurx-elf\rx-elf\rx-elf\rx-elf\include\c++\8.3.0.202004-gnurx\cmath **** #undef atanhl
 965:c:\gcc for renesas rx 8.3.0.202004-gnurx-elf\rx-elf\rx-elf\rx-elf\include\c++\8.3.0.202004-gnurx\cmath **** #undef cbrt
 966:c:\gcc for renesas rx 8.3.0.202004-gnurx-elf\rx-elf\rx-elf\rx-elf\include\c++\8.3.0.202004-gnurx\cmath **** #undef cbrtf
 967:c:\gcc for renesas rx 8.3.0.202004-gnurx-elf\rx-elf\rx-elf\rx-elf\include\c++\8.3.0.202004-gnurx\cmath **** #undef cbrtl
 968:c:\gcc for renesas rx 8.3.0.202004-gnurx-elf\rx-elf\rx-elf\rx-elf\include\c++\8.3.0.202004-gnurx\cmath **** #undef copysign
 969:c:\gcc for renesas rx 8.3.0.202004-gnurx-elf\rx-elf\rx-elf\rx-elf\include\c++\8.3.0.202004-gnurx\cmath **** #undef copysignf
 970:c:\gcc for renesas rx 8.3.0.202004-gnurx-elf\rx-elf\rx-elf\rx-elf\include\c++\8.3.0.202004-gnurx\cmath **** #undef copysignl
 971:c:\gcc for renesas rx 8.3.0.202004-gnurx-elf\rx-elf\rx-elf\rx-elf\include\c++\8.3.0.202004-gnurx\cmath **** #undef erf
 972:c:\gcc for renesas rx 8.3.0.202004-gnurx-elf\rx-elf\rx-elf\rx-elf\include\c++\8.3.0.202004-gnurx\cmath **** #undef erff
 973:c:\gcc for renesas rx 8.3.0.202004-gnurx-elf\rx-elf\rx-elf\rx-elf\include\c++\8.3.0.202004-gnurx\cmath **** #undef erfl
 974:c:\gcc for renesas rx 8.3.0.202004-gnurx-elf\rx-elf\rx-elf\rx-elf\include\c++\8.3.0.202004-gnurx\cmath **** #undef erfc
 975:c:\gcc for renesas rx 8.3.0.202004-gnurx-elf\rx-elf\rx-elf\rx-elf\include\c++\8.3.0.202004-gnurx\cmath **** #undef erfcf
 976:c:\gcc for renesas rx 8.3.0.202004-gnurx-elf\rx-elf\rx-elf\rx-elf\include\c++\8.3.0.202004-gnurx\cmath **** #undef erfcl
 977:c:\gcc for renesas rx 8.3.0.202004-gnurx-elf\rx-elf\rx-elf\rx-elf\include\c++\8.3.0.202004-gnurx\cmath **** #undef exp2
 978:c:\gcc for renesas rx 8.3.0.202004-gnurx-elf\rx-elf\rx-elf\rx-elf\include\c++\8.3.0.202004-gnurx\cmath **** #undef exp2f
 979:c:\gcc for renesas rx 8.3.0.202004-gnurx-elf\rx-elf\rx-elf\rx-elf\include\c++\8.3.0.202004-gnurx\cmath **** #undef exp2l
 980:c:\gcc for renesas rx 8.3.0.202004-gnurx-elf\rx-elf\rx-elf\rx-elf\include\c++\8.3.0.202004-gnurx\cmath **** #undef expm1
 981:c:\gcc for renesas rx 8.3.0.202004-gnurx-elf\rx-elf\rx-elf\rx-elf\include\c++\8.3.0.202004-gnurx\cmath **** #undef expm1f
 982:c:\gcc for renesas rx 8.3.0.202004-gnurx-elf\rx-elf\rx-elf\rx-elf\include\c++\8.3.0.202004-gnurx\cmath **** #undef expm1l
 983:c:\gcc for renesas rx 8.3.0.202004-gnurx-elf\rx-elf\rx-elf\rx-elf\include\c++\8.3.0.202004-gnurx\cmath **** #undef fdim
 984:c:\gcc for renesas rx 8.3.0.202004-gnurx-elf\rx-elf\rx-elf\rx-elf\include\c++\8.3.0.202004-gnurx\cmath **** #undef fdimf
 985:c:\gcc for renesas rx 8.3.0.202004-gnurx-elf\rx-elf\rx-elf\rx-elf\include\c++\8.3.0.202004-gnurx\cmath **** #undef fdiml
 986:c:\gcc for renesas rx 8.3.0.202004-gnurx-elf\rx-elf\rx-elf\rx-elf\include\c++\8.3.0.202004-gnurx\cmath **** #undef fma
 987:c:\gcc for renesas rx 8.3.0.202004-gnurx-elf\rx-elf\rx-elf\rx-elf\include\c++\8.3.0.202004-gnurx\cmath **** #undef fmaf
 988:c:\gcc for renesas rx 8.3.0.202004-gnurx-elf\rx-elf\rx-elf\rx-elf\include\c++\8.3.0.202004-gnurx\cmath **** #undef fmal
 989:c:\gcc for renesas rx 8.3.0.202004-gnurx-elf\rx-elf\rx-elf\rx-elf\include\c++\8.3.0.202004-gnurx\cmath **** #undef fmax
 990:c:\gcc for renesas rx 8.3.0.202004-gnurx-elf\rx-elf\rx-elf\rx-elf\include\c++\8.3.0.202004-gnurx\cmath **** #undef fmaxf
 991:c:\gcc for renesas rx 8.3.0.202004-gnurx-elf\rx-elf\rx-elf\rx-elf\include\c++\8.3.0.202004-gnurx\cmath **** #undef fmaxl
 992:c:\gcc for renesas rx 8.3.0.202004-gnurx-elf\rx-elf\rx-elf\rx-elf\include\c++\8.3.0.202004-gnurx\cmath **** #undef fmin
 993:c:\gcc for renesas rx 8.3.0.202004-gnurx-elf\rx-elf\rx-elf\rx-elf\include\c++\8.3.0.202004-gnurx\cmath **** #undef fminf
 994:c:\gcc for renesas rx 8.3.0.202004-gnurx-elf\rx-elf\rx-elf\rx-elf\include\c++\8.3.0.202004-gnurx\cmath **** #undef fminl
 995:c:\gcc for renesas rx 8.3.0.202004-gnurx-elf\rx-elf\rx-elf\rx-elf\include\c++\8.3.0.202004-gnurx\cmath **** #undef hypot
 996:c:\gcc for renesas rx 8.3.0.202004-gnurx-elf\rx-elf\rx-elf\rx-elf\include\c++\8.3.0.202004-gnurx\cmath **** #undef hypotf
 997:c:\gcc for renesas rx 8.3.0.202004-gnurx-elf\rx-elf\rx-elf\rx-elf\include\c++\8.3.0.202004-gnurx\cmath **** #undef hypotl
 998:c:\gcc for renesas rx 8.3.0.202004-gnurx-elf\rx-elf\rx-elf\rx-elf\include\c++\8.3.0.202004-gnurx\cmath **** #undef ilogb
 999:c:\gcc for renesas rx 8.3.0.202004-gnurx-elf\rx-elf\rx-elf\rx-elf\include\c++\8.3.0.202004-gnurx\cmath **** #undef ilogbf
1000:c:\gcc for renesas rx 8.3.0.202004-gnurx-elf\rx-elf\rx-elf\rx-elf\include\c++\8.3.0.202004-gnurx\cmath **** #undef ilogbl
1001:c:\gcc for renesas rx 8.3.0.202004-gnurx-elf\rx-elf\rx-elf\rx-elf\include\c++\8.3.0.202004-gnurx\cmath **** #undef lgamma
1002:c:\gcc for renesas rx 8.3.0.202004-gnurx-elf\rx-elf\rx-elf\rx-elf\include\c++\8.3.0.202004-gnurx\cmath **** #undef lgammaf
1003:c:\gcc for renesas rx 8.3.0.202004-gnurx-elf\rx-elf\rx-elf\rx-elf\include\c++\8.3.0.202004-gnurx\cmath **** #undef lgammal
1004:c:\gcc for renesas rx 8.3.0.202004-gnurx-elf\rx-elf\rx-elf\rx-elf\include\c++\8.3.0.202004-gnurx\cmath **** #ifndef _GLIBCXX_NO_C99_ROUNDING_FUNCS
1005:c:\gcc for renesas rx 8.3.0.202004-gnurx-elf\rx-elf\rx-elf\rx-elf\include\c++\8.3.0.202004-gnurx\cmath **** #undef llrint
1006:c:\gcc for renesas rx 8.3.0.202004-gnurx-elf\rx-elf\rx-elf\rx-elf\include\c++\8.3.0.202004-gnurx\cmath **** #undef llrintf
1007:c:\gcc for renesas rx 8.3.0.202004-gnurx-elf\rx-elf\rx-elf\rx-elf\include\c++\8.3.0.202004-gnurx\cmath **** #undef llrintl
1008:c:\gcc for renesas rx 8.3.0.202004-gnurx-elf\rx-elf\rx-elf\rx-elf\include\c++\8.3.0.202004-gnurx\cmath **** #undef llround
1009:c:\gcc for renesas rx 8.3.0.202004-gnurx-elf\rx-elf\rx-elf\rx-elf\include\c++\8.3.0.202004-gnurx\cmath **** #undef llroundf
1010:c:\gcc for renesas rx 8.3.0.202004-gnurx-elf\rx-elf\rx-elf\rx-elf\include\c++\8.3.0.202004-gnurx\cmath **** #undef llroundl
1011:c:\gcc for renesas rx 8.3.0.202004-gnurx-elf\rx-elf\rx-elf\rx-elf\include\c++\8.3.0.202004-gnurx\cmath **** #endif
1012:c:\gcc for renesas rx 8.3.0.202004-gnurx-elf\rx-elf\rx-elf\rx-elf\include\c++\8.3.0.202004-gnurx\cmath **** #undef log1p
1013:c:\gcc for renesas rx 8.3.0.202004-gnurx-elf\rx-elf\rx-elf\rx-elf\include\c++\8.3.0.202004-gnurx\cmath **** #undef log1pf
1014:c:\gcc for renesas rx 8.3.0.202004-gnurx-elf\rx-elf\rx-elf\rx-elf\include\c++\8.3.0.202004-gnurx\cmath **** #undef log1pl
1015:c:\gcc for renesas rx 8.3.0.202004-gnurx-elf\rx-elf\rx-elf\rx-elf\include\c++\8.3.0.202004-gnurx\cmath **** #undef log2
1016:c:\gcc for renesas rx 8.3.0.202004-gnurx-elf\rx-elf\rx-elf\rx-elf\include\c++\8.3.0.202004-gnurx\cmath **** #undef log2f
1017:c:\gcc for renesas rx 8.3.0.202004-gnurx-elf\rx-elf\rx-elf\rx-elf\include\c++\8.3.0.202004-gnurx\cmath **** #undef log2l
1018:c:\gcc for renesas rx 8.3.0.202004-gnurx-elf\rx-elf\rx-elf\rx-elf\include\c++\8.3.0.202004-gnurx\cmath **** #undef logb
1019:c:\gcc for renesas rx 8.3.0.202004-gnurx-elf\rx-elf\rx-elf\rx-elf\include\c++\8.3.0.202004-gnurx\cmath **** #undef logbf
1020:c:\gcc for renesas rx 8.3.0.202004-gnurx-elf\rx-elf\rx-elf\rx-elf\include\c++\8.3.0.202004-gnurx\cmath **** #undef logbl
1021:c:\gcc for renesas rx 8.3.0.202004-gnurx-elf\rx-elf\rx-elf\rx-elf\include\c++\8.3.0.202004-gnurx\cmath **** #undef lrint
1022:c:\gcc for renesas rx 8.3.0.202004-gnurx-elf\rx-elf\rx-elf\rx-elf\include\c++\8.3.0.202004-gnurx\cmath **** #undef lrintf
1023:c:\gcc for renesas rx 8.3.0.202004-gnurx-elf\rx-elf\rx-elf\rx-elf\include\c++\8.3.0.202004-gnurx\cmath **** #undef lrintl
1024:c:\gcc for renesas rx 8.3.0.202004-gnurx-elf\rx-elf\rx-elf\rx-elf\include\c++\8.3.0.202004-gnurx\cmath **** #undef lround
1025:c:\gcc for renesas rx 8.3.0.202004-gnurx-elf\rx-elf\rx-elf\rx-elf\include\c++\8.3.0.202004-gnurx\cmath **** #undef lroundf
1026:c:\gcc for renesas rx 8.3.0.202004-gnurx-elf\rx-elf\rx-elf\rx-elf\include\c++\8.3.0.202004-gnurx\cmath **** #undef lroundl
1027:c:\gcc for renesas rx 8.3.0.202004-gnurx-elf\rx-elf\rx-elf\rx-elf\include\c++\8.3.0.202004-gnurx\cmath **** #undef nan
1028:c:\gcc for renesas rx 8.3.0.202004-gnurx-elf\rx-elf\rx-elf\rx-elf\include\c++\8.3.0.202004-gnurx\cmath **** #undef nanf
1029:c:\gcc for renesas rx 8.3.0.202004-gnurx-elf\rx-elf\rx-elf\rx-elf\include\c++\8.3.0.202004-gnurx\cmath **** #undef nanl
1030:c:\gcc for renesas rx 8.3.0.202004-gnurx-elf\rx-elf\rx-elf\rx-elf\include\c++\8.3.0.202004-gnurx\cmath **** #undef nearbyint
1031:c:\gcc for renesas rx 8.3.0.202004-gnurx-elf\rx-elf\rx-elf\rx-elf\include\c++\8.3.0.202004-gnurx\cmath **** #undef nearbyintf
1032:c:\gcc for renesas rx 8.3.0.202004-gnurx-elf\rx-elf\rx-elf\rx-elf\include\c++\8.3.0.202004-gnurx\cmath **** #undef nearbyintl
1033:c:\gcc for renesas rx 8.3.0.202004-gnurx-elf\rx-elf\rx-elf\rx-elf\include\c++\8.3.0.202004-gnurx\cmath **** #undef nextafter
1034:c:\gcc for renesas rx 8.3.0.202004-gnurx-elf\rx-elf\rx-elf\rx-elf\include\c++\8.3.0.202004-gnurx\cmath **** #undef nextafterf
1035:c:\gcc for renesas rx 8.3.0.202004-gnurx-elf\rx-elf\rx-elf\rx-elf\include\c++\8.3.0.202004-gnurx\cmath **** #undef nextafterl
1036:c:\gcc for renesas rx 8.3.0.202004-gnurx-elf\rx-elf\rx-elf\rx-elf\include\c++\8.3.0.202004-gnurx\cmath **** #undef nexttoward
1037:c:\gcc for renesas rx 8.3.0.202004-gnurx-elf\rx-elf\rx-elf\rx-elf\include\c++\8.3.0.202004-gnurx\cmath **** #undef nexttowardf
1038:c:\gcc for renesas rx 8.3.0.202004-gnurx-elf\rx-elf\rx-elf\rx-elf\include\c++\8.3.0.202004-gnurx\cmath **** #undef nexttowardl
1039:c:\gcc for renesas rx 8.3.0.202004-gnurx-elf\rx-elf\rx-elf\rx-elf\include\c++\8.3.0.202004-gnurx\cmath **** #undef remainder
1040:c:\gcc for renesas rx 8.3.0.202004-gnurx-elf\rx-elf\rx-elf\rx-elf\include\c++\8.3.0.202004-gnurx\cmath **** #undef remainderf
1041:c:\gcc for renesas rx 8.3.0.202004-gnurx-elf\rx-elf\rx-elf\rx-elf\include\c++\8.3.0.202004-gnurx\cmath **** #undef remainderl
1042:c:\gcc for renesas rx 8.3.0.202004-gnurx-elf\rx-elf\rx-elf\rx-elf\include\c++\8.3.0.202004-gnurx\cmath **** #undef remquo
1043:c:\gcc for renesas rx 8.3.0.202004-gnurx-elf\rx-elf\rx-elf\rx-elf\include\c++\8.3.0.202004-gnurx\cmath **** #undef remquof
1044:c:\gcc for renesas rx 8.3.0.202004-gnurx-elf\rx-elf\rx-elf\rx-elf\include\c++\8.3.0.202004-gnurx\cmath **** #undef remquol
1045:c:\gcc for renesas rx 8.3.0.202004-gnurx-elf\rx-elf\rx-elf\rx-elf\include\c++\8.3.0.202004-gnurx\cmath **** #undef rint
1046:c:\gcc for renesas rx 8.3.0.202004-gnurx-elf\rx-elf\rx-elf\rx-elf\include\c++\8.3.0.202004-gnurx\cmath **** #undef rintf
1047:c:\gcc for renesas rx 8.3.0.202004-gnurx-elf\rx-elf\rx-elf\rx-elf\include\c++\8.3.0.202004-gnurx\cmath **** #undef rintl
1048:c:\gcc for renesas rx 8.3.0.202004-gnurx-elf\rx-elf\rx-elf\rx-elf\include\c++\8.3.0.202004-gnurx\cmath **** #undef round
1049:c:\gcc for renesas rx 8.3.0.202004-gnurx-elf\rx-elf\rx-elf\rx-elf\include\c++\8.3.0.202004-gnurx\cmath **** #undef roundf
1050:c:\gcc for renesas rx 8.3.0.202004-gnurx-elf\rx-elf\rx-elf\rx-elf\include\c++\8.3.0.202004-gnurx\cmath **** #undef roundl
1051:c:\gcc for renesas rx 8.3.0.202004-gnurx-elf\rx-elf\rx-elf\rx-elf\include\c++\8.3.0.202004-gnurx\cmath **** #undef scalbln
1052:c:\gcc for renesas rx 8.3.0.202004-gnurx-elf\rx-elf\rx-elf\rx-elf\include\c++\8.3.0.202004-gnurx\cmath **** #undef scalblnf
1053:c:\gcc for renesas rx 8.3.0.202004-gnurx-elf\rx-elf\rx-elf\rx-elf\include\c++\8.3.0.202004-gnurx\cmath **** #undef scalblnl
1054:c:\gcc for renesas rx 8.3.0.202004-gnurx-elf\rx-elf\rx-elf\rx-elf\include\c++\8.3.0.202004-gnurx\cmath **** #undef scalbn
1055:c:\gcc for renesas rx 8.3.0.202004-gnurx-elf\rx-elf\rx-elf\rx-elf\include\c++\8.3.0.202004-gnurx\cmath **** #undef scalbnf
1056:c:\gcc for renesas rx 8.3.0.202004-gnurx-elf\rx-elf\rx-elf\rx-elf\include\c++\8.3.0.202004-gnurx\cmath **** #undef scalbnl
1057:c:\gcc for renesas rx 8.3.0.202004-gnurx-elf\rx-elf\rx-elf\rx-elf\include\c++\8.3.0.202004-gnurx\cmath **** #undef tgamma
1058:c:\gcc for renesas rx 8.3.0.202004-gnurx-elf\rx-elf\rx-elf\rx-elf\include\c++\8.3.0.202004-gnurx\cmath **** #undef tgammaf
1059:c:\gcc for renesas rx 8.3.0.202004-gnurx-elf\rx-elf\rx-elf\rx-elf\include\c++\8.3.0.202004-gnurx\cmath **** #undef tgammal
1060:c:\gcc for renesas rx 8.3.0.202004-gnurx-elf\rx-elf\rx-elf\rx-elf\include\c++\8.3.0.202004-gnurx\cmath **** #undef trunc
1061:c:\gcc for renesas rx 8.3.0.202004-gnurx-elf\rx-elf\rx-elf\rx-elf\include\c++\8.3.0.202004-gnurx\cmath **** #undef truncf
1062:c:\gcc for renesas rx 8.3.0.202004-gnurx-elf\rx-elf\rx-elf\rx-elf\include\c++\8.3.0.202004-gnurx\cmath **** #undef truncl
1063:c:\gcc for renesas rx 8.3.0.202004-gnurx-elf\rx-elf\rx-elf\rx-elf\include\c++\8.3.0.202004-gnurx\cmath **** 
1064:c:\gcc for renesas rx 8.3.0.202004-gnurx-elf\rx-elf\rx-elf\rx-elf\include\c++\8.3.0.202004-gnurx\cmath ****   // types
1065:c:\gcc for renesas rx 8.3.0.202004-gnurx-elf\rx-elf\rx-elf\rx-elf\include\c++\8.3.0.202004-gnurx\cmath ****   using ::double_t;
1066:c:\gcc for renesas rx 8.3.0.202004-gnurx-elf\rx-elf\rx-elf\rx-elf\include\c++\8.3.0.202004-gnurx\cmath ****   using ::float_t;
1067:c:\gcc for renesas rx 8.3.0.202004-gnurx-elf\rx-elf\rx-elf\rx-elf\include\c++\8.3.0.202004-gnurx\cmath **** 
1068:c:\gcc for renesas rx 8.3.0.202004-gnurx-elf\rx-elf\rx-elf\rx-elf\include\c++\8.3.0.202004-gnurx\cmath ****   // functions
1069:c:\gcc for renesas rx 8.3.0.202004-gnurx-elf\rx-elf\rx-elf\rx-elf\include\c++\8.3.0.202004-gnurx\cmath ****   using ::acosh;
1070:c:\gcc for renesas rx 8.3.0.202004-gnurx-elf\rx-elf\rx-elf\rx-elf\include\c++\8.3.0.202004-gnurx\cmath ****   using ::acoshf;
1071:c:\gcc for renesas rx 8.3.0.202004-gnurx-elf\rx-elf\rx-elf\rx-elf\include\c++\8.3.0.202004-gnurx\cmath ****   using ::acoshl;
1072:c:\gcc for renesas rx 8.3.0.202004-gnurx-elf\rx-elf\rx-elf\rx-elf\include\c++\8.3.0.202004-gnurx\cmath **** 
1073:c:\gcc for renesas rx 8.3.0.202004-gnurx-elf\rx-elf\rx-elf\rx-elf\include\c++\8.3.0.202004-gnurx\cmath ****   using ::asinh;
1074:c:\gcc for renesas rx 8.3.0.202004-gnurx-elf\rx-elf\rx-elf\rx-elf\include\c++\8.3.0.202004-gnurx\cmath ****   using ::asinhf;
1075:c:\gcc for renesas rx 8.3.0.202004-gnurx-elf\rx-elf\rx-elf\rx-elf\include\c++\8.3.0.202004-gnurx\cmath ****   using ::asinhl;
1076:c:\gcc for renesas rx 8.3.0.202004-gnurx-elf\rx-elf\rx-elf\rx-elf\include\c++\8.3.0.202004-gnurx\cmath **** 
1077:c:\gcc for renesas rx 8.3.0.202004-gnurx-elf\rx-elf\rx-elf\rx-elf\include\c++\8.3.0.202004-gnurx\cmath ****   using ::atanh;
1078:c:\gcc for renesas rx 8.3.0.202004-gnurx-elf\rx-elf\rx-elf\rx-elf\include\c++\8.3.0.202004-gnurx\cmath ****   using ::atanhf;
1079:c:\gcc for renesas rx 8.3.0.202004-gnurx-elf\rx-elf\rx-elf\rx-elf\include\c++\8.3.0.202004-gnurx\cmath ****   using ::atanhl;
1080:c:\gcc for renesas rx 8.3.0.202004-gnurx-elf\rx-elf\rx-elf\rx-elf\include\c++\8.3.0.202004-gnurx\cmath **** 
1081:c:\gcc for renesas rx 8.3.0.202004-gnurx-elf\rx-elf\rx-elf\rx-elf\include\c++\8.3.0.202004-gnurx\cmath ****   using ::cbrt;
1082:c:\gcc for renesas rx 8.3.0.202004-gnurx-elf\rx-elf\rx-elf\rx-elf\include\c++\8.3.0.202004-gnurx\cmath ****   using ::cbrtf;
1083:c:\gcc for renesas rx 8.3.0.202004-gnurx-elf\rx-elf\rx-elf\rx-elf\include\c++\8.3.0.202004-gnurx\cmath ****   using ::cbrtl;
1084:c:\gcc for renesas rx 8.3.0.202004-gnurx-elf\rx-elf\rx-elf\rx-elf\include\c++\8.3.0.202004-gnurx\cmath **** 
1085:c:\gcc for renesas rx 8.3.0.202004-gnurx-elf\rx-elf\rx-elf\rx-elf\include\c++\8.3.0.202004-gnurx\cmath ****   using ::copysign;
1086:c:\gcc for renesas rx 8.3.0.202004-gnurx-elf\rx-elf\rx-elf\rx-elf\include\c++\8.3.0.202004-gnurx\cmath ****   using ::copysignf;
1087:c:\gcc for renesas rx 8.3.0.202004-gnurx-elf\rx-elf\rx-elf\rx-elf\include\c++\8.3.0.202004-gnurx\cmath ****   using ::copysignl;
1088:c:\gcc for renesas rx 8.3.0.202004-gnurx-elf\rx-elf\rx-elf\rx-elf\include\c++\8.3.0.202004-gnurx\cmath **** 
1089:c:\gcc for renesas rx 8.3.0.202004-gnurx-elf\rx-elf\rx-elf\rx-elf\include\c++\8.3.0.202004-gnurx\cmath ****   using ::erf;
1090:c:\gcc for renesas rx 8.3.0.202004-gnurx-elf\rx-elf\rx-elf\rx-elf\include\c++\8.3.0.202004-gnurx\cmath ****   using ::erff;
1091:c:\gcc for renesas rx 8.3.0.202004-gnurx-elf\rx-elf\rx-elf\rx-elf\include\c++\8.3.0.202004-gnurx\cmath ****   using ::erfl;
1092:c:\gcc for renesas rx 8.3.0.202004-gnurx-elf\rx-elf\rx-elf\rx-elf\include\c++\8.3.0.202004-gnurx\cmath **** 
1093:c:\gcc for renesas rx 8.3.0.202004-gnurx-elf\rx-elf\rx-elf\rx-elf\include\c++\8.3.0.202004-gnurx\cmath ****   using ::erfc;
1094:c:\gcc for renesas rx 8.3.0.202004-gnurx-elf\rx-elf\rx-elf\rx-elf\include\c++\8.3.0.202004-gnurx\cmath ****   using ::erfcf;
1095:c:\gcc for renesas rx 8.3.0.202004-gnurx-elf\rx-elf\rx-elf\rx-elf\include\c++\8.3.0.202004-gnurx\cmath ****   using ::erfcl;
1096:c:\gcc for renesas rx 8.3.0.202004-gnurx-elf\rx-elf\rx-elf\rx-elf\include\c++\8.3.0.202004-gnurx\cmath **** 
1097:c:\gcc for renesas rx 8.3.0.202004-gnurx-elf\rx-elf\rx-elf\rx-elf\include\c++\8.3.0.202004-gnurx\cmath ****   using ::exp2;
1098:c:\gcc for renesas rx 8.3.0.202004-gnurx-elf\rx-elf\rx-elf\rx-elf\include\c++\8.3.0.202004-gnurx\cmath ****   using ::exp2f;
1099:c:\gcc for renesas rx 8.3.0.202004-gnurx-elf\rx-elf\rx-elf\rx-elf\include\c++\8.3.0.202004-gnurx\cmath ****   using ::exp2l;
1100:c:\gcc for renesas rx 8.3.0.202004-gnurx-elf\rx-elf\rx-elf\rx-elf\include\c++\8.3.0.202004-gnurx\cmath **** 
1101:c:\gcc for renesas rx 8.3.0.202004-gnurx-elf\rx-elf\rx-elf\rx-elf\include\c++\8.3.0.202004-gnurx\cmath ****   using ::expm1;
1102:c:\gcc for renesas rx 8.3.0.202004-gnurx-elf\rx-elf\rx-elf\rx-elf\include\c++\8.3.0.202004-gnurx\cmath ****   using ::expm1f;
1103:c:\gcc for renesas rx 8.3.0.202004-gnurx-elf\rx-elf\rx-elf\rx-elf\include\c++\8.3.0.202004-gnurx\cmath ****   using ::expm1l;
1104:c:\gcc for renesas rx 8.3.0.202004-gnurx-elf\rx-elf\rx-elf\rx-elf\include\c++\8.3.0.202004-gnurx\cmath **** 
1105:c:\gcc for renesas rx 8.3.0.202004-gnurx-elf\rx-elf\rx-elf\rx-elf\include\c++\8.3.0.202004-gnurx\cmath ****   using ::fdim;
1106:c:\gcc for renesas rx 8.3.0.202004-gnurx-elf\rx-elf\rx-elf\rx-elf\include\c++\8.3.0.202004-gnurx\cmath ****   using ::fdimf;
1107:c:\gcc for renesas rx 8.3.0.202004-gnurx-elf\rx-elf\rx-elf\rx-elf\include\c++\8.3.0.202004-gnurx\cmath ****   using ::fdiml;
1108:c:\gcc for renesas rx 8.3.0.202004-gnurx-elf\rx-elf\rx-elf\rx-elf\include\c++\8.3.0.202004-gnurx\cmath **** 
1109:c:\gcc for renesas rx 8.3.0.202004-gnurx-elf\rx-elf\rx-elf\rx-elf\include\c++\8.3.0.202004-gnurx\cmath ****   using ::fma;
1110:c:\gcc for renesas rx 8.3.0.202004-gnurx-elf\rx-elf\rx-elf\rx-elf\include\c++\8.3.0.202004-gnurx\cmath ****   using ::fmaf;
1111:c:\gcc for renesas rx 8.3.0.202004-gnurx-elf\rx-elf\rx-elf\rx-elf\include\c++\8.3.0.202004-gnurx\cmath ****   using ::fmal;
1112:c:\gcc for renesas rx 8.3.0.202004-gnurx-elf\rx-elf\rx-elf\rx-elf\include\c++\8.3.0.202004-gnurx\cmath **** 
1113:c:\gcc for renesas rx 8.3.0.202004-gnurx-elf\rx-elf\rx-elf\rx-elf\include\c++\8.3.0.202004-gnurx\cmath ****   using ::fmax;
1114:c:\gcc for renesas rx 8.3.0.202004-gnurx-elf\rx-elf\rx-elf\rx-elf\include\c++\8.3.0.202004-gnurx\cmath ****   using ::fmaxf;
1115:c:\gcc for renesas rx 8.3.0.202004-gnurx-elf\rx-elf\rx-elf\rx-elf\include\c++\8.3.0.202004-gnurx\cmath ****   using ::fmaxl;
1116:c:\gcc for renesas rx 8.3.0.202004-gnurx-elf\rx-elf\rx-elf\rx-elf\include\c++\8.3.0.202004-gnurx\cmath **** 
1117:c:\gcc for renesas rx 8.3.0.202004-gnurx-elf\rx-elf\rx-elf\rx-elf\include\c++\8.3.0.202004-gnurx\cmath ****   using ::fmin;
1118:c:\gcc for renesas rx 8.3.0.202004-gnurx-elf\rx-elf\rx-elf\rx-elf\include\c++\8.3.0.202004-gnurx\cmath ****   using ::fminf;
1119:c:\gcc for renesas rx 8.3.0.202004-gnurx-elf\rx-elf\rx-elf\rx-elf\include\c++\8.3.0.202004-gnurx\cmath ****   using ::fminl;
1120:c:\gcc for renesas rx 8.3.0.202004-gnurx-elf\rx-elf\rx-elf\rx-elf\include\c++\8.3.0.202004-gnurx\cmath **** 
1121:c:\gcc for renesas rx 8.3.0.202004-gnurx-elf\rx-elf\rx-elf\rx-elf\include\c++\8.3.0.202004-gnurx\cmath ****   using ::hypot;
1122:c:\gcc for renesas rx 8.3.0.202004-gnurx-elf\rx-elf\rx-elf\rx-elf\include\c++\8.3.0.202004-gnurx\cmath ****   using ::hypotf;
1123:c:\gcc for renesas rx 8.3.0.202004-gnurx-elf\rx-elf\rx-elf\rx-elf\include\c++\8.3.0.202004-gnurx\cmath ****   using ::hypotl;
1124:c:\gcc for renesas rx 8.3.0.202004-gnurx-elf\rx-elf\rx-elf\rx-elf\include\c++\8.3.0.202004-gnurx\cmath **** 
1125:c:\gcc for renesas rx 8.3.0.202004-gnurx-elf\rx-elf\rx-elf\rx-elf\include\c++\8.3.0.202004-gnurx\cmath ****   using ::ilogb;
1126:c:\gcc for renesas rx 8.3.0.202004-gnurx-elf\rx-elf\rx-elf\rx-elf\include\c++\8.3.0.202004-gnurx\cmath ****   using ::ilogbf;
1127:c:\gcc for renesas rx 8.3.0.202004-gnurx-elf\rx-elf\rx-elf\rx-elf\include\c++\8.3.0.202004-gnurx\cmath ****   using ::ilogbl;
1128:c:\gcc for renesas rx 8.3.0.202004-gnurx-elf\rx-elf\rx-elf\rx-elf\include\c++\8.3.0.202004-gnurx\cmath **** 
1129:c:\gcc for renesas rx 8.3.0.202004-gnurx-elf\rx-elf\rx-elf\rx-elf\include\c++\8.3.0.202004-gnurx\cmath ****   using ::lgamma;
1130:c:\gcc for renesas rx 8.3.0.202004-gnurx-elf\rx-elf\rx-elf\rx-elf\include\c++\8.3.0.202004-gnurx\cmath ****   using ::lgammaf;
1131:c:\gcc for renesas rx 8.3.0.202004-gnurx-elf\rx-elf\rx-elf\rx-elf\include\c++\8.3.0.202004-gnurx\cmath ****   using ::lgammal;
1132:c:\gcc for renesas rx 8.3.0.202004-gnurx-elf\rx-elf\rx-elf\rx-elf\include\c++\8.3.0.202004-gnurx\cmath **** 
1133:c:\gcc for renesas rx 8.3.0.202004-gnurx-elf\rx-elf\rx-elf\rx-elf\include\c++\8.3.0.202004-gnurx\cmath **** #ifndef _GLIBCXX_NO_C99_ROUNDING_FUNCS
1134:c:\gcc for renesas rx 8.3.0.202004-gnurx-elf\rx-elf\rx-elf\rx-elf\include\c++\8.3.0.202004-gnurx\cmath ****   using ::llrint;
1135:c:\gcc for renesas rx 8.3.0.202004-gnurx-elf\rx-elf\rx-elf\rx-elf\include\c++\8.3.0.202004-gnurx\cmath ****   using ::llrintf;
1136:c:\gcc for renesas rx 8.3.0.202004-gnurx-elf\rx-elf\rx-elf\rx-elf\include\c++\8.3.0.202004-gnurx\cmath ****   using ::llrintl;
1137:c:\gcc for renesas rx 8.3.0.202004-gnurx-elf\rx-elf\rx-elf\rx-elf\include\c++\8.3.0.202004-gnurx\cmath **** 
1138:c:\gcc for renesas rx 8.3.0.202004-gnurx-elf\rx-elf\rx-elf\rx-elf\include\c++\8.3.0.202004-gnurx\cmath ****   using ::llround;
1139:c:\gcc for renesas rx 8.3.0.202004-gnurx-elf\rx-elf\rx-elf\rx-elf\include\c++\8.3.0.202004-gnurx\cmath ****   using ::llroundf;
1140:c:\gcc for renesas rx 8.3.0.202004-gnurx-elf\rx-elf\rx-elf\rx-elf\include\c++\8.3.0.202004-gnurx\cmath ****   using ::llroundl;
1141:c:\gcc for renesas rx 8.3.0.202004-gnurx-elf\rx-elf\rx-elf\rx-elf\include\c++\8.3.0.202004-gnurx\cmath **** #endif
1142:c:\gcc for renesas rx 8.3.0.202004-gnurx-elf\rx-elf\rx-elf\rx-elf\include\c++\8.3.0.202004-gnurx\cmath **** 
1143:c:\gcc for renesas rx 8.3.0.202004-gnurx-elf\rx-elf\rx-elf\rx-elf\include\c++\8.3.0.202004-gnurx\cmath ****   using ::log1p;
1144:c:\gcc for renesas rx 8.3.0.202004-gnurx-elf\rx-elf\rx-elf\rx-elf\include\c++\8.3.0.202004-gnurx\cmath ****   using ::log1pf;
1145:c:\gcc for renesas rx 8.3.0.202004-gnurx-elf\rx-elf\rx-elf\rx-elf\include\c++\8.3.0.202004-gnurx\cmath ****   using ::log1pl;
1146:c:\gcc for renesas rx 8.3.0.202004-gnurx-elf\rx-elf\rx-elf\rx-elf\include\c++\8.3.0.202004-gnurx\cmath **** 
1147:c:\gcc for renesas rx 8.3.0.202004-gnurx-elf\rx-elf\rx-elf\rx-elf\include\c++\8.3.0.202004-gnurx\cmath ****   using ::log2;
1148:c:\gcc for renesas rx 8.3.0.202004-gnurx-elf\rx-elf\rx-elf\rx-elf\include\c++\8.3.0.202004-gnurx\cmath ****   using ::log2f;
1149:c:\gcc for renesas rx 8.3.0.202004-gnurx-elf\rx-elf\rx-elf\rx-elf\include\c++\8.3.0.202004-gnurx\cmath ****   using ::log2l;
1150:c:\gcc for renesas rx 8.3.0.202004-gnurx-elf\rx-elf\rx-elf\rx-elf\include\c++\8.3.0.202004-gnurx\cmath **** 
1151:c:\gcc for renesas rx 8.3.0.202004-gnurx-elf\rx-elf\rx-elf\rx-elf\include\c++\8.3.0.202004-gnurx\cmath ****   using ::logb;
1152:c:\gcc for renesas rx 8.3.0.202004-gnurx-elf\rx-elf\rx-elf\rx-elf\include\c++\8.3.0.202004-gnurx\cmath ****   using ::logbf;
1153:c:\gcc for renesas rx 8.3.0.202004-gnurx-elf\rx-elf\rx-elf\rx-elf\include\c++\8.3.0.202004-gnurx\cmath ****   using ::logbl;
1154:c:\gcc for renesas rx 8.3.0.202004-gnurx-elf\rx-elf\rx-elf\rx-elf\include\c++\8.3.0.202004-gnurx\cmath **** 
1155:c:\gcc for renesas rx 8.3.0.202004-gnurx-elf\rx-elf\rx-elf\rx-elf\include\c++\8.3.0.202004-gnurx\cmath ****   using ::lrint;
1156:c:\gcc for renesas rx 8.3.0.202004-gnurx-elf\rx-elf\rx-elf\rx-elf\include\c++\8.3.0.202004-gnurx\cmath ****   using ::lrintf;
1157:c:\gcc for renesas rx 8.3.0.202004-gnurx-elf\rx-elf\rx-elf\rx-elf\include\c++\8.3.0.202004-gnurx\cmath ****   using ::lrintl;
1158:c:\gcc for renesas rx 8.3.0.202004-gnurx-elf\rx-elf\rx-elf\rx-elf\include\c++\8.3.0.202004-gnurx\cmath **** 
1159:c:\gcc for renesas rx 8.3.0.202004-gnurx-elf\rx-elf\rx-elf\rx-elf\include\c++\8.3.0.202004-gnurx\cmath ****   using ::lround;
1160:c:\gcc for renesas rx 8.3.0.202004-gnurx-elf\rx-elf\rx-elf\rx-elf\include\c++\8.3.0.202004-gnurx\cmath ****   using ::lroundf;
1161:c:\gcc for renesas rx 8.3.0.202004-gnurx-elf\rx-elf\rx-elf\rx-elf\include\c++\8.3.0.202004-gnurx\cmath ****   using ::lroundl;
1162:c:\gcc for renesas rx 8.3.0.202004-gnurx-elf\rx-elf\rx-elf\rx-elf\include\c++\8.3.0.202004-gnurx\cmath **** 
1163:c:\gcc for renesas rx 8.3.0.202004-gnurx-elf\rx-elf\rx-elf\rx-elf\include\c++\8.3.0.202004-gnurx\cmath ****   using ::nan;
1164:c:\gcc for renesas rx 8.3.0.202004-gnurx-elf\rx-elf\rx-elf\rx-elf\include\c++\8.3.0.202004-gnurx\cmath ****   using ::nanf;
1165:c:\gcc for renesas rx 8.3.0.202004-gnurx-elf\rx-elf\rx-elf\rx-elf\include\c++\8.3.0.202004-gnurx\cmath ****   using ::nanl;
1166:c:\gcc for renesas rx 8.3.0.202004-gnurx-elf\rx-elf\rx-elf\rx-elf\include\c++\8.3.0.202004-gnurx\cmath **** 
1167:c:\gcc for renesas rx 8.3.0.202004-gnurx-elf\rx-elf\rx-elf\rx-elf\include\c++\8.3.0.202004-gnurx\cmath ****   using ::nearbyint;
1168:c:\gcc for renesas rx 8.3.0.202004-gnurx-elf\rx-elf\rx-elf\rx-elf\include\c++\8.3.0.202004-gnurx\cmath ****   using ::nearbyintf;
1169:c:\gcc for renesas rx 8.3.0.202004-gnurx-elf\rx-elf\rx-elf\rx-elf\include\c++\8.3.0.202004-gnurx\cmath ****   using ::nearbyintl;
1170:c:\gcc for renesas rx 8.3.0.202004-gnurx-elf\rx-elf\rx-elf\rx-elf\include\c++\8.3.0.202004-gnurx\cmath **** 
1171:c:\gcc for renesas rx 8.3.0.202004-gnurx-elf\rx-elf\rx-elf\rx-elf\include\c++\8.3.0.202004-gnurx\cmath ****   using ::nextafter;
1172:c:\gcc for renesas rx 8.3.0.202004-gnurx-elf\rx-elf\rx-elf\rx-elf\include\c++\8.3.0.202004-gnurx\cmath ****   using ::nextafterf;
1173:c:\gcc for renesas rx 8.3.0.202004-gnurx-elf\rx-elf\rx-elf\rx-elf\include\c++\8.3.0.202004-gnurx\cmath ****   using ::nextafterl;
1174:c:\gcc for renesas rx 8.3.0.202004-gnurx-elf\rx-elf\rx-elf\rx-elf\include\c++\8.3.0.202004-gnurx\cmath **** 
1175:c:\gcc for renesas rx 8.3.0.202004-gnurx-elf\rx-elf\rx-elf\rx-elf\include\c++\8.3.0.202004-gnurx\cmath ****   using ::nexttoward;
1176:c:\gcc for renesas rx 8.3.0.202004-gnurx-elf\rx-elf\rx-elf\rx-elf\include\c++\8.3.0.202004-gnurx\cmath ****   using ::nexttowardf;
1177:c:\gcc for renesas rx 8.3.0.202004-gnurx-elf\rx-elf\rx-elf\rx-elf\include\c++\8.3.0.202004-gnurx\cmath ****   using ::nexttowardl;
1178:c:\gcc for renesas rx 8.3.0.202004-gnurx-elf\rx-elf\rx-elf\rx-elf\include\c++\8.3.0.202004-gnurx\cmath **** 
1179:c:\gcc for renesas rx 8.3.0.202004-gnurx-elf\rx-elf\rx-elf\rx-elf\include\c++\8.3.0.202004-gnurx\cmath ****   using ::remainder;
1180:c:\gcc for renesas rx 8.3.0.202004-gnurx-elf\rx-elf\rx-elf\rx-elf\include\c++\8.3.0.202004-gnurx\cmath ****   using ::remainderf;
1181:c:\gcc for renesas rx 8.3.0.202004-gnurx-elf\rx-elf\rx-elf\rx-elf\include\c++\8.3.0.202004-gnurx\cmath ****   using ::remainderl;
1182:c:\gcc for renesas rx 8.3.0.202004-gnurx-elf\rx-elf\rx-elf\rx-elf\include\c++\8.3.0.202004-gnurx\cmath **** 
1183:c:\gcc for renesas rx 8.3.0.202004-gnurx-elf\rx-elf\rx-elf\rx-elf\include\c++\8.3.0.202004-gnurx\cmath ****   using ::remquo;
1184:c:\gcc for renesas rx 8.3.0.202004-gnurx-elf\rx-elf\rx-elf\rx-elf\include\c++\8.3.0.202004-gnurx\cmath ****   using ::remquof;
1185:c:\gcc for renesas rx 8.3.0.202004-gnurx-elf\rx-elf\rx-elf\rx-elf\include\c++\8.3.0.202004-gnurx\cmath ****   using ::remquol;
1186:c:\gcc for renesas rx 8.3.0.202004-gnurx-elf\rx-elf\rx-elf\rx-elf\include\c++\8.3.0.202004-gnurx\cmath **** 
1187:c:\gcc for renesas rx 8.3.0.202004-gnurx-elf\rx-elf\rx-elf\rx-elf\include\c++\8.3.0.202004-gnurx\cmath ****   using ::rint;
1188:c:\gcc for renesas rx 8.3.0.202004-gnurx-elf\rx-elf\rx-elf\rx-elf\include\c++\8.3.0.202004-gnurx\cmath ****   using ::rintf;
1189:c:\gcc for renesas rx 8.3.0.202004-gnurx-elf\rx-elf\rx-elf\rx-elf\include\c++\8.3.0.202004-gnurx\cmath ****   using ::rintl;
1190:c:\gcc for renesas rx 8.3.0.202004-gnurx-elf\rx-elf\rx-elf\rx-elf\include\c++\8.3.0.202004-gnurx\cmath **** 
1191:c:\gcc for renesas rx 8.3.0.202004-gnurx-elf\rx-elf\rx-elf\rx-elf\include\c++\8.3.0.202004-gnurx\cmath ****   using ::round;
1192:c:\gcc for renesas rx 8.3.0.202004-gnurx-elf\rx-elf\rx-elf\rx-elf\include\c++\8.3.0.202004-gnurx\cmath ****   using ::roundf;
1193:c:\gcc for renesas rx 8.3.0.202004-gnurx-elf\rx-elf\rx-elf\rx-elf\include\c++\8.3.0.202004-gnurx\cmath ****   using ::roundl;
1194:c:\gcc for renesas rx 8.3.0.202004-gnurx-elf\rx-elf\rx-elf\rx-elf\include\c++\8.3.0.202004-gnurx\cmath **** 
1195:c:\gcc for renesas rx 8.3.0.202004-gnurx-elf\rx-elf\rx-elf\rx-elf\include\c++\8.3.0.202004-gnurx\cmath ****   using ::scalbln;
1196:c:\gcc for renesas rx 8.3.0.202004-gnurx-elf\rx-elf\rx-elf\rx-elf\include\c++\8.3.0.202004-gnurx\cmath ****   using ::scalblnf;
1197:c:\gcc for renesas rx 8.3.0.202004-gnurx-elf\rx-elf\rx-elf\rx-elf\include\c++\8.3.0.202004-gnurx\cmath ****   using ::scalblnl;
1198:c:\gcc for renesas rx 8.3.0.202004-gnurx-elf\rx-elf\rx-elf\rx-elf\include\c++\8.3.0.202004-gnurx\cmath **** 
1199:c:\gcc for renesas rx 8.3.0.202004-gnurx-elf\rx-elf\rx-elf\rx-elf\include\c++\8.3.0.202004-gnurx\cmath ****   using ::scalbn;
1200:c:\gcc for renesas rx 8.3.0.202004-gnurx-elf\rx-elf\rx-elf\rx-elf\include\c++\8.3.0.202004-gnurx\cmath ****   using ::scalbnf;
1201:c:\gcc for renesas rx 8.3.0.202004-gnurx-elf\rx-elf\rx-elf\rx-elf\include\c++\8.3.0.202004-gnurx\cmath ****   using ::scalbnl;
1202:c:\gcc for renesas rx 8.3.0.202004-gnurx-elf\rx-elf\rx-elf\rx-elf\include\c++\8.3.0.202004-gnurx\cmath **** 
1203:c:\gcc for renesas rx 8.3.0.202004-gnurx-elf\rx-elf\rx-elf\rx-elf\include\c++\8.3.0.202004-gnurx\cmath ****   using ::tgamma;
1204:c:\gcc for renesas rx 8.3.0.202004-gnurx-elf\rx-elf\rx-elf\rx-elf\include\c++\8.3.0.202004-gnurx\cmath ****   using ::tgammaf;
1205:c:\gcc for renesas rx 8.3.0.202004-gnurx-elf\rx-elf\rx-elf\rx-elf\include\c++\8.3.0.202004-gnurx\cmath ****   using ::tgammal;
1206:c:\gcc for renesas rx 8.3.0.202004-gnurx-elf\rx-elf\rx-elf\rx-elf\include\c++\8.3.0.202004-gnurx\cmath **** 
1207:c:\gcc for renesas rx 8.3.0.202004-gnurx-elf\rx-elf\rx-elf\rx-elf\include\c++\8.3.0.202004-gnurx\cmath ****   using ::trunc;
1208:c:\gcc for renesas rx 8.3.0.202004-gnurx-elf\rx-elf\rx-elf\rx-elf\include\c++\8.3.0.202004-gnurx\cmath ****   using ::truncf;
1209:c:\gcc for renesas rx 8.3.0.202004-gnurx-elf\rx-elf\rx-elf\rx-elf\include\c++\8.3.0.202004-gnurx\cmath ****   using ::truncl;
1210:c:\gcc for renesas rx 8.3.0.202004-gnurx-elf\rx-elf\rx-elf\rx-elf\include\c++\8.3.0.202004-gnurx\cmath **** 
1211:c:\gcc for renesas rx 8.3.0.202004-gnurx-elf\rx-elf\rx-elf\rx-elf\include\c++\8.3.0.202004-gnurx\cmath ****   /// Additional overloads.
1212:c:\gcc for renesas rx 8.3.0.202004-gnurx-elf\rx-elf\rx-elf\rx-elf\include\c++\8.3.0.202004-gnurx\cmath **** #ifndef __CORRECT_ISO_CPP11_MATH_H_PROTO_FP
1213:c:\gcc for renesas rx 8.3.0.202004-gnurx-elf\rx-elf\rx-elf\rx-elf\include\c++\8.3.0.202004-gnurx\cmath ****   constexpr float
1214:c:\gcc for renesas rx 8.3.0.202004-gnurx-elf\rx-elf\rx-elf\rx-elf\include\c++\8.3.0.202004-gnurx\cmath ****   acosh(float __x)
1215:c:\gcc for renesas rx 8.3.0.202004-gnurx-elf\rx-elf\rx-elf\rx-elf\include\c++\8.3.0.202004-gnurx\cmath ****   { return __builtin_acoshf(__x); }
1216:c:\gcc for renesas rx 8.3.0.202004-gnurx-elf\rx-elf\rx-elf\rx-elf\include\c++\8.3.0.202004-gnurx\cmath **** 
1217:c:\gcc for renesas rx 8.3.0.202004-gnurx-elf\rx-elf\rx-elf\rx-elf\include\c++\8.3.0.202004-gnurx\cmath ****   constexpr long double
1218:c:\gcc for renesas rx 8.3.0.202004-gnurx-elf\rx-elf\rx-elf\rx-elf\include\c++\8.3.0.202004-gnurx\cmath ****   acosh(long double __x)
1219:c:\gcc for renesas rx 8.3.0.202004-gnurx-elf\rx-elf\rx-elf\rx-elf\include\c++\8.3.0.202004-gnurx\cmath ****   { return __builtin_acoshl(__x); }
1220:c:\gcc for renesas rx 8.3.0.202004-gnurx-elf\rx-elf\rx-elf\rx-elf\include\c++\8.3.0.202004-gnurx\cmath **** #endif
1221:c:\gcc for renesas rx 8.3.0.202004-gnurx-elf\rx-elf\rx-elf\rx-elf\include\c++\8.3.0.202004-gnurx\cmath **** 
1222:c:\gcc for renesas rx 8.3.0.202004-gnurx-elf\rx-elf\rx-elf\rx-elf\include\c++\8.3.0.202004-gnurx\cmath **** #ifndef __CORRECT_ISO_CPP11_MATH_H_PROTO_INT
1223:c:\gcc for renesas rx 8.3.0.202004-gnurx-elf\rx-elf\rx-elf\rx-elf\include\c++\8.3.0.202004-gnurx\cmath ****   template<typename _Tp>
1224:c:\gcc for renesas rx 8.3.0.202004-gnurx-elf\rx-elf\rx-elf\rx-elf\include\c++\8.3.0.202004-gnurx\cmath ****     constexpr typename __gnu_cxx::__enable_if<__is_integer<_Tp>::__value, 
1225:c:\gcc for renesas rx 8.3.0.202004-gnurx-elf\rx-elf\rx-elf\rx-elf\include\c++\8.3.0.202004-gnurx\cmath ****                                               double>::__type
1226:c:\gcc for renesas rx 8.3.0.202004-gnurx-elf\rx-elf\rx-elf\rx-elf\include\c++\8.3.0.202004-gnurx\cmath ****     acosh(_Tp __x)
1227:c:\gcc for renesas rx 8.3.0.202004-gnurx-elf\rx-elf\rx-elf\rx-elf\include\c++\8.3.0.202004-gnurx\cmath ****     { return __builtin_acosh(__x); }
1228:c:\gcc for renesas rx 8.3.0.202004-gnurx-elf\rx-elf\rx-elf\rx-elf\include\c++\8.3.0.202004-gnurx\cmath **** #endif
1229:c:\gcc for renesas rx 8.3.0.202004-gnurx-elf\rx-elf\rx-elf\rx-elf\include\c++\8.3.0.202004-gnurx\cmath **** 
1230:c:\gcc for renesas rx 8.3.0.202004-gnurx-elf\rx-elf\rx-elf\rx-elf\include\c++\8.3.0.202004-gnurx\cmath **** #ifndef __CORRECT_ISO_CPP11_MATH_H_PROTO_FP
1231:c:\gcc for renesas rx 8.3.0.202004-gnurx-elf\rx-elf\rx-elf\rx-elf\include\c++\8.3.0.202004-gnurx\cmath ****   constexpr float
1232:c:\gcc for renesas rx 8.3.0.202004-gnurx-elf\rx-elf\rx-elf\rx-elf\include\c++\8.3.0.202004-gnurx\cmath ****   asinh(float __x)
1233:c:\gcc for renesas rx 8.3.0.202004-gnurx-elf\rx-elf\rx-elf\rx-elf\include\c++\8.3.0.202004-gnurx\cmath ****   { return __builtin_asinhf(__x); }
1234:c:\gcc for renesas rx 8.3.0.202004-gnurx-elf\rx-elf\rx-elf\rx-elf\include\c++\8.3.0.202004-gnurx\cmath **** 
1235:c:\gcc for renesas rx 8.3.0.202004-gnurx-elf\rx-elf\rx-elf\rx-elf\include\c++\8.3.0.202004-gnurx\cmath ****   constexpr long double
1236:c:\gcc for renesas rx 8.3.0.202004-gnurx-elf\rx-elf\rx-elf\rx-elf\include\c++\8.3.0.202004-gnurx\cmath ****   asinh(long double __x)
1237:c:\gcc for renesas rx 8.3.0.202004-gnurx-elf\rx-elf\rx-elf\rx-elf\include\c++\8.3.0.202004-gnurx\cmath ****   { return __builtin_asinhl(__x); }
1238:c:\gcc for renesas rx 8.3.0.202004-gnurx-elf\rx-elf\rx-elf\rx-elf\include\c++\8.3.0.202004-gnurx\cmath **** #endif
1239:c:\gcc for renesas rx 8.3.0.202004-gnurx-elf\rx-elf\rx-elf\rx-elf\include\c++\8.3.0.202004-gnurx\cmath **** 
1240:c:\gcc for renesas rx 8.3.0.202004-gnurx-elf\rx-elf\rx-elf\rx-elf\include\c++\8.3.0.202004-gnurx\cmath **** #ifndef __CORRECT_ISO_CPP11_MATH_H_PROTO_INT
1241:c:\gcc for renesas rx 8.3.0.202004-gnurx-elf\rx-elf\rx-elf\rx-elf\include\c++\8.3.0.202004-gnurx\cmath ****   template<typename _Tp>
1242:c:\gcc for renesas rx 8.3.0.202004-gnurx-elf\rx-elf\rx-elf\rx-elf\include\c++\8.3.0.202004-gnurx\cmath ****     constexpr typename __gnu_cxx::__enable_if<__is_integer<_Tp>::__value, 
1243:c:\gcc for renesas rx 8.3.0.202004-gnurx-elf\rx-elf\rx-elf\rx-elf\include\c++\8.3.0.202004-gnurx\cmath ****                                               double>::__type
1244:c:\gcc for renesas rx 8.3.0.202004-gnurx-elf\rx-elf\rx-elf\rx-elf\include\c++\8.3.0.202004-gnurx\cmath ****     asinh(_Tp __x)
1245:c:\gcc for renesas rx 8.3.0.202004-gnurx-elf\rx-elf\rx-elf\rx-elf\include\c++\8.3.0.202004-gnurx\cmath ****     { return __builtin_asinh(__x); }
1246:c:\gcc for renesas rx 8.3.0.202004-gnurx-elf\rx-elf\rx-elf\rx-elf\include\c++\8.3.0.202004-gnurx\cmath **** #endif
1247:c:\gcc for renesas rx 8.3.0.202004-gnurx-elf\rx-elf\rx-elf\rx-elf\include\c++\8.3.0.202004-gnurx\cmath **** 
1248:c:\gcc for renesas rx 8.3.0.202004-gnurx-elf\rx-elf\rx-elf\rx-elf\include\c++\8.3.0.202004-gnurx\cmath **** #ifndef __CORRECT_ISO_CPP11_MATH_H_PROTO_FP
1249:c:\gcc for renesas rx 8.3.0.202004-gnurx-elf\rx-elf\rx-elf\rx-elf\include\c++\8.3.0.202004-gnurx\cmath ****   constexpr float
1250:c:\gcc for renesas rx 8.3.0.202004-gnurx-elf\rx-elf\rx-elf\rx-elf\include\c++\8.3.0.202004-gnurx\cmath ****   atanh(float __x)
1251:c:\gcc for renesas rx 8.3.0.202004-gnurx-elf\rx-elf\rx-elf\rx-elf\include\c++\8.3.0.202004-gnurx\cmath ****   { return __builtin_atanhf(__x); }
1252:c:\gcc for renesas rx 8.3.0.202004-gnurx-elf\rx-elf\rx-elf\rx-elf\include\c++\8.3.0.202004-gnurx\cmath **** 
1253:c:\gcc for renesas rx 8.3.0.202004-gnurx-elf\rx-elf\rx-elf\rx-elf\include\c++\8.3.0.202004-gnurx\cmath ****   constexpr long double
1254:c:\gcc for renesas rx 8.3.0.202004-gnurx-elf\rx-elf\rx-elf\rx-elf\include\c++\8.3.0.202004-gnurx\cmath ****   atanh(long double __x)
1255:c:\gcc for renesas rx 8.3.0.202004-gnurx-elf\rx-elf\rx-elf\rx-elf\include\c++\8.3.0.202004-gnurx\cmath ****   { return __builtin_atanhl(__x); }
1256:c:\gcc for renesas rx 8.3.0.202004-gnurx-elf\rx-elf\rx-elf\rx-elf\include\c++\8.3.0.202004-gnurx\cmath **** #endif
1257:c:\gcc for renesas rx 8.3.0.202004-gnurx-elf\rx-elf\rx-elf\rx-elf\include\c++\8.3.0.202004-gnurx\cmath **** 
1258:c:\gcc for renesas rx 8.3.0.202004-gnurx-elf\rx-elf\rx-elf\rx-elf\include\c++\8.3.0.202004-gnurx\cmath **** #ifndef __CORRECT_ISO_CPP11_MATH_H_PROTO_INT
1259:c:\gcc for renesas rx 8.3.0.202004-gnurx-elf\rx-elf\rx-elf\rx-elf\include\c++\8.3.0.202004-gnurx\cmath ****   template<typename _Tp>
1260:c:\gcc for renesas rx 8.3.0.202004-gnurx-elf\rx-elf\rx-elf\rx-elf\include\c++\8.3.0.202004-gnurx\cmath ****     constexpr typename __gnu_cxx::__enable_if<__is_integer<_Tp>::__value, 
1261:c:\gcc for renesas rx 8.3.0.202004-gnurx-elf\rx-elf\rx-elf\rx-elf\include\c++\8.3.0.202004-gnurx\cmath ****                                               double>::__type
1262:c:\gcc for renesas rx 8.3.0.202004-gnurx-elf\rx-elf\rx-elf\rx-elf\include\c++\8.3.0.202004-gnurx\cmath ****     atanh(_Tp __x)
1263:c:\gcc for renesas rx 8.3.0.202004-gnurx-elf\rx-elf\rx-elf\rx-elf\include\c++\8.3.0.202004-gnurx\cmath ****     { return __builtin_atanh(__x); }
1264:c:\gcc for renesas rx 8.3.0.202004-gnurx-elf\rx-elf\rx-elf\rx-elf\include\c++\8.3.0.202004-gnurx\cmath **** #endif
1265:c:\gcc for renesas rx 8.3.0.202004-gnurx-elf\rx-elf\rx-elf\rx-elf\include\c++\8.3.0.202004-gnurx\cmath **** 
1266:c:\gcc for renesas rx 8.3.0.202004-gnurx-elf\rx-elf\rx-elf\rx-elf\include\c++\8.3.0.202004-gnurx\cmath **** #ifndef __CORRECT_ISO_CPP11_MATH_H_PROTO_FP
1267:c:\gcc for renesas rx 8.3.0.202004-gnurx-elf\rx-elf\rx-elf\rx-elf\include\c++\8.3.0.202004-gnurx\cmath ****   constexpr float
1268:c:\gcc for renesas rx 8.3.0.202004-gnurx-elf\rx-elf\rx-elf\rx-elf\include\c++\8.3.0.202004-gnurx\cmath ****   cbrt(float __x)
1269:c:\gcc for renesas rx 8.3.0.202004-gnurx-elf\rx-elf\rx-elf\rx-elf\include\c++\8.3.0.202004-gnurx\cmath ****   { return __builtin_cbrtf(__x); }
1270:c:\gcc for renesas rx 8.3.0.202004-gnurx-elf\rx-elf\rx-elf\rx-elf\include\c++\8.3.0.202004-gnurx\cmath **** 
1271:c:\gcc for renesas rx 8.3.0.202004-gnurx-elf\rx-elf\rx-elf\rx-elf\include\c++\8.3.0.202004-gnurx\cmath ****   constexpr long double
1272:c:\gcc for renesas rx 8.3.0.202004-gnurx-elf\rx-elf\rx-elf\rx-elf\include\c++\8.3.0.202004-gnurx\cmath ****   cbrt(long double __x)
1273:c:\gcc for renesas rx 8.3.0.202004-gnurx-elf\rx-elf\rx-elf\rx-elf\include\c++\8.3.0.202004-gnurx\cmath ****   { return __builtin_cbrtl(__x); }
1274:c:\gcc for renesas rx 8.3.0.202004-gnurx-elf\rx-elf\rx-elf\rx-elf\include\c++\8.3.0.202004-gnurx\cmath **** #endif
1275:c:\gcc for renesas rx 8.3.0.202004-gnurx-elf\rx-elf\rx-elf\rx-elf\include\c++\8.3.0.202004-gnurx\cmath **** 
1276:c:\gcc for renesas rx 8.3.0.202004-gnurx-elf\rx-elf\rx-elf\rx-elf\include\c++\8.3.0.202004-gnurx\cmath **** #ifndef __CORRECT_ISO_CPP11_MATH_H_PROTO_INT
1277:c:\gcc for renesas rx 8.3.0.202004-gnurx-elf\rx-elf\rx-elf\rx-elf\include\c++\8.3.0.202004-gnurx\cmath ****   template<typename _Tp>
1278:c:\gcc for renesas rx 8.3.0.202004-gnurx-elf\rx-elf\rx-elf\rx-elf\include\c++\8.3.0.202004-gnurx\cmath ****     constexpr typename __gnu_cxx::__enable_if<__is_integer<_Tp>::__value, 
1279:c:\gcc for renesas rx 8.3.0.202004-gnurx-elf\rx-elf\rx-elf\rx-elf\include\c++\8.3.0.202004-gnurx\cmath ****                                               double>::__type
1280:c:\gcc for renesas rx 8.3.0.202004-gnurx-elf\rx-elf\rx-elf\rx-elf\include\c++\8.3.0.202004-gnurx\cmath ****     cbrt(_Tp __x)
1281:c:\gcc for renesas rx 8.3.0.202004-gnurx-elf\rx-elf\rx-elf\rx-elf\include\c++\8.3.0.202004-gnurx\cmath ****     { return __builtin_cbrt(__x); }
1282:c:\gcc for renesas rx 8.3.0.202004-gnurx-elf\rx-elf\rx-elf\rx-elf\include\c++\8.3.0.202004-gnurx\cmath **** #endif
1283:c:\gcc for renesas rx 8.3.0.202004-gnurx-elf\rx-elf\rx-elf\rx-elf\include\c++\8.3.0.202004-gnurx\cmath **** 
1284:c:\gcc for renesas rx 8.3.0.202004-gnurx-elf\rx-elf\rx-elf\rx-elf\include\c++\8.3.0.202004-gnurx\cmath **** #ifndef __CORRECT_ISO_CPP11_MATH_H_PROTO_FP
1285:c:\gcc for renesas rx 8.3.0.202004-gnurx-elf\rx-elf\rx-elf\rx-elf\include\c++\8.3.0.202004-gnurx\cmath ****   constexpr float
1286:c:\gcc for renesas rx 8.3.0.202004-gnurx-elf\rx-elf\rx-elf\rx-elf\include\c++\8.3.0.202004-gnurx\cmath ****   copysign(float __x, float __y)
1287:c:\gcc for renesas rx 8.3.0.202004-gnurx-elf\rx-elf\rx-elf\rx-elf\include\c++\8.3.0.202004-gnurx\cmath ****   { return __builtin_copysignf(__x, __y); }
1288:c:\gcc for renesas rx 8.3.0.202004-gnurx-elf\rx-elf\rx-elf\rx-elf\include\c++\8.3.0.202004-gnurx\cmath **** 
1289:c:\gcc for renesas rx 8.3.0.202004-gnurx-elf\rx-elf\rx-elf\rx-elf\include\c++\8.3.0.202004-gnurx\cmath ****   constexpr long double
1290:c:\gcc for renesas rx 8.3.0.202004-gnurx-elf\rx-elf\rx-elf\rx-elf\include\c++\8.3.0.202004-gnurx\cmath ****   copysign(long double __x, long double __y)
1291:c:\gcc for renesas rx 8.3.0.202004-gnurx-elf\rx-elf\rx-elf\rx-elf\include\c++\8.3.0.202004-gnurx\cmath ****   { return __builtin_copysignl(__x, __y); }
1292:c:\gcc for renesas rx 8.3.0.202004-gnurx-elf\rx-elf\rx-elf\rx-elf\include\c++\8.3.0.202004-gnurx\cmath **** #endif
1293:c:\gcc for renesas rx 8.3.0.202004-gnurx-elf\rx-elf\rx-elf\rx-elf\include\c++\8.3.0.202004-gnurx\cmath **** 
1294:c:\gcc for renesas rx 8.3.0.202004-gnurx-elf\rx-elf\rx-elf\rx-elf\include\c++\8.3.0.202004-gnurx\cmath **** #ifndef __CORRECT_ISO_CPP11_MATH_H_PROTO_INT
1295:c:\gcc for renesas rx 8.3.0.202004-gnurx-elf\rx-elf\rx-elf\rx-elf\include\c++\8.3.0.202004-gnurx\cmath ****   template<typename _Tp, typename _Up>
1296:c:\gcc for renesas rx 8.3.0.202004-gnurx-elf\rx-elf\rx-elf\rx-elf\include\c++\8.3.0.202004-gnurx\cmath ****     constexpr typename __gnu_cxx::__promote_2<_Tp, _Up>::__type
1297:c:\gcc for renesas rx 8.3.0.202004-gnurx-elf\rx-elf\rx-elf\rx-elf\include\c++\8.3.0.202004-gnurx\cmath ****     copysign(_Tp __x, _Up __y)
1298:c:\gcc for renesas rx 8.3.0.202004-gnurx-elf\rx-elf\rx-elf\rx-elf\include\c++\8.3.0.202004-gnurx\cmath ****     {
1299:c:\gcc for renesas rx 8.3.0.202004-gnurx-elf\rx-elf\rx-elf\rx-elf\include\c++\8.3.0.202004-gnurx\cmath ****       typedef typename __gnu_cxx::__promote_2<_Tp, _Up>::__type __type;
1300:c:\gcc for renesas rx 8.3.0.202004-gnurx-elf\rx-elf\rx-elf\rx-elf\include\c++\8.3.0.202004-gnurx\cmath ****       return copysign(__type(__x), __type(__y));
1301:c:\gcc for renesas rx 8.3.0.202004-gnurx-elf\rx-elf\rx-elf\rx-elf\include\c++\8.3.0.202004-gnurx\cmath ****     }
1302:c:\gcc for renesas rx 8.3.0.202004-gnurx-elf\rx-elf\rx-elf\rx-elf\include\c++\8.3.0.202004-gnurx\cmath **** #endif
1303:c:\gcc for renesas rx 8.3.0.202004-gnurx-elf\rx-elf\rx-elf\rx-elf\include\c++\8.3.0.202004-gnurx\cmath **** 
1304:c:\gcc for renesas rx 8.3.0.202004-gnurx-elf\rx-elf\rx-elf\rx-elf\include\c++\8.3.0.202004-gnurx\cmath **** #ifndef __CORRECT_ISO_CPP11_MATH_H_PROTO_FP
1305:c:\gcc for renesas rx 8.3.0.202004-gnurx-elf\rx-elf\rx-elf\rx-elf\include\c++\8.3.0.202004-gnurx\cmath ****   constexpr float
1306:c:\gcc for renesas rx 8.3.0.202004-gnurx-elf\rx-elf\rx-elf\rx-elf\include\c++\8.3.0.202004-gnurx\cmath ****   erf(float __x)
1307:c:\gcc for renesas rx 8.3.0.202004-gnurx-elf\rx-elf\rx-elf\rx-elf\include\c++\8.3.0.202004-gnurx\cmath ****   { return __builtin_erff(__x); }
1308:c:\gcc for renesas rx 8.3.0.202004-gnurx-elf\rx-elf\rx-elf\rx-elf\include\c++\8.3.0.202004-gnurx\cmath **** 
1309:c:\gcc for renesas rx 8.3.0.202004-gnurx-elf\rx-elf\rx-elf\rx-elf\include\c++\8.3.0.202004-gnurx\cmath ****   constexpr long double
1310:c:\gcc for renesas rx 8.3.0.202004-gnurx-elf\rx-elf\rx-elf\rx-elf\include\c++\8.3.0.202004-gnurx\cmath ****   erf(long double __x)
1311:c:\gcc for renesas rx 8.3.0.202004-gnurx-elf\rx-elf\rx-elf\rx-elf\include\c++\8.3.0.202004-gnurx\cmath ****   { return __builtin_erfl(__x); }
1312:c:\gcc for renesas rx 8.3.0.202004-gnurx-elf\rx-elf\rx-elf\rx-elf\include\c++\8.3.0.202004-gnurx\cmath **** #endif
1313:c:\gcc for renesas rx 8.3.0.202004-gnurx-elf\rx-elf\rx-elf\rx-elf\include\c++\8.3.0.202004-gnurx\cmath **** 
1314:c:\gcc for renesas rx 8.3.0.202004-gnurx-elf\rx-elf\rx-elf\rx-elf\include\c++\8.3.0.202004-gnurx\cmath **** #ifndef __CORRECT_ISO_CPP11_MATH_H_PROTO_INT
1315:c:\gcc for renesas rx 8.3.0.202004-gnurx-elf\rx-elf\rx-elf\rx-elf\include\c++\8.3.0.202004-gnurx\cmath ****   template<typename _Tp>
1316:c:\gcc for renesas rx 8.3.0.202004-gnurx-elf\rx-elf\rx-elf\rx-elf\include\c++\8.3.0.202004-gnurx\cmath ****     constexpr typename __gnu_cxx::__enable_if<__is_integer<_Tp>::__value, 
1317:c:\gcc for renesas rx 8.3.0.202004-gnurx-elf\rx-elf\rx-elf\rx-elf\include\c++\8.3.0.202004-gnurx\cmath ****                                               double>::__type
1318:c:\gcc for renesas rx 8.3.0.202004-gnurx-elf\rx-elf\rx-elf\rx-elf\include\c++\8.3.0.202004-gnurx\cmath ****     erf(_Tp __x)
1319:c:\gcc for renesas rx 8.3.0.202004-gnurx-elf\rx-elf\rx-elf\rx-elf\include\c++\8.3.0.202004-gnurx\cmath ****     { return __builtin_erf(__x); }
1320:c:\gcc for renesas rx 8.3.0.202004-gnurx-elf\rx-elf\rx-elf\rx-elf\include\c++\8.3.0.202004-gnurx\cmath **** #endif
1321:c:\gcc for renesas rx 8.3.0.202004-gnurx-elf\rx-elf\rx-elf\rx-elf\include\c++\8.3.0.202004-gnurx\cmath **** 
1322:c:\gcc for renesas rx 8.3.0.202004-gnurx-elf\rx-elf\rx-elf\rx-elf\include\c++\8.3.0.202004-gnurx\cmath **** #ifndef __CORRECT_ISO_CPP11_MATH_H_PROTO_FP
1323:c:\gcc for renesas rx 8.3.0.202004-gnurx-elf\rx-elf\rx-elf\rx-elf\include\c++\8.3.0.202004-gnurx\cmath ****   constexpr float
1324:c:\gcc for renesas rx 8.3.0.202004-gnurx-elf\rx-elf\rx-elf\rx-elf\include\c++\8.3.0.202004-gnurx\cmath ****   erfc(float __x)
1325:c:\gcc for renesas rx 8.3.0.202004-gnurx-elf\rx-elf\rx-elf\rx-elf\include\c++\8.3.0.202004-gnurx\cmath ****   { return __builtin_erfcf(__x); }
1326:c:\gcc for renesas rx 8.3.0.202004-gnurx-elf\rx-elf\rx-elf\rx-elf\include\c++\8.3.0.202004-gnurx\cmath **** 
1327:c:\gcc for renesas rx 8.3.0.202004-gnurx-elf\rx-elf\rx-elf\rx-elf\include\c++\8.3.0.202004-gnurx\cmath ****   constexpr long double
1328:c:\gcc for renesas rx 8.3.0.202004-gnurx-elf\rx-elf\rx-elf\rx-elf\include\c++\8.3.0.202004-gnurx\cmath ****   erfc(long double __x)
1329:c:\gcc for renesas rx 8.3.0.202004-gnurx-elf\rx-elf\rx-elf\rx-elf\include\c++\8.3.0.202004-gnurx\cmath ****   { return __builtin_erfcl(__x); }
1330:c:\gcc for renesas rx 8.3.0.202004-gnurx-elf\rx-elf\rx-elf\rx-elf\include\c++\8.3.0.202004-gnurx\cmath **** #endif
1331:c:\gcc for renesas rx 8.3.0.202004-gnurx-elf\rx-elf\rx-elf\rx-elf\include\c++\8.3.0.202004-gnurx\cmath **** 
1332:c:\gcc for renesas rx 8.3.0.202004-gnurx-elf\rx-elf\rx-elf\rx-elf\include\c++\8.3.0.202004-gnurx\cmath **** #ifndef __CORRECT_ISO_CPP11_MATH_H_PROTO_INT
1333:c:\gcc for renesas rx 8.3.0.202004-gnurx-elf\rx-elf\rx-elf\rx-elf\include\c++\8.3.0.202004-gnurx\cmath ****   template<typename _Tp>
1334:c:\gcc for renesas rx 8.3.0.202004-gnurx-elf\rx-elf\rx-elf\rx-elf\include\c++\8.3.0.202004-gnurx\cmath ****     constexpr typename __gnu_cxx::__enable_if<__is_integer<_Tp>::__value, 
1335:c:\gcc for renesas rx 8.3.0.202004-gnurx-elf\rx-elf\rx-elf\rx-elf\include\c++\8.3.0.202004-gnurx\cmath ****                                               double>::__type
1336:c:\gcc for renesas rx 8.3.0.202004-gnurx-elf\rx-elf\rx-elf\rx-elf\include\c++\8.3.0.202004-gnurx\cmath ****     erfc(_Tp __x)
1337:c:\gcc for renesas rx 8.3.0.202004-gnurx-elf\rx-elf\rx-elf\rx-elf\include\c++\8.3.0.202004-gnurx\cmath ****     { return __builtin_erfc(__x); }
1338:c:\gcc for renesas rx 8.3.0.202004-gnurx-elf\rx-elf\rx-elf\rx-elf\include\c++\8.3.0.202004-gnurx\cmath **** #endif
1339:c:\gcc for renesas rx 8.3.0.202004-gnurx-elf\rx-elf\rx-elf\rx-elf\include\c++\8.3.0.202004-gnurx\cmath **** 
1340:c:\gcc for renesas rx 8.3.0.202004-gnurx-elf\rx-elf\rx-elf\rx-elf\include\c++\8.3.0.202004-gnurx\cmath **** #ifndef __CORRECT_ISO_CPP11_MATH_H_PROTO_FP
1341:c:\gcc for renesas rx 8.3.0.202004-gnurx-elf\rx-elf\rx-elf\rx-elf\include\c++\8.3.0.202004-gnurx\cmath ****   constexpr float
1342:c:\gcc for renesas rx 8.3.0.202004-gnurx-elf\rx-elf\rx-elf\rx-elf\include\c++\8.3.0.202004-gnurx\cmath ****   exp2(float __x)
1343:c:\gcc for renesas rx 8.3.0.202004-gnurx-elf\rx-elf\rx-elf\rx-elf\include\c++\8.3.0.202004-gnurx\cmath ****   { return __builtin_exp2f(__x); }
1344:c:\gcc for renesas rx 8.3.0.202004-gnurx-elf\rx-elf\rx-elf\rx-elf\include\c++\8.3.0.202004-gnurx\cmath **** 
1345:c:\gcc for renesas rx 8.3.0.202004-gnurx-elf\rx-elf\rx-elf\rx-elf\include\c++\8.3.0.202004-gnurx\cmath ****   constexpr long double
1346:c:\gcc for renesas rx 8.3.0.202004-gnurx-elf\rx-elf\rx-elf\rx-elf\include\c++\8.3.0.202004-gnurx\cmath ****   exp2(long double __x)
1347:c:\gcc for renesas rx 8.3.0.202004-gnurx-elf\rx-elf\rx-elf\rx-elf\include\c++\8.3.0.202004-gnurx\cmath ****   { return __builtin_exp2l(__x); }
1348:c:\gcc for renesas rx 8.3.0.202004-gnurx-elf\rx-elf\rx-elf\rx-elf\include\c++\8.3.0.202004-gnurx\cmath **** #endif
1349:c:\gcc for renesas rx 8.3.0.202004-gnurx-elf\rx-elf\rx-elf\rx-elf\include\c++\8.3.0.202004-gnurx\cmath **** 
1350:c:\gcc for renesas rx 8.3.0.202004-gnurx-elf\rx-elf\rx-elf\rx-elf\include\c++\8.3.0.202004-gnurx\cmath **** #ifndef __CORRECT_ISO_CPP11_MATH_H_PROTO_INT
1351:c:\gcc for renesas rx 8.3.0.202004-gnurx-elf\rx-elf\rx-elf\rx-elf\include\c++\8.3.0.202004-gnurx\cmath ****   template<typename _Tp>
1352:c:\gcc for renesas rx 8.3.0.202004-gnurx-elf\rx-elf\rx-elf\rx-elf\include\c++\8.3.0.202004-gnurx\cmath ****     constexpr typename __gnu_cxx::__enable_if<__is_integer<_Tp>::__value, 
1353:c:\gcc for renesas rx 8.3.0.202004-gnurx-elf\rx-elf\rx-elf\rx-elf\include\c++\8.3.0.202004-gnurx\cmath ****                                               double>::__type
1354:c:\gcc for renesas rx 8.3.0.202004-gnurx-elf\rx-elf\rx-elf\rx-elf\include\c++\8.3.0.202004-gnurx\cmath ****     exp2(_Tp __x)
1355:c:\gcc for renesas rx 8.3.0.202004-gnurx-elf\rx-elf\rx-elf\rx-elf\include\c++\8.3.0.202004-gnurx\cmath ****     { return __builtin_exp2(__x); }
1356:c:\gcc for renesas rx 8.3.0.202004-gnurx-elf\rx-elf\rx-elf\rx-elf\include\c++\8.3.0.202004-gnurx\cmath **** #endif
1357:c:\gcc for renesas rx 8.3.0.202004-gnurx-elf\rx-elf\rx-elf\rx-elf\include\c++\8.3.0.202004-gnurx\cmath **** 
1358:c:\gcc for renesas rx 8.3.0.202004-gnurx-elf\rx-elf\rx-elf\rx-elf\include\c++\8.3.0.202004-gnurx\cmath **** #ifndef __CORRECT_ISO_CPP11_MATH_H_PROTO_FP
1359:c:\gcc for renesas rx 8.3.0.202004-gnurx-elf\rx-elf\rx-elf\rx-elf\include\c++\8.3.0.202004-gnurx\cmath ****   constexpr float
1360:c:\gcc for renesas rx 8.3.0.202004-gnurx-elf\rx-elf\rx-elf\rx-elf\include\c++\8.3.0.202004-gnurx\cmath ****   expm1(float __x)
1361:c:\gcc for renesas rx 8.3.0.202004-gnurx-elf\rx-elf\rx-elf\rx-elf\include\c++\8.3.0.202004-gnurx\cmath ****   { return __builtin_expm1f(__x); }
1362:c:\gcc for renesas rx 8.3.0.202004-gnurx-elf\rx-elf\rx-elf\rx-elf\include\c++\8.3.0.202004-gnurx\cmath **** 
1363:c:\gcc for renesas rx 8.3.0.202004-gnurx-elf\rx-elf\rx-elf\rx-elf\include\c++\8.3.0.202004-gnurx\cmath ****   constexpr long double
1364:c:\gcc for renesas rx 8.3.0.202004-gnurx-elf\rx-elf\rx-elf\rx-elf\include\c++\8.3.0.202004-gnurx\cmath ****   expm1(long double __x)
1365:c:\gcc for renesas rx 8.3.0.202004-gnurx-elf\rx-elf\rx-elf\rx-elf\include\c++\8.3.0.202004-gnurx\cmath ****   { return __builtin_expm1l(__x); }
1366:c:\gcc for renesas rx 8.3.0.202004-gnurx-elf\rx-elf\rx-elf\rx-elf\include\c++\8.3.0.202004-gnurx\cmath **** #endif
1367:c:\gcc for renesas rx 8.3.0.202004-gnurx-elf\rx-elf\rx-elf\rx-elf\include\c++\8.3.0.202004-gnurx\cmath **** 
1368:c:\gcc for renesas rx 8.3.0.202004-gnurx-elf\rx-elf\rx-elf\rx-elf\include\c++\8.3.0.202004-gnurx\cmath **** #ifndef __CORRECT_ISO_CPP11_MATH_H_PROTO_INT
1369:c:\gcc for renesas rx 8.3.0.202004-gnurx-elf\rx-elf\rx-elf\rx-elf\include\c++\8.3.0.202004-gnurx\cmath ****   template<typename _Tp>
1370:c:\gcc for renesas rx 8.3.0.202004-gnurx-elf\rx-elf\rx-elf\rx-elf\include\c++\8.3.0.202004-gnurx\cmath ****     constexpr typename __gnu_cxx::__enable_if<__is_integer<_Tp>::__value, 
1371:c:\gcc for renesas rx 8.3.0.202004-gnurx-elf\rx-elf\rx-elf\rx-elf\include\c++\8.3.0.202004-gnurx\cmath ****                                               double>::__type
1372:c:\gcc for renesas rx 8.3.0.202004-gnurx-elf\rx-elf\rx-elf\rx-elf\include\c++\8.3.0.202004-gnurx\cmath ****     expm1(_Tp __x)
1373:c:\gcc for renesas rx 8.3.0.202004-gnurx-elf\rx-elf\rx-elf\rx-elf\include\c++\8.3.0.202004-gnurx\cmath ****     { return __builtin_expm1(__x); }
1374:c:\gcc for renesas rx 8.3.0.202004-gnurx-elf\rx-elf\rx-elf\rx-elf\include\c++\8.3.0.202004-gnurx\cmath **** #endif
1375:c:\gcc for renesas rx 8.3.0.202004-gnurx-elf\rx-elf\rx-elf\rx-elf\include\c++\8.3.0.202004-gnurx\cmath **** 
1376:c:\gcc for renesas rx 8.3.0.202004-gnurx-elf\rx-elf\rx-elf\rx-elf\include\c++\8.3.0.202004-gnurx\cmath **** #ifndef __CORRECT_ISO_CPP11_MATH_H_PROTO_FP
1377:c:\gcc for renesas rx 8.3.0.202004-gnurx-elf\rx-elf\rx-elf\rx-elf\include\c++\8.3.0.202004-gnurx\cmath ****   constexpr float
1378:c:\gcc for renesas rx 8.3.0.202004-gnurx-elf\rx-elf\rx-elf\rx-elf\include\c++\8.3.0.202004-gnurx\cmath ****   fdim(float __x, float __y)
1379:c:\gcc for renesas rx 8.3.0.202004-gnurx-elf\rx-elf\rx-elf\rx-elf\include\c++\8.3.0.202004-gnurx\cmath ****   { return __builtin_fdimf(__x, __y); }
1380:c:\gcc for renesas rx 8.3.0.202004-gnurx-elf\rx-elf\rx-elf\rx-elf\include\c++\8.3.0.202004-gnurx\cmath **** 
1381:c:\gcc for renesas rx 8.3.0.202004-gnurx-elf\rx-elf\rx-elf\rx-elf\include\c++\8.3.0.202004-gnurx\cmath ****   constexpr long double
1382:c:\gcc for renesas rx 8.3.0.202004-gnurx-elf\rx-elf\rx-elf\rx-elf\include\c++\8.3.0.202004-gnurx\cmath ****   fdim(long double __x, long double __y)
1383:c:\gcc for renesas rx 8.3.0.202004-gnurx-elf\rx-elf\rx-elf\rx-elf\include\c++\8.3.0.202004-gnurx\cmath ****   { return __builtin_fdiml(__x, __y); }
1384:c:\gcc for renesas rx 8.3.0.202004-gnurx-elf\rx-elf\rx-elf\rx-elf\include\c++\8.3.0.202004-gnurx\cmath **** #endif
1385:c:\gcc for renesas rx 8.3.0.202004-gnurx-elf\rx-elf\rx-elf\rx-elf\include\c++\8.3.0.202004-gnurx\cmath **** 
1386:c:\gcc for renesas rx 8.3.0.202004-gnurx-elf\rx-elf\rx-elf\rx-elf\include\c++\8.3.0.202004-gnurx\cmath **** #ifndef __CORRECT_ISO_CPP11_MATH_H_PROTO_INT
1387:c:\gcc for renesas rx 8.3.0.202004-gnurx-elf\rx-elf\rx-elf\rx-elf\include\c++\8.3.0.202004-gnurx\cmath ****   template<typename _Tp, typename _Up>
1388:c:\gcc for renesas rx 8.3.0.202004-gnurx-elf\rx-elf\rx-elf\rx-elf\include\c++\8.3.0.202004-gnurx\cmath ****     constexpr typename __gnu_cxx::__promote_2<_Tp, _Up>::__type
1389:c:\gcc for renesas rx 8.3.0.202004-gnurx-elf\rx-elf\rx-elf\rx-elf\include\c++\8.3.0.202004-gnurx\cmath ****     fdim(_Tp __x, _Up __y)
1390:c:\gcc for renesas rx 8.3.0.202004-gnurx-elf\rx-elf\rx-elf\rx-elf\include\c++\8.3.0.202004-gnurx\cmath ****     {
1391:c:\gcc for renesas rx 8.3.0.202004-gnurx-elf\rx-elf\rx-elf\rx-elf\include\c++\8.3.0.202004-gnurx\cmath ****       typedef typename __gnu_cxx::__promote_2<_Tp, _Up>::__type __type;
1392:c:\gcc for renesas rx 8.3.0.202004-gnurx-elf\rx-elf\rx-elf\rx-elf\include\c++\8.3.0.202004-gnurx\cmath ****       return fdim(__type(__x), __type(__y));
1393:c:\gcc for renesas rx 8.3.0.202004-gnurx-elf\rx-elf\rx-elf\rx-elf\include\c++\8.3.0.202004-gnurx\cmath ****     }
1394:c:\gcc for renesas rx 8.3.0.202004-gnurx-elf\rx-elf\rx-elf\rx-elf\include\c++\8.3.0.202004-gnurx\cmath **** #endif
1395:c:\gcc for renesas rx 8.3.0.202004-gnurx-elf\rx-elf\rx-elf\rx-elf\include\c++\8.3.0.202004-gnurx\cmath **** 
1396:c:\gcc for renesas rx 8.3.0.202004-gnurx-elf\rx-elf\rx-elf\rx-elf\include\c++\8.3.0.202004-gnurx\cmath **** #ifndef __CORRECT_ISO_CPP11_MATH_H_PROTO_FP
1397:c:\gcc for renesas rx 8.3.0.202004-gnurx-elf\rx-elf\rx-elf\rx-elf\include\c++\8.3.0.202004-gnurx\cmath ****   constexpr float
1398:c:\gcc for renesas rx 8.3.0.202004-gnurx-elf\rx-elf\rx-elf\rx-elf\include\c++\8.3.0.202004-gnurx\cmath ****   fma(float __x, float __y, float __z)
1399:c:\gcc for renesas rx 8.3.0.202004-gnurx-elf\rx-elf\rx-elf\rx-elf\include\c++\8.3.0.202004-gnurx\cmath ****   { return __builtin_fmaf(__x, __y, __z); }
1400:c:\gcc for renesas rx 8.3.0.202004-gnurx-elf\rx-elf\rx-elf\rx-elf\include\c++\8.3.0.202004-gnurx\cmath **** 
1401:c:\gcc for renesas rx 8.3.0.202004-gnurx-elf\rx-elf\rx-elf\rx-elf\include\c++\8.3.0.202004-gnurx\cmath ****   constexpr long double
1402:c:\gcc for renesas rx 8.3.0.202004-gnurx-elf\rx-elf\rx-elf\rx-elf\include\c++\8.3.0.202004-gnurx\cmath ****   fma(long double __x, long double __y, long double __z)
1403:c:\gcc for renesas rx 8.3.0.202004-gnurx-elf\rx-elf\rx-elf\rx-elf\include\c++\8.3.0.202004-gnurx\cmath ****   { return __builtin_fmal(__x, __y, __z); }
1404:c:\gcc for renesas rx 8.3.0.202004-gnurx-elf\rx-elf\rx-elf\rx-elf\include\c++\8.3.0.202004-gnurx\cmath **** #endif
1405:c:\gcc for renesas rx 8.3.0.202004-gnurx-elf\rx-elf\rx-elf\rx-elf\include\c++\8.3.0.202004-gnurx\cmath **** 
1406:c:\gcc for renesas rx 8.3.0.202004-gnurx-elf\rx-elf\rx-elf\rx-elf\include\c++\8.3.0.202004-gnurx\cmath **** #ifndef __CORRECT_ISO_CPP11_MATH_H_PROTO_INT
1407:c:\gcc for renesas rx 8.3.0.202004-gnurx-elf\rx-elf\rx-elf\rx-elf\include\c++\8.3.0.202004-gnurx\cmath ****   template<typename _Tp, typename _Up, typename _Vp>
1408:c:\gcc for renesas rx 8.3.0.202004-gnurx-elf\rx-elf\rx-elf\rx-elf\include\c++\8.3.0.202004-gnurx\cmath ****     constexpr typename __gnu_cxx::__promote_3<_Tp, _Up, _Vp>::__type
1409:c:\gcc for renesas rx 8.3.0.202004-gnurx-elf\rx-elf\rx-elf\rx-elf\include\c++\8.3.0.202004-gnurx\cmath ****     fma(_Tp __x, _Up __y, _Vp __z)
1410:c:\gcc for renesas rx 8.3.0.202004-gnurx-elf\rx-elf\rx-elf\rx-elf\include\c++\8.3.0.202004-gnurx\cmath ****     {
1411:c:\gcc for renesas rx 8.3.0.202004-gnurx-elf\rx-elf\rx-elf\rx-elf\include\c++\8.3.0.202004-gnurx\cmath ****       typedef typename __gnu_cxx::__promote_3<_Tp, _Up, _Vp>::__type __type;
1412:c:\gcc for renesas rx 8.3.0.202004-gnurx-elf\rx-elf\rx-elf\rx-elf\include\c++\8.3.0.202004-gnurx\cmath ****       return fma(__type(__x), __type(__y), __type(__z));
1413:c:\gcc for renesas rx 8.3.0.202004-gnurx-elf\rx-elf\rx-elf\rx-elf\include\c++\8.3.0.202004-gnurx\cmath ****     }
1414:c:\gcc for renesas rx 8.3.0.202004-gnurx-elf\rx-elf\rx-elf\rx-elf\include\c++\8.3.0.202004-gnurx\cmath **** #endif
1415:c:\gcc for renesas rx 8.3.0.202004-gnurx-elf\rx-elf\rx-elf\rx-elf\include\c++\8.3.0.202004-gnurx\cmath **** 
1416:c:\gcc for renesas rx 8.3.0.202004-gnurx-elf\rx-elf\rx-elf\rx-elf\include\c++\8.3.0.202004-gnurx\cmath **** #ifndef __CORRECT_ISO_CPP11_MATH_H_PROTO_FP
1417:c:\gcc for renesas rx 8.3.0.202004-gnurx-elf\rx-elf\rx-elf\rx-elf\include\c++\8.3.0.202004-gnurx\cmath ****   constexpr float
1418:c:\gcc for renesas rx 8.3.0.202004-gnurx-elf\rx-elf\rx-elf\rx-elf\include\c++\8.3.0.202004-gnurx\cmath ****   fmax(float __x, float __y)
1419:c:\gcc for renesas rx 8.3.0.202004-gnurx-elf\rx-elf\rx-elf\rx-elf\include\c++\8.3.0.202004-gnurx\cmath ****   { return __builtin_fmaxf(__x, __y); }
1420:c:\gcc for renesas rx 8.3.0.202004-gnurx-elf\rx-elf\rx-elf\rx-elf\include\c++\8.3.0.202004-gnurx\cmath **** 
1421:c:\gcc for renesas rx 8.3.0.202004-gnurx-elf\rx-elf\rx-elf\rx-elf\include\c++\8.3.0.202004-gnurx\cmath ****   constexpr long double
1422:c:\gcc for renesas rx 8.3.0.202004-gnurx-elf\rx-elf\rx-elf\rx-elf\include\c++\8.3.0.202004-gnurx\cmath ****   fmax(long double __x, long double __y)
1423:c:\gcc for renesas rx 8.3.0.202004-gnurx-elf\rx-elf\rx-elf\rx-elf\include\c++\8.3.0.202004-gnurx\cmath ****   { return __builtin_fmaxl(__x, __y); }
1424:c:\gcc for renesas rx 8.3.0.202004-gnurx-elf\rx-elf\rx-elf\rx-elf\include\c++\8.3.0.202004-gnurx\cmath **** #endif
1425:c:\gcc for renesas rx 8.3.0.202004-gnurx-elf\rx-elf\rx-elf\rx-elf\include\c++\8.3.0.202004-gnurx\cmath **** 
1426:c:\gcc for renesas rx 8.3.0.202004-gnurx-elf\rx-elf\rx-elf\rx-elf\include\c++\8.3.0.202004-gnurx\cmath **** #ifndef __CORRECT_ISO_CPP11_MATH_H_PROTO_INT
1427:c:\gcc for renesas rx 8.3.0.202004-gnurx-elf\rx-elf\rx-elf\rx-elf\include\c++\8.3.0.202004-gnurx\cmath ****   template<typename _Tp, typename _Up>
1428:c:\gcc for renesas rx 8.3.0.202004-gnurx-elf\rx-elf\rx-elf\rx-elf\include\c++\8.3.0.202004-gnurx\cmath ****     constexpr typename __gnu_cxx::__promote_2<_Tp, _Up>::__type
1429:c:\gcc for renesas rx 8.3.0.202004-gnurx-elf\rx-elf\rx-elf\rx-elf\include\c++\8.3.0.202004-gnurx\cmath ****     fmax(_Tp __x, _Up __y)
1430:c:\gcc for renesas rx 8.3.0.202004-gnurx-elf\rx-elf\rx-elf\rx-elf\include\c++\8.3.0.202004-gnurx\cmath ****     {
1431:c:\gcc for renesas rx 8.3.0.202004-gnurx-elf\rx-elf\rx-elf\rx-elf\include\c++\8.3.0.202004-gnurx\cmath ****       typedef typename __gnu_cxx::__promote_2<_Tp, _Up>::__type __type;
1432:c:\gcc for renesas rx 8.3.0.202004-gnurx-elf\rx-elf\rx-elf\rx-elf\include\c++\8.3.0.202004-gnurx\cmath ****       return fmax(__type(__x), __type(__y));
1433:c:\gcc for renesas rx 8.3.0.202004-gnurx-elf\rx-elf\rx-elf\rx-elf\include\c++\8.3.0.202004-gnurx\cmath ****     }
1434:c:\gcc for renesas rx 8.3.0.202004-gnurx-elf\rx-elf\rx-elf\rx-elf\include\c++\8.3.0.202004-gnurx\cmath **** #endif
1435:c:\gcc for renesas rx 8.3.0.202004-gnurx-elf\rx-elf\rx-elf\rx-elf\include\c++\8.3.0.202004-gnurx\cmath **** 
1436:c:\gcc for renesas rx 8.3.0.202004-gnurx-elf\rx-elf\rx-elf\rx-elf\include\c++\8.3.0.202004-gnurx\cmath **** #ifndef __CORRECT_ISO_CPP11_MATH_H_PROTO_FP
1437:c:\gcc for renesas rx 8.3.0.202004-gnurx-elf\rx-elf\rx-elf\rx-elf\include\c++\8.3.0.202004-gnurx\cmath ****   constexpr float
1438:c:\gcc for renesas rx 8.3.0.202004-gnurx-elf\rx-elf\rx-elf\rx-elf\include\c++\8.3.0.202004-gnurx\cmath ****   fmin(float __x, float __y)
1439:c:\gcc for renesas rx 8.3.0.202004-gnurx-elf\rx-elf\rx-elf\rx-elf\include\c++\8.3.0.202004-gnurx\cmath ****   { return __builtin_fminf(__x, __y); }
1440:c:\gcc for renesas rx 8.3.0.202004-gnurx-elf\rx-elf\rx-elf\rx-elf\include\c++\8.3.0.202004-gnurx\cmath **** 
1441:c:\gcc for renesas rx 8.3.0.202004-gnurx-elf\rx-elf\rx-elf\rx-elf\include\c++\8.3.0.202004-gnurx\cmath ****   constexpr long double
1442:c:\gcc for renesas rx 8.3.0.202004-gnurx-elf\rx-elf\rx-elf\rx-elf\include\c++\8.3.0.202004-gnurx\cmath ****   fmin(long double __x, long double __y)
1443:c:\gcc for renesas rx 8.3.0.202004-gnurx-elf\rx-elf\rx-elf\rx-elf\include\c++\8.3.0.202004-gnurx\cmath ****   { return __builtin_fminl(__x, __y); }
1444:c:\gcc for renesas rx 8.3.0.202004-gnurx-elf\rx-elf\rx-elf\rx-elf\include\c++\8.3.0.202004-gnurx\cmath **** #endif
1445:c:\gcc for renesas rx 8.3.0.202004-gnurx-elf\rx-elf\rx-elf\rx-elf\include\c++\8.3.0.202004-gnurx\cmath **** 
1446:c:\gcc for renesas rx 8.3.0.202004-gnurx-elf\rx-elf\rx-elf\rx-elf\include\c++\8.3.0.202004-gnurx\cmath **** #ifndef __CORRECT_ISO_CPP11_MATH_H_PROTO_INT
1447:c:\gcc for renesas rx 8.3.0.202004-gnurx-elf\rx-elf\rx-elf\rx-elf\include\c++\8.3.0.202004-gnurx\cmath ****   template<typename _Tp, typename _Up>
1448:c:\gcc for renesas rx 8.3.0.202004-gnurx-elf\rx-elf\rx-elf\rx-elf\include\c++\8.3.0.202004-gnurx\cmath ****     constexpr typename __gnu_cxx::__promote_2<_Tp, _Up>::__type
1449:c:\gcc for renesas rx 8.3.0.202004-gnurx-elf\rx-elf\rx-elf\rx-elf\include\c++\8.3.0.202004-gnurx\cmath ****     fmin(_Tp __x, _Up __y)
1450:c:\gcc for renesas rx 8.3.0.202004-gnurx-elf\rx-elf\rx-elf\rx-elf\include\c++\8.3.0.202004-gnurx\cmath ****     {
1451:c:\gcc for renesas rx 8.3.0.202004-gnurx-elf\rx-elf\rx-elf\rx-elf\include\c++\8.3.0.202004-gnurx\cmath ****       typedef typename __gnu_cxx::__promote_2<_Tp, _Up>::__type __type;
1452:c:\gcc for renesas rx 8.3.0.202004-gnurx-elf\rx-elf\rx-elf\rx-elf\include\c++\8.3.0.202004-gnurx\cmath ****       return fmin(__type(__x), __type(__y));
1453:c:\gcc for renesas rx 8.3.0.202004-gnurx-elf\rx-elf\rx-elf\rx-elf\include\c++\8.3.0.202004-gnurx\cmath ****     }
1454:c:\gcc for renesas rx 8.3.0.202004-gnurx-elf\rx-elf\rx-elf\rx-elf\include\c++\8.3.0.202004-gnurx\cmath **** #endif
1455:c:\gcc for renesas rx 8.3.0.202004-gnurx-elf\rx-elf\rx-elf\rx-elf\include\c++\8.3.0.202004-gnurx\cmath **** 
1456:c:\gcc for renesas rx 8.3.0.202004-gnurx-elf\rx-elf\rx-elf\rx-elf\include\c++\8.3.0.202004-gnurx\cmath **** #ifndef __CORRECT_ISO_CPP11_MATH_H_PROTO_FP
1457:c:\gcc for renesas rx 8.3.0.202004-gnurx-elf\rx-elf\rx-elf\rx-elf\include\c++\8.3.0.202004-gnurx\cmath ****   constexpr float
1458:c:\gcc for renesas rx 8.3.0.202004-gnurx-elf\rx-elf\rx-elf\rx-elf\include\c++\8.3.0.202004-gnurx\cmath ****   hypot(float __x, float __y)
1459:c:\gcc for renesas rx 8.3.0.202004-gnurx-elf\rx-elf\rx-elf\rx-elf\include\c++\8.3.0.202004-gnurx\cmath ****   { return __builtin_hypotf(__x, __y); }
1460:c:\gcc for renesas rx 8.3.0.202004-gnurx-elf\rx-elf\rx-elf\rx-elf\include\c++\8.3.0.202004-gnurx\cmath **** 
1461:c:\gcc for renesas rx 8.3.0.202004-gnurx-elf\rx-elf\rx-elf\rx-elf\include\c++\8.3.0.202004-gnurx\cmath ****   constexpr long double
1462:c:\gcc for renesas rx 8.3.0.202004-gnurx-elf\rx-elf\rx-elf\rx-elf\include\c++\8.3.0.202004-gnurx\cmath ****   hypot(long double __x, long double __y)
1463:c:\gcc for renesas rx 8.3.0.202004-gnurx-elf\rx-elf\rx-elf\rx-elf\include\c++\8.3.0.202004-gnurx\cmath ****   { return __builtin_hypotl(__x, __y); }
1464:c:\gcc for renesas rx 8.3.0.202004-gnurx-elf\rx-elf\rx-elf\rx-elf\include\c++\8.3.0.202004-gnurx\cmath **** #endif
1465:c:\gcc for renesas rx 8.3.0.202004-gnurx-elf\rx-elf\rx-elf\rx-elf\include\c++\8.3.0.202004-gnurx\cmath **** 
1466:c:\gcc for renesas rx 8.3.0.202004-gnurx-elf\rx-elf\rx-elf\rx-elf\include\c++\8.3.0.202004-gnurx\cmath **** #ifndef __CORRECT_ISO_CPP11_MATH_H_PROTO_INT
1467:c:\gcc for renesas rx 8.3.0.202004-gnurx-elf\rx-elf\rx-elf\rx-elf\include\c++\8.3.0.202004-gnurx\cmath ****   template<typename _Tp, typename _Up>
1468:c:\gcc for renesas rx 8.3.0.202004-gnurx-elf\rx-elf\rx-elf\rx-elf\include\c++\8.3.0.202004-gnurx\cmath ****     constexpr typename __gnu_cxx::__promote_2<_Tp, _Up>::__type
1469:c:\gcc for renesas rx 8.3.0.202004-gnurx-elf\rx-elf\rx-elf\rx-elf\include\c++\8.3.0.202004-gnurx\cmath ****     hypot(_Tp __x, _Up __y)
1470:c:\gcc for renesas rx 8.3.0.202004-gnurx-elf\rx-elf\rx-elf\rx-elf\include\c++\8.3.0.202004-gnurx\cmath ****     {
1471:c:\gcc for renesas rx 8.3.0.202004-gnurx-elf\rx-elf\rx-elf\rx-elf\include\c++\8.3.0.202004-gnurx\cmath ****       typedef typename __gnu_cxx::__promote_2<_Tp, _Up>::__type __type;
1472:c:\gcc for renesas rx 8.3.0.202004-gnurx-elf\rx-elf\rx-elf\rx-elf\include\c++\8.3.0.202004-gnurx\cmath ****       return hypot(__type(__x), __type(__y));
1473:c:\gcc for renesas rx 8.3.0.202004-gnurx-elf\rx-elf\rx-elf\rx-elf\include\c++\8.3.0.202004-gnurx\cmath ****     }
1474:c:\gcc for renesas rx 8.3.0.202004-gnurx-elf\rx-elf\rx-elf\rx-elf\include\c++\8.3.0.202004-gnurx\cmath **** #endif
1475:c:\gcc for renesas rx 8.3.0.202004-gnurx-elf\rx-elf\rx-elf\rx-elf\include\c++\8.3.0.202004-gnurx\cmath **** 
1476:c:\gcc for renesas rx 8.3.0.202004-gnurx-elf\rx-elf\rx-elf\rx-elf\include\c++\8.3.0.202004-gnurx\cmath **** #ifndef __CORRECT_ISO_CPP11_MATH_H_PROTO_FP
1477:c:\gcc for renesas rx 8.3.0.202004-gnurx-elf\rx-elf\rx-elf\rx-elf\include\c++\8.3.0.202004-gnurx\cmath ****   constexpr int
1478:c:\gcc for renesas rx 8.3.0.202004-gnurx-elf\rx-elf\rx-elf\rx-elf\include\c++\8.3.0.202004-gnurx\cmath ****   ilogb(float __x)
1479:c:\gcc for renesas rx 8.3.0.202004-gnurx-elf\rx-elf\rx-elf\rx-elf\include\c++\8.3.0.202004-gnurx\cmath ****   { return __builtin_ilogbf(__x); }
1480:c:\gcc for renesas rx 8.3.0.202004-gnurx-elf\rx-elf\rx-elf\rx-elf\include\c++\8.3.0.202004-gnurx\cmath **** 
1481:c:\gcc for renesas rx 8.3.0.202004-gnurx-elf\rx-elf\rx-elf\rx-elf\include\c++\8.3.0.202004-gnurx\cmath ****   constexpr int
1482:c:\gcc for renesas rx 8.3.0.202004-gnurx-elf\rx-elf\rx-elf\rx-elf\include\c++\8.3.0.202004-gnurx\cmath ****   ilogb(long double __x)
1483:c:\gcc for renesas rx 8.3.0.202004-gnurx-elf\rx-elf\rx-elf\rx-elf\include\c++\8.3.0.202004-gnurx\cmath ****   { return __builtin_ilogbl(__x); }
1484:c:\gcc for renesas rx 8.3.0.202004-gnurx-elf\rx-elf\rx-elf\rx-elf\include\c++\8.3.0.202004-gnurx\cmath **** #endif
1485:c:\gcc for renesas rx 8.3.0.202004-gnurx-elf\rx-elf\rx-elf\rx-elf\include\c++\8.3.0.202004-gnurx\cmath **** 
1486:c:\gcc for renesas rx 8.3.0.202004-gnurx-elf\rx-elf\rx-elf\rx-elf\include\c++\8.3.0.202004-gnurx\cmath **** #ifndef __CORRECT_ISO_CPP11_MATH_H_PROTO_INT
1487:c:\gcc for renesas rx 8.3.0.202004-gnurx-elf\rx-elf\rx-elf\rx-elf\include\c++\8.3.0.202004-gnurx\cmath ****   template<typename _Tp>
1488:c:\gcc for renesas rx 8.3.0.202004-gnurx-elf\rx-elf\rx-elf\rx-elf\include\c++\8.3.0.202004-gnurx\cmath ****     constexpr
1489:c:\gcc for renesas rx 8.3.0.202004-gnurx-elf\rx-elf\rx-elf\rx-elf\include\c++\8.3.0.202004-gnurx\cmath ****     typename __gnu_cxx::__enable_if<__is_integer<_Tp>::__value, 
1490:c:\gcc for renesas rx 8.3.0.202004-gnurx-elf\rx-elf\rx-elf\rx-elf\include\c++\8.3.0.202004-gnurx\cmath ****                                     int>::__type
1491:c:\gcc for renesas rx 8.3.0.202004-gnurx-elf\rx-elf\rx-elf\rx-elf\include\c++\8.3.0.202004-gnurx\cmath ****     ilogb(_Tp __x)
1492:c:\gcc for renesas rx 8.3.0.202004-gnurx-elf\rx-elf\rx-elf\rx-elf\include\c++\8.3.0.202004-gnurx\cmath ****     { return __builtin_ilogb(__x); }
1493:c:\gcc for renesas rx 8.3.0.202004-gnurx-elf\rx-elf\rx-elf\rx-elf\include\c++\8.3.0.202004-gnurx\cmath **** #endif
1494:c:\gcc for renesas rx 8.3.0.202004-gnurx-elf\rx-elf\rx-elf\rx-elf\include\c++\8.3.0.202004-gnurx\cmath **** 
1495:c:\gcc for renesas rx 8.3.0.202004-gnurx-elf\rx-elf\rx-elf\rx-elf\include\c++\8.3.0.202004-gnurx\cmath **** #ifndef __CORRECT_ISO_CPP11_MATH_H_PROTO_FP
1496:c:\gcc for renesas rx 8.3.0.202004-gnurx-elf\rx-elf\rx-elf\rx-elf\include\c++\8.3.0.202004-gnurx\cmath ****   constexpr float
1497:c:\gcc for renesas rx 8.3.0.202004-gnurx-elf\rx-elf\rx-elf\rx-elf\include\c++\8.3.0.202004-gnurx\cmath ****   lgamma(float __x)
1498:c:\gcc for renesas rx 8.3.0.202004-gnurx-elf\rx-elf\rx-elf\rx-elf\include\c++\8.3.0.202004-gnurx\cmath ****   { return __builtin_lgammaf(__x); }
1499:c:\gcc for renesas rx 8.3.0.202004-gnurx-elf\rx-elf\rx-elf\rx-elf\include\c++\8.3.0.202004-gnurx\cmath **** 
1500:c:\gcc for renesas rx 8.3.0.202004-gnurx-elf\rx-elf\rx-elf\rx-elf\include\c++\8.3.0.202004-gnurx\cmath ****   constexpr long double
1501:c:\gcc for renesas rx 8.3.0.202004-gnurx-elf\rx-elf\rx-elf\rx-elf\include\c++\8.3.0.202004-gnurx\cmath ****   lgamma(long double __x)
1502:c:\gcc for renesas rx 8.3.0.202004-gnurx-elf\rx-elf\rx-elf\rx-elf\include\c++\8.3.0.202004-gnurx\cmath ****   { return __builtin_lgammal(__x); }
1503:c:\gcc for renesas rx 8.3.0.202004-gnurx-elf\rx-elf\rx-elf\rx-elf\include\c++\8.3.0.202004-gnurx\cmath **** #endif
1504:c:\gcc for renesas rx 8.3.0.202004-gnurx-elf\rx-elf\rx-elf\rx-elf\include\c++\8.3.0.202004-gnurx\cmath **** 
1505:c:\gcc for renesas rx 8.3.0.202004-gnurx-elf\rx-elf\rx-elf\rx-elf\include\c++\8.3.0.202004-gnurx\cmath **** #ifndef __CORRECT_ISO_CPP11_MATH_H_PROTO_INT
1506:c:\gcc for renesas rx 8.3.0.202004-gnurx-elf\rx-elf\rx-elf\rx-elf\include\c++\8.3.0.202004-gnurx\cmath ****   template<typename _Tp>
1507:c:\gcc for renesas rx 8.3.0.202004-gnurx-elf\rx-elf\rx-elf\rx-elf\include\c++\8.3.0.202004-gnurx\cmath ****     constexpr typename __gnu_cxx::__enable_if<__is_integer<_Tp>::__value, 
1508:c:\gcc for renesas rx 8.3.0.202004-gnurx-elf\rx-elf\rx-elf\rx-elf\include\c++\8.3.0.202004-gnurx\cmath ****                                               double>::__type
1509:c:\gcc for renesas rx 8.3.0.202004-gnurx-elf\rx-elf\rx-elf\rx-elf\include\c++\8.3.0.202004-gnurx\cmath ****     lgamma(_Tp __x)
1510:c:\gcc for renesas rx 8.3.0.202004-gnurx-elf\rx-elf\rx-elf\rx-elf\include\c++\8.3.0.202004-gnurx\cmath ****     { return __builtin_lgamma(__x); }
1511:c:\gcc for renesas rx 8.3.0.202004-gnurx-elf\rx-elf\rx-elf\rx-elf\include\c++\8.3.0.202004-gnurx\cmath **** #endif
1512:c:\gcc for renesas rx 8.3.0.202004-gnurx-elf\rx-elf\rx-elf\rx-elf\include\c++\8.3.0.202004-gnurx\cmath **** 
1513:c:\gcc for renesas rx 8.3.0.202004-gnurx-elf\rx-elf\rx-elf\rx-elf\include\c++\8.3.0.202004-gnurx\cmath **** #ifndef __CORRECT_ISO_CPP11_MATH_H_PROTO_FP
1514:c:\gcc for renesas rx 8.3.0.202004-gnurx-elf\rx-elf\rx-elf\rx-elf\include\c++\8.3.0.202004-gnurx\cmath ****   constexpr long long
1515:c:\gcc for renesas rx 8.3.0.202004-gnurx-elf\rx-elf\rx-elf\rx-elf\include\c++\8.3.0.202004-gnurx\cmath ****   llrint(float __x)
1516:c:\gcc for renesas rx 8.3.0.202004-gnurx-elf\rx-elf\rx-elf\rx-elf\include\c++\8.3.0.202004-gnurx\cmath ****   { return __builtin_llrintf(__x); }
1517:c:\gcc for renesas rx 8.3.0.202004-gnurx-elf\rx-elf\rx-elf\rx-elf\include\c++\8.3.0.202004-gnurx\cmath **** 
1518:c:\gcc for renesas rx 8.3.0.202004-gnurx-elf\rx-elf\rx-elf\rx-elf\include\c++\8.3.0.202004-gnurx\cmath ****   constexpr long long
1519:c:\gcc for renesas rx 8.3.0.202004-gnurx-elf\rx-elf\rx-elf\rx-elf\include\c++\8.3.0.202004-gnurx\cmath ****   llrint(long double __x)
1520:c:\gcc for renesas rx 8.3.0.202004-gnurx-elf\rx-elf\rx-elf\rx-elf\include\c++\8.3.0.202004-gnurx\cmath ****   { return __builtin_llrintl(__x); }
1521:c:\gcc for renesas rx 8.3.0.202004-gnurx-elf\rx-elf\rx-elf\rx-elf\include\c++\8.3.0.202004-gnurx\cmath **** #endif
1522:c:\gcc for renesas rx 8.3.0.202004-gnurx-elf\rx-elf\rx-elf\rx-elf\include\c++\8.3.0.202004-gnurx\cmath **** 
1523:c:\gcc for renesas rx 8.3.0.202004-gnurx-elf\rx-elf\rx-elf\rx-elf\include\c++\8.3.0.202004-gnurx\cmath **** #ifndef __CORRECT_ISO_CPP11_MATH_H_PROTO_INT
1524:c:\gcc for renesas rx 8.3.0.202004-gnurx-elf\rx-elf\rx-elf\rx-elf\include\c++\8.3.0.202004-gnurx\cmath ****   template<typename _Tp>
1525:c:\gcc for renesas rx 8.3.0.202004-gnurx-elf\rx-elf\rx-elf\rx-elf\include\c++\8.3.0.202004-gnurx\cmath ****     constexpr typename __gnu_cxx::__enable_if<__is_integer<_Tp>::__value, 
1526:c:\gcc for renesas rx 8.3.0.202004-gnurx-elf\rx-elf\rx-elf\rx-elf\include\c++\8.3.0.202004-gnurx\cmath ****                                               long long>::__type
1527:c:\gcc for renesas rx 8.3.0.202004-gnurx-elf\rx-elf\rx-elf\rx-elf\include\c++\8.3.0.202004-gnurx\cmath ****     llrint(_Tp __x)
1528:c:\gcc for renesas rx 8.3.0.202004-gnurx-elf\rx-elf\rx-elf\rx-elf\include\c++\8.3.0.202004-gnurx\cmath ****     { return __builtin_llrint(__x); }
1529:c:\gcc for renesas rx 8.3.0.202004-gnurx-elf\rx-elf\rx-elf\rx-elf\include\c++\8.3.0.202004-gnurx\cmath **** #endif
1530:c:\gcc for renesas rx 8.3.0.202004-gnurx-elf\rx-elf\rx-elf\rx-elf\include\c++\8.3.0.202004-gnurx\cmath **** 
1531:c:\gcc for renesas rx 8.3.0.202004-gnurx-elf\rx-elf\rx-elf\rx-elf\include\c++\8.3.0.202004-gnurx\cmath **** #ifndef __CORRECT_ISO_CPP11_MATH_H_PROTO_FP
1532:c:\gcc for renesas rx 8.3.0.202004-gnurx-elf\rx-elf\rx-elf\rx-elf\include\c++\8.3.0.202004-gnurx\cmath ****   constexpr long long
1533:c:\gcc for renesas rx 8.3.0.202004-gnurx-elf\rx-elf\rx-elf\rx-elf\include\c++\8.3.0.202004-gnurx\cmath ****   llround(float __x)
1534:c:\gcc for renesas rx 8.3.0.202004-gnurx-elf\rx-elf\rx-elf\rx-elf\include\c++\8.3.0.202004-gnurx\cmath ****   { return __builtin_llroundf(__x); }
1535:c:\gcc for renesas rx 8.3.0.202004-gnurx-elf\rx-elf\rx-elf\rx-elf\include\c++\8.3.0.202004-gnurx\cmath **** 
1536:c:\gcc for renesas rx 8.3.0.202004-gnurx-elf\rx-elf\rx-elf\rx-elf\include\c++\8.3.0.202004-gnurx\cmath ****   constexpr long long
1537:c:\gcc for renesas rx 8.3.0.202004-gnurx-elf\rx-elf\rx-elf\rx-elf\include\c++\8.3.0.202004-gnurx\cmath ****   llround(long double __x)
1538:c:\gcc for renesas rx 8.3.0.202004-gnurx-elf\rx-elf\rx-elf\rx-elf\include\c++\8.3.0.202004-gnurx\cmath ****   { return __builtin_llroundl(__x); }
1539:c:\gcc for renesas rx 8.3.0.202004-gnurx-elf\rx-elf\rx-elf\rx-elf\include\c++\8.3.0.202004-gnurx\cmath **** #endif
1540:c:\gcc for renesas rx 8.3.0.202004-gnurx-elf\rx-elf\rx-elf\rx-elf\include\c++\8.3.0.202004-gnurx\cmath **** 
1541:c:\gcc for renesas rx 8.3.0.202004-gnurx-elf\rx-elf\rx-elf\rx-elf\include\c++\8.3.0.202004-gnurx\cmath **** #ifndef __CORRECT_ISO_CPP11_MATH_H_PROTO_INT
1542:c:\gcc for renesas rx 8.3.0.202004-gnurx-elf\rx-elf\rx-elf\rx-elf\include\c++\8.3.0.202004-gnurx\cmath ****   template<typename _Tp>
1543:c:\gcc for renesas rx 8.3.0.202004-gnurx-elf\rx-elf\rx-elf\rx-elf\include\c++\8.3.0.202004-gnurx\cmath ****     constexpr typename __gnu_cxx::__enable_if<__is_integer<_Tp>::__value, 
1544:c:\gcc for renesas rx 8.3.0.202004-gnurx-elf\rx-elf\rx-elf\rx-elf\include\c++\8.3.0.202004-gnurx\cmath ****                                               long long>::__type
1545:c:\gcc for renesas rx 8.3.0.202004-gnurx-elf\rx-elf\rx-elf\rx-elf\include\c++\8.3.0.202004-gnurx\cmath ****     llround(_Tp __x)
1546:c:\gcc for renesas rx 8.3.0.202004-gnurx-elf\rx-elf\rx-elf\rx-elf\include\c++\8.3.0.202004-gnurx\cmath ****     { return __builtin_llround(__x); }
1547:c:\gcc for renesas rx 8.3.0.202004-gnurx-elf\rx-elf\rx-elf\rx-elf\include\c++\8.3.0.202004-gnurx\cmath **** #endif
1548:c:\gcc for renesas rx 8.3.0.202004-gnurx-elf\rx-elf\rx-elf\rx-elf\include\c++\8.3.0.202004-gnurx\cmath **** 
1549:c:\gcc for renesas rx 8.3.0.202004-gnurx-elf\rx-elf\rx-elf\rx-elf\include\c++\8.3.0.202004-gnurx\cmath **** #ifndef __CORRECT_ISO_CPP11_MATH_H_PROTO_FP
1550:c:\gcc for renesas rx 8.3.0.202004-gnurx-elf\rx-elf\rx-elf\rx-elf\include\c++\8.3.0.202004-gnurx\cmath ****   constexpr float
1551:c:\gcc for renesas rx 8.3.0.202004-gnurx-elf\rx-elf\rx-elf\rx-elf\include\c++\8.3.0.202004-gnurx\cmath ****   log1p(float __x)
1552:c:\gcc for renesas rx 8.3.0.202004-gnurx-elf\rx-elf\rx-elf\rx-elf\include\c++\8.3.0.202004-gnurx\cmath ****   { return __builtin_log1pf(__x); }
1553:c:\gcc for renesas rx 8.3.0.202004-gnurx-elf\rx-elf\rx-elf\rx-elf\include\c++\8.3.0.202004-gnurx\cmath **** 
1554:c:\gcc for renesas rx 8.3.0.202004-gnurx-elf\rx-elf\rx-elf\rx-elf\include\c++\8.3.0.202004-gnurx\cmath ****   constexpr long double
1555:c:\gcc for renesas rx 8.3.0.202004-gnurx-elf\rx-elf\rx-elf\rx-elf\include\c++\8.3.0.202004-gnurx\cmath ****   log1p(long double __x)
1556:c:\gcc for renesas rx 8.3.0.202004-gnurx-elf\rx-elf\rx-elf\rx-elf\include\c++\8.3.0.202004-gnurx\cmath ****   { return __builtin_log1pl(__x); }
1557:c:\gcc for renesas rx 8.3.0.202004-gnurx-elf\rx-elf\rx-elf\rx-elf\include\c++\8.3.0.202004-gnurx\cmath **** #endif
1558:c:\gcc for renesas rx 8.3.0.202004-gnurx-elf\rx-elf\rx-elf\rx-elf\include\c++\8.3.0.202004-gnurx\cmath **** 
1559:c:\gcc for renesas rx 8.3.0.202004-gnurx-elf\rx-elf\rx-elf\rx-elf\include\c++\8.3.0.202004-gnurx\cmath **** #ifndef __CORRECT_ISO_CPP11_MATH_H_PROTO_INT
1560:c:\gcc for renesas rx 8.3.0.202004-gnurx-elf\rx-elf\rx-elf\rx-elf\include\c++\8.3.0.202004-gnurx\cmath ****   template<typename _Tp>
1561:c:\gcc for renesas rx 8.3.0.202004-gnurx-elf\rx-elf\rx-elf\rx-elf\include\c++\8.3.0.202004-gnurx\cmath ****     constexpr typename __gnu_cxx::__enable_if<__is_integer<_Tp>::__value, 
1562:c:\gcc for renesas rx 8.3.0.202004-gnurx-elf\rx-elf\rx-elf\rx-elf\include\c++\8.3.0.202004-gnurx\cmath ****                                               double>::__type
1563:c:\gcc for renesas rx 8.3.0.202004-gnurx-elf\rx-elf\rx-elf\rx-elf\include\c++\8.3.0.202004-gnurx\cmath ****     log1p(_Tp __x)
1564:c:\gcc for renesas rx 8.3.0.202004-gnurx-elf\rx-elf\rx-elf\rx-elf\include\c++\8.3.0.202004-gnurx\cmath ****     { return __builtin_log1p(__x); }
1565:c:\gcc for renesas rx 8.3.0.202004-gnurx-elf\rx-elf\rx-elf\rx-elf\include\c++\8.3.0.202004-gnurx\cmath **** #endif
1566:c:\gcc for renesas rx 8.3.0.202004-gnurx-elf\rx-elf\rx-elf\rx-elf\include\c++\8.3.0.202004-gnurx\cmath **** 
1567:c:\gcc for renesas rx 8.3.0.202004-gnurx-elf\rx-elf\rx-elf\rx-elf\include\c++\8.3.0.202004-gnurx\cmath **** #ifndef __CORRECT_ISO_CPP11_MATH_H_PROTO_FP
1568:c:\gcc for renesas rx 8.3.0.202004-gnurx-elf\rx-elf\rx-elf\rx-elf\include\c++\8.3.0.202004-gnurx\cmath ****   // DR 568.
1569:c:\gcc for renesas rx 8.3.0.202004-gnurx-elf\rx-elf\rx-elf\rx-elf\include\c++\8.3.0.202004-gnurx\cmath ****   constexpr float
1570:c:\gcc for renesas rx 8.3.0.202004-gnurx-elf\rx-elf\rx-elf\rx-elf\include\c++\8.3.0.202004-gnurx\cmath ****   log2(float __x)
1571:c:\gcc for renesas rx 8.3.0.202004-gnurx-elf\rx-elf\rx-elf\rx-elf\include\c++\8.3.0.202004-gnurx\cmath ****   { return __builtin_log2f(__x); }
1572:c:\gcc for renesas rx 8.3.0.202004-gnurx-elf\rx-elf\rx-elf\rx-elf\include\c++\8.3.0.202004-gnurx\cmath **** 
1573:c:\gcc for renesas rx 8.3.0.202004-gnurx-elf\rx-elf\rx-elf\rx-elf\include\c++\8.3.0.202004-gnurx\cmath ****   constexpr long double
1574:c:\gcc for renesas rx 8.3.0.202004-gnurx-elf\rx-elf\rx-elf\rx-elf\include\c++\8.3.0.202004-gnurx\cmath ****   log2(long double __x)
1575:c:\gcc for renesas rx 8.3.0.202004-gnurx-elf\rx-elf\rx-elf\rx-elf\include\c++\8.3.0.202004-gnurx\cmath ****   { return __builtin_log2l(__x); }
1576:c:\gcc for renesas rx 8.3.0.202004-gnurx-elf\rx-elf\rx-elf\rx-elf\include\c++\8.3.0.202004-gnurx\cmath **** #endif
1577:c:\gcc for renesas rx 8.3.0.202004-gnurx-elf\rx-elf\rx-elf\rx-elf\include\c++\8.3.0.202004-gnurx\cmath **** 
1578:c:\gcc for renesas rx 8.3.0.202004-gnurx-elf\rx-elf\rx-elf\rx-elf\include\c++\8.3.0.202004-gnurx\cmath **** #ifndef __CORRECT_ISO_CPP11_MATH_H_PROTO_INT
1579:c:\gcc for renesas rx 8.3.0.202004-gnurx-elf\rx-elf\rx-elf\rx-elf\include\c++\8.3.0.202004-gnurx\cmath ****   template<typename _Tp>
1580:c:\gcc for renesas rx 8.3.0.202004-gnurx-elf\rx-elf\rx-elf\rx-elf\include\c++\8.3.0.202004-gnurx\cmath ****     constexpr typename __gnu_cxx::__enable_if<__is_integer<_Tp>::__value, 
1581:c:\gcc for renesas rx 8.3.0.202004-gnurx-elf\rx-elf\rx-elf\rx-elf\include\c++\8.3.0.202004-gnurx\cmath ****                                               double>::__type
1582:c:\gcc for renesas rx 8.3.0.202004-gnurx-elf\rx-elf\rx-elf\rx-elf\include\c++\8.3.0.202004-gnurx\cmath ****     log2(_Tp __x)
1583:c:\gcc for renesas rx 8.3.0.202004-gnurx-elf\rx-elf\rx-elf\rx-elf\include\c++\8.3.0.202004-gnurx\cmath ****     { return __builtin_log2(__x); }
1584:c:\gcc for renesas rx 8.3.0.202004-gnurx-elf\rx-elf\rx-elf\rx-elf\include\c++\8.3.0.202004-gnurx\cmath **** #endif
1585:c:\gcc for renesas rx 8.3.0.202004-gnurx-elf\rx-elf\rx-elf\rx-elf\include\c++\8.3.0.202004-gnurx\cmath **** 
1586:c:\gcc for renesas rx 8.3.0.202004-gnurx-elf\rx-elf\rx-elf\rx-elf\include\c++\8.3.0.202004-gnurx\cmath **** #ifndef __CORRECT_ISO_CPP11_MATH_H_PROTO_FP
1587:c:\gcc for renesas rx 8.3.0.202004-gnurx-elf\rx-elf\rx-elf\rx-elf\include\c++\8.3.0.202004-gnurx\cmath ****   constexpr float
1588:c:\gcc for renesas rx 8.3.0.202004-gnurx-elf\rx-elf\rx-elf\rx-elf\include\c++\8.3.0.202004-gnurx\cmath ****   logb(float __x)
1589:c:\gcc for renesas rx 8.3.0.202004-gnurx-elf\rx-elf\rx-elf\rx-elf\include\c++\8.3.0.202004-gnurx\cmath ****   { return __builtin_logbf(__x); }
1590:c:\gcc for renesas rx 8.3.0.202004-gnurx-elf\rx-elf\rx-elf\rx-elf\include\c++\8.3.0.202004-gnurx\cmath **** 
1591:c:\gcc for renesas rx 8.3.0.202004-gnurx-elf\rx-elf\rx-elf\rx-elf\include\c++\8.3.0.202004-gnurx\cmath ****   constexpr long double
1592:c:\gcc for renesas rx 8.3.0.202004-gnurx-elf\rx-elf\rx-elf\rx-elf\include\c++\8.3.0.202004-gnurx\cmath ****   logb(long double __x)
1593:c:\gcc for renesas rx 8.3.0.202004-gnurx-elf\rx-elf\rx-elf\rx-elf\include\c++\8.3.0.202004-gnurx\cmath ****   { return __builtin_logbl(__x); }
1594:c:\gcc for renesas rx 8.3.0.202004-gnurx-elf\rx-elf\rx-elf\rx-elf\include\c++\8.3.0.202004-gnurx\cmath **** #endif
1595:c:\gcc for renesas rx 8.3.0.202004-gnurx-elf\rx-elf\rx-elf\rx-elf\include\c++\8.3.0.202004-gnurx\cmath **** 
1596:c:\gcc for renesas rx 8.3.0.202004-gnurx-elf\rx-elf\rx-elf\rx-elf\include\c++\8.3.0.202004-gnurx\cmath **** #ifndef __CORRECT_ISO_CPP11_MATH_H_PROTO_INT
1597:c:\gcc for renesas rx 8.3.0.202004-gnurx-elf\rx-elf\rx-elf\rx-elf\include\c++\8.3.0.202004-gnurx\cmath ****   template<typename _Tp>
1598:c:\gcc for renesas rx 8.3.0.202004-gnurx-elf\rx-elf\rx-elf\rx-elf\include\c++\8.3.0.202004-gnurx\cmath ****     constexpr typename __gnu_cxx::__enable_if<__is_integer<_Tp>::__value, 
1599:c:\gcc for renesas rx 8.3.0.202004-gnurx-elf\rx-elf\rx-elf\rx-elf\include\c++\8.3.0.202004-gnurx\cmath ****                                               double>::__type
1600:c:\gcc for renesas rx 8.3.0.202004-gnurx-elf\rx-elf\rx-elf\rx-elf\include\c++\8.3.0.202004-gnurx\cmath ****     logb(_Tp __x)
1601:c:\gcc for renesas rx 8.3.0.202004-gnurx-elf\rx-elf\rx-elf\rx-elf\include\c++\8.3.0.202004-gnurx\cmath ****     { return __builtin_logb(__x); }
1602:c:\gcc for renesas rx 8.3.0.202004-gnurx-elf\rx-elf\rx-elf\rx-elf\include\c++\8.3.0.202004-gnurx\cmath **** #endif
1603:c:\gcc for renesas rx 8.3.0.202004-gnurx-elf\rx-elf\rx-elf\rx-elf\include\c++\8.3.0.202004-gnurx\cmath **** 
1604:c:\gcc for renesas rx 8.3.0.202004-gnurx-elf\rx-elf\rx-elf\rx-elf\include\c++\8.3.0.202004-gnurx\cmath **** #ifndef __CORRECT_ISO_CPP11_MATH_H_PROTO_FP
1605:c:\gcc for renesas rx 8.3.0.202004-gnurx-elf\rx-elf\rx-elf\rx-elf\include\c++\8.3.0.202004-gnurx\cmath ****   constexpr long
1606:c:\gcc for renesas rx 8.3.0.202004-gnurx-elf\rx-elf\rx-elf\rx-elf\include\c++\8.3.0.202004-gnurx\cmath ****   lrint(float __x)
1607:c:\gcc for renesas rx 8.3.0.202004-gnurx-elf\rx-elf\rx-elf\rx-elf\include\c++\8.3.0.202004-gnurx\cmath ****   { return __builtin_lrintf(__x); }
1608:c:\gcc for renesas rx 8.3.0.202004-gnurx-elf\rx-elf\rx-elf\rx-elf\include\c++\8.3.0.202004-gnurx\cmath **** 
1609:c:\gcc for renesas rx 8.3.0.202004-gnurx-elf\rx-elf\rx-elf\rx-elf\include\c++\8.3.0.202004-gnurx\cmath ****   constexpr long
1610:c:\gcc for renesas rx 8.3.0.202004-gnurx-elf\rx-elf\rx-elf\rx-elf\include\c++\8.3.0.202004-gnurx\cmath ****   lrint(long double __x)
1611:c:\gcc for renesas rx 8.3.0.202004-gnurx-elf\rx-elf\rx-elf\rx-elf\include\c++\8.3.0.202004-gnurx\cmath ****   { return __builtin_lrintl(__x); }
1612:c:\gcc for renesas rx 8.3.0.202004-gnurx-elf\rx-elf\rx-elf\rx-elf\include\c++\8.3.0.202004-gnurx\cmath **** #endif
1613:c:\gcc for renesas rx 8.3.0.202004-gnurx-elf\rx-elf\rx-elf\rx-elf\include\c++\8.3.0.202004-gnurx\cmath **** 
1614:c:\gcc for renesas rx 8.3.0.202004-gnurx-elf\rx-elf\rx-elf\rx-elf\include\c++\8.3.0.202004-gnurx\cmath **** #ifndef __CORRECT_ISO_CPP11_MATH_H_PROTO_INT
1615:c:\gcc for renesas rx 8.3.0.202004-gnurx-elf\rx-elf\rx-elf\rx-elf\include\c++\8.3.0.202004-gnurx\cmath ****   template<typename _Tp>
1616:c:\gcc for renesas rx 8.3.0.202004-gnurx-elf\rx-elf\rx-elf\rx-elf\include\c++\8.3.0.202004-gnurx\cmath ****     constexpr typename __gnu_cxx::__enable_if<__is_integer<_Tp>::__value, 
1617:c:\gcc for renesas rx 8.3.0.202004-gnurx-elf\rx-elf\rx-elf\rx-elf\include\c++\8.3.0.202004-gnurx\cmath ****                                               long>::__type
1618:c:\gcc for renesas rx 8.3.0.202004-gnurx-elf\rx-elf\rx-elf\rx-elf\include\c++\8.3.0.202004-gnurx\cmath ****     lrint(_Tp __x)
1619:c:\gcc for renesas rx 8.3.0.202004-gnurx-elf\rx-elf\rx-elf\rx-elf\include\c++\8.3.0.202004-gnurx\cmath ****     { return __builtin_lrint(__x); }
1620:c:\gcc for renesas rx 8.3.0.202004-gnurx-elf\rx-elf\rx-elf\rx-elf\include\c++\8.3.0.202004-gnurx\cmath **** #endif
1621:c:\gcc for renesas rx 8.3.0.202004-gnurx-elf\rx-elf\rx-elf\rx-elf\include\c++\8.3.0.202004-gnurx\cmath **** 
1622:c:\gcc for renesas rx 8.3.0.202004-gnurx-elf\rx-elf\rx-elf\rx-elf\include\c++\8.3.0.202004-gnurx\cmath **** #ifndef __CORRECT_ISO_CPP11_MATH_H_PROTO_FP
1623:c:\gcc for renesas rx 8.3.0.202004-gnurx-elf\rx-elf\rx-elf\rx-elf\include\c++\8.3.0.202004-gnurx\cmath ****   constexpr long
1624:c:\gcc for renesas rx 8.3.0.202004-gnurx-elf\rx-elf\rx-elf\rx-elf\include\c++\8.3.0.202004-gnurx\cmath ****   lround(float __x)
1625:c:\gcc for renesas rx 8.3.0.202004-gnurx-elf\rx-elf\rx-elf\rx-elf\include\c++\8.3.0.202004-gnurx\cmath ****   { return __builtin_lroundf(__x); }
1626:c:\gcc for renesas rx 8.3.0.202004-gnurx-elf\rx-elf\rx-elf\rx-elf\include\c++\8.3.0.202004-gnurx\cmath **** 
1627:c:\gcc for renesas rx 8.3.0.202004-gnurx-elf\rx-elf\rx-elf\rx-elf\include\c++\8.3.0.202004-gnurx\cmath ****   constexpr long
1628:c:\gcc for renesas rx 8.3.0.202004-gnurx-elf\rx-elf\rx-elf\rx-elf\include\c++\8.3.0.202004-gnurx\cmath ****   lround(long double __x)
1629:c:\gcc for renesas rx 8.3.0.202004-gnurx-elf\rx-elf\rx-elf\rx-elf\include\c++\8.3.0.202004-gnurx\cmath ****   { return __builtin_lroundl(__x); }
1630:c:\gcc for renesas rx 8.3.0.202004-gnurx-elf\rx-elf\rx-elf\rx-elf\include\c++\8.3.0.202004-gnurx\cmath **** #endif
1631:c:\gcc for renesas rx 8.3.0.202004-gnurx-elf\rx-elf\rx-elf\rx-elf\include\c++\8.3.0.202004-gnurx\cmath **** 
1632:c:\gcc for renesas rx 8.3.0.202004-gnurx-elf\rx-elf\rx-elf\rx-elf\include\c++\8.3.0.202004-gnurx\cmath **** #ifndef __CORRECT_ISO_CPP11_MATH_H_PROTO_INT
1633:c:\gcc for renesas rx 8.3.0.202004-gnurx-elf\rx-elf\rx-elf\rx-elf\include\c++\8.3.0.202004-gnurx\cmath ****   template<typename _Tp>
1634:c:\gcc for renesas rx 8.3.0.202004-gnurx-elf\rx-elf\rx-elf\rx-elf\include\c++\8.3.0.202004-gnurx\cmath ****     constexpr typename __gnu_cxx::__enable_if<__is_integer<_Tp>::__value, 
1635:c:\gcc for renesas rx 8.3.0.202004-gnurx-elf\rx-elf\rx-elf\rx-elf\include\c++\8.3.0.202004-gnurx\cmath ****                                               long>::__type
1636:c:\gcc for renesas rx 8.3.0.202004-gnurx-elf\rx-elf\rx-elf\rx-elf\include\c++\8.3.0.202004-gnurx\cmath ****     lround(_Tp __x)
1637:c:\gcc for renesas rx 8.3.0.202004-gnurx-elf\rx-elf\rx-elf\rx-elf\include\c++\8.3.0.202004-gnurx\cmath ****     { return __builtin_lround(__x); }
1638:c:\gcc for renesas rx 8.3.0.202004-gnurx-elf\rx-elf\rx-elf\rx-elf\include\c++\8.3.0.202004-gnurx\cmath **** #endif
1639:c:\gcc for renesas rx 8.3.0.202004-gnurx-elf\rx-elf\rx-elf\rx-elf\include\c++\8.3.0.202004-gnurx\cmath **** 
1640:c:\gcc for renesas rx 8.3.0.202004-gnurx-elf\rx-elf\rx-elf\rx-elf\include\c++\8.3.0.202004-gnurx\cmath **** #ifndef __CORRECT_ISO_CPP11_MATH_H_PROTO_FP
1641:c:\gcc for renesas rx 8.3.0.202004-gnurx-elf\rx-elf\rx-elf\rx-elf\include\c++\8.3.0.202004-gnurx\cmath ****   constexpr float
1642:c:\gcc for renesas rx 8.3.0.202004-gnurx-elf\rx-elf\rx-elf\rx-elf\include\c++\8.3.0.202004-gnurx\cmath ****   nearbyint(float __x)
1643:c:\gcc for renesas rx 8.3.0.202004-gnurx-elf\rx-elf\rx-elf\rx-elf\include\c++\8.3.0.202004-gnurx\cmath ****   { return __builtin_nearbyintf(__x); }
1644:c:\gcc for renesas rx 8.3.0.202004-gnurx-elf\rx-elf\rx-elf\rx-elf\include\c++\8.3.0.202004-gnurx\cmath **** 
1645:c:\gcc for renesas rx 8.3.0.202004-gnurx-elf\rx-elf\rx-elf\rx-elf\include\c++\8.3.0.202004-gnurx\cmath ****   constexpr long double
1646:c:\gcc for renesas rx 8.3.0.202004-gnurx-elf\rx-elf\rx-elf\rx-elf\include\c++\8.3.0.202004-gnurx\cmath ****   nearbyint(long double __x)
1647:c:\gcc for renesas rx 8.3.0.202004-gnurx-elf\rx-elf\rx-elf\rx-elf\include\c++\8.3.0.202004-gnurx\cmath ****   { return __builtin_nearbyintl(__x); }
1648:c:\gcc for renesas rx 8.3.0.202004-gnurx-elf\rx-elf\rx-elf\rx-elf\include\c++\8.3.0.202004-gnurx\cmath **** #endif
1649:c:\gcc for renesas rx 8.3.0.202004-gnurx-elf\rx-elf\rx-elf\rx-elf\include\c++\8.3.0.202004-gnurx\cmath **** 
1650:c:\gcc for renesas rx 8.3.0.202004-gnurx-elf\rx-elf\rx-elf\rx-elf\include\c++\8.3.0.202004-gnurx\cmath **** #ifndef __CORRECT_ISO_CPP11_MATH_H_PROTO_INT
1651:c:\gcc for renesas rx 8.3.0.202004-gnurx-elf\rx-elf\rx-elf\rx-elf\include\c++\8.3.0.202004-gnurx\cmath ****   template<typename _Tp>
1652:c:\gcc for renesas rx 8.3.0.202004-gnurx-elf\rx-elf\rx-elf\rx-elf\include\c++\8.3.0.202004-gnurx\cmath ****     constexpr typename __gnu_cxx::__enable_if<__is_integer<_Tp>::__value, 
1653:c:\gcc for renesas rx 8.3.0.202004-gnurx-elf\rx-elf\rx-elf\rx-elf\include\c++\8.3.0.202004-gnurx\cmath ****                                               double>::__type
1654:c:\gcc for renesas rx 8.3.0.202004-gnurx-elf\rx-elf\rx-elf\rx-elf\include\c++\8.3.0.202004-gnurx\cmath ****     nearbyint(_Tp __x)
1655:c:\gcc for renesas rx 8.3.0.202004-gnurx-elf\rx-elf\rx-elf\rx-elf\include\c++\8.3.0.202004-gnurx\cmath ****     { return __builtin_nearbyint(__x); }
1656:c:\gcc for renesas rx 8.3.0.202004-gnurx-elf\rx-elf\rx-elf\rx-elf\include\c++\8.3.0.202004-gnurx\cmath **** #endif
1657:c:\gcc for renesas rx 8.3.0.202004-gnurx-elf\rx-elf\rx-elf\rx-elf\include\c++\8.3.0.202004-gnurx\cmath **** 
1658:c:\gcc for renesas rx 8.3.0.202004-gnurx-elf\rx-elf\rx-elf\rx-elf\include\c++\8.3.0.202004-gnurx\cmath **** #ifndef __CORRECT_ISO_CPP11_MATH_H_PROTO_FP
1659:c:\gcc for renesas rx 8.3.0.202004-gnurx-elf\rx-elf\rx-elf\rx-elf\include\c++\8.3.0.202004-gnurx\cmath ****   constexpr float
1660:c:\gcc for renesas rx 8.3.0.202004-gnurx-elf\rx-elf\rx-elf\rx-elf\include\c++\8.3.0.202004-gnurx\cmath ****   nextafter(float __x, float __y)
1661:c:\gcc for renesas rx 8.3.0.202004-gnurx-elf\rx-elf\rx-elf\rx-elf\include\c++\8.3.0.202004-gnurx\cmath ****   { return __builtin_nextafterf(__x, __y); }
1662:c:\gcc for renesas rx 8.3.0.202004-gnurx-elf\rx-elf\rx-elf\rx-elf\include\c++\8.3.0.202004-gnurx\cmath **** 
1663:c:\gcc for renesas rx 8.3.0.202004-gnurx-elf\rx-elf\rx-elf\rx-elf\include\c++\8.3.0.202004-gnurx\cmath ****   constexpr long double
1664:c:\gcc for renesas rx 8.3.0.202004-gnurx-elf\rx-elf\rx-elf\rx-elf\include\c++\8.3.0.202004-gnurx\cmath ****   nextafter(long double __x, long double __y)
1665:c:\gcc for renesas rx 8.3.0.202004-gnurx-elf\rx-elf\rx-elf\rx-elf\include\c++\8.3.0.202004-gnurx\cmath ****   { return __builtin_nextafterl(__x, __y); }
1666:c:\gcc for renesas rx 8.3.0.202004-gnurx-elf\rx-elf\rx-elf\rx-elf\include\c++\8.3.0.202004-gnurx\cmath **** #endif
1667:c:\gcc for renesas rx 8.3.0.202004-gnurx-elf\rx-elf\rx-elf\rx-elf\include\c++\8.3.0.202004-gnurx\cmath **** 
1668:c:\gcc for renesas rx 8.3.0.202004-gnurx-elf\rx-elf\rx-elf\rx-elf\include\c++\8.3.0.202004-gnurx\cmath **** #ifndef __CORRECT_ISO_CPP11_MATH_H_PROTO_INT
1669:c:\gcc for renesas rx 8.3.0.202004-gnurx-elf\rx-elf\rx-elf\rx-elf\include\c++\8.3.0.202004-gnurx\cmath ****   template<typename _Tp, typename _Up>
1670:c:\gcc for renesas rx 8.3.0.202004-gnurx-elf\rx-elf\rx-elf\rx-elf\include\c++\8.3.0.202004-gnurx\cmath ****     constexpr typename __gnu_cxx::__promote_2<_Tp, _Up>::__type
1671:c:\gcc for renesas rx 8.3.0.202004-gnurx-elf\rx-elf\rx-elf\rx-elf\include\c++\8.3.0.202004-gnurx\cmath ****     nextafter(_Tp __x, _Up __y)
1672:c:\gcc for renesas rx 8.3.0.202004-gnurx-elf\rx-elf\rx-elf\rx-elf\include\c++\8.3.0.202004-gnurx\cmath ****     {
1673:c:\gcc for renesas rx 8.3.0.202004-gnurx-elf\rx-elf\rx-elf\rx-elf\include\c++\8.3.0.202004-gnurx\cmath ****       typedef typename __gnu_cxx::__promote_2<_Tp, _Up>::__type __type;
1674:c:\gcc for renesas rx 8.3.0.202004-gnurx-elf\rx-elf\rx-elf\rx-elf\include\c++\8.3.0.202004-gnurx\cmath ****       return nextafter(__type(__x), __type(__y));
1675:c:\gcc for renesas rx 8.3.0.202004-gnurx-elf\rx-elf\rx-elf\rx-elf\include\c++\8.3.0.202004-gnurx\cmath ****     }
1676:c:\gcc for renesas rx 8.3.0.202004-gnurx-elf\rx-elf\rx-elf\rx-elf\include\c++\8.3.0.202004-gnurx\cmath **** #endif
1677:c:\gcc for renesas rx 8.3.0.202004-gnurx-elf\rx-elf\rx-elf\rx-elf\include\c++\8.3.0.202004-gnurx\cmath **** 
1678:c:\gcc for renesas rx 8.3.0.202004-gnurx-elf\rx-elf\rx-elf\rx-elf\include\c++\8.3.0.202004-gnurx\cmath **** #ifndef __CORRECT_ISO_CPP11_MATH_H_PROTO_FP
1679:c:\gcc for renesas rx 8.3.0.202004-gnurx-elf\rx-elf\rx-elf\rx-elf\include\c++\8.3.0.202004-gnurx\cmath ****   constexpr float
1680:c:\gcc for renesas rx 8.3.0.202004-gnurx-elf\rx-elf\rx-elf\rx-elf\include\c++\8.3.0.202004-gnurx\cmath ****   nexttoward(float __x, long double __y)
1681:c:\gcc for renesas rx 8.3.0.202004-gnurx-elf\rx-elf\rx-elf\rx-elf\include\c++\8.3.0.202004-gnurx\cmath ****   { return __builtin_nexttowardf(__x, __y); }
1682:c:\gcc for renesas rx 8.3.0.202004-gnurx-elf\rx-elf\rx-elf\rx-elf\include\c++\8.3.0.202004-gnurx\cmath **** 
1683:c:\gcc for renesas rx 8.3.0.202004-gnurx-elf\rx-elf\rx-elf\rx-elf\include\c++\8.3.0.202004-gnurx\cmath ****   constexpr long double
1684:c:\gcc for renesas rx 8.3.0.202004-gnurx-elf\rx-elf\rx-elf\rx-elf\include\c++\8.3.0.202004-gnurx\cmath ****   nexttoward(long double __x, long double __y)
1685:c:\gcc for renesas rx 8.3.0.202004-gnurx-elf\rx-elf\rx-elf\rx-elf\include\c++\8.3.0.202004-gnurx\cmath ****   { return __builtin_nexttowardl(__x, __y); }
1686:c:\gcc for renesas rx 8.3.0.202004-gnurx-elf\rx-elf\rx-elf\rx-elf\include\c++\8.3.0.202004-gnurx\cmath **** #endif
1687:c:\gcc for renesas rx 8.3.0.202004-gnurx-elf\rx-elf\rx-elf\rx-elf\include\c++\8.3.0.202004-gnurx\cmath **** 
1688:c:\gcc for renesas rx 8.3.0.202004-gnurx-elf\rx-elf\rx-elf\rx-elf\include\c++\8.3.0.202004-gnurx\cmath **** #ifndef __CORRECT_ISO_CPP11_MATH_H_PROTO_INT
1689:c:\gcc for renesas rx 8.3.0.202004-gnurx-elf\rx-elf\rx-elf\rx-elf\include\c++\8.3.0.202004-gnurx\cmath ****   template<typename _Tp>
1690:c:\gcc for renesas rx 8.3.0.202004-gnurx-elf\rx-elf\rx-elf\rx-elf\include\c++\8.3.0.202004-gnurx\cmath ****     constexpr typename __gnu_cxx::__enable_if<__is_integer<_Tp>::__value, 
1691:c:\gcc for renesas rx 8.3.0.202004-gnurx-elf\rx-elf\rx-elf\rx-elf\include\c++\8.3.0.202004-gnurx\cmath ****                                               double>::__type
1692:c:\gcc for renesas rx 8.3.0.202004-gnurx-elf\rx-elf\rx-elf\rx-elf\include\c++\8.3.0.202004-gnurx\cmath ****     nexttoward(_Tp __x, long double __y)
1693:c:\gcc for renesas rx 8.3.0.202004-gnurx-elf\rx-elf\rx-elf\rx-elf\include\c++\8.3.0.202004-gnurx\cmath ****     { return __builtin_nexttoward(__x, __y); }
1694:c:\gcc for renesas rx 8.3.0.202004-gnurx-elf\rx-elf\rx-elf\rx-elf\include\c++\8.3.0.202004-gnurx\cmath **** #endif
1695:c:\gcc for renesas rx 8.3.0.202004-gnurx-elf\rx-elf\rx-elf\rx-elf\include\c++\8.3.0.202004-gnurx\cmath **** 
1696:c:\gcc for renesas rx 8.3.0.202004-gnurx-elf\rx-elf\rx-elf\rx-elf\include\c++\8.3.0.202004-gnurx\cmath **** #ifndef __CORRECT_ISO_CPP11_MATH_H_PROTO_FP
1697:c:\gcc for renesas rx 8.3.0.202004-gnurx-elf\rx-elf\rx-elf\rx-elf\include\c++\8.3.0.202004-gnurx\cmath ****   constexpr float
1698:c:\gcc for renesas rx 8.3.0.202004-gnurx-elf\rx-elf\rx-elf\rx-elf\include\c++\8.3.0.202004-gnurx\cmath ****   remainder(float __x, float __y)
1699:c:\gcc for renesas rx 8.3.0.202004-gnurx-elf\rx-elf\rx-elf\rx-elf\include\c++\8.3.0.202004-gnurx\cmath ****   { return __builtin_remainderf(__x, __y); }
1700:c:\gcc for renesas rx 8.3.0.202004-gnurx-elf\rx-elf\rx-elf\rx-elf\include\c++\8.3.0.202004-gnurx\cmath **** 
1701:c:\gcc for renesas rx 8.3.0.202004-gnurx-elf\rx-elf\rx-elf\rx-elf\include\c++\8.3.0.202004-gnurx\cmath ****   constexpr long double
1702:c:\gcc for renesas rx 8.3.0.202004-gnurx-elf\rx-elf\rx-elf\rx-elf\include\c++\8.3.0.202004-gnurx\cmath ****   remainder(long double __x, long double __y)
1703:c:\gcc for renesas rx 8.3.0.202004-gnurx-elf\rx-elf\rx-elf\rx-elf\include\c++\8.3.0.202004-gnurx\cmath ****   { return __builtin_remainderl(__x, __y); }
1704:c:\gcc for renesas rx 8.3.0.202004-gnurx-elf\rx-elf\rx-elf\rx-elf\include\c++\8.3.0.202004-gnurx\cmath **** #endif
1705:c:\gcc for renesas rx 8.3.0.202004-gnurx-elf\rx-elf\rx-elf\rx-elf\include\c++\8.3.0.202004-gnurx\cmath **** 
1706:c:\gcc for renesas rx 8.3.0.202004-gnurx-elf\rx-elf\rx-elf\rx-elf\include\c++\8.3.0.202004-gnurx\cmath **** #ifndef __CORRECT_ISO_CPP11_MATH_H_PROTO_INT
1707:c:\gcc for renesas rx 8.3.0.202004-gnurx-elf\rx-elf\rx-elf\rx-elf\include\c++\8.3.0.202004-gnurx\cmath ****   template<typename _Tp, typename _Up>
1708:c:\gcc for renesas rx 8.3.0.202004-gnurx-elf\rx-elf\rx-elf\rx-elf\include\c++\8.3.0.202004-gnurx\cmath ****     constexpr typename __gnu_cxx::__promote_2<_Tp, _Up>::__type
1709:c:\gcc for renesas rx 8.3.0.202004-gnurx-elf\rx-elf\rx-elf\rx-elf\include\c++\8.3.0.202004-gnurx\cmath ****     remainder(_Tp __x, _Up __y)
1710:c:\gcc for renesas rx 8.3.0.202004-gnurx-elf\rx-elf\rx-elf\rx-elf\include\c++\8.3.0.202004-gnurx\cmath ****     {
1711:c:\gcc for renesas rx 8.3.0.202004-gnurx-elf\rx-elf\rx-elf\rx-elf\include\c++\8.3.0.202004-gnurx\cmath ****       typedef typename __gnu_cxx::__promote_2<_Tp, _Up>::__type __type;
1712:c:\gcc for renesas rx 8.3.0.202004-gnurx-elf\rx-elf\rx-elf\rx-elf\include\c++\8.3.0.202004-gnurx\cmath ****       return remainder(__type(__x), __type(__y));
1713:c:\gcc for renesas rx 8.3.0.202004-gnurx-elf\rx-elf\rx-elf\rx-elf\include\c++\8.3.0.202004-gnurx\cmath ****     }
1714:c:\gcc for renesas rx 8.3.0.202004-gnurx-elf\rx-elf\rx-elf\rx-elf\include\c++\8.3.0.202004-gnurx\cmath **** #endif
1715:c:\gcc for renesas rx 8.3.0.202004-gnurx-elf\rx-elf\rx-elf\rx-elf\include\c++\8.3.0.202004-gnurx\cmath **** 
1716:c:\gcc for renesas rx 8.3.0.202004-gnurx-elf\rx-elf\rx-elf\rx-elf\include\c++\8.3.0.202004-gnurx\cmath **** #ifndef __CORRECT_ISO_CPP11_MATH_H_PROTO_FP
1717:c:\gcc for renesas rx 8.3.0.202004-gnurx-elf\rx-elf\rx-elf\rx-elf\include\c++\8.3.0.202004-gnurx\cmath ****   inline float
1718:c:\gcc for renesas rx 8.3.0.202004-gnurx-elf\rx-elf\rx-elf\rx-elf\include\c++\8.3.0.202004-gnurx\cmath ****   remquo(float __x, float __y, int* __pquo)
1719:c:\gcc for renesas rx 8.3.0.202004-gnurx-elf\rx-elf\rx-elf\rx-elf\include\c++\8.3.0.202004-gnurx\cmath ****   { return __builtin_remquof(__x, __y, __pquo); }
1720:c:\gcc for renesas rx 8.3.0.202004-gnurx-elf\rx-elf\rx-elf\rx-elf\include\c++\8.3.0.202004-gnurx\cmath **** 
1721:c:\gcc for renesas rx 8.3.0.202004-gnurx-elf\rx-elf\rx-elf\rx-elf\include\c++\8.3.0.202004-gnurx\cmath ****   inline long double
1722:c:\gcc for renesas rx 8.3.0.202004-gnurx-elf\rx-elf\rx-elf\rx-elf\include\c++\8.3.0.202004-gnurx\cmath ****   remquo(long double __x, long double __y, int* __pquo)
1723:c:\gcc for renesas rx 8.3.0.202004-gnurx-elf\rx-elf\rx-elf\rx-elf\include\c++\8.3.0.202004-gnurx\cmath ****   { return __builtin_remquol(__x, __y, __pquo); }
1724:c:\gcc for renesas rx 8.3.0.202004-gnurx-elf\rx-elf\rx-elf\rx-elf\include\c++\8.3.0.202004-gnurx\cmath **** #endif
1725:c:\gcc for renesas rx 8.3.0.202004-gnurx-elf\rx-elf\rx-elf\rx-elf\include\c++\8.3.0.202004-gnurx\cmath **** 
1726:c:\gcc for renesas rx 8.3.0.202004-gnurx-elf\rx-elf\rx-elf\rx-elf\include\c++\8.3.0.202004-gnurx\cmath **** #ifndef __CORRECT_ISO_CPP11_MATH_H_PROTO_INT
1727:c:\gcc for renesas rx 8.3.0.202004-gnurx-elf\rx-elf\rx-elf\rx-elf\include\c++\8.3.0.202004-gnurx\cmath ****   template<typename _Tp, typename _Up>
1728:c:\gcc for renesas rx 8.3.0.202004-gnurx-elf\rx-elf\rx-elf\rx-elf\include\c++\8.3.0.202004-gnurx\cmath ****     inline typename __gnu_cxx::__promote_2<_Tp, _Up>::__type
1729:c:\gcc for renesas rx 8.3.0.202004-gnurx-elf\rx-elf\rx-elf\rx-elf\include\c++\8.3.0.202004-gnurx\cmath ****     remquo(_Tp __x, _Up __y, int* __pquo)
1730:c:\gcc for renesas rx 8.3.0.202004-gnurx-elf\rx-elf\rx-elf\rx-elf\include\c++\8.3.0.202004-gnurx\cmath ****     {
1731:c:\gcc for renesas rx 8.3.0.202004-gnurx-elf\rx-elf\rx-elf\rx-elf\include\c++\8.3.0.202004-gnurx\cmath ****       typedef typename __gnu_cxx::__promote_2<_Tp, _Up>::__type __type;
1732:c:\gcc for renesas rx 8.3.0.202004-gnurx-elf\rx-elf\rx-elf\rx-elf\include\c++\8.3.0.202004-gnurx\cmath ****       return remquo(__type(__x), __type(__y), __pquo);
1733:c:\gcc for renesas rx 8.3.0.202004-gnurx-elf\rx-elf\rx-elf\rx-elf\include\c++\8.3.0.202004-gnurx\cmath ****     }
1734:c:\gcc for renesas rx 8.3.0.202004-gnurx-elf\rx-elf\rx-elf\rx-elf\include\c++\8.3.0.202004-gnurx\cmath **** #endif
1735:c:\gcc for renesas rx 8.3.0.202004-gnurx-elf\rx-elf\rx-elf\rx-elf\include\c++\8.3.0.202004-gnurx\cmath **** 
1736:c:\gcc for renesas rx 8.3.0.202004-gnurx-elf\rx-elf\rx-elf\rx-elf\include\c++\8.3.0.202004-gnurx\cmath **** #ifndef __CORRECT_ISO_CPP11_MATH_H_PROTO_FP
1737:c:\gcc for renesas rx 8.3.0.202004-gnurx-elf\rx-elf\rx-elf\rx-elf\include\c++\8.3.0.202004-gnurx\cmath ****   constexpr float
1738:c:\gcc for renesas rx 8.3.0.202004-gnurx-elf\rx-elf\rx-elf\rx-elf\include\c++\8.3.0.202004-gnurx\cmath ****   rint(float __x)
1739:c:\gcc for renesas rx 8.3.0.202004-gnurx-elf\rx-elf\rx-elf\rx-elf\include\c++\8.3.0.202004-gnurx\cmath ****   { return __builtin_rintf(__x); }
1740:c:\gcc for renesas rx 8.3.0.202004-gnurx-elf\rx-elf\rx-elf\rx-elf\include\c++\8.3.0.202004-gnurx\cmath **** 
1741:c:\gcc for renesas rx 8.3.0.202004-gnurx-elf\rx-elf\rx-elf\rx-elf\include\c++\8.3.0.202004-gnurx\cmath ****   constexpr long double
1742:c:\gcc for renesas rx 8.3.0.202004-gnurx-elf\rx-elf\rx-elf\rx-elf\include\c++\8.3.0.202004-gnurx\cmath ****   rint(long double __x)
1743:c:\gcc for renesas rx 8.3.0.202004-gnurx-elf\rx-elf\rx-elf\rx-elf\include\c++\8.3.0.202004-gnurx\cmath ****   { return __builtin_rintl(__x); }
1744:c:\gcc for renesas rx 8.3.0.202004-gnurx-elf\rx-elf\rx-elf\rx-elf\include\c++\8.3.0.202004-gnurx\cmath **** #endif
1745:c:\gcc for renesas rx 8.3.0.202004-gnurx-elf\rx-elf\rx-elf\rx-elf\include\c++\8.3.0.202004-gnurx\cmath **** 
1746:c:\gcc for renesas rx 8.3.0.202004-gnurx-elf\rx-elf\rx-elf\rx-elf\include\c++\8.3.0.202004-gnurx\cmath **** #ifndef __CORRECT_ISO_CPP11_MATH_H_PROTO_INT
1747:c:\gcc for renesas rx 8.3.0.202004-gnurx-elf\rx-elf\rx-elf\rx-elf\include\c++\8.3.0.202004-gnurx\cmath ****   template<typename _Tp>
1748:c:\gcc for renesas rx 8.3.0.202004-gnurx-elf\rx-elf\rx-elf\rx-elf\include\c++\8.3.0.202004-gnurx\cmath ****     constexpr typename __gnu_cxx::__enable_if<__is_integer<_Tp>::__value, 
1749:c:\gcc for renesas rx 8.3.0.202004-gnurx-elf\rx-elf\rx-elf\rx-elf\include\c++\8.3.0.202004-gnurx\cmath ****                                               double>::__type
1750:c:\gcc for renesas rx 8.3.0.202004-gnurx-elf\rx-elf\rx-elf\rx-elf\include\c++\8.3.0.202004-gnurx\cmath ****     rint(_Tp __x)
1751:c:\gcc for renesas rx 8.3.0.202004-gnurx-elf\rx-elf\rx-elf\rx-elf\include\c++\8.3.0.202004-gnurx\cmath ****     { return __builtin_rint(__x); }
1752:c:\gcc for renesas rx 8.3.0.202004-gnurx-elf\rx-elf\rx-elf\rx-elf\include\c++\8.3.0.202004-gnurx\cmath **** #endif
1753:c:\gcc for renesas rx 8.3.0.202004-gnurx-elf\rx-elf\rx-elf\rx-elf\include\c++\8.3.0.202004-gnurx\cmath **** 
1754:c:\gcc for renesas rx 8.3.0.202004-gnurx-elf\rx-elf\rx-elf\rx-elf\include\c++\8.3.0.202004-gnurx\cmath **** #ifndef __CORRECT_ISO_CPP11_MATH_H_PROTO_FP
1755:c:\gcc for renesas rx 8.3.0.202004-gnurx-elf\rx-elf\rx-elf\rx-elf\include\c++\8.3.0.202004-gnurx\cmath ****   constexpr float
1756:c:\gcc for renesas rx 8.3.0.202004-gnurx-elf\rx-elf\rx-elf\rx-elf\include\c++\8.3.0.202004-gnurx\cmath ****   round(float __x)
1757:c:\gcc for renesas rx 8.3.0.202004-gnurx-elf\rx-elf\rx-elf\rx-elf\include\c++\8.3.0.202004-gnurx\cmath ****   { return __builtin_roundf(__x); }
 1452                             		.loc 4 1757 5
 1453                             		.loc 4 1757 28 is_stmt 0
 1454 004d 05 00 00 00             		bsr	_roundf
 1455                             	.LVL180:
 1456                             	.LBE251:
 1457                             	.LBE250:
 1458                             	.LBE249:
 351:../src/tensorflow/lite/kernels/internal/quantization_util.cc ****   }
 1459                             		.loc 1 351 23
 1460 0051 FC A7 13                		ftou	r1, r3
 1461                             	.LVL181:
 353:../src/tensorflow/lite/kernels/internal/quantization_util.cc ****   *nudged_max = (quant_max_float - nudged_zero_point) * (*nudged_scale);
 1462                             		.loc 1 353 3 is_stmt 1
 353:../src/tensorflow/lite/kernels/internal/quantization_util.cc ****   *nudged_max = (quant_max_float - nudged_zero_point) * (*nudged_scale);
 1463                             		.loc 1 353 34 is_stmt 0
 1464 0054 5F 31                   		movu.W	r3, r1
 1465 0056 FC 47 11                		itof	r1, r1
 1466 0059 FC 83 1A                		fsub	r1, r10
 1467                             	.LVL182:
 353:../src/tensorflow/lite/kernels/internal/quantization_util.cc ****   *nudged_max = (quant_max_float - nudged_zero_point) * (*nudged_scale);
 1468                             		.loc 1 353 55
 1469 005c FC 8F 9A                		fmul	r9, r10
 353:../src/tensorflow/lite/kernels/internal/quantization_util.cc ****   *nudged_max = (quant_max_float - nudged_zero_point) * (*nudged_scale);
 1470                             		.loc 1 353 15
 1471 005f E3 CA                   		mov.L	r10, [r12]
 354:../src/tensorflow/lite/kernels/internal/quantization_util.cc **** }
 1472                             		.loc 1 354 3 is_stmt 1
 354:../src/tensorflow/lite/kernels/internal/quantization_util.cc **** }
 1473                             		.loc 1 354 34 is_stmt 0
 1474 0061 FF 81 16                		fsub	r1, r6, r1
 354:../src/tensorflow/lite/kernels/internal/quantization_util.cc **** }
 1475                             		.loc 1 354 55
 1476 0064 EC B6                   		mov.L	[r11], r6
 1477                             	.LVL183:
 1478 0066 FC 8F 61                		fmul	r6, r1
 354:../src/tensorflow/lite/kernels/internal/quantization_util.cc **** }
 1479                             		.loc 1 354 15
 1480 0069 E3 71                   		mov.L	r1, [r7]
 1481                             		.loc 1 355 1
 1482 006b 3F 6C 0A                		rtsd	#40, r6-r12
 1483                             	.LFE1185:
 1485 006e EF 00                   		.section	.text._ZN6tflite17FakeQuantizeArrayEfffPKfPff,"ax",@progbits
 1486                             		.global	__ZN6tflite17FakeQuantizeArrayEfffPKfPff
 1488                             	__ZN6tflite17FakeQuantizeArrayEfffPKfPff:
 1489                             	.LFB1186:
 356:../src/tensorflow/lite/kernels/internal/quantization_util.cc **** 
 357:../src/tensorflow/lite/kernels/internal/quantization_util.cc **** void FakeQuantizeArray(const float nudged_scale, const float nudged_min,
 358:../src/tensorflow/lite/kernels/internal/quantization_util.cc ****                        const float nudged_max, const float* input_data,
 359:../src/tensorflow/lite/kernels/internal/quantization_util.cc ****                        float* output_data, const float size) {
 1490                             		.loc 1 359 62 is_stmt 1
 1491                             	.LVL184:
 1492 0000 6E 6D                   		pushm	r6-r13
 1493                             	.LCFI17:
 1494 0002 60 80                   		sub	#8, r0
 1495                             	.LCFI18:
 360:../src/tensorflow/lite/kernels/internal/quantization_util.cc ****   // This code originates from tensorflow/core/kernels/fake_quant_ops_functor.h.
 361:../src/tensorflow/lite/kernels/internal/quantization_util.cc ****   const float inv_nudged_scale = 1.0f / nudged_scale;
 1496                             		.loc 1 361 3
 359:../src/tensorflow/lite/kernels/internal/quantization_util.cc ****   // This code originates from tensorflow/core/kernels/fake_quant_ops_functor.h.
 1497                             		.loc 1 359 62 is_stmt 0
 1498 0004 75 47 2C                		mov.L	#44, r7
 1499 0007 4B 07                   		add	r0, r7
 1500 0009 EF 1B                   		mov.L	r1, r11
 1501 000b A8 7E                   		mov.L	4[r7], r6
 1502                             	.LBB252:
 362:../src/tensorflow/lite/kernels/internal/quantization_util.cc **** 
 363:../src/tensorflow/lite/kernels/internal/quantization_util.cc ****   for (int i = 0; i < size; i++) {
 1503                             		.loc 1 363 21
 1504 000d 66 05                   		mov.L	#0x0, r5
 1505                             	.LBE252:
 359:../src/tensorflow/lite/kernels/internal/quantization_util.cc ****   // This code originates from tensorflow/core/kernels/fake_quant_ops_functor.h.
 1506                             		.loc 1 359 62
 1507 000f EF 28                   		mov.L	r2, r8
 1508 0011 EF 3D                   		mov.L	r3, r13
 1509 0013 EF 4C                   		mov.L	r4, r12
 361:../src/tensorflow/lite/kernels/internal/quantization_util.cc **** 
 1510                             		.loc 1 361 15
 1511 0015 FB A2 00 00 80 3F       		mov.L	#0x3f800000, r10
 1512 001b FC 93 1A                		fdiv	r1, r10
 1513                             	.LVL185:
 1514                             		.loc 1 363 3 is_stmt 1
 359:../src/tensorflow/lite/kernels/internal/quantization_util.cc ****   // This code originates from tensorflow/core/kernels/fake_quant_ops_functor.h.
 1515                             		.loc 1 359 62 is_stmt 0
 1516 001e EC 79                   		mov.L	[r7], r9
 1517                             	.LBB268:
 1518                             		.loc 1 363 12
 1519 0020 66 07                   		mov.L	#0, r7
 1520                             		.loc 1 363 21
 1521 0022 FC 87 65                		fcmp	r6, r5
 1522 0025 27 23                   		bn	.L148
 1523 0027 2E 35                   		bra	.L147
 1524                             	.LVL186:
 1525                             	.L157:
 1526                             	.LBB253:
 364:../src/tensorflow/lite/kernels/internal/quantization_util.cc ****     const float src_val = input_data[i];
 365:../src/tensorflow/lite/kernels/internal/quantization_util.cc ****     const float clamped = std::min(nudged_max, std::max(nudged_min, src_val));
 366:../src/tensorflow/lite/kernels/internal/quantization_util.cc ****     const float clamped_shifted = clamped - nudged_min;
 1527                             		.loc 1 366 17
 1528 0029 FF 81 8D                		fsub	r8, r13, r1
 1529                             	.LVL187:
 1530                             		.balign 8,3,2
 1531                             	.L159:
 1532                             	.LBB254:
 1533                             	.LBB255:
 1534                             	.LBB256:
 1535                             		.loc 4 1757 28
 1536 002c FC 8F A1                		fmul	r10, r1
 1537 002f 05 00 00 00             		bsr	_roundf
 1538                             	.LVL188:
 1539                             	.LBE256:
 1540                             	.LBE255:
 1541                             	.LBE254:
 367:../src/tensorflow/lite/kernels/internal/quantization_util.cc ****     const float dst_val =
 368:../src/tensorflow/lite/kernels/internal/quantization_util.cc ****         TfLiteRound(clamped_shifted * inv_nudged_scale) * nudged_scale +
 369:../src/tensorflow/lite/kernels/internal/quantization_util.cc ****         nudged_min;
 370:../src/tensorflow/lite/kernels/internal/quantization_util.cc ****     output_data[i] = dst_val;
 1542                             		.loc 1 370 5 is_stmt 1
 368:../src/tensorflow/lite/kernels/internal/quantization_util.cc ****         nudged_min;
 1543                             		.loc 1 368 57 is_stmt 0
 1544 0033 FC 8F B1                		fmul	r11, r1
 1545                             	.LVL189:
 369:../src/tensorflow/lite/kernels/internal/quantization_util.cc ****     output_data[i] = dst_val;
 1546                             		.loc 1 369 9
 1547 0036 FC 8B 81                		fadd	r8, r1
 1548                             	.LVL190:
 1549                             		.loc 1 370 20
 1550 0039 FE 27 91                		mov.L	r1, [r7,r9]
 1551                             	.LBE253:
 363:../src/tensorflow/lite/kernels/internal/quantization_util.cc ****     const float src_val = input_data[i];
 1552                             		.loc 1 363 3
 1553 003c 62 17                   		add	#1, r7
 1554                             	.LVL191:
 363:../src/tensorflow/lite/kernels/internal/quantization_util.cc ****     const float src_val = input_data[i];
 1555                             		.loc 1 363 21
 1556 003e FC 47 75                		itof	r7, r5
 1557 0041 FC 87 65                		fcmp	r6, r5
 1558 0044 26 18                   		bpz	.L147
 1559                             	.LVL192:
 1560 0046 EF 00                   		.balign 8,3,3
 1561                             	.L148:
 1562                             	.LBB267:
 364:../src/tensorflow/lite/kernels/internal/quantization_util.cc ****     const float clamped = std::min(nudged_max, std::max(nudged_min, src_val));
 1563                             		.loc 1 364 5 is_stmt 1
 366:../src/tensorflow/lite/kernels/internal/quantization_util.cc ****     const float dst_val =
 1564                             		.loc 1 366 5
 367:../src/tensorflow/lite/kernels/internal/quantization_util.cc ****         TfLiteRound(clamped_shifted * inv_nudged_scale) * nudged_scale +
 1565                             		.loc 1 367 5
 1566                             	.LBB261:
 1567                             	.LBB259:
 1568                             	.LBB257:
 1569                             		.loc 4 1757 5
 1570                             	.LBE257:
 1571                             	.LBE259:
 1572                             	.LBE261:
 364:../src/tensorflow/lite/kernels/internal/quantization_util.cc ****     const float clamped = std::min(nudged_max, std::max(nudged_min, src_val));
 1573                             		.loc 1 364 39 is_stmt 0
 1574 0048 FE 67 C1                		mov.L	[r7,r12], r1
 1575                             	.LVL193:
 365:../src/tensorflow/lite/kernels/internal/quantization_util.cc ****     const float clamped_shifted = clamped - nudged_min;
 1576                             		.loc 1 365 5 is_stmt 1
 1577                             	.LBB262:
 1578                             	.LBB263:
 202:c:\gcc for renesas rx 8.3.0.202004-gnurx-elf\rx-elf\rx-elf\rx-elf\include\c++\8.3.0.202004-gnurx\bits\stl_algobase.h ****       return __a;
 203:c:\gcc for renesas rx 8.3.0.202004-gnurx-elf\rx-elf\rx-elf\rx-elf\include\c++\8.3.0.202004-gnurx\bits\stl_algobase.h ****     }
 204:c:\gcc for renesas rx 8.3.0.202004-gnurx-elf\rx-elf\rx-elf\rx-elf\include\c++\8.3.0.202004-gnurx\bits\stl_algobase.h **** 
 205:c:\gcc for renesas rx 8.3.0.202004-gnurx-elf\rx-elf\rx-elf\rx-elf\include\c++\8.3.0.202004-gnurx\bits\stl_algobase.h ****   /**
 206:c:\gcc for renesas rx 8.3.0.202004-gnurx-elf\rx-elf\rx-elf\rx-elf\include\c++\8.3.0.202004-gnurx\bits\stl_algobase.h ****    *  @brief This does what you think it does.
 207:c:\gcc for renesas rx 8.3.0.202004-gnurx-elf\rx-elf\rx-elf\rx-elf\include\c++\8.3.0.202004-gnurx\bits\stl_algobase.h ****    *  @ingroup sorting_algorithms
 208:c:\gcc for renesas rx 8.3.0.202004-gnurx-elf\rx-elf\rx-elf\rx-elf\include\c++\8.3.0.202004-gnurx\bits\stl_algobase.h ****    *  @param  __a  A thing of arbitrary type.
 209:c:\gcc for renesas rx 8.3.0.202004-gnurx-elf\rx-elf\rx-elf\rx-elf\include\c++\8.3.0.202004-gnurx\bits\stl_algobase.h ****    *  @param  __b  Another thing of arbitrary type.
 210:c:\gcc for renesas rx 8.3.0.202004-gnurx-elf\rx-elf\rx-elf\rx-elf\include\c++\8.3.0.202004-gnurx\bits\stl_algobase.h ****    *  @return   The greater of the parameters.
 211:c:\gcc for renesas rx 8.3.0.202004-gnurx-elf\rx-elf\rx-elf\rx-elf\include\c++\8.3.0.202004-gnurx\bits\stl_algobase.h ****    *
 212:c:\gcc for renesas rx 8.3.0.202004-gnurx-elf\rx-elf\rx-elf\rx-elf\include\c++\8.3.0.202004-gnurx\bits\stl_algobase.h ****    *  This is the simple classic generic implementation.  It will work on
 213:c:\gcc for renesas rx 8.3.0.202004-gnurx-elf\rx-elf\rx-elf\rx-elf\include\c++\8.3.0.202004-gnurx\bits\stl_algobase.h ****    *  temporary expressions, since they are only evaluated once, unlike a
 214:c:\gcc for renesas rx 8.3.0.202004-gnurx-elf\rx-elf\rx-elf\rx-elf\include\c++\8.3.0.202004-gnurx\bits\stl_algobase.h ****    *  preprocessor macro.
 215:c:\gcc for renesas rx 8.3.0.202004-gnurx-elf\rx-elf\rx-elf\rx-elf\include\c++\8.3.0.202004-gnurx\bits\stl_algobase.h ****   */
 216:c:\gcc for renesas rx 8.3.0.202004-gnurx-elf\rx-elf\rx-elf\rx-elf\include\c++\8.3.0.202004-gnurx\bits\stl_algobase.h ****   template<typename _Tp>
 217:c:\gcc for renesas rx 8.3.0.202004-gnurx-elf\rx-elf\rx-elf\rx-elf\include\c++\8.3.0.202004-gnurx\bits\stl_algobase.h ****     _GLIBCXX14_CONSTEXPR
 218:c:\gcc for renesas rx 8.3.0.202004-gnurx-elf\rx-elf\rx-elf\rx-elf\include\c++\8.3.0.202004-gnurx\bits\stl_algobase.h ****     inline const _Tp&
 219:c:\gcc for renesas rx 8.3.0.202004-gnurx-elf\rx-elf\rx-elf\rx-elf\include\c++\8.3.0.202004-gnurx\bits\stl_algobase.h ****     max(const _Tp& __a, const _Tp& __b)
 220:c:\gcc for renesas rx 8.3.0.202004-gnurx-elf\rx-elf\rx-elf\rx-elf\include\c++\8.3.0.202004-gnurx\bits\stl_algobase.h ****     {
 221:c:\gcc for renesas rx 8.3.0.202004-gnurx-elf\rx-elf\rx-elf\rx-elf\include\c++\8.3.0.202004-gnurx\bits\stl_algobase.h ****       // concept requirements
 222:c:\gcc for renesas rx 8.3.0.202004-gnurx-elf\rx-elf\rx-elf\rx-elf\include\c++\8.3.0.202004-gnurx\bits\stl_algobase.h ****       __glibcxx_function_requires(_LessThanComparableConcept<_Tp>)
 223:c:\gcc for renesas rx 8.3.0.202004-gnurx-elf\rx-elf\rx-elf\rx-elf\include\c++\8.3.0.202004-gnurx\bits\stl_algobase.h ****       //return  __a < __b ? __b : __a;
 224:c:\gcc for renesas rx 8.3.0.202004-gnurx-elf\rx-elf\rx-elf\rx-elf\include\c++\8.3.0.202004-gnurx\bits\stl_algobase.h ****       if (__a < __b)
 1579                             		.loc 3 224 7 is_stmt 0
 1580 004b FC 87 18                		fcmp	r1, r8
 1581 004e 27 04                   		bn	.L150
 225:c:\gcc for renesas rx 8.3.0.202004-gnurx-elf\rx-elf\rx-elf\rx-elf\include\c++\8.3.0.202004-gnurx\bits\stl_algobase.h **** 	return __b;
 226:c:\gcc for renesas rx 8.3.0.202004-gnurx-elf\rx-elf\rx-elf\rx-elf\include\c++\8.3.0.202004-gnurx\bits\stl_algobase.h ****       return __a;
 1582                             		.loc 3 226 14
 1583 0050 EF 81                   		mov.L	r8, r1
 1584                             	.LVL194:
 1585                             		.balign 8,3,2
 1586                             	.L150:
 1587                             	.LBE263:
 1588                             	.LBE262:
 1589                             	.LBB264:
 1590                             	.LBB265:
 200:c:\gcc for renesas rx 8.3.0.202004-gnurx-elf\rx-elf\rx-elf\rx-elf\include\c++\8.3.0.202004-gnurx\bits\stl_algobase.h **** 	return __b;
 1591                             		.loc 3 200 7
 1592 0052 FC 87 D1                		fcmp	r13, r1
 1593 0055 26 D4                   		bpz	.L157
 1594                             	.LBE265:
 1595                             	.LBE264:
 366:../src/tensorflow/lite/kernels/internal/quantization_util.cc ****     const float dst_val =
 1596                             		.loc 1 366 5 is_stmt 1
 1597                             	.LVL195:
 367:../src/tensorflow/lite/kernels/internal/quantization_util.cc ****         TfLiteRound(clamped_shifted * inv_nudged_scale) * nudged_scale +
 1598                             		.loc 1 367 5
 1599                             	.LBB266:
 1600                             	.LBB260:
 1601                             	.LBB258:
 1602                             		.loc 4 1757 5
 1603                             	.LBE258:
 1604                             	.LBE260:
 1605                             	.LBE266:
 366:../src/tensorflow/lite/kernels/internal/quantization_util.cc ****     const float dst_val =
 1606                             		.loc 1 366 17 is_stmt 0
 1607 0057 FC 83 81                		fsub	r8, r1
 1608                             	.LVL196:
 1609 005a 2E D2                   		bra	.L159
 1610                             	.LVL197:
 1611                             	.L147:
 1612                             	.LBE267:
 1613                             	.LBE268:
 371:../src/tensorflow/lite/kernels/internal/quantization_util.cc ****   }
 372:../src/tensorflow/lite/kernels/internal/quantization_util.cc **** }
 1614                             		.loc 1 372 1
 1615 005c 3F 6D 0A                		rtsd	#40, r6-r13
 1616                             	.LFE1186:
 1618 005f 03                      		.section	.text._ZN6tflite11CheckedLog2EfPi,"ax",@progbits
 1619                             		.global	__ZN6tflite11CheckedLog2EfPi
 1621                             	__ZN6tflite11CheckedLog2EfPi:
 1622                             	.LFB1189:
 373:../src/tensorflow/lite/kernels/internal/quantization_util.cc **** 
 374:../src/tensorflow/lite/kernels/internal/quantization_util.cc **** bool CheckedLog2(const float x, int* log2_result) {
 1623                             		.loc 1 374 51 is_stmt 1
 1624                             	.LVL198:
 1625 0000 6E 7A                   		pushm	r7-r10
 1626                             	.LCFI19:
 375:../src/tensorflow/lite/kernels/internal/quantization_util.cc ****   // Using TfLiteRound instead of std::round and std::log instead of
 376:../src/tensorflow/lite/kernels/internal/quantization_util.cc ****   // std::log2 to work around these functions being missing in a toolchain
 377:../src/tensorflow/lite/kernels/internal/quantization_util.cc ****   // used in some TensorFlow tests as of May 2018.
 378:../src/tensorflow/lite/kernels/internal/quantization_util.cc ****   const float x_log2 = std::log(x) * (1.0f / std::log(2.0f));
 1627                             		.loc 1 378 3
 1628                             	.LVL199:
 1629                             	.LBB269:
 1630                             	.LBB270:
 339:c:\gcc for renesas rx 8.3.0.202004-gnurx-elf\rx-elf\rx-elf\rx-elf\include\c++\8.3.0.202004-gnurx\cmath **** 
 1631                             		.loc 4 339 5
 1632                             	.LBE270:
 1633                             	.LBE269:
 374:../src/tensorflow/lite/kernels/internal/quantization_util.cc ****   // Using TfLiteRound instead of std::round and std::log instead of
 1634                             		.loc 1 374 51 is_stmt 0
 1635 0002 EF 2A                   		mov.L	r2, r10
 1636                             	.LBB272:
 1637                             	.LBB271:
 339:c:\gcc for renesas rx 8.3.0.202004-gnurx-elf\rx-elf\rx-elf\rx-elf\include\c++\8.3.0.202004-gnurx\cmath **** 
 1638                             		.loc 4 339 26
 1639 0004 05 00 00 00             		bsr	_logf
 1640                             	.LVL200:
 1641                             	.LBE271:
 1642                             	.LBE272:
 1643                             		.loc 1 378 60
 1644 0008 FB 72 3B AA B8 3F       		mov.L	#0x3fb8aa3b, r7
 1645 000e FC 8F 17                		fmul	r1, r7
 1646                             	.LVL201:
 379:../src/tensorflow/lite/kernels/internal/quantization_util.cc ****   const float x_log2_rounded = TfLiteRound(x_log2);
 1647                             		.loc 1 379 3 is_stmt 1
 1648                             	.LBB273:
 1649                             	.LBB274:
 1650                             	.LBB275:
 1651                             		.loc 4 1757 5
 1652                             		.loc 4 1757 28 is_stmt 0
 1653 0011 EF 71                   		mov.L	r7, r1
 1654 0013 05 00 00 00             		bsr	_roundf
 1655                             	.LVL202:
 1656 0017 EF 15                   		mov.L	r1, r5
 1657                             	.LVL203:
 1658                             	.LBE275:
 1659                             	.LBE274:
 1660                             	.LBE273:
 380:../src/tensorflow/lite/kernels/internal/quantization_util.cc ****   const float x_log2_fracpart = x_log2 - x_log2_rounded;
 1661                             		.loc 1 380 3 is_stmt 1
 381:../src/tensorflow/lite/kernels/internal/quantization_util.cc **** 
 382:../src/tensorflow/lite/kernels/internal/quantization_util.cc ****   *log2_result = static_cast<int>(x_log2_rounded);
 1662                             		.loc 1 382 3
 380:../src/tensorflow/lite/kernels/internal/quantization_util.cc ****   const float x_log2_fracpart = x_log2 - x_log2_rounded;
 1663                             		.loc 1 380 15 is_stmt 0
 1664 0019 FF 81 17                		fsub	r1, r7, r1
 1665                             	.LVL204:
 1666                             	.LBB276:
 1667                             	.LBB277:
 1668                             		.file 5 "c:\\gcc for renesas rx 8.3.0.202004-gnurx-elf\\rx-elf\\rx-elf\\rx-elf\\include\\c++\\8.3.
   1:c:\gcc for renesas rx 8.3.0.202004-gnurx-elf\rx-elf\rx-elf\rx-elf\include\c++\8.3.0.202004-gnurx\bits\std_abs.h **** // -*- C++ -*- C library enhancements header.
   2:c:\gcc for renesas rx 8.3.0.202004-gnurx-elf\rx-elf\rx-elf\rx-elf\include\c++\8.3.0.202004-gnurx\bits\std_abs.h **** 
   3:c:\gcc for renesas rx 8.3.0.202004-gnurx-elf\rx-elf\rx-elf\rx-elf\include\c++\8.3.0.202004-gnurx\bits\std_abs.h **** // Copyright (C) 2016-2018 Free Software Foundation, Inc.
   4:c:\gcc for renesas rx 8.3.0.202004-gnurx-elf\rx-elf\rx-elf\rx-elf\include\c++\8.3.0.202004-gnurx\bits\std_abs.h **** //
   5:c:\gcc for renesas rx 8.3.0.202004-gnurx-elf\rx-elf\rx-elf\rx-elf\include\c++\8.3.0.202004-gnurx\bits\std_abs.h **** // This file is part of the GNU ISO C++ Library.  This library is free
   6:c:\gcc for renesas rx 8.3.0.202004-gnurx-elf\rx-elf\rx-elf\rx-elf\include\c++\8.3.0.202004-gnurx\bits\std_abs.h **** // software; you can redistribute it and/or modify it under the
   7:c:\gcc for renesas rx 8.3.0.202004-gnurx-elf\rx-elf\rx-elf\rx-elf\include\c++\8.3.0.202004-gnurx\bits\std_abs.h **** // terms of the GNU General Public License as published by the
   8:c:\gcc for renesas rx 8.3.0.202004-gnurx-elf\rx-elf\rx-elf\rx-elf\include\c++\8.3.0.202004-gnurx\bits\std_abs.h **** // Free Software Foundation; either version 3, or (at your option)
   9:c:\gcc for renesas rx 8.3.0.202004-gnurx-elf\rx-elf\rx-elf\rx-elf\include\c++\8.3.0.202004-gnurx\bits\std_abs.h **** // any later version.
  10:c:\gcc for renesas rx 8.3.0.202004-gnurx-elf\rx-elf\rx-elf\rx-elf\include\c++\8.3.0.202004-gnurx\bits\std_abs.h **** 
  11:c:\gcc for renesas rx 8.3.0.202004-gnurx-elf\rx-elf\rx-elf\rx-elf\include\c++\8.3.0.202004-gnurx\bits\std_abs.h **** // This library is distributed in the hope that it will be useful,
  12:c:\gcc for renesas rx 8.3.0.202004-gnurx-elf\rx-elf\rx-elf\rx-elf\include\c++\8.3.0.202004-gnurx\bits\std_abs.h **** // but WITHOUT ANY WARRANTY; without even the implied warranty of
  13:c:\gcc for renesas rx 8.3.0.202004-gnurx-elf\rx-elf\rx-elf\rx-elf\include\c++\8.3.0.202004-gnurx\bits\std_abs.h **** // MERCHANTABILITY or FITNESS FOR A PARTICULAR PURPOSE.  See the
  14:c:\gcc for renesas rx 8.3.0.202004-gnurx-elf\rx-elf\rx-elf\rx-elf\include\c++\8.3.0.202004-gnurx\bits\std_abs.h **** // GNU General Public License for more details.
  15:c:\gcc for renesas rx 8.3.0.202004-gnurx-elf\rx-elf\rx-elf\rx-elf\include\c++\8.3.0.202004-gnurx\bits\std_abs.h **** 
  16:c:\gcc for renesas rx 8.3.0.202004-gnurx-elf\rx-elf\rx-elf\rx-elf\include\c++\8.3.0.202004-gnurx\bits\std_abs.h **** // Under Section 7 of GPL version 3, you are granted additional
  17:c:\gcc for renesas rx 8.3.0.202004-gnurx-elf\rx-elf\rx-elf\rx-elf\include\c++\8.3.0.202004-gnurx\bits\std_abs.h **** // permissions described in the GCC Runtime Library Exception, version
  18:c:\gcc for renesas rx 8.3.0.202004-gnurx-elf\rx-elf\rx-elf\rx-elf\include\c++\8.3.0.202004-gnurx\bits\std_abs.h **** // 3.1, as published by the Free Software Foundation.
  19:c:\gcc for renesas rx 8.3.0.202004-gnurx-elf\rx-elf\rx-elf\rx-elf\include\c++\8.3.0.202004-gnurx\bits\std_abs.h **** 
  20:c:\gcc for renesas rx 8.3.0.202004-gnurx-elf\rx-elf\rx-elf\rx-elf\include\c++\8.3.0.202004-gnurx\bits\std_abs.h **** // You should have received a copy of the GNU General Public License and
  21:c:\gcc for renesas rx 8.3.0.202004-gnurx-elf\rx-elf\rx-elf\rx-elf\include\c++\8.3.0.202004-gnurx\bits\std_abs.h **** // a copy of the GCC Runtime Library Exception along with this program;
  22:c:\gcc for renesas rx 8.3.0.202004-gnurx-elf\rx-elf\rx-elf\rx-elf\include\c++\8.3.0.202004-gnurx\bits\std_abs.h **** // see the files COPYING3 and COPYING.RUNTIME respectively.  If not, see
  23:c:\gcc for renesas rx 8.3.0.202004-gnurx-elf\rx-elf\rx-elf\rx-elf\include\c++\8.3.0.202004-gnurx\bits\std_abs.h **** // <http://www.gnu.org/licenses/>.
  24:c:\gcc for renesas rx 8.3.0.202004-gnurx-elf\rx-elf\rx-elf\rx-elf\include\c++\8.3.0.202004-gnurx\bits\std_abs.h **** 
  25:c:\gcc for renesas rx 8.3.0.202004-gnurx-elf\rx-elf\rx-elf\rx-elf\include\c++\8.3.0.202004-gnurx\bits\std_abs.h **** /** @file include/bits/std_abs.h
  26:c:\gcc for renesas rx 8.3.0.202004-gnurx-elf\rx-elf\rx-elf\rx-elf\include\c++\8.3.0.202004-gnurx\bits\std_abs.h ****  *  This is an internal header file, included by other library headers.
  27:c:\gcc for renesas rx 8.3.0.202004-gnurx-elf\rx-elf\rx-elf\rx-elf\include\c++\8.3.0.202004-gnurx\bits\std_abs.h ****  *  Do not attempt to use it directly. @headername{cmath, cstdlib}
  28:c:\gcc for renesas rx 8.3.0.202004-gnurx-elf\rx-elf\rx-elf\rx-elf\include\c++\8.3.0.202004-gnurx\bits\std_abs.h ****  */
  29:c:\gcc for renesas rx 8.3.0.202004-gnurx-elf\rx-elf\rx-elf\rx-elf\include\c++\8.3.0.202004-gnurx\bits\std_abs.h **** 
  30:c:\gcc for renesas rx 8.3.0.202004-gnurx-elf\rx-elf\rx-elf\rx-elf\include\c++\8.3.0.202004-gnurx\bits\std_abs.h **** #ifndef _GLIBCXX_BITS_STD_ABS_H
  31:c:\gcc for renesas rx 8.3.0.202004-gnurx-elf\rx-elf\rx-elf\rx-elf\include\c++\8.3.0.202004-gnurx\bits\std_abs.h **** #define _GLIBCXX_BITS_STD_ABS_H
  32:c:\gcc for renesas rx 8.3.0.202004-gnurx-elf\rx-elf\rx-elf\rx-elf\include\c++\8.3.0.202004-gnurx\bits\std_abs.h **** 
  33:c:\gcc for renesas rx 8.3.0.202004-gnurx-elf\rx-elf\rx-elf\rx-elf\include\c++\8.3.0.202004-gnurx\bits\std_abs.h **** #pragma GCC system_header
  34:c:\gcc for renesas rx 8.3.0.202004-gnurx-elf\rx-elf\rx-elf\rx-elf\include\c++\8.3.0.202004-gnurx\bits\std_abs.h **** 
  35:c:\gcc for renesas rx 8.3.0.202004-gnurx-elf\rx-elf\rx-elf\rx-elf\include\c++\8.3.0.202004-gnurx\bits\std_abs.h **** #include <bits/c++config.h>
  36:c:\gcc for renesas rx 8.3.0.202004-gnurx-elf\rx-elf\rx-elf\rx-elf\include\c++\8.3.0.202004-gnurx\bits\std_abs.h **** 
  37:c:\gcc for renesas rx 8.3.0.202004-gnurx-elf\rx-elf\rx-elf\rx-elf\include\c++\8.3.0.202004-gnurx\bits\std_abs.h **** #define _GLIBCXX_INCLUDE_NEXT_C_HEADERS
  38:c:\gcc for renesas rx 8.3.0.202004-gnurx-elf\rx-elf\rx-elf\rx-elf\include\c++\8.3.0.202004-gnurx\bits\std_abs.h **** #include_next <stdlib.h>
  39:c:\gcc for renesas rx 8.3.0.202004-gnurx-elf\rx-elf\rx-elf\rx-elf\include\c++\8.3.0.202004-gnurx\bits\std_abs.h **** #ifdef __CORRECT_ISO_CPP_MATH_H_PROTO
  40:c:\gcc for renesas rx 8.3.0.202004-gnurx-elf\rx-elf\rx-elf\rx-elf\include\c++\8.3.0.202004-gnurx\bits\std_abs.h **** # include_next <math.h>
  41:c:\gcc for renesas rx 8.3.0.202004-gnurx-elf\rx-elf\rx-elf\rx-elf\include\c++\8.3.0.202004-gnurx\bits\std_abs.h **** #endif
  42:c:\gcc for renesas rx 8.3.0.202004-gnurx-elf\rx-elf\rx-elf\rx-elf\include\c++\8.3.0.202004-gnurx\bits\std_abs.h **** #undef _GLIBCXX_INCLUDE_NEXT_C_HEADERS
  43:c:\gcc for renesas rx 8.3.0.202004-gnurx-elf\rx-elf\rx-elf\rx-elf\include\c++\8.3.0.202004-gnurx\bits\std_abs.h **** 
  44:c:\gcc for renesas rx 8.3.0.202004-gnurx-elf\rx-elf\rx-elf\rx-elf\include\c++\8.3.0.202004-gnurx\bits\std_abs.h **** #undef abs
  45:c:\gcc for renesas rx 8.3.0.202004-gnurx-elf\rx-elf\rx-elf\rx-elf\include\c++\8.3.0.202004-gnurx\bits\std_abs.h **** 
  46:c:\gcc for renesas rx 8.3.0.202004-gnurx-elf\rx-elf\rx-elf\rx-elf\include\c++\8.3.0.202004-gnurx\bits\std_abs.h **** extern "C++"
  47:c:\gcc for renesas rx 8.3.0.202004-gnurx-elf\rx-elf\rx-elf\rx-elf\include\c++\8.3.0.202004-gnurx\bits\std_abs.h **** {
  48:c:\gcc for renesas rx 8.3.0.202004-gnurx-elf\rx-elf\rx-elf\rx-elf\include\c++\8.3.0.202004-gnurx\bits\std_abs.h **** namespace std _GLIBCXX_VISIBILITY(default)
  49:c:\gcc for renesas rx 8.3.0.202004-gnurx-elf\rx-elf\rx-elf\rx-elf\include\c++\8.3.0.202004-gnurx\bits\std_abs.h **** {
  50:c:\gcc for renesas rx 8.3.0.202004-gnurx-elf\rx-elf\rx-elf\rx-elf\include\c++\8.3.0.202004-gnurx\bits\std_abs.h **** _GLIBCXX_BEGIN_NAMESPACE_VERSION
  51:c:\gcc for renesas rx 8.3.0.202004-gnurx-elf\rx-elf\rx-elf\rx-elf\include\c++\8.3.0.202004-gnurx\bits\std_abs.h **** 
  52:c:\gcc for renesas rx 8.3.0.202004-gnurx-elf\rx-elf\rx-elf\rx-elf\include\c++\8.3.0.202004-gnurx\bits\std_abs.h ****   using ::abs;
  53:c:\gcc for renesas rx 8.3.0.202004-gnurx-elf\rx-elf\rx-elf\rx-elf\include\c++\8.3.0.202004-gnurx\bits\std_abs.h **** 
  54:c:\gcc for renesas rx 8.3.0.202004-gnurx-elf\rx-elf\rx-elf\rx-elf\include\c++\8.3.0.202004-gnurx\bits\std_abs.h **** #ifndef __CORRECT_ISO_CPP_STDLIB_H_PROTO
  55:c:\gcc for renesas rx 8.3.0.202004-gnurx-elf\rx-elf\rx-elf\rx-elf\include\c++\8.3.0.202004-gnurx\bits\std_abs.h ****   inline long
  56:c:\gcc for renesas rx 8.3.0.202004-gnurx-elf\rx-elf\rx-elf\rx-elf\include\c++\8.3.0.202004-gnurx\bits\std_abs.h ****   abs(long __i) { return __builtin_labs(__i); }
  57:c:\gcc for renesas rx 8.3.0.202004-gnurx-elf\rx-elf\rx-elf\rx-elf\include\c++\8.3.0.202004-gnurx\bits\std_abs.h **** #endif
  58:c:\gcc for renesas rx 8.3.0.202004-gnurx-elf\rx-elf\rx-elf\rx-elf\include\c++\8.3.0.202004-gnurx\bits\std_abs.h **** 
  59:c:\gcc for renesas rx 8.3.0.202004-gnurx-elf\rx-elf\rx-elf\rx-elf\include\c++\8.3.0.202004-gnurx\bits\std_abs.h **** #ifdef _GLIBCXX_USE_LONG_LONG
  60:c:\gcc for renesas rx 8.3.0.202004-gnurx-elf\rx-elf\rx-elf\rx-elf\include\c++\8.3.0.202004-gnurx\bits\std_abs.h ****   inline long long
  61:c:\gcc for renesas rx 8.3.0.202004-gnurx-elf\rx-elf\rx-elf\rx-elf\include\c++\8.3.0.202004-gnurx\bits\std_abs.h ****   abs(long long __x) { return __builtin_llabs (__x); }
  62:c:\gcc for renesas rx 8.3.0.202004-gnurx-elf\rx-elf\rx-elf\rx-elf\include\c++\8.3.0.202004-gnurx\bits\std_abs.h **** #endif
  63:c:\gcc for renesas rx 8.3.0.202004-gnurx-elf\rx-elf\rx-elf\rx-elf\include\c++\8.3.0.202004-gnurx\bits\std_abs.h **** 
  64:c:\gcc for renesas rx 8.3.0.202004-gnurx-elf\rx-elf\rx-elf\rx-elf\include\c++\8.3.0.202004-gnurx\bits\std_abs.h **** // _GLIBCXX_RESOLVE_LIB_DEFECTS
  65:c:\gcc for renesas rx 8.3.0.202004-gnurx-elf\rx-elf\rx-elf\rx-elf\include\c++\8.3.0.202004-gnurx\bits\std_abs.h **** // 2192. Validity and return type of std::abs(0u) is unclear
  66:c:\gcc for renesas rx 8.3.0.202004-gnurx-elf\rx-elf\rx-elf\rx-elf\include\c++\8.3.0.202004-gnurx\bits\std_abs.h **** // 2294. <cstdlib> should declare abs(double)
  67:c:\gcc for renesas rx 8.3.0.202004-gnurx-elf\rx-elf\rx-elf\rx-elf\include\c++\8.3.0.202004-gnurx\bits\std_abs.h **** 
  68:c:\gcc for renesas rx 8.3.0.202004-gnurx-elf\rx-elf\rx-elf\rx-elf\include\c++\8.3.0.202004-gnurx\bits\std_abs.h **** #ifndef __CORRECT_ISO_CPP_MATH_H_PROTO
  69:c:\gcc for renesas rx 8.3.0.202004-gnurx-elf\rx-elf\rx-elf\rx-elf\include\c++\8.3.0.202004-gnurx\bits\std_abs.h ****   inline _GLIBCXX_CONSTEXPR double
  70:c:\gcc for renesas rx 8.3.0.202004-gnurx-elf\rx-elf\rx-elf\rx-elf\include\c++\8.3.0.202004-gnurx\bits\std_abs.h ****   abs(double __x)
  71:c:\gcc for renesas rx 8.3.0.202004-gnurx-elf\rx-elf\rx-elf\rx-elf\include\c++\8.3.0.202004-gnurx\bits\std_abs.h ****   { return __builtin_fabs(__x); }
  72:c:\gcc for renesas rx 8.3.0.202004-gnurx-elf\rx-elf\rx-elf\rx-elf\include\c++\8.3.0.202004-gnurx\bits\std_abs.h **** 
  73:c:\gcc for renesas rx 8.3.0.202004-gnurx-elf\rx-elf\rx-elf\rx-elf\include\c++\8.3.0.202004-gnurx\bits\std_abs.h ****   inline _GLIBCXX_CONSTEXPR float
  74:c:\gcc for renesas rx 8.3.0.202004-gnurx-elf\rx-elf\rx-elf\rx-elf\include\c++\8.3.0.202004-gnurx\bits\std_abs.h ****   abs(float __x)
  75:c:\gcc for renesas rx 8.3.0.202004-gnurx-elf\rx-elf\rx-elf\rx-elf\include\c++\8.3.0.202004-gnurx\bits\std_abs.h ****   { return __builtin_fabsf(__x); }
 1669                             		.loc 5 75 31
 1670 001c 7B F1                   		bclr #31, r1
 1671                             	.LVL205:
 1672                             	.LBE277:
 1673                             	.LBE276:
 383:../src/tensorflow/lite/kernels/internal/quantization_util.cc ****   return std::abs(x_log2_fracpart) < 1e-3f;
 384:../src/tensorflow/lite/kernels/internal/quantization_util.cc **** }
 1674                             		.loc 1 384 1
 1675 001e FD 72 11 6F 12 83 3A    		fcmp	#0x3a83126f, r1
 1676 0025 FC DB 17                		scn.L	r1
 382:../src/tensorflow/lite/kernels/internal/quantization_util.cc ****   return std::abs(x_log2_fracpart) < 1e-3f;
 1677                             		.loc 1 382 18
 1678 0028 FC 97 55                		ftoi	r5, r5
 1679                             	.LVL206:
 1680 002b E3 A5                   		mov.L	r5, [r10]
 383:../src/tensorflow/lite/kernels/internal/quantization_util.cc ****   return std::abs(x_log2_fracpart) < 1e-3f;
 1681                             		.loc 1 383 3 is_stmt 1
 1682                             	.LVL207:
 1683                             	.LBB279:
 1684                             	.LBB278:
 1685                             		.loc 5 75 5
 1686                             	.LBE278:
 1687                             	.LBE279:
 1688                             		.loc 1 384 1 is_stmt 0
 1689 002d 3F 7A 04                		rtsd	#16, r7-r10
 1690                             	.LFE1189:
 1692                             		.section	.text._ZN6tflite23QuantizeMultiplierArrayEPKdmPlPi,"ax",@progbits
 1693                             		.global	__ZN6tflite23QuantizeMultiplierArrayEPKdmPlPi
 1695                             	__ZN6tflite23QuantizeMultiplierArrayEPKdmPlPi:
 1696                             	.LFB1190:
 385:../src/tensorflow/lite/kernels/internal/quantization_util.cc **** 
 386:../src/tensorflow/lite/kernels/internal/quantization_util.cc **** void QuantizeMultiplierArray(const double* effective_scales, size_t size,
 387:../src/tensorflow/lite/kernels/internal/quantization_util.cc ****                              int32_t* effective_scale_significand,
 388:../src/tensorflow/lite/kernels/internal/quantization_util.cc ****                              int* effective_shift) {
 1697                             		.loc 1 388 52 is_stmt 1
 1698                             	.LVL208:
 389:../src/tensorflow/lite/kernels/internal/quantization_util.cc ****   for (size_t i = 0; i < size; ++i) {
 1699                             		.loc 1 389 3
 1700                             	.LBB287:
 1701                             		.loc 1 389 24 is_stmt 0
 1702 0000 61 02                   		cmp	#0, r2
 1703 0002 3A 80 00                		beq	.L175
 1704                             	.LBE287:
 388:../src/tensorflow/lite/kernels/internal/quantization_util.cc ****   for (size_t i = 0; i < size; ++i) {
 1705                             		.loc 1 388 52
 1706 0005 6E 6C                   		pushm	r6-r12
 1707                             	.LCFI20:
 1708 0007 EF 39                   		mov.L	r3, r9
 1709 0009 EF 1C                   		mov.L	r1, r12
 1710 000b EF 2B                   		mov.L	r2, r11
 1711 000d EF 4A                   		mov.L	r4, r10
 1712                             	.LBB302:
 1713                             		.loc 1 389 15
 1714 000f 66 07                   		mov.L	#0, r7
 1715                             	.LBB288:
 1716                             	.LBB289:
 1717                             	.LBB290:
 1718                             	.LBB291:
  72:../src/tensorflow/lite/kernels/internal/quantization_util.cc ****     ++*shift;
 1719                             		.loc 1 72 13
 1720 0011 FB 62 00 00 00 40       		mov.L	#0x40000000, r6
 1721 0017 2E 12                   		bra	.L172
 1722                             	.LVL209:
 1723                             	.L179:
 1724                             	.LBE291:
 1725                             	.LBE290:
  56:../src/tensorflow/lite/kernels/internal/quantization_util.cc ****     *shift = 0;
 1726                             		.loc 1 56 5 is_stmt 1
  56:../src/tensorflow/lite/kernels/internal/quantization_util.cc ****     *shift = 0;
 1727                             		.loc 1 56 27 is_stmt 0
 1728 0019 66 05                   		mov.L	#0, r5
 1729 001b FE 27 95                		mov.L	r5, [r7,r9]
  57:../src/tensorflow/lite/kernels/internal/quantization_util.cc ****     return;
 1730                             		.loc 1 57 5 is_stmt 1
  57:../src/tensorflow/lite/kernels/internal/quantization_util.cc ****     return;
 1731                             		.loc 1 57 12 is_stmt 0
 1732 001e F8 A6 00                		mov.L	#0, [r10]
  58:../src/tensorflow/lite/kernels/internal/quantization_util.cc ****   }
 1733                             		.loc 1 58 5 is_stmt 1
 1734                             	.LVL210:
 1735                             	.LBE289:
 1736                             	.LBE288:
 1737                             		.loc 1 389 3 is_stmt 0
 1738 0021 62 17                   		add	#1, r7
 1739                             	.LVL211:
 1740 0023 62 4A                   		add	#4, r10
 1741                             		.loc 1 389 24
 1742 0025 47 7B                   		cmp	r7, r11
 1743 0027 20 4C                   		beq	.L178
 1744                             	.LVL212:
 1745                             		.balign 8,3,3
 1746                             	.L172:
 390:../src/tensorflow/lite/kernels/internal/quantization_util.cc ****     QuantizeMultiplier(effective_scales[i], &effective_scale_significand[i],
 1747                             		.loc 1 390 5 is_stmt 1 discriminator 2
 1748                             		.loc 1 390 23 is_stmt 0 discriminator 2
 1749 0029 FE 67 C1                		mov.L	[r7,r12], r1
 1750                             	.LVL213:
 1751                             	.LBB300:
 1752                             	.LBB298:
  55:../src/tensorflow/lite/kernels/internal/quantization_util.cc ****     *quantized_multiplier = 0;
 1753                             		.loc 1 55 3 is_stmt 1 discriminator 2
 1754 002c FD 72 11 00 00 00 00    		fcmp	#0x0, r1
 1755 0033 20 E6                   		beq	.L179
 1756                             	.LVL214:
 1757                             	.LBB296:
 1758                             	.LBB294:
  67:../src/tensorflow/lite/kernels/internal/quantization_util.cc ****   auto q_fixed = static_cast<int64_t>(TfLiteRound(q * (1ll << 31)));
 1759                             		.loc 1 67 3
  67:../src/tensorflow/lite/kernels/internal/quantization_util.cc ****   auto q_fixed = static_cast<int64_t>(TfLiteRound(q * (1ll << 31)));
 1760                             		.loc 1 67 30 is_stmt 0
 1761 0035 EF A2                   		mov.L	r10, r2
 1762 0037 05 00 00 00             		bsr	_frexp
 1763                             	.LVL215:
  68:../src/tensorflow/lite/kernels/internal/quantization_util.cc **** #endif  // TFLITE_EMULATE_FLOAT
 1764                             		.loc 1 68 3 is_stmt 1
 1765                             	.LBB292:
 1766                             	.LBB293:
 1767                             		.loc 2 36 1 is_stmt 0
 1768 003b FD 72 31 00 00 00 4F    		fmul	#0x4f000000, r1
 1769                             	.LVL216:
 1770 0042 05 00 00 00             		bsr	_round
 1771                             	.LVL217:
 1772                             	.LBE293:
 1773                             	.LBE292:
  68:../src/tensorflow/lite/kernels/internal/quantization_util.cc **** #endif  // TFLITE_EMULATE_FLOAT
 1774                             		.loc 1 68 18
 1775 0046 05 00 00 00             		bsr	___fixsfdi
 1776                             	.LVL218:
 1777 004a EF 15                   		mov.L	r1, r5
 1778                             	.LVL219:
  70:../src/tensorflow/lite/kernels/internal/quantization_util.cc ****   if (q_fixed == (1ll << 31)) {
 1779                             		.loc 1 70 3 is_stmt 1
 1780 004c 61 02                   		cmp	#0, r2
 1781 004e 2A 3D                   		bgt	.L173
 1782 0050 20 33                   		beq	.L180
 1783                             		.balign 8,3,1
 1784                             	.L166:
  71:../src/tensorflow/lite/kernels/internal/quantization_util.cc ****     q_fixed /= 2;
 1785                             		.loc 1 71 3
 1786 0052 EC A4                   		mov.L	[r10], r4
 1787 0054 74 01 00 00 00 80       		cmp	#-2147483648, r1
 1788 005a 20 1C                   		beq	.L181
 1789                             	.LVL220:
 1790                             		.balign 8,3,2
 1791                             	.L168:
  86:../src/tensorflow/lite/kernels/internal/quantization_util.cc ****     *shift = 0;
 1792                             		.loc 1 86 3
 1793 005c 75 04 E1                		cmp	#-31, r4
 1794 005f 28 09                   		bge	.L170
  87:../src/tensorflow/lite/kernels/internal/quantization_util.cc ****     q_fixed = 0;
 1795                             		.loc 1 87 5
  87:../src/tensorflow/lite/kernels/internal/quantization_util.cc ****     q_fixed = 0;
 1796                             		.loc 1 87 12 is_stmt 0
 1797 0061 66 05                   		mov.L	#0, r5
 1798 0063 F8 A6 00                		mov.L	#0, [r10]
  88:../src/tensorflow/lite/kernels/internal/quantization_util.cc ****   }
 1799                             		.loc 1 88 5 is_stmt 1
 1800                             	.LVL221:
 1801 0066 EF 00                   		.balign 8,3,5
 1802                             	.L170:
  90:../src/tensorflow/lite/kernels/internal/quantization_util.cc **** }
 1803                             		.loc 1 90 3
  90:../src/tensorflow/lite/kernels/internal/quantization_util.cc **** }
 1804                             		.loc 1 90 25 is_stmt 0
 1805 0068 FE 27 95                		mov.L	r5, [r7,r9]
 1806                             	.LVL222:
 1807                             	.LBE294:
 1808                             	.LBE296:
 1809                             	.LBE298:
 1810                             	.LBE300:
 389:../src/tensorflow/lite/kernels/internal/quantization_util.cc ****     QuantizeMultiplier(effective_scales[i], &effective_scale_significand[i],
 1811                             		.loc 1 389 3
 1812 006b 62 17                   		add	#1, r7
 1813                             	.LVL223:
 1814 006d 62 4A                   		add	#4, r10
 1815                             	.LVL224:
 389:../src/tensorflow/lite/kernels/internal/quantization_util.cc ****     QuantizeMultiplier(effective_scales[i], &effective_scale_significand[i],
 1816                             		.loc 1 389 24
 1817 006f 47 7B                   		cmp	r7, r11
 1818 0071 21 B8                   		bne	.L172
 1819                             	.LVL225:
 1820                             		.balign 8,3,2
 1821                             	.L178:
 1822                             	.LBE302:
 391:../src/tensorflow/lite/kernels/internal/quantization_util.cc ****                        &effective_shift[i]);
 392:../src/tensorflow/lite/kernels/internal/quantization_util.cc ****   }
 393:../src/tensorflow/lite/kernels/internal/quantization_util.cc **** }
 1823                             		.loc 1 393 1
 1824 0073 3F 6C 07                		rtsd	#28, r6-r12
 1825                             	.LVL226:
 1826                             	.L181:
 1827                             	.LBB303:
 1828                             	.LBB301:
 1829                             	.LBB299:
 1830                             	.LBB297:
 1831                             	.LBB295:
  71:../src/tensorflow/lite/kernels/internal/quantization_util.cc ****     q_fixed /= 2;
 1832                             		.loc 1 71 3
 1833 0076 61 02                   		cmp	#0, r2
 1834 0078 21 E4                   		bne	.L168
  72:../src/tensorflow/lite/kernels/internal/quantization_util.cc ****     ++*shift;
 1835                             		.loc 1 72 5 is_stmt 1
 1836                             	.LVL227:
  73:../src/tensorflow/lite/kernels/internal/quantization_util.cc ****   }
 1837                             		.loc 1 73 5
 1838 007a 62 14                   		add	#1, r4
  72:../src/tensorflow/lite/kernels/internal/quantization_util.cc ****     ++*shift;
 1839                             		.loc 1 72 13 is_stmt 0
 1840 007c EF 65                   		mov.L	r6, r5
  73:../src/tensorflow/lite/kernels/internal/quantization_util.cc ****   }
 1841                             		.loc 1 73 5
 1842 007e E3 A4                   		mov.L	r4, [r10]
  75:../src/tensorflow/lite/kernels/internal/quantization_util.cc ****   // A shift amount smaller than -31 would cause all bits to be shifted out
 1843                             		.loc 1 75 3 is_stmt 1
 1844 0080 2E DC                   		bra	.L168
 1845                             	.LVL228:
 1846                             	.L175:
 1847                             	.LCFI21:
 1848 0082 02                      		rts
 1849                             	.LVL229:
 1850                             	.L180:
 1851                             	.LCFI22:
  70:../src/tensorflow/lite/kernels/internal/quantization_util.cc ****   if (q_fixed == (1ll << 31)) {
 1852                             		.loc 1 70 3 is_stmt 0
 1853 0083 74 01 00 00 00 80       		cmp	#-2147483648, r1
 1854 0089 25 C9                   		bleu	.L166
 1855                             		.balign 8,3,3
 1856                             	.L173:
 1857 008b 05 00 00 00             		bsr	_abort
 1858                             	.LVL230:
 1859                             	.LBE295:
 1860                             	.LBE297:
 1861                             	.LBE299:
 1862                             	.LBE301:
 1863                             	.LBE303:
 1864                             	.LFE1190:
 2231                             	.Letext0:
 2232                             		.file 6 "c:\\gcc for renesas rx 8.3.0.202004-gnurx-elf\\rx-elf\\rx-elf\\rx-elf\\include\\c++\\8.3.
 2233                             		.file 7 "c:\\gcc for renesas rx 8.3.0.202004-gnurx-elf\\rx-elf\\rx-elf\\rx-elf\\include\\c++\\8.3.
 2234                             		.file 8 "c:\\gcc for renesas rx 8.3.0.202004-gnurx-elf\\rx-elf\\rx-elf\\rx-elf\\include\\c++\\8.3.
 2235                             		.file 9 "c:\\gcc for renesas rx 8.3.0.202004-gnurx-elf\\rx-elf\\rx-elf\\rx-elf\\include\\c++\\8.3.
 2236                             		.file 10 "c:\\gcc for renesas rx 8.3.0.202004-gnurx-elf\\rx-elf\\rx-elf\\rx-elf\\include\\c++\\8.3
 2237                             		.file 11 "c:\\gcc for renesas rx 8.3.0.202004-gnurx-elf\\rx-elf\\rx-elf\\rx-elf\\include\\c++\\8.3
 2238                             		.file 12 "c:\\gcc for renesas rx 8.3.0.202004-gnurx-elf\\rx-elf\\rx-elf\\rx-elf\\include\\c++\\8.3
 2239                             		.file 13 "c:\\gcc for renesas rx 8.3.0.202004-gnurx-elf\\rx-elf\\rx-elf\\rx-elf\\include\\c++\\8.3
 2240                             		.file 14 "c:\\gcc for renesas rx 8.3.0.202004-gnurx-elf\\rx-elf\\rx-elf\\rx-elf\\include\\c++\\8.3
 2241                             		.file 15 "c:\\gcc for renesas rx 8.3.0.202004-gnurx-elf\\rx-elf\\rx-elf\\rx-elf\\include\\c++\\8.3
 2242                             		.file 16 "c:\\gcc for renesas rx 8.3.0.202004-gnurx-elf\\rx-elf\\rx-elf\\rx-elf\\include\\c++\\8.3
 2243                             		.file 17 "c:\\gcc for renesas rx 8.3.0.202004-gnurx-elf\\rx-elf\\rx-elf\\rx-elf\\include\\c++\\8.3
 2244                             		.file 18 "c:\\gcc for renesas rx 8.3.0.202004-gnurx-elf\\rx-elf\\rx-elf\\rx-elf\\include\\c++\\8.3
 2245                             		.file 19 "c:\\gcc for renesas rx 8.3.0.202004-gnurx-elf\\rx-elf\\rx-elf\\lib\\gcc\\rx-elf\\8.3.0.2
 2246                             		.file 20 "c:\\gcc for renesas rx 8.3.0.202004-gnurx-elf\\rx-elf\\rx-elf\\rx-elf\\include\\machine\
 2247                             		.file 21 "c:\\gcc for renesas rx 8.3.0.202004-gnurx-elf\\rx-elf\\rx-elf\\rx-elf\\include\\sys\\loc
 2248                             		.file 22 "c:\\gcc for renesas rx 8.3.0.202004-gnurx-elf\\rx-elf\\rx-elf\\rx-elf\\include\\sys\\_ty
 2249                             		.file 23 "c:\\gcc for renesas rx 8.3.0.202004-gnurx-elf\\rx-elf\\rx-elf\\rx-elf\\include\\sys\\ree
 2250                             		.file 24 "c:\\gcc for renesas rx 8.3.0.202004-gnurx-elf\\rx-elf\\rx-elf\\rx-elf\\include\\math.h"
 2251                             		.file 25 "c:\\gcc for renesas rx 8.3.0.202004-gnurx-elf\\rx-elf\\rx-elf\\rx-elf\\include\\stdlib.h
 2252                             		.file 26 "c:\\gcc for renesas rx 8.3.0.202004-gnurx-elf\\rx-elf\\rx-elf\\rx-elf\\include\\sys\\_st
 2253                             		.file 27 "c:\\gcc for renesas rx 8.3.0.202004-gnurx-elf\\rx-elf\\rx-elf\\rx-elf\\include\\stdint.h
 2254                             		.file 28 "c:\\gcc for renesas rx 8.3.0.202004-gnurx-elf\\rx-elf\\rx-elf\\rx-elf\\include\\stdio.h"
 2255                             		.file 29 "c:\\gcc for renesas rx 8.3.0.202004-gnurx-elf\\rx-elf\\rx-elf\\rx-elf\\include\\string.h
 2256                             		.file 30 "<built-in>"
