   1                             		.file	"split.cc"
   2                             		.section P,"ax"
   3                             	.Ltext0:
   4                             		.section	.text._ZN6tflite3ops5micro5split7PrepareEP13TfLiteContextP10TfLiteNode,"ax",@progbits
   5                             		.global	__ZN6tflite3ops5micro5split7PrepareEP13TfLiteContextP10TfLiteNode
   7                             	__ZN6tflite3ops5micro5split7PrepareEP13TfLiteContextP10TfLiteNode:
   8                             	.LFB977:
   9                             		.file 1 "../src/tensorflow/lite/micro/kernels/split.cc"
   1:../src/tensorflow/lite/micro/kernels/split.cc **** /* Copyright 2019 The TensorFlow Authors. All Rights Reserved.
   2:../src/tensorflow/lite/micro/kernels/split.cc **** 
   3:../src/tensorflow/lite/micro/kernels/split.cc **** Licensed under the Apache License, Version 2.0 (the "License");
   4:../src/tensorflow/lite/micro/kernels/split.cc **** you may not use this file except in compliance with the License.
   5:../src/tensorflow/lite/micro/kernels/split.cc **** You may obtain a copy of the License at
   6:../src/tensorflow/lite/micro/kernels/split.cc **** 
   7:../src/tensorflow/lite/micro/kernels/split.cc ****     http://www.apache.org/licenses/LICENSE-2.0
   8:../src/tensorflow/lite/micro/kernels/split.cc **** 
   9:../src/tensorflow/lite/micro/kernels/split.cc **** Unless required by applicable law or agreed to in writing, software
  10:../src/tensorflow/lite/micro/kernels/split.cc **** distributed under the License is distributed on an "AS IS" BASIS,
  11:../src/tensorflow/lite/micro/kernels/split.cc **** WITHOUT WARRANTIES OR CONDITIONS OF ANY KIND, either express or implied.
  12:../src/tensorflow/lite/micro/kernels/split.cc **** See the License for the specific language governing permissions and
  13:../src/tensorflow/lite/micro/kernels/split.cc **** limitations under the License.
  14:../src/tensorflow/lite/micro/kernels/split.cc **** ==============================================================================*/
  15:../src/tensorflow/lite/micro/kernels/split.cc **** 
  16:../src/tensorflow/lite/micro/kernels/split.cc **** #include "tensorflow/lite/c/builtin_op_data.h"
  17:../src/tensorflow/lite/micro/kernels/split.cc **** #include "tensorflow/lite/c/common.h"
  18:../src/tensorflow/lite/micro/kernels/split.cc **** #include "tensorflow/lite/kernels/internal/tensor_ctypes.h"
  19:../src/tensorflow/lite/micro/kernels/split.cc **** #include "tensorflow/lite/kernels/kernel_util.h"
  20:../src/tensorflow/lite/micro/kernels/split.cc **** #include "tensorflow/lite/micro/kernels/kernel_util.h"
  21:../src/tensorflow/lite/micro/kernels/split.cc **** 
  22:../src/tensorflow/lite/micro/kernels/split.cc **** namespace tflite {
  23:../src/tensorflow/lite/micro/kernels/split.cc **** namespace ops {
  24:../src/tensorflow/lite/micro/kernels/split.cc **** namespace micro {
  25:../src/tensorflow/lite/micro/kernels/split.cc **** namespace split {
  26:../src/tensorflow/lite/micro/kernels/split.cc **** 
  27:../src/tensorflow/lite/micro/kernels/split.cc **** template <typename T>
  28:../src/tensorflow/lite/micro/kernels/split.cc **** TfLiteStatus SplitImpl(TfLiteContext* context, TfLiteNode* node,
  29:../src/tensorflow/lite/micro/kernels/split.cc ****                        const TfLiteEvalTensor* input, int axis_value) {
  30:../src/tensorflow/lite/micro/kernels/split.cc ****   const int output_count = NumOutputs(node);
  31:../src/tensorflow/lite/micro/kernels/split.cc ****   const TfLiteIntArray* input_dims = input->dims;
  32:../src/tensorflow/lite/micro/kernels/split.cc ****   const TfLiteEvalTensor* output0 =
  33:../src/tensorflow/lite/micro/kernels/split.cc ****       tflite::micro::GetEvalOutput(context, node, 0);
  34:../src/tensorflow/lite/micro/kernels/split.cc ****   const TfLiteIntArray* output_dims = output0->dims;
  35:../src/tensorflow/lite/micro/kernels/split.cc **** 
  36:../src/tensorflow/lite/micro/kernels/split.cc ****   const int split_dimensions = input_dims->size;
  37:../src/tensorflow/lite/micro/kernels/split.cc ****   int axis = axis_value < 0 ? axis_value + split_dimensions : axis_value;
  38:../src/tensorflow/lite/micro/kernels/split.cc **** 
  39:../src/tensorflow/lite/micro/kernels/split.cc ****   TFLITE_DCHECK_LT(axis, split_dimensions);
  40:../src/tensorflow/lite/micro/kernels/split.cc ****   TFLITE_DCHECK_EQ(output_dims->size, split_dimensions);
  41:../src/tensorflow/lite/micro/kernels/split.cc **** 
  42:../src/tensorflow/lite/micro/kernels/split.cc ****   int64_t split_size = output_dims->data[axis] * output_count;
  43:../src/tensorflow/lite/micro/kernels/split.cc **** 
  44:../src/tensorflow/lite/micro/kernels/split.cc ****   TFLITE_DCHECK_EQ(split_size, input_dims->data[axis]);
  45:../src/tensorflow/lite/micro/kernels/split.cc ****   int64_t outer_size = 1;
  46:../src/tensorflow/lite/micro/kernels/split.cc ****   for (int i = 0; i < axis; ++i) {
  47:../src/tensorflow/lite/micro/kernels/split.cc ****     outer_size *= input_dims->data[i];
  48:../src/tensorflow/lite/micro/kernels/split.cc ****   }
  49:../src/tensorflow/lite/micro/kernels/split.cc **** 
  50:../src/tensorflow/lite/micro/kernels/split.cc ****   int64_t base_inner_size = 1;
  51:../src/tensorflow/lite/micro/kernels/split.cc ****   for (int i = axis + 1; i < split_dimensions; ++i) {
  52:../src/tensorflow/lite/micro/kernels/split.cc ****     base_inner_size *= input_dims->data[i];
  53:../src/tensorflow/lite/micro/kernels/split.cc ****   }
  54:../src/tensorflow/lite/micro/kernels/split.cc **** 
  55:../src/tensorflow/lite/micro/kernels/split.cc ****   const T* input_ptr = tflite::micro::GetTensorData<T>(input);
  56:../src/tensorflow/lite/micro/kernels/split.cc ****   for (int k = 0; k < outer_size; ++k) {
  57:../src/tensorflow/lite/micro/kernels/split.cc ****     for (int i = 0; i < output_count; ++i) {
  58:../src/tensorflow/lite/micro/kernels/split.cc ****       TfLiteEvalTensor* t = tflite::micro::GetEvalOutput(context, node, i);
  59:../src/tensorflow/lite/micro/kernels/split.cc ****       T* output_data = tflite::micro::GetTensorData<T>(t);
  60:../src/tensorflow/lite/micro/kernels/split.cc ****       const int copy_size = output_dims->data[axis] * base_inner_size;
  61:../src/tensorflow/lite/micro/kernels/split.cc ****       T* output_ptr = output_data + k * copy_size;
  62:../src/tensorflow/lite/micro/kernels/split.cc ****       for (int j = 0; j < copy_size; ++j) output_ptr[j] = input_ptr[j];
  63:../src/tensorflow/lite/micro/kernels/split.cc ****       input_ptr += copy_size;
  64:../src/tensorflow/lite/micro/kernels/split.cc ****     }
  65:../src/tensorflow/lite/micro/kernels/split.cc ****   }
  66:../src/tensorflow/lite/micro/kernels/split.cc **** 
  67:../src/tensorflow/lite/micro/kernels/split.cc ****   return kTfLiteOk;
  68:../src/tensorflow/lite/micro/kernels/split.cc **** }
  69:../src/tensorflow/lite/micro/kernels/split.cc **** 
  70:../src/tensorflow/lite/micro/kernels/split.cc **** TfLiteStatus Prepare(TfLiteContext* context, TfLiteNode* node) {
  10                             		.loc 1 70 64
  11                             	.LVL0:
  12 0000 7E A7                   		push.l	r7
  13                             	.LCFI0:
  14 0002 71 00 F0                		add	#-16, r0
  15                             	.LCFI1:
  71:../src/tensorflow/lite/micro/kernels/split.cc ****   const TfLiteTensor* axis = GetInput(context, node, 0);
  16                             		.loc 1 71 38 is_stmt 0
  17 0005 66 03                   		mov.L	#0, r3
  70:../src/tensorflow/lite/micro/kernels/split.cc ****   const TfLiteTensor* axis = GetInput(context, node, 0);
  18                             		.loc 1 70 64
  19 0007 EF 17                   		mov.L	r1, r7
  20                             		.loc 1 71 3 is_stmt 1
  21                             		.loc 1 71 38 is_stmt 0
  22 0009 05 00 00 00             		bsr	__ZN6tflite8GetInputEPK13TfLiteContextPK10TfLiteNodei
  23                             	.LVL1:
  72:../src/tensorflow/lite/micro/kernels/split.cc ****   TF_LITE_ENSURE(context, axis != nullptr);
  24                             		.loc 1 72 3 is_stmt 1
  25                             		.loc 1 72 3
  26 000d 61 01                   		cmp	#0, r1
  27 000f 20 1E                   		beq	.L7
  73:../src/tensorflow/lite/micro/kernels/split.cc **** 
  74:../src/tensorflow/lite/micro/kernels/split.cc ****   // Dynamic output tensors are needed if axis tensor is not constant.
  75:../src/tensorflow/lite/micro/kernels/split.cc ****   // But Micro doesn't support dynamic memory allocation, so we only support
  76:../src/tensorflow/lite/micro/kernels/split.cc ****   // constant axis tensor for now.
  77:../src/tensorflow/lite/micro/kernels/split.cc ****   TF_LITE_ENSURE_MSG(context, IsConstantTensor(axis),
  28                             		.loc 1 77 3
  29                             		.loc 1 77 3
  30                             	.LVL2:
  31                             		.file 2 "C:\\Users\\a5116938\\Desktop\\e2_studio_workspace\\EEMBC_final\\RX65N_Cloud_Kit\\src/tens
   1:C:\Users\a5116938\Desktop\e2_studio_workspace\EEMBC_final\RX65N_Cloud_Kit\src/tensorflow/lite/kernels\kernel_util.h **** /* Copyright 2017 The TensorFlow Authors. All Rights Reserved.
   2:C:\Users\a5116938\Desktop\e2_studio_workspace\EEMBC_final\RX65N_Cloud_Kit\src/tensorflow/lite/kernels\kernel_util.h **** 
   3:C:\Users\a5116938\Desktop\e2_studio_workspace\EEMBC_final\RX65N_Cloud_Kit\src/tensorflow/lite/kernels\kernel_util.h **** Licensed under the Apache License, Version 2.0 (the "License");
   4:C:\Users\a5116938\Desktop\e2_studio_workspace\EEMBC_final\RX65N_Cloud_Kit\src/tensorflow/lite/kernels\kernel_util.h **** you may not use this file except in compliance with the License.
   5:C:\Users\a5116938\Desktop\e2_studio_workspace\EEMBC_final\RX65N_Cloud_Kit\src/tensorflow/lite/kernels\kernel_util.h **** You may obtain a copy of the License at
   6:C:\Users\a5116938\Desktop\e2_studio_workspace\EEMBC_final\RX65N_Cloud_Kit\src/tensorflow/lite/kernels\kernel_util.h **** 
   7:C:\Users\a5116938\Desktop\e2_studio_workspace\EEMBC_final\RX65N_Cloud_Kit\src/tensorflow/lite/kernels\kernel_util.h ****     http://www.apache.org/licenses/LICENSE-2.0
   8:C:\Users\a5116938\Desktop\e2_studio_workspace\EEMBC_final\RX65N_Cloud_Kit\src/tensorflow/lite/kernels\kernel_util.h **** 
   9:C:\Users\a5116938\Desktop\e2_studio_workspace\EEMBC_final\RX65N_Cloud_Kit\src/tensorflow/lite/kernels\kernel_util.h **** Unless required by applicable law or agreed to in writing, software
  10:C:\Users\a5116938\Desktop\e2_studio_workspace\EEMBC_final\RX65N_Cloud_Kit\src/tensorflow/lite/kernels\kernel_util.h **** distributed under the License is distributed on an "AS IS" BASIS,
  11:C:\Users\a5116938\Desktop\e2_studio_workspace\EEMBC_final\RX65N_Cloud_Kit\src/tensorflow/lite/kernels\kernel_util.h **** WITHOUT WARRANTIES OR CONDITIONS OF ANY KIND, either express or implied.
  12:C:\Users\a5116938\Desktop\e2_studio_workspace\EEMBC_final\RX65N_Cloud_Kit\src/tensorflow/lite/kernels\kernel_util.h **** See the License for the specific language governing permissions and
  13:C:\Users\a5116938\Desktop\e2_studio_workspace\EEMBC_final\RX65N_Cloud_Kit\src/tensorflow/lite/kernels\kernel_util.h **** limitations under the License.
  14:C:\Users\a5116938\Desktop\e2_studio_workspace\EEMBC_final\RX65N_Cloud_Kit\src/tensorflow/lite/kernels\kernel_util.h **** ==============================================================================*/
  15:C:\Users\a5116938\Desktop\e2_studio_workspace\EEMBC_final\RX65N_Cloud_Kit\src/tensorflow/lite/kernels\kernel_util.h **** #ifndef TENSORFLOW_LITE_KERNELS_KERNEL_UTIL_H_
  16:C:\Users\a5116938\Desktop\e2_studio_workspace\EEMBC_final\RX65N_Cloud_Kit\src/tensorflow/lite/kernels\kernel_util.h **** #define TENSORFLOW_LITE_KERNELS_KERNEL_UTIL_H_
  17:C:\Users\a5116938\Desktop\e2_studio_workspace\EEMBC_final\RX65N_Cloud_Kit\src/tensorflow/lite/kernels\kernel_util.h **** 
  18:C:\Users\a5116938\Desktop\e2_studio_workspace\EEMBC_final\RX65N_Cloud_Kit\src/tensorflow/lite/kernels\kernel_util.h **** #include <stdint.h>
  19:C:\Users\a5116938\Desktop\e2_studio_workspace\EEMBC_final\RX65N_Cloud_Kit\src/tensorflow/lite/kernels\kernel_util.h **** 
  20:C:\Users\a5116938\Desktop\e2_studio_workspace\EEMBC_final\RX65N_Cloud_Kit\src/tensorflow/lite/kernels\kernel_util.h **** #include <limits>
  21:C:\Users\a5116938\Desktop\e2_studio_workspace\EEMBC_final\RX65N_Cloud_Kit\src/tensorflow/lite/kernels\kernel_util.h **** 
  22:C:\Users\a5116938\Desktop\e2_studio_workspace\EEMBC_final\RX65N_Cloud_Kit\src/tensorflow/lite/kernels\kernel_util.h **** #include "tensorflow/lite/c/builtin_op_data.h"
  23:C:\Users\a5116938\Desktop\e2_studio_workspace\EEMBC_final\RX65N_Cloud_Kit\src/tensorflow/lite/kernels\kernel_util.h **** #include "tensorflow/lite/c/common.h"
  24:C:\Users\a5116938\Desktop\e2_studio_workspace\EEMBC_final\RX65N_Cloud_Kit\src/tensorflow/lite/kernels\kernel_util.h **** 
  25:C:\Users\a5116938\Desktop\e2_studio_workspace\EEMBC_final\RX65N_Cloud_Kit\src/tensorflow/lite/kernels\kernel_util.h **** namespace tflite {
  26:C:\Users\a5116938\Desktop\e2_studio_workspace\EEMBC_final\RX65N_Cloud_Kit\src/tensorflow/lite/kernels\kernel_util.h **** 
  27:C:\Users\a5116938\Desktop\e2_studio_workspace\EEMBC_final\RX65N_Cloud_Kit\src/tensorflow/lite/kernels\kernel_util.h **** // A fair number of functions in this header have historically been inline.
  28:C:\Users\a5116938\Desktop\e2_studio_workspace\EEMBC_final\RX65N_Cloud_Kit\src/tensorflow/lite/kernels\kernel_util.h **** // It is ok to change functions to not be inline if the latency with
  29:C:\Users\a5116938\Desktop\e2_studio_workspace\EEMBC_final\RX65N_Cloud_Kit\src/tensorflow/lite/kernels\kernel_util.h **** // benchmark_model for MobileNet + MobileBERT is unaffected. If such a change is
  30:C:\Users\a5116938\Desktop\e2_studio_workspace\EEMBC_final\RX65N_Cloud_Kit\src/tensorflow/lite/kernels\kernel_util.h **** // made, move the newly non-inlined function declarations to the top of this
  31:C:\Users\a5116938\Desktop\e2_studio_workspace\EEMBC_final\RX65N_Cloud_Kit\src/tensorflow/lite/kernels\kernel_util.h **** // header file.
  32:C:\Users\a5116938\Desktop\e2_studio_workspace\EEMBC_final\RX65N_Cloud_Kit\src/tensorflow/lite/kernels\kernel_util.h **** 
  33:C:\Users\a5116938\Desktop\e2_studio_workspace\EEMBC_final\RX65N_Cloud_Kit\src/tensorflow/lite/kernels\kernel_util.h **** // Note: You must check if result is not null:
  34:C:\Users\a5116938\Desktop\e2_studio_workspace\EEMBC_final\RX65N_Cloud_Kit\src/tensorflow/lite/kernels\kernel_util.h **** //
  35:C:\Users\a5116938\Desktop\e2_studio_workspace\EEMBC_final\RX65N_Cloud_Kit\src/tensorflow/lite/kernels\kernel_util.h **** //   TfLiteTensor* my_tensor = GetInput(context, node, kMyTensorIdx);
  36:C:\Users\a5116938\Desktop\e2_studio_workspace\EEMBC_final\RX65N_Cloud_Kit\src/tensorflow/lite/kernels\kernel_util.h **** //   TF_LITE_ENSURE(context, my_tensor != nullptr);
  37:C:\Users\a5116938\Desktop\e2_studio_workspace\EEMBC_final\RX65N_Cloud_Kit\src/tensorflow/lite/kernels\kernel_util.h **** //
  38:C:\Users\a5116938\Desktop\e2_studio_workspace\EEMBC_final\RX65N_Cloud_Kit\src/tensorflow/lite/kernels\kernel_util.h **** // This is because the index might point to the optional tensor constant
  39:C:\Users\a5116938\Desktop\e2_studio_workspace\EEMBC_final\RX65N_Cloud_Kit\src/tensorflow/lite/kernels\kernel_util.h **** // (kTfLiteOptionalTensor) in which case there is no tensor to return.
  40:C:\Users\a5116938\Desktop\e2_studio_workspace\EEMBC_final\RX65N_Cloud_Kit\src/tensorflow/lite/kernels\kernel_util.h **** const TfLiteTensor* GetInput(const TfLiteContext* context,
  41:C:\Users\a5116938\Desktop\e2_studio_workspace\EEMBC_final\RX65N_Cloud_Kit\src/tensorflow/lite/kernels\kernel_util.h ****                              const TfLiteNode* node, int index);
  42:C:\Users\a5116938\Desktop\e2_studio_workspace\EEMBC_final\RX65N_Cloud_Kit\src/tensorflow/lite/kernels\kernel_util.h **** 
  43:C:\Users\a5116938\Desktop\e2_studio_workspace\EEMBC_final\RX65N_Cloud_Kit\src/tensorflow/lite/kernels\kernel_util.h **** // Same as `GetInput` but returns boolean and uses output argument for tensor.
  44:C:\Users\a5116938\Desktop\e2_studio_workspace\EEMBC_final\RX65N_Cloud_Kit\src/tensorflow/lite/kernels\kernel_util.h **** //
  45:C:\Users\a5116938\Desktop\e2_studio_workspace\EEMBC_final\RX65N_Cloud_Kit\src/tensorflow/lite/kernels\kernel_util.h **** //   TfLiteTensor* my_tensor;
  46:C:\Users\a5116938\Desktop\e2_studio_workspace\EEMBC_final\RX65N_Cloud_Kit\src/tensorflow/lite/kernels\kernel_util.h **** //   TF_LITE_ENSURE_OK(context,
  47:C:\Users\a5116938\Desktop\e2_studio_workspace\EEMBC_final\RX65N_Cloud_Kit\src/tensorflow/lite/kernels\kernel_util.h **** //                     GetInputSafe(context, node, kMyTensorIdx, &my_tensor));
  48:C:\Users\a5116938\Desktop\e2_studio_workspace\EEMBC_final\RX65N_Cloud_Kit\src/tensorflow/lite/kernels\kernel_util.h **** //   // can use my_tensor directly from here onwards, it is not nullptr
  49:C:\Users\a5116938\Desktop\e2_studio_workspace\EEMBC_final\RX65N_Cloud_Kit\src/tensorflow/lite/kernels\kernel_util.h **** //
  50:C:\Users\a5116938\Desktop\e2_studio_workspace\EEMBC_final\RX65N_Cloud_Kit\src/tensorflow/lite/kernels\kernel_util.h **** // Should be used in cases where the binary size is too large.
  51:C:\Users\a5116938\Desktop\e2_studio_workspace\EEMBC_final\RX65N_Cloud_Kit\src/tensorflow/lite/kernels\kernel_util.h **** TfLiteStatus GetInputSafe(const TfLiteContext* context, const TfLiteNode* node,
  52:C:\Users\a5116938\Desktop\e2_studio_workspace\EEMBC_final\RX65N_Cloud_Kit\src/tensorflow/lite/kernels\kernel_util.h ****                           int index, const TfLiteTensor** tensor);
  53:C:\Users\a5116938\Desktop\e2_studio_workspace\EEMBC_final\RX65N_Cloud_Kit\src/tensorflow/lite/kernels\kernel_util.h **** 
  54:C:\Users\a5116938\Desktop\e2_studio_workspace\EEMBC_final\RX65N_Cloud_Kit\src/tensorflow/lite/kernels\kernel_util.h **** // Note: You must check if result is not null:
  55:C:\Users\a5116938\Desktop\e2_studio_workspace\EEMBC_final\RX65N_Cloud_Kit\src/tensorflow/lite/kernels\kernel_util.h **** //
  56:C:\Users\a5116938\Desktop\e2_studio_workspace\EEMBC_final\RX65N_Cloud_Kit\src/tensorflow/lite/kernels\kernel_util.h **** //   TfLiteTensor* my_tensor = GetVariableInput(context, node, kMyTensorIdx);
  57:C:\Users\a5116938\Desktop\e2_studio_workspace\EEMBC_final\RX65N_Cloud_Kit\src/tensorflow/lite/kernels\kernel_util.h **** //   TF_LITE_ENSURE(context, my_tensor != nullptr);
  58:C:\Users\a5116938\Desktop\e2_studio_workspace\EEMBC_final\RX65N_Cloud_Kit\src/tensorflow/lite/kernels\kernel_util.h **** //
  59:C:\Users\a5116938\Desktop\e2_studio_workspace\EEMBC_final\RX65N_Cloud_Kit\src/tensorflow/lite/kernels\kernel_util.h **** // This is because the index might point to the optional tensor constant
  60:C:\Users\a5116938\Desktop\e2_studio_workspace\EEMBC_final\RX65N_Cloud_Kit\src/tensorflow/lite/kernels\kernel_util.h **** // (kTfLiteOptionalTensor) in which case there is no tensor to return.
  61:C:\Users\a5116938\Desktop\e2_studio_workspace\EEMBC_final\RX65N_Cloud_Kit\src/tensorflow/lite/kernels\kernel_util.h **** TfLiteTensor* GetVariableInput(TfLiteContext* context, const TfLiteNode* node,
  62:C:\Users\a5116938\Desktop\e2_studio_workspace\EEMBC_final\RX65N_Cloud_Kit\src/tensorflow/lite/kernels\kernel_util.h ****                                int index);
  63:C:\Users\a5116938\Desktop\e2_studio_workspace\EEMBC_final\RX65N_Cloud_Kit\src/tensorflow/lite/kernels\kernel_util.h **** 
  64:C:\Users\a5116938\Desktop\e2_studio_workspace\EEMBC_final\RX65N_Cloud_Kit\src/tensorflow/lite/kernels\kernel_util.h **** // Note: You must check if result is not null:
  65:C:\Users\a5116938\Desktop\e2_studio_workspace\EEMBC_final\RX65N_Cloud_Kit\src/tensorflow/lite/kernels\kernel_util.h **** //
  66:C:\Users\a5116938\Desktop\e2_studio_workspace\EEMBC_final\RX65N_Cloud_Kit\src/tensorflow/lite/kernels\kernel_util.h **** //   TfLiteTensor* my_tensor = GetOutput(context, node, kMyTensorIdx);
  67:C:\Users\a5116938\Desktop\e2_studio_workspace\EEMBC_final\RX65N_Cloud_Kit\src/tensorflow/lite/kernels\kernel_util.h **** //   TF_LITE_ENSURE(context, my_tensor != nullptr);
  68:C:\Users\a5116938\Desktop\e2_studio_workspace\EEMBC_final\RX65N_Cloud_Kit\src/tensorflow/lite/kernels\kernel_util.h **** //
  69:C:\Users\a5116938\Desktop\e2_studio_workspace\EEMBC_final\RX65N_Cloud_Kit\src/tensorflow/lite/kernels\kernel_util.h **** // This is because the index might point to the optional tensor constant
  70:C:\Users\a5116938\Desktop\e2_studio_workspace\EEMBC_final\RX65N_Cloud_Kit\src/tensorflow/lite/kernels\kernel_util.h **** // (kTfLiteOptionalTensor) in which case there is no tensor to return.
  71:C:\Users\a5116938\Desktop\e2_studio_workspace\EEMBC_final\RX65N_Cloud_Kit\src/tensorflow/lite/kernels\kernel_util.h **** TfLiteTensor* GetOutput(TfLiteContext* context, const TfLiteNode* node,
  72:C:\Users\a5116938\Desktop\e2_studio_workspace\EEMBC_final\RX65N_Cloud_Kit\src/tensorflow/lite/kernels\kernel_util.h ****                         int index);
  73:C:\Users\a5116938\Desktop\e2_studio_workspace\EEMBC_final\RX65N_Cloud_Kit\src/tensorflow/lite/kernels\kernel_util.h **** 
  74:C:\Users\a5116938\Desktop\e2_studio_workspace\EEMBC_final\RX65N_Cloud_Kit\src/tensorflow/lite/kernels\kernel_util.h **** // Same as `GetOutput` but returns boolean and uses output argument for tensor.
  75:C:\Users\a5116938\Desktop\e2_studio_workspace\EEMBC_final\RX65N_Cloud_Kit\src/tensorflow/lite/kernels\kernel_util.h **** //
  76:C:\Users\a5116938\Desktop\e2_studio_workspace\EEMBC_final\RX65N_Cloud_Kit\src/tensorflow/lite/kernels\kernel_util.h **** //   TfLiteTensor* my_tensor;
  77:C:\Users\a5116938\Desktop\e2_studio_workspace\EEMBC_final\RX65N_Cloud_Kit\src/tensorflow/lite/kernels\kernel_util.h **** //   TF_LITE_ENSURE_OK(context,
  78:C:\Users\a5116938\Desktop\e2_studio_workspace\EEMBC_final\RX65N_Cloud_Kit\src/tensorflow/lite/kernels\kernel_util.h **** //                     GetOutputSafe(context, node, kMyTensorIdx, &my_tensor));
  79:C:\Users\a5116938\Desktop\e2_studio_workspace\EEMBC_final\RX65N_Cloud_Kit\src/tensorflow/lite/kernels\kernel_util.h **** //   // can use my_tensor directly from here onwards, it is not nullptr
  80:C:\Users\a5116938\Desktop\e2_studio_workspace\EEMBC_final\RX65N_Cloud_Kit\src/tensorflow/lite/kernels\kernel_util.h **** //
  81:C:\Users\a5116938\Desktop\e2_studio_workspace\EEMBC_final\RX65N_Cloud_Kit\src/tensorflow/lite/kernels\kernel_util.h **** // Should be used in cases where the binary size is too large.
  82:C:\Users\a5116938\Desktop\e2_studio_workspace\EEMBC_final\RX65N_Cloud_Kit\src/tensorflow/lite/kernels\kernel_util.h **** TfLiteStatus GetOutputSafe(const TfLiteContext* context, const TfLiteNode* node,
  83:C:\Users\a5116938\Desktop\e2_studio_workspace\EEMBC_final\RX65N_Cloud_Kit\src/tensorflow/lite/kernels\kernel_util.h ****                            int index, TfLiteTensor** tensor);
  84:C:\Users\a5116938\Desktop\e2_studio_workspace\EEMBC_final\RX65N_Cloud_Kit\src/tensorflow/lite/kernels\kernel_util.h **** 
  85:C:\Users\a5116938\Desktop\e2_studio_workspace\EEMBC_final\RX65N_Cloud_Kit\src/tensorflow/lite/kernels\kernel_util.h **** // Note: You must check if result is not null:
  86:C:\Users\a5116938\Desktop\e2_studio_workspace\EEMBC_final\RX65N_Cloud_Kit\src/tensorflow/lite/kernels\kernel_util.h **** //
  87:C:\Users\a5116938\Desktop\e2_studio_workspace\EEMBC_final\RX65N_Cloud_Kit\src/tensorflow/lite/kernels\kernel_util.h **** //   TfLiteTensor* my_tensor = GetOptionalInputTensor(context, node, kIdx);
  88:C:\Users\a5116938\Desktop\e2_studio_workspace\EEMBC_final\RX65N_Cloud_Kit\src/tensorflow/lite/kernels\kernel_util.h **** //   TF_LITE_ENSURE(context, my_tensor != nullptr);
  89:C:\Users\a5116938\Desktop\e2_studio_workspace\EEMBC_final\RX65N_Cloud_Kit\src/tensorflow/lite/kernels\kernel_util.h **** //
  90:C:\Users\a5116938\Desktop\e2_studio_workspace\EEMBC_final\RX65N_Cloud_Kit\src/tensorflow/lite/kernels\kernel_util.h **** // This is because the index might point to the optional tensor constant
  91:C:\Users\a5116938\Desktop\e2_studio_workspace\EEMBC_final\RX65N_Cloud_Kit\src/tensorflow/lite/kernels\kernel_util.h **** // (kTfLiteOptionalTensor) in which case there is no tensor to return.
  92:C:\Users\a5116938\Desktop\e2_studio_workspace\EEMBC_final\RX65N_Cloud_Kit\src/tensorflow/lite/kernels\kernel_util.h **** //
  93:C:\Users\a5116938\Desktop\e2_studio_workspace\EEMBC_final\RX65N_Cloud_Kit\src/tensorflow/lite/kernels\kernel_util.h **** // Deprecated. GetInput has the same functionality.
  94:C:\Users\a5116938\Desktop\e2_studio_workspace\EEMBC_final\RX65N_Cloud_Kit\src/tensorflow/lite/kernels\kernel_util.h **** const TfLiteTensor* GetOptionalInputTensor(const TfLiteContext* context,
  95:C:\Users\a5116938\Desktop\e2_studio_workspace\EEMBC_final\RX65N_Cloud_Kit\src/tensorflow/lite/kernels\kernel_util.h ****                                            const TfLiteNode* node, int index);
  96:C:\Users\a5116938\Desktop\e2_studio_workspace\EEMBC_final\RX65N_Cloud_Kit\src/tensorflow/lite/kernels\kernel_util.h **** 
  97:C:\Users\a5116938\Desktop\e2_studio_workspace\EEMBC_final\RX65N_Cloud_Kit\src/tensorflow/lite/kernels\kernel_util.h **** #ifndef TF_LITE_STATIC_MEMORY
  98:C:\Users\a5116938\Desktop\e2_studio_workspace\EEMBC_final\RX65N_Cloud_Kit\src/tensorflow/lite/kernels\kernel_util.h **** // Note: You must check if result is not null:
  99:C:\Users\a5116938\Desktop\e2_studio_workspace\EEMBC_final\RX65N_Cloud_Kit\src/tensorflow/lite/kernels\kernel_util.h **** //
 100:C:\Users\a5116938\Desktop\e2_studio_workspace\EEMBC_final\RX65N_Cloud_Kit\src/tensorflow/lite/kernels\kernel_util.h **** //   TfLiteTensor* my_tensor = GetTemporary(context, node, kMyTensorIdx);
 101:C:\Users\a5116938\Desktop\e2_studio_workspace\EEMBC_final\RX65N_Cloud_Kit\src/tensorflow/lite/kernels\kernel_util.h **** //   TF_LITE_ENSURE(context, my_tensor != nullptr);
 102:C:\Users\a5116938\Desktop\e2_studio_workspace\EEMBC_final\RX65N_Cloud_Kit\src/tensorflow/lite/kernels\kernel_util.h **** //
 103:C:\Users\a5116938\Desktop\e2_studio_workspace\EEMBC_final\RX65N_Cloud_Kit\src/tensorflow/lite/kernels\kernel_util.h **** // This is because the index might point to the optional tensor constant
 104:C:\Users\a5116938\Desktop\e2_studio_workspace\EEMBC_final\RX65N_Cloud_Kit\src/tensorflow/lite/kernels\kernel_util.h **** // (kTfLiteOptionalTensor) in which case there is no tensor to return.
 105:C:\Users\a5116938\Desktop\e2_studio_workspace\EEMBC_final\RX65N_Cloud_Kit\src/tensorflow/lite/kernels\kernel_util.h **** TfLiteTensor* GetTemporary(TfLiteContext* context, const TfLiteNode* node,
 106:C:\Users\a5116938\Desktop\e2_studio_workspace\EEMBC_final\RX65N_Cloud_Kit\src/tensorflow/lite/kernels\kernel_util.h ****                            int index);
 107:C:\Users\a5116938\Desktop\e2_studio_workspace\EEMBC_final\RX65N_Cloud_Kit\src/tensorflow/lite/kernels\kernel_util.h **** 
 108:C:\Users\a5116938\Desktop\e2_studio_workspace\EEMBC_final\RX65N_Cloud_Kit\src/tensorflow/lite/kernels\kernel_util.h **** // Same as `GetTemporary` but returns boolean and uses output argument for
 109:C:\Users\a5116938\Desktop\e2_studio_workspace\EEMBC_final\RX65N_Cloud_Kit\src/tensorflow/lite/kernels\kernel_util.h **** // tensor.
 110:C:\Users\a5116938\Desktop\e2_studio_workspace\EEMBC_final\RX65N_Cloud_Kit\src/tensorflow/lite/kernels\kernel_util.h **** //
 111:C:\Users\a5116938\Desktop\e2_studio_workspace\EEMBC_final\RX65N_Cloud_Kit\src/tensorflow/lite/kernels\kernel_util.h **** //   TfLiteTensor* my_tensor;
 112:C:\Users\a5116938\Desktop\e2_studio_workspace\EEMBC_final\RX65N_Cloud_Kit\src/tensorflow/lite/kernels\kernel_util.h **** //   TF_LITE_ENSURE_OK(context,
 113:C:\Users\a5116938\Desktop\e2_studio_workspace\EEMBC_final\RX65N_Cloud_Kit\src/tensorflow/lite/kernels\kernel_util.h **** //                     GetTemporarySafe(context, node, kMyTensorIdx,
 114:C:\Users\a5116938\Desktop\e2_studio_workspace\EEMBC_final\RX65N_Cloud_Kit\src/tensorflow/lite/kernels\kernel_util.h **** //                     &my_tensor));
 115:C:\Users\a5116938\Desktop\e2_studio_workspace\EEMBC_final\RX65N_Cloud_Kit\src/tensorflow/lite/kernels\kernel_util.h **** //   // can use my_tensor directly from here onwards, it is not nullptr
 116:C:\Users\a5116938\Desktop\e2_studio_workspace\EEMBC_final\RX65N_Cloud_Kit\src/tensorflow/lite/kernels\kernel_util.h **** //
 117:C:\Users\a5116938\Desktop\e2_studio_workspace\EEMBC_final\RX65N_Cloud_Kit\src/tensorflow/lite/kernels\kernel_util.h **** // Should be used in cases where the binary size is too large.
 118:C:\Users\a5116938\Desktop\e2_studio_workspace\EEMBC_final\RX65N_Cloud_Kit\src/tensorflow/lite/kernels\kernel_util.h **** TfLiteStatus GetTemporarySafe(const TfLiteContext* context,
 119:C:\Users\a5116938\Desktop\e2_studio_workspace\EEMBC_final\RX65N_Cloud_Kit\src/tensorflow/lite/kernels\kernel_util.h ****                               const TfLiteNode* node, int index,
 120:C:\Users\a5116938\Desktop\e2_studio_workspace\EEMBC_final\RX65N_Cloud_Kit\src/tensorflow/lite/kernels\kernel_util.h ****                               TfLiteTensor** tensor);
 121:C:\Users\a5116938\Desktop\e2_studio_workspace\EEMBC_final\RX65N_Cloud_Kit\src/tensorflow/lite/kernels\kernel_util.h **** 
 122:C:\Users\a5116938\Desktop\e2_studio_workspace\EEMBC_final\RX65N_Cloud_Kit\src/tensorflow/lite/kernels\kernel_util.h **** // Note: You must check if result is not null:
 123:C:\Users\a5116938\Desktop\e2_studio_workspace\EEMBC_final\RX65N_Cloud_Kit\src/tensorflow/lite/kernels\kernel_util.h **** //
 124:C:\Users\a5116938\Desktop\e2_studio_workspace\EEMBC_final\RX65N_Cloud_Kit\src/tensorflow/lite/kernels\kernel_util.h **** //   TfLiteTensor* my_tensor = GetIntermediates(context, node, kMyTensorIdx);
 125:C:\Users\a5116938\Desktop\e2_studio_workspace\EEMBC_final\RX65N_Cloud_Kit\src/tensorflow/lite/kernels\kernel_util.h **** //   TF_LITE_ENSURE(context, my_tensor != nullptr);
 126:C:\Users\a5116938\Desktop\e2_studio_workspace\EEMBC_final\RX65N_Cloud_Kit\src/tensorflow/lite/kernels\kernel_util.h **** //
 127:C:\Users\a5116938\Desktop\e2_studio_workspace\EEMBC_final\RX65N_Cloud_Kit\src/tensorflow/lite/kernels\kernel_util.h **** // This is because the index might point to the optional tensor constant
 128:C:\Users\a5116938\Desktop\e2_studio_workspace\EEMBC_final\RX65N_Cloud_Kit\src/tensorflow/lite/kernels\kernel_util.h **** // (kTfLiteOptionalTensor) in which case there is no tensor to return.
 129:C:\Users\a5116938\Desktop\e2_studio_workspace\EEMBC_final\RX65N_Cloud_Kit\src/tensorflow/lite/kernels\kernel_util.h **** const TfLiteTensor* GetIntermediates(TfLiteContext* context,
 130:C:\Users\a5116938\Desktop\e2_studio_workspace\EEMBC_final\RX65N_Cloud_Kit\src/tensorflow/lite/kernels\kernel_util.h ****                                      const TfLiteNode* node, int index);
 131:C:\Users\a5116938\Desktop\e2_studio_workspace\EEMBC_final\RX65N_Cloud_Kit\src/tensorflow/lite/kernels\kernel_util.h **** 
 132:C:\Users\a5116938\Desktop\e2_studio_workspace\EEMBC_final\RX65N_Cloud_Kit\src/tensorflow/lite/kernels\kernel_util.h **** // Same as `GetIntermediates` but returns boolean and uses output argument for
 133:C:\Users\a5116938\Desktop\e2_studio_workspace\EEMBC_final\RX65N_Cloud_Kit\src/tensorflow/lite/kernels\kernel_util.h **** // tensor.
 134:C:\Users\a5116938\Desktop\e2_studio_workspace\EEMBC_final\RX65N_Cloud_Kit\src/tensorflow/lite/kernels\kernel_util.h **** //
 135:C:\Users\a5116938\Desktop\e2_studio_workspace\EEMBC_final\RX65N_Cloud_Kit\src/tensorflow/lite/kernels\kernel_util.h **** //   TfLiteTensor* my_tensor;
 136:C:\Users\a5116938\Desktop\e2_studio_workspace\EEMBC_final\RX65N_Cloud_Kit\src/tensorflow/lite/kernels\kernel_util.h **** //   TF_LITE_ENSURE_OK(context,
 137:C:\Users\a5116938\Desktop\e2_studio_workspace\EEMBC_final\RX65N_Cloud_Kit\src/tensorflow/lite/kernels\kernel_util.h **** //                     GetIntermediatesSafe(context, node, kMyTensorIdx,
 138:C:\Users\a5116938\Desktop\e2_studio_workspace\EEMBC_final\RX65N_Cloud_Kit\src/tensorflow/lite/kernels\kernel_util.h **** //                     &my_tensor));
 139:C:\Users\a5116938\Desktop\e2_studio_workspace\EEMBC_final\RX65N_Cloud_Kit\src/tensorflow/lite/kernels\kernel_util.h **** //   // can use my_tensor directly from here onwards, it is not nullptr
 140:C:\Users\a5116938\Desktop\e2_studio_workspace\EEMBC_final\RX65N_Cloud_Kit\src/tensorflow/lite/kernels\kernel_util.h **** //
 141:C:\Users\a5116938\Desktop\e2_studio_workspace\EEMBC_final\RX65N_Cloud_Kit\src/tensorflow/lite/kernels\kernel_util.h **** // Should be used in cases where the binary size is too large.
 142:C:\Users\a5116938\Desktop\e2_studio_workspace\EEMBC_final\RX65N_Cloud_Kit\src/tensorflow/lite/kernels\kernel_util.h **** TfLiteStatus GetIntermediatesSafe(const TfLiteContext* context,
 143:C:\Users\a5116938\Desktop\e2_studio_workspace\EEMBC_final\RX65N_Cloud_Kit\src/tensorflow/lite/kernels\kernel_util.h ****                                   const TfLiteNode* node, int index,
 144:C:\Users\a5116938\Desktop\e2_studio_workspace\EEMBC_final\RX65N_Cloud_Kit\src/tensorflow/lite/kernels\kernel_util.h ****                                   TfLiteTensor** tensor);
 145:C:\Users\a5116938\Desktop\e2_studio_workspace\EEMBC_final\RX65N_Cloud_Kit\src/tensorflow/lite/kernels\kernel_util.h **** #endif  // TF_LITE_STATIC_MEMORY
 146:C:\Users\a5116938\Desktop\e2_studio_workspace\EEMBC_final\RX65N_Cloud_Kit\src/tensorflow/lite/kernels\kernel_util.h **** 
 147:C:\Users\a5116938\Desktop\e2_studio_workspace\EEMBC_final\RX65N_Cloud_Kit\src/tensorflow/lite/kernels\kernel_util.h **** inline int NumDimensions(const TfLiteTensor* t) { return t->dims->size; }
 148:C:\Users\a5116938\Desktop\e2_studio_workspace\EEMBC_final\RX65N_Cloud_Kit\src/tensorflow/lite/kernels\kernel_util.h **** inline int SizeOfDimension(const TfLiteTensor* t, int dim) {
 149:C:\Users\a5116938\Desktop\e2_studio_workspace\EEMBC_final\RX65N_Cloud_Kit\src/tensorflow/lite/kernels\kernel_util.h ****   return t->dims->data[dim];
 150:C:\Users\a5116938\Desktop\e2_studio_workspace\EEMBC_final\RX65N_Cloud_Kit\src/tensorflow/lite/kernels\kernel_util.h **** }
 151:C:\Users\a5116938\Desktop\e2_studio_workspace\EEMBC_final\RX65N_Cloud_Kit\src/tensorflow/lite/kernels\kernel_util.h **** 
 152:C:\Users\a5116938\Desktop\e2_studio_workspace\EEMBC_final\RX65N_Cloud_Kit\src/tensorflow/lite/kernels\kernel_util.h **** inline int NumInputs(const TfLiteNode* node) { return node->inputs->size; }
 153:C:\Users\a5116938\Desktop\e2_studio_workspace\EEMBC_final\RX65N_Cloud_Kit\src/tensorflow/lite/kernels\kernel_util.h **** inline int NumOutputs(const TfLiteNode* node) { return node->outputs->size; }
 154:C:\Users\a5116938\Desktop\e2_studio_workspace\EEMBC_final\RX65N_Cloud_Kit\src/tensorflow/lite/kernels\kernel_util.h **** 
 155:C:\Users\a5116938\Desktop\e2_studio_workspace\EEMBC_final\RX65N_Cloud_Kit\src/tensorflow/lite/kernels\kernel_util.h **** #ifndef TF_LITE_STATIC_MEMORY
 156:C:\Users\a5116938\Desktop\e2_studio_workspace\EEMBC_final\RX65N_Cloud_Kit\src/tensorflow/lite/kernels\kernel_util.h **** inline int NumIntermediates(const TfLiteNode* node) {
 157:C:\Users\a5116938\Desktop\e2_studio_workspace\EEMBC_final\RX65N_Cloud_Kit\src/tensorflow/lite/kernels\kernel_util.h ****   return node->intermediates->size;
 158:C:\Users\a5116938\Desktop\e2_studio_workspace\EEMBC_final\RX65N_Cloud_Kit\src/tensorflow/lite/kernels\kernel_util.h **** }
 159:C:\Users\a5116938\Desktop\e2_studio_workspace\EEMBC_final\RX65N_Cloud_Kit\src/tensorflow/lite/kernels\kernel_util.h **** #endif  // TF_LITE_STATIC_MEMORY
 160:C:\Users\a5116938\Desktop\e2_studio_workspace\EEMBC_final\RX65N_Cloud_Kit\src/tensorflow/lite/kernels\kernel_util.h **** 
 161:C:\Users\a5116938\Desktop\e2_studio_workspace\EEMBC_final\RX65N_Cloud_Kit\src/tensorflow/lite/kernels\kernel_util.h **** inline int64_t NumElements(const TfLiteIntArray* dims) {
 162:C:\Users\a5116938\Desktop\e2_studio_workspace\EEMBC_final\RX65N_Cloud_Kit\src/tensorflow/lite/kernels\kernel_util.h ****   int64_t count = 1;
 163:C:\Users\a5116938\Desktop\e2_studio_workspace\EEMBC_final\RX65N_Cloud_Kit\src/tensorflow/lite/kernels\kernel_util.h ****   for (int i = 0; i < dims->size; ++i) {
 164:C:\Users\a5116938\Desktop\e2_studio_workspace\EEMBC_final\RX65N_Cloud_Kit\src/tensorflow/lite/kernels\kernel_util.h ****     count *= dims->data[i];
 165:C:\Users\a5116938\Desktop\e2_studio_workspace\EEMBC_final\RX65N_Cloud_Kit\src/tensorflow/lite/kernels\kernel_util.h ****   }
 166:C:\Users\a5116938\Desktop\e2_studio_workspace\EEMBC_final\RX65N_Cloud_Kit\src/tensorflow/lite/kernels\kernel_util.h ****   return count;
 167:C:\Users\a5116938\Desktop\e2_studio_workspace\EEMBC_final\RX65N_Cloud_Kit\src/tensorflow/lite/kernels\kernel_util.h **** }
 168:C:\Users\a5116938\Desktop\e2_studio_workspace\EEMBC_final\RX65N_Cloud_Kit\src/tensorflow/lite/kernels\kernel_util.h **** 
 169:C:\Users\a5116938\Desktop\e2_studio_workspace\EEMBC_final\RX65N_Cloud_Kit\src/tensorflow/lite/kernels\kernel_util.h **** inline int64_t NumElements(const TfLiteTensor* t) {
 170:C:\Users\a5116938\Desktop\e2_studio_workspace\EEMBC_final\RX65N_Cloud_Kit\src/tensorflow/lite/kernels\kernel_util.h ****   return NumElements(t->dims);
 171:C:\Users\a5116938\Desktop\e2_studio_workspace\EEMBC_final\RX65N_Cloud_Kit\src/tensorflow/lite/kernels\kernel_util.h **** }
 172:C:\Users\a5116938\Desktop\e2_studio_workspace\EEMBC_final\RX65N_Cloud_Kit\src/tensorflow/lite/kernels\kernel_util.h **** 
 173:C:\Users\a5116938\Desktop\e2_studio_workspace\EEMBC_final\RX65N_Cloud_Kit\src/tensorflow/lite/kernels\kernel_util.h **** // Determines whether tensor is constant.
 174:C:\Users\a5116938\Desktop\e2_studio_workspace\EEMBC_final\RX65N_Cloud_Kit\src/tensorflow/lite/kernels\kernel_util.h **** // TODO(b/138199592): Introduce new query which checks for constant OR
 175:C:\Users\a5116938\Desktop\e2_studio_workspace\EEMBC_final\RX65N_Cloud_Kit\src/tensorflow/lite/kernels\kernel_util.h **** // persistent-read-only, which would be useful for most tensor kernels that
 176:C:\Users\a5116938\Desktop\e2_studio_workspace\EEMBC_final\RX65N_Cloud_Kit\src/tensorflow/lite/kernels\kernel_util.h **** // are potentially dynamic based on the input tensor value availability at the
 177:C:\Users\a5116938\Desktop\e2_studio_workspace\EEMBC_final\RX65N_Cloud_Kit\src/tensorflow/lite/kernels\kernel_util.h **** // time of prepare.
 178:C:\Users\a5116938\Desktop\e2_studio_workspace\EEMBC_final\RX65N_Cloud_Kit\src/tensorflow/lite/kernels\kernel_util.h **** inline bool IsConstantTensor(const TfLiteTensor* tensor) {
 179:C:\Users\a5116938\Desktop\e2_studio_workspace\EEMBC_final\RX65N_Cloud_Kit\src/tensorflow/lite/kernels\kernel_util.h ****   return tensor->allocation_type == kTfLiteMmapRo;
  32                             		.loc 2 179 3
  33                             		.loc 1 77 3 is_stmt 0
  34 0011 A9 1D                   		mov.L	20[r1], r5
  35 0013 61 15                   		cmp	#1, r5
  36 0015 20 13                   		beq	.L4
  37                             		.loc 1 77 3 is_stmt 1 discriminator 1
  38                             		.loc 1 77 3 discriminator 1
  39 0017 A9 7D                   		mov.L	20[r7], r5
  40 0019 F8 02 55 00 00 00       		mov.L	#.LC4, [r0]
  41 001f EF 71                   		mov.L	r7, r1
  42                             	.LVL3:
  43 0021 7F 15                   		jsr	r5
  44                             	.LVL4:
  45                             		.loc 1 77 3 discriminator 1
  46 0023 66 11                   		mov.L	#1, r1
  78:../src/tensorflow/lite/micro/kernels/split.cc ****                      "Non constant axis tensor not supported");
  79:../src/tensorflow/lite/micro/kernels/split.cc ****   return kTfLiteOk;
  80:../src/tensorflow/lite/micro/kernels/split.cc **** }
  47                             		.loc 1 80 1 is_stmt 0 discriminator 1
  48 0025 3F 77 05                		rtsd	#20, r7-r7
  49                             	.LVL5:
  50                             	.L4:
  79:../src/tensorflow/lite/micro/kernels/split.cc **** }
  51                             		.loc 1 79 10
  52 0028 66 01                   		mov.L	#0, r1
  53                             	.LVL6:
  54                             		.loc 1 80 1
  55 002a 3F 77 05                		rtsd	#20, r7-r7
  56                             	.LVL7:
  57                             	.L7:
  58                             	.LBB76:
  59                             	.LBB77:
  72:../src/tensorflow/lite/micro/kernels/split.cc **** 
  60                             		.loc 1 72 3 is_stmt 1
  72:../src/tensorflow/lite/micro/kernels/split.cc **** 
  61                             		.loc 1 72 3
  62 002d A9 7D                   		mov.L	20[r7], r5
  63 002f F9 02 03 00 00 00 00    		mov.L	#.LC1, 12[r0]
  64 0036 3E 02 48                		mov.L	#0x48, 8[r0]
  65 0039 F9 02 01 10 00 00 00    		mov.L	#.LC2, 4[r0]
  66 0040 EF 71                   		mov.L	r7, r1
  67                             	.LVL8:
  68 0042 F8 02 3E 00 00 00       		mov.L	#.LC3, [r0]
  69 0048 7F 15                   		jsr	r5
  70                             	.LVL9:
  72:../src/tensorflow/lite/micro/kernels/split.cc **** 
  71                             		.loc 1 72 3
  72 004a 66 11                   		mov.L	#1, r1
  73                             	.LBE77:
  74                             	.LBE76:
  75                             		.loc 1 80 1 is_stmt 0
  76 004c 3F 77 05                		rtsd	#20, r7-r7
  77                             	.LFE977:
  79                             		.section	.text._ZN6tflite3ops5micro14Register_SPLITEv,"ax",@progbits
  80                             		.global	__ZN6tflite3ops5micro14Register_SPLITEv
  82                             	__ZN6tflite3ops5micro14Register_SPLITEv:
  83                             	.LFB979:
  81:../src/tensorflow/lite/micro/kernels/split.cc **** 
  82:../src/tensorflow/lite/micro/kernels/split.cc **** TfLiteStatus Eval(TfLiteContext* context, TfLiteNode* node) {
  83:../src/tensorflow/lite/micro/kernels/split.cc ****   const TfLiteEvalTensor* axis = tflite::micro::GetEvalInput(context, node, 0);
  84:../src/tensorflow/lite/micro/kernels/split.cc ****   const TfLiteEvalTensor* input = tflite::micro::GetEvalInput(context, node, 1);
  85:../src/tensorflow/lite/micro/kernels/split.cc **** 
  86:../src/tensorflow/lite/micro/kernels/split.cc ****   int axis_value = tflite::micro::GetTensorData<int32_t>(axis)[0];
  87:../src/tensorflow/lite/micro/kernels/split.cc ****   if (axis_value < 0) {
  88:../src/tensorflow/lite/micro/kernels/split.cc ****     axis_value += input->dims->size;
  89:../src/tensorflow/lite/micro/kernels/split.cc ****   }
  90:../src/tensorflow/lite/micro/kernels/split.cc **** 
  91:../src/tensorflow/lite/micro/kernels/split.cc ****   TF_LITE_ENSURE(context, axis_value >= 0);
  92:../src/tensorflow/lite/micro/kernels/split.cc ****   TF_LITE_ENSURE(context, axis_value < input->dims->size);
  93:../src/tensorflow/lite/micro/kernels/split.cc **** 
  94:../src/tensorflow/lite/micro/kernels/split.cc ****   switch (input->type) {
  95:../src/tensorflow/lite/micro/kernels/split.cc ****     case kTfLiteFloat32: {
  96:../src/tensorflow/lite/micro/kernels/split.cc ****       return SplitImpl<float>(context, node, input, axis_value);
  97:../src/tensorflow/lite/micro/kernels/split.cc ****     }
  98:../src/tensorflow/lite/micro/kernels/split.cc ****     case kTfLiteUInt8: {
  99:../src/tensorflow/lite/micro/kernels/split.cc ****       return SplitImpl<uint8_t>(context, node, input, axis_value);
 100:../src/tensorflow/lite/micro/kernels/split.cc ****     }
 101:../src/tensorflow/lite/micro/kernels/split.cc ****     case kTfLiteInt8: {
 102:../src/tensorflow/lite/micro/kernels/split.cc ****       return SplitImpl<int8_t>(context, node, input, axis_value);
 103:../src/tensorflow/lite/micro/kernels/split.cc ****     }
 104:../src/tensorflow/lite/micro/kernels/split.cc ****     case kTfLiteInt16: {
 105:../src/tensorflow/lite/micro/kernels/split.cc ****       return SplitImpl<int16_t>(context, node, input, axis_value);
 106:../src/tensorflow/lite/micro/kernels/split.cc ****     }
 107:../src/tensorflow/lite/micro/kernels/split.cc ****     case kTfLiteInt32: {
 108:../src/tensorflow/lite/micro/kernels/split.cc ****       return SplitImpl<int32_t>(context, node, input, axis_value);
 109:../src/tensorflow/lite/micro/kernels/split.cc ****     }
 110:../src/tensorflow/lite/micro/kernels/split.cc ****     default:
 111:../src/tensorflow/lite/micro/kernels/split.cc ****       TF_LITE_KERNEL_LOG(context, "Type %s currently not supported.",
 112:../src/tensorflow/lite/micro/kernels/split.cc ****                          TfLiteTypeGetName(input->type));
 113:../src/tensorflow/lite/micro/kernels/split.cc ****       return kTfLiteError;
 114:../src/tensorflow/lite/micro/kernels/split.cc ****   }
 115:../src/tensorflow/lite/micro/kernels/split.cc **** #undef TF_LITE_SPLIT
 116:../src/tensorflow/lite/micro/kernels/split.cc **** 
 117:../src/tensorflow/lite/micro/kernels/split.cc ****   return kTfLiteOk;
 118:../src/tensorflow/lite/micro/kernels/split.cc **** }
 119:../src/tensorflow/lite/micro/kernels/split.cc **** 
 120:../src/tensorflow/lite/micro/kernels/split.cc **** }  // namespace split
 121:../src/tensorflow/lite/micro/kernels/split.cc **** 
 122:../src/tensorflow/lite/micro/kernels/split.cc **** TfLiteRegistration Register_SPLIT() {
  84                             		.loc 1 122 37 is_stmt 1
 123:../src/tensorflow/lite/micro/kernels/split.cc ****   return {/*init=*/nullptr,
  85                             		.loc 1 123 3
 124:../src/tensorflow/lite/micro/kernels/split.cc ****           /*free=*/nullptr,
 125:../src/tensorflow/lite/micro/kernels/split.cc ****           /*prepare=*/split::Prepare,
 126:../src/tensorflow/lite/micro/kernels/split.cc ****           /*invoke=*/split::Eval,
 127:../src/tensorflow/lite/micro/kernels/split.cc ****           /*profiling_string=*/nullptr,
 128:../src/tensorflow/lite/micro/kernels/split.cc ****           /*builtin_code=*/0,
 129:../src/tensorflow/lite/micro/kernels/split.cc ****           /*custom_name=*/nullptr,
 130:../src/tensorflow/lite/micro/kernels/split.cc ****           /*version=*/0};
  86                             		.loc 1 130 24 is_stmt 0
  87 0000 FB 22 00 00 00 00       		mov.L	#.LANCHOR0, r2
  88 0006 EF F1                   		mov.L	r15, r1
  89 0008 75 43 20                		mov.L	#32, r3
  90 000b 7F 8F                   		smovf
 131:../src/tensorflow/lite/micro/kernels/split.cc **** }
  91                             		.loc 1 131 1
  92 000d EF F1                   		mov.L	r15, r1
  93 000f 02                      		rts
  94                             	.LFE979:
  96                             		.section	.text._ZN6tflite3ops5micro5split9SplitImplIfEE12TfLiteStatusP13TfLiteContextP10TfLiteNode
  97                             		.weak	__ZN6tflite3ops5micro5split9SplitImplIfEE12TfLiteStatusP13TfLiteContextP10TfLiteNodePK16TfLi
  99                             	__ZN6tflite3ops5micro5split9SplitImplIfEE12TfLiteStatusP13TfLiteContextP10TfLiteNodePK16TfLiteEvalT
 100                             	.LFB987:
  28:../src/tensorflow/lite/micro/kernels/split.cc ****                        const TfLiteEvalTensor* input, int axis_value) {
 101                             		.loc 1 28 14 is_stmt 1
 102                             	.LVL10:
 103 0000 6E 6D                   		pushm	r6-r13
 104                             	.LCFI2:
 105 0002 71 00 EC                		add	#-20, r0
 106                             	.LCFI3:
  30:../src/tensorflow/lite/micro/kernels/split.cc ****   const TfLiteIntArray* input_dims = input->dims;
 107                             		.loc 1 30 38 is_stmt 0
 108 0005 A8 2F                   		mov.L	4[r2], r7
 109                             	.LVL11:
 110                             	.LBB94:
 111                             	.LBB95:
 153:C:\Users\a5116938\Desktop\e2_studio_workspace\EEMBC_final\RX65N_Cloud_Kit\src/tensorflow/lite/kernels\kernel_util.h **** 
 112                             		.loc 2 153 49 is_stmt 1
 113                             	.LBE95:
 114                             	.LBE94:
  31:../src/tensorflow/lite/micro/kernels/split.cc ****   const TfLiteEvalTensor* output0 =
 115                             		.loc 1 31 25 is_stmt 0
 116 0007 ED 3C 01                		mov.L	4[r3], r12
 117                             	.LBB97:
 118                             	.LBB96:
 153:C:\Users\a5116938\Desktop\e2_studio_workspace\EEMBC_final\RX65N_Cloud_Kit\src/tensorflow/lite/kernels\kernel_util.h **** 
 119                             		.loc 2 153 71
 120 000a EC 76                   		mov.L	[r7], r6
 121                             	.LVL12:
 122                             	.LBE96:
 123                             	.LBE97:
 124                             	.LBB98:
 125                             	.LBB99:
 126                             		.file 3 "C:\\Users\\a5116938\\Desktop\\e2_studio_workspace\\EEMBC_final\\RX65N_Cloud_Kit\\src/tens
   1:C:\Users\a5116938\Desktop\e2_studio_workspace\EEMBC_final\RX65N_Cloud_Kit\src/tensorflow/lite/micro/kernels\kernel_util.h **** /* Copyright 2020 The TensorFlow Authors. All Rights Reserved.
   2:C:\Users\a5116938\Desktop\e2_studio_workspace\EEMBC_final\RX65N_Cloud_Kit\src/tensorflow/lite/micro/kernels\kernel_util.h **** 
   3:C:\Users\a5116938\Desktop\e2_studio_workspace\EEMBC_final\RX65N_Cloud_Kit\src/tensorflow/lite/micro/kernels\kernel_util.h **** Licensed under the Apache License, Version 2.0 (the "License");
   4:C:\Users\a5116938\Desktop\e2_studio_workspace\EEMBC_final\RX65N_Cloud_Kit\src/tensorflow/lite/micro/kernels\kernel_util.h **** you may not use this file except in compliance with the License.
   5:C:\Users\a5116938\Desktop\e2_studio_workspace\EEMBC_final\RX65N_Cloud_Kit\src/tensorflow/lite/micro/kernels\kernel_util.h **** You may obtain a copy of the License at
   6:C:\Users\a5116938\Desktop\e2_studio_workspace\EEMBC_final\RX65N_Cloud_Kit\src/tensorflow/lite/micro/kernels\kernel_util.h **** 
   7:C:\Users\a5116938\Desktop\e2_studio_workspace\EEMBC_final\RX65N_Cloud_Kit\src/tensorflow/lite/micro/kernels\kernel_util.h ****     http://www.apache.org/licenses/LICENSE-2.0
   8:C:\Users\a5116938\Desktop\e2_studio_workspace\EEMBC_final\RX65N_Cloud_Kit\src/tensorflow/lite/micro/kernels\kernel_util.h **** 
   9:C:\Users\a5116938\Desktop\e2_studio_workspace\EEMBC_final\RX65N_Cloud_Kit\src/tensorflow/lite/micro/kernels\kernel_util.h **** Unless required by applicable law or agreed to in writing, software
  10:C:\Users\a5116938\Desktop\e2_studio_workspace\EEMBC_final\RX65N_Cloud_Kit\src/tensorflow/lite/micro/kernels\kernel_util.h **** distributed under the License is distributed on an "AS IS" BASIS,
  11:C:\Users\a5116938\Desktop\e2_studio_workspace\EEMBC_final\RX65N_Cloud_Kit\src/tensorflow/lite/micro/kernels\kernel_util.h **** WITHOUT WARRANTIES OR CONDITIONS OF ANY KIND, either express or implied.
  12:C:\Users\a5116938\Desktop\e2_studio_workspace\EEMBC_final\RX65N_Cloud_Kit\src/tensorflow/lite/micro/kernels\kernel_util.h **** See the License for the specific language governing permissions and
  13:C:\Users\a5116938\Desktop\e2_studio_workspace\EEMBC_final\RX65N_Cloud_Kit\src/tensorflow/lite/micro/kernels\kernel_util.h **** limitations under the License.
  14:C:\Users\a5116938\Desktop\e2_studio_workspace\EEMBC_final\RX65N_Cloud_Kit\src/tensorflow/lite/micro/kernels\kernel_util.h **** ==============================================================================*/
  15:C:\Users\a5116938\Desktop\e2_studio_workspace\EEMBC_final\RX65N_Cloud_Kit\src/tensorflow/lite/micro/kernels\kernel_util.h **** 
  16:C:\Users\a5116938\Desktop\e2_studio_workspace\EEMBC_final\RX65N_Cloud_Kit\src/tensorflow/lite/micro/kernels\kernel_util.h **** #ifndef TENSORFLOW_LITE_MICRO_KERNELS_KERNEL_UTIL_H_
  17:C:\Users\a5116938\Desktop\e2_studio_workspace\EEMBC_final\RX65N_Cloud_Kit\src/tensorflow/lite/micro/kernels\kernel_util.h **** #define TENSORFLOW_LITE_MICRO_KERNELS_KERNEL_UTIL_H_
  18:C:\Users\a5116938\Desktop\e2_studio_workspace\EEMBC_final\RX65N_Cloud_Kit\src/tensorflow/lite/micro/kernels\kernel_util.h **** 
  19:C:\Users\a5116938\Desktop\e2_studio_workspace\EEMBC_final\RX65N_Cloud_Kit\src/tensorflow/lite/micro/kernels\kernel_util.h **** #include <cstdint>
  20:C:\Users\a5116938\Desktop\e2_studio_workspace\EEMBC_final\RX65N_Cloud_Kit\src/tensorflow/lite/micro/kernels\kernel_util.h **** 
  21:C:\Users\a5116938\Desktop\e2_studio_workspace\EEMBC_final\RX65N_Cloud_Kit\src/tensorflow/lite/micro/kernels\kernel_util.h **** #include "tensorflow/lite/c/common.h"
  22:C:\Users\a5116938\Desktop\e2_studio_workspace\EEMBC_final\RX65N_Cloud_Kit\src/tensorflow/lite/micro/kernels\kernel_util.h **** #include "tensorflow/lite/kernels/internal/compatibility.h"
  23:C:\Users\a5116938\Desktop\e2_studio_workspace\EEMBC_final\RX65N_Cloud_Kit\src/tensorflow/lite/micro/kernels\kernel_util.h **** #include "tensorflow/lite/kernels/internal/types.h"
  24:C:\Users\a5116938\Desktop\e2_studio_workspace\EEMBC_final\RX65N_Cloud_Kit\src/tensorflow/lite/micro/kernels\kernel_util.h **** 
  25:C:\Users\a5116938\Desktop\e2_studio_workspace\EEMBC_final\RX65N_Cloud_Kit\src/tensorflow/lite/micro/kernels\kernel_util.h **** namespace tflite {
  26:C:\Users\a5116938\Desktop\e2_studio_workspace\EEMBC_final\RX65N_Cloud_Kit\src/tensorflow/lite/micro/kernels\kernel_util.h **** namespace micro {
  27:C:\Users\a5116938\Desktop\e2_studio_workspace\EEMBC_final\RX65N_Cloud_Kit\src/tensorflow/lite/micro/kernels\kernel_util.h **** 
  28:C:\Users\a5116938\Desktop\e2_studio_workspace\EEMBC_final\RX65N_Cloud_Kit\src/tensorflow/lite/micro/kernels\kernel_util.h **** // Returns a mutable tensor for a given input index. is_variable must be checked
  29:C:\Users\a5116938\Desktop\e2_studio_workspace\EEMBC_final\RX65N_Cloud_Kit\src/tensorflow/lite/micro/kernels\kernel_util.h **** // during prepare when the full TfLiteTensor is available.
  30:C:\Users\a5116938\Desktop\e2_studio_workspace\EEMBC_final\RX65N_Cloud_Kit\src/tensorflow/lite/micro/kernels\kernel_util.h **** inline TfLiteEvalTensor* GetMutableEvalInput(const TfLiteContext* context,
  31:C:\Users\a5116938\Desktop\e2_studio_workspace\EEMBC_final\RX65N_Cloud_Kit\src/tensorflow/lite/micro/kernels\kernel_util.h ****                                              const TfLiteNode* node,
  32:C:\Users\a5116938\Desktop\e2_studio_workspace\EEMBC_final\RX65N_Cloud_Kit\src/tensorflow/lite/micro/kernels\kernel_util.h ****                                              int index) {
  33:C:\Users\a5116938\Desktop\e2_studio_workspace\EEMBC_final\RX65N_Cloud_Kit\src/tensorflow/lite/micro/kernels\kernel_util.h ****   TFLITE_DCHECK(context != nullptr);
  34:C:\Users\a5116938\Desktop\e2_studio_workspace\EEMBC_final\RX65N_Cloud_Kit\src/tensorflow/lite/micro/kernels\kernel_util.h ****   TFLITE_DCHECK(node != nullptr);
  35:C:\Users\a5116938\Desktop\e2_studio_workspace\EEMBC_final\RX65N_Cloud_Kit\src/tensorflow/lite/micro/kernels\kernel_util.h ****   return context->GetEvalTensor(context, node->inputs->data[index]);
  36:C:\Users\a5116938\Desktop\e2_studio_workspace\EEMBC_final\RX65N_Cloud_Kit\src/tensorflow/lite/micro/kernels\kernel_util.h **** }
  37:C:\Users\a5116938\Desktop\e2_studio_workspace\EEMBC_final\RX65N_Cloud_Kit\src/tensorflow/lite/micro/kernels\kernel_util.h **** 
  38:C:\Users\a5116938\Desktop\e2_studio_workspace\EEMBC_final\RX65N_Cloud_Kit\src/tensorflow/lite/micro/kernels\kernel_util.h **** // Returns the TfLiteEvalTensor struct for a given input index in a node.
  39:C:\Users\a5116938\Desktop\e2_studio_workspace\EEMBC_final\RX65N_Cloud_Kit\src/tensorflow/lite/micro/kernels\kernel_util.h **** inline const TfLiteEvalTensor* GetEvalInput(const TfLiteContext* context,
  40:C:\Users\a5116938\Desktop\e2_studio_workspace\EEMBC_final\RX65N_Cloud_Kit\src/tensorflow/lite/micro/kernels\kernel_util.h ****                                             const TfLiteNode* node, int index) {
  41:C:\Users\a5116938\Desktop\e2_studio_workspace\EEMBC_final\RX65N_Cloud_Kit\src/tensorflow/lite/micro/kernels\kernel_util.h ****   return GetMutableEvalInput(context, node, index);
  42:C:\Users\a5116938\Desktop\e2_studio_workspace\EEMBC_final\RX65N_Cloud_Kit\src/tensorflow/lite/micro/kernels\kernel_util.h **** }
  43:C:\Users\a5116938\Desktop\e2_studio_workspace\EEMBC_final\RX65N_Cloud_Kit\src/tensorflow/lite/micro/kernels\kernel_util.h **** 
  44:C:\Users\a5116938\Desktop\e2_studio_workspace\EEMBC_final\RX65N_Cloud_Kit\src/tensorflow/lite/micro/kernels\kernel_util.h **** // Returns the TfLiteEvalTensor struct for a given output index in a node.
  45:C:\Users\a5116938\Desktop\e2_studio_workspace\EEMBC_final\RX65N_Cloud_Kit\src/tensorflow/lite/micro/kernels\kernel_util.h **** inline TfLiteEvalTensor* GetEvalOutput(const TfLiteContext* context,
  46:C:\Users\a5116938\Desktop\e2_studio_workspace\EEMBC_final\RX65N_Cloud_Kit\src/tensorflow/lite/micro/kernels\kernel_util.h ****                                        const TfLiteNode* node, int index) {
  47:C:\Users\a5116938\Desktop\e2_studio_workspace\EEMBC_final\RX65N_Cloud_Kit\src/tensorflow/lite/micro/kernels\kernel_util.h ****   TFLITE_DCHECK(context != nullptr);
 127                             		.loc 3 47 3 is_stmt 1
 128 000c 61 01                   		cmp	#0, r1
 129 000e 3A 43 01                		beq	.L12
 130 0011 EF 28                   		mov.L	r2, r8
 131 0013 EF 3A                   		mov.L	r3, r10
 132 0015 EF 1D                   		mov.L	r1, r13
  48:C:\Users\a5116938\Desktop\e2_studio_workspace\EEMBC_final\RX65N_Cloud_Kit\src/tensorflow/lite/micro/kernels\kernel_util.h ****   TFLITE_DCHECK(node != nullptr);
 133                             		.loc 3 48 3
  49:C:\Users\a5116938\Desktop\e2_studio_workspace\EEMBC_final\RX65N_Cloud_Kit\src/tensorflow/lite/micro/kernels\kernel_util.h ****   return context->GetEvalTensor(context, node->outputs->data[index]);
 134                             		.loc 3 49 3
 135                             		.loc 3 49 32 is_stmt 0
 136 0017 AD 1D                   		mov.L	84[r1], r5
 137 0019 A8 7A                   		mov.L	4[r7], r2
 138                             	.LVL13:
 139 001b A1 04                   		mov.L	r4, 16[r0]
 140 001d 7F 15                   		jsr	r5
 141                             	.LVL14:
 142                             	.LBE99:
 143                             	.LBE98:
  34:../src/tensorflow/lite/micro/kernels/split.cc **** 
 144                             		.loc 1 34 25
 145 001f A8 1D                   		mov.L	4[r1], r5
 146                             	.LVL15:
  36:../src/tensorflow/lite/micro/kernels/split.cc ****   int axis = axis_value < 0 ? axis_value + split_dimensions : axis_value;
 147                             		.loc 1 36 44
 148 0021 EC C2                   		mov.L	[r12], r2
 149                             	.LVL16:
  37:../src/tensorflow/lite/micro/kernels/split.cc **** 
 150                             		.loc 1 37 7
 151 0023 ED 0E 04                		mov.L	16[r0], r14
 152 0026 61 0E                   		cmp	#0, r14
 153 0028 28 04                   		bge	.L11
  37:../src/tensorflow/lite/micro/kernels/split.cc **** 
 154                             		.loc 1 37 7 discriminator 1
 155 002a 4B 2E                   		add	r2, r14
 156                             		.balign 8,3,1
 157                             	.L11:
 158                             	.LVL17:
  39:../src/tensorflow/lite/micro/kernels/split.cc ****   TFLITE_DCHECK_EQ(output_dims->size, split_dimensions);
 159                             		.loc 1 39 3 discriminator 4
 160 002c 47 E2                   		cmp	r14, r2
 161 002e 2A 05 38 21 01          		ble	.L12
  40:../src/tensorflow/lite/micro/kernels/split.cc **** 
 162                             		.loc 1 40 3
 163 0033 06 84 52                		cmp	[r5].L, r2
 164 0036 3B 1B 01                		bne	.L12
 165 0039 FD C2 E7                		shll	#2, r14, r7
  44:../src/tensorflow/lite/micro/kernels/split.cc ****   int64_t outer_size = 1;
 166                             		.loc 1 44 3
 167 003c 71 EF 01                		add	#1, r14, r15
 168 003f FF 2B 75                		add	r7, r5, r11
 169                             	.LVL18:
 170 0042 FE 6F C5                		mov.L	[r15,r12], r5
 171                             	.LVL19:
  42:../src/tensorflow/lite/micro/kernels/split.cc **** 
 172                             		.loc 1 42 48
 173 0045 ED B7 01                		mov.L	4[r11], r7
 174 0048 4F 67                   		mul	r6, r7
  44:../src/tensorflow/lite/micro/kernels/split.cc ****   int64_t outer_size = 1;
 175                             		.loc 1 44 3
 176 004a 47 57                   		cmp	r5, r7
 177 004c 3B 05 01                		bne	.L12
 178                             	.LVL20:
 179 004f EF F7                   		mov.L	r15, r7
 180 0051 EC A9                   		mov.L	[r10], r9
  45:../src/tensorflow/lite/micro/kernels/split.cc ****   for (int i = 0; i < axis; ++i) {
 181                             		.loc 1 45 11
 182 0053 3E 01 01                		mov.L	#1, 4[r0]
 183                             	.LBB101:
  46:../src/tensorflow/lite/micro/kernels/split.cc ****     outer_size *= input_dims->data[i];
 184                             		.loc 1 46 21
 185 0056 61 0E                   		cmp	#0, r14
 186 0058 2A 05 38 D9 00          		ble	.L13
  46:../src/tensorflow/lite/micro/kernels/split.cc ****     outer_size *= input_dims->data[i];
 187                             		.loc 1 46 12
 188 005d 66 0A                   		mov.L	#0, r10
 189                             	.LVL21:
 190                             	.LBE101:
  45:../src/tensorflow/lite/micro/kernels/split.cc ****   for (int i = 0; i < axis; ++i) {
 191                             		.loc 1 45 11
 192 005f 3E 02 00                		mov.L	#0, 8[r0]
 193                             	.LBB102:
  47:../src/tensorflow/lite/micro/kernels/split.cc ****   }
 194                             		.loc 1 47 16
 195 0062 71 C1 04                		add	#4, r12, r1
 196                             	.LVL22:
 197 0065 E3 02                   		mov.L	r2, [r0]
 198 0067 A8 0C                   		mov.L	4[r0], r4
 199 0069 66 05                   		mov.L	#0, r5
 200 006b E7 0C 03                		mov.L	r12, 12[r0]
 201                             	.LVL23:
 202 006e EF 00                   		.balign 8,3,3
 203                             	.L14:
  47:../src/tensorflow/lite/micro/kernels/split.cc ****   }
 204                             		.loc 1 47 16 discriminator 2
 205 0070 FE 6A 1C                		mov.L	[r10,r1], r12
  46:../src/tensorflow/lite/micro/kernels/split.cc ****     outer_size *= input_dims->data[i];
 206                             		.loc 1 46 3 discriminator 2
 207 0073 62 1A                   		add	#1, r10
  47:../src/tensorflow/lite/micro/kernels/split.cc ****   }
 208                             		.loc 1 47 16 discriminator 2
 209 0075 FD BF C2                		shar	#31, r12, r2
  47:../src/tensorflow/lite/micro/kernels/split.cc ****   }
 210                             		.loc 1 47 5 discriminator 2
 211 0078 FF 33 C5                		mul	r12, r5, r3
 212 007b 4F 42                   		mul	r4, r2
 213 007d FC 1F C4                		emulu	r12, r4
 214                             	.LVL24:
 215 0080 4B 23                   		add	r2, r3
 216 0082 4B 35                   		add	r3, r5
 217                             	.LVL25:
  46:../src/tensorflow/lite/micro/kernels/split.cc ****     outer_size *= input_dims->data[i];
 218                             		.loc 1 46 21 discriminator 2
 219 0084 47 AE                   		cmp	r10, r14
 220 0086 21 EA                   		bne	.L14
 221 0088 EC 02                   		mov.L	[r0], r2
 222 008a A0 0C                   		mov.L	r4, 4[r0]
 223 008c A0 85                   		mov.L	r5, 8[r0]
 224 008e ED 0C 03                		mov.L	12[r0], r12
 225                             	.LVL26:
 226                             	.LBE102:
 227                             	.LBB103:
  51:../src/tensorflow/lite/micro/kernels/split.cc ****     base_inner_size *= input_dims->data[i];
 228                             		.loc 1 51 28
 229 0091 47 F2                   		cmp	r15, r2
 230 0093 2A 05 38 AC 00          		ble	.L29
 231                             	.LVL27:
 232                             		.balign 8,3,1
 233                             	.L28:
 234                             	.LBE103:
  45:../src/tensorflow/lite/micro/kernels/split.cc ****   for (int i = 0; i < axis; ++i) {
 235                             		.loc 1 45 11 discriminator 2
 236 0098 66 14                   		mov.L	#1, r4
 237 009a 66 05                   		mov.L	#0, r5
 238                             	.LBB104:
  52:../src/tensorflow/lite/micro/kernels/split.cc ****   }
 239                             		.loc 1 52 21 discriminator 2
 240 009c 62 4C                   		add	#4, r12
 241                             	.LVL28:
 242 009e EF 00                   		.balign 8,3,3
 243                             	.L16:
 244 00a0 FE 67 C1                		mov.L	[r7,r12], r1
  51:../src/tensorflow/lite/micro/kernels/split.cc ****     base_inner_size *= input_dims->data[i];
 245                             		.loc 1 51 3 discriminator 2
 246 00a3 62 17                   		add	#1, r7
 247                             	.LVL29:
  52:../src/tensorflow/lite/micro/kernels/split.cc ****   }
 248                             		.loc 1 52 21 discriminator 2
 249 00a5 FD BF 13                		shar	#31, r1, r3
  52:../src/tensorflow/lite/micro/kernels/split.cc ****   }
 250                             		.loc 1 52 5 discriminator 2
 251 00a8 FF 3A 15                		mul	r1, r5, r10
 252 00ab 4F 43                   		mul	r4, r3
 253 00ad FC 1F 14                		emulu	r1, r4
 254                             	.LVL30:
 255 00b0 4B 3A                   		add	r3, r10
 256 00b2 4B A5                   		add	r10, r5
 257                             	.LVL31:
  51:../src/tensorflow/lite/micro/kernels/split.cc ****     base_inner_size *= input_dims->data[i];
 258                             		.loc 1 51 28 discriminator 2
 259 00b4 47 72                   		cmp	r7, r2
 260 00b6 2A EA                   		bgt	.L16
 261                             	.LVL32:
 262                             		.balign 8,3,1
 263                             	.L15:
 264                             	.LBE104:
 265                             	.LBB105:
  56:../src/tensorflow/lite/micro/kernels/split.cc ****     for (int i = 0; i < output_count; ++i) {
 266                             		.loc 1 56 21
 267 00b8 A8 82                   		mov.L	8[r0], r2
 268 00ba 61 02                   		cmp	#0, r2
 269 00bc 2A 05 38 88 00          		ble	.L40
 270                             	.LVL33:
 271                             		.balign 8,3,1
 272                             	.L17:
 273 00c1 61 06                   		cmp	#0, r6
 274 00c3 2B 6B                   		ble	.L33
 275                             	.LBE105:
  50:../src/tensorflow/lite/micro/kernels/split.cc ****   for (int i = axis + 1; i < split_dimensions; ++i) {
 276                             		.loc 1 50 11
 277 00c5 66 0A                   		mov.L	#0, r10
 278 00c7 F8 06 00                		mov.L	#0, [r0]
 279 00ca EF 47                   		mov.L	r4, r7
 280 00cc EF 8C                   		mov.L	r8, r12
 281 00ce EF B8                   		mov.L	r11, r8
 282                             	.LVL34:
 283                             		.balign 8,3,1
 284                             	.L24:
 285                             	.LBB114:
 286                             	.LBB106:
  57:../src/tensorflow/lite/micro/kernels/split.cc ****       TfLiteEvalTensor* t = tflite::micro::GetEvalOutput(context, node, i);
 287                             		.loc 1 57 14
 288 00d0 66 0B                   		mov.L	#0, r11
 289                             	.LVL35:
 290                             		.balign 8,3,1
 291                             	.L22:
 292                             	.LBB107:
 293                             	.LBB108:
 294                             	.LBB109:
  47:C:\Users\a5116938\Desktop\e2_studio_workspace\EEMBC_final\RX65N_Cloud_Kit\src/tensorflow/lite/micro/kernels\kernel_util.h ****   TFLITE_DCHECK(node != nullptr);
 295                             		.loc 3 47 3 is_stmt 1
  48:C:\Users\a5116938\Desktop\e2_studio_workspace\EEMBC_final\RX65N_Cloud_Kit\src/tensorflow/lite/micro/kernels\kernel_util.h ****   return context->GetEvalTensor(context, node->outputs->data[index]);
 296                             		.loc 3 48 3
 297                             		.loc 3 49 3
 298                             		.loc 3 49 32 is_stmt 0
 299 00d2 ED C4 01                		mov.L	4[r12], r4
 300 00d5 71 B3 01                		add	#1, r11, r3
 301 00d8 ED D5 15                		mov.L	84[r13], r5
 302 00db EF D1                   		mov.L	r13, r1
 303 00dd FE 63 42                		mov.L	[r3,r4], r2
 304 00e0 7F 15                   		jsr	r5
 305                             	.LVL36:
 306                             	.LBE109:
 307                             	.LBE108:
 308                             	.LBB110:
 309                             	.LBB111:
  50:C:\Users\a5116938\Desktop\e2_studio_workspace\EEMBC_final\RX65N_Cloud_Kit\src/tensorflow/lite/micro/kernels\kernel_util.h **** }
  51:C:\Users\a5116938\Desktop\e2_studio_workspace\EEMBC_final\RX65N_Cloud_Kit\src/tensorflow/lite/micro/kernels\kernel_util.h **** 
  52:C:\Users\a5116938\Desktop\e2_studio_workspace\EEMBC_final\RX65N_Cloud_Kit\src/tensorflow/lite/micro/kernels\kernel_util.h **** // Returns data for a TfLiteEvalTensor struct.
  53:C:\Users\a5116938\Desktop\e2_studio_workspace\EEMBC_final\RX65N_Cloud_Kit\src/tensorflow/lite/micro/kernels\kernel_util.h **** template <typename T>
  54:C:\Users\a5116938\Desktop\e2_studio_workspace\EEMBC_final\RX65N_Cloud_Kit\src/tensorflow/lite/micro/kernels\kernel_util.h **** T* GetTensorData(TfLiteEvalTensor* tensor) {
  55:C:\Users\a5116938\Desktop\e2_studio_workspace\EEMBC_final\RX65N_Cloud_Kit\src/tensorflow/lite/micro/kernels\kernel_util.h ****   return tensor != nullptr ? reinterpret_cast<T*>(tensor->data.raw) : nullptr;
 310                             		.loc 3 55 28
 311 00e2 61 01                   		cmp	#0, r1
 312 00e4 14                      		beq	.L20
 313 00e5 EC 11                   		mov.L	[r1], r1
 314                             	.LVL37:
 315 00e7 03                      		.balign 8,3,1
 316                             	.L20:
 317                             	.LBE111:
 318                             	.LBE110:
  60:../src/tensorflow/lite/micro/kernels/split.cc ****       T* output_ptr = output_data + k * copy_size;
 319                             		.loc 1 60 17
 320 00e8 ED 83 01                		mov.L	4[r8], r3
 321 00eb 4F 73                   		mul	r7, r3
 322                             	.LVL38:
  61:../src/tensorflow/lite/micro/kernels/split.cc ****       for (int j = 0; j < copy_size; ++j) output_ptr[j] = input_ptr[j];
 323                             		.loc 1 61 39
 324 00ed FF 35 A3                		mul	r10, r3, r5
 325                             	.LVL39:
 326                             	.LBB112:
  62:../src/tensorflow/lite/micro/kernels/split.cc ****       input_ptr += copy_size;
 327                             		.loc 1 62 25
 328 00f0 61 03                   		cmp	#0, r3
 329 00f2 2B 18                   		ble	.L25
 330 00f4 FD C2 52                		shll	#2, r5, r2
 331                             	.LVL40:
 332 00f7 FD C2 34                		shll	#2, r3, r4
 333 00fa EF 95                   		mov.L	r9, r5
 334 00fc 4B 21                   		add	r2, r1
 335                             	.LVL41:
 336 00fe 4B 94                   		add	r9, r4
 337                             	.LVL42:
 338                             		.balign 8,3,3
 339                             	.L26:
  62:../src/tensorflow/lite/micro/kernels/split.cc ****       input_ptr += copy_size;
 340                             		.loc 1 62 43 discriminator 2
 341 0100 FD 2A 52                		mov.L	[r5+], r2
 342 0103 FD 22 12                		mov.L	r2, [r1+]
  62:../src/tensorflow/lite/micro/kernels/split.cc ****       input_ptr += copy_size;
 343                             		.loc 1 62 25 discriminator 2
 344 0106 47 54                   		cmp	r5, r4
 345 0108 21 F8                   		bne	.L26
 346                             		.balign 8,3,1
 347                             	.L25:
 348                             	.LBE112:
  63:../src/tensorflow/lite/micro/kernels/split.cc ****     }
 349                             		.loc 1 63 17
 350 010a 6C 23                   		shll	#2, r3
 351                             	.LVL43:
 352                             	.LBE107:
  57:../src/tensorflow/lite/micro/kernels/split.cc ****       TfLiteEvalTensor* t = tflite::micro::GetEvalOutput(context, node, i);
 353                             		.loc 1 57 5
 354 010c 62 1B                   		add	#1, r11
 355                             	.LVL44:
 356                             	.LBB113:
  63:../src/tensorflow/lite/micro/kernels/split.cc ****     }
 357                             		.loc 1 63 7
 358 010e 4B 39                   		add	r3, r9
 359                             	.LVL45:
 360                             	.LBE113:
  57:../src/tensorflow/lite/micro/kernels/split.cc ****       TfLiteEvalTensor* t = tflite::micro::GetEvalOutput(context, node, i);
 361                             		.loc 1 57 23
 362 0110 47 B6                   		cmp	r11, r6
 363 0112 21 C0                   		bne	.L22
 364                             	.LVL46:
 365 0114 EC 05                   		mov.L	[r0], r5
 366 0116 71 A4 01                		add	#1, r10, r4
 367                             	.LVL47:
 368 0119 FD 74 25 00             		adc	#0, r5
 369 011d E3 05                   		mov.L	r5, [r0]
 370 011f EF 4A                   		mov.L	r4, r10
 371                             	.LBE106:
  56:../src/tensorflow/lite/micro/kernels/split.cc ****     for (int i = 0; i < output_count; ++i) {
 372                             		.loc 1 56 21
 373 0121 A8 83                   		mov.L	8[r0], r3
 374 0123 47 53                   		cmp	r5, r3
 375 0125 2A AB                   		bgt	.L24
 376 0127 1F                      		bne	.L33
 377 0128 A8 0C                   		mov.L	4[r0], r4
 378                             	.LVL48:
 379 012a 47 A4                   		cmp	r10, r4
 380 012c 24 A4                   		bgtu	.L24
 381                             	.LVL49:
 382                             		.balign 8,3,1
 383                             	.L33:
 384                             	.LBE114:
  68:../src/tensorflow/lite/micro/kernels/split.cc **** 
 385                             		.loc 1 68 1
 386 012e 66 01                   		mov.L	#0, r1
 387 0130 3F 6D 0D                		rtsd	#52, r6-r13
 388                             	.LVL50:
 389                             	.L13:
  45:../src/tensorflow/lite/micro/kernels/split.cc ****   for (int i = 0; i < axis; ++i) {
 390                             		.loc 1 45 11
 391 0133 3E 02 00                		mov.L	#0, 8[r0]
 392                             	.LBB115:
  51:../src/tensorflow/lite/micro/kernels/split.cc ****     base_inner_size *= input_dims->data[i];
 393                             		.loc 1 51 28
 394 0136 47 F2                   		cmp	r15, r2
 395 0138 2B 05 38 5E FF          		bgt	.L28
 396                             	.LBE115:
  50:../src/tensorflow/lite/micro/kernels/split.cc ****   for (int i = axis + 1; i < split_dimensions; ++i) {
 397                             		.loc 1 50 11
 398 013d 66 14                   		mov.L	#1, r4
 399 013f 2E 82                   		bra	.L17
 400                             	.LVL51:
 401                             	.L29:
 402 0141 66 14                   		mov.L	#1, r4
 403                             	.LVL52:
 404 0143 38 75 FF                		bra	.L15
 405                             	.LVL53:
 406                             	.L40:
 407                             	.LBB116:
  56:../src/tensorflow/lite/micro/kernels/split.cc ****     for (int i = 0; i < output_count; ++i) {
 408                             		.loc 1 56 21
 409 0146 21 E8                   		bne	.L33
 410 0148 A8 0B                   		mov.L	4[r0], r3
 411 014a 61 03                   		cmp	#0, r3
 412 014c 3B 75 FF                		bne	.L17
 413 014f 2E DF                   		bra	.L33
 414                             	.LVL54:
 415                             	.L12:
 416                             	.LBE116:
 417                             	.LBB117:
 418                             	.LBB100:
  47:C:\Users\a5116938\Desktop\e2_studio_workspace\EEMBC_final\RX65N_Cloud_Kit\src/tensorflow/lite/micro/kernels\kernel_util.h ****   TFLITE_DCHECK(node != nullptr);
 419                             		.loc 3 47 3
 420 0151 05 00 00 00             		bsr	_abort
 421                             	.LVL55:
 422                             	.LBE100:
 423                             	.LBE117:
 424                             	.LFE987:
 426 0155 FC 13 00                		.section	.text._ZN6tflite3ops5micro5split9SplitImplIhEE12TfLiteStatusP13TfLiteContextP10TfLiteNode
 427                             		.weak	__ZN6tflite3ops5micro5split9SplitImplIhEE12TfLiteStatusP13TfLiteContextP10TfLiteNodePK16TfLi
 429                             	__ZN6tflite3ops5micro5split9SplitImplIhEE12TfLiteStatusP13TfLiteContextP10TfLiteNodePK16TfLiteEvalT
 430                             	.LFB988:
  28:../src/tensorflow/lite/micro/kernels/split.cc ****                        const TfLiteEvalTensor* input, int axis_value) {
 431                             		.loc 1 28 14 is_stmt 1
 432                             	.LVL56:
 433 0000 6E 6D                   		pushm	r6-r13
 434                             	.LCFI4:
 435 0002 71 00 EC                		add	#-20, r0
 436                             	.LCFI5:
  30:../src/tensorflow/lite/micro/kernels/split.cc ****   const TfLiteIntArray* input_dims = input->dims;
 437                             		.loc 1 30 38 is_stmt 0
 438 0005 A8 2F                   		mov.L	4[r2], r7
 439                             	.LVL57:
 440                             	.LBB134:
 441                             	.LBB135:
 153:C:\Users\a5116938\Desktop\e2_studio_workspace\EEMBC_final\RX65N_Cloud_Kit\src/tensorflow/lite/kernels\kernel_util.h **** 
 442                             		.loc 2 153 49 is_stmt 1
 443                             	.LBE135:
 444                             	.LBE134:
  31:../src/tensorflow/lite/micro/kernels/split.cc ****   const TfLiteEvalTensor* output0 =
 445                             		.loc 1 31 25 is_stmt 0
 446 0007 ED 3E 01                		mov.L	4[r3], r14
 447                             	.LBB137:
 448                             	.LBB136:
 153:C:\Users\a5116938\Desktop\e2_studio_workspace\EEMBC_final\RX65N_Cloud_Kit\src/tensorflow/lite/kernels\kernel_util.h **** 
 449                             		.loc 2 153 71
 450 000a EC 7B                   		mov.L	[r7], r11
 451                             	.LVL58:
 452                             	.LBE136:
 453                             	.LBE137:
 454                             	.LBB138:
 455                             	.LBB139:
  47:C:\Users\a5116938\Desktop\e2_studio_workspace\EEMBC_final\RX65N_Cloud_Kit\src/tensorflow/lite/micro/kernels\kernel_util.h ****   TFLITE_DCHECK(node != nullptr);
 456                             		.loc 3 47 3 is_stmt 1
 457 000c 61 01                   		cmp	#0, r1
 458 000e 3A AF 01                		beq	.L44
 459 0011 EF 29                   		mov.L	r2, r9
 460 0013 EF 3C                   		mov.L	r3, r12
 461 0015 EF 18                   		mov.L	r1, r8
 462 0017 EF 46                   		mov.L	r4, r6
  48:C:\Users\a5116938\Desktop\e2_studio_workspace\EEMBC_final\RX65N_Cloud_Kit\src/tensorflow/lite/micro/kernels\kernel_util.h ****   return context->GetEvalTensor(context, node->outputs->data[index]);
 463                             		.loc 3 48 3
  49:C:\Users\a5116938\Desktop\e2_studio_workspace\EEMBC_final\RX65N_Cloud_Kit\src/tensorflow/lite/micro/kernels\kernel_util.h **** }
 464                             		.loc 3 49 3
  49:C:\Users\a5116938\Desktop\e2_studio_workspace\EEMBC_final\RX65N_Cloud_Kit\src/tensorflow/lite/micro/kernels\kernel_util.h **** }
 465                             		.loc 3 49 32 is_stmt 0
 466 0019 ED 1A 15                		mov.L	84[r1], r10
 467 001c A8 7A                   		mov.L	4[r7], r2
 468                             	.LVL59:
 469 001e E7 0E 04                		mov.L	r14, 16[r0]
 470 0021 7F 1A                   		jsr	r10
 471                             	.LVL60:
 472                             	.LBE139:
 473                             	.LBE138:
  34:../src/tensorflow/lite/micro/kernels/split.cc **** 
 474                             		.loc 1 34 25
 475 0023 ED 1D 01                		mov.L	4[r1], r13
 476                             	.LVL61:
  36:../src/tensorflow/lite/micro/kernels/split.cc ****   int axis = axis_value < 0 ? axis_value + split_dimensions : axis_value;
 477                             		.loc 1 36 44
 478 0026 ED 0E 04                		mov.L	16[r0], r14
 479 0029 EC E1                   		mov.L	[r14], r1
 480                             	.LVL62:
  37:../src/tensorflow/lite/micro/kernels/split.cc **** 
 481                             		.loc 1 37 7
 482 002b 61 06                   		cmp	#0, r6
 483 002d 28 04                   		bge	.L43
  37:../src/tensorflow/lite/micro/kernels/split.cc **** 
 484                             		.loc 1 37 7 discriminator 1
 485 002f 4B 16                   		add	r1, r6
 486                             	.LVL63:
 487                             		.balign 8,3,1
 488                             	.L43:
  39:../src/tensorflow/lite/micro/kernels/split.cc ****   TFLITE_DCHECK_EQ(output_dims->size, split_dimensions);
 489                             		.loc 1 39 3 discriminator 4
 490 0031 47 61                   		cmp	r6, r1
 491 0033 2A 05 38 88 01          		ble	.L44
  40:../src/tensorflow/lite/micro/kernels/split.cc **** 
 492                             		.loc 1 40 3
 493 0038 06 84 D1                		cmp	[r13].L, r1
 494 003b 3B 82 01                		bne	.L44
 495 003e FD C2 67                		shll	#2, r6, r7
  44:../src/tensorflow/lite/micro/kernels/split.cc ****   int64_t outer_size = 1;
 496                             		.loc 1 44 3
 497 0041 71 6F 01                		add	#1, r6, r15
 498 0044 4B 7D                   		add	r7, r13
 499                             	.LVL64:
 500 0046 FE 6F EA                		mov.L	[r15,r14], r10
  42:../src/tensorflow/lite/micro/kernels/split.cc **** 
 501                             		.loc 1 42 48
 502 0049 ED D7 01                		mov.L	4[r13], r7
 503 004c 4F B7                   		mul	r11, r7
  44:../src/tensorflow/lite/micro/kernels/split.cc ****   int64_t outer_size = 1;
 504                             		.loc 1 44 3
 505 004e 47 A7                   		cmp	r10, r7
 506 0050 3B 6D 01                		bne	.L44
 507                             	.LVL65:
 508 0053 EF FA                   		mov.L	r15, r10
 509 0055 EC C7                   		mov.L	[r12], r7
  45:../src/tensorflow/lite/micro/kernels/split.cc ****   for (int i = 0; i < axis; ++i) {
 510                             		.loc 1 45 11
 511 0057 3E 01 01                		mov.L	#1, 4[r0]
 512                             	.LBB141:
  46:../src/tensorflow/lite/micro/kernels/split.cc ****     outer_size *= input_dims->data[i];
 513                             		.loc 1 46 21
 514 005a 61 06                   		cmp	#0, r6
 515 005c 2A 05 38 40 01          		ble	.L45
  46:../src/tensorflow/lite/micro/kernels/split.cc ****     outer_size *= input_dims->data[i];
 516                             		.loc 1 46 12
 517 0061 66 05                   		mov.L	#0, r5
 518                             	.LBE141:
  45:../src/tensorflow/lite/micro/kernels/split.cc ****   for (int i = 0; i < axis; ++i) {
 519                             		.loc 1 45 11
 520 0063 3E 02 00                		mov.L	#0, 8[r0]
 521                             	.LBB142:
  47:../src/tensorflow/lite/micro/kernels/split.cc ****   }
 522                             		.loc 1 47 16
 523 0066 71 EC 04                		add	#4, r14, r12
 524                             	.LVL66:
 525 0069 E3 01                   		mov.L	r1, [r0]
 526 006b E7 0E 03                		mov.L	r14, 12[r0]
 527 006e EF 53                   		mov.L	r5, r3
 528 0070 A8 0C                   		mov.L	4[r0], r4
 529                             	.LVL67:
 530                             		.balign 8,3,3
 531                             	.L46:
  47:../src/tensorflow/lite/micro/kernels/split.cc ****   }
 532                             		.loc 1 47 16 discriminator 2
 533 0072 FE 63 CE                		mov.L	[r3,r12], r14
  46:../src/tensorflow/lite/micro/kernels/split.cc ****     outer_size *= input_dims->data[i];
 534                             		.loc 1 46 3 discriminator 2
 535 0075 62 13                   		add	#1, r3
  47:../src/tensorflow/lite/micro/kernels/split.cc ****   }
 536                             		.loc 1 47 16 discriminator 2
 537 0077 FD BF E1                		shar	#31, r14, r1
  47:../src/tensorflow/lite/micro/kernels/split.cc ****   }
 538                             		.loc 1 47 5 discriminator 2
 539 007a FF 32 E5                		mul	r14, r5, r2
 540 007d 4F 41                   		mul	r4, r1
 541 007f FC 1F E4                		emulu	r14, r4
 542                             	.LVL68:
 543 0082 4B 12                   		add	r1, r2
 544 0084 4B 25                   		add	r2, r5
 545                             	.LVL69:
  46:../src/tensorflow/lite/micro/kernels/split.cc ****     outer_size *= input_dims->data[i];
 546                             		.loc 1 46 21 discriminator 2
 547 0086 47 36                   		cmp	r3, r6
 548 0088 21 EA                   		bne	.L46
 549 008a EC 01                   		mov.L	[r0], r1
 550 008c A0 0C                   		mov.L	r4, 4[r0]
 551 008e A0 85                   		mov.L	r5, 8[r0]
 552 0090 ED 0E 03                		mov.L	12[r0], r14
 553                             	.LVL70:
 554                             	.LBE142:
 555                             	.LBB143:
  51:../src/tensorflow/lite/micro/kernels/split.cc ****     base_inner_size *= input_dims->data[i];
 556                             		.loc 1 51 28
 557 0093 47 F1                   		cmp	r15, r1
 558 0095 2A 05 38 16 01          		ble	.L66
 559                             	.LVL71:
 560                             		.balign 8,3,1
 561                             	.L65:
 562                             	.LBE143:
  45:../src/tensorflow/lite/micro/kernels/split.cc ****   for (int i = 0; i < axis; ++i) {
 563                             		.loc 1 45 11 discriminator 2
 564 009a 66 14                   		mov.L	#1, r4
 565 009c 66 05                   		mov.L	#0, r5
 566                             	.LBB144:
  52:../src/tensorflow/lite/micro/kernels/split.cc ****   }
 567                             		.loc 1 52 21 discriminator 2
 568 009e 62 4E                   		add	#4, r14
 569                             	.LVL72:
 570                             		.balign 8,3,3
 571                             	.L48:
 572 00a0 FE 6A E6                		mov.L	[r10,r14], r6
  51:../src/tensorflow/lite/micro/kernels/split.cc ****     base_inner_size *= input_dims->data[i];
 573                             		.loc 1 51 3 discriminator 2
 574 00a3 62 1A                   		add	#1, r10
 575                             	.LVL73:
  52:../src/tensorflow/lite/micro/kernels/split.cc ****   }
 576                             		.loc 1 52 21 discriminator 2
 577 00a5 FD BF 62                		shar	#31, r6, r2
  52:../src/tensorflow/lite/micro/kernels/split.cc ****   }
 578                             		.loc 1 52 5 discriminator 2
 579 00a8 FF 33 65                		mul	r6, r5, r3
 580 00ab 4F 42                   		mul	r4, r2
 581 00ad FC 1F 64                		emulu	r6, r4
 582                             	.LVL74:
 583 00b0 4B 23                   		add	r2, r3
 584 00b2 4B 35                   		add	r3, r5
 585                             	.LVL75:
  51:../src/tensorflow/lite/micro/kernels/split.cc ****     base_inner_size *= input_dims->data[i];
 586                             		.loc 1 51 28 discriminator 2
 587 00b4 47 A1                   		cmp	r10, r1
 588 00b6 2A EA                   		bgt	.L48
 589                             	.LVL76:
 590                             		.balign 8,3,1
 591                             	.L47:
 592                             	.LBE144:
 593                             	.LBB145:
  56:../src/tensorflow/lite/micro/kernels/split.cc ****     for (int i = 0; i < output_count; ++i) {
 594                             		.loc 1 56 21
 595 00b8 A8 81                   		mov.L	8[r0], r1
 596 00ba 61 01                   		cmp	#0, r1
 597 00bc 2A 05 38 F4 00          		ble	.L83
 598                             	.LVL77:
 599                             		.balign 8,3,1
 600                             	.L49:
 601 00c1 61 0B                   		cmp	#0, r11
 602 00c3 2A 05 38 C3 00          		ble	.L72
 603                             	.LBE145:
  50:../src/tensorflow/lite/micro/kernels/split.cc ****   for (int i = axis + 1; i < split_dimensions; ++i) {
 604                             		.loc 1 50 11
 605 00c8 66 06                   		mov.L	#0, r6
 606 00ca F8 06 00                		mov.L	#0, [r0]
 607 00cd EF 4A                   		mov.L	r4, r10
 608                             	.LVL78:
 609 00cf 03                      		.balign 8,3,1
 610                             	.L56:
 611                             	.LBB157:
 612                             	.LBB146:
  57:../src/tensorflow/lite/micro/kernels/split.cc ****       TfLiteEvalTensor* t = tflite::micro::GetEvalOutput(context, node, i);
 613                             		.loc 1 57 14
 614 00d0 66 0C                   		mov.L	#0, r12
 615                             	.LVL79:
 616                             		.balign 8,3,1
 617                             	.L54:
 618                             	.LBB147:
 619                             	.LBB148:
 620                             	.LBB149:
  47:C:\Users\a5116938\Desktop\e2_studio_workspace\EEMBC_final\RX65N_Cloud_Kit\src/tensorflow/lite/micro/kernels\kernel_util.h ****   TFLITE_DCHECK(node != nullptr);
 621                             		.loc 3 47 3 is_stmt 1
  48:C:\Users\a5116938\Desktop\e2_studio_workspace\EEMBC_final\RX65N_Cloud_Kit\src/tensorflow/lite/micro/kernels\kernel_util.h ****   return context->GetEvalTensor(context, node->outputs->data[index]);
 622                             		.loc 3 48 3
  49:C:\Users\a5116938\Desktop\e2_studio_workspace\EEMBC_final\RX65N_Cloud_Kit\src/tensorflow/lite/micro/kernels\kernel_util.h **** }
 623                             		.loc 3 49 3
  49:C:\Users\a5116938\Desktop\e2_studio_workspace\EEMBC_final\RX65N_Cloud_Kit\src/tensorflow/lite/micro/kernels\kernel_util.h **** }
 624                             		.loc 3 49 32 is_stmt 0
 625 00d2 ED 94 01                		mov.L	4[r9], r4
 626 00d5 71 C3 01                		add	#1, r12, r3
 627 00d8 ED 85 15                		mov.L	84[r8], r5
 628 00db EF 81                   		mov.L	r8, r1
 629 00dd FE 63 42                		mov.L	[r3,r4], r2
 630 00e0 7F 15                   		jsr	r5
 631                             	.LVL80:
 632                             	.LBE149:
 633                             	.LBE148:
 634                             	.LBB150:
 635                             	.LBB151:
 636                             		.loc 3 55 28
 637 00e2 61 01                   		cmp	#0, r1
 638 00e4 14                      		beq	.L52
 639 00e5 EC 11                   		mov.L	[r1], r1
 640                             	.LVL81:
 641 00e7 03                      		.balign 8,3,1
 642                             	.L52:
 643                             	.LBE151:
 644                             	.LBE150:
  60:../src/tensorflow/lite/micro/kernels/split.cc ****       T* output_ptr = output_data + k * copy_size;
 645                             		.loc 1 60 17
 646 00e8 ED D4 01                		mov.L	4[r13], r4
 647 00eb 4F A4                   		mul	r10, r4
 648                             	.LVL82:
  61:../src/tensorflow/lite/micro/kernels/split.cc ****       for (int j = 0; j < copy_size; ++j) output_ptr[j] = input_ptr[j];
 649                             		.loc 1 61 39
 650 00ed FF 3E 64                		mul	r6, r4, r14
 651                             	.LVL83:
 652                             	.LBB152:
  62:../src/tensorflow/lite/micro/kernels/split.cc ****       input_ptr += copy_size;
 653                             		.loc 1 62 25
 654 00f0 61 04                   		cmp	#0, r4
 655 00f2 2B 6A                   		ble	.L60
 656 00f4 71 E3 04                		add	#4, r14, r3
 657 00f7 FF 25 E1                		add	r14, r1, r5
 658                             	.LVL84:
 659 00fa 4B 13                   		add	r1, r3
 660 00fc 71 7F 04                		add	#4, r7, r15
 661 00ff 47 37                   		cmp	r3, r7
 662 0101 FC DB 32                		scgeu.L	r3
 663 0104 47 F5                   		cmp	r15, r5
 664 0106 FC DB F2                		scgeu.L	r15
 665 0109 71 42 FF                		add	#-1, r4, r2
 666 010c 57 F3                   		or	r15, r3
 667 010e 61 82                   		cmp	#8, r2
 668 0110 FC DB 24                		scgtu.L	r2
 669 0113 FC 33 32                		tst	r3, r2
 670 0116 20 77                   		beq	.L57
 671 0118 FF 53 75                		or	r7, r5, r3
 672 011b 64 33                   		and	#3, r3
 673 011d 21 70                   		bne	.L57
 674 011f FB 26 FC                		mov.L	#-4, r2
 675 0122 53 42                   		and	r4, r2
 676 0124 EF 73                   		mov.L	r7, r3
 677 0126 4B 52                   		add	r5, r2
 678                             	.LVL85:
 679                             		.balign 8,3,3
 680                             	.L59:
  62:../src/tensorflow/lite/micro/kernels/split.cc ****       input_ptr += copy_size;
 681                             		.loc 1 62 43 discriminator 2
 682 0128 FD 2A 3F                		mov.L	[r3+], r15
 683 012b FD 22 5F                		mov.L	r15, [r5+]
 684 012e 47 25                   		cmp	r2, r5
 685 0130 21 F8                   		bne	.L59
 686 0132 FB 56 FC                		mov.L	#-4, r5
 687 0135 53 45                   		and	r4, r5
 688 0137 47 54                   		cmp	r5, r4
 689 0139 20 23                   		beq	.L60
 690                             	.LVL86:
  62:../src/tensorflow/lite/micro/kernels/split.cc ****       input_ptr += copy_size;
 691                             		.loc 1 62 43
 692 013b 4B E1                   		add	r14, r1
 693                             	.LVL87:
  62:../src/tensorflow/lite/micro/kernels/split.cc ****       input_ptr += copy_size;
 694                             		.loc 1 62 7
 695 013d 71 53 01                		add	#1, r5, r3
 696                             	.LVL88:
  62:../src/tensorflow/lite/micro/kernels/split.cc ****       input_ptr += copy_size;
 697                             		.loc 1 62 43
 698 0140 FE 45 72                		mov.B	[r5,r7], r2
 699 0143 FE 05 12                		mov.B	r2, [r5,r1]
  62:../src/tensorflow/lite/micro/kernels/split.cc ****       input_ptr += copy_size;
 700                             		.loc 1 62 25
 701 0146 47 34                   		cmp	r3, r4
 702 0148 2B 14                   		ble	.L60
  62:../src/tensorflow/lite/micro/kernels/split.cc ****       input_ptr += copy_size;
 703                             		.loc 1 62 43
 704 014a FE 43 7F                		mov.B	[r3,r7], r15
 705 014d FE 03 1F                		mov.B	r15, [r3,r1]
  62:../src/tensorflow/lite/micro/kernels/split.cc ****       input_ptr += copy_size;
 706                             		.loc 1 62 7
 707 0150 62 25                   		add	#2, r5
 708                             	.LVL89:
  62:../src/tensorflow/lite/micro/kernels/split.cc ****       input_ptr += copy_size;
 709                             		.loc 1 62 25
 710 0152 47 54                   		cmp	r5, r4
 711 0154 2B 08                   		ble	.L60
  62:../src/tensorflow/lite/micro/kernels/split.cc ****       input_ptr += copy_size;
 712                             		.loc 1 62 43
 713 0156 FE 45 72                		mov.B	[r5,r7], r2
 714 0159 FE 05 12                		mov.B	r2, [r5,r1]
 715                             	.LVL90:
 716                             		.balign 8,3,1
 717                             	.L60:
 718                             	.LBE152:
 719                             	.LBE147:
  57:../src/tensorflow/lite/micro/kernels/split.cc ****       TfLiteEvalTensor* t = tflite::micro::GetEvalOutput(context, node, i);
 720                             		.loc 1 57 5
 721 015c 62 1C                   		add	#1, r12
 722                             	.LVL91:
 723                             	.LBB154:
  63:../src/tensorflow/lite/micro/kernels/split.cc ****     }
 724                             		.loc 1 63 7
 725 015e 4B 47                   		add	r4, r7
 726                             	.LVL92:
 727                             	.LBE154:
  57:../src/tensorflow/lite/micro/kernels/split.cc ****       TfLiteEvalTensor* t = tflite::micro::GetEvalOutput(context, node, i);
 728                             		.loc 1 57 23
 729 0160 47 CB                   		cmp	r12, r11
 730 0162 3B 70 FF                		bne	.L54
 731                             	.LVL93:
 732 0165 EC 04                   		mov.L	[r0], r4
 733                             	.LVL94:
 734 0167 71 63 01                		add	#1, r6, r3
 735                             	.LVL95:
 736 016a FD 74 24 00             		adc	#0, r4
 737 016e E3 04                   		mov.L	r4, [r0]
 738 0170 EF 36                   		mov.L	r3, r6
 739                             	.LBE146:
  56:../src/tensorflow/lite/micro/kernels/split.cc ****     for (int i = 0; i < output_count; ++i) {
 740                             		.loc 1 56 21
 741 0172 ED 0F 02                		mov.L	8[r0], r15
 742 0175 47 4F                   		cmp	r4, r15
 743 0177 2B 05 38 57 FF          		bgt	.L56
 744 017c 21 0C                   		bne	.L72
 745 017e A8 09                   		mov.L	4[r0], r1
 746 0180 47 31                   		cmp	r3, r1
 747 0182 25 05 38 4C FF          		bgtu	.L56
 748                             	.LVL96:
 749 0187 03                      		.balign 8,3,1
 750                             	.L72:
 751                             	.LBE157:
  68:../src/tensorflow/lite/micro/kernels/split.cc **** 
 752                             		.loc 1 68 1
 753 0188 66 01                   		mov.L	#0, r1
 754 018a 3F 6D 0D                		rtsd	#52, r6-r13
 755                             	.LVL97:
 756                             	.L57:
 757 018d EF 73                   		mov.L	r7, r3
 758 018f FF 22 74                		add	r7, r4, r2
 759                             	.LVL98:
 760                             		.balign 8,3,5
 761                             	.L63:
 762                             	.LBB158:
 763                             	.LBB156:
 764                             	.LBB155:
 765                             	.LBB153:
  62:../src/tensorflow/lite/micro/kernels/split.cc ****       input_ptr += copy_size;
 766                             		.loc 1 62 43
 767 0192 FD 28 3F                		mov.B	[r3+], r15
 768                             	.LVL99:
 769 0195 FD 20 5F                		mov.B	r15, [r5+]
 770                             	.LVL100:
  62:../src/tensorflow/lite/micro/kernels/split.cc ****       input_ptr += copy_size;
 771                             		.loc 1 62 25
 772 0198 47 23                   		cmp	r2, r3
 773 019a 21 F8                   		bne	.L63
 774 019c 2E C0                   		bra	.L60
 775                             	.LVL101:
 776                             	.L45:
 777                             	.LBE153:
 778                             	.LBE155:
 779                             	.LBE156:
 780                             	.LBE158:
  45:../src/tensorflow/lite/micro/kernels/split.cc ****   for (int i = 0; i < axis; ++i) {
 781                             		.loc 1 45 11
 782 019e 3E 02 00                		mov.L	#0, 8[r0]
 783                             	.LBB159:
  51:../src/tensorflow/lite/micro/kernels/split.cc ****     base_inner_size *= input_dims->data[i];
 784                             		.loc 1 51 28
 785 01a1 47 F1                   		cmp	r15, r1
 786 01a3 2B 05 38 F5 FE          		bgt	.L65
 787                             	.LBE159:
  50:../src/tensorflow/lite/micro/kernels/split.cc ****   for (int i = axis + 1; i < split_dimensions; ++i) {
 788                             		.loc 1 50 11
 789 01a8 66 14                   		mov.L	#1, r4
 790 01aa 38 17 FF                		bra	.L49
 791                             	.LVL102:
 792                             	.L66:
 793 01ad 66 14                   		mov.L	#1, r4
 794                             	.LVL103:
 795 01af 38 09 FF                		bra	.L47
 796                             	.LVL104:
 797                             	.L83:
 798                             	.LBB160:
  56:../src/tensorflow/lite/micro/kernels/split.cc ****     for (int i = 0; i < output_count; ++i) {
 799                             		.loc 1 56 21
 800 01b2 21 D6                   		bne	.L72
 801 01b4 A8 0A                   		mov.L	4[r0], r2
 802 01b6 61 02                   		cmp	#0, r2
 803 01b8 3B 09 FF                		bne	.L49
 804 01bb 2E CD                   		bra	.L72
 805                             	.LVL105:
 806                             	.L44:
 807                             	.LBE160:
 808                             	.LBB161:
 809                             	.LBB140:
  47:C:\Users\a5116938\Desktop\e2_studio_workspace\EEMBC_final\RX65N_Cloud_Kit\src/tensorflow/lite/micro/kernels\kernel_util.h ****   TFLITE_DCHECK(node != nullptr);
 810                             		.loc 3 47 3
 811 01bd 05 00 00 00             		bsr	_abort
 812                             	.LVL106:
 813                             	.LBE140:
 814                             	.LBE161:
 815                             	.LFE988:
 817 01c1 FD 70 40 00 00 00 80    		.section	.text._ZN6tflite3ops5micro5split9SplitImplIaEE12TfLiteStatusP13TfLiteContextP10TfLiteNode
 818                             		.weak	__ZN6tflite3ops5micro5split9SplitImplIaEE12TfLiteStatusP13TfLiteContextP10TfLiteNodePK16TfLi
 820                             	__ZN6tflite3ops5micro5split9SplitImplIaEE12TfLiteStatusP13TfLiteContextP10TfLiteNodePK16TfLiteEvalT
 821                             	.LFB989:
  28:../src/tensorflow/lite/micro/kernels/split.cc ****                        const TfLiteEvalTensor* input, int axis_value) {
 822                             		.loc 1 28 14 is_stmt 1
 823                             	.LVL107:
 824 0000 6E 6D                   		pushm	r6-r13
 825                             	.LCFI6:
 826 0002 71 00 EC                		add	#-20, r0
 827                             	.LCFI7:
  30:../src/tensorflow/lite/micro/kernels/split.cc ****   const TfLiteIntArray* input_dims = input->dims;
 828                             		.loc 1 30 38 is_stmt 0
 829 0005 A8 2F                   		mov.L	4[r2], r7
 830                             	.LVL108:
 831                             	.LBB178:
 832                             	.LBB179:
 153:C:\Users\a5116938\Desktop\e2_studio_workspace\EEMBC_final\RX65N_Cloud_Kit\src/tensorflow/lite/kernels\kernel_util.h **** 
 833                             		.loc 2 153 49 is_stmt 1
 834                             	.LBE179:
 835                             	.LBE178:
  31:../src/tensorflow/lite/micro/kernels/split.cc ****   const TfLiteEvalTensor* output0 =
 836                             		.loc 1 31 25 is_stmt 0
 837 0007 ED 3E 01                		mov.L	4[r3], r14
 838                             	.LBB181:
 839                             	.LBB180:
 153:C:\Users\a5116938\Desktop\e2_studio_workspace\EEMBC_final\RX65N_Cloud_Kit\src/tensorflow/lite/kernels\kernel_util.h **** 
 840                             		.loc 2 153 71
 841 000a EC 7B                   		mov.L	[r7], r11
 842                             	.LVL109:
 843                             	.LBE180:
 844                             	.LBE181:
 845                             	.LBB182:
 846                             	.LBB183:
  47:C:\Users\a5116938\Desktop\e2_studio_workspace\EEMBC_final\RX65N_Cloud_Kit\src/tensorflow/lite/micro/kernels\kernel_util.h ****   TFLITE_DCHECK(node != nullptr);
 847                             		.loc 3 47 3 is_stmt 1
 848 000c 61 01                   		cmp	#0, r1
 849 000e 3A AF 01                		beq	.L87
 850 0011 EF 29                   		mov.L	r2, r9
 851 0013 EF 3C                   		mov.L	r3, r12
 852 0015 EF 18                   		mov.L	r1, r8
 853 0017 EF 46                   		mov.L	r4, r6
  48:C:\Users\a5116938\Desktop\e2_studio_workspace\EEMBC_final\RX65N_Cloud_Kit\src/tensorflow/lite/micro/kernels\kernel_util.h ****   return context->GetEvalTensor(context, node->outputs->data[index]);
 854                             		.loc 3 48 3
  49:C:\Users\a5116938\Desktop\e2_studio_workspace\EEMBC_final\RX65N_Cloud_Kit\src/tensorflow/lite/micro/kernels\kernel_util.h **** }
 855                             		.loc 3 49 3
  49:C:\Users\a5116938\Desktop\e2_studio_workspace\EEMBC_final\RX65N_Cloud_Kit\src/tensorflow/lite/micro/kernels\kernel_util.h **** }
 856                             		.loc 3 49 32 is_stmt 0
 857 0019 ED 1A 15                		mov.L	84[r1], r10
 858 001c A8 7A                   		mov.L	4[r7], r2
 859                             	.LVL110:
 860 001e E7 0E 04                		mov.L	r14, 16[r0]
 861 0021 7F 1A                   		jsr	r10
 862                             	.LVL111:
 863                             	.LBE183:
 864                             	.LBE182:
  34:../src/tensorflow/lite/micro/kernels/split.cc **** 
 865                             		.loc 1 34 25
 866 0023 ED 1D 01                		mov.L	4[r1], r13
 867                             	.LVL112:
  36:../src/tensorflow/lite/micro/kernels/split.cc ****   int axis = axis_value < 0 ? axis_value + split_dimensions : axis_value;
 868                             		.loc 1 36 44
 869 0026 ED 0E 04                		mov.L	16[r0], r14
 870 0029 EC E1                   		mov.L	[r14], r1
 871                             	.LVL113:
  37:../src/tensorflow/lite/micro/kernels/split.cc **** 
 872                             		.loc 1 37 7
 873 002b 61 06                   		cmp	#0, r6
 874 002d 28 04                   		bge	.L86
  37:../src/tensorflow/lite/micro/kernels/split.cc **** 
 875                             		.loc 1 37 7 discriminator 1
 876 002f 4B 16                   		add	r1, r6
 877                             	.LVL114:
 878                             		.balign 8,3,1
 879                             	.L86:
  39:../src/tensorflow/lite/micro/kernels/split.cc ****   TFLITE_DCHECK_EQ(output_dims->size, split_dimensions);
 880                             		.loc 1 39 3 discriminator 4
 881 0031 47 61                   		cmp	r6, r1
 882 0033 2A 05 38 88 01          		ble	.L87
  40:../src/tensorflow/lite/micro/kernels/split.cc **** 
 883                             		.loc 1 40 3
 884 0038 06 84 D1                		cmp	[r13].L, r1
 885 003b 3B 82 01                		bne	.L87
 886 003e FD C2 67                		shll	#2, r6, r7
  44:../src/tensorflow/lite/micro/kernels/split.cc ****   int64_t outer_size = 1;
 887                             		.loc 1 44 3
 888 0041 71 6F 01                		add	#1, r6, r15
 889 0044 4B 7D                   		add	r7, r13
 890                             	.LVL115:
 891 0046 FE 6F EA                		mov.L	[r15,r14], r10
  42:../src/tensorflow/lite/micro/kernels/split.cc **** 
 892                             		.loc 1 42 48
 893 0049 ED D7 01                		mov.L	4[r13], r7
 894 004c 4F B7                   		mul	r11, r7
  44:../src/tensorflow/lite/micro/kernels/split.cc ****   int64_t outer_size = 1;
 895                             		.loc 1 44 3
 896 004e 47 A7                   		cmp	r10, r7
 897 0050 3B 6D 01                		bne	.L87
 898                             	.LVL116:
 899 0053 EF FA                   		mov.L	r15, r10
 900 0055 EC C7                   		mov.L	[r12], r7
  45:../src/tensorflow/lite/micro/kernels/split.cc ****   for (int i = 0; i < axis; ++i) {
 901                             		.loc 1 45 11
 902 0057 3E 01 01                		mov.L	#1, 4[r0]
 903                             	.LBB185:
  46:../src/tensorflow/lite/micro/kernels/split.cc ****     outer_size *= input_dims->data[i];
 904                             		.loc 1 46 21
 905 005a 61 06                   		cmp	#0, r6
 906 005c 2A 05 38 40 01          		ble	.L88
  46:../src/tensorflow/lite/micro/kernels/split.cc ****     outer_size *= input_dims->data[i];
 907                             		.loc 1 46 12
 908 0061 66 05                   		mov.L	#0, r5
 909                             	.LBE185:
  45:../src/tensorflow/lite/micro/kernels/split.cc ****   for (int i = 0; i < axis; ++i) {
 910                             		.loc 1 45 11
 911 0063 3E 02 00                		mov.L	#0, 8[r0]
 912                             	.LBB186:
  47:../src/tensorflow/lite/micro/kernels/split.cc ****   }
 913                             		.loc 1 47 16
 914 0066 71 EC 04                		add	#4, r14, r12
 915                             	.LVL117:
 916 0069 E3 01                   		mov.L	r1, [r0]
 917 006b E7 0E 03                		mov.L	r14, 12[r0]
 918 006e EF 53                   		mov.L	r5, r3
 919 0070 A8 0C                   		mov.L	4[r0], r4
 920                             	.LVL118:
 921                             		.balign 8,3,3
 922                             	.L89:
  47:../src/tensorflow/lite/micro/kernels/split.cc ****   }
 923                             		.loc 1 47 16 discriminator 2
 924 0072 FE 63 CE                		mov.L	[r3,r12], r14
  46:../src/tensorflow/lite/micro/kernels/split.cc ****     outer_size *= input_dims->data[i];
 925                             		.loc 1 46 3 discriminator 2
 926 0075 62 13                   		add	#1, r3
  47:../src/tensorflow/lite/micro/kernels/split.cc ****   }
 927                             		.loc 1 47 16 discriminator 2
 928 0077 FD BF E1                		shar	#31, r14, r1
  47:../src/tensorflow/lite/micro/kernels/split.cc ****   }
 929                             		.loc 1 47 5 discriminator 2
 930 007a FF 32 E5                		mul	r14, r5, r2
 931 007d 4F 41                   		mul	r4, r1
 932 007f FC 1F E4                		emulu	r14, r4
 933                             	.LVL119:
 934 0082 4B 12                   		add	r1, r2
 935 0084 4B 25                   		add	r2, r5
 936                             	.LVL120:
  46:../src/tensorflow/lite/micro/kernels/split.cc ****     outer_size *= input_dims->data[i];
 937                             		.loc 1 46 21 discriminator 2
 938 0086 47 36                   		cmp	r3, r6
 939 0088 21 EA                   		bne	.L89
 940 008a EC 01                   		mov.L	[r0], r1
 941 008c A0 0C                   		mov.L	r4, 4[r0]
 942 008e A0 85                   		mov.L	r5, 8[r0]
 943 0090 ED 0E 03                		mov.L	12[r0], r14
 944                             	.LVL121:
 945                             	.LBE186:
 946                             	.LBB187:
  51:../src/tensorflow/lite/micro/kernels/split.cc ****     base_inner_size *= input_dims->data[i];
 947                             		.loc 1 51 28
 948 0093 47 F1                   		cmp	r15, r1
 949 0095 2A 05 38 16 01          		ble	.L109
 950                             	.LVL122:
 951                             		.balign 8,3,1
 952                             	.L108:
 953                             	.LBE187:
  45:../src/tensorflow/lite/micro/kernels/split.cc ****   for (int i = 0; i < axis; ++i) {
 954                             		.loc 1 45 11 discriminator 2
 955 009a 66 14                   		mov.L	#1, r4
 956 009c 66 05                   		mov.L	#0, r5
 957                             	.LBB188:
  52:../src/tensorflow/lite/micro/kernels/split.cc ****   }
 958                             		.loc 1 52 21 discriminator 2
 959 009e 62 4E                   		add	#4, r14
 960                             	.LVL123:
 961                             		.balign 8,3,3
 962                             	.L91:
 963 00a0 FE 6A E6                		mov.L	[r10,r14], r6
  51:../src/tensorflow/lite/micro/kernels/split.cc ****     base_inner_size *= input_dims->data[i];
 964                             		.loc 1 51 3 discriminator 2
 965 00a3 62 1A                   		add	#1, r10
 966                             	.LVL124:
  52:../src/tensorflow/lite/micro/kernels/split.cc ****   }
 967                             		.loc 1 52 21 discriminator 2
 968 00a5 FD BF 62                		shar	#31, r6, r2
  52:../src/tensorflow/lite/micro/kernels/split.cc ****   }
 969                             		.loc 1 52 5 discriminator 2
 970 00a8 FF 33 65                		mul	r6, r5, r3
 971 00ab 4F 42                   		mul	r4, r2
 972 00ad FC 1F 64                		emulu	r6, r4
 973                             	.LVL125:
 974 00b0 4B 23                   		add	r2, r3
 975 00b2 4B 35                   		add	r3, r5
 976                             	.LVL126:
  51:../src/tensorflow/lite/micro/kernels/split.cc ****     base_inner_size *= input_dims->data[i];
 977                             		.loc 1 51 28 discriminator 2
 978 00b4 47 A1                   		cmp	r10, r1
 979 00b6 2A EA                   		bgt	.L91
 980                             	.LVL127:
 981                             		.balign 8,3,1
 982                             	.L90:
 983                             	.LBE188:
 984                             	.LBB189:
  56:../src/tensorflow/lite/micro/kernels/split.cc ****     for (int i = 0; i < output_count; ++i) {
 985                             		.loc 1 56 21
 986 00b8 A8 81                   		mov.L	8[r0], r1
 987 00ba 61 01                   		cmp	#0, r1
 988 00bc 2A 05 38 F4 00          		ble	.L126
 989                             	.LVL128:
 990                             		.balign 8,3,1
 991                             	.L92:
 992 00c1 61 0B                   		cmp	#0, r11
 993 00c3 2A 05 38 C3 00          		ble	.L115
 994                             	.LBE189:
  50:../src/tensorflow/lite/micro/kernels/split.cc ****   for (int i = axis + 1; i < split_dimensions; ++i) {
 995                             		.loc 1 50 11
 996 00c8 66 06                   		mov.L	#0, r6
 997 00ca F8 06 00                		mov.L	#0, [r0]
 998 00cd EF 4A                   		mov.L	r4, r10
 999                             	.LVL129:
 1000 00cf 03                      		.balign 8,3,1
 1001                             	.L99:
 1002                             	.LBB201:
 1003                             	.LBB190:
  57:../src/tensorflow/lite/micro/kernels/split.cc ****       TfLiteEvalTensor* t = tflite::micro::GetEvalOutput(context, node, i);
 1004                             		.loc 1 57 14
 1005 00d0 66 0C                   		mov.L	#0, r12
 1006                             	.LVL130:
 1007                             		.balign 8,3,1
 1008                             	.L97:
 1009                             	.LBB191:
 1010                             	.LBB192:
 1011                             	.LBB193:
  47:C:\Users\a5116938\Desktop\e2_studio_workspace\EEMBC_final\RX65N_Cloud_Kit\src/tensorflow/lite/micro/kernels\kernel_util.h ****   TFLITE_DCHECK(node != nullptr);
 1012                             		.loc 3 47 3 is_stmt 1
  48:C:\Users\a5116938\Desktop\e2_studio_workspace\EEMBC_final\RX65N_Cloud_Kit\src/tensorflow/lite/micro/kernels\kernel_util.h ****   return context->GetEvalTensor(context, node->outputs->data[index]);
 1013                             		.loc 3 48 3
  49:C:\Users\a5116938\Desktop\e2_studio_workspace\EEMBC_final\RX65N_Cloud_Kit\src/tensorflow/lite/micro/kernels\kernel_util.h **** }
 1014                             		.loc 3 49 3
  49:C:\Users\a5116938\Desktop\e2_studio_workspace\EEMBC_final\RX65N_Cloud_Kit\src/tensorflow/lite/micro/kernels\kernel_util.h **** }
 1015                             		.loc 3 49 32 is_stmt 0
 1016 00d2 ED 94 01                		mov.L	4[r9], r4
 1017 00d5 71 C3 01                		add	#1, r12, r3
 1018 00d8 ED 85 15                		mov.L	84[r8], r5
 1019 00db EF 81                   		mov.L	r8, r1
 1020 00dd FE 63 42                		mov.L	[r3,r4], r2
 1021 00e0 7F 15                   		jsr	r5
 1022                             	.LVL131:
 1023                             	.LBE193:
 1024                             	.LBE192:
 1025                             	.LBB194:
 1026                             	.LBB195:
 1027                             		.loc 3 55 28
 1028 00e2 61 01                   		cmp	#0, r1
 1029 00e4 14                      		beq	.L95
 1030 00e5 EC 11                   		mov.L	[r1], r1
 1031                             	.LVL132:
 1032 00e7 03                      		.balign 8,3,1
 1033                             	.L95:
 1034                             	.LBE195:
 1035                             	.LBE194:
  60:../src/tensorflow/lite/micro/kernels/split.cc ****       T* output_ptr = output_data + k * copy_size;
 1036                             		.loc 1 60 17
 1037 00e8 ED D4 01                		mov.L	4[r13], r4
 1038 00eb 4F A4                   		mul	r10, r4
 1039                             	.LVL133:
  61:../src/tensorflow/lite/micro/kernels/split.cc ****       for (int j = 0; j < copy_size; ++j) output_ptr[j] = input_ptr[j];
 1040                             		.loc 1 61 39
 1041 00ed FF 3E 64                		mul	r6, r4, r14
 1042                             	.LVL134:
 1043                             	.LBB196:
  62:../src/tensorflow/lite/micro/kernels/split.cc ****       input_ptr += copy_size;
 1044                             		.loc 1 62 25
 1045 00f0 61 04                   		cmp	#0, r4
 1046 00f2 2B 6A                   		ble	.L103
 1047 00f4 71 E3 04                		add	#4, r14, r3
 1048 00f7 FF 25 E1                		add	r14, r1, r5
 1049                             	.LVL135:
 1050 00fa 4B 13                   		add	r1, r3
 1051 00fc 71 7F 04                		add	#4, r7, r15
 1052 00ff 47 37                   		cmp	r3, r7
 1053 0101 FC DB 32                		scgeu.L	r3
 1054 0104 47 F5                   		cmp	r15, r5
 1055 0106 FC DB F2                		scgeu.L	r15
 1056 0109 71 42 FF                		add	#-1, r4, r2
 1057 010c 57 F3                   		or	r15, r3
 1058 010e 61 82                   		cmp	#8, r2
 1059 0110 FC DB 24                		scgtu.L	r2
 1060 0113 FC 33 32                		tst	r3, r2
 1061 0116 20 77                   		beq	.L100
 1062 0118 FF 53 75                		or	r7, r5, r3
 1063 011b 64 33                   		and	#3, r3
 1064 011d 21 70                   		bne	.L100
 1065 011f FB 26 FC                		mov.L	#-4, r2
 1066 0122 53 42                   		and	r4, r2
 1067 0124 EF 73                   		mov.L	r7, r3
 1068 0126 4B 52                   		add	r5, r2
 1069                             	.LVL136:
 1070                             		.balign 8,3,3
 1071                             	.L102:
  62:../src/tensorflow/lite/micro/kernels/split.cc ****       input_ptr += copy_size;
 1072                             		.loc 1 62 43 discriminator 2
 1073 0128 FD 2A 3F                		mov.L	[r3+], r15
 1074 012b FD 22 5F                		mov.L	r15, [r5+]
 1075 012e 47 25                   		cmp	r2, r5
 1076 0130 21 F8                   		bne	.L102
 1077 0132 FB 56 FC                		mov.L	#-4, r5
 1078 0135 53 45                   		and	r4, r5
 1079 0137 47 54                   		cmp	r5, r4
 1080 0139 20 23                   		beq	.L103
 1081                             	.LVL137:
  62:../src/tensorflow/lite/micro/kernels/split.cc ****       input_ptr += copy_size;
 1082                             		.loc 1 62 43
 1083 013b 4B E1                   		add	r14, r1
 1084                             	.LVL138:
  62:../src/tensorflow/lite/micro/kernels/split.cc ****       input_ptr += copy_size;
 1085                             		.loc 1 62 7
 1086 013d 71 53 01                		add	#1, r5, r3
 1087                             	.LVL139:
  62:../src/tensorflow/lite/micro/kernels/split.cc ****       input_ptr += copy_size;
 1088                             		.loc 1 62 43
 1089 0140 FE 45 72                		mov.B	[r5,r7], r2
 1090 0143 FE 05 12                		mov.B	r2, [r5,r1]
  62:../src/tensorflow/lite/micro/kernels/split.cc ****       input_ptr += copy_size;
 1091                             		.loc 1 62 25
 1092 0146 47 34                   		cmp	r3, r4
 1093 0148 2B 14                   		ble	.L103
  62:../src/tensorflow/lite/micro/kernels/split.cc ****       input_ptr += copy_size;
 1094                             		.loc 1 62 43
 1095 014a FE 43 7F                		mov.B	[r3,r7], r15
 1096 014d FE 03 1F                		mov.B	r15, [r3,r1]
  62:../src/tensorflow/lite/micro/kernels/split.cc ****       input_ptr += copy_size;
 1097                             		.loc 1 62 7
 1098 0150 62 25                   		add	#2, r5
 1099                             	.LVL140:
  62:../src/tensorflow/lite/micro/kernels/split.cc ****       input_ptr += copy_size;
 1100                             		.loc 1 62 25
 1101 0152 47 54                   		cmp	r5, r4
 1102 0154 2B 08                   		ble	.L103
  62:../src/tensorflow/lite/micro/kernels/split.cc ****       input_ptr += copy_size;
 1103                             		.loc 1 62 43
 1104 0156 FE 45 72                		mov.B	[r5,r7], r2
 1105 0159 FE 05 12                		mov.B	r2, [r5,r1]
 1106                             	.LVL141:
 1107                             		.balign 8,3,1
 1108                             	.L103:
 1109                             	.LBE196:
 1110                             	.LBE191:
  57:../src/tensorflow/lite/micro/kernels/split.cc ****       TfLiteEvalTensor* t = tflite::micro::GetEvalOutput(context, node, i);
 1111                             		.loc 1 57 5
 1112 015c 62 1C                   		add	#1, r12
 1113                             	.LVL142:
 1114                             	.LBB198:
  63:../src/tensorflow/lite/micro/kernels/split.cc ****     }
 1115                             		.loc 1 63 7
 1116 015e 4B 47                   		add	r4, r7
 1117                             	.LVL143:
 1118                             	.LBE198:
  57:../src/tensorflow/lite/micro/kernels/split.cc ****       TfLiteEvalTensor* t = tflite::micro::GetEvalOutput(context, node, i);
 1119                             		.loc 1 57 23
 1120 0160 47 CB                   		cmp	r12, r11
 1121 0162 3B 70 FF                		bne	.L97
 1122                             	.LVL144:
 1123 0165 EC 04                   		mov.L	[r0], r4
 1124                             	.LVL145:
 1125 0167 71 63 01                		add	#1, r6, r3
 1126                             	.LVL146:
 1127 016a FD 74 24 00             		adc	#0, r4
 1128 016e E3 04                   		mov.L	r4, [r0]
 1129 0170 EF 36                   		mov.L	r3, r6
 1130                             	.LBE190:
  56:../src/tensorflow/lite/micro/kernels/split.cc ****     for (int i = 0; i < output_count; ++i) {
 1131                             		.loc 1 56 21
 1132 0172 ED 0F 02                		mov.L	8[r0], r15
 1133 0175 47 4F                   		cmp	r4, r15
 1134 0177 2B 05 38 57 FF          		bgt	.L99
 1135 017c 21 0C                   		bne	.L115
 1136 017e A8 09                   		mov.L	4[r0], r1
 1137 0180 47 31                   		cmp	r3, r1
 1138 0182 25 05 38 4C FF          		bgtu	.L99
 1139                             	.LVL147:
 1140 0187 03                      		.balign 8,3,1
 1141                             	.L115:
 1142                             	.LBE201:
  68:../src/tensorflow/lite/micro/kernels/split.cc **** 
 1143                             		.loc 1 68 1
 1144 0188 66 01                   		mov.L	#0, r1
 1145 018a 3F 6D 0D                		rtsd	#52, r6-r13
 1146                             	.LVL148:
 1147                             	.L100:
 1148 018d EF 73                   		mov.L	r7, r3
 1149 018f FF 22 74                		add	r7, r4, r2
 1150                             	.LVL149:
 1151                             		.balign 8,3,5
 1152                             	.L106:
 1153                             	.LBB202:
 1154                             	.LBB200:
 1155                             	.LBB199:
 1156                             	.LBB197:
  62:../src/tensorflow/lite/micro/kernels/split.cc ****       input_ptr += copy_size;
 1157                             		.loc 1 62 43
 1158 0192 FD 28 3F                		mov.B	[r3+], r15
 1159                             	.LVL150:
 1160 0195 FD 20 5F                		mov.B	r15, [r5+]
 1161                             	.LVL151:
  62:../src/tensorflow/lite/micro/kernels/split.cc ****       input_ptr += copy_size;
 1162                             		.loc 1 62 25
 1163 0198 47 23                   		cmp	r2, r3
 1164 019a 21 F8                   		bne	.L106
 1165 019c 2E C0                   		bra	.L103
 1166                             	.LVL152:
 1167                             	.L88:
 1168                             	.LBE197:
 1169                             	.LBE199:
 1170                             	.LBE200:
 1171                             	.LBE202:
  45:../src/tensorflow/lite/micro/kernels/split.cc ****   for (int i = 0; i < axis; ++i) {
 1172                             		.loc 1 45 11
 1173 019e 3E 02 00                		mov.L	#0, 8[r0]
 1174                             	.LBB203:
  51:../src/tensorflow/lite/micro/kernels/split.cc ****     base_inner_size *= input_dims->data[i];
 1175                             		.loc 1 51 28
 1176 01a1 47 F1                   		cmp	r15, r1
 1177 01a3 2B 05 38 F5 FE          		bgt	.L108
 1178                             	.LBE203:
  50:../src/tensorflow/lite/micro/kernels/split.cc ****   for (int i = axis + 1; i < split_dimensions; ++i) {
 1179                             		.loc 1 50 11
 1180 01a8 66 14                   		mov.L	#1, r4
 1181 01aa 38 17 FF                		bra	.L92
 1182                             	.LVL153:
 1183                             	.L109:
 1184 01ad 66 14                   		mov.L	#1, r4
 1185                             	.LVL154:
 1186 01af 38 09 FF                		bra	.L90
 1187                             	.LVL155:
 1188                             	.L126:
 1189                             	.LBB204:
  56:../src/tensorflow/lite/micro/kernels/split.cc ****     for (int i = 0; i < output_count; ++i) {
 1190                             		.loc 1 56 21
 1191 01b2 21 D6                   		bne	.L115
 1192 01b4 A8 0A                   		mov.L	4[r0], r2
 1193 01b6 61 02                   		cmp	#0, r2
 1194 01b8 3B 09 FF                		bne	.L92
 1195 01bb 2E CD                   		bra	.L115
 1196                             	.LVL156:
 1197                             	.L87:
 1198                             	.LBE204:
 1199                             	.LBB205:
 1200                             	.LBB184:
  47:C:\Users\a5116938\Desktop\e2_studio_workspace\EEMBC_final\RX65N_Cloud_Kit\src/tensorflow/lite/micro/kernels\kernel_util.h ****   TFLITE_DCHECK(node != nullptr);
 1201                             		.loc 3 47 3
 1202 01bd 05 00 00 00             		bsr	_abort
 1203                             	.LVL157:
 1204                             	.LBE184:
 1205                             	.LBE205:
 1206                             	.LFE989:
 1208 01c1 FD 70 40 00 00 00 80    		.section	.text._ZN6tflite3ops5micro5split9SplitImplIsEE12TfLiteStatusP13TfLiteContextP10TfLiteNode
 1209                             		.weak	__ZN6tflite3ops5micro5split9SplitImplIsEE12TfLiteStatusP13TfLiteContextP10TfLiteNodePK16TfLi
 1211                             	__ZN6tflite3ops5micro5split9SplitImplIsEE12TfLiteStatusP13TfLiteContextP10TfLiteNodePK16TfLiteEvalT
 1212                             	.LFB990:
  28:../src/tensorflow/lite/micro/kernels/split.cc ****                        const TfLiteEvalTensor* input, int axis_value) {
 1213                             		.loc 1 28 14 is_stmt 1
 1214                             	.LVL158:
 1215 0000 6E 6D                   		pushm	r6-r13
 1216                             	.LCFI8:
 1217 0002 71 00 EC                		add	#-20, r0
 1218                             	.LCFI9:
  30:../src/tensorflow/lite/micro/kernels/split.cc ****   const TfLiteIntArray* input_dims = input->dims;
 1219                             		.loc 1 30 38 is_stmt 0
 1220 0005 A8 2F                   		mov.L	4[r2], r7
 1221                             	.LVL159:
 1222                             	.LBB222:
 1223                             	.LBB223:
 153:C:\Users\a5116938\Desktop\e2_studio_workspace\EEMBC_final\RX65N_Cloud_Kit\src/tensorflow/lite/kernels\kernel_util.h **** 
 1224                             		.loc 2 153 49 is_stmt 1
 1225                             	.LBE223:
 1226                             	.LBE222:
  31:../src/tensorflow/lite/micro/kernels/split.cc ****   const TfLiteEvalTensor* output0 =
 1227                             		.loc 1 31 25 is_stmt 0
 1228 0007 ED 3E 01                		mov.L	4[r3], r14
 1229                             	.LBB225:
 1230                             	.LBB224:
 153:C:\Users\a5116938\Desktop\e2_studio_workspace\EEMBC_final\RX65N_Cloud_Kit\src/tensorflow/lite/kernels\kernel_util.h **** 
 1231                             		.loc 2 153 71
 1232 000a EC 7B                   		mov.L	[r7], r11
 1233                             	.LVL160:
 1234                             	.LBE224:
 1235                             	.LBE225:
 1236                             	.LBB226:
 1237                             	.LBB227:
  47:C:\Users\a5116938\Desktop\e2_studio_workspace\EEMBC_final\RX65N_Cloud_Kit\src/tensorflow/lite/micro/kernels\kernel_util.h ****   TFLITE_DCHECK(node != nullptr);
 1238                             		.loc 3 47 3 is_stmt 1
 1239 000c 61 01                   		cmp	#0, r1
 1240 000e 3A 97 01                		beq	.L130
 1241 0011 EF 29                   		mov.L	r2, r9
 1242 0013 EF 3C                   		mov.L	r3, r12
 1243 0015 EF 18                   		mov.L	r1, r8
 1244 0017 EF 46                   		mov.L	r4, r6
  48:C:\Users\a5116938\Desktop\e2_studio_workspace\EEMBC_final\RX65N_Cloud_Kit\src/tensorflow/lite/micro/kernels\kernel_util.h ****   return context->GetEvalTensor(context, node->outputs->data[index]);
 1245                             		.loc 3 48 3
  49:C:\Users\a5116938\Desktop\e2_studio_workspace\EEMBC_final\RX65N_Cloud_Kit\src/tensorflow/lite/micro/kernels\kernel_util.h **** }
 1246                             		.loc 3 49 3
  49:C:\Users\a5116938\Desktop\e2_studio_workspace\EEMBC_final\RX65N_Cloud_Kit\src/tensorflow/lite/micro/kernels\kernel_util.h **** }
 1247                             		.loc 3 49 32 is_stmt 0
 1248 0019 ED 1A 15                		mov.L	84[r1], r10
 1249 001c A8 7A                   		mov.L	4[r7], r2
 1250                             	.LVL161:
 1251 001e E7 0E 04                		mov.L	r14, 16[r0]
 1252 0021 7F 1A                   		jsr	r10
 1253                             	.LVL162:
 1254                             	.LBE227:
 1255                             	.LBE226:
  34:../src/tensorflow/lite/micro/kernels/split.cc **** 
 1256                             		.loc 1 34 25
 1257 0023 ED 1D 01                		mov.L	4[r1], r13
 1258                             	.LVL163:
  36:../src/tensorflow/lite/micro/kernels/split.cc ****   int axis = axis_value < 0 ? axis_value + split_dimensions : axis_value;
 1259                             		.loc 1 36 44
 1260 0026 ED 0E 04                		mov.L	16[r0], r14
 1261 0029 EC E1                   		mov.L	[r14], r1
 1262                             	.LVL164:
  37:../src/tensorflow/lite/micro/kernels/split.cc **** 
 1263                             		.loc 1 37 7
 1264 002b 61 06                   		cmp	#0, r6
 1265 002d 28 04                   		bge	.L129
  37:../src/tensorflow/lite/micro/kernels/split.cc **** 
 1266                             		.loc 1 37 7 discriminator 1
 1267 002f 4B 16                   		add	r1, r6
 1268                             	.LVL165:
 1269                             		.balign 8,3,1
 1270                             	.L129:
  39:../src/tensorflow/lite/micro/kernels/split.cc ****   TFLITE_DCHECK_EQ(output_dims->size, split_dimensions);
 1271                             		.loc 1 39 3 discriminator 4
 1272 0031 47 61                   		cmp	r6, r1
 1273 0033 2A 05 38 70 01          		ble	.L130
  40:../src/tensorflow/lite/micro/kernels/split.cc **** 
 1274                             		.loc 1 40 3
 1275 0038 06 84 D1                		cmp	[r13].L, r1
 1276 003b 3B 6A 01                		bne	.L130
 1277 003e FD C2 67                		shll	#2, r6, r7
  44:../src/tensorflow/lite/micro/kernels/split.cc ****   int64_t outer_size = 1;
 1278                             		.loc 1 44 3
 1279 0041 71 6F 01                		add	#1, r6, r15
 1280 0044 4B 7D                   		add	r7, r13
 1281                             	.LVL166:
 1282 0046 FE 6F EA                		mov.L	[r15,r14], r10
  42:../src/tensorflow/lite/micro/kernels/split.cc **** 
 1283                             		.loc 1 42 48
 1284 0049 ED D7 01                		mov.L	4[r13], r7
 1285 004c 4F B7                   		mul	r11, r7
  44:../src/tensorflow/lite/micro/kernels/split.cc ****   int64_t outer_size = 1;
 1286                             		.loc 1 44 3
 1287 004e 47 A7                   		cmp	r10, r7
 1288 0050 3B 55 01                		bne	.L130
 1289                             	.LVL167:
 1290 0053 EF FA                   		mov.L	r15, r10
 1291 0055 EC C7                   		mov.L	[r12], r7
  45:../src/tensorflow/lite/micro/kernels/split.cc ****   for (int i = 0; i < axis; ++i) {
 1292                             		.loc 1 45 11
 1293 0057 3E 01 01                		mov.L	#1, 4[r0]
 1294                             	.LBB229:
  46:../src/tensorflow/lite/micro/kernels/split.cc ****     outer_size *= input_dims->data[i];
 1295                             		.loc 1 46 21
 1296 005a 61 06                   		cmp	#0, r6
 1297 005c 2A 05 38 28 01          		ble	.L131
  46:../src/tensorflow/lite/micro/kernels/split.cc ****     outer_size *= input_dims->data[i];
 1298                             		.loc 1 46 12
 1299 0061 66 05                   		mov.L	#0, r5
 1300                             	.LBE229:
  45:../src/tensorflow/lite/micro/kernels/split.cc ****   for (int i = 0; i < axis; ++i) {
 1301                             		.loc 1 45 11
 1302 0063 3E 02 00                		mov.L	#0, 8[r0]
 1303                             	.LBB230:
  47:../src/tensorflow/lite/micro/kernels/split.cc ****   }
 1304                             		.loc 1 47 16
 1305 0066 71 EC 04                		add	#4, r14, r12
 1306                             	.LVL168:
 1307 0069 E3 01                   		mov.L	r1, [r0]
 1308 006b E7 0E 03                		mov.L	r14, 12[r0]
 1309 006e EF 53                   		mov.L	r5, r3
 1310 0070 A8 0C                   		mov.L	4[r0], r4
 1311                             	.LVL169:
 1312                             		.balign 8,3,3
 1313                             	.L132:
  47:../src/tensorflow/lite/micro/kernels/split.cc ****   }
 1314                             		.loc 1 47 16 discriminator 2
 1315 0072 FE 63 CE                		mov.L	[r3,r12], r14
  46:../src/tensorflow/lite/micro/kernels/split.cc ****     outer_size *= input_dims->data[i];
 1316                             		.loc 1 46 3 discriminator 2
 1317 0075 62 13                   		add	#1, r3
  47:../src/tensorflow/lite/micro/kernels/split.cc ****   }
 1318                             		.loc 1 47 16 discriminator 2
 1319 0077 FD BF E1                		shar	#31, r14, r1
  47:../src/tensorflow/lite/micro/kernels/split.cc ****   }
 1320                             		.loc 1 47 5 discriminator 2
 1321 007a FF 32 E5                		mul	r14, r5, r2
 1322 007d 4F 41                   		mul	r4, r1
 1323 007f FC 1F E4                		emulu	r14, r4
 1324                             	.LVL170:
 1325 0082 4B 12                   		add	r1, r2
 1326 0084 4B 25                   		add	r2, r5
 1327                             	.LVL171:
  46:../src/tensorflow/lite/micro/kernels/split.cc ****     outer_size *= input_dims->data[i];
 1328                             		.loc 1 46 21 discriminator 2
 1329 0086 47 36                   		cmp	r3, r6
 1330 0088 21 EA                   		bne	.L132
 1331 008a EC 01                   		mov.L	[r0], r1
 1332 008c A0 0C                   		mov.L	r4, 4[r0]
 1333 008e A0 85                   		mov.L	r5, 8[r0]
 1334 0090 ED 0E 03                		mov.L	12[r0], r14
 1335                             	.LVL172:
 1336                             	.LBE230:
 1337                             	.LBB231:
  51:../src/tensorflow/lite/micro/kernels/split.cc ****     base_inner_size *= input_dims->data[i];
 1338                             		.loc 1 51 28
 1339 0093 47 F1                   		cmp	r15, r1
 1340 0095 2A 05 38 FE 00          		ble	.L152
 1341                             	.LVL173:
 1342                             		.balign 8,3,1
 1343                             	.L151:
 1344                             	.LBE231:
  45:../src/tensorflow/lite/micro/kernels/split.cc ****   for (int i = 0; i < axis; ++i) {
 1345                             		.loc 1 45 11 discriminator 2
 1346 009a 66 14                   		mov.L	#1, r4
 1347 009c 66 05                   		mov.L	#0, r5
 1348                             	.LBB232:
  52:../src/tensorflow/lite/micro/kernels/split.cc ****   }
 1349                             		.loc 1 52 21 discriminator 2
 1350 009e 62 4E                   		add	#4, r14
 1351                             	.LVL174:
 1352                             		.balign 8,3,3
 1353                             	.L134:
 1354 00a0 FE 6A E6                		mov.L	[r10,r14], r6
  51:../src/tensorflow/lite/micro/kernels/split.cc ****     base_inner_size *= input_dims->data[i];
 1355                             		.loc 1 51 3 discriminator 2
 1356 00a3 62 1A                   		add	#1, r10
 1357                             	.LVL175:
  52:../src/tensorflow/lite/micro/kernels/split.cc ****   }
 1358                             		.loc 1 52 21 discriminator 2
 1359 00a5 FD BF 62                		shar	#31, r6, r2
  52:../src/tensorflow/lite/micro/kernels/split.cc ****   }
 1360                             		.loc 1 52 5 discriminator 2
 1361 00a8 FF 33 65                		mul	r6, r5, r3
 1362 00ab 4F 42                   		mul	r4, r2
 1363 00ad FC 1F 64                		emulu	r6, r4
 1364                             	.LVL176:
 1365 00b0 4B 23                   		add	r2, r3
 1366 00b2 4B 35                   		add	r3, r5
 1367                             	.LVL177:
  51:../src/tensorflow/lite/micro/kernels/split.cc ****     base_inner_size *= input_dims->data[i];
 1368                             		.loc 1 51 28 discriminator 2
 1369 00b4 47 A1                   		cmp	r10, r1
 1370 00b6 2A EA                   		bgt	.L134
 1371                             	.LVL178:
 1372                             		.balign 8,3,1
 1373                             	.L133:
 1374                             	.LBE232:
 1375                             	.LBB233:
  56:../src/tensorflow/lite/micro/kernels/split.cc ****     for (int i = 0; i < output_count; ++i) {
 1376                             		.loc 1 56 21
 1377 00b8 A8 81                   		mov.L	8[r0], r1
 1378 00ba 61 01                   		cmp	#0, r1
 1379 00bc 2A 05 38 DC 00          		ble	.L169
 1380                             	.LVL179:
 1381                             		.balign 8,3,1
 1382                             	.L135:
 1383 00c1 61 0B                   		cmp	#0, r11
 1384 00c3 2A 05 38 A9 00          		ble	.L158
 1385                             	.LBE233:
  50:../src/tensorflow/lite/micro/kernels/split.cc ****   for (int i = axis + 1; i < split_dimensions; ++i) {
 1386                             		.loc 1 50 11
 1387 00c8 66 06                   		mov.L	#0, r6
 1388 00ca F8 06 00                		mov.L	#0, [r0]
 1389 00cd EF 4A                   		mov.L	r4, r10
 1390                             	.LVL180:
 1391 00cf 03                      		.balign 8,3,1
 1392                             	.L142:
 1393                             	.LBB245:
 1394                             	.LBB234:
  57:../src/tensorflow/lite/micro/kernels/split.cc ****       TfLiteEvalTensor* t = tflite::micro::GetEvalOutput(context, node, i);
 1395                             		.loc 1 57 14
 1396 00d0 66 0C                   		mov.L	#0, r12
 1397                             	.LVL181:
 1398                             		.balign 8,3,1
 1399                             	.L140:
 1400                             	.LBB235:
 1401                             	.LBB236:
 1402                             	.LBB237:
  47:C:\Users\a5116938\Desktop\e2_studio_workspace\EEMBC_final\RX65N_Cloud_Kit\src/tensorflow/lite/micro/kernels\kernel_util.h ****   TFLITE_DCHECK(node != nullptr);
 1403                             		.loc 3 47 3 is_stmt 1
  48:C:\Users\a5116938\Desktop\e2_studio_workspace\EEMBC_final\RX65N_Cloud_Kit\src/tensorflow/lite/micro/kernels\kernel_util.h ****   return context->GetEvalTensor(context, node->outputs->data[index]);
 1404                             		.loc 3 48 3
  49:C:\Users\a5116938\Desktop\e2_studio_workspace\EEMBC_final\RX65N_Cloud_Kit\src/tensorflow/lite/micro/kernels\kernel_util.h **** }
 1405                             		.loc 3 49 3
  49:C:\Users\a5116938\Desktop\e2_studio_workspace\EEMBC_final\RX65N_Cloud_Kit\src/tensorflow/lite/micro/kernels\kernel_util.h **** }
 1406                             		.loc 3 49 32 is_stmt 0
 1407 00d2 ED 94 01                		mov.L	4[r9], r4
 1408 00d5 71 C3 01                		add	#1, r12, r3
 1409 00d8 ED 85 15                		mov.L	84[r8], r5
 1410 00db EF 81                   		mov.L	r8, r1
 1411 00dd FE 63 42                		mov.L	[r3,r4], r2
 1412 00e0 7F 15                   		jsr	r5
 1413                             	.LVL182:
 1414                             	.LBE237:
 1415                             	.LBE236:
 1416                             	.LBB238:
 1417                             	.LBB239:
 1418                             		.loc 3 55 28
 1419 00e2 61 01                   		cmp	#0, r1
 1420 00e4 14                      		beq	.L138
 1421 00e5 EC 11                   		mov.L	[r1], r1
 1422                             	.LVL183:
 1423 00e7 03                      		.balign 8,3,1
 1424                             	.L138:
 1425                             	.LBE239:
 1426                             	.LBE238:
  60:../src/tensorflow/lite/micro/kernels/split.cc ****       T* output_ptr = output_data + k * copy_size;
 1427                             		.loc 1 60 17
 1428 00e8 ED D3 01                		mov.L	4[r13], r3
 1429 00eb 4F A3                   		mul	r10, r3
 1430                             	.LVL184:
  61:../src/tensorflow/lite/micro/kernels/split.cc ****       for (int j = 0; j < copy_size; ++j) output_ptr[j] = input_ptr[j];
 1431                             		.loc 1 61 39
 1432 00ed FF 34 63                		mul	r6, r3, r4
 1433                             	.LVL185:
 1434                             	.LBB240:
  62:../src/tensorflow/lite/micro/kernels/split.cc ****       input_ptr += copy_size;
 1435                             		.loc 1 62 25
 1436 00f0 61 03                   		cmp	#0, r3
 1437 00f2 2B 52                   		ble	.L146
 1438 00f4 FF 25 44                		add	r4, r4, r5
 1439 00f7 71 7F 04                		add	#4, r7, r15
 1440 00fa 71 52 04                		add	#4, r5, r2
 1441 00fd 4B 15                   		add	r1, r5
 1442 00ff 47 F5                   		cmp	r15, r5
 1443 0101 FC DB F2                		scgeu.L	r15
 1444 0104 4B 12                   		add	r1, r2
 1445 0106 71 3E FF                		add	#-1, r3, r14
 1446 0109 47 27                   		cmp	r2, r7
 1447 010b FC DB 22                		scgeu.L	r2
 1448 010e 61 BE                   		cmp	#11, r14
 1449 0110 FC DB E4                		scgtu.L	r14
 1450 0113 57 F2                   		or	r15, r2
 1451 0115 FC 33 2E                		tst	r2, r14
 1452 0118 20 5B                   		beq	.L143
 1453 011a FF 52 75                		or	r7, r5, r2
 1454 011d 64 32                   		and	#3, r2
 1455 011f 21 54                   		bne	.L143
 1456 0121 FD 81 3E                		shlr	#1, r3, r14
 1457 0124 EF 72                   		mov.L	r7, r2
 1458 0126 6C 2E                   		shll	#2, r14
 1459 0128 4B 5E                   		add	r5, r14
 1460                             	.LVL186:
 1461                             		.balign 8,3,3
 1462                             	.L145:
  62:../src/tensorflow/lite/micro/kernels/split.cc ****       input_ptr += copy_size;
 1463                             		.loc 1 62 43 discriminator 2
 1464 012a FD 2A 2F                		mov.L	[r2+], r15
 1465 012d FD 22 5F                		mov.L	r15, [r5+]
 1466 0130 47 E5                   		cmp	r14, r5
 1467 0132 21 F8                   		bne	.L145
 1468 0134 EF 32                   		mov.L	r3, r2
 1469 0136 7A 02                   		bclr	#0, r2
 1470 0138 47 23                   		cmp	r2, r3
 1471 013a 12                      		beq	.L146
 1472                             	.LVL187:
  62:../src/tensorflow/lite/micro/kernels/split.cc ****       input_ptr += copy_size;
 1473                             		.loc 1 62 53
 1474 013b FF 25 24                		add	r2, r4, r5
  62:../src/tensorflow/lite/micro/kernels/split.cc ****       input_ptr += copy_size;
 1475                             		.loc 1 62 43
 1476 013e FE 52 72                		mov.W	[r2,r7], r2
 1477                             	.LVL188:
 1478 0141 FE 15 12                		mov.W	r2, [r5,r1]
 1479                             	.LVL189:
 1480                             		.balign 8,3,1
 1481                             	.L146:
 1482                             	.LBE240:
  63:../src/tensorflow/lite/micro/kernels/split.cc ****     }
 1483                             		.loc 1 63 17
 1484 0144 4B 33                   		add	r3, r3
 1485                             	.LVL190:
 1486                             	.LBE235:
  57:../src/tensorflow/lite/micro/kernels/split.cc ****       TfLiteEvalTensor* t = tflite::micro::GetEvalOutput(context, node, i);
 1487                             		.loc 1 57 5
 1488 0146 62 1C                   		add	#1, r12
 1489                             	.LVL191:
 1490                             	.LBB242:
  63:../src/tensorflow/lite/micro/kernels/split.cc ****     }
 1491                             		.loc 1 63 7
 1492 0148 4B 37                   		add	r3, r7
 1493                             	.LVL192:
 1494                             	.LBE242:
  57:../src/tensorflow/lite/micro/kernels/split.cc ****       TfLiteEvalTensor* t = tflite::micro::GetEvalOutput(context, node, i);
 1495                             		.loc 1 57 23
 1496 014a 47 CB                   		cmp	r12, r11
 1497 014c 21 86                   		bne	.L140
 1498                             	.LVL193:
 1499 014e EC 05                   		mov.L	[r0], r5
 1500 0150 71 64 01                		add	#1, r6, r4
 1501                             	.LVL194:
 1502 0153 FD 74 25 00             		adc	#0, r5
 1503 0157 E3 05                   		mov.L	r5, [r0]
 1504 0159 EF 46                   		mov.L	r4, r6
 1505                             	.LBE234:
  56:../src/tensorflow/lite/micro/kernels/split.cc ****     for (int i = 0; i < output_count; ++i) {
 1506                             		.loc 1 56 21
 1507 015b A8 81                   		mov.L	8[r0], r1
 1508 015d 47 51                   		cmp	r5, r1
 1509 015f 2B 05 38 6F FF          		bgt	.L142
 1510 0164 1A                      		bne	.L158
 1511 0165 A8 0B                   		mov.L	4[r0], r3
 1512 0167 47 43                   		cmp	r4, r3
 1513 0169 25 05 38 65 FF          		bgtu	.L142
 1514                             	.LVL195:
 1515                             		.balign 8,3,1
 1516                             	.L158:
 1517                             	.LBE245:
  68:../src/tensorflow/lite/micro/kernels/split.cc **** 
 1518                             		.loc 1 68 1
 1519 016e 66 01                   		mov.L	#0, r1
 1520 0170 3F 6D 0D                		rtsd	#52, r6-r13
 1521                             	.LVL196:
 1522                             	.L143:
 1523 0173 FF 22 33                		add	r3, r3, r2
 1524 0176 EF 74                   		mov.L	r7, r4
 1525                             	.LVL197:
 1526 0178 4B 72                   		add	r7, r2
 1527                             	.LVL198:
 1528                             		.balign 8,3,5
 1529                             	.L149:
 1530                             	.LBB246:
 1531                             	.LBB244:
 1532                             	.LBB243:
 1533                             	.LBB241:
  62:../src/tensorflow/lite/micro/kernels/split.cc ****       input_ptr += copy_size;
 1534                             		.loc 1 62 43
 1535 017a FD 29 41                		mov.W	[r4+], r1
 1536 017d FD 21 51                		mov.W	r1, [r5+]
  62:../src/tensorflow/lite/micro/kernels/split.cc ****       input_ptr += copy_size;
 1537                             		.loc 1 62 25
 1538 0180 47 24                   		cmp	r2, r4
 1539 0182 21 F8                   		bne	.L149
 1540 0184 2E C0                   		bra	.L146
 1541                             	.LVL199:
 1542                             	.L131:
 1543                             	.LBE241:
 1544                             	.LBE243:
 1545                             	.LBE244:
 1546                             	.LBE246:
  45:../src/tensorflow/lite/micro/kernels/split.cc ****   for (int i = 0; i < axis; ++i) {
 1547                             		.loc 1 45 11
 1548 0186 3E 02 00                		mov.L	#0, 8[r0]
 1549                             	.LBB247:
  51:../src/tensorflow/lite/micro/kernels/split.cc ****     base_inner_size *= input_dims->data[i];
 1550                             		.loc 1 51 28
 1551 0189 47 F1                   		cmp	r15, r1
 1552 018b 2B 05 38 0D FF          		bgt	.L151
 1553                             	.LBE247:
  50:../src/tensorflow/lite/micro/kernels/split.cc ****   for (int i = axis + 1; i < split_dimensions; ++i) {
 1554                             		.loc 1 50 11
 1555 0190 66 14                   		mov.L	#1, r4
 1556 0192 38 2F FF                		bra	.L135
 1557                             	.LVL200:
 1558                             	.L152:
 1559 0195 66 14                   		mov.L	#1, r4
 1560                             	.LVL201:
 1561 0197 38 21 FF                		bra	.L133
 1562                             	.LVL202:
 1563                             	.L169:
 1564                             	.LBB248:
  56:../src/tensorflow/lite/micro/kernels/split.cc ****     for (int i = 0; i < output_count; ++i) {
 1565                             		.loc 1 56 21
 1566 019a 21 D4                   		bne	.L158
 1567 019c A8 0B                   		mov.L	4[r0], r3
 1568 019e 61 03                   		cmp	#0, r3
 1569 01a0 3B 21 FF                		bne	.L135
 1570 01a3 2E CB                   		bra	.L158
 1571                             	.LVL203:
 1572                             	.L130:
 1573                             	.LBE248:
 1574                             	.LBB249:
 1575                             	.LBB228:
  47:C:\Users\a5116938\Desktop\e2_studio_workspace\EEMBC_final\RX65N_Cloud_Kit\src/tensorflow/lite/micro/kernels\kernel_util.h ****   TFLITE_DCHECK(node != nullptr);
 1576                             		.loc 3 47 3
 1577 01a5 05 00 00 00             		bsr	_abort
 1578                             	.LVL204:
 1579                             	.LBE228:
 1580                             	.LBE249:
 1581                             	.LFE990:
 1583 01a9 FD 70 40 00 00 00 80    		.section	.text._ZN6tflite3ops5micro5split9SplitImplIlEE12TfLiteStatusP13TfLiteContextP10TfLiteNode
 1584                             		.weak	__ZN6tflite3ops5micro5split9SplitImplIlEE12TfLiteStatusP13TfLiteContextP10TfLiteNodePK16TfLi
 1586                             	__ZN6tflite3ops5micro5split9SplitImplIlEE12TfLiteStatusP13TfLiteContextP10TfLiteNodePK16TfLiteEvalT
 1587                             	.LFB991:
  28:../src/tensorflow/lite/micro/kernels/split.cc ****                        const TfLiteEvalTensor* input, int axis_value) {
 1588                             		.loc 1 28 14 is_stmt 1
 1589                             	.LVL205:
 1590 0000 6E 6D                   		pushm	r6-r13
 1591                             	.LCFI10:
 1592 0002 71 00 EC                		add	#-20, r0
 1593                             	.LCFI11:
  30:../src/tensorflow/lite/micro/kernels/split.cc ****   const TfLiteIntArray* input_dims = input->dims;
 1594                             		.loc 1 30 38 is_stmt 0
 1595 0005 A8 2F                   		mov.L	4[r2], r7
 1596                             	.LVL206:
 1597                             	.LBB266:
 1598                             	.LBB267:
 153:C:\Users\a5116938\Desktop\e2_studio_workspace\EEMBC_final\RX65N_Cloud_Kit\src/tensorflow/lite/kernels\kernel_util.h **** 
 1599                             		.loc 2 153 49 is_stmt 1
 1600                             	.LBE267:
 1601                             	.LBE266:
  31:../src/tensorflow/lite/micro/kernels/split.cc ****   const TfLiteEvalTensor* output0 =
 1602                             		.loc 1 31 25 is_stmt 0
 1603 0007 ED 3C 01                		mov.L	4[r3], r12
 1604                             	.LBB269:
 1605                             	.LBB268:
 153:C:\Users\a5116938\Desktop\e2_studio_workspace\EEMBC_final\RX65N_Cloud_Kit\src/tensorflow/lite/kernels\kernel_util.h **** 
 1606                             		.loc 2 153 71
 1607 000a EC 76                   		mov.L	[r7], r6
 1608                             	.LVL207:
 1609                             	.LBE268:
 1610                             	.LBE269:
 1611                             	.LBB270:
 1612                             	.LBB271:
  47:C:\Users\a5116938\Desktop\e2_studio_workspace\EEMBC_final\RX65N_Cloud_Kit\src/tensorflow/lite/micro/kernels\kernel_util.h ****   TFLITE_DCHECK(node != nullptr);
 1613                             		.loc 3 47 3 is_stmt 1
 1614 000c 61 01                   		cmp	#0, r1
 1615 000e 3A 43 01                		beq	.L173
 1616 0011 EF 28                   		mov.L	r2, r8
 1617 0013 EF 3A                   		mov.L	r3, r10
 1618 0015 EF 1D                   		mov.L	r1, r13
  48:C:\Users\a5116938\Desktop\e2_studio_workspace\EEMBC_final\RX65N_Cloud_Kit\src/tensorflow/lite/micro/kernels\kernel_util.h ****   return context->GetEvalTensor(context, node->outputs->data[index]);
 1619                             		.loc 3 48 3
  49:C:\Users\a5116938\Desktop\e2_studio_workspace\EEMBC_final\RX65N_Cloud_Kit\src/tensorflow/lite/micro/kernels\kernel_util.h **** }
 1620                             		.loc 3 49 3
  49:C:\Users\a5116938\Desktop\e2_studio_workspace\EEMBC_final\RX65N_Cloud_Kit\src/tensorflow/lite/micro/kernels\kernel_util.h **** }
 1621                             		.loc 3 49 32 is_stmt 0
 1622 0017 AD 1D                   		mov.L	84[r1], r5
 1623 0019 A8 7A                   		mov.L	4[r7], r2
 1624                             	.LVL208:
 1625 001b A1 04                   		mov.L	r4, 16[r0]
 1626 001d 7F 15                   		jsr	r5
 1627                             	.LVL209:
 1628                             	.LBE271:
 1629                             	.LBE270:
  34:../src/tensorflow/lite/micro/kernels/split.cc **** 
 1630                             		.loc 1 34 25
 1631 001f A8 1D                   		mov.L	4[r1], r5
 1632                             	.LVL210:
  36:../src/tensorflow/lite/micro/kernels/split.cc ****   int axis = axis_value < 0 ? axis_value + split_dimensions : axis_value;
 1633                             		.loc 1 36 44
 1634 0021 EC C2                   		mov.L	[r12], r2
 1635                             	.LVL211:
  37:../src/tensorflow/lite/micro/kernels/split.cc **** 
 1636                             		.loc 1 37 7
 1637 0023 ED 0E 04                		mov.L	16[r0], r14
 1638 0026 61 0E                   		cmp	#0, r14
 1639 0028 28 04                   		bge	.L172
  37:../src/tensorflow/lite/micro/kernels/split.cc **** 
 1640                             		.loc 1 37 7 discriminator 1
 1641 002a 4B 2E                   		add	r2, r14
 1642                             		.balign 8,3,1
 1643                             	.L172:
 1644                             	.LVL212:
  39:../src/tensorflow/lite/micro/kernels/split.cc ****   TFLITE_DCHECK_EQ(output_dims->size, split_dimensions);
 1645                             		.loc 1 39 3 discriminator 4
 1646 002c 47 E2                   		cmp	r14, r2
 1647 002e 2A 05 38 21 01          		ble	.L173
  40:../src/tensorflow/lite/micro/kernels/split.cc **** 
 1648                             		.loc 1 40 3
 1649 0033 06 84 52                		cmp	[r5].L, r2
 1650 0036 3B 1B 01                		bne	.L173
 1651 0039 FD C2 E7                		shll	#2, r14, r7
  44:../src/tensorflow/lite/micro/kernels/split.cc ****   int64_t outer_size = 1;
 1652                             		.loc 1 44 3
 1653 003c 71 EF 01                		add	#1, r14, r15
 1654 003f FF 2B 75                		add	r7, r5, r11
 1655                             	.LVL213:
 1656 0042 FE 6F C5                		mov.L	[r15,r12], r5
 1657                             	.LVL214:
  42:../src/tensorflow/lite/micro/kernels/split.cc **** 
 1658                             		.loc 1 42 48
 1659 0045 ED B7 01                		mov.L	4[r11], r7
 1660 0048 4F 67                   		mul	r6, r7
  44:../src/tensorflow/lite/micro/kernels/split.cc ****   int64_t outer_size = 1;
 1661                             		.loc 1 44 3
 1662 004a 47 57                   		cmp	r5, r7
 1663 004c 3B 05 01                		bne	.L173
 1664                             	.LVL215:
 1665 004f EF F7                   		mov.L	r15, r7
 1666 0051 EC A9                   		mov.L	[r10], r9
  45:../src/tensorflow/lite/micro/kernels/split.cc ****   for (int i = 0; i < axis; ++i) {
 1667                             		.loc 1 45 11
 1668 0053 3E 01 01                		mov.L	#1, 4[r0]
 1669                             	.LBB273:
  46:../src/tensorflow/lite/micro/kernels/split.cc ****     outer_size *= input_dims->data[i];
 1670                             		.loc 1 46 21
 1671 0056 61 0E                   		cmp	#0, r14
 1672 0058 2A 05 38 D9 00          		ble	.L174
  46:../src/tensorflow/lite/micro/kernels/split.cc ****     outer_size *= input_dims->data[i];
 1673                             		.loc 1 46 12
 1674 005d 66 0A                   		mov.L	#0, r10
 1675                             	.LVL216:
 1676                             	.LBE273:
  45:../src/tensorflow/lite/micro/kernels/split.cc ****   for (int i = 0; i < axis; ++i) {
 1677                             		.loc 1 45 11
 1678 005f 3E 02 00                		mov.L	#0, 8[r0]
 1679                             	.LBB274:
  47:../src/tensorflow/lite/micro/kernels/split.cc ****   }
 1680                             		.loc 1 47 16
 1681 0062 71 C1 04                		add	#4, r12, r1
 1682                             	.LVL217:
 1683 0065 E3 02                   		mov.L	r2, [r0]
 1684 0067 A8 0C                   		mov.L	4[r0], r4
 1685 0069 66 05                   		mov.L	#0, r5
 1686 006b E7 0C 03                		mov.L	r12, 12[r0]
 1687                             	.LVL218:
 1688 006e EF 00                   		.balign 8,3,3
 1689                             	.L175:
  47:../src/tensorflow/lite/micro/kernels/split.cc ****   }
 1690                             		.loc 1 47 16 discriminator 2
 1691 0070 FE 6A 1C                		mov.L	[r10,r1], r12
  46:../src/tensorflow/lite/micro/kernels/split.cc ****     outer_size *= input_dims->data[i];
 1692                             		.loc 1 46 3 discriminator 2
 1693 0073 62 1A                   		add	#1, r10
  47:../src/tensorflow/lite/micro/kernels/split.cc ****   }
 1694                             		.loc 1 47 16 discriminator 2
 1695 0075 FD BF C2                		shar	#31, r12, r2
  47:../src/tensorflow/lite/micro/kernels/split.cc ****   }
 1696                             		.loc 1 47 5 discriminator 2
 1697 0078 FF 33 C5                		mul	r12, r5, r3
 1698 007b 4F 42                   		mul	r4, r2
 1699 007d FC 1F C4                		emulu	r12, r4
 1700                             	.LVL219:
 1701 0080 4B 23                   		add	r2, r3
 1702 0082 4B 35                   		add	r3, r5
 1703                             	.LVL220:
  46:../src/tensorflow/lite/micro/kernels/split.cc ****     outer_size *= input_dims->data[i];
 1704                             		.loc 1 46 21 discriminator 2
 1705 0084 47 AE                   		cmp	r10, r14
 1706 0086 21 EA                   		bne	.L175
 1707 0088 EC 02                   		mov.L	[r0], r2
 1708 008a A0 0C                   		mov.L	r4, 4[r0]
 1709 008c A0 85                   		mov.L	r5, 8[r0]
 1710 008e ED 0C 03                		mov.L	12[r0], r12
 1711                             	.LVL221:
 1712                             	.LBE274:
 1713                             	.LBB275:
  51:../src/tensorflow/lite/micro/kernels/split.cc ****     base_inner_size *= input_dims->data[i];
 1714                             		.loc 1 51 28
 1715 0091 47 F2                   		cmp	r15, r2
 1716 0093 2A 05 38 AC 00          		ble	.L190
 1717                             	.LVL222:
 1718                             		.balign 8,3,1
 1719                             	.L189:
 1720                             	.LBE275:
  45:../src/tensorflow/lite/micro/kernels/split.cc ****   for (int i = 0; i < axis; ++i) {
 1721                             		.loc 1 45 11 discriminator 2
 1722 0098 66 14                   		mov.L	#1, r4
 1723 009a 66 05                   		mov.L	#0, r5
 1724                             	.LBB276:
  52:../src/tensorflow/lite/micro/kernels/split.cc ****   }
 1725                             		.loc 1 52 21 discriminator 2
 1726 009c 62 4C                   		add	#4, r12
 1727                             	.LVL223:
 1728 009e EF 00                   		.balign 8,3,3
 1729                             	.L177:
 1730 00a0 FE 67 C1                		mov.L	[r7,r12], r1
  51:../src/tensorflow/lite/micro/kernels/split.cc ****     base_inner_size *= input_dims->data[i];
 1731                             		.loc 1 51 3 discriminator 2
 1732 00a3 62 17                   		add	#1, r7
 1733                             	.LVL224:
  52:../src/tensorflow/lite/micro/kernels/split.cc ****   }
 1734                             		.loc 1 52 21 discriminator 2
 1735 00a5 FD BF 13                		shar	#31, r1, r3
  52:../src/tensorflow/lite/micro/kernels/split.cc ****   }
 1736                             		.loc 1 52 5 discriminator 2
 1737 00a8 FF 3A 15                		mul	r1, r5, r10
 1738 00ab 4F 43                   		mul	r4, r3
 1739 00ad FC 1F 14                		emulu	r1, r4
 1740                             	.LVL225:
 1741 00b0 4B 3A                   		add	r3, r10
 1742 00b2 4B A5                   		add	r10, r5
 1743                             	.LVL226:
  51:../src/tensorflow/lite/micro/kernels/split.cc ****     base_inner_size *= input_dims->data[i];
 1744                             		.loc 1 51 28 discriminator 2
 1745 00b4 47 72                   		cmp	r7, r2
 1746 00b6 2A EA                   		bgt	.L177
 1747                             	.LVL227:
 1748                             		.balign 8,3,1
 1749                             	.L176:
 1750                             	.LBE276:
 1751                             	.LBB277:
  56:../src/tensorflow/lite/micro/kernels/split.cc ****     for (int i = 0; i < output_count; ++i) {
 1752                             		.loc 1 56 21
 1753 00b8 A8 82                   		mov.L	8[r0], r2
 1754 00ba 61 02                   		cmp	#0, r2
 1755 00bc 2A 05 38 88 00          		ble	.L201
 1756                             	.LVL228:
 1757                             		.balign 8,3,1
 1758                             	.L178:
 1759 00c1 61 06                   		cmp	#0, r6
 1760 00c3 2B 6B                   		ble	.L194
 1761                             	.LBE277:
  50:../src/tensorflow/lite/micro/kernels/split.cc ****   for (int i = axis + 1; i < split_dimensions; ++i) {
 1762                             		.loc 1 50 11
 1763 00c5 66 0A                   		mov.L	#0, r10
 1764 00c7 F8 06 00                		mov.L	#0, [r0]
 1765 00ca EF 47                   		mov.L	r4, r7
 1766 00cc EF 8C                   		mov.L	r8, r12
 1767 00ce EF B8                   		mov.L	r11, r8
 1768                             	.LVL229:
 1769                             		.balign 8,3,1
 1770                             	.L185:
 1771                             	.LBB286:
 1772                             	.LBB278:
  57:../src/tensorflow/lite/micro/kernels/split.cc ****       TfLiteEvalTensor* t = tflite::micro::GetEvalOutput(context, node, i);
 1773                             		.loc 1 57 14
 1774 00d0 66 0B                   		mov.L	#0, r11
 1775                             	.LVL230:
 1776                             		.balign 8,3,1
 1777                             	.L183:
 1778                             	.LBB279:
 1779                             	.LBB280:
 1780                             	.LBB281:
  47:C:\Users\a5116938\Desktop\e2_studio_workspace\EEMBC_final\RX65N_Cloud_Kit\src/tensorflow/lite/micro/kernels\kernel_util.h ****   TFLITE_DCHECK(node != nullptr);
 1781                             		.loc 3 47 3 is_stmt 1
  48:C:\Users\a5116938\Desktop\e2_studio_workspace\EEMBC_final\RX65N_Cloud_Kit\src/tensorflow/lite/micro/kernels\kernel_util.h ****   return context->GetEvalTensor(context, node->outputs->data[index]);
 1782                             		.loc 3 48 3
  49:C:\Users\a5116938\Desktop\e2_studio_workspace\EEMBC_final\RX65N_Cloud_Kit\src/tensorflow/lite/micro/kernels\kernel_util.h **** }
 1783                             		.loc 3 49 3
  49:C:\Users\a5116938\Desktop\e2_studio_workspace\EEMBC_final\RX65N_Cloud_Kit\src/tensorflow/lite/micro/kernels\kernel_util.h **** }
 1784                             		.loc 3 49 32 is_stmt 0
 1785 00d2 ED C4 01                		mov.L	4[r12], r4
 1786 00d5 71 B3 01                		add	#1, r11, r3
 1787 00d8 ED D5 15                		mov.L	84[r13], r5
 1788 00db EF D1                   		mov.L	r13, r1
 1789 00dd FE 63 42                		mov.L	[r3,r4], r2
 1790 00e0 7F 15                   		jsr	r5
 1791                             	.LVL231:
 1792                             	.LBE281:
 1793                             	.LBE280:
 1794                             	.LBB282:
 1795                             	.LBB283:
 1796                             		.loc 3 55 28
 1797 00e2 61 01                   		cmp	#0, r1
 1798 00e4 14                      		beq	.L181
 1799 00e5 EC 11                   		mov.L	[r1], r1
 1800                             	.LVL232:
 1801 00e7 03                      		.balign 8,3,1
 1802                             	.L181:
 1803                             	.LBE283:
 1804                             	.LBE282:
  60:../src/tensorflow/lite/micro/kernels/split.cc ****       T* output_ptr = output_data + k * copy_size;
 1805                             		.loc 1 60 17
 1806 00e8 ED 83 01                		mov.L	4[r8], r3
 1807 00eb 4F 73                   		mul	r7, r3
 1808                             	.LVL233:
  61:../src/tensorflow/lite/micro/kernels/split.cc ****       for (int j = 0; j < copy_size; ++j) output_ptr[j] = input_ptr[j];
 1809                             		.loc 1 61 39
 1810 00ed FF 35 A3                		mul	r10, r3, r5
 1811                             	.LVL234:
 1812                             	.LBB284:
  62:../src/tensorflow/lite/micro/kernels/split.cc ****       input_ptr += copy_size;
 1813                             		.loc 1 62 25
 1814 00f0 61 03                   		cmp	#0, r3
 1815 00f2 2B 18                   		ble	.L186
 1816 00f4 FD C2 52                		shll	#2, r5, r2
 1817                             	.LVL235:
 1818 00f7 FD C2 34                		shll	#2, r3, r4
 1819 00fa EF 95                   		mov.L	r9, r5
 1820 00fc 4B 21                   		add	r2, r1
 1821                             	.LVL236:
 1822 00fe 4B 94                   		add	r9, r4
 1823                             	.LVL237:
 1824                             		.balign 8,3,3
 1825                             	.L187:
  62:../src/tensorflow/lite/micro/kernels/split.cc ****       input_ptr += copy_size;
 1826                             		.loc 1 62 43 discriminator 2
 1827 0100 FD 2A 52                		mov.L	[r5+], r2
 1828 0103 FD 22 12                		mov.L	r2, [r1+]
  62:../src/tensorflow/lite/micro/kernels/split.cc ****       input_ptr += copy_size;
 1829                             		.loc 1 62 25 discriminator 2
 1830 0106 47 54                   		cmp	r5, r4
 1831 0108 21 F8                   		bne	.L187
 1832                             		.balign 8,3,1
 1833                             	.L186:
 1834                             	.LBE284:
  63:../src/tensorflow/lite/micro/kernels/split.cc ****     }
 1835                             		.loc 1 63 17
 1836 010a 6C 23                   		shll	#2, r3
 1837                             	.LVL238:
 1838                             	.LBE279:
  57:../src/tensorflow/lite/micro/kernels/split.cc ****       TfLiteEvalTensor* t = tflite::micro::GetEvalOutput(context, node, i);
 1839                             		.loc 1 57 5
 1840 010c 62 1B                   		add	#1, r11
 1841                             	.LVL239:
 1842                             	.LBB285:
  63:../src/tensorflow/lite/micro/kernels/split.cc ****     }
 1843                             		.loc 1 63 7
 1844 010e 4B 39                   		add	r3, r9
 1845                             	.LVL240:
 1846                             	.LBE285:
  57:../src/tensorflow/lite/micro/kernels/split.cc ****       TfLiteEvalTensor* t = tflite::micro::GetEvalOutput(context, node, i);
 1847                             		.loc 1 57 23
 1848 0110 47 B6                   		cmp	r11, r6
 1849 0112 21 C0                   		bne	.L183
 1850                             	.LVL241:
 1851 0114 EC 05                   		mov.L	[r0], r5
 1852 0116 71 A4 01                		add	#1, r10, r4
 1853                             	.LVL242:
 1854 0119 FD 74 25 00             		adc	#0, r5
 1855 011d E3 05                   		mov.L	r5, [r0]
 1856 011f EF 4A                   		mov.L	r4, r10
 1857                             	.LBE278:
  56:../src/tensorflow/lite/micro/kernels/split.cc ****     for (int i = 0; i < output_count; ++i) {
 1858                             		.loc 1 56 21
 1859 0121 A8 83                   		mov.L	8[r0], r3
 1860 0123 47 53                   		cmp	r5, r3
 1861 0125 2A AB                   		bgt	.L185
 1862 0127 1F                      		bne	.L194
 1863 0128 A8 0C                   		mov.L	4[r0], r4
 1864                             	.LVL243:
 1865 012a 47 A4                   		cmp	r10, r4
 1866 012c 24 A4                   		bgtu	.L185
 1867                             	.LVL244:
 1868                             		.balign 8,3,1
 1869                             	.L194:
 1870                             	.LBE286:
  68:../src/tensorflow/lite/micro/kernels/split.cc **** 
 1871                             		.loc 1 68 1
 1872 012e 66 01                   		mov.L	#0, r1
 1873 0130 3F 6D 0D                		rtsd	#52, r6-r13
 1874                             	.LVL245:
 1875                             	.L174:
  45:../src/tensorflow/lite/micro/kernels/split.cc ****   for (int i = 0; i < axis; ++i) {
 1876                             		.loc 1 45 11
 1877 0133 3E 02 00                		mov.L	#0, 8[r0]
 1878                             	.LBB287:
  51:../src/tensorflow/lite/micro/kernels/split.cc ****     base_inner_size *= input_dims->data[i];
 1879                             		.loc 1 51 28
 1880 0136 47 F2                   		cmp	r15, r2
 1881 0138 2B 05 38 5E FF          		bgt	.L189
 1882                             	.LBE287:
  50:../src/tensorflow/lite/micro/kernels/split.cc ****   for (int i = axis + 1; i < split_dimensions; ++i) {
 1883                             		.loc 1 50 11
 1884 013d 66 14                   		mov.L	#1, r4
 1885 013f 2E 82                   		bra	.L178
 1886                             	.LVL246:
 1887                             	.L190:
 1888 0141 66 14                   		mov.L	#1, r4
 1889                             	.LVL247:
 1890 0143 38 75 FF                		bra	.L176
 1891                             	.LVL248:
 1892                             	.L201:
 1893                             	.LBB288:
  56:../src/tensorflow/lite/micro/kernels/split.cc ****     for (int i = 0; i < output_count; ++i) {
 1894                             		.loc 1 56 21
 1895 0146 21 E8                   		bne	.L194
 1896 0148 A8 0B                   		mov.L	4[r0], r3
 1897 014a 61 03                   		cmp	#0, r3
 1898 014c 3B 75 FF                		bne	.L178
 1899 014f 2E DF                   		bra	.L194
 1900                             	.LVL249:
 1901                             	.L173:
 1902                             	.LBE288:
 1903                             	.LBB289:
 1904                             	.LBB272:
  47:C:\Users\a5116938\Desktop\e2_studio_workspace\EEMBC_final\RX65N_Cloud_Kit\src/tensorflow/lite/micro/kernels\kernel_util.h ****   TFLITE_DCHECK(node != nullptr);
 1905                             		.loc 3 47 3
 1906 0151 05 00 00 00             		bsr	_abort
 1907                             	.LVL250:
 1908                             	.LBE272:
 1909                             	.LBE289:
 1910                             	.LFE991:
 1912 0155 FC 13 00                		.section	.text._ZN6tflite3ops5micro5split4EvalEP13TfLiteContextP10TfLiteNode,"ax",@progbits
 1913                             		.global	__ZN6tflite3ops5micro5split4EvalEP13TfLiteContextP10TfLiteNode
 1915                             	__ZN6tflite3ops5micro5split4EvalEP13TfLiteContextP10TfLiteNode:
 1916                             	.LFB978:
  82:../src/tensorflow/lite/micro/kernels/split.cc ****   const TfLiteEvalTensor* axis = tflite::micro::GetEvalInput(context, node, 0);
 1917                             		.loc 1 82 61 is_stmt 1
 1918                             	.LVL251:
 1919 0000 6E 6A                   		pushm	r6-r10
 1920                             	.LCFI12:
 1921 0002 71 00 F0                		add	#-16, r0
 1922                             	.LCFI13:
  83:../src/tensorflow/lite/micro/kernels/split.cc ****   const TfLiteEvalTensor* input = tflite::micro::GetEvalInput(context, node, 1);
 1923                             		.loc 1 83 3
 1924                             	.LVL252:
  41:C:\Users\a5116938\Desktop\e2_studio_workspace\EEMBC_final\RX65N_Cloud_Kit\src/tensorflow/lite/micro/kernels\kernel_util.h **** }
 1925                             		.loc 3 41 3
 1926                             	.LBB300:
 1927                             	.LBB301:
 1928                             	.LBB302:
  33:C:\Users\a5116938\Desktop\e2_studio_workspace\EEMBC_final\RX65N_Cloud_Kit\src/tensorflow/lite/micro/kernels\kernel_util.h ****   TFLITE_DCHECK(node != nullptr);
 1929                             		.loc 3 33 3
 1930 0005 61 01                   		cmp	#0, r1
 1931 0007 3A E9 00                		beq	.L204
  34:C:\Users\a5116938\Desktop\e2_studio_workspace\EEMBC_final\RX65N_Cloud_Kit\src/tensorflow/lite/micro/kernels\kernel_util.h ****   return context->GetEvalTensor(context, node->inputs->data[index]);
 1932                             		.loc 3 34 3 is_stmt 0
 1933 000a 71 2A 00                		add	#0, r2, r10
 1934 000d 3A E3 00                		beq	.L204
 1935 0010 EF 17                   		mov.L	r1, r7
  35:C:\Users\a5116938\Desktop\e2_studio_workspace\EEMBC_final\RX65N_Cloud_Kit\src/tensorflow/lite/micro/kernels\kernel_util.h **** }
 1936                             		.loc 3 35 3 is_stmt 1
  35:C:\Users\a5116938\Desktop\e2_studio_workspace\EEMBC_final\RX65N_Cloud_Kit\src/tensorflow/lite/micro/kernels\kernel_util.h **** }
 1937                             		.loc 3 35 32 is_stmt 0
 1938 0012 EC A4                   		mov.L	[r10], r4
 1939 0014 AD 1D                   		mov.L	84[r1], r5
 1940 0016 A8 4A                   		mov.L	4[r4], r2
 1941                             	.LVL253:
 1942 0018 7F 15                   		jsr	r5
 1943                             	.LVL254:
 1944 001a EF 16                   		mov.L	r1, r6
 1945                             	.LVL255:
 1946                             	.LBE302:
 1947                             	.LBE301:
 1948                             	.LBE300:
  84:../src/tensorflow/lite/micro/kernels/split.cc **** 
 1949                             		.loc 1 84 3 is_stmt 1
  41:C:\Users\a5116938\Desktop\e2_studio_workspace\EEMBC_final\RX65N_Cloud_Kit\src/tensorflow/lite/micro/kernels\kernel_util.h **** }
 1950                             		.loc 3 41 3
 1951                             	.LBB305:
 1952                             	.LBB306:
 1953                             	.LBB307:
  33:C:\Users\a5116938\Desktop\e2_studio_workspace\EEMBC_final\RX65N_Cloud_Kit\src/tensorflow/lite/micro/kernels\kernel_util.h ****   TFLITE_DCHECK(node != nullptr);
 1954                             		.loc 3 33 3
  34:C:\Users\a5116938\Desktop\e2_studio_workspace\EEMBC_final\RX65N_Cloud_Kit\src/tensorflow/lite/micro/kernels\kernel_util.h ****   return context->GetEvalTensor(context, node->inputs->data[index]);
 1955                             		.loc 3 34 3
  35:C:\Users\a5116938\Desktop\e2_studio_workspace\EEMBC_final\RX65N_Cloud_Kit\src/tensorflow/lite/micro/kernels\kernel_util.h **** }
 1956                             		.loc 3 35 3
  35:C:\Users\a5116938\Desktop\e2_studio_workspace\EEMBC_final\RX65N_Cloud_Kit\src/tensorflow/lite/micro/kernels\kernel_util.h **** }
 1957                             		.loc 3 35 32 is_stmt 0
 1958 001c EC A4                   		mov.L	[r10], r4
 1959 001e AD 7D                   		mov.L	84[r7], r5
 1960 0020 EF 71                   		mov.L	r7, r1
 1961                             	.LVL256:
 1962 0022 A8 C2                   		mov.L	8[r4], r2
 1963 0024 7F 15                   		jsr	r5
 1964                             	.LVL257:
 1965                             	.LBE307:
 1966                             	.LBE306:
 1967                             	.LBE305:
  86:../src/tensorflow/lite/micro/kernels/split.cc ****   if (axis_value < 0) {
 1968                             		.loc 1 86 3 is_stmt 1
 1969                             	.LBB308:
 1970                             	.LBB309:
  56:C:\Users\a5116938\Desktop\e2_studio_workspace\EEMBC_final\RX65N_Cloud_Kit\src/tensorflow/lite/micro/kernels\kernel_util.h **** }
  57:C:\Users\a5116938\Desktop\e2_studio_workspace\EEMBC_final\RX65N_Cloud_Kit\src/tensorflow/lite/micro/kernels\kernel_util.h **** 
  58:C:\Users\a5116938\Desktop\e2_studio_workspace\EEMBC_final\RX65N_Cloud_Kit\src/tensorflow/lite/micro/kernels\kernel_util.h **** // Returns const data for a TfLiteEvalTensor struct.
  59:C:\Users\a5116938\Desktop\e2_studio_workspace\EEMBC_final\RX65N_Cloud_Kit\src/tensorflow/lite/micro/kernels\kernel_util.h **** template <typename T>
  60:C:\Users\a5116938\Desktop\e2_studio_workspace\EEMBC_final\RX65N_Cloud_Kit\src/tensorflow/lite/micro/kernels\kernel_util.h **** const T* GetTensorData(const TfLiteEvalTensor* tensor) {
  61:C:\Users\a5116938\Desktop\e2_studio_workspace\EEMBC_final\RX65N_Cloud_Kit\src/tensorflow/lite/micro/kernels\kernel_util.h ****   TFLITE_DCHECK(tensor != nullptr);
 1971                             		.loc 3 61 3 is_stmt 0
 1972 0026 61 06                   		cmp	#0, r6
 1973 0028 3A C8 00                		beq	.L204
 1974                             	.LVL258:
 1975                             	.LBE309:
 1976                             	.LBE308:
  86:../src/tensorflow/lite/micro/kernels/split.cc ****   if (axis_value < 0) {
 1977                             		.loc 1 86 65
 1978 002b EC 64                   		mov.L	[r6], r4
 1979 002d A8 1D                   		mov.L	4[r1], r5
 1980 002f EC 44                   		mov.L	[r4], r4
 1981                             	.LVL259:
  87:../src/tensorflow/lite/micro/kernels/split.cc ****     axis_value += input->dims->size;
 1982                             		.loc 1 87 3 is_stmt 1
 1983 0031 EC 55                   		mov.L	[r5], r5
 1984 0033 61 04                   		cmp	#0, r4
 1985 0035 29 61                   		blt	.L223
 1986 0037 03                      		.balign 8,3,1
 1987                             	.L205:
  92:../src/tensorflow/lite/micro/kernels/split.cc **** 
 1988                             		.loc 1 92 3
  92:../src/tensorflow/lite/micro/kernels/split.cc **** 
 1989                             		.loc 1 92 3
 1990 0038 47 45                   		cmp	r4, r5
 1991 003a 2B 22                   		ble	.L224
  94:../src/tensorflow/lite/micro/kernels/split.cc ****     case kTfLiteFloat32: {
 1992                             		.loc 1 94 3
  94:../src/tensorflow/lite/micro/kernels/split.cc ****     case kTfLiteFloat32: {
 1993                             		.loc 1 94 18 is_stmt 0
 1994 003c A8 95                   		mov.L	8[r1], r5
  94:../src/tensorflow/lite/micro/kernels/split.cc ****     case kTfLiteFloat32: {
 1995                             		.loc 1 94 3
 1996 003e 61 35                   		cmp	#3, r5
 1997 0040 20 69                   		beq	.L208
 1998 0042 24 3D                   		bgtu	.L209
 1999 0044 61 15                   		cmp	#1, r5
 2000 0046 3A 9B 00                		beq	.L210
 2001 0049 61 25                   		cmp	#2, r5
 2002 004b 21 7C                   		bne	.L212
 107:../src/tensorflow/lite/micro/kernels/split.cc ****       return SplitImpl<int32_t>(context, node, input, axis_value);
 2003                             		.loc 1 107 5 is_stmt 1
 107:../src/tensorflow/lite/micro/kernels/split.cc ****       return SplitImpl<int32_t>(context, node, input, axis_value);
 2004                             		.loc 1 107 24
 108:../src/tensorflow/lite/micro/kernels/split.cc ****     }
 2005                             		.loc 1 108 7
 108:../src/tensorflow/lite/micro/kernels/split.cc ****     }
 2006                             		.loc 1 108 32 is_stmt 0
 2007 004d EF 13                   		mov.L	r1, r3
 2008 004f EF A2                   		mov.L	r10, r2
 2009 0051 EF 71                   		mov.L	r7, r1
 2010                             	.LVL260:
 118:../src/tensorflow/lite/micro/kernels/split.cc **** 
 2011                             		.loc 1 118 1
 2012 0053 71 00 10                		add	#16, r0
 2013 0056 6F 6A                   		popm	r6-r10
 2014                             	.LVL261:
 108:../src/tensorflow/lite/micro/kernels/split.cc ****     }
 2015                             		.loc 1 108 32
 2016 0058 04 00 00 00             		bra	__ZN6tflite3ops5micro5split9SplitImplIlEE12TfLiteStatusP13TfLiteContextP10TfLiteNodePK16TfLite
 2017                             	.LVL262:
 2018                             	.L224:
  92:../src/tensorflow/lite/micro/kernels/split.cc **** 
 2019                             		.loc 1 92 3 is_stmt 1 discriminator 1
  92:../src/tensorflow/lite/micro/kernels/split.cc **** 
 2020                             		.loc 1 92 3 discriminator 1
 2021 005c ED 7A 05                		mov.L	20[r7], r10
 2022 005f F9 02 03 10 00 00 00    		mov.L	#.LC6, 12[r0]
 2023 0066 3E 02 5C                		mov.L	#0x5c, 8[r0]
 2024                             	.L222:
 2025 0069 F9 02 01 10 00 00 00    		mov.L	#.LC2, 4[r0]
 2026 0070 EF 71                   		mov.L	r7, r1
 2027                             	.LVL263:
 2028 0072 F8 02 3E 00 00 00       		mov.L	#.LC3, [r0]
 2029 0078 7F 1A                   		jsr	r10
 2030                             	.LVL264:
  92:../src/tensorflow/lite/micro/kernels/split.cc **** 
 2031                             		.loc 1 92 3 discriminator 1
 2032 007a 66 11                   		mov.L	#1, r1
 118:../src/tensorflow/lite/micro/kernels/split.cc **** 
 2033                             		.loc 1 118 1 is_stmt 0 discriminator 1
 2034 007c 3F 6A 09                		rtsd	#36, r6-r10
 2035                             	.LVL265:
 2036                             	.L209:
  94:../src/tensorflow/lite/micro/kernels/split.cc ****     case kTfLiteFloat32: {
 2037                             		.loc 1 94 3
 2038 007f 61 75                   		cmp	#7, r5
 2039 0081 20 37                   		beq	.L213
 2040 0083 61 95                   		cmp	#9, r5
 2041 0085 21 42                   		bne	.L212
 101:../src/tensorflow/lite/micro/kernels/split.cc ****       return SplitImpl<int8_t>(context, node, input, axis_value);
 2042                             		.loc 1 101 5 is_stmt 1
 101:../src/tensorflow/lite/micro/kernels/split.cc ****       return SplitImpl<int8_t>(context, node, input, axis_value);
 2043                             		.loc 1 101 23
 102:../src/tensorflow/lite/micro/kernels/split.cc ****     }
 2044                             		.loc 1 102 7
 102:../src/tensorflow/lite/micro/kernels/split.cc ****     }
 2045                             		.loc 1 102 31 is_stmt 0
 2046 0087 EF 13                   		mov.L	r1, r3
 2047 0089 EF A2                   		mov.L	r10, r2
 2048 008b EF 71                   		mov.L	r7, r1
 2049                             	.LVL266:
 118:../src/tensorflow/lite/micro/kernels/split.cc **** 
 2050                             		.loc 1 118 1
 2051 008d 71 00 10                		add	#16, r0
 2052 0090 6F 6A                   		popm	r6-r10
 2053                             	.LVL267:
 102:../src/tensorflow/lite/micro/kernels/split.cc ****     }
 2054                             		.loc 1 102 31
 2055 0092 04 00 00 00             		bra	__ZN6tflite3ops5micro5split9SplitImplIaEE12TfLiteStatusP13TfLiteContextP10TfLiteNodePK16TfLite
 2056                             	.LVL268:
 2057                             	.L223:
  88:../src/tensorflow/lite/micro/kernels/split.cc ****   }
 2058                             		.loc 1 88 5 is_stmt 1
  88:../src/tensorflow/lite/micro/kernels/split.cc ****   }
 2059                             		.loc 1 88 16 is_stmt 0
 2060 0096 4B 54                   		add	r5, r4
 2061                             	.LVL269:
  91:../src/tensorflow/lite/micro/kernels/split.cc ****   TF_LITE_ENSURE(context, axis_value < input->dims->size);
 2062                             		.loc 1 91 3 is_stmt 1
  91:../src/tensorflow/lite/micro/kernels/split.cc ****   TF_LITE_ENSURE(context, axis_value < input->dims->size);
 2063                             		.loc 1 91 3
 2064 0098 26 A0                   		bpz	.L205
  91:../src/tensorflow/lite/micro/kernels/split.cc ****   TF_LITE_ENSURE(context, axis_value < input->dims->size);
 2065                             		.loc 1 91 3 discriminator 1
  91:../src/tensorflow/lite/micro/kernels/split.cc ****   TF_LITE_ENSURE(context, axis_value < input->dims->size);
 2066                             		.loc 1 91 3 discriminator 1
 2067 009a ED 7A 05                		mov.L	20[r7], r10
 2068 009d F9 02 03 00 00 00 00    		mov.L	#.LC5, 12[r0]
 2069 00a4 3E 02 5B                		mov.L	#0x5b, 8[r0]
 2070 00a7 2E C2                   		bra	.L222
 2071                             	.L208:
  98:../src/tensorflow/lite/micro/kernels/split.cc ****       return SplitImpl<uint8_t>(context, node, input, axis_value);
 2072                             		.loc 1 98 5
  98:../src/tensorflow/lite/micro/kernels/split.cc ****       return SplitImpl<uint8_t>(context, node, input, axis_value);
 2073                             		.loc 1 98 24
  99:../src/tensorflow/lite/micro/kernels/split.cc ****     }
 2074                             		.loc 1 99 7
  99:../src/tensorflow/lite/micro/kernels/split.cc ****     }
 2075                             		.loc 1 99 32 is_stmt 0
 2076 00a9 EF 13                   		mov.L	r1, r3
 2077 00ab EF A2                   		mov.L	r10, r2
 2078 00ad EF 71                   		mov.L	r7, r1
 2079                             	.LVL270:
 118:../src/tensorflow/lite/micro/kernels/split.cc **** 
 2080                             		.loc 1 118 1
 2081 00af 71 00 10                		add	#16, r0
 2082 00b2 6F 6A                   		popm	r6-r10
 2083                             	.LVL271:
  99:../src/tensorflow/lite/micro/kernels/split.cc ****     }
 2084                             		.loc 1 99 32
 2085 00b4 04 00 00 00             		bra	__ZN6tflite3ops5micro5split9SplitImplIhEE12TfLiteStatusP13TfLiteContextP10TfLiteNodePK16TfLite
 2086                             	.LVL272:
 2087                             	.L213:
 104:../src/tensorflow/lite/micro/kernels/split.cc ****       return SplitImpl<int16_t>(context, node, input, axis_value);
 2088                             		.loc 1 104 5 is_stmt 1
 104:../src/tensorflow/lite/micro/kernels/split.cc ****       return SplitImpl<int16_t>(context, node, input, axis_value);
 2089                             		.loc 1 104 24
 105:../src/tensorflow/lite/micro/kernels/split.cc ****     }
 2090                             		.loc 1 105 7
 105:../src/tensorflow/lite/micro/kernels/split.cc ****     }
 2091                             		.loc 1 105 32 is_stmt 0
 2092 00b8 EF 13                   		mov.L	r1, r3
 2093 00ba EF A2                   		mov.L	r10, r2
 2094 00bc EF 71                   		mov.L	r7, r1
 2095                             	.LVL273:
 118:../src/tensorflow/lite/micro/kernels/split.cc **** 
 2096                             		.loc 1 118 1
 2097 00be 71 00 10                		add	#16, r0
 2098 00c1 6F 6A                   		popm	r6-r10
 2099                             	.LVL274:
 105:../src/tensorflow/lite/micro/kernels/split.cc ****     }
 2100                             		.loc 1 105 32
 2101 00c3 04 00 00 00             		bra	__ZN6tflite3ops5micro5split9SplitImplIsEE12TfLiteStatusP13TfLiteContextP10TfLiteNodePK16TfLite
 2102                             	.LVL275:
 2103                             	.L212:
 110:../src/tensorflow/lite/micro/kernels/split.cc ****       TF_LITE_KERNEL_LOG(context, "Type %s currently not supported.",
 2104                             		.loc 1 110 5 is_stmt 1
 111:../src/tensorflow/lite/micro/kernels/split.cc ****                          TfLiteTypeGetName(input->type));
 2105                             		.loc 1 111 7
 111:../src/tensorflow/lite/micro/kernels/split.cc ****                          TfLiteTypeGetName(input->type));
 2106                             		.loc 1 111 7
 2107 00c7 EF 51                   		mov.L	r5, r1
 2108                             	.LVL276:
 2109 00c9 ED 7A 05                		mov.L	20[r7], r10
 2110 00cc 05 00 00 00             		bsr	_TfLiteTypeGetName
 2111                             	.LVL277:
 2112 00d0 A0 09                   		mov.L	r1, 4[r0]
 2113 00d2 EF 71                   		mov.L	r7, r1
 2114 00d4 F8 02 2F 00 00 00       		mov.L	#.LC7, [r0]
 2115 00da 7F 1A                   		jsr	r10
 2116                             	.LVL278:
 113:../src/tensorflow/lite/micro/kernels/split.cc ****   }
 2117                             		.loc 1 113 7
 113:../src/tensorflow/lite/micro/kernels/split.cc ****   }
 2118                             		.loc 1 113 14 is_stmt 0
 2119 00dc 66 11                   		mov.L	#1, r1
 118:../src/tensorflow/lite/micro/kernels/split.cc **** 
 2120                             		.loc 1 118 1
 2121 00de 3F 6A 09                		rtsd	#36, r6-r10
 2122                             	.LVL279:
 2123                             	.L210:
  95:../src/tensorflow/lite/micro/kernels/split.cc ****       return SplitImpl<float>(context, node, input, axis_value);
 2124                             		.loc 1 95 5 is_stmt 1
  95:../src/tensorflow/lite/micro/kernels/split.cc ****       return SplitImpl<float>(context, node, input, axis_value);
 2125                             		.loc 1 95 26
  96:../src/tensorflow/lite/micro/kernels/split.cc ****     }
 2126                             		.loc 1 96 7
  96:../src/tensorflow/lite/micro/kernels/split.cc ****     }
 2127                             		.loc 1 96 30 is_stmt 0
 2128 00e1 EF 13                   		mov.L	r1, r3
 2129 00e3 EF A2                   		mov.L	r10, r2
 2130 00e5 EF 71                   		mov.L	r7, r1
 2131                             	.LVL280:
 118:../src/tensorflow/lite/micro/kernels/split.cc **** 
 2132                             		.loc 1 118 1
 2133 00e7 71 00 10                		add	#16, r0
 2134 00ea 6F 6A                   		popm	r6-r10
 2135                             	.LVL281:
  96:../src/tensorflow/lite/micro/kernels/split.cc ****     }
 2136                             		.loc 1 96 30
 2137 00ec 04 00 00 00             		bra	__ZN6tflite3ops5micro5split9SplitImplIfEE12TfLiteStatusP13TfLiteContextP10TfLiteNodePK16TfLite
 2138                             	.LVL282:
 2139                             	.L204:
 2140                             	.LBB310:
 2141                             	.LBB304:
 2142                             	.LBB303:
  33:C:\Users\a5116938\Desktop\e2_studio_workspace\EEMBC_final\RX65N_Cloud_Kit\src/tensorflow/lite/micro/kernels\kernel_util.h ****   TFLITE_DCHECK(node != nullptr);
 2143                             		.loc 3 33 3
 2144 00f0 05 00 00 00             		bsr	_abort
 2145                             	.LVL283:
 2146                             	.LBE303:
 2147                             	.LBE304:
 2148                             	.LBE310:
 2149                             	.LFE978:
 2151 00f4 76 10 01 00             		.section C,"a",@progbits
 2152                             		.p2align 2
 2153                             		.balign 4
 2154                             		.set	.LANCHOR0,. + 0
 2155                             	.LC0:
 2156 0000 00 00 00 00             		.long	0
 2157 0004 00 00 00 00             		.long	0
 2158 0008 00 00 00 00             		.long	__ZN6tflite3ops5micro5split7PrepareEP13TfLiteContextP10TfLiteNode
 2159 000c 00 00 00 00             		.long	__ZN6tflite3ops5micro5split4EvalEP13TfLiteContextP10TfLiteNode
 2160 0010 00 00 00 00             		.long	0
 2161 0014 00 00 00 00             		.long	0
 2162 0018 00 00 00 00             		.long	0
 2163 001c 00 00 00 00             		.long	0
 2164                             		.section	.rodata._ZN6tflite3ops5micro5split4EvalEP13TfLiteContextP10TfLiteNode.str1.1,"aMS",@progb
 2165                             	.LC5:
 2166 0000 61 78 69 73 5F 76 61 6C 		.string	"axis_value >= 0"
 2166      75 65 20 3E 3D 20 30 00 
 2167                             	.LC6:
 2168 0010 61 78 69 73 5F 76 61 6C 		.string	"axis_value < input->dims->size"
 2168      75 65 20 3C 20 69 6E 70 
 2168      75 74 2D 3E 64 69 6D 73 
 2168      2D 3E 73 69 7A 65 00 
 2169                             	.LC7:
 2170 002f 54 79 70 65 20 25 73 20 		.string	"Type %s currently not supported."
 2170      63 75 72 72 65 6E 74 6C 
 2170      79 20 6E 6F 74 20 73 75 
 2170      70 70 6F 72 74 65 64 2E 
 2170      00 
 2171                             		.section	.rodata._ZN6tflite3ops5micro5split7PrepareEP13TfLiteContextP10TfLiteNode.str1.1,"aMS",@pr
 2172                             	.LC1:
 2173 0000 61 78 69 73 20 21 3D 20 		.string	"axis != nullptr"
 2173      6E 75 6C 6C 70 74 72 00 
 2174                             	.LC2:
 2175 0010 2E 2E 2F 73 72 63 2F 74 		.string	"../src/tensorflow/lite/micro/kernels/split.cc"
 2175      65 6E 73 6F 72 66 6C 6F 
 2175      77 2F 6C 69 74 65 2F 6D 
 2175      69 63 72 6F 2F 6B 65 72 
 2175      6E 65 6C 73 2F 73 70 6C 
 2176                             	.LC3:
 2177 003e 25 73 3A 25 64 20 25 73 		.string	"%s:%d %s was not true."
 2177      20 77 61 73 20 6E 6F 74 
 2177      20 74 72 75 65 2E 00 
 2178                             	.LC4:
 2179 0055 2E 2E 2F 73 72 63 2F 74 		.string	"../src/tensorflow/lite/micro/kernels/split.cc Non constant axis tensor not supported"
 2179      65 6E 73 6F 72 66 6C 6F 
 2179      77 2F 6C 69 74 65 2F 6D 
 2179      69 63 72 6F 2F 6B 65 72 
 2179      6E 65 6C 73 2F 73 70 6C 
 2410                             	.Letext0:
 2411                             		.file 4 "c:\\gcc for renesas rx 8.3.0.202004-gnurx-elf\\rx-elf\\rx-elf\\rx-elf\\include\\machine\\
 2412                             		.file 5 "c:\\gcc for renesas rx 8.3.0.202004-gnurx-elf\\rx-elf\\rx-elf\\rx-elf\\include\\sys\\_std
 2413                             		.file 6 "c:\\gcc for renesas rx 8.3.0.202004-gnurx-elf\\rx-elf\\rx-elf\\rx-elf\\include\\stdint.h"
 2414                             		.file 7 "c:\\gcc for renesas rx 8.3.0.202004-gnurx-elf\\rx-elf\\rx-elf\\lib\\gcc\\rx-elf\\8.3.0.20
 2415                             		.file 8 "C:\\Users\\a5116938\\Desktop\\e2_studio_workspace\\EEMBC_final\\RX65N_Cloud_Kit\\src/tens
 2416                             		.file 9 "c:\\gcc for renesas rx 8.3.0.202004-gnurx-elf\\rx-elf\\rx-elf\\rx-elf\\include\\c++\\8.3.
 2417                             		.file 10 "c:\\gcc for renesas rx 8.3.0.202004-gnurx-elf\\rx-elf\\rx-elf\\rx-elf\\include\\c++\\8.3
 2418                             		.file 11 "c:\\gcc for renesas rx 8.3.0.202004-gnurx-elf\\rx-elf\\rx-elf\\rx-elf\\include\\c++\\8.3
 2419                             		.file 12 "c:\\gcc for renesas rx 8.3.0.202004-gnurx-elf\\rx-elf\\rx-elf\\rx-elf\\include\\c++\\8.3
 2420                             		.file 13 "c:\\gcc for renesas rx 8.3.0.202004-gnurx-elf\\rx-elf\\rx-elf\\rx-elf\\include\\c++\\8.3
 2421                             		.file 14 "c:\\gcc for renesas rx 8.3.0.202004-gnurx-elf\\rx-elf\\rx-elf\\rx-elf\\include\\c++\\8.3
 2422                             		.file 15 "c:\\gcc for renesas rx 8.3.0.202004-gnurx-elf\\rx-elf\\rx-elf\\rx-elf\\include\\c++\\8.3
 2423                             		.file 16 "c:\\gcc for renesas rx 8.3.0.202004-gnurx-elf\\rx-elf\\rx-elf\\rx-elf\\include\\c++\\8.3
 2424                             		.file 17 "c:\\gcc for renesas rx 8.3.0.202004-gnurx-elf\\rx-elf\\rx-elf\\rx-elf\\include\\c++\\8.3
 2425                             		.file 18 "c:\\gcc for renesas rx 8.3.0.202004-gnurx-elf\\rx-elf\\rx-elf\\rx-elf\\include\\c++\\8.3
 2426                             		.file 19 "c:\\gcc for renesas rx 8.3.0.202004-gnurx-elf\\rx-elf\\rx-elf\\rx-elf\\include\\c++\\8.3
 2427                             		.file 20 "c:\\gcc for renesas rx 8.3.0.202004-gnurx-elf\\rx-elf\\rx-elf\\rx-elf\\include\\c++\\8.3
 2428                             		.file 21 "c:\\gcc for renesas rx 8.3.0.202004-gnurx-elf\\rx-elf\\rx-elf\\rx-elf\\include\\c++\\8.3
 2429                             		.file 22 "c:\\gcc for renesas rx 8.3.0.202004-gnurx-elf\\rx-elf\\rx-elf\\rx-elf\\include\\sys\\loc
 2430                             		.file 23 "c:\\gcc for renesas rx 8.3.0.202004-gnurx-elf\\rx-elf\\rx-elf\\rx-elf\\include\\sys\\_ty
 2431                             		.file 24 "c:\\gcc for renesas rx 8.3.0.202004-gnurx-elf\\rx-elf\\rx-elf\\rx-elf\\include\\sys\\ree
 2432                             		.file 25 "c:\\gcc for renesas rx 8.3.0.202004-gnurx-elf\\rx-elf\\rx-elf\\rx-elf\\include\\stdlib.h
 2433                             		.file 26 "c:\\gcc for renesas rx 8.3.0.202004-gnurx-elf\\rx-elf\\rx-elf\\rx-elf\\include\\string.h
 2434                             		.file 27 "c:\\gcc for renesas rx 8.3.0.202004-gnurx-elf\\rx-elf\\rx-elf\\rx-elf\\include\\stdio.h"
 2435                             		.file 28 "C:\\Users\\a5116938\\Desktop\\e2_studio_workspace\\EEMBC_final\\RX65N_Cloud_Kit\\src/ten
 2436                             		.file 29 "<built-in>"
